Certificate:
    Data:
        Version: 3 (0x2)
        Serial Number:
            8c:1f:30:67:14:7b:31:fb:84:7a:b6:03:f5:4b:dd:8a
        Signature Algorithm: sha256WithRSAEncryption
        Issuer: CN=team259-net
        Validity
            Not Before: May 18 19:42:32 2022 GMT
            Not After : May  2 19:42:32 2025 GMT
        Subject: CN=team259-client
        Subject Public Key Info:
            Public Key Algorithm: rsaEncryption
                RSA Public-Key: (2048 bit)
                Modulus:
                    00:bd:24:be:6c:33:ee:4a:b2:56:7e:9d:6d:9d:55:
                    7f:48:e2:7a:3d:1c:61:1a:d7:7e:ef:a8:c1:d4:b7:
                    6b:d9:7b:54:ae:6e:5a:b2:e8:5f:1a:3f:41:90:6f:
                    5b:aa:b8:7d:e2:b2:17:f1:ad:e2:e1:8b:f8:a8:d8:
                    6f:bd:59:29:22:b1:23:dd:a5:00:fc:2f:a3:b6:23:
                    56:f8:b8:6f:95:99:59:fa:22:58:54:77:e3:4b:13:
                    8a:6e:3c:11:c0:ef:45:f6:43:16:e4:e6:54:bc:89:
                    a0:57:51:16:6c:14:a6:17:0f:5d:9a:34:26:00:d7:
                    67:81:8b:fd:d8:e4:97:3c:86:f4:3f:b8:c4:6e:04:
                    2f:a8:3d:77:86:1e:10:92:c4:ec:77:45:13:fe:3a:
                    03:51:ce:64:de:85:a8:83:35:67:90:70:dd:d9:b3:
                    c8:09:05:30:fd:13:98:3e:5a:56:ef:96:7a:07:4d:
                    ab:50:b4:11:c4:74:1d:6e:f8:a3:ef:e0:13:e0:eb:
                    23:4f:d7:06:3a:97:44:07:a6:b5:be:3e:2d:77:6c:
                    6f:4e:80:cc:18:6b:04:76:25:0c:58:28:eb:34:1e:
                    b7:e9:f6:e5:90:b4:7a:56:88:30:e5:08:21:44:1b:
                    fb:b4:bb:0f:f9:99:94:22:93:1d:14:c1:d4:d5:a6:
                    e3:9f
                Exponent: 65537 (0x10001)
        X509v3 extensions:
            X509v3 Basic Constraints: 
                CA:FALSE
            X509v3 Subject Key Identifier: 
                C0:A7:E1:20:17:2D:52:70:35:3F:D3:B0:26:69:87:8C:87:85:7F:F8
            X509v3 Authority Key Identifier: 
                keyid:8A:B8:FF:1D:EB:48:7A:95:90:F7:17:90:87:D7:7F:F9:B4:85:0E:A2
                DirName:/CN=team259-net
                serial:42:68:A1:F3:E8:BE:2E:7F:13:88:B4:9B:76:C6:F7:05:1A:EA:D3:96

            X509v3 Extended Key Usage: 
                TLS Web Client Authentication
            X509v3 Key Usage: 
                Digital Signature
    Signature Algorithm: sha256WithRSAEncryption
         9e:3e:3e:ea:cd:92:ac:f9:ca:7d:8f:3d:80:eb:20:66:29:e5:
         91:8e:75:33:4e:6b:dd:ad:ae:c6:0a:1b:d6:fb:42:d7:33:75:
         57:ed:d5:b4:bb:23:02:d9:be:d7:6a:64:42:0d:fe:6c:7c:42:
         e9:44:14:30:20:08:cf:9c:b5:7a:0f:89:a0:ce:d9:02:bf:4a:
         87:9c:bf:46:21:31:d4:a9:0c:6a:b2:61:a7:68:b3:07:85:4c:
         7c:9f:6b:01:72:53:da:43:a8:86:bc:c6:bb:13:a8:df:46:63:
         40:18:64:ee:2f:64:a3:42:08:bb:e9:ea:c4:6d:7d:cb:76:81:
         b5:82:cb:0e:01:3a:c8:6c:a4:7f:28:cd:bd:c1:98:c2:71:ab:
         75:72:57:f8:31:9f:89:90:4f:da:12:8a:11:c0:ec:d1:31:2f:
         0f:97:79:b9:bb:60:fb:b1:71:fb:f0:39:40:c8:7f:c0:d0:6f:
         ad:fb:d8:e5:65:37:35:bb:44:28:1e:7a:21:70:2f:af:cb:d4:
         35:d1:81:84:ca:2e:e1:3a:97:f6:b7:74:99:a9:d2:53:5b:c0:
         7a:0a:80:4c:5f:b7:c7:f7:3f:6a:04:af:0e:e6:34:20:61:c6:
         2f:c2:5f:fc:f1:0a:6d:15:3a:b0:ef:9b:ed:99:78:5b:b9:4e:
         50:f9:5a:7b
-----BEGIN CERTIFICATE-----
MIIDXTCCAkWgAwIBAgIRAIwfMGcUezH7hHq2A/VL3YowDQYJKoZIhvcNAQELBQAw
FjEUMBIGA1UEAwwLdGVhbTI1OS1uZXQwHhcNMjIwNTE4MTk0MjMyWhcNMjUwNTAy
MTk0MjMyWjAZMRcwFQYDVQQDDA50ZWFtMjU5LWNsaWVudDCCASIwDQYJKoZIhvcN
AQEBBQADggEPADCCAQoCggEBAL0kvmwz7kqyVn6dbZ1Vf0jiej0cYRrXfu+owdS3
a9l7VK5uWrLoXxo/QZBvW6q4feKyF/Gt4uGL+KjYb71ZKSKxI92lAPwvo7YjVvi4
b5WZWfoiWFR340sTim48EcDvRfZDFuTmVLyJoFdRFmwUphcPXZo0JgDXZ4GL/djk
lzyG9D+4xG4EL6g9d4YeEJLE7HdFE/46A1HOZN6FqIM1Z5Bw3dmzyAkFMP0TmD5a
Vu+WegdNq1C0EcR0HW74o+/gE+DrI0/XBjqXRAemtb4+LXdsb06AzBhrBHYlDFgo
6zQet+n25ZC0elaIMOUIIUQb+7S7D/mZlCKTHRTB1NWm458CAwEAAaOBojCBnzAJ
BgNVHRMEAjAAMB0GA1UdDgQWBBTAp+EgFy1ScDU/07AmaYeMh4V/+DBRBgNVHSME
SjBIgBSKuP8d60h6lZD3F5CH13/5tIUOoqEapBgwFjEUMBIGA1UEAwwLdGVhbTI1
OS1uZXSCFEJoofPovi5/E4i0m3bG9wUa6tOWMBMGA1UdJQQMMAoGCCsGAQUFBwMC
MAsGA1UdDwQEAwIHgDANBgkqhkiG9w0BAQsFAAOCAQEAnj4+6s2SrPnKfY89gOsg
ZinlkY51M05r3a2uxgob1vtC1zN1V+3VtLsjAtm+12pkQg3+bHxC6UQUMCAIz5y1
eg+JoM7ZAr9Kh5y/RiEx1KkMarJhp2izB4VMfJ9rAXJT2kOohrzGuxOo30ZjQBhk
7i9ko0IIu+nqxG19y3aBtYLLDgE6yGykfyjNvcGYwnGrdXJX+DGfiZBP2hKKEcDs
0TEvD5d5ubtg+7Fx+/A5QMh/wNBvrfvY5WU3NbtEKB56IXAvr8vUNdGBhMou4TqX
9rd0manSU1vAegqATF+3x/c/agSvDuY0IGHGL8Jf/PEKbRU6sO+b7Zl4W7lOUPla
ew==
-----END CERTIFICATE-----
