Certificate:
    Data:
        Version: 3 (0x2)
        Serial Number:
            8c:40:2c:25:33:96:9f:1e:39:42:73:af:e1:c9:21:22
        Signature Algorithm: sha256WithRSAEncryption
        Issuer: CN=team253-net
        Validity
            Not Before: May 18 19:40:15 2022 GMT
            Not After : May  2 19:40:15 2025 GMT
        Subject: CN=team253-server
        Subject Public Key Info:
            Public Key Algorithm: rsaEncryption
                RSA Public-Key: (2048 bit)
                Modulus:
                    00:b6:fc:91:1d:b2:23:0f:82:62:19:7f:8f:e8:74:
                    c5:28:25:4f:2e:96:69:fe:1f:78:25:be:73:ed:68:
                    18:e3:90:1c:60:40:19:e5:b4:83:dc:05:ff:70:b5:
                    12:6c:fa:78:ed:ca:06:9b:ea:f8:a1:cc:14:66:61:
                    30:74:7b:34:83:d1:2e:e1:d5:87:da:33:6c:59:4a:
                    1a:7d:b4:27:63:56:0d:8a:1e:7a:c0:51:a9:f0:61:
                    fb:5d:e4:0b:db:b8:f5:30:b7:80:76:d5:88:c2:72:
                    71:11:fc:d6:b4:d9:52:0d:c3:c1:db:66:e5:74:d1:
                    49:b2:d9:4b:24:b4:44:4a:2b:b7:41:f8:d3:57:35:
                    7a:a1:ea:a6:45:0f:b3:d5:9a:13:a6:1f:d1:60:71:
                    e2:64:bb:a6:7a:22:02:87:97:89:cc:1f:73:91:69:
                    45:58:01:31:8b:0e:b3:23:30:a4:cd:1e:ea:87:92:
                    e5:8c:2a:91:34:c2:90:ad:87:56:25:4c:ad:cf:a9:
                    cf:6d:1b:5c:ac:28:6b:4a:8e:9f:68:53:8d:56:ef:
                    8f:00:85:f3:33:f3:5b:a0:59:f9:c9:0a:9f:b6:8b:
                    dc:94:fc:1b:55:e0:7e:92:ec:2e:65:96:94:d0:1b:
                    1b:74:e7:21:53:23:ab:dd:a9:44:36:41:be:44:6b:
                    db:4d
                Exponent: 65537 (0x10001)
        X509v3 extensions:
            X509v3 Basic Constraints: 
                CA:FALSE
            X509v3 Subject Key Identifier: 
                1E:9E:6F:B8:F9:C2:E3:FD:B1:D2:40:E3:B9:AB:70:7F:09:D3:BD:22
            X509v3 Authority Key Identifier: 
                keyid:BC:BA:99:3B:56:9F:9F:E7:67:8F:BC:D5:0C:0E:56:C6:B7:96:9F:FE
                DirName:/CN=team253-net
                serial:7B:4A:0F:8C:1E:24:4C:B4:5D:DC:E2:71:B9:EB:39:91:A8:D4:0D:E4

            X509v3 Extended Key Usage: 
                TLS Web Server Authentication
            X509v3 Key Usage: 
                Digital Signature, Key Encipherment
            X509v3 Subject Alternative Name: 
                DNS:team253-server
    Signature Algorithm: sha256WithRSAEncryption
         0e:ee:ce:5f:57:f2:fc:e2:5c:a0:37:77:e9:cc:cf:f3:a2:67:
         46:36:a5:80:c1:f2:da:49:db:6f:11:a3:c1:92:d9:69:ee:3a:
         62:56:c6:18:2d:af:3a:0d:15:71:59:85:93:3b:db:c2:90:78:
         e4:64:d4:50:b1:d4:6a:21:c7:28:53:eb:45:f7:ea:98:7d:d4:
         70:33:19:ba:05:fd:c1:6a:e6:96:97:bf:7c:6c:c9:6b:66:52:
         eb:66:8f:71:87:94:3d:47:86:25:81:c3:bc:81:db:c4:77:6f:
         d5:2b:cb:e5:40:41:f8:22:cb:0e:67:f0:e2:25:d4:5d:e8:1b:
         c8:22:53:fc:28:6d:81:9d:41:78:c0:c0:18:6b:8c:3d:75:aa:
         17:93:28:e6:65:71:56:66:4b:70:75:69:c8:3c:34:2b:12:c6:
         b5:9a:c0:b3:76:80:72:f0:68:0d:b7:24:80:59:d0:8a:dd:e9:
         5c:11:45:da:3d:78:77:3d:9d:33:90:86:aa:29:c4:70:d8:f3:
         07:8c:59:d6:ea:cf:35:61:fc:76:b1:93:73:59:e5:95:f2:fe:
         a4:a4:27:31:3b:a9:3d:a8:cb:fd:c9:72:17:d8:2b:43:72:5f:
         e4:56:5a:72:2c:5c:c5:e8:96:33:33:15:bc:af:ba:fb:80:ac:
         25:73:61:46
-----BEGIN CERTIFICATE-----
MIIDeDCCAmCgAwIBAgIRAIxALCUzlp8eOUJzr+HJISIwDQYJKoZIhvcNAQELBQAw
FjEUMBIGA1UEAwwLdGVhbTI1My1uZXQwHhcNMjIwNTE4MTk0MDE1WhcNMjUwNTAy
MTk0MDE1WjAZMRcwFQYDVQQDDA50ZWFtMjUzLXNlcnZlcjCCASIwDQYJKoZIhvcN
AQEBBQADggEPADCCAQoCggEBALb8kR2yIw+CYhl/j+h0xSglTy6Waf4feCW+c+1o
GOOQHGBAGeW0g9wF/3C1Emz6eO3KBpvq+KHMFGZhMHR7NIPRLuHVh9ozbFlKGn20
J2NWDYoeesBRqfBh+13kC9u49TC3gHbViMJycRH81rTZUg3Dwdtm5XTRSbLZSyS0
REort0H401c1eqHqpkUPs9WaE6Yf0WBx4mS7pnoiAoeXicwfc5FpRVgBMYsOsyMw
pM0e6oeS5YwqkTTCkK2HViVMrc+pz20bXKwoa0qOn2hTjVbvjwCF8zPzW6BZ+ckK
n7aL3JT8G1XgfpLsLmWWlNAbG3TnIVMjq92pRDZBvkRr200CAwEAAaOBvTCBujAJ
BgNVHRMEAjAAMB0GA1UdDgQWBBQenm+4+cLj/bHSQOO5q3B/CdO9IjBRBgNVHSME
SjBIgBS8upk7Vp+f52ePvNUMDlbGt5af/qEapBgwFjEUMBIGA1UEAwwLdGVhbTI1
My1uZXSCFHtKD4weJEy0XdzicbnrOZGo1A3kMBMGA1UdJQQMMAoGCCsGAQUFBwMB
MAsGA1UdDwQEAwIFoDAZBgNVHREEEjAQgg50ZWFtMjUzLXNlcnZlcjANBgkqhkiG
9w0BAQsFAAOCAQEADu7OX1fy/OJcoDd36czP86JnRjalgMHy2knbbxGjwZLZae46
YlbGGC2vOg0VcVmFkzvbwpB45GTUULHUaiHHKFPrRffqmH3UcDMZugX9wWrmlpe/
fGzJa2ZS62aPcYeUPUeGJYHDvIHbxHdv1SvL5UBB+CLLDmfw4iXUXegbyCJT/Cht
gZ1BeMDAGGuMPXWqF5Mo5mVxVmZLcHVpyDw0KxLGtZrAs3aAcvBoDbckgFnQit3p
XBFF2j14dz2dM5CGqinEcNjzB4xZ1urPNWH8drGTc1nllfL+pKQnMTupPajL/cly
F9grQ3Jf5FZacixcxeiWMzMVvK+6+4CsJXNhRg==
-----END CERTIFICATE-----
