Certificate:
    Data:
        Version: 3 (0x2)
        Serial Number:
            6f:3d:0f:6a:5b:e8:de:6b:3f:6d:d2:14:fd:8a:67:1a
        Signature Algorithm: sha256WithRSAEncryption
        Issuer: CN=team616-net
        Validity
            Not Before: May 18 23:00:13 2022 GMT
            Not After : May  2 23:00:13 2025 GMT
        Subject: CN=team616-server
        Subject Public Key Info:
            Public Key Algorithm: rsaEncryption
                RSA Public-Key: (2048 bit)
                Modulus:
                    00:f0:b0:b5:2c:fd:75:46:92:e2:6a:7e:5e:04:3e:
                    81:12:40:bb:ef:32:0c:6f:63:c4:da:10:9a:70:bb:
                    b3:3e:49:17:5a:65:ec:c1:74:be:2e:36:6f:3d:69:
                    26:b8:02:fa:1c:d3:53:74:24:e1:a8:9b:c7:52:db:
                    92:60:fe:de:cf:8e:89:3a:46:da:de:20:cb:55:90:
                    5d:7d:bd:af:f0:8d:fe:02:42:c1:33:c6:12:a4:a3:
                    35:0f:32:1f:9e:b2:72:9c:0a:04:5e:a8:7c:b1:c7:
                    6f:3f:cb:16:a4:fe:8f:d3:20:1d:38:50:33:b5:cd:
                    3a:2a:cd:db:03:7f:f0:be:b5:56:36:b9:43:cd:be:
                    d8:ab:7f:34:9c:07:32:cd:a6:37:df:88:0d:79:74:
                    08:cf:3d:9f:f7:58:6b:bc:b2:c1:6d:44:8f:09:7f:
                    96:35:26:fc:e6:d4:57:5e:01:ec:14:15:8b:b5:32:
                    bf:01:55:7e:67:7b:37:3b:2e:e9:12:31:15:87:ac:
                    c4:49:da:86:cd:38:62:1a:cf:33:9b:12:78:a6:e1:
                    87:b5:54:36:be:da:42:c8:47:d3:0a:dc:28:8a:bd:
                    e8:56:7b:ee:58:22:6a:d3:9d:47:eb:fc:fb:55:6b:
                    f1:91:1d:f5:0b:5f:3c:8d:4d:99:10:e6:df:3f:53:
                    97:31
                Exponent: 65537 (0x10001)
        X509v3 extensions:
            X509v3 Basic Constraints: 
                CA:FALSE
            X509v3 Subject Key Identifier: 
                7E:69:5E:09:0A:CC:44:54:A9:27:20:CF:B6:C3:BD:EB:57:B1:7F:F5
            X509v3 Authority Key Identifier: 
                keyid:8F:40:8E:46:88:38:9F:DE:EB:46:B4:93:03:2B:7C:95:29:97:98:D8
                DirName:/CN=team616-net
                serial:62:87:8D:FF:A9:72:E5:1D:9B:AE:BA:D5:CF:93:B1:13:4A:1A:1A:10

            X509v3 Extended Key Usage: 
                TLS Web Server Authentication
            X509v3 Key Usage: 
                Digital Signature, Key Encipherment
            X509v3 Subject Alternative Name: 
                DNS:team616-server
    Signature Algorithm: sha256WithRSAEncryption
         42:b1:5e:03:a3:b0:02:4c:b4:9e:10:50:c6:28:f1:11:d0:0c:
         e4:85:a3:9f:be:5e:43:d2:16:42:e2:ef:1d:0c:f5:e6:8f:0f:
         19:bd:3d:84:60:74:2d:91:89:0c:6e:48:1b:5d:2d:74:66:be:
         dd:d1:66:7a:ad:84:27:70:53:8c:85:85:9a:8f:6d:94:6c:fe:
         7a:e3:f7:8e:06:3d:15:7c:53:7d:5a:5c:c0:0e:28:f1:f6:1b:
         3f:67:13:ac:8a:e3:e3:61:c7:31:90:2b:07:3c:e2:66:8f:10:
         be:3e:16:08:c4:f2:a3:31:ac:02:80:1d:e8:b8:ed:2d:c2:1e:
         21:d5:86:8b:68:04:b2:95:f2:b1:f5:46:e8:32:a2:79:5c:ec:
         7e:b6:bc:03:36:91:a8:e3:e2:f9:10:f3:8f:3e:05:95:02:b0:
         94:75:fb:b7:5f:a4:86:e5:ad:ca:e8:95:e5:d8:1a:64:64:33:
         4c:9e:f4:e9:a8:2c:5c:90:e6:2a:1c:ea:87:e4:64:48:e8:48:
         2c:07:92:d2:69:47:6c:4b:93:f3:24:85:1f:a0:67:a1:4f:66:
         72:02:90:58:14:62:ef:b5:56:cc:a0:60:cc:f9:db:f3:3f:9c:
         db:af:18:f8:41:0b:95:57:1a:34:c1:32:c9:12:51:e5:8c:7d:
         93:e4:10:7b
-----BEGIN CERTIFICATE-----
MIIDdzCCAl+gAwIBAgIQbz0Palvo3ms/bdIU/YpnGjANBgkqhkiG9w0BAQsFADAW
MRQwEgYDVQQDDAt0ZWFtNjE2LW5ldDAeFw0yMjA1MTgyMzAwMTNaFw0yNTA1MDIy
MzAwMTNaMBkxFzAVBgNVBAMMDnRlYW02MTYtc2VydmVyMIIBIjANBgkqhkiG9w0B
AQEFAAOCAQ8AMIIBCgKCAQEA8LC1LP11RpLian5eBD6BEkC77zIMb2PE2hCacLuz
PkkXWmXswXS+LjZvPWkmuAL6HNNTdCThqJvHUtuSYP7ez46JOkba3iDLVZBdfb2v
8I3+AkLBM8YSpKM1DzIfnrJynAoEXqh8scdvP8sWpP6P0yAdOFAztc06Ks3bA3/w
vrVWNrlDzb7Yq380nAcyzaY334gNeXQIzz2f91hrvLLBbUSPCX+WNSb85tRXXgHs
FBWLtTK/AVV+Z3s3Oy7pEjEVh6zESdqGzThiGs8zmxJ4puGHtVQ2vtpCyEfTCtwo
ir3oVnvuWCJq051H6/z7VWvxkR31C188jU2ZEObfP1OXMQIDAQABo4G9MIG6MAkG
A1UdEwQCMAAwHQYDVR0OBBYEFH5pXgkKzERUqScgz7bDvetXsX/1MFEGA1UdIwRK
MEiAFI9AjkaIOJ/e60a0kwMrfJUpl5jYoRqkGDAWMRQwEgYDVQQDDAt0ZWFtNjE2
LW5ldIIUYoeN/6ly5R2brrrVz5OxE0oaGhAwEwYDVR0lBAwwCgYIKwYBBQUHAwEw
CwYDVR0PBAQDAgWgMBkGA1UdEQQSMBCCDnRlYW02MTYtc2VydmVyMA0GCSqGSIb3
DQEBCwUAA4IBAQBCsV4Do7ACTLSeEFDGKPER0AzkhaOfvl5D0hZC4u8dDPXmjw8Z
vT2EYHQtkYkMbkgbXS10Zr7d0WZ6rYQncFOMhYWaj22UbP564/eOBj0VfFN9WlzA
Dijx9hs/ZxOsiuPjYccxkCsHPOJmjxC+PhYIxPKjMawCgB3ouO0twh4h1YaLaASy
lfKx9UboMqJ5XOx+trwDNpGo4+L5EPOPPgWVArCUdfu3X6SG5a3K6JXl2BpkZDNM
nvTpqCxckOYqHOqH5GRI6EgsB5LSaUdsS5PzJIUfoGehT2ZyApBYFGLvtVbMoGDM
+dvzP5zbrxj4QQuVVxo0wTLJElHljH2T5BB7
-----END CERTIFICATE-----
