Certificate:
    Data:
        Version: 3 (0x2)
        Serial Number:
            cb:b1:e8:b9:af:ef:cc:f5:fd:fc:1e:9b:0a:e2:e0:4d
        Signature Algorithm: sha256WithRSAEncryption
        Issuer: CN=team616-net
        Validity
            Not Before: May 18 23:00:12 2022 GMT
            Not After : May  2 23:00:12 2025 GMT
        Subject: CN=team616-client
        Subject Public Key Info:
            Public Key Algorithm: rsaEncryption
                RSA Public-Key: (2048 bit)
                Modulus:
                    00:a9:4b:53:79:61:d2:74:17:6c:54:2d:51:84:f5:
                    ab:d1:4d:b1:a6:be:94:cd:81:9a:0b:89:e6:b4:59:
                    78:d3:ed:80:9c:5c:35:d2:6c:5c:91:0a:4b:58:5d:
                    a5:bc:4b:29:87:71:58:ce:33:22:c4:ac:42:ca:71:
                    c3:f6:fb:0a:34:6d:fa:9f:7a:f7:bc:27:6c:ed:2d:
                    b2:05:c9:21:7a:5d:fe:3e:e9:69:08:69:0d:c3:d7:
                    12:e2:9a:99:09:5c:ac:3c:3c:9d:14:14:a3:bb:59:
                    c3:79:9b:00:8f:a2:ee:7a:f8:9c:a8:88:84:b1:d5:
                    6e:ce:87:66:af:9d:9d:a0:13:c6:cf:68:fe:39:e7:
                    02:ba:3f:22:43:8b:19:00:87:8c:6c:db:ca:15:97:
                    14:c0:7f:2a:22:40:e9:82:44:d9:8d:ca:52:54:5d:
                    c4:35:b3:b4:e9:f9:27:dd:0f:a1:84:05:f9:0b:84:
                    c8:ef:f1:aa:aa:ec:5b:61:7b:7e:89:ae:32:15:ba:
                    91:69:d5:82:fc:74:52:0e:a0:ee:83:cd:a7:aa:10:
                    a3:ea:b6:26:04:46:f8:1a:f5:b4:b2:1e:68:14:5a:
                    2b:0c:26:e0:d6:8e:06:e8:e7:a0:fb:65:98:4e:4a:
                    2e:8a:7a:d8:ba:41:f5:e0:b6:7b:ea:6b:b4:44:5b:
                    4e:41
                Exponent: 65537 (0x10001)
        X509v3 extensions:
            X509v3 Basic Constraints: 
                CA:FALSE
            X509v3 Subject Key Identifier: 
                A4:83:40:93:25:60:ED:C7:1F:16:84:E3:9B:48:27:40:A5:15:6A:28
            X509v3 Authority Key Identifier: 
                keyid:8F:40:8E:46:88:38:9F:DE:EB:46:B4:93:03:2B:7C:95:29:97:98:D8
                DirName:/CN=team616-net
                serial:62:87:8D:FF:A9:72:E5:1D:9B:AE:BA:D5:CF:93:B1:13:4A:1A:1A:10

            X509v3 Extended Key Usage: 
                TLS Web Client Authentication
            X509v3 Key Usage: 
                Digital Signature
    Signature Algorithm: sha256WithRSAEncryption
         05:c8:29:9c:c3:0e:f0:0d:46:04:b7:22:b5:59:b8:59:b6:8b:
         16:e5:18:7c:b0:7b:9a:07:67:27:0e:b5:f8:fb:01:cb:30:b2:
         8e:96:43:05:65:f3:15:33:3a:4d:1e:ff:2b:fb:50:2a:32:ed:
         bd:c7:34:4e:47:eb:db:8b:6f:ed:e5:39:87:73:e2:f3:4a:56:
         ba:e8:14:76:34:92:1c:5e:5e:f8:ce:1c:65:c5:c7:69:ec:36:
         1f:5a:a2:7a:7d:ed:cc:a7:6c:8b:26:2f:6a:eb:b0:16:23:06:
         30:c1:92:50:43:54:15:e1:8a:ab:37:43:06:73:e9:4e:22:48:
         56:ba:49:0a:0d:75:d5:09:1f:51:9c:47:16:19:55:ad:ec:2a:
         b6:a8:c3:91:4b:52:55:f2:86:d5:11:cc:35:ac:0d:e7:2f:4a:
         a8:53:3d:10:4c:b3:90:f8:08:ea:8a:a5:46:7b:ce:d0:48:b7:
         b3:3f:b4:ed:68:b1:ec:6b:e9:a9:7c:d2:59:9d:b1:2e:7e:a7:
         db:28:93:ad:68:c8:b4:96:f5:9e:41:9e:d6:76:63:f3:b5:c8:
         26:b8:d2:8f:be:53:75:19:92:5e:8c:13:30:d1:36:b3:35:72:
         fe:86:4b:64:b0:68:9d:8d:fd:9d:06:83:67:16:23:ca:62:b9:
         9f:dd:95:bc
-----BEGIN CERTIFICATE-----
MIIDXTCCAkWgAwIBAgIRAMux6Lmv78z1/fwemwri4E0wDQYJKoZIhvcNAQELBQAw
FjEUMBIGA1UEAwwLdGVhbTYxNi1uZXQwHhcNMjIwNTE4MjMwMDEyWhcNMjUwNTAy
MjMwMDEyWjAZMRcwFQYDVQQDDA50ZWFtNjE2LWNsaWVudDCCASIwDQYJKoZIhvcN
AQEBBQADggEPADCCAQoCggEBAKlLU3lh0nQXbFQtUYT1q9FNsaa+lM2BmguJ5rRZ
eNPtgJxcNdJsXJEKS1hdpbxLKYdxWM4zIsSsQspxw/b7CjRt+p9697wnbO0tsgXJ
IXpd/j7paQhpDcPXEuKamQlcrDw8nRQUo7tZw3mbAI+i7nr4nKiIhLHVbs6HZq+d
naATxs9o/jnnAro/IkOLGQCHjGzbyhWXFMB/KiJA6YJE2Y3KUlRdxDWztOn5J90P
oYQF+QuEyO/xqqrsW2F7fomuMhW6kWnVgvx0Ug6g7oPNp6oQo+q2JgRG+Br1tLIe
aBRaKwwm4NaOBujnoPtlmE5KLop62LpB9eC2e+prtERbTkECAwEAAaOBojCBnzAJ
BgNVHRMEAjAAMB0GA1UdDgQWBBSkg0CTJWDtxx8WhOObSCdApRVqKDBRBgNVHSME
SjBIgBSPQI5GiDif3utGtJMDK3yVKZeY2KEapBgwFjEUMBIGA1UEAwwLdGVhbTYx
Ni1uZXSCFGKHjf+pcuUdm6661c+TsRNKGhoQMBMGA1UdJQQMMAoGCCsGAQUFBwMC
MAsGA1UdDwQEAwIHgDANBgkqhkiG9w0BAQsFAAOCAQEABcgpnMMO8A1GBLcitVm4
WbaLFuUYfLB7mgdnJw61+PsByzCyjpZDBWXzFTM6TR7/K/tQKjLtvcc0Tkfr24tv
7eU5h3Pi80pWuugUdjSSHF5e+M4cZcXHaew2H1qien3tzKdsiyYvauuwFiMGMMGS
UENUFeGKqzdDBnPpTiJIVrpJCg111QkfUZxHFhlVrewqtqjDkUtSVfKG1RHMNawN
5y9KqFM9EEyzkPgI6oqlRnvO0Ei3sz+07Wix7GvpqXzSWZ2xLn6n2yiTrWjItJb1
nkGe1nZj87XIJrjSj75TdRmSXowTMNE2szVy/oZLZLBonY39nQaDZxYjymK5n92V
vA==
-----END CERTIFICATE-----
