Certificate:
    Data:
        Version: 3 (0x2)
        Serial Number:
            08:1a:8b:b5:1d:30:1b:b1:7c:3e:79:25:f5:81:9b:e4
        Signature Algorithm: sha256WithRSAEncryption
        Issuer: CN=team68-net
        Validity
            Not Before: May 18 14:29:16 2022 GMT
            Not After : May  2 14:29:16 2025 GMT
        Subject: CN=team68-client
        Subject Public Key Info:
            Public Key Algorithm: rsaEncryption
                RSA Public-Key: (2048 bit)
                Modulus:
                    00:a7:32:c4:ae:53:58:65:22:f7:cb:c8:da:d9:05:
                    a2:0c:91:6c:af:0d:bf:8b:90:45:b8:d0:1d:a6:b3:
                    0a:4c:fb:50:65:b8:9d:83:f9:86:21:ee:91:60:f0:
                    5a:ee:99:9b:18:f4:e5:ee:2a:94:fa:5e:d9:25:d4:
                    47:28:2a:3a:91:cc:e5:95:26:d7:be:69:2b:c8:18:
                    c0:c9:14:c5:69:f3:74:35:18:10:27:35:5e:d5:f5:
                    70:51:6c:86:23:b2:7f:28:30:ea:6c:78:01:56:e2:
                    da:53:46:55:fd:a7:95:12:5a:42:a2:17:5a:b2:5a:
                    bf:94:e4:96:00:32:38:66:3e:d4:27:cb:f0:49:f3:
                    00:2c:6e:76:72:50:bb:82:48:d7:da:79:84:39:f8:
                    c6:31:64:22:01:fc:e0:85:28:1b:06:67:cf:70:9b:
                    d6:05:e2:e9:6d:be:a5:15:6d:82:6b:45:25:c6:5e:
                    52:08:a6:b9:20:28:99:e7:01:1f:cb:4b:f3:ba:40:
                    be:4d:77:8e:9e:d8:30:a1:92:aa:35:2f:5b:b5:c4:
                    12:c3:88:76:e9:f2:bc:09:fa:be:61:98:1e:f0:52:
                    94:eb:ea:4c:b1:38:3d:73:3b:d0:85:2f:c4:9e:2d:
                    d6:c6:3e:6e:e4:0d:07:3e:14:55:68:a2:a1:39:43:
                    33:db
                Exponent: 65537 (0x10001)
        X509v3 extensions:
            X509v3 Basic Constraints: 
                CA:FALSE
            X509v3 Subject Key Identifier: 
                1C:8C:62:CA:59:1C:F5:69:BB:D2:C7:42:B9:FA:96:2B:FC:2A:FB:84
            X509v3 Authority Key Identifier: 
                keyid:51:00:7C:B6:EC:CB:23:49:FB:A1:42:10:7F:45:28:77:46:EE:C0:7C
                DirName:/CN=team68-net
                serial:7C:42:A4:78:AF:F4:0A:2F:DF:D0:4A:A8:E7:6F:F5:0C:F9:4D:52:F2

            X509v3 Extended Key Usage: 
                TLS Web Client Authentication
            X509v3 Key Usage: 
                Digital Signature
    Signature Algorithm: sha256WithRSAEncryption
         57:24:6d:e2:c1:80:b8:46:e8:ad:41:b7:50:0e:f4:0d:13:3b:
         1d:d5:09:a1:86:ad:2c:d1:78:90:f5:47:a9:20:3a:2b:12:88:
         dd:26:96:f9:57:79:ba:73:61:d4:fd:c5:61:9a:bd:98:7e:40:
         fd:c8:98:c3:0b:ca:31:1c:78:41:db:44:67:41:43:25:f9:5d:
         b6:42:14:97:42:d4:41:20:2f:fd:76:a3:11:86:57:7a:cf:9b:
         33:aa:d1:b7:a4:cb:21:82:3c:90:1a:9d:38:62:6e:55:ec:80:
         ed:2d:e3:28:f6:bc:ac:8f:aa:4a:0a:97:1d:52:7a:be:d0:83:
         f1:ec:6f:9e:9b:86:6e:87:24:b0:f3:cc:c8:ce:2b:58:e7:de:
         c1:02:92:e8:c2:54:ce:3a:f0:80:e6:7c:2f:f6:36:d4:f2:92:
         b9:2c:88:f2:de:e5:5d:da:b3:c8:b3:05:a8:2a:2e:12:d6:09:
         16:e2:03:3f:c0:28:5e:b6:64:8f:99:43:52:05:f6:42:50:dd:
         9d:3a:94:a0:70:51:3d:30:d0:43:60:ad:ed:0e:cd:d0:db:1a:
         d2:e7:74:e3:17:6c:f0:38:04:3d:32:21:a5:ad:b7:2e:fc:30:
         f3:84:f9:15:4a:9e:ce:33:bd:be:ef:cb:92:9a:a4:0a:5b:3f:
         a0:47:d1:66
-----BEGIN CERTIFICATE-----
MIIDWTCCAkGgAwIBAgIQCBqLtR0wG7F8Pnkl9YGb5DANBgkqhkiG9w0BAQsFADAV
MRMwEQYDVQQDDAp0ZWFtNjgtbmV0MB4XDTIyMDUxODE0MjkxNloXDTI1MDUwMjE0
MjkxNlowGDEWMBQGA1UEAwwNdGVhbTY4LWNsaWVudDCCASIwDQYJKoZIhvcNAQEB
BQADggEPADCCAQoCggEBAKcyxK5TWGUi98vI2tkFogyRbK8Nv4uQRbjQHaazCkz7
UGW4nYP5hiHukWDwWu6Zmxj05e4qlPpe2SXURygqOpHM5ZUm175pK8gYwMkUxWnz
dDUYECc1XtX1cFFshiOyfygw6mx4AVbi2lNGVf2nlRJaQqIXWrJav5TklgAyOGY+
1CfL8EnzACxudnJQu4JI19p5hDn4xjFkIgH84IUoGwZnz3Cb1gXi6W2+pRVtgmtF
JcZeUgimuSAomecBH8tL87pAvk13jp7YMKGSqjUvW7XEEsOIdunyvAn6vmGYHvBS
lOvqTLE4PXM70IUvxJ4t1sY+buQNBz4UVWiioTlDM9sCAwEAAaOBoTCBnjAJBgNV
HRMEAjAAMB0GA1UdDgQWBBQcjGLKWRz1abvSx0K5+pYr/Cr7hDBQBgNVHSMESTBH
gBRRAHy27MsjSfuhQhB/RSh3Ru7AfKEZpBcwFTETMBEGA1UEAwwKdGVhbTY4LW5l
dIIUfEKkeK/0Ci/f0Eqo52/1DPlNUvIwEwYDVR0lBAwwCgYIKwYBBQUHAwIwCwYD
VR0PBAQDAgeAMA0GCSqGSIb3DQEBCwUAA4IBAQBXJG3iwYC4RuitQbdQDvQNEzsd
1Qmhhq0s0XiQ9UepIDorEojdJpb5V3m6c2HU/cVhmr2YfkD9yJjDC8oxHHhB20Rn
QUMl+V22QhSXQtRBIC/9dqMRhld6z5szqtG3pMshgjyQGp04Ym5V7IDtLeMo9rys
j6pKCpcdUnq+0IPx7G+em4ZuhySw88zIzitY597BApLowlTOOvCA5nwv9jbU8pK5
LIjy3uVd2rPIswWoKi4S1gkW4gM/wChetmSPmUNSBfZCUN2dOpSgcFE9MNBDYK3t
Ds3Q2xrS53TjF2zwOAQ9MiGlrbcu/DDzhPkVSp7OM72+78uSmqQKWz+gR9Fm
-----END CERTIFICATE-----
