Certificate:
    Data:
        Version: 3 (0x2)
        Serial Number:
            a6:a7:99:3d:0a:81:9f:e8:b7:a3:20:05:3e:f2:0b:40
        Signature Algorithm: sha256WithRSAEncryption
        Issuer: CN=team504-net
        Validity
            Not Before: May 18 21:54:09 2022 GMT
            Not After : May  2 21:54:09 2025 GMT
        Subject: CN=team504-client
        Subject Public Key Info:
            Public Key Algorithm: rsaEncryption
                RSA Public-Key: (2048 bit)
                Modulus:
                    00:d2:ba:c9:e9:39:e5:45:59:89:16:ba:72:fe:aa:
                    a4:e9:e2:e8:41:80:5b:ca:fc:bb:36:d6:b8:79:1c:
                    4e:03:7b:93:f8:e1:16:67:bb:fe:5c:57:e3:e2:20:
                    90:11:dc:5b:da:21:03:03:47:32:01:08:7e:8f:44:
                    18:b1:71:75:78:f4:bf:86:ba:01:eb:ed:6d:76:fa:
                    00:57:e8:93:70:63:83:08:f3:e1:55:79:fb:bf:9b:
                    ea:75:21:1d:45:74:75:0d:b3:31:8b:02:10:96:d4:
                    95:da:88:9e:be:1a:cc:b2:95:53:db:a4:61:1b:9d:
                    9a:cd:a2:44:a0:a9:2b:4f:6c:4f:64:9e:69:8c:da:
                    0a:46:79:db:05:22:23:ed:c0:90:c7:43:5b:cb:d8:
                    0b:44:80:98:70:45:22:b2:70:60:ce:f1:3c:44:58:
                    f5:d2:b3:6b:cc:be:59:77:1b:3e:84:04:70:85:f5:
                    45:b9:c3:c9:23:8c:bb:3a:e8:27:97:d3:cb:60:4d:
                    88:6c:8b:9a:88:15:e4:6f:aa:76:de:ea:1c:98:e7:
                    3c:05:9a:fe:9c:13:c0:a8:21:6f:f2:45:2c:7e:b4:
                    a3:89:eb:5e:7b:03:ac:ff:e6:15:57:c1:0c:d3:b0:
                    a0:b4:da:f7:75:de:2b:da:49:7d:2e:ed:ee:1f:01:
                    65:f1
                Exponent: 65537 (0x10001)
        X509v3 extensions:
            X509v3 Basic Constraints: 
                CA:FALSE
            X509v3 Subject Key Identifier: 
                0E:44:18:67:26:01:3E:F0:E7:70:F1:76:57:0B:56:69:EF:81:F9:EE
            X509v3 Authority Key Identifier: 
                keyid:ED:8D:81:36:AA:66:FA:32:14:53:91:63:17:6C:C7:77:63:BE:03:7B
                DirName:/CN=team504-net
                serial:63:07:22:2B:4A:50:65:BE:91:93:F8:D5:5C:90:2B:5C:23:95:88:1A

            X509v3 Extended Key Usage: 
                TLS Web Client Authentication
            X509v3 Key Usage: 
                Digital Signature
    Signature Algorithm: sha256WithRSAEncryption
         7d:5c:0e:7e:6a:96:a0:ce:0b:78:bd:ad:8c:ae:39:e6:62:c4:
         8f:3e:fd:49:38:29:24:a4:74:d9:d0:c9:66:37:36:45:9a:d8:
         7a:18:e2:ba:df:98:d7:8f:a6:52:d7:d1:c9:3f:34:98:4a:d2:
         79:42:36:34:f8:31:5f:b0:21:09:f5:09:49:54:14:95:35:ae:
         ff:5d:66:88:4f:f3:39:e7:fb:82:fd:a4:76:04:49:1d:ca:25:
         7d:53:f1:c3:85:0f:74:b6:f1:0b:59:0b:f6:12:be:0f:2f:f5:
         bc:9e:f2:30:51:6f:2a:01:14:f3:98:d7:55:b1:38:df:b1:35:
         a7:a2:9d:4e:db:24:ac:39:37:b2:c1:87:1e:bf:93:de:90:49:
         36:d0:ea:8f:36:80:fd:98:ec:94:e6:99:41:09:b0:c9:9b:af:
         6d:3b:7b:f4:51:00:ea:63:ab:26:d3:0c:af:54:2a:3f:90:4d:
         88:76:7c:46:b8:95:b6:07:9e:9f:3d:96:54:4a:53:30:1d:10:
         f1:3d:97:35:da:f2:18:19:1c:e7:77:01:1e:9c:74:a1:c6:14:
         0c:81:ee:75:2a:d4:1c:65:f3:e1:30:ac:55:a0:5d:72:69:df:
         b5:84:b5:01:34:d1:aa:8f:3f:6f:ae:ad:12:76:3a:f2:65:44:
         e8:b6:bb:e0
-----BEGIN CERTIFICATE-----
MIIDXTCCAkWgAwIBAgIRAKanmT0KgZ/ot6MgBT7yC0AwDQYJKoZIhvcNAQELBQAw
FjEUMBIGA1UEAwwLdGVhbTUwNC1uZXQwHhcNMjIwNTE4MjE1NDA5WhcNMjUwNTAy
MjE1NDA5WjAZMRcwFQYDVQQDDA50ZWFtNTA0LWNsaWVudDCCASIwDQYJKoZIhvcN
AQEBBQADggEPADCCAQoCggEBANK6yek55UVZiRa6cv6qpOni6EGAW8r8uzbWuHkc
TgN7k/jhFme7/lxX4+IgkBHcW9ohAwNHMgEIfo9EGLFxdXj0v4a6AevtbXb6AFfo
k3Bjgwjz4VV5+7+b6nUhHUV0dQ2zMYsCEJbUldqInr4azLKVU9ukYRudms2iRKCp
K09sT2SeaYzaCkZ52wUiI+3AkMdDW8vYC0SAmHBFIrJwYM7xPERY9dKza8y+WXcb
PoQEcIX1RbnDySOMuzroJ5fTy2BNiGyLmogV5G+qdt7qHJjnPAWa/pwTwKghb/JF
LH60o4nrXnsDrP/mFVfBDNOwoLTa93XeK9pJfS7t7h8BZfECAwEAAaOBojCBnzAJ
BgNVHRMEAjAAMB0GA1UdDgQWBBQORBhnJgE+8Odw8XZXC1Zp74H57jBRBgNVHSME
SjBIgBTtjYE2qmb6MhRTkWMXbMd3Y74De6EapBgwFjEUMBIGA1UEAwwLdGVhbTUw
NC1uZXSCFGMHIitKUGW+kZP41VyQK1wjlYgaMBMGA1UdJQQMMAoGCCsGAQUFBwMC
MAsGA1UdDwQEAwIHgDANBgkqhkiG9w0BAQsFAAOCAQEAfVwOfmqWoM4LeL2tjK45
5mLEjz79STgpJKR02dDJZjc2RZrYehjiut+Y14+mUtfRyT80mErSeUI2NPgxX7Ah
CfUJSVQUlTWu/11miE/zOef7gv2kdgRJHcolfVPxw4UPdLbxC1kL9hK+Dy/1vJ7y
MFFvKgEU85jXVbE437E1p6KdTtskrDk3ssGHHr+T3pBJNtDqjzaA/ZjslOaZQQmw
yZuvbTt79FEA6mOrJtMMr1QqP5BNiHZ8RriVtgeenz2WVEpTMB0Q8T2XNdryGBkc
53cBHpx0ocYUDIHudSrUHGXz4TCsVaBdcmnftYS1ATTRqo8/b66tEnY68mVE6La7
4A==
-----END CERTIFICATE-----
