Certificate:
    Data:
        Version: 3 (0x2)
        Serial Number:
            5e:e9:78:ff:f0:f4:cd:22:79:19:18:38:86:be:98:a5
        Signature Algorithm: sha256WithRSAEncryption
        Issuer: CN=team421-net
        Validity
            Not Before: May 18 21:03:07 2022 GMT
            Not After : May  2 21:03:07 2025 GMT
        Subject: CN=team421-client
        Subject Public Key Info:
            Public Key Algorithm: rsaEncryption
                RSA Public-Key: (2048 bit)
                Modulus:
                    00:d3:1f:ea:df:4c:45:fa:9b:97:01:e1:47:32:3f:
                    8b:d2:4c:34:b3:b2:36:07:05:a0:b6:73:87:44:f8:
                    c3:eb:a2:8a:ce:a8:09:e1:f5:69:24:b3:66:ac:3a:
                    56:18:b5:73:7a:54:67:06:5b:64:61:cd:9c:89:64:
                    e4:fd:a1:eb:11:65:82:9f:ea:e7:58:34:5b:a7:cf:
                    a9:9e:aa:cb:d1:9c:84:5b:00:60:62:f9:9b:06:30:
                    69:38:3a:cf:53:61:30:3c:cb:bf:6d:9e:2f:02:66:
                    81:79:de:98:f6:5e:e5:e6:c0:d6:c0:42:f8:d6:89:
                    df:51:33:ab:84:5e:06:e8:b1:bd:b4:ba:9b:bf:47:
                    1a:39:f8:15:e4:00:77:64:3c:1c:93:0f:a2:c9:0f:
                    dd:80:27:ed:ee:28:dd:91:01:86:0b:f6:b2:0d:85:
                    8d:0f:9e:41:03:b2:4a:f3:29:78:b1:67:af:da:35:
                    e0:e0:b5:1e:41:ff:7c:74:17:d4:bd:13:a0:c3:23:
                    d9:2b:91:69:41:19:07:d0:a6:c9:54:1d:31:9f:5b:
                    92:7a:52:df:3d:8a:0b:5f:45:37:dc:28:f2:ff:78:
                    1d:84:4e:11:24:1b:86:3c:02:4f:e2:64:9c:16:f8:
                    ea:46:fc:1a:f7:16:ab:0a:71:9a:4c:d6:8d:09:3c:
                    e6:23
                Exponent: 65537 (0x10001)
        X509v3 extensions:
            X509v3 Basic Constraints: 
                CA:FALSE
            X509v3 Subject Key Identifier: 
                39:A5:68:8D:5F:46:A4:A3:6E:F0:F7:1A:7B:25:DC:5F:66:0E:F4:C2
            X509v3 Authority Key Identifier: 
                keyid:7E:6D:EA:31:C3:72:AA:64:3C:06:AA:E5:8E:1C:D1:43:A0:6C:6C:10
                DirName:/CN=team421-net
                serial:2E:77:FC:31:B5:46:64:BC:1A:A9:5F:56:93:3F:05:95:45:E6:AF:3D

            X509v3 Extended Key Usage: 
                TLS Web Client Authentication
            X509v3 Key Usage: 
                Digital Signature
    Signature Algorithm: sha256WithRSAEncryption
         31:5b:65:f7:fb:66:0f:dc:46:db:98:7f:5e:ff:c1:58:ca:8d:
         5e:02:f7:a2:3a:47:92:31:fc:fc:3a:73:fa:18:37:56:3b:3b:
         78:fd:4d:11:cc:77:71:3c:9b:bd:07:de:9a:bd:6d:99:d5:92:
         75:e3:94:76:4c:e4:63:d5:70:ab:f6:e5:44:20:1b:c1:d8:dd:
         35:42:23:0d:60:f4:a9:1e:9d:c6:09:49:71:9f:48:03:bd:b5:
         22:c1:14:1e:e2:0c:bc:66:60:95:45:5c:fb:b2:3a:2d:93:c4:
         e7:c3:80:84:80:f2:bf:1f:3c:8b:69:1b:83:81:76:48:ee:63:
         f4:fc:7f:62:62:89:7b:9f:3d:e0:c6:f4:f4:e5:1d:c5:56:c6:
         1d:91:06:a4:89:79:77:65:7d:85:92:18:2d:1d:14:af:c1:e6:
         7e:f2:e6:b0:31:1b:05:e2:87:40:a3:1f:2b:04:23:e5:8c:a6:
         07:a5:90:5c:ee:aa:bb:e5:d2:32:ce:24:27:53:c6:da:2f:7e:
         94:56:1d:ea:b8:47:c9:18:0e:44:62:f2:0b:dc:15:1e:be:3a:
         9c:e5:92:db:b3:91:8c:ee:52:25:7a:ff:7b:71:81:5c:5e:79:
         ff:74:03:f1:69:67:1f:86:4b:62:22:27:41:bb:22:b8:22:2d:
         8b:df:36:37
-----BEGIN CERTIFICATE-----
MIIDXDCCAkSgAwIBAgIQXul4//D0zSJ5GRg4hr6YpTANBgkqhkiG9w0BAQsFADAW
MRQwEgYDVQQDDAt0ZWFtNDIxLW5ldDAeFw0yMjA1MTgyMTAzMDdaFw0yNTA1MDIy
MTAzMDdaMBkxFzAVBgNVBAMMDnRlYW00MjEtY2xpZW50MIIBIjANBgkqhkiG9w0B
AQEFAAOCAQ8AMIIBCgKCAQEA0x/q30xF+puXAeFHMj+L0kw0s7I2BwWgtnOHRPjD
66KKzqgJ4fVpJLNmrDpWGLVzelRnBltkYc2ciWTk/aHrEWWCn+rnWDRbp8+pnqrL
0ZyEWwBgYvmbBjBpODrPU2EwPMu/bZ4vAmaBed6Y9l7l5sDWwEL41onfUTOrhF4G
6LG9tLqbv0caOfgV5AB3ZDwckw+iyQ/dgCft7ijdkQGGC/ayDYWND55BA7JK8yl4
sWev2jXg4LUeQf98dBfUvROgwyPZK5FpQRkH0KbJVB0xn1uSelLfPYoLX0U33Cjy
/3gdhE4RJBuGPAJP4mScFvjqRvwa9xarCnGaTNaNCTzmIwIDAQABo4GiMIGfMAkG
A1UdEwQCMAAwHQYDVR0OBBYEFDmlaI1fRqSjbvD3Gnsl3F9mDvTCMFEGA1UdIwRK
MEiAFH5t6jHDcqpkPAaq5Y4c0UOgbGwQoRqkGDAWMRQwEgYDVQQDDAt0ZWFtNDIx
LW5ldIIULnf8MbVGZLwaqV9Wkz8FlUXmrz0wEwYDVR0lBAwwCgYIKwYBBQUHAwIw
CwYDVR0PBAQDAgeAMA0GCSqGSIb3DQEBCwUAA4IBAQAxW2X3+2YP3EbbmH9e/8FY
yo1eAveiOkeSMfz8OnP6GDdWOzt4/U0RzHdxPJu9B96avW2Z1ZJ145R2TORj1XCr
9uVEIBvB2N01QiMNYPSpHp3GCUlxn0gDvbUiwRQe4gy8ZmCVRVz7sjotk8Tnw4CE
gPK/HzyLaRuDgXZI7mP0/H9iYol7nz3gxvT05R3FVsYdkQakiXl3ZX2FkhgtHRSv
weZ+8uawMRsF4odAox8rBCPljKYHpZBc7qq75dIyziQnU8baL36UVh3quEfJGA5E
YvIL3BUevjqc5ZLbs5GM7lIlev97cYFcXnn/dAPxaWcfhktiIidBuyK4Ii2L3zY3
-----END CERTIFICATE-----
