Certificate:
    Data:
        Version: 3 (0x2)
        Serial Number:
            2d:65:83:6a:7c:62:96:19:d0:d0:bb:b9:68:07:01:b9
        Signature Algorithm: sha256WithRSAEncryption
        Issuer: CN=team763-net
        Validity
            Not Before: May 19 00:21:16 2022 GMT
            Not After : May  3 00:21:16 2025 GMT
        Subject: CN=team763-server
        Subject Public Key Info:
            Public Key Algorithm: rsaEncryption
                RSA Public-Key: (2048 bit)
                Modulus:
                    00:ef:a2:75:96:8d:01:8c:71:03:47:30:17:6f:c8:
                    0a:83:fa:e1:cf:08:b4:43:f8:95:90:6d:e3:cd:b1:
                    e5:e8:03:57:9b:b2:73:3e:b5:25:6f:32:ab:12:be:
                    c4:d4:f4:15:a3:2d:1d:46:98:15:26:30:bb:50:90:
                    b5:fc:bd:73:4e:7e:57:67:21:b5:bb:a2:86:e3:f9:
                    d1:81:3b:87:07:c5:17:bf:c4:30:a7:dc:32:04:43:
                    6f:ee:a9:91:30:12:34:6b:c5:af:2a:19:da:32:04:
                    91:c0:b1:7e:5b:d4:4d:b2:ed:bf:fb:ab:10:ff:7f:
                    93:e7:0f:e0:62:c3:e4:5c:87:65:10:ee:4f:3c:ab:
                    a1:53:c5:52:33:e5:ec:50:e0:c5:eb:40:61:2d:fa:
                    f2:6d:0e:e1:42:95:be:ac:c3:e3:8e:a8:19:c9:c3:
                    84:8e:eb:68:ea:b3:de:ff:67:09:db:1c:a9:40:39:
                    6d:dc:2e:4c:ec:d9:6c:4c:57:4c:df:02:21:57:fd:
                    dd:63:ab:57:6b:7d:23:3b:8e:19:f3:93:39:68:98:
                    d8:78:1b:75:36:fc:f9:9b:9b:50:27:e8:e4:f2:eb:
                    d2:48:a2:e6:cd:f7:c4:3e:bc:cd:99:8c:0c:94:74:
                    69:cb:b8:c1:b9:01:17:91:2e:7f:18:2a:fd:8c:85:
                    fe:19
                Exponent: 65537 (0x10001)
        X509v3 extensions:
            X509v3 Basic Constraints: 
                CA:FALSE
            X509v3 Subject Key Identifier: 
                04:02:D8:56:A3:BA:80:1F:32:7B:A1:5B:BE:84:24:C2:D4:26:F0:E3
            X509v3 Authority Key Identifier: 
                keyid:2A:DC:20:92:07:87:37:1D:05:B1:27:7E:AD:D7:44:C0:E4:0B:81:C0
                DirName:/CN=team763-net
                serial:0B:0D:B7:08:27:96:86:F2:48:1D:B4:E6:8C:0F:69:C5:22:69:EF:5B

            X509v3 Extended Key Usage: 
                TLS Web Server Authentication
            X509v3 Key Usage: 
                Digital Signature, Key Encipherment
            X509v3 Subject Alternative Name: 
                DNS:team763-server
    Signature Algorithm: sha256WithRSAEncryption
         8e:c9:78:5e:c8:e1:cf:19:87:0f:ef:8b:04:84:f9:04:23:cb:
         ea:54:13:81:c2:ec:e4:f0:8f:12:72:f8:77:21:db:05:7e:a2:
         29:88:f8:16:62:43:cb:d3:a8:f5:d9:4c:60:a4:44:cd:2d:00:
         4c:fe:00:c4:2b:84:48:d9:c4:b8:34:22:c0:a6:63:d3:5e:07:
         5f:c9:41:31:a2:db:82:c0:59:5d:be:39:c9:e6:a0:6d:83:b1:
         e7:8d:30:59:3c:fc:8a:25:89:6e:ef:82:6c:0b:33:ae:72:7e:
         e0:c2:eb:c1:d0:48:de:f6:d1:21:2d:73:c9:cf:79:41:ff:71:
         67:9d:7d:d9:bc:cb:7c:a5:e9:e4:d8:2e:15:d9:d9:cf:c0:06:
         4f:1f:c4:a3:3b:46:30:51:30:04:92:47:7e:f4:85:c3:d5:24:
         ca:bf:51:ac:ae:27:1d:b0:c6:ce:17:2c:1c:9b:08:43:78:92:
         82:d3:9d:2a:65:a1:9d:04:a0:9f:00:3c:6f:08:6f:8b:ac:b8:
         0d:14:2c:8e:76:4b:ad:23:45:dc:60:00:70:db:36:db:c6:8b:
         ee:24:75:af:ba:3e:c4:55:1e:2a:69:0b:28:50:91:eb:41:9a:
         87:0e:7b:98:6a:55:aa:fe:74:39:a8:40:c8:b4:5e:5a:7e:2b:
         e4:0b:08:8b
-----BEGIN CERTIFICATE-----
MIIDdzCCAl+gAwIBAgIQLWWDanxilhnQ0Lu5aAcBuTANBgkqhkiG9w0BAQsFADAW
MRQwEgYDVQQDDAt0ZWFtNzYzLW5ldDAeFw0yMjA1MTkwMDIxMTZaFw0yNTA1MDMw
MDIxMTZaMBkxFzAVBgNVBAMMDnRlYW03NjMtc2VydmVyMIIBIjANBgkqhkiG9w0B
AQEFAAOCAQ8AMIIBCgKCAQEA76J1lo0BjHEDRzAXb8gKg/rhzwi0Q/iVkG3jzbHl
6ANXm7JzPrUlbzKrEr7E1PQVoy0dRpgVJjC7UJC1/L1zTn5XZyG1u6KG4/nRgTuH
B8UXv8Qwp9wyBENv7qmRMBI0a8WvKhnaMgSRwLF+W9RNsu2/+6sQ/3+T5w/gYsPk
XIdlEO5PPKuhU8VSM+XsUODF60BhLfrybQ7hQpW+rMPjjqgZycOEjuto6rPe/2cJ
2xypQDlt3C5M7NlsTFdM3wIhV/3dY6tXa30jO44Z85M5aJjYeBt1Nvz5m5tQJ+jk
8uvSSKLmzffEPrzNmYwMlHRpy7jBuQEXkS5/GCr9jIX+GQIDAQABo4G9MIG6MAkG
A1UdEwQCMAAwHQYDVR0OBBYEFAQC2FajuoAfMnuhW76EJMLUJvDjMFEGA1UdIwRK
MEiAFCrcIJIHhzcdBbEnfq3XRMDkC4HAoRqkGDAWMRQwEgYDVQQDDAt0ZWFtNzYz
LW5ldIIUCw23CCeWhvJIHbTmjA9pxSJp71swEwYDVR0lBAwwCgYIKwYBBQUHAwEw
CwYDVR0PBAQDAgWgMBkGA1UdEQQSMBCCDnRlYW03NjMtc2VydmVyMA0GCSqGSIb3
DQEBCwUAA4IBAQCOyXheyOHPGYcP74sEhPkEI8vqVBOBwuzk8I8Scvh3IdsFfqIp
iPgWYkPL06j12UxgpETNLQBM/gDEK4RI2cS4NCLApmPTXgdfyUExotuCwFldvjnJ
5qBtg7HnjTBZPPyKJYlu74JsCzOucn7gwuvB0Eje9tEhLXPJz3lB/3FnnX3ZvMt8
penk2C4V2dnPwAZPH8SjO0YwUTAEkkd+9IXD1STKv1GsricdsMbOFywcmwhDeJKC
050qZaGdBKCfADxvCG+LrLgNFCyOdkutI0XcYABw2zbbxovuJHWvuj7EVR4qaQso
UJHrQZqHDnuYalWq/nQ5qEDItF5afivkCwiL
-----END CERTIFICATE-----
