Certificate:
    Data:
        Version: 3 (0x2)
        Serial Number:
            44:3c:ab:e3:92:2a:cf:58:cf:f4:9f:20:0e:91:85:c9
        Signature Algorithm: sha256WithRSAEncryption
        Issuer: CN=team729-net
        Validity
            Not Before: May 18 23:50:23 2022 GMT
            Not After : May  2 23:50:23 2025 GMT
        Subject: CN=team729-client
        Subject Public Key Info:
            Public Key Algorithm: rsaEncryption
                RSA Public-Key: (2048 bit)
                Modulus:
                    00:b0:06:e3:0f:70:f0:f6:02:e5:24:2b:8c:00:16:
                    d2:00:ce:4a:36:0b:ad:0c:0d:88:71:37:00:d9:b2:
                    30:4c:0c:92:c4:ad:e7:d9:7b:f3:40:ee:67:bd:ac:
                    4e:c0:32:57:8e:3c:ec:53:57:5a:b6:89:f8:12:69:
                    9e:17:1c:2e:6c:32:cd:e6:20:70:0e:77:21:54:69:
                    ed:9d:15:84:cd:dc:85:b2:ae:19:96:84:e4:ad:07:
                    0b:51:ee:40:67:92:d5:b5:57:36:63:09:ec:80:19:
                    9d:82:33:87:00:0e:9a:49:45:5e:f8:ae:6d:ae:f9:
                    75:c4:73:3b:e8:31:9f:67:76:1d:76:f3:02:ee:ff:
                    07:f0:b9:8f:90:fa:29:89:73:5d:ab:7b:66:e2:91:
                    67:5c:85:7c:fb:02:85:70:23:fc:af:53:ae:b1:9c:
                    31:d0:84:69:4d:02:02:2b:20:f8:1f:45:07:03:7d:
                    8e:00:7f:d5:7a:38:c8:53:fe:59:01:a8:f5:65:12:
                    25:b3:77:e0:9d:30:62:c5:26:0d:04:27:e0:cc:25:
                    c4:9a:cd:3b:94:8c:ce:d7:e8:58:92:08:02:4e:d4:
                    de:a9:fd:c6:66:3b:84:9c:0d:fc:5a:52:49:54:59:
                    9f:df:73:ed:8f:7e:f8:be:5c:2d:54:7c:2f:23:c6:
                    53:2b
                Exponent: 65537 (0x10001)
        X509v3 extensions:
            X509v3 Basic Constraints: 
                CA:FALSE
            X509v3 Subject Key Identifier: 
                BE:FA:1E:80:D6:E8:18:33:3D:83:10:ED:89:0A:27:EB:08:32:3F:89
            X509v3 Authority Key Identifier: 
                keyid:EC:B2:48:45:99:96:D5:70:B3:3A:AE:10:72:D3:F6:2E:9E:AA:FA:8A
                DirName:/CN=team729-net
                serial:08:20:9F:75:B4:14:40:56:C1:98:40:DF:BD:92:60:3F:C4:5E:FB:34

            X509v3 Extended Key Usage: 
                TLS Web Client Authentication
            X509v3 Key Usage: 
                Digital Signature
    Signature Algorithm: sha256WithRSAEncryption
         68:5b:1c:fa:f3:74:ab:32:df:64:2f:5e:c8:67:d8:1d:e7:dc:
         74:8e:f2:64:25:59:18:4b:f3:22:5b:bc:b9:32:62:81:cd:3e:
         6f:95:be:48:16:87:41:b6:02:e1:5f:1c:3c:3f:40:ea:d8:20:
         b3:c4:c1:cf:3a:61:2a:a1:7d:af:28:04:40:e3:c4:06:6c:21:
         91:1d:aa:cd:14:16:fb:21:25:c3:cc:89:ea:48:45:ca:a1:22:
         1a:25:8d:9b:4f:60:4d:a4:ee:a7:42:5d:44:9b:fa:f8:80:26:
         f3:7b:31:46:00:6e:26:b0:34:38:59:7b:29:90:3e:8f:b5:0e:
         1b:89:3f:a1:e3:32:80:90:c4:75:e9:d4:6a:e7:1d:ad:62:08:
         b3:5c:7d:2f:01:15:ae:a6:da:c6:35:68:a4:fc:0d:a2:42:07:
         df:66:47:3e:07:e7:33:2b:01:e1:78:25:ed:60:35:98:5b:ff:
         02:57:bf:57:f0:29:d0:ec:24:b5:e4:8f:76:2c:ef:ab:a2:1d:
         06:40:27:99:ba:55:da:f7:d4:c3:be:0c:51:b6:bb:5c:82:26:
         d4:02:fd:86:08:e6:fc:26:81:e8:45:34:23:b5:03:07:a7:c9:
         6f:39:52:68:c1:01:1f:b3:16:bc:73:66:bb:3f:2c:a5:ef:ca:
         de:fb:da:24
-----BEGIN CERTIFICATE-----
MIIDXDCCAkSgAwIBAgIQRDyr45Iqz1jP9J8gDpGFyTANBgkqhkiG9w0BAQsFADAW
MRQwEgYDVQQDDAt0ZWFtNzI5LW5ldDAeFw0yMjA1MTgyMzUwMjNaFw0yNTA1MDIy
MzUwMjNaMBkxFzAVBgNVBAMMDnRlYW03MjktY2xpZW50MIIBIjANBgkqhkiG9w0B
AQEFAAOCAQ8AMIIBCgKCAQEAsAbjD3Dw9gLlJCuMABbSAM5KNgutDA2IcTcA2bIw
TAySxK3n2XvzQO5nvaxOwDJXjjzsU1daton4EmmeFxwubDLN5iBwDnchVGntnRWE
zdyFsq4ZloTkrQcLUe5AZ5LVtVc2YwnsgBmdgjOHAA6aSUVe+K5trvl1xHM76DGf
Z3YddvMC7v8H8LmPkPopiXNdq3tm4pFnXIV8+wKFcCP8r1OusZwx0IRpTQICKyD4
H0UHA32OAH/VejjIU/5ZAaj1ZRIls3fgnTBixSYNBCfgzCXEms07lIzO1+hYkggC
TtTeqf3GZjuEnA38WlJJVFmf33Ptj374vlwtVHwvI8ZTKwIDAQABo4GiMIGfMAkG
A1UdEwQCMAAwHQYDVR0OBBYEFL76HoDW6BgzPYMQ7YkKJ+sIMj+JMFEGA1UdIwRK
MEiAFOyySEWZltVwszquEHLT9i6eqvqKoRqkGDAWMRQwEgYDVQQDDAt0ZWFtNzI5
LW5ldIIUCCCfdbQUQFbBmEDfvZJgP8Re+zQwEwYDVR0lBAwwCgYIKwYBBQUHAwIw
CwYDVR0PBAQDAgeAMA0GCSqGSIb3DQEBCwUAA4IBAQBoWxz683SrMt9kL17IZ9gd
59x0jvJkJVkYS/MiW7y5MmKBzT5vlb5IFodBtgLhXxw8P0Dq2CCzxMHPOmEqoX2v
KARA48QGbCGRHarNFBb7ISXDzInqSEXKoSIaJY2bT2BNpO6nQl1Em/r4gCbzezFG
AG4msDQ4WXspkD6PtQ4biT+h4zKAkMR16dRq5x2tYgizXH0vARWuptrGNWik/A2i
QgffZkc+B+czKwHheCXtYDWYW/8CV79X8CnQ7CS15I92LO+roh0GQCeZulXa99TD
vgxRtrtcgibUAv2GCOb8JoHoRTQjtQMHp8lvOVJowQEfsxa8c2a7Pyyl78re+9ok
-----END CERTIFICATE-----
