Certificate:
    Data:
        Version: 3 (0x2)
        Serial Number:
            a9:75:39:e9:b2:c4:63:6a:bd:83:78:97:9f:62:50:b2
        Signature Algorithm: sha256WithRSAEncryption
        Issuer: CN=team191-net
        Validity
            Not Before: May 18 18:57:29 2022 GMT
            Not After : May  2 18:57:29 2025 GMT
        Subject: CN=team191-server
        Subject Public Key Info:
            Public Key Algorithm: rsaEncryption
                RSA Public-Key: (2048 bit)
                Modulus:
                    00:d3:d2:74:21:6a:05:5a:75:60:e8:6b:e3:eb:f1:
                    35:06:c8:fa:a3:e9:f6:2f:b2:57:a1:16:cb:b1:ff:
                    24:ba:ec:e1:eb:db:ee:33:0e:ba:1f:84:a5:12:8c:
                    e4:1a:73:96:86:09:dd:f6:22:08:bf:cf:58:88:82:
                    b2:10:93:6b:a3:20:b3:9c:55:0f:9c:44:01:5d:b2:
                    2a:c8:23:46:23:0d:92:d2:ca:33:c7:4a:48:f7:6d:
                    ed:01:2b:a8:3e:a1:a1:d8:a5:76:af:84:c4:db:02:
                    d1:38:7c:84:fb:e0:49:dd:0f:48:04:fa:ae:01:f0:
                    59:af:0b:00:85:3e:99:1d:35:8e:ba:6a:72:1f:ac:
                    7f:d9:63:8d:ca:a9:59:0f:d9:1a:69:54:42:3b:05:
                    ad:dc:ae:85:e5:c2:4e:21:16:46:49:c3:ac:12:4a:
                    18:43:f0:90:37:07:72:0b:02:13:26:29:11:81:86:
                    62:25:f4:b3:63:0f:96:8a:dc:0a:f5:49:6c:95:5f:
                    a7:5d:49:b2:83:ab:a1:8b:4e:d3:d7:bd:35:5d:92:
                    94:8c:2d:08:a7:7b:10:b6:58:d0:f0:1f:da:08:24:
                    d1:70:40:fc:35:ed:6f:df:a0:8b:06:5c:53:5a:d3:
                    19:24:bf:83:64:8d:e2:a8:db:73:a7:67:27:b5:bc:
                    0e:bb
                Exponent: 65537 (0x10001)
        X509v3 extensions:
            X509v3 Basic Constraints: 
                CA:FALSE
            X509v3 Subject Key Identifier: 
                1F:28:D5:66:BE:DE:B9:D8:5C:DC:EF:33:D1:8B:3C:50:3F:B1:56:44
            X509v3 Authority Key Identifier: 
                keyid:32:D3:23:68:F0:0A:E7:4C:F5:07:2C:FE:57:FE:97:71:38:6C:EE:D6
                DirName:/CN=team191-net
                serial:6C:52:BE:CF:27:E0:57:33:91:D4:B5:99:5B:A6:39:5A:2E:8C:40:8C

            X509v3 Extended Key Usage: 
                TLS Web Server Authentication
            X509v3 Key Usage: 
                Digital Signature, Key Encipherment
            X509v3 Subject Alternative Name: 
                DNS:team191-server
    Signature Algorithm: sha256WithRSAEncryption
         5c:76:51:de:51:ba:8d:72:c9:0b:29:23:f5:3d:26:fc:f6:06:
         4b:b3:82:76:39:f2:f2:25:1a:ef:71:69:92:95:27:8c:96:d6:
         07:66:ae:76:79:b4:20:e8:10:9d:82:35:a9:a2:99:d5:da:a8:
         18:d7:85:b8:ed:f9:23:80:8b:a8:a0:62:de:9f:0d:4a:97:52:
         cd:fe:4d:cc:18:80:be:2e:92:57:ee:5b:da:58:7c:f0:1a:a2:
         73:19:95:a5:ee:fb:a0:8a:99:7e:b0:44:08:72:72:11:e3:a9:
         de:00:03:df:47:9f:b0:5c:0a:17:fc:ee:ea:5c:ef:75:02:ae:
         8e:98:bd:06:51:42:70:2f:b4:8a:c2:e3:05:29:2f:a8:98:bd:
         3d:81:5e:08:94:2e:9f:d6:54:4a:5d:a0:0a:e3:87:bb:d0:a5:
         7a:9b:18:4e:f0:81:08:2c:5c:20:b3:b0:37:d7:f2:93:81:05:
         94:2b:42:56:5a:81:d8:dc:d9:b8:74:82:7a:99:97:4d:0f:fc:
         15:8b:f7:0e:3c:70:06:60:d1:bd:af:b8:11:58:f1:2f:ef:49:
         fb:32:88:a2:ac:64:63:7b:9f:5b:3b:86:b3:3c:3e:13:cd:ec:
         a8:c5:0c:10:f4:db:7c:63:9f:d2:31:05:6c:99:ca:c3:75:be:
         56:67:9d:8c
-----BEGIN CERTIFICATE-----
MIIDeDCCAmCgAwIBAgIRAKl1OemyxGNqvYN4l59iULIwDQYJKoZIhvcNAQELBQAw
FjEUMBIGA1UEAwwLdGVhbTE5MS1uZXQwHhcNMjIwNTE4MTg1NzI5WhcNMjUwNTAy
MTg1NzI5WjAZMRcwFQYDVQQDDA50ZWFtMTkxLXNlcnZlcjCCASIwDQYJKoZIhvcN
AQEBBQADggEPADCCAQoCggEBANPSdCFqBVp1YOhr4+vxNQbI+qPp9i+yV6EWy7H/
JLrs4evb7jMOuh+EpRKM5BpzloYJ3fYiCL/PWIiCshCTa6Mgs5xVD5xEAV2yKsgj
RiMNktLKM8dKSPdt7QErqD6hodildq+ExNsC0Th8hPvgSd0PSAT6rgHwWa8LAIU+
mR01jrpqch+sf9ljjcqpWQ/ZGmlUQjsFrdyuheXCTiEWRknDrBJKGEPwkDcHcgsC
EyYpEYGGYiX0s2MPlorcCvVJbJVfp11JsoOroYtO09e9NV2SlIwtCKd7ELZY0PAf
2ggk0XBA/DXtb9+giwZcU1rTGSS/g2SN4qjbc6dnJ7W8DrsCAwEAAaOBvTCBujAJ
BgNVHRMEAjAAMB0GA1UdDgQWBBQfKNVmvt652Fzc7zPRizxQP7FWRDBRBgNVHSME
SjBIgBQy0yNo8ArnTPUHLP5X/pdxOGzu1qEapBgwFjEUMBIGA1UEAwwLdGVhbTE5
MS1uZXSCFGxSvs8n4FczkdS1mVumOVoujECMMBMGA1UdJQQMMAoGCCsGAQUFBwMB
MAsGA1UdDwQEAwIFoDAZBgNVHREEEjAQgg50ZWFtMTkxLXNlcnZlcjANBgkqhkiG
9w0BAQsFAAOCAQEAXHZR3lG6jXLJCykj9T0m/PYGS7OCdjny8iUa73FpkpUnjJbW
B2audnm0IOgQnYI1qaKZ1dqoGNeFuO35I4CLqKBi3p8NSpdSzf5NzBiAvi6SV+5b
2lh88BqicxmVpe77oIqZfrBECHJyEeOp3gAD30efsFwKF/zu6lzvdQKujpi9BlFC
cC+0isLjBSkvqJi9PYFeCJQun9ZUSl2gCuOHu9ClepsYTvCBCCxcILOwN9fyk4EF
lCtCVlqB2NzZuHSCepmXTQ/8FYv3DjxwBmDRva+4EVjxL+9J+zKIoqxkY3ufWzuG
szw+E83sqMUMEPTbfGOf0jEFbJnKw3W+VmedjA==
-----END CERTIFICATE-----
