Certificate:
    Data:
        Version: 3 (0x2)
        Serial Number:
            8b:dc:1d:93:97:ec:a1:74:78:42:fa:53:38:6c:85:95
        Signature Algorithm: sha256WithRSAEncryption
        Issuer: CN=team341-net
        Validity
            Not Before: May 18 20:31:17 2022 GMT
            Not After : May  2 20:31:17 2025 GMT
        Subject: CN=team341-server
        Subject Public Key Info:
            Public Key Algorithm: rsaEncryption
                RSA Public-Key: (2048 bit)
                Modulus:
                    00:e6:af:35:77:55:63:96:77:88:5c:08:e4:85:13:
                    37:23:ea:bf:af:2f:be:af:bf:a3:ae:bb:f4:ce:52:
                    30:10:57:5a:cf:17:19:82:78:86:f1:23:bf:28:9b:
                    04:79:77:d5:e9:b6:02:06:51:55:74:f0:94:7b:c6:
                    d0:a7:8d:9e:4f:cc:cf:b1:03:3d:66:b1:ae:11:7c:
                    55:9c:1d:6a:20:e7:5b:aa:fe:3a:c4:eb:23:c5:c9:
                    01:c2:43:0f:38:01:cb:e7:fe:5f:59:9a:d2:e6:8c:
                    9a:ab:1b:3b:bb:d1:1b:4b:62:eb:bb:47:fa:13:ac:
                    5d:ee:4e:46:7a:15:5a:02:1c:df:6b:db:6d:f2:53:
                    9a:7d:e9:dd:62:58:1a:ac:fe:73:25:96:4b:35:bd:
                    74:1d:39:27:b8:f0:68:80:d0:34:9e:0d:5a:32:51:
                    0b:a3:05:78:b5:38:1e:26:bc:bf:be:bf:55:42:85:
                    92:48:4f:07:82:bf:04:8f:55:94:e6:b2:7a:a1:d6:
                    43:5b:15:96:70:f0:2f:92:36:85:d0:f9:40:a5:0d:
                    4d:78:24:69:89:d8:87:6e:a9:34:a1:46:e8:5c:ee:
                    d0:67:e3:16:78:a7:83:3e:31:98:a9:a2:8a:ef:3b:
                    20:e4:d3:95:7d:ea:b5:fb:d8:00:b5:2e:84:09:3a:
                    fb:23
                Exponent: 65537 (0x10001)
        X509v3 extensions:
            X509v3 Basic Constraints: 
                CA:FALSE
            X509v3 Subject Key Identifier: 
                73:D2:F8:8A:ED:7C:D9:9A:07:90:AF:43:DC:20:82:E9:CB:AD:0E:F6
            X509v3 Authority Key Identifier: 
                keyid:14:28:8D:D8:BC:1A:C8:54:41:5A:60:CB:36:81:14:22:54:83:8A:9D
                DirName:/CN=team341-net
                serial:45:83:2A:7D:0A:C2:96:69:9A:0B:BA:B3:2D:D0:A3:35:16:15:6B:52

            X509v3 Extended Key Usage: 
                TLS Web Server Authentication
            X509v3 Key Usage: 
                Digital Signature, Key Encipherment
            X509v3 Subject Alternative Name: 
                DNS:team341-server
    Signature Algorithm: sha256WithRSAEncryption
         6d:f0:58:78:5e:0d:65:a4:19:58:7b:2a:d6:9b:78:25:b1:02:
         ca:ce:18:f8:37:03:a1:1a:79:2d:c5:2d:25:bf:a0:64:92:94:
         dd:55:2e:ff:5b:c0:9e:d3:d1:28:4c:93:e0:72:fa:a5:df:2b:
         2a:35:e8:66:66:cd:8a:f8:9b:97:a4:ac:01:01:d3:d0:e7:8a:
         5f:16:55:d2:93:9a:cb:a8:a5:80:af:ce:c8:51:57:2f:d6:1a:
         fc:e2:77:26:54:16:5c:22:9d:5b:9f:88:56:f9:44:35:d5:26:
         aa:ec:54:1a:86:9e:37:d4:79:d5:5e:b8:b8:8a:62:c5:9b:6d:
         53:8f:65:98:c5:ba:fb:ab:66:09:07:ba:8e:29:d4:f6:62:2a:
         1f:83:3c:31:dd:a1:23:f3:c1:9e:0c:d8:69:e9:e1:39:09:2b:
         7b:be:52:a6:15:8d:4e:b8:b2:a5:88:04:63:e1:34:73:99:48:
         ff:c7:d5:8c:e1:db:cc:a5:bf:e6:93:92:4d:f3:34:0e:05:76:
         31:4f:53:b0:56:89:d0:38:f0:61:b8:c8:8c:bf:ad:27:18:6a:
         ee:cf:03:ff:5f:a9:3e:16:c7:d5:23:ac:94:09:26:96:4e:e8:
         aa:38:54:89:ef:85:51:1e:34:cf:3c:e5:8a:de:35:48:d1:c3:
         64:32:15:d8
-----BEGIN CERTIFICATE-----
MIIDeDCCAmCgAwIBAgIRAIvcHZOX7KF0eEL6UzhshZUwDQYJKoZIhvcNAQELBQAw
FjEUMBIGA1UEAwwLdGVhbTM0MS1uZXQwHhcNMjIwNTE4MjAzMTE3WhcNMjUwNTAy
MjAzMTE3WjAZMRcwFQYDVQQDDA50ZWFtMzQxLXNlcnZlcjCCASIwDQYJKoZIhvcN
AQEBBQADggEPADCCAQoCggEBAOavNXdVY5Z3iFwI5IUTNyPqv68vvq+/o6679M5S
MBBXWs8XGYJ4hvEjvyibBHl31em2AgZRVXTwlHvG0KeNnk/Mz7EDPWaxrhF8VZwd
aiDnW6r+OsTrI8XJAcJDDzgBy+f+X1ma0uaMmqsbO7vRG0ti67tH+hOsXe5ORnoV
WgIc32vbbfJTmn3p3WJYGqz+cyWWSzW9dB05J7jwaIDQNJ4NWjJRC6MFeLU4Hia8
v76/VUKFkkhPB4K/BI9VlOayeqHWQ1sVlnDwL5I2hdD5QKUNTXgkaYnYh26pNKFG
6Fzu0GfjFningz4xmKmiiu87IOTTlX3qtfvYALUuhAk6+yMCAwEAAaOBvTCBujAJ
BgNVHRMEAjAAMB0GA1UdDgQWBBRz0viK7XzZmgeQr0PcIILpy60O9jBRBgNVHSME
SjBIgBQUKI3YvBrIVEFaYMs2gRQiVIOKnaEapBgwFjEUMBIGA1UEAwwLdGVhbTM0
MS1uZXSCFEWDKn0KwpZpmgu6sy3QozUWFWtSMBMGA1UdJQQMMAoGCCsGAQUFBwMB
MAsGA1UdDwQEAwIFoDAZBgNVHREEEjAQgg50ZWFtMzQxLXNlcnZlcjANBgkqhkiG
9w0BAQsFAAOCAQEAbfBYeF4NZaQZWHsq1pt4JbECys4Y+DcDoRp5LcUtJb+gZJKU
3VUu/1vAntPRKEyT4HL6pd8rKjXoZmbNivibl6SsAQHT0OeKXxZV0pOay6ilgK/O
yFFXL9Ya/OJ3JlQWXCKdW5+IVvlENdUmquxUGoaeN9R51V64uIpixZttU49lmMW6
+6tmCQe6jinU9mIqH4M8Md2hI/PBngzYaenhOQkre75SphWNTriypYgEY+E0c5lI
/8fVjOHbzKW/5pOSTfM0DgV2MU9TsFaJ0DjwYbjIjL+tJxhq7s8D/1+pPhbH1SOs
lAkmlk7oqjhUie+FUR40zzzlit41SNHDZDIV2A==
-----END CERTIFICATE-----
