Certificate:
    Data:
        Version: 3 (0x2)
        Serial Number:
            4d:3f:b5:44:86:33:55:6f:63:a0:bb:c3:90:48:2c:ef
        Signature Algorithm: sha256WithRSAEncryption
        Issuer: CN=team719-net
        Validity
            Not Before: May 18 23:56:07 2022 GMT
            Not After : May  2 23:56:07 2025 GMT
        Subject: CN=team719-client
        Subject Public Key Info:
            Public Key Algorithm: rsaEncryption
                RSA Public-Key: (2048 bit)
                Modulus:
                    00:b8:0b:c5:2e:dd:ed:70:8b:2d:df:dd:2b:24:02:
                    a5:86:c7:6d:28:b8:72:51:cf:7a:12:fe:f5:37:1c:
                    dc:9d:58:7d:23:af:ba:df:33:94:df:04:8e:6b:c4:
                    20:12:05:c5:89:ed:ca:6d:ec:f3:9d:4e:a0:b1:a7:
                    2a:85:a2:3c:0d:f5:a4:29:7e:78:7b:56:de:0e:eb:
                    e3:80:b5:c7:d3:2a:d2:ac:cc:b7:e0:db:c7:68:41:
                    97:41:74:91:9e:c5:2a:51:0f:7c:c0:17:77:bb:7a:
                    a9:59:c4:b2:b7:dd:1b:f8:b0:2d:93:37:bc:c0:67:
                    af:a4:db:bd:09:ed:a5:82:64:45:bd:23:0f:71:79:
                    bc:96:42:c0:4b:7e:a8:09:86:4e:45:61:f3:12:2e:
                    0f:b8:f8:68:cc:29:10:76:61:63:32:43:fd:54:61:
                    d1:e2:26:e1:af:b0:6f:aa:6a:a7:ed:ac:d3:4f:d9:
                    48:9f:d1:53:29:26:6b:c2:9c:f3:94:6c:66:a9:54:
                    38:ef:42:9a:72:35:28:71:d5:aa:41:7f:a0:3e:e5:
                    cd:ff:e8:6f:09:dc:02:d4:0a:87:63:9f:68:3b:97:
                    bc:22:28:3d:4f:a3:e5:7e:60:d1:03:9e:e8:5c:7d:
                    f5:20:46:dc:4f:37:ba:af:df:2e:e3:af:35:9a:a3:
                    79:5b
                Exponent: 65537 (0x10001)
        X509v3 extensions:
            X509v3 Basic Constraints: 
                CA:FALSE
            X509v3 Subject Key Identifier: 
                AA:BC:F0:3F:58:37:D7:29:17:6B:B6:D3:CF:85:BF:BF:67:07:40:A9
            X509v3 Authority Key Identifier: 
                keyid:F2:A3:E2:99:01:15:ED:7E:2A:A4:06:0A:57:11:FD:99:3E:E1:4A:8C
                DirName:/CN=team719-net
                serial:54:C3:09:2E:4E:CE:43:A3:64:2C:9E:96:25:8B:AE:16:5A:08:B4:F6

            X509v3 Extended Key Usage: 
                TLS Web Client Authentication
            X509v3 Key Usage: 
                Digital Signature
    Signature Algorithm: sha256WithRSAEncryption
         19:e4:f8:8e:7d:b7:97:da:9e:1a:91:62:8e:07:7c:fd:91:ca:
         0b:f5:a0:72:00:40:70:6a:f5:50:fd:4a:ce:5a:f7:c3:de:8e:
         7f:9c:08:70:6f:bf:f8:5b:68:c1:2c:cb:9a:48:ec:81:71:95:
         4a:4f:a0:f4:6e:2f:1d:d8:f4:e7:cd:d5:66:7b:4b:17:eb:6c:
         f9:03:58:17:e7:d2:cc:cf:e9:3b:fd:d4:e4:83:6d:86:d4:75:
         65:ff:bc:99:e4:f7:d1:7b:89:c9:36:10:8d:b7:81:47:fa:fa:
         ad:8c:87:55:91:db:eb:1f:2b:50:37:ad:4d:de:a2:39:d8:d2:
         ff:fa:7f:14:3a:4e:05:18:ee:57:cf:0e:5a:5c:dc:53:39:9d:
         c4:49:b1:2c:9d:5b:31:47:c4:12:74:4d:ce:c1:da:dc:42:28:
         68:4d:8b:96:1d:39:e8:56:3e:25:09:d2:ab:65:22:59:e7:df:
         9d:95:9e:8a:d0:95:07:d7:55:85:9e:4a:61:b4:f0:3e:5c:59:
         f2:0e:1a:e5:a7:96:7d:43:af:07:43:f3:55:14:d3:fd:a2:30:
         50:12:9a:dd:31:d8:c4:0d:77:c6:11:2e:0e:0f:a6:b5:30:d6:
         87:7b:79:8c:0c:4d:1d:c3:bc:4a:7e:66:ed:77:b4:d5:4b:98:
         37:c2:53:1f
-----BEGIN CERTIFICATE-----
MIIDXDCCAkSgAwIBAgIQTT+1RIYzVW9joLvDkEgs7zANBgkqhkiG9w0BAQsFADAW
MRQwEgYDVQQDDAt0ZWFtNzE5LW5ldDAeFw0yMjA1MTgyMzU2MDdaFw0yNTA1MDIy
MzU2MDdaMBkxFzAVBgNVBAMMDnRlYW03MTktY2xpZW50MIIBIjANBgkqhkiG9w0B
AQEFAAOCAQ8AMIIBCgKCAQEAuAvFLt3tcIst390rJAKlhsdtKLhyUc96Ev71Nxzc
nVh9I6+63zOU3wSOa8QgEgXFie3KbezznU6gsacqhaI8DfWkKX54e1beDuvjgLXH
0yrSrMy34NvHaEGXQXSRnsUqUQ98wBd3u3qpWcSyt90b+LAtkze8wGevpNu9Ce2l
gmRFvSMPcXm8lkLAS36oCYZORWHzEi4PuPhozCkQdmFjMkP9VGHR4ibhr7Bvqmqn
7azTT9lIn9FTKSZrwpzzlGxmqVQ470KacjUocdWqQX+gPuXN/+hvCdwC1AqHY59o
O5e8Iig9T6PlfmDRA57oXH31IEbcTze6r98u4681mqN5WwIDAQABo4GiMIGfMAkG
A1UdEwQCMAAwHQYDVR0OBBYEFKq88D9YN9cpF2u208+Fv79nB0CpMFEGA1UdIwRK
MEiAFPKj4pkBFe1+KqQGClcR/Zk+4UqMoRqkGDAWMRQwEgYDVQQDDAt0ZWFtNzE5
LW5ldIIUVMMJLk7OQ6NkLJ6WJYuuFloItPYwEwYDVR0lBAwwCgYIKwYBBQUHAwIw
CwYDVR0PBAQDAgeAMA0GCSqGSIb3DQEBCwUAA4IBAQAZ5PiOfbeX2p4akWKOB3z9
kcoL9aByAEBwavVQ/UrOWvfD3o5/nAhwb7/4W2jBLMuaSOyBcZVKT6D0bi8d2PTn
zdVme0sX62z5A1gX59LMz+k7/dTkg22G1HVl/7yZ5PfRe4nJNhCNt4FH+vqtjIdV
kdvrHytQN61N3qI52NL/+n8UOk4FGO5Xzw5aXNxTOZ3ESbEsnVsxR8QSdE3Owdrc
QihoTYuWHTnoVj4lCdKrZSJZ59+dlZ6K0JUH11WFnkphtPA+XFnyDhrlp5Z9Q68H
Q/NVFNP9ojBQEprdMdjEDXfGES4OD6a1MNaHe3mMDE0dw7xKfmbtd7TVS5g3wlMf
-----END CERTIFICATE-----
