Certificate:
    Data:
        Version: 3 (0x2)
        Serial Number:
            80:3b:d2:82:31:58:c9:2b:07:2c:3e:9a:44:9c:9a:b9
        Signature Algorithm: sha256WithRSAEncryption
        Issuer: CN=team543-net
        Validity
            Not Before: May 18 22:09:11 2022 GMT
            Not After : May  2 22:09:11 2025 GMT
        Subject: CN=team543-client
        Subject Public Key Info:
            Public Key Algorithm: rsaEncryption
                RSA Public-Key: (2048 bit)
                Modulus:
                    00:e0:dc:9e:33:2b:9d:5a:db:cd:cb:e0:ad:8a:d3:
                    a5:4f:b0:c2:d8:ca:b9:d1:79:85:93:7e:52:9e:7e:
                    1b:f8:90:93:c1:93:e7:6c:dd:12:a7:00:6f:e1:33:
                    7a:32:97:8a:70:fd:12:fc:a9:d5:3a:32:80:b5:97:
                    07:74:72:95:5a:7a:f0:fd:87:39:43:b3:97:0d:f8:
                    be:95:79:66:24:43:85:75:5c:b5:b1:8c:c6:17:32:
                    1c:aa:3b:d9:f1:62:13:61:f5:a8:4b:54:dd:60:4b:
                    0d:88:54:ad:1c:bb:9c:bf:6b:3f:25:9b:7b:61:a1:
                    72:1e:b6:d8:83:9a:3b:3e:b8:65:8a:66:5c:b3:eb:
                    c9:53:06:b6:37:7b:50:cb:f7:39:46:5a:7d:01:9e:
                    55:14:6e:58:52:47:61:22:a2:3d:d0:da:55:0a:67:
                    64:8a:3d:a3:59:ea:83:09:b1:dd:6e:64:7b:05:eb:
                    3c:9c:c3:37:9e:a3:6f:3e:85:19:ac:93:0d:ad:5a:
                    13:6a:6e:97:a3:d2:03:aa:aa:62:e7:63:58:21:70:
                    7f:09:c3:fc:6e:a2:c1:83:14:0e:26:7e:3a:df:3d:
                    ae:c4:71:db:d8:65:50:f6:de:2a:c3:0b:eb:28:fc:
                    b0:3d:ec:f3:05:21:e6:16:91:54:be:0b:24:24:a0:
                    cc:5f
                Exponent: 65537 (0x10001)
        X509v3 extensions:
            X509v3 Basic Constraints: 
                CA:FALSE
            X509v3 Subject Key Identifier: 
                64:79:CD:36:BE:BD:13:12:A7:37:04:63:FB:3B:D7:53:AE:42:8F:0F
            X509v3 Authority Key Identifier: 
                keyid:50:FB:25:DC:95:09:A4:92:25:56:03:4A:C5:A9:44:EF:F5:C6:E4:68
                DirName:/CN=team543-net
                serial:51:93:92:47:30:79:FE:67:81:80:E0:3F:BF:A0:E0:B1:EA:38:DA:16

            X509v3 Extended Key Usage: 
                TLS Web Client Authentication
            X509v3 Key Usage: 
                Digital Signature
    Signature Algorithm: sha256WithRSAEncryption
         93:80:ce:d3:ba:ea:6e:af:51:4b:64:a3:43:7b:79:db:fe:62:
         0d:f5:20:7f:4b:de:a6:dd:97:0e:33:27:29:f5:f6:75:42:1f:
         16:3e:69:f6:7e:7d:26:73:ff:ce:88:ce:79:c0:69:0c:b4:a7:
         86:88:08:9f:d1:41:7f:d6:cd:5f:d6:bb:33:14:31:ff:16:3a:
         55:5e:89:82:e0:54:71:19:03:c9:cd:4d:16:57:46:e3:c2:c1:
         c3:aa:8f:c3:be:6b:66:6f:64:c4:4e:69:03:1a:28:0d:9b:cc:
         0f:dc:ff:5c:04:ba:65:54:9a:b5:9d:12:77:7e:bb:3e:ca:20:
         34:3f:06:11:6d:22:3d:26:c8:85:5b:87:13:6f:18:de:fa:86:
         7d:6a:10:ec:43:5e:2d:6d:f1:07:c2:8d:83:39:93:9c:ac:99:
         eb:fb:81:af:ab:9c:b8:9e:25:3c:35:e3:c8:26:01:e3:2d:be:
         7b:a3:67:2a:bb:a0:62:8f:73:f5:6f:0a:11:cc:fb:00:3f:8d:
         52:ce:68:f8:52:c2:d2:f4:2b:3e:20:f3:76:15:b1:ae:c6:14:
         4a:5d:70:30:62:6e:dc:f1:5d:63:da:92:39:8c:fa:c2:81:40:
         3d:54:7f:83:73:1d:46:6d:e2:31:e4:ec:7b:78:e3:a8:de:78:
         95:39:07:50
-----BEGIN CERTIFICATE-----
MIIDXTCCAkWgAwIBAgIRAIA70oIxWMkrByw+mkScmrkwDQYJKoZIhvcNAQELBQAw
FjEUMBIGA1UEAwwLdGVhbTU0My1uZXQwHhcNMjIwNTE4MjIwOTExWhcNMjUwNTAy
MjIwOTExWjAZMRcwFQYDVQQDDA50ZWFtNTQzLWNsaWVudDCCASIwDQYJKoZIhvcN
AQEBBQADggEPADCCAQoCggEBAODcnjMrnVrbzcvgrYrTpU+wwtjKudF5hZN+Up5+
G/iQk8GT52zdEqcAb+EzejKXinD9Evyp1ToygLWXB3RylVp68P2HOUOzlw34vpV5
ZiRDhXVctbGMxhcyHKo72fFiE2H1qEtU3WBLDYhUrRy7nL9rPyWbe2Ghch622IOa
Oz64ZYpmXLPryVMGtjd7UMv3OUZafQGeVRRuWFJHYSKiPdDaVQpnZIo9o1nqgwmx
3W5kewXrPJzDN56jbz6FGayTDa1aE2pul6PSA6qqYudjWCFwfwnD/G6iwYMUDiZ+
Ot89rsRx29hlUPbeKsML6yj8sD3s8wUh5haRVL4LJCSgzF8CAwEAAaOBojCBnzAJ
BgNVHRMEAjAAMB0GA1UdDgQWBBRkec02vr0TEqc3BGP7O9dTrkKPDzBRBgNVHSME
SjBIgBRQ+yXclQmkkiVWA0rFqUTv9cbkaKEapBgwFjEUMBIGA1UEAwwLdGVhbTU0
My1uZXSCFFGTkkcwef5ngYDgP7+g4LHqONoWMBMGA1UdJQQMMAoGCCsGAQUFBwMC
MAsGA1UdDwQEAwIHgDANBgkqhkiG9w0BAQsFAAOCAQEAk4DO07rqbq9RS2SjQ3t5
2/5iDfUgf0vept2XDjMnKfX2dUIfFj5p9n59JnP/zojOecBpDLSnhogIn9FBf9bN
X9a7MxQx/xY6VV6JguBUcRkDyc1NFldG48LBw6qPw75rZm9kxE5pAxooDZvMD9z/
XAS6ZVSatZ0Sd367PsogND8GEW0iPSbIhVuHE28Y3vqGfWoQ7ENeLW3xB8KNgzmT
nKyZ6/uBr6ucuJ4lPDXjyCYB4y2+e6NnKrugYo9z9W8KEcz7AD+NUs5o+FLC0vQr
PiDzdhWxrsYUSl1wMGJu3PFdY9qSOYz6woFAPVR/g3MdRm3iMeTse3jjqN54lTkH
UA==
-----END CERTIFICATE-----
