Certificate:
    Data:
        Version: 3 (0x2)
        Serial Number:
            ee:7b:80:5b:62:ce:59:d0:e4:ac:75:52:3d:40:91:6d
        Signature Algorithm: sha256WithRSAEncryption
        Issuer: CN=team188-net
        Validity
            Not Before: May 18 18:55:02 2022 GMT
            Not After : May  2 18:55:02 2025 GMT
        Subject: CN=team188-server
        Subject Public Key Info:
            Public Key Algorithm: rsaEncryption
                RSA Public-Key: (2048 bit)
                Modulus:
                    00:e4:12:10:c1:88:69:0c:ad:fa:8c:8a:7e:86:5a:
                    81:cb:3b:88:e3:99:d4:9c:1a:17:22:3d:64:ea:11:
                    06:a8:89:75:0b:73:55:7d:58:39:c3:af:d3:62:f1:
                    0d:7a:ce:09:91:0b:d5:68:3d:d5:6f:fe:e1:67:6e:
                    74:11:9e:44:c4:a6:d4:96:00:c7:c4:18:bb:0f:79:
                    2b:c3:2a:c7:b4:d3:b7:22:1e:a8:03:e9:f1:5a:4d:
                    af:1c:83:42:6e:73:6b:ae:01:f4:33:38:37:ff:00:
                    bc:f0:d8:70:28:15:25:ad:15:fc:d6:fb:14:06:e4:
                    23:5b:68:3e:32:cd:50:27:b5:fe:23:8e:22:0e:36:
                    2d:20:e9:00:1f:80:43:b0:57:51:44:07:23:13:6e:
                    f5:7e:c3:ef:4f:b2:b4:b8:5a:51:02:e2:7f:37:8e:
                    dc:7c:ca:da:8f:64:1c:16:da:f3:0c:8f:99:ab:dc:
                    9c:b4:92:dc:f9:0a:64:0f:c2:04:a9:cd:42:19:ca:
                    48:47:9d:a8:5c:25:5b:12:c5:95:81:1f:d4:d6:02:
                    c2:77:39:03:53:21:c8:b2:42:14:ca:7a:d5:6b:e3:
                    ce:c2:e6:5d:ba:1d:ce:b2:36:3a:76:c0:39:96:6e:
                    a6:48:8d:df:2d:16:77:d6:f5:01:67:18:88:ae:23:
                    d6:55
                Exponent: 65537 (0x10001)
        X509v3 extensions:
            X509v3 Basic Constraints: 
                CA:FALSE
            X509v3 Subject Key Identifier: 
                40:7A:7E:53:80:0F:BE:AD:E4:B7:F9:31:0D:76:A3:BD:C6:25:E0:7C
            X509v3 Authority Key Identifier: 
                keyid:EC:63:62:C5:49:28:86:70:76:85:5C:47:FB:CE:F3:88:3E:26:07:4E
                DirName:/CN=team188-net
                serial:5D:3C:A4:F8:5A:1E:FD:C3:54:48:24:14:B7:9F:04:0C:A7:6D:6D:58

            X509v3 Extended Key Usage: 
                TLS Web Server Authentication
            X509v3 Key Usage: 
                Digital Signature, Key Encipherment
            X509v3 Subject Alternative Name: 
                DNS:team188-server
    Signature Algorithm: sha256WithRSAEncryption
         19:65:73:50:51:21:f3:85:0d:e6:a7:0f:5e:e8:af:d4:8a:91:
         fe:b2:cc:06:fe:eb:0f:01:a7:21:ec:83:d9:5d:61:c2:34:76:
         73:c4:cf:20:78:06:c7:f6:9d:2f:b5:f4:e4:7e:97:a4:30:e1:
         71:56:44:4e:fa:f6:6e:30:76:f8:01:92:48:ee:81:af:fa:8d:
         0b:3b:d0:8f:ba:b8:5e:87:33:de:5b:fa:24:2c:31:52:81:47:
         25:44:5c:4e:c8:ac:f9:30:e2:4a:6b:cb:ab:2a:c0:f9:86:4d:
         d7:00:90:d0:d2:3d:db:ca:a7:ec:54:00:f6:a2:f6:0a:7b:f8:
         32:54:69:69:2c:98:11:4c:81:f1:20:58:d3:93:67:84:4e:0d:
         30:93:75:73:9f:cf:21:e2:5e:30:20:05:0c:c5:da:67:a4:e4:
         71:ff:f0:7f:02:67:5c:6b:33:7c:8d:58:65:b3:4e:ca:9e:f2:
         d5:db:88:cb:f1:8a:1e:83:f1:f3:bb:11:c0:ab:75:7b:ff:54:
         2a:d4:aa:b6:35:39:af:ff:bb:45:12:38:29:35:fe:22:7e:1a:
         cc:8a:84:d0:ff:7e:fc:de:7c:43:17:eb:00:7b:b6:40:2e:2c:
         7e:5c:24:77:e8:61:d4:2b:b3:f7:e5:a0:af:b4:44:71:25:14:
         23:f5:94:78
-----BEGIN CERTIFICATE-----
MIIDeDCCAmCgAwIBAgIRAO57gFtizlnQ5Kx1Uj1AkW0wDQYJKoZIhvcNAQELBQAw
FjEUMBIGA1UEAwwLdGVhbTE4OC1uZXQwHhcNMjIwNTE4MTg1NTAyWhcNMjUwNTAy
MTg1NTAyWjAZMRcwFQYDVQQDDA50ZWFtMTg4LXNlcnZlcjCCASIwDQYJKoZIhvcN
AQEBBQADggEPADCCAQoCggEBAOQSEMGIaQyt+oyKfoZagcs7iOOZ1JwaFyI9ZOoR
BqiJdQtzVX1YOcOv02LxDXrOCZEL1Wg91W/+4WdudBGeRMSm1JYAx8QYuw95K8Mq
x7TTtyIeqAPp8VpNrxyDQm5za64B9DM4N/8AvPDYcCgVJa0V/Nb7FAbkI1toPjLN
UCe1/iOOIg42LSDpAB+AQ7BXUUQHIxNu9X7D70+ytLhaUQLifzeO3HzK2o9kHBba
8wyPmavcnLSS3PkKZA/CBKnNQhnKSEedqFwlWxLFlYEf1NYCwnc5A1MhyLJCFMp6
1WvjzsLmXbodzrI2OnbAOZZupkiN3y0Wd9b1AWcYiK4j1lUCAwEAAaOBvTCBujAJ
BgNVHRMEAjAAMB0GA1UdDgQWBBRAen5TgA++reS3+TENdqO9xiXgfDBRBgNVHSME
SjBIgBTsY2LFSSiGcHaFXEf7zvOIPiYHTqEapBgwFjEUMBIGA1UEAwwLdGVhbTE4
OC1uZXSCFF08pPhaHv3DVEgkFLefBAynbW1YMBMGA1UdJQQMMAoGCCsGAQUFBwMB
MAsGA1UdDwQEAwIFoDAZBgNVHREEEjAQgg50ZWFtMTg4LXNlcnZlcjANBgkqhkiG
9w0BAQsFAAOCAQEAGWVzUFEh84UN5qcPXuiv1IqR/rLMBv7rDwGnIeyD2V1hwjR2
c8TPIHgGx/adL7X05H6XpDDhcVZETvr2bjB2+AGSSO6Br/qNCzvQj7q4Xocz3lv6
JCwxUoFHJURcTsis+TDiSmvLqyrA+YZN1wCQ0NI928qn7FQA9qL2Cnv4MlRpaSyY
EUyB8SBY05NnhE4NMJN1c5/PIeJeMCAFDMXaZ6Tkcf/wfwJnXGszfI1YZbNOyp7y
1duIy/GKHoPx87sRwKt1e/9UKtSqtjU5r/+7RRI4KTX+In4azIqE0P9+/N58Qxfr
AHu2QC4sflwkd+hh1Cuz9+Wgr7REcSUUI/WUeA==
-----END CERTIFICATE-----
