Certificate:
    Data:
        Version: 3 (0x2)
        Serial Number:
            df:d6:eb:cd:4d:b4:30:bc:b7:7c:c7:75:4a:ba:a3:00
        Signature Algorithm: sha256WithRSAEncryption
        Issuer: CN=team279-net
        Validity
            Not Before: May 18 19:53:45 2022 GMT
            Not After : May  2 19:53:45 2025 GMT
        Subject: CN=team279-client
        Subject Public Key Info:
            Public Key Algorithm: rsaEncryption
                RSA Public-Key: (2048 bit)
                Modulus:
                    00:b9:6a:27:3b:ac:1e:64:e2:f6:03:b3:dd:4e:c3:
                    2a:fe:09:7b:ca:42:6f:48:59:13:cf:b8:df:06:c2:
                    3b:5e:ff:10:86:a8:bb:b0:f1:f4:8d:fe:55:15:0d:
                    3b:4b:56:7d:3a:f9:ea:45:7a:77:a3:7d:ae:88:82:
                    bb:e0:8e:2a:43:9f:f7:44:a4:68:47:87:bb:4d:ca:
                    82:12:16:22:7a:96:45:01:29:97:85:d7:81:2e:d4:
                    36:b7:38:c7:92:f5:29:ed:f6:81:0f:ac:34:c9:d2:
                    bd:84:38:06:ab:6b:98:b2:e1:fa:99:bf:cd:cd:1c:
                    a8:ee:de:ff:dc:16:9e:c8:c9:e2:f9:a0:07:91:38:
                    40:90:44:f6:62:69:3b:4c:ee:d1:b3:c9:da:a1:95:
                    25:a2:39:41:1c:a8:15:82:03:82:d3:6f:75:b6:99:
                    80:1e:eb:4b:6d:89:e4:48:5a:7a:5f:39:cb:c1:1d:
                    d8:58:76:4f:db:4d:2e:01:05:e5:cc:0d:13:06:d9:
                    e1:c0:53:1b:3b:4a:7e:77:23:89:95:5b:bd:18:4c:
                    b6:c4:7c:7e:8f:e7:11:83:9b:e8:7c:1d:92:4c:11:
                    59:b8:80:94:21:a6:bf:62:66:f3:da:0d:ca:2b:fc:
                    40:00:f5:28:86:9a:0a:f7:11:aa:29:9c:1d:16:e5:
                    f4:95
                Exponent: 65537 (0x10001)
        X509v3 extensions:
            X509v3 Basic Constraints: 
                CA:FALSE
            X509v3 Subject Key Identifier: 
                78:32:DF:50:CB:F0:DA:39:63:EB:5B:1D:70:FB:B5:51:11:08:3F:F3
            X509v3 Authority Key Identifier: 
                keyid:03:C7:A0:1F:1E:E5:30:26:96:B1:DF:3A:5F:AC:8E:6A:ED:54:EF:73
                DirName:/CN=team279-net
                serial:15:DF:5D:A4:58:75:DF:78:F6:DF:B0:6F:C6:18:FF:91:30:3E:E5:AD

            X509v3 Extended Key Usage: 
                TLS Web Client Authentication
            X509v3 Key Usage: 
                Digital Signature
    Signature Algorithm: sha256WithRSAEncryption
         66:f5:37:aa:7e:2d:66:f6:c8:f7:b4:a1:48:89:cb:0c:2b:db:
         59:0e:27:61:ee:c4:45:3b:04:05:bb:a8:a4:72:d3:22:1b:5b:
         30:27:45:29:0b:b8:cb:b5:f0:7e:75:d2:fa:1f:40:19:ab:9d:
         7e:d7:88:c1:ed:27:90:a2:74:af:f0:18:6d:da:21:03:dc:5e:
         4e:91:1f:85:35:7f:28:1a:ff:5a:fb:72:95:c1:0c:45:fb:9f:
         1b:43:13:9c:56:99:79:00:a0:48:4b:60:d2:03:49:c7:6f:28:
         93:d3:09:17:ef:28:07:86:56:2d:19:45:4d:3d:3e:d8:d5:a0:
         94:5d:87:15:71:61:2a:dd:51:6f:4c:da:db:02:c0:92:09:c6:
         c0:e3:2a:3f:a9:2a:53:54:fc:e3:a1:0e:74:60:af:89:fe:a4:
         4c:99:4a:6b:dd:e0:01:78:f8:09:f3:6f:eb:b0:3f:05:15:54:
         34:ce:fc:07:f7:2f:57:8a:f7:48:ef:c1:94:c4:2c:69:74:7c:
         50:a0:82:41:5b:20:1a:ea:9f:c6:0c:ec:8c:5f:29:7f:93:28:
         0c:32:7b:19:0b:ed:4c:ec:c6:df:20:19:08:6e:8d:10:28:fc:
         c7:e0:7f:19:a4:bb:58:27:d7:fb:83:25:cd:4b:47:9b:8a:19:
         54:b5:e8:5b
-----BEGIN CERTIFICATE-----
MIIDXTCCAkWgAwIBAgIRAN/W681NtDC8t3zHdUq6owAwDQYJKoZIhvcNAQELBQAw
FjEUMBIGA1UEAwwLdGVhbTI3OS1uZXQwHhcNMjIwNTE4MTk1MzQ1WhcNMjUwNTAy
MTk1MzQ1WjAZMRcwFQYDVQQDDA50ZWFtMjc5LWNsaWVudDCCASIwDQYJKoZIhvcN
AQEBBQADggEPADCCAQoCggEBALlqJzusHmTi9gOz3U7DKv4Je8pCb0hZE8+43wbC
O17/EIaou7Dx9I3+VRUNO0tWfTr56kV6d6N9roiCu+COKkOf90SkaEeHu03KghIW
InqWRQEpl4XXgS7UNrc4x5L1Ke32gQ+sNMnSvYQ4BqtrmLLh+pm/zc0cqO7e/9wW
nsjJ4vmgB5E4QJBE9mJpO0zu0bPJ2qGVJaI5QRyoFYIDgtNvdbaZgB7rS22J5Eha
el85y8Ed2Fh2T9tNLgEF5cwNEwbZ4cBTGztKfncjiZVbvRhMtsR8fo/nEYOb6Hwd
kkwRWbiAlCGmv2Jm89oNyiv8QAD1KIaaCvcRqimcHRbl9JUCAwEAAaOBojCBnzAJ
BgNVHRMEAjAAMB0GA1UdDgQWBBR4Mt9Qy/DaOWPrWx1w+7VREQg/8zBRBgNVHSME
SjBIgBQDx6AfHuUwJpax3zpfrI5q7VTvc6EapBgwFjEUMBIGA1UEAwwLdGVhbTI3
OS1uZXSCFBXfXaRYdd949t+wb8YY/5EwPuWtMBMGA1UdJQQMMAoGCCsGAQUFBwMC
MAsGA1UdDwQEAwIHgDANBgkqhkiG9w0BAQsFAAOCAQEAZvU3qn4tZvbI97ShSInL
DCvbWQ4nYe7ERTsEBbuopHLTIhtbMCdFKQu4y7XwfnXS+h9AGaudfteIwe0nkKJ0
r/AYbdohA9xeTpEfhTV/KBr/WvtylcEMRfufG0MTnFaZeQCgSEtg0gNJx28ok9MJ
F+8oB4ZWLRlFTT0+2NWglF2HFXFhKt1Rb0za2wLAkgnGwOMqP6kqU1T846EOdGCv
if6kTJlKa93gAXj4CfNv67A/BRVUNM78B/cvV4r3SO/BlMQsaXR8UKCCQVsgGuqf
xgzsjF8pf5MoDDJ7GQvtTOzG3yAZCG6NECj8x+B/GaS7WCfX+4MlzUtHm4oZVLXo
Ww==
-----END CERTIFICATE-----
