Certificate:
    Data:
        Version: 3 (0x2)
        Serial Number:
            01:f1:01:f0:c9:fe:71:dc:89:ba:44:ed:c3:b1:24:8d
        Signature Algorithm: sha256WithRSAEncryption
        Issuer: CN=team5-net
        Validity
            Not Before: May 18 13:58:30 2022 GMT
            Not After : May  2 13:58:30 2025 GMT
        Subject: CN=team5-client
        Subject Public Key Info:
            Public Key Algorithm: rsaEncryption
                RSA Public-Key: (2048 bit)
                Modulus:
                    00:b7:0d:81:01:6e:79:19:11:80:41:fd:34:54:44:
                    8c:bf:8a:65:95:77:a4:e3:7f:d3:e0:74:0d:a7:ff:
                    f9:87:99:e2:d7:84:2a:52:da:b1:16:85:37:32:af:
                    78:bb:f6:76:8f:23:83:e3:88:66:87:d7:c3:80:f5:
                    fa:b5:28:c1:3c:ba:ef:b9:73:9a:b2:8b:97:40:a6:
                    fe:1f:95:fb:a7:a9:ef:f8:d8:e1:99:53:97:31:bc:
                    1f:70:ce:f5:60:ca:1c:61:fa:0f:87:1b:8f:88:a8:
                    7e:4a:93:39:84:ea:54:1f:e1:db:7a:03:aa:f2:88:
                    d0:ae:01:88:91:fa:4e:9a:ec:9c:6e:43:b1:d6:2b:
                    a8:a4:82:65:d1:bc:d9:ba:c2:5b:2a:a2:64:44:29:
                    c7:df:4f:68:38:cd:cb:0a:98:f3:4d:46:2e:33:2f:
                    91:aa:30:75:3d:d2:9c:55:32:62:af:5f:16:e9:4c:
                    44:36:f2:26:ce:bf:cf:dc:73:3e:6b:be:2f:1e:74:
                    f7:92:ee:42:61:be:15:c3:d3:76:a2:c3:f6:03:d1:
                    9e:ed:63:f8:0d:55:44:c6:e6:da:1c:fb:bc:67:1b:
                    12:ce:38:18:31:06:0b:a2:84:ed:af:25:e4:58:03:
                    ee:71:dc:c1:c5:af:e7:e3:5e:2b:ad:f4:f8:ef:83:
                    3a:f7
                Exponent: 65537 (0x10001)
        X509v3 extensions:
            X509v3 Basic Constraints: 
                CA:FALSE
            X509v3 Subject Key Identifier: 
                C4:CB:88:46:57:36:95:6A:B6:1C:9F:D4:74:6B:76:2A:F5:D2:E3:DE
            X509v3 Authority Key Identifier: 
                keyid:5F:92:5D:EA:8F:DE:47:AB:44:9C:AB:6E:8B:1B:3B:56:A8:4B:15:76
                DirName:/CN=team5-net
                serial:27:82:F8:FA:89:59:E5:7A:14:2A:EC:69:F6:D8:CF:75:C3:80:7D:88

            X509v3 Extended Key Usage: 
                TLS Web Client Authentication
            X509v3 Key Usage: 
                Digital Signature
    Signature Algorithm: sha256WithRSAEncryption
         04:f2:b5:f1:f2:2e:ef:a8:8a:1b:61:1d:9c:b5:13:ad:1b:9c:
         5b:06:54:1c:06:01:97:9e:ab:24:a8:7b:d7:47:88:44:b7:63:
         01:a1:bc:10:a8:08:9f:15:12:bf:af:2e:0d:26:66:00:69:a1:
         84:6a:58:30:30:f6:34:d9:41:30:79:94:2e:ff:28:ba:7c:f3:
         8a:ed:ec:92:90:f8:10:15:a1:34:22:13:78:d0:3f:2d:9b:de:
         e0:2b:77:49:b8:83:7d:f9:10:f9:2b:54:6a:ca:15:d7:a4:42:
         a9:66:a0:7b:82:0a:58:65:a3:f5:81:bd:79:03:2b:97:46:a6:
         18:ec:3f:f4:83:2b:cb:e6:a8:cc:c2:1c:5b:af:9c:66:5d:81:
         68:74:fb:cb:b7:65:4a:de:ff:b6:c4:9a:65:db:3e:80:ba:ae:
         be:da:b2:a7:74:d0:f4:e8:b6:32:98:3d:7d:40:3c:2e:39:f9:
         35:97:d3:62:48:f4:be:c6:c5:fc:91:16:62:2b:67:bf:24:fd:
         64:3d:f3:08:bb:49:40:27:05:26:7f:c4:bd:04:85:30:4f:cb:
         dc:39:97:74:6b:20:65:ae:9b:57:df:d0:0f:3e:d5:51:18:c2:
         58:7e:4b:3d:e3:e3:9c:98:b1:26:93:a8:ac:fb:52:02:af:8d:
         bc:9d:ee:4e
-----BEGIN CERTIFICATE-----
MIIDVjCCAj6gAwIBAgIQAfEB8Mn+cdyJukTtw7EkjTANBgkqhkiG9w0BAQsFADAU
MRIwEAYDVQQDDAl0ZWFtNS1uZXQwHhcNMjIwNTE4MTM1ODMwWhcNMjUwNTAyMTM1
ODMwWjAXMRUwEwYDVQQDDAx0ZWFtNS1jbGllbnQwggEiMA0GCSqGSIb3DQEBAQUA
A4IBDwAwggEKAoIBAQC3DYEBbnkZEYBB/TRURIy/imWVd6Tjf9PgdA2n//mHmeLX
hCpS2rEWhTcyr3i79naPI4PjiGaH18OA9fq1KME8uu+5c5qyi5dApv4flfunqe/4
2OGZU5cxvB9wzvVgyhxh+g+HG4+IqH5KkzmE6lQf4dt6A6ryiNCuAYiR+k6a7Jxu
Q7HWK6ikgmXRvNm6wlsqomREKcffT2g4zcsKmPNNRi4zL5GqMHU90pxVMmKvXxbp
TEQ28ibOv8/ccz5rvi8edPeS7kJhvhXD03aiw/YD0Z7tY/gNVUTG5toc+7xnGxLO
OBgxBguihO2vJeRYA+5x3MHFr+fjXiut9Pjvgzr3AgMBAAGjgaAwgZ0wCQYDVR0T
BAIwADAdBgNVHQ4EFgQUxMuIRlc2lWq2HJ/UdGt2KvXS494wTwYDVR0jBEgwRoAU
X5Jd6o/eR6tEnKtuixs7VqhLFXahGKQWMBQxEjAQBgNVBAMMCXRlYW01LW5ldIIU
J4L4+olZ5XoUKuxp9tjPdcOAfYgwEwYDVR0lBAwwCgYIKwYBBQUHAwIwCwYDVR0P
BAQDAgeAMA0GCSqGSIb3DQEBCwUAA4IBAQAE8rXx8i7vqIobYR2ctROtG5xbBlQc
BgGXnqskqHvXR4hEt2MBobwQqAifFRK/ry4NJmYAaaGEalgwMPY02UEweZQu/yi6
fPOK7eySkPgQFaE0IhN40D8tm97gK3dJuIN9+RD5K1RqyhXXpEKpZqB7ggpYZaP1
gb15AyuXRqYY7D/0gyvL5qjMwhxbr5xmXYFodPvLt2VK3v+2xJpl2z6Auq6+2rKn
dND06LYymD19QDwuOfk1l9NiSPS+xsX8kRZiK2e/JP1kPfMIu0lAJwUmf8S9BIUw
T8vcOZd0ayBlrptX39APPtVRGMJYfks94+OcmLEmk6is+1ICr428ne5O
-----END CERTIFICATE-----
