Certificate:
    Data:
        Version: 3 (0x2)
        Serial Number:
            5b:83:68:b3:6c:c6:eb:6c:61:4e:9d:8d:2a:e4:8c:e9
        Signature Algorithm: sha256WithRSAEncryption
        Issuer: CN=team426-net
        Validity
            Not Before: May 18 21:05:48 2022 GMT
            Not After : May  2 21:05:48 2025 GMT
        Subject: CN=team426-server
        Subject Public Key Info:
            Public Key Algorithm: rsaEncryption
                RSA Public-Key: (2048 bit)
                Modulus:
                    00:99:2c:1b:2e:45:05:42:67:56:7e:8b:b5:cd:c7:
                    5b:07:dc:20:9f:f8:ad:4f:43:d7:40:e1:18:41:0b:
                    99:6b:8a:ba:e9:e8:a3:4d:e1:fc:b0:d3:79:e3:41:
                    ef:8b:a3:67:93:47:82:46:a5:b4:9f:6c:2c:46:b2:
                    4d:39:e3:32:bf:41:96:3c:f1:f6:01:d3:b4:b4:3d:
                    5f:3b:9e:cf:57:2f:b5:de:e0:3d:42:39:7f:18:e5:
                    71:7d:2f:2e:90:8b:0d:cc:2d:d5:ed:95:1c:7d:a9:
                    25:12:f4:39:fe:53:38:48:87:6c:5d:aa:46:5a:8b:
                    61:16:ca:a6:3d:e4:15:6b:32:84:36:e0:55:8a:a8:
                    e4:3c:eb:22:bf:63:f6:6b:ff:d0:a7:55:3a:8d:13:
                    9d:1b:ba:54:a3:ca:71:71:16:07:69:d1:64:b9:c5:
                    6d:6b:20:98:93:77:aa:ef:83:46:4d:95:d3:66:a9:
                    22:25:a5:0b:a6:67:ca:9f:46:7f:1d:26:7f:28:f0:
                    c0:83:f1:3b:5c:fb:42:d2:c8:49:0d:cd:a5:e2:26:
                    d6:e5:90:2c:c2:c2:f0:a8:89:1b:49:4b:c5:e1:6e:
                    55:51:78:39:a6:a6:ba:92:d5:c8:b7:6c:54:03:d2:
                    50:fe:e9:33:4c:92:c0:86:14:31:44:fb:ae:38:f3:
                    43:c9
                Exponent: 65537 (0x10001)
        X509v3 extensions:
            X509v3 Basic Constraints: 
                CA:FALSE
            X509v3 Subject Key Identifier: 
                24:B4:F1:8F:4E:6D:87:86:9B:A0:21:B4:99:C2:81:90:14:AE:92:73
            X509v3 Authority Key Identifier: 
                keyid:DF:2C:6D:63:73:C2:76:AA:78:B0:E5:5E:22:80:CE:55:80:0E:93:A3
                DirName:/CN=team426-net
                serial:61:17:C2:21:E2:DA:B3:BA:C0:31:DC:A0:16:25:3B:1E:B4:53:43:81

            X509v3 Extended Key Usage: 
                TLS Web Server Authentication
            X509v3 Key Usage: 
                Digital Signature, Key Encipherment
            X509v3 Subject Alternative Name: 
                DNS:team426-server
    Signature Algorithm: sha256WithRSAEncryption
         94:0e:13:8f:21:14:4c:84:fe:73:5a:e0:0f:97:58:8c:73:62:
         cd:13:6c:b0:59:49:9d:9d:d0:7b:54:99:38:1c:8f:ea:19:66:
         f6:fd:08:2e:ca:c2:e4:7e:6b:8c:61:d7:ec:9a:60:0e:22:fe:
         24:4f:ef:19:23:c1:24:12:76:8e:c7:79:39:fb:0c:c6:f5:6c:
         1a:3a:d3:96:02:c1:a5:d7:aa:a2:25:af:e9:3c:3a:e1:f9:51:
         69:a5:e8:d0:f5:3b:ac:0a:27:c3:0f:b6:c0:db:83:6a:d4:1d:
         0e:7c:d6:f8:ae:70:07:bf:bf:58:47:21:1f:64:d3:2f:ef:1f:
         ff:56:52:7e:70:28:c4:ba:b9:28:4e:1c:3f:2b:4f:54:63:b3:
         4d:5c:d1:e7:a9:1c:e7:42:a7:1f:b4:41:b9:6c:1e:db:ee:7d:
         be:39:d9:6d:31:42:32:4f:31:dc:08:d3:34:c5:54:8b:14:ba:
         69:2d:53:69:63:df:f5:a9:5b:c4:5a:07:21:b0:8f:e2:6f:22:
         59:24:c2:50:05:13:28:51:1a:d5:b5:23:2a:ad:92:b5:ee:34:
         b1:c4:00:bb:85:96:88:5b:d4:d5:1e:0e:cf:37:37:04:10:8a:
         49:a6:79:40:ca:f2:f8:6b:a6:87:a9:bc:f8:6a:e0:17:88:d9:
         96:34:89:44
-----BEGIN CERTIFICATE-----
MIIDdzCCAl+gAwIBAgIQW4Nos2zG62xhTp2NKuSM6TANBgkqhkiG9w0BAQsFADAW
MRQwEgYDVQQDDAt0ZWFtNDI2LW5ldDAeFw0yMjA1MTgyMTA1NDhaFw0yNTA1MDIy
MTA1NDhaMBkxFzAVBgNVBAMMDnRlYW00MjYtc2VydmVyMIIBIjANBgkqhkiG9w0B
AQEFAAOCAQ8AMIIBCgKCAQEAmSwbLkUFQmdWfou1zcdbB9wgn/itT0PXQOEYQQuZ
a4q66eijTeH8sNN540Hvi6Nnk0eCRqW0n2wsRrJNOeMyv0GWPPH2AdO0tD1fO57P
Vy+13uA9Qjl/GOVxfS8ukIsNzC3V7ZUcfaklEvQ5/lM4SIdsXapGWothFsqmPeQV
azKENuBViqjkPOsiv2P2a//Qp1U6jROdG7pUo8pxcRYHadFkucVtayCYk3eq74NG
TZXTZqkiJaULpmfKn0Z/HSZ/KPDAg/E7XPtC0shJDc2l4ibW5ZAswsLwqIkbSUvF
4W5VUXg5pqa6ktXIt2xUA9JQ/ukzTJLAhhQxRPuuOPNDyQIDAQABo4G9MIG6MAkG
A1UdEwQCMAAwHQYDVR0OBBYEFCS08Y9ObYeGm6AhtJnCgZAUrpJzMFEGA1UdIwRK
MEiAFN8sbWNzwnaqeLDlXiKAzlWADpOjoRqkGDAWMRQwEgYDVQQDDAt0ZWFtNDI2
LW5ldIIUYRfCIeLas7rAMdygFiU7HrRTQ4EwEwYDVR0lBAwwCgYIKwYBBQUHAwEw
CwYDVR0PBAQDAgWgMBkGA1UdEQQSMBCCDnRlYW00MjYtc2VydmVyMA0GCSqGSIb3
DQEBCwUAA4IBAQCUDhOPIRRMhP5zWuAPl1iMc2LNE2ywWUmdndB7VJk4HI/qGWb2
/QguysLkfmuMYdfsmmAOIv4kT+8ZI8EkEnaOx3k5+wzG9WwaOtOWAsGl16qiJa/p
PDrh+VFppejQ9TusCifDD7bA24Nq1B0OfNb4rnAHv79YRyEfZNMv7x//VlJ+cCjE
urkoThw/K09UY7NNXNHnqRznQqcftEG5bB7b7n2+OdltMUIyTzHcCNM0xVSLFLpp
LVNpY9/1qVvEWgchsI/ibyJZJMJQBRMoURrVtSMqrZK17jSxxAC7hZaIW9TVHg7P
NzcEEIpJpnlAyvL4a6aHqbz4auAXiNmWNIlE
-----END CERTIFICATE-----
