Certificate:
    Data:
        Version: 3 (0x2)
        Serial Number:
            de:43:24:21:4d:81:4d:7c:98:da:de:4c:0a:d9:5e
        Signature Algorithm: sha256WithRSAEncryption
        Issuer: CN=team118-net
        Validity
            Not Before: May 18 14:58:29 2022 GMT
            Not After : May  2 14:58:29 2025 GMT
        Subject: CN=team118-server
        Subject Public Key Info:
            Public Key Algorithm: rsaEncryption
                RSA Public-Key: (2048 bit)
                Modulus:
                    00:c9:58:b6:54:cc:2a:53:3f:0d:11:9a:d4:35:39:
                    b4:6a:6d:64:1c:bd:09:a9:e0:93:52:ef:ee:47:ef:
                    e8:bc:1f:b9:41:5f:5c:3c:8e:29:9b:fb:38:35:42:
                    f0:41:6e:c2:4c:82:39:55:f9:93:c7:c9:fa:3f:3c:
                    98:1b:44:b0:df:6a:76:64:eb:f0:7a:0b:69:e6:12:
                    f4:2c:de:90:8f:c7:a2:68:bf:94:cf:0e:ce:ca:c6:
                    6e:e7:bf:bc:4b:98:a0:88:63:ec:2b:91:fe:52:c8:
                    4b:f3:aa:7b:55:27:3c:76:f0:d3:10:ce:a3:ff:7c:
                    5f:a6:6d:a4:66:34:09:27:51:1f:9f:0f:6f:d3:18:
                    c4:3b:8b:7b:80:5f:58:a4:2b:e9:a8:5f:dd:f4:64:
                    2e:a6:9b:9b:20:ed:e9:ab:8b:2d:ee:59:34:7c:f5:
                    fa:79:16:87:79:f7:10:8a:fd:f8:51:50:ec:26:40:
                    ab:21:46:61:e5:18:36:16:c8:ed:00:72:7f:de:3e:
                    18:46:9e:b8:18:ad:32:aa:4a:84:2c:0d:74:77:d9:
                    39:03:16:56:c3:5f:d2:08:52:4a:6a:69:21:97:97:
                    7f:e9:9c:8e:6b:97:95:57:4c:55:8f:1f:76:39:dc:
                    00:6d:f0:dc:43:7e:b2:9b:d2:06:68:a5:db:6e:ac:
                    51:55
                Exponent: 65537 (0x10001)
        X509v3 extensions:
            X509v3 Basic Constraints: 
                CA:FALSE
            X509v3 Subject Key Identifier: 
                F1:0A:F9:07:DB:2C:E9:E6:29:DB:84:A9:6C:FB:FB:F5:5B:56:3E:F2
            X509v3 Authority Key Identifier: 
                keyid:B9:A5:DB:FA:58:D4:29:A1:BD:F1:C1:ED:D1:E4:C6:F8:E8:B6:0F:73
                DirName:/CN=team118-net
                serial:36:F4:9A:66:B0:04:C5:40:4C:17:CF:EB:D3:C3:90:73:72:E0:5D:CB

            X509v3 Extended Key Usage: 
                TLS Web Server Authentication
            X509v3 Key Usage: 
                Digital Signature, Key Encipherment
            X509v3 Subject Alternative Name: 
                DNS:team118-server
    Signature Algorithm: sha256WithRSAEncryption
         02:fa:c6:77:ec:48:75:32:0e:db:a3:c0:ac:7d:19:29:2d:09:
         36:7d:41:b3:a9:0e:3e:50:c8:12:52:59:f9:52:ac:33:c6:93:
         bb:23:92:1e:55:e7:67:e2:e1:6a:83:54:98:93:f7:6b:da:04:
         fa:e2:5d:07:89:db:2c:3a:07:f9:c7:85:a2:85:d7:e0:c6:d7:
         ee:52:f7:f3:38:dc:11:55:cd:bd:0e:15:c8:35:af:51:dd:53:
         95:9a:0d:ff:03:f9:c5:29:f4:d6:e2:d1:65:9f:db:f0:df:bd:
         aa:05:d5:1e:9d:ea:1d:5e:07:29:7e:1f:18:9f:3d:32:11:57:
         a9:5a:b9:37:22:d9:1e:38:79:e5:b1:96:6b:fd:bd:be:0e:31:
         99:88:d0:37:ff:25:e3:90:f6:b5:4b:88:ca:0a:72:89:f4:72:
         51:01:7b:7f:c2:06:44:5c:ff:ef:d8:14:2e:48:dc:a4:75:08:
         b9:a1:66:d6:54:08:d6:59:8d:9a:e8:d1:5d:be:10:04:34:4c:
         d6:06:4d:9a:6d:fc:6f:09:a5:97:23:8f:71:ff:77:23:26:e6:
         c9:d2:64:7d:69:fd:c5:69:81:35:10:dc:08:ce:85:6f:9d:6e:
         0d:6b:5a:5e:98:61:88:ed:8f:03:c7:dd:ce:ed:8d:24:20:60:
         bf:10:1f:63
-----BEGIN CERTIFICATE-----
MIIDdzCCAl+gAwIBAgIQAN5DJCFNgU18mNreTArZXjANBgkqhkiG9w0BAQsFADAW
MRQwEgYDVQQDDAt0ZWFtMTE4LW5ldDAeFw0yMjA1MTgxNDU4MjlaFw0yNTA1MDIx
NDU4MjlaMBkxFzAVBgNVBAMMDnRlYW0xMTgtc2VydmVyMIIBIjANBgkqhkiG9w0B
AQEFAAOCAQ8AMIIBCgKCAQEAyVi2VMwqUz8NEZrUNTm0am1kHL0JqeCTUu/uR+/o
vB+5QV9cPI4pm/s4NULwQW7CTII5VfmTx8n6PzyYG0Sw32p2ZOvwegtp5hL0LN6Q
j8eiaL+Uzw7OysZu57+8S5igiGPsK5H+UshL86p7VSc8dvDTEM6j/3xfpm2kZjQJ
J1Efnw9v0xjEO4t7gF9YpCvpqF/d9GQuppubIO3pq4st7lk0fPX6eRaHefcQiv34
UVDsJkCrIUZh5Rg2FsjtAHJ/3j4YRp64GK0yqkqELA10d9k5AxZWw1/SCFJKamkh
l5d/6ZyOa5eVV0xVjx92OdwAbfDcQ36ym9IGaKXbbqxRVQIDAQABo4G9MIG6MAkG
A1UdEwQCMAAwHQYDVR0OBBYEFPEK+QfbLOnmKduEqWz7+/VbVj7yMFEGA1UdIwRK
MEiAFLml2/pY1CmhvfHB7dHkxvjotg9zoRqkGDAWMRQwEgYDVQQDDAt0ZWFtMTE4
LW5ldIIUNvSaZrAExUBMF8/r08OQc3LgXcswEwYDVR0lBAwwCgYIKwYBBQUHAwEw
CwYDVR0PBAQDAgWgMBkGA1UdEQQSMBCCDnRlYW0xMTgtc2VydmVyMA0GCSqGSIb3
DQEBCwUAA4IBAQAC+sZ37Eh1Mg7bo8CsfRkpLQk2fUGzqQ4+UMgSUln5UqwzxpO7
I5IeVedn4uFqg1SYk/dr2gT64l0HidssOgf5x4WihdfgxtfuUvfzONwRVc29DhXI
Na9R3VOVmg3/A/nFKfTW4tFln9vw372qBdUeneodXgcpfh8Ynz0yEVepWrk3Itke
OHnlsZZr/b2+DjGZiNA3/yXjkPa1S4jKCnKJ9HJRAXt/wgZEXP/v2BQuSNykdQi5
oWbWVAjWWY2a6NFdvhAENEzWBk2abfxvCaWXI49x/3cjJubJ0mR9af3FaYE1ENwI
zoVvnW4Na1pemGGI7Y8Dx93O7Y0kIGC/EB9j
-----END CERTIFICATE-----
