Certificate:
    Data:
        Version: 3 (0x2)
        Serial Number:
            16:c2:cb:d2:76:3e:97:ad:48:00:1b:3d:19:18:d2:cf
        Signature Algorithm: sha256WithRSAEncryption
        Issuer: CN=team665-net
        Validity
            Not Before: May 18 23:26:12 2022 GMT
            Not After : May  2 23:26:12 2025 GMT
        Subject: CN=team665-client
        Subject Public Key Info:
            Public Key Algorithm: rsaEncryption
                RSA Public-Key: (2048 bit)
                Modulus:
                    00:ad:25:04:3c:ef:fb:e4:79:c3:22:66:a8:91:87:
                    bc:45:a2:ce:40:78:48:2b:25:c3:3c:aa:e8:39:4e:
                    99:ee:38:a3:a2:58:b4:5b:a2:7f:9e:7a:0a:d4:87:
                    25:60:d7:c2:6b:8e:70:62:1c:c3:f7:3a:a1:4f:b0:
                    52:0b:9d:dc:9a:0f:12:21:2e:c6:0f:06:41:55:0b:
                    42:33:b8:d3:17:f5:a4:8a:db:19:50:46:61:b5:5e:
                    6f:69:01:0f:91:b8:ae:d3:ad:26:22:9e:dc:a5:d1:
                    5a:43:1b:8d:bb:e4:44:4f:b0:fb:82:05:e1:96:13:
                    10:1a:6e:cd:98:3a:de:54:61:59:76:7d:05:7a:81:
                    d6:ff:ad:12:64:15:9b:54:29:0a:2e:f8:d0:bd:6c:
                    35:57:88:b8:90:14:d7:91:d1:fa:ac:d7:bb:85:2a:
                    6d:6c:41:16:68:16:91:a5:42:9a:01:61:be:5f:79:
                    00:d4:71:65:39:29:bd:e7:df:d4:3b:03:d0:c3:ef:
                    e5:23:8f:6d:b6:e8:50:12:8c:e1:7b:35:26:1c:f0:
                    f3:17:62:15:8e:fd:03:0c:6b:8b:bc:05:8e:51:8d:
                    fb:ca:12:f9:49:ee:4e:d1:e9:bd:db:ac:e6:f9:c0:
                    ba:6f:75:b5:ca:8c:f4:0f:55:5b:ac:27:b0:10:62:
                    ba:59
                Exponent: 65537 (0x10001)
        X509v3 extensions:
            X509v3 Basic Constraints: 
                CA:FALSE
            X509v3 Subject Key Identifier: 
                39:56:2B:0C:64:39:1F:A1:C9:4D:E3:68:FB:F4:2F:15:41:52:7E:10
            X509v3 Authority Key Identifier: 
                keyid:9B:16:3E:E1:69:A9:F9:6A:84:F8:64:BC:B9:1B:00:AF:28:71:FD:36
                DirName:/CN=team665-net
                serial:3C:A9:48:77:AF:3C:C6:AB:AD:A1:43:6B:7A:E5:95:08:FE:A6:D0:99

            X509v3 Extended Key Usage: 
                TLS Web Client Authentication
            X509v3 Key Usage: 
                Digital Signature
    Signature Algorithm: sha256WithRSAEncryption
         47:a6:63:93:8f:24:ce:1a:02:60:50:a4:56:36:9f:59:3b:6d:
         8d:57:d6:09:01:7b:06:e6:fe:e9:89:f0:c6:22:5d:6c:06:b3:
         fd:be:99:72:09:1a:2a:6a:0d:b2:37:32:63:d1:1a:a3:3c:50:
         3b:d8:fc:ff:b6:96:9c:63:b0:94:67:93:1e:d0:12:ce:b9:a4:
         2c:21:f8:cd:38:98:0c:28:14:f8:12:89:4b:90:91:4b:2b:53:
         57:13:4a:1f:01:37:fc:af:4a:97:4c:04:49:57:e5:05:d2:da:
         01:39:e6:d0:52:48:c0:f9:36:11:7d:4e:26:67:fa:b4:2c:bc:
         d9:7f:43:e1:07:88:65:96:e6:28:d7:09:ab:ac:6c:31:41:4e:
         26:49:9e:50:75:13:96:c1:89:b3:42:46:1c:cc:62:4c:ea:72:
         af:bd:a4:15:5c:b7:6d:71:0b:24:76:4e:5c:15:e4:36:30:25:
         0c:32:2a:f1:13:07:e8:0e:84:94:f4:e6:03:7e:cd:de:69:d6:
         ea:0a:1e:ba:81:11:3a:f0:10:fa:0c:e6:7c:f1:64:85:74:52:
         70:ee:bc:d5:21:ad:f0:9e:4b:88:54:6e:6f:7f:c2:e8:b3:bd:
         c8:70:73:f1:12:66:b0:5f:b9:bd:f1:66:d9:c9:04:2b:92:52:
         be:17:a9:01
-----BEGIN CERTIFICATE-----
MIIDXDCCAkSgAwIBAgIQFsLL0nY+l61IABs9GRjSzzANBgkqhkiG9w0BAQsFADAW
MRQwEgYDVQQDDAt0ZWFtNjY1LW5ldDAeFw0yMjA1MTgyMzI2MTJaFw0yNTA1MDIy
MzI2MTJaMBkxFzAVBgNVBAMMDnRlYW02NjUtY2xpZW50MIIBIjANBgkqhkiG9w0B
AQEFAAOCAQ8AMIIBCgKCAQEArSUEPO/75HnDImaokYe8RaLOQHhIKyXDPKroOU6Z
7jijoli0W6J/nnoK1IclYNfCa45wYhzD9zqhT7BSC53cmg8SIS7GDwZBVQtCM7jT
F/WkitsZUEZhtV5vaQEPkbiu060mIp7cpdFaQxuNu+RET7D7ggXhlhMQGm7NmDre
VGFZdn0FeoHW/60SZBWbVCkKLvjQvWw1V4i4kBTXkdH6rNe7hSptbEEWaBaRpUKa
AWG+X3kA1HFlOSm959/UOwPQw+/lI49ttuhQEozhezUmHPDzF2IVjv0DDGuLvAWO
UY37yhL5Se5O0em926zm+cC6b3W1yoz0D1VbrCewEGK6WQIDAQABo4GiMIGfMAkG
A1UdEwQCMAAwHQYDVR0OBBYEFDlWKwxkOR+hyU3jaPv0LxVBUn4QMFEGA1UdIwRK
MEiAFJsWPuFpqflqhPhkvLkbAK8ocf02oRqkGDAWMRQwEgYDVQQDDAt0ZWFtNjY1
LW5ldIIUPKlId688xqutoUNreuWVCP6m0JkwEwYDVR0lBAwwCgYIKwYBBQUHAwIw
CwYDVR0PBAQDAgeAMA0GCSqGSIb3DQEBCwUAA4IBAQBHpmOTjyTOGgJgUKRWNp9Z
O22NV9YJAXsG5v7pifDGIl1sBrP9vplyCRoqag2yNzJj0RqjPFA72Pz/tpacY7CU
Z5Me0BLOuaQsIfjNOJgMKBT4EolLkJFLK1NXE0ofATf8r0qXTARJV+UF0toBOebQ
UkjA+TYRfU4mZ/q0LLzZf0PhB4hlluYo1wmrrGwxQU4mSZ5QdROWwYmzQkYczGJM
6nKvvaQVXLdtcQskdk5cFeQ2MCUMMirxEwfoDoSU9OYDfs3eadbqCh66gRE68BD6
DOZ88WSFdFJw7rzVIa3wnkuIVG5vf8Los73IcHPxEmawX7m98WbZyQQrklK+F6kB
-----END CERTIFICATE-----
