Certificate:
    Data:
        Version: 3 (0x2)
        Serial Number:
            5c:2b:ea:1f:9e:d4:f6:bc:09:51:40:41:2e:eb:72:06
        Signature Algorithm: sha256WithRSAEncryption
        Issuer: CN=team665-net
        Validity
            Not Before: May 18 23:26:12 2022 GMT
            Not After : May  2 23:26:12 2025 GMT
        Subject: CN=team665-server
        Subject Public Key Info:
            Public Key Algorithm: rsaEncryption
                RSA Public-Key: (2048 bit)
                Modulus:
                    00:b2:f2:06:64:6c:ff:91:ee:72:48:fa:0b:c9:d5:
                    e5:6c:15:e2:63:3a:ad:f2:8d:bc:35:50:76:b2:ba:
                    0c:d7:d2:2e:67:cb:b5:58:1c:c7:c6:b2:f0:28:f0:
                    a4:a7:71:da:b2:b8:1f:ea:a3:a4:00:24:68:53:9d:
                    c1:c6:cb:88:29:a5:c1:1a:e4:b6:2b:e6:fd:4b:2e:
                    06:2e:8f:2a:e6:cd:e6:e3:6a:c4:52:25:87:8a:8b:
                    c5:70:bf:7c:6e:7b:a2:5e:b6:6e:c1:1d:0b:fd:1a:
                    44:b9:f6:2e:e7:a4:6c:71:f2:be:4b:00:d7:e1:0d:
                    41:98:1a:e9:72:4f:3a:fe:5b:8d:2b:ba:85:2a:29:
                    39:29:a3:f2:bd:04:05:29:51:7c:89:90:a0:c8:e2:
                    b4:36:c4:b7:6a:77:6c:fa:e8:fa:03:96:59:bc:af:
                    63:aa:4b:62:8f:1a:d0:5b:df:b4:14:b1:bb:93:6f:
                    86:f2:96:03:4a:8e:81:c2:4b:8c:4a:ac:03:52:ab:
                    72:46:be:70:bf:15:4c:8e:73:7d:62:12:c8:e7:83:
                    2d:f9:f2:a6:5e:02:75:07:18:c2:22:92:9d:3c:e0:
                    0b:bd:0b:7c:a4:3f:d8:23:cb:e5:45:3d:20:f3:d1:
                    79:32:9f:26:e8:49:d8:7a:52:43:02:44:ba:1f:19:
                    19:53
                Exponent: 65537 (0x10001)
        X509v3 extensions:
            X509v3 Basic Constraints: 
                CA:FALSE
            X509v3 Subject Key Identifier: 
                86:AA:34:15:2A:9A:09:DB:28:41:AD:B8:25:C9:75:DB:02:E0:57:1D
            X509v3 Authority Key Identifier: 
                keyid:9B:16:3E:E1:69:A9:F9:6A:84:F8:64:BC:B9:1B:00:AF:28:71:FD:36
                DirName:/CN=team665-net
                serial:3C:A9:48:77:AF:3C:C6:AB:AD:A1:43:6B:7A:E5:95:08:FE:A6:D0:99

            X509v3 Extended Key Usage: 
                TLS Web Server Authentication
            X509v3 Key Usage: 
                Digital Signature, Key Encipherment
            X509v3 Subject Alternative Name: 
                DNS:team665-server
    Signature Algorithm: sha256WithRSAEncryption
         05:ee:a0:44:ab:45:04:48:71:1e:b7:1b:49:39:36:01:a9:e7:
         8f:c4:4d:5a:00:74:aa:6c:84:87:ab:92:c0:3f:ee:42:05:9b:
         d6:b1:26:b9:df:aa:79:d2:f6:1b:1c:d0:1d:0f:05:0d:f5:4e:
         01:4b:3a:a3:d6:63:8d:1b:83:b6:8e:26:17:4c:05:04:63:99:
         d8:09:8c:9f:7b:05:07:e5:7c:6d:c5:c3:28:92:d0:f5:3a:14:
         a5:f7:15:35:0f:26:40:6d:9a:73:2c:bc:bc:bc:d5:a8:28:98:
         51:c8:cf:35:61:c9:9c:cf:bf:0b:af:86:72:e6:65:1b:8d:ac:
         fb:5a:ec:e7:30:5c:2b:1f:3e:39:40:fa:73:28:f2:25:dc:39:
         ed:a9:9f:09:e6:04:11:1f:a6:46:18:37:04:53:45:9e:ac:fb:
         d8:98:a2:67:49:f1:c1:d8:f2:2d:44:bb:bc:1d:3e:74:e3:27:
         6e:72:85:42:d2:73:fb:33:ce:cd:1e:47:55:18:a7:64:8a:2b:
         c6:e7:f5:13:fa:21:1c:88:da:cb:11:f3:8a:2f:c2:f2:a3:9d:
         29:46:38:12:a2:70:f1:ae:39:7a:c1:36:6a:ce:67:1a:9b:f9:
         0f:72:3c:76:7c:d6:71:6e:fc:f2:53:58:59:10:09:60:7e:76:
         09:b3:87:12
-----BEGIN CERTIFICATE-----
MIIDdzCCAl+gAwIBAgIQXCvqH57U9rwJUUBBLutyBjANBgkqhkiG9w0BAQsFADAW
MRQwEgYDVQQDDAt0ZWFtNjY1LW5ldDAeFw0yMjA1MTgyMzI2MTJaFw0yNTA1MDIy
MzI2MTJaMBkxFzAVBgNVBAMMDnRlYW02NjUtc2VydmVyMIIBIjANBgkqhkiG9w0B
AQEFAAOCAQ8AMIIBCgKCAQEAsvIGZGz/ke5ySPoLydXlbBXiYzqt8o28NVB2sroM
19IuZ8u1WBzHxrLwKPCkp3Hasrgf6qOkACRoU53BxsuIKaXBGuS2K+b9Sy4GLo8q
5s3m42rEUiWHiovFcL98bnuiXrZuwR0L/RpEufYu56RscfK+SwDX4Q1BmBrpck86
/luNK7qFKik5KaPyvQQFKVF8iZCgyOK0NsS3ands+uj6A5ZZvK9jqktijxrQW9+0
FLG7k2+G8pYDSo6BwkuMSqwDUqtyRr5wvxVMjnN9YhLI54Mt+fKmXgJ1BxjCIpKd
POALvQt8pD/YI8vlRT0g89F5Mp8m6EnYelJDAkS6HxkZUwIDAQABo4G9MIG6MAkG
A1UdEwQCMAAwHQYDVR0OBBYEFIaqNBUqmgnbKEGtuCXJddsC4FcdMFEGA1UdIwRK
MEiAFJsWPuFpqflqhPhkvLkbAK8ocf02oRqkGDAWMRQwEgYDVQQDDAt0ZWFtNjY1
LW5ldIIUPKlId688xqutoUNreuWVCP6m0JkwEwYDVR0lBAwwCgYIKwYBBQUHAwEw
CwYDVR0PBAQDAgWgMBkGA1UdEQQSMBCCDnRlYW02NjUtc2VydmVyMA0GCSqGSIb3
DQEBCwUAA4IBAQAF7qBEq0UESHEetxtJOTYBqeePxE1aAHSqbISHq5LAP+5CBZvW
sSa536p50vYbHNAdDwUN9U4BSzqj1mONG4O2jiYXTAUEY5nYCYyfewUH5XxtxcMo
ktD1OhSl9xU1DyZAbZpzLLy8vNWoKJhRyM81Ycmcz78Lr4Zy5mUbjaz7WuznMFwr
Hz45QPpzKPIl3DntqZ8J5gQRH6ZGGDcEU0WerPvYmKJnSfHB2PItRLu8HT504ydu
coVC0nP7M87NHkdVGKdkiivG5/UT+iEciNrLEfOKL8Lyo50pRjgSonDxrjl6wTZq
zmcam/kPcjx2fNZxbvzyU1hZEAlgfnYJs4cS
-----END CERTIFICATE-----
