Certificate:
    Data:
        Version: 3 (0x2)
        Serial Number:
            f0:5c:cf:d9:fc:31:14:11:ee:2e:91:f8:ff:1e:dd:80
        Signature Algorithm: sha256WithRSAEncryption
        Issuer: CN=team50-net
        Validity
            Not Before: May 18 14:22:12 2022 GMT
            Not After : May  2 14:22:12 2025 GMT
        Subject: CN=team50-client
        Subject Public Key Info:
            Public Key Algorithm: rsaEncryption
                RSA Public-Key: (2048 bit)
                Modulus:
                    00:ed:ce:58:44:dd:20:fb:f2:fa:44:30:f5:f4:42:
                    9b:d5:d9:5d:40:a8:22:57:cd:09:39:97:ad:b0:1f:
                    fa:15:21:3c:c2:ea:7b:3c:7c:5e:ee:d7:24:00:db:
                    ba:c9:a2:fc:36:d3:97:fc:80:00:0c:35:b8:a7:e7:
                    b2:85:7c:14:f5:1d:e4:e7:9a:bf:07:ef:96:62:8a:
                    43:55:81:da:09:cc:c2:50:04:99:4b:43:ac:5c:a5:
                    65:fe:b9:41:38:53:74:88:52:e3:87:30:d4:96:53:
                    c8:b5:6d:b0:12:b4:93:33:52:9a:82:c6:58:b7:06:
                    8e:2f:eb:00:d5:90:68:c6:45:9b:c4:8a:86:73:1b:
                    d4:60:5e:01:80:6a:c5:fe:cd:16:d2:85:f9:d9:9f:
                    54:bd:f7:9b:5a:34:21:ff:00:72:60:da:3a:e2:42:
                    42:72:c1:c6:8b:82:9e:f5:38:c4:6d:15:e2:77:e9:
                    c7:ad:fd:c0:52:dc:46:19:b6:60:d0:c4:af:ee:d2:
                    5d:bd:7c:ee:f8:05:54:e8:a4:2d:3c:ac:5b:e2:fb:
                    18:27:af:bc:7c:f7:f9:7f:29:90:f5:d7:0f:62:80:
                    41:f2:3c:78:b4:ef:48:21:cc:f1:46:66:c7:b1:90:
                    cb:e9:6f:f7:0a:ec:1f:9d:dc:57:90:0e:7b:35:25:
                    ac:17
                Exponent: 65537 (0x10001)
        X509v3 extensions:
            X509v3 Basic Constraints: 
                CA:FALSE
            X509v3 Subject Key Identifier: 
                AE:99:47:AC:E2:F6:26:7C:41:D6:EF:DF:4E:D4:65:CE:06:E2:AF:30
            X509v3 Authority Key Identifier: 
                keyid:34:56:AA:95:18:B5:FA:C2:DC:20:1E:CD:5A:2F:AF:33:18:B2:7D:56
                DirName:/CN=team50-net
                serial:49:5A:76:60:DB:52:98:84:CB:A9:BD:94:33:B2:69:CF:FA:EE:A1:D9

            X509v3 Extended Key Usage: 
                TLS Web Client Authentication
            X509v3 Key Usage: 
                Digital Signature
    Signature Algorithm: sha256WithRSAEncryption
         69:97:fa:23:52:db:d7:6f:a1:35:50:6d:36:5f:4b:bf:3a:d1:
         20:10:c9:1b:03:bc:d9:d2:94:76:f9:fd:b8:bd:89:c0:ea:de:
         90:c0:16:04:a4:d4:e0:10:89:f4:d1:eb:05:1c:87:91:63:51:
         78:5a:44:54:d6:06:ee:5f:08:00:12:fd:6c:e5:20:94:d4:ae:
         c7:ab:d0:24:d6:f7:06:a9:00:e9:59:72:a7:b0:96:f5:e0:37:
         50:a2:bd:c6:9c:bc:43:69:cd:f7:90:e9:12:a2:01:22:8b:2b:
         b9:55:6b:e4:8e:99:43:43:62:69:c2:a8:f4:e6:d5:c6:6c:11:
         fa:68:54:d2:d2:83:89:d3:b7:11:3c:ad:4b:2b:57:52:9a:85:
         eb:95:35:0b:a3:50:35:2a:25:93:f1:f0:09:1c:a2:a5:82:5e:
         7d:78:1f:79:01:3b:ff:15:d9:13:1a:e8:b8:2e:d7:56:23:8c:
         8f:01:6e:47:53:b6:a4:bb:d0:65:6b:6c:df:64:53:e8:ce:05:
         ad:40:db:93:c9:0c:2b:a1:06:b8:e3:c4:d1:5e:e2:c8:84:91:
         b0:90:ad:f0:33:61:2c:97:d0:95:5a:98:02:29:ed:0c:c2:6c:
         b0:55:5e:81:e9:0f:70:64:4a:50:44:40:9b:30:98:2a:4d:60:
         a1:63:a4:b0
-----BEGIN CERTIFICATE-----
MIIDWjCCAkKgAwIBAgIRAPBcz9n8MRQR7i6R+P8e3YAwDQYJKoZIhvcNAQELBQAw
FTETMBEGA1UEAwwKdGVhbTUwLW5ldDAeFw0yMjA1MTgxNDIyMTJaFw0yNTA1MDIx
NDIyMTJaMBgxFjAUBgNVBAMMDXRlYW01MC1jbGllbnQwggEiMA0GCSqGSIb3DQEB
AQUAA4IBDwAwggEKAoIBAQDtzlhE3SD78vpEMPX0QpvV2V1AqCJXzQk5l62wH/oV
ITzC6ns8fF7u1yQA27rJovw205f8gAAMNbin57KFfBT1HeTnmr8H75ZiikNVgdoJ
zMJQBJlLQ6xcpWX+uUE4U3SIUuOHMNSWU8i1bbAStJMzUpqCxli3Bo4v6wDVkGjG
RZvEioZzG9RgXgGAasX+zRbShfnZn1S995taNCH/AHJg2jriQkJywcaLgp71OMRt
FeJ36cet/cBS3EYZtmDQxK/u0l29fO74BVTopC08rFvi+xgnr7x89/l/KZD11w9i
gEHyPHi070ghzPFGZsexkMvpb/cK7B+d3FeQDns1JawXAgMBAAGjgaEwgZ4wCQYD
VR0TBAIwADAdBgNVHQ4EFgQUrplHrOL2JnxB1u/fTtRlzgbirzAwUAYDVR0jBEkw
R4AUNFaqlRi1+sLcIB7NWi+vMxiyfVahGaQXMBUxEzARBgNVBAMMCnRlYW01MC1u
ZXSCFEladmDbUpiEy6m9lDOyac/67qHZMBMGA1UdJQQMMAoGCCsGAQUFBwMCMAsG
A1UdDwQEAwIHgDANBgkqhkiG9w0BAQsFAAOCAQEAaZf6I1Lb12+hNVBtNl9LvzrR
IBDJGwO82dKUdvn9uL2JwOrekMAWBKTU4BCJ9NHrBRyHkWNReFpEVNYG7l8IABL9
bOUglNSux6vQJNb3BqkA6Vlyp7CW9eA3UKK9xpy8Q2nN95DpEqIBIosruVVr5I6Z
Q0NiacKo9ObVxmwR+mhU0tKDidO3ETytSytXUpqF65U1C6NQNSolk/HwCRyipYJe
fXgfeQE7/xXZExrouC7XViOMjwFuR1O2pLvQZWts32RT6M4FrUDbk8kMK6EGuOPE
0V7iyISRsJCt8DNhLJfQlVqYAintDMJssFVegekPcGRKUERAmzCYKk1goWOksA==
-----END CERTIFICATE-----
