Certificate:
    Data:
        Version: 3 (0x2)
        Serial Number:
            fa:fc:e4:1b:61:50:dc:d4:94:4e:bb:d6:a9:e3:9c:b2
        Signature Algorithm: sha256WithRSAEncryption
        Issuer: CN=team50-net
        Validity
            Not Before: May 18 14:22:12 2022 GMT
            Not After : May  2 14:22:12 2025 GMT
        Subject: CN=team50-server
        Subject Public Key Info:
            Public Key Algorithm: rsaEncryption
                RSA Public-Key: (2048 bit)
                Modulus:
                    00:af:2e:ff:4c:14:c9:1d:c5:49:b0:18:39:4b:3c:
                    6b:ac:93:9d:5a:65:73:25:ff:a0:d6:8f:00:33:6f:
                    94:09:4d:ed:c6:b2:2c:7b:38:b5:67:81:43:55:c9:
                    ad:e4:c3:75:1f:6e:44:46:f4:23:74:4b:3b:2e:36:
                    6a:a5:40:c9:c4:8e:18:99:1d:8b:88:db:27:1b:f2:
                    e8:07:ac:f3:f5:1c:f1:df:73:bc:a4:2e:82:d9:e5:
                    d0:44:80:a6:dc:07:54:b7:50:e7:a6:bc:fa:1a:e5:
                    2c:7d:9f:c0:f4:3d:de:50:eb:fc:f0:20:b8:94:ad:
                    f5:65:96:b1:21:53:f4:51:91:18:cc:ea:35:36:e0:
                    20:09:d0:32:19:88:6f:77:85:6c:ff:6c:ad:37:35:
                    20:79:17:10:89:12:8d:59:05:bf:24:81:0d:e7:dd:
                    17:1b:7a:ed:70:0d:1c:e9:a8:e9:52:61:33:3f:18:
                    92:9e:9c:2c:64:9d:dc:59:30:99:7c:62:94:65:a4:
                    09:96:05:4f:6a:22:8d:3d:9f:bf:d0:e6:cd:a1:11:
                    18:77:05:1f:b8:46:91:5e:3a:ad:08:f8:59:0a:b8:
                    07:cc:df:78:9a:ed:7c:d2:72:c8:8e:27:9f:62:59:
                    61:f0:ce:8d:0d:e5:c3:02:ba:13:ee:6e:9b:1e:df:
                    90:5d
                Exponent: 65537 (0x10001)
        X509v3 extensions:
            X509v3 Basic Constraints: 
                CA:FALSE
            X509v3 Subject Key Identifier: 
                5C:37:9C:79:6A:AD:37:E5:9B:33:B3:E0:EB:C4:3D:8F:47:14:46:17
            X509v3 Authority Key Identifier: 
                keyid:34:56:AA:95:18:B5:FA:C2:DC:20:1E:CD:5A:2F:AF:33:18:B2:7D:56
                DirName:/CN=team50-net
                serial:49:5A:76:60:DB:52:98:84:CB:A9:BD:94:33:B2:69:CF:FA:EE:A1:D9

            X509v3 Extended Key Usage: 
                TLS Web Server Authentication
            X509v3 Key Usage: 
                Digital Signature, Key Encipherment
            X509v3 Subject Alternative Name: 
                DNS:team50-server
    Signature Algorithm: sha256WithRSAEncryption
         48:0d:10:78:7a:5b:fc:32:94:42:b7:db:bb:d8:c1:a5:34:84:
         05:a3:ca:4d:68:5a:2c:3f:dc:16:1e:1c:5c:7e:cd:8a:3c:55:
         b7:65:d1:2e:12:e1:c1:be:1e:74:3d:11:ca:4f:14:a7:77:8b:
         62:fe:b1:58:fc:8e:63:af:f6:46:e3:30:f8:b4:0f:77:fa:f8:
         82:38:be:18:d5:e5:ce:8f:8d:0d:5b:ba:12:9c:c2:07:3a:84:
         93:ba:69:9b:c7:ee:e1:f0:2e:5c:62:98:42:0c:d9:68:7c:8a:
         ae:20:36:11:32:b7:4f:68:cc:c6:88:f9:2b:d7:94:4a:0f:e5:
         73:8a:e7:12:dc:0e:b3:d1:f8:56:22:ac:9c:58:57:f2:ee:a3:
         d2:00:b1:89:a1:5e:41:1a:9c:93:e2:8c:fd:a6:83:17:6d:56:
         fa:92:55:be:22:2b:25:40:91:8d:34:da:bb:0f:ee:49:55:03:
         c4:85:7a:fa:8d:af:79:d0:ef:b9:62:4e:21:b6:cd:60:7f:a2:
         6e:45:17:23:07:ec:94:31:3f:91:90:c5:98:41:01:9a:d6:3b:
         12:fc:b2:b0:54:2d:7e:a8:f8:62:52:c6:f1:28:bb:bf:fd:fb:
         89:8d:71:62:81:76:f6:7c:f8:0d:e1:1d:b2:87:71:3b:49:13:
         b1:00:ab:f3
-----BEGIN CERTIFICATE-----
MIIDdDCCAlygAwIBAgIRAPr85BthUNzUlE671qnjnLIwDQYJKoZIhvcNAQELBQAw
FTETMBEGA1UEAwwKdGVhbTUwLW5ldDAeFw0yMjA1MTgxNDIyMTJaFw0yNTA1MDIx
NDIyMTJaMBgxFjAUBgNVBAMMDXRlYW01MC1zZXJ2ZXIwggEiMA0GCSqGSIb3DQEB
AQUAA4IBDwAwggEKAoIBAQCvLv9MFMkdxUmwGDlLPGusk51aZXMl/6DWjwAzb5QJ
Te3Gsix7OLVngUNVya3kw3UfbkRG9CN0SzsuNmqlQMnEjhiZHYuI2ycb8ugHrPP1
HPHfc7ykLoLZ5dBEgKbcB1S3UOemvPoa5Sx9n8D0Pd5Q6/zwILiUrfVllrEhU/RR
kRjM6jU24CAJ0DIZiG93hWz/bK03NSB5FxCJEo1ZBb8kgQ3n3Rcbeu1wDRzpqOlS
YTM/GJKenCxkndxZMJl8YpRlpAmWBU9qIo09n7/Q5s2hERh3BR+4RpFeOq0I+FkK
uAfM33ia7XzScsiOJ59iWWHwzo0N5cMCuhPubpse35BdAgMBAAGjgbswgbgwCQYD
VR0TBAIwADAdBgNVHQ4EFgQUXDeceWqtN+WbM7Pg68Q9j0cURhcwUAYDVR0jBEkw
R4AUNFaqlRi1+sLcIB7NWi+vMxiyfVahGaQXMBUxEzARBgNVBAMMCnRlYW01MC1u
ZXSCFEladmDbUpiEy6m9lDOyac/67qHZMBMGA1UdJQQMMAoGCCsGAQUFBwMBMAsG
A1UdDwQEAwIFoDAYBgNVHREEETAPgg10ZWFtNTAtc2VydmVyMA0GCSqGSIb3DQEB
CwUAA4IBAQBIDRB4elv8MpRCt9u72MGlNIQFo8pNaFosP9wWHhxcfs2KPFW3ZdEu
EuHBvh50PRHKTxSnd4ti/rFY/I5jr/ZG4zD4tA93+viCOL4Y1eXOj40NW7oSnMIH
OoSTummbx+7h8C5cYphCDNlofIquIDYRMrdPaMzGiPkr15RKD+VziucS3A6z0fhW
IqycWFfy7qPSALGJoV5BGpyT4oz9poMXbVb6klW+IislQJGNNNq7D+5JVQPEhXr6
ja950O+5Yk4hts1gf6JuRRcjB+yUMT+RkMWYQQGa1jsS/LKwVC1+qPhiUsbxKLu/
/fuJjXFigXb2fPgN4R2yh3E7SROxAKvz
-----END CERTIFICATE-----
