Certificate:
    Data:
        Version: 3 (0x2)
        Serial Number:
            2e:cb:4d:57:8b:12:36:48:35:6f:6d:ec:c1:01:92:1d
        Signature Algorithm: sha256WithRSAEncryption
        Issuer: CN=team523-net
        Validity
            Not Before: May 18 22:00:20 2022 GMT
            Not After : May  2 22:00:20 2025 GMT
        Subject: CN=team523-client
        Subject Public Key Info:
            Public Key Algorithm: rsaEncryption
                RSA Public-Key: (2048 bit)
                Modulus:
                    00:e3:33:fc:0a:05:0e:2c:0a:36:68:b3:f5:ac:9f:
                    0a:43:2c:59:2c:4b:b8:e9:13:55:4e:31:06:1a:5d:
                    dc:26:2f:6e:0d:e8:3d:c0:68:79:7f:a5:14:58:3f:
                    98:75:e1:34:4c:c4:dc:f3:b3:bf:f8:18:64:2f:34:
                    d1:0d:6b:ee:1c:97:96:42:85:6f:3e:9c:21:cd:0e:
                    0d:09:5b:da:11:89:aa:70:59:8e:88:ad:c9:b3:d0:
                    0d:bb:2a:01:4a:ab:6f:ec:71:27:66:3c:ca:43:ed:
                    72:46:ba:9e:5d:2c:34:a3:dc:10:86:d3:6f:12:85:
                    78:9a:87:ac:27:bf:e4:37:1c:a7:59:77:0a:73:85:
                    fa:da:e8:dc:83:ed:0b:d6:78:71:a5:d6:f8:61:a1:
                    fb:3d:ad:b4:a3:32:a3:26:ea:90:22:b2:16:18:36:
                    f9:8e:35:df:7d:50:b1:a9:8f:15:bb:59:1c:81:c8:
                    90:ab:10:f7:c1:4b:d6:18:42:9e:4f:63:e2:d4:0d:
                    b2:93:1c:f5:58:80:b8:22:80:dc:c1:bb:68:3e:0b:
                    cb:f7:81:1e:26:c3:98:a7:c3:f3:39:58:64:7d:8c:
                    26:29:de:e2:c6:aa:d7:6c:05:66:d3:35:77:0b:e3:
                    46:81:3a:ec:04:84:e6:a3:0f:5e:7d:1d:f9:e7:77:
                    8e:ad
                Exponent: 65537 (0x10001)
        X509v3 extensions:
            X509v3 Basic Constraints: 
                CA:FALSE
            X509v3 Subject Key Identifier: 
                AB:F2:87:DA:CC:EF:54:ED:79:6A:81:AA:48:ED:E8:63:5E:2D:FD:47
            X509v3 Authority Key Identifier: 
                keyid:5E:F7:51:6D:8D:20:FE:80:4F:66:B8:35:A9:B3:9F:67:97:0D:BF:7C
                DirName:/CN=team523-net
                serial:47:34:68:7F:57:90:F0:75:76:26:42:A5:84:1A:ED:E6:EF:36:B0:69

            X509v3 Extended Key Usage: 
                TLS Web Client Authentication
            X509v3 Key Usage: 
                Digital Signature
    Signature Algorithm: sha256WithRSAEncryption
         3b:34:42:18:9c:1d:a2:34:28:cc:45:34:8f:d0:f1:a7:f5:fe:
         68:d8:e6:c2:7b:8e:21:d1:3e:b5:7f:6b:4a:af:44:01:41:aa:
         f7:aa:46:42:27:a4:e6:38:88:59:30:cc:87:52:24:04:3c:54:
         12:bc:b2:47:4f:b1:d2:55:d8:fb:98:d8:9e:d1:76:38:fc:30:
         39:7a:dc:1a:aa:7f:06:e9:76:84:7f:30:49:18:59:f4:97:78:
         c4:f1:c1:4f:25:7f:30:09:ba:58:2f:3c:94:a7:04:6e:21:57:
         cc:53:d6:ac:8a:4f:75:6c:19:cc:14:76:a7:32:1c:f4:03:0a:
         5f:a6:95:8f:a8:1f:a9:e5:81:92:83:1a:47:24:1e:9d:d7:02:
         69:91:31:61:e6:6f:32:39:b8:e0:df:aa:34:58:fa:46:e3:59:
         6d:6a:ce:c9:9d:d3:c2:1e:29:4f:a0:7b:5d:4e:2a:03:50:b0:
         41:59:31:b7:3a:1c:7c:b3:0d:64:d5:21:84:51:1b:1a:fc:aa:
         d3:8a:28:4d:a3:b6:f1:1c:f3:89:20:d5:16:15:92:a5:39:f8:
         c6:bc:92:33:4f:e4:17:ec:bb:b7:04:f7:2b:4c:6a:6c:0c:ee:
         3a:01:17:80:88:2a:9d:7d:02:95:06:05:31:a7:f7:d0:4f:67:
         08:f3:ce:69
-----BEGIN CERTIFICATE-----
MIIDXDCCAkSgAwIBAgIQLstNV4sSNkg1b23swQGSHTANBgkqhkiG9w0BAQsFADAW
MRQwEgYDVQQDDAt0ZWFtNTIzLW5ldDAeFw0yMjA1MTgyMjAwMjBaFw0yNTA1MDIy
MjAwMjBaMBkxFzAVBgNVBAMMDnRlYW01MjMtY2xpZW50MIIBIjANBgkqhkiG9w0B
AQEFAAOCAQ8AMIIBCgKCAQEA4zP8CgUOLAo2aLP1rJ8KQyxZLEu46RNVTjEGGl3c
Ji9uDeg9wGh5f6UUWD+YdeE0TMTc87O/+BhkLzTRDWvuHJeWQoVvPpwhzQ4NCVva
EYmqcFmOiK3Js9ANuyoBSqtv7HEnZjzKQ+1yRrqeXSw0o9wQhtNvEoV4moesJ7/k
NxynWXcKc4X62ujcg+0L1nhxpdb4YaH7Pa20ozKjJuqQIrIWGDb5jjXffVCxqY8V
u1kcgciQqxD3wUvWGEKeT2Pi1A2ykxz1WIC4IoDcwbtoPgvL94EeJsOYp8PzOVhk
fYwmKd7ixqrXbAVm0zV3C+NGgTrsBITmow9efR3553eOrQIDAQABo4GiMIGfMAkG
A1UdEwQCMAAwHQYDVR0OBBYEFKvyh9rM71TteWqBqkjt6GNeLf1HMFEGA1UdIwRK
MEiAFF73UW2NIP6AT2a4Namzn2eXDb98oRqkGDAWMRQwEgYDVQQDDAt0ZWFtNTIz
LW5ldIIURzRof1eQ8HV2JkKlhBrt5u82sGkwEwYDVR0lBAwwCgYIKwYBBQUHAwIw
CwYDVR0PBAQDAgeAMA0GCSqGSIb3DQEBCwUAA4IBAQA7NEIYnB2iNCjMRTSP0PGn
9f5o2ObCe44h0T61f2tKr0QBQar3qkZCJ6TmOIhZMMyHUiQEPFQSvLJHT7HSVdj7
mNie0XY4/DA5etwaqn8G6XaEfzBJGFn0l3jE8cFPJX8wCbpYLzyUpwRuIVfMU9as
ik91bBnMFHanMhz0AwpfppWPqB+p5YGSgxpHJB6d1wJpkTFh5m8yObjg36o0WPpG
41ltas7JndPCHilPoHtdTioDULBBWTG3Ohx8sw1k1SGEURsa/KrTiihNo7bxHPOJ
INUWFZKlOfjGvJIzT+QX7Lu3BPcrTGpsDO46AReAiCqdfQKVBgUxp/fQT2cI885p
-----END CERTIFICATE-----
