Certificate:
    Data:
        Version: 3 (0x2)
        Serial Number:
            fd:9e:c4:4a:98:44:9b:e8:cb:ca:f1:b8:02:57:9f:bb
        Signature Algorithm: sha256WithRSAEncryption
        Issuer: CN=team178-net
        Validity
            Not Before: May 18 18:51:26 2022 GMT
            Not After : May  2 18:51:26 2025 GMT
        Subject: CN=team178-server
        Subject Public Key Info:
            Public Key Algorithm: rsaEncryption
                RSA Public-Key: (2048 bit)
                Modulus:
                    00:bb:01:64:c3:48:d5:8d:35:a2:a1:c7:11:18:80:
                    35:04:99:6b:4e:12:70:56:78:77:9a:5b:29:11:8e:
                    bd:52:7b:dc:19:06:2d:69:68:5a:1c:79:8b:27:82:
                    f9:47:11:e0:db:42:a8:15:81:55:1f:4c:0d:c8:f7:
                    72:79:a3:6a:65:29:1d:07:01:26:5f:a7:d1:30:14:
                    74:7f:20:d9:0b:b8:22:67:0e:de:70:ec:c5:c0:b5:
                    c1:9c:88:36:6f:93:39:7d:be:a9:9f:c9:f6:c8:ad:
                    c5:dc:6e:b0:f7:d7:d7:c5:ac:16:d7:5b:15:37:58:
                    e0:5a:65:ed:34:d8:11:dc:83:71:e0:2e:f2:09:78:
                    e4:39:18:ec:f9:d1:40:2f:54:07:66:48:f1:ea:6b:
                    6e:c9:e1:3d:d6:42:e0:b8:b0:b1:a9:7d:b4:9c:6f:
                    ec:e9:bb:9f:81:f4:b2:de:cc:14:eb:e5:35:34:23:
                    4a:8e:98:64:7b:1e:85:6c:5b:04:6a:cf:69:78:6f:
                    c0:52:67:81:03:e4:51:aa:77:ed:1a:98:7e:7c:28:
                    b9:5d:4d:40:ee:51:3f:cf:c1:d1:10:7a:11:9a:98:
                    64:60:65:42:89:ba:2b:63:67:6f:b4:22:7d:50:d6:
                    bf:92:46:6a:e2:2e:97:7b:b1:d0:dd:df:67:4d:20:
                    3c:e1
                Exponent: 65537 (0x10001)
        X509v3 extensions:
            X509v3 Basic Constraints: 
                CA:FALSE
            X509v3 Subject Key Identifier: 
                F2:A5:4B:16:0D:9F:CB:46:CD:1B:84:3A:96:6B:DF:88:9D:FC:C4:D0
            X509v3 Authority Key Identifier: 
                keyid:65:CA:29:12:0B:7E:61:50:48:87:AF:BC:F2:2D:62:F6:47:C6:92:78
                DirName:/CN=team178-net
                serial:2F:C0:7A:4F:98:62:78:6C:EE:60:B5:FC:61:5B:A2:3F:94:72:12:1E

            X509v3 Extended Key Usage: 
                TLS Web Server Authentication
            X509v3 Key Usage: 
                Digital Signature, Key Encipherment
            X509v3 Subject Alternative Name: 
                DNS:team178-server
    Signature Algorithm: sha256WithRSAEncryption
         3e:7f:82:7d:2d:b6:df:d1:3a:29:01:09:a3:da:0b:0a:e4:1e:
         79:9c:12:73:fb:ce:b5:89:e0:f9:e4:21:26:c5:aa:d9:4c:8b:
         d8:b8:86:7f:98:98:34:3d:99:85:45:9a:2d:57:5f:99:e8:7a:
         04:c7:7e:34:73:ae:ad:ac:d1:ba:cb:e3:96:97:9a:06:d1:f4:
         ff:0a:a8:ee:25:ca:32:df:d1:7c:fd:69:3c:03:d9:69:20:08:
         8d:8b:65:be:0f:d8:5d:fb:9f:ba:28:a4:e3:77:71:48:fd:7d:
         76:ea:ee:f4:76:c4:03:09:a9:04:3b:f9:eb:65:1c:21:e0:c7:
         45:da:a5:d1:12:3d:40:b4:ab:4e:0b:27:fe:71:dc:16:78:ea:
         34:bb:2d:ae:39:49:b2:a3:32:c4:67:5a:cd:33:10:d8:35:5f:
         3a:a0:9b:07:f1:87:f0:31:c5:1c:d2:d4:46:67:64:ec:09:1c:
         ed:64:2f:73:e1:e4:c1:db:cf:e2:d9:91:3d:0b:62:aa:d6:67:
         21:a9:b9:5f:25:e2:17:9f:e2:ec:4d:af:72:cb:c8:7e:39:df:
         be:78:71:d0:f3:9a:b3:52:08:31:ef:6b:16:ec:52:d8:62:99:
         6c:8b:9a:3f:84:7a:1e:b6:74:49:a4:88:e9:ce:92:36:8d:e8:
         fe:59:87:72
-----BEGIN CERTIFICATE-----
MIIDeDCCAmCgAwIBAgIRAP2exEqYRJvoy8rxuAJXn7swDQYJKoZIhvcNAQELBQAw
FjEUMBIGA1UEAwwLdGVhbTE3OC1uZXQwHhcNMjIwNTE4MTg1MTI2WhcNMjUwNTAy
MTg1MTI2WjAZMRcwFQYDVQQDDA50ZWFtMTc4LXNlcnZlcjCCASIwDQYJKoZIhvcN
AQEBBQADggEPADCCAQoCggEBALsBZMNI1Y01oqHHERiANQSZa04ScFZ4d5pbKRGO
vVJ73BkGLWloWhx5iyeC+UcR4NtCqBWBVR9MDcj3cnmjamUpHQcBJl+n0TAUdH8g
2Qu4ImcO3nDsxcC1wZyINm+TOX2+qZ/J9sitxdxusPfX18WsFtdbFTdY4Fpl7TTY
EdyDceAu8gl45DkY7PnRQC9UB2ZI8eprbsnhPdZC4Liwsal9tJxv7Om7n4H0st7M
FOvlNTQjSo6YZHsehWxbBGrPaXhvwFJngQPkUap37RqYfnwouV1NQO5RP8/B0RB6
EZqYZGBlQom6K2Nnb7QifVDWv5JGauIul3ux0N3fZ00gPOECAwEAAaOBvTCBujAJ
BgNVHRMEAjAAMB0GA1UdDgQWBBTypUsWDZ/LRs0bhDqWa9+InfzE0DBRBgNVHSME
SjBIgBRlyikSC35hUEiHr7zyLWL2R8aSeKEapBgwFjEUMBIGA1UEAwwLdGVhbTE3
OC1uZXSCFC/Aek+YYnhs7mC1/GFboj+UchIeMBMGA1UdJQQMMAoGCCsGAQUFBwMB
MAsGA1UdDwQEAwIFoDAZBgNVHREEEjAQgg50ZWFtMTc4LXNlcnZlcjANBgkqhkiG
9w0BAQsFAAOCAQEAPn+CfS2239E6KQEJo9oLCuQeeZwSc/vOtYng+eQhJsWq2UyL
2LiGf5iYND2ZhUWaLVdfmeh6BMd+NHOurazRusvjlpeaBtH0/wqo7iXKMt/RfP1p
PAPZaSAIjYtlvg/YXfufuiik43dxSP19duru9HbEAwmpBDv562UcIeDHRdql0RI9
QLSrTgsn/nHcFnjqNLstrjlJsqMyxGdazTMQ2DVfOqCbB/GH8DHFHNLURmdk7Akc
7WQvc+HkwdvP4tmRPQtiqtZnIam5XyXiF5/i7E2vcsvIfjnfvnhx0POas1IIMe9r
FuxS2GKZbIuaP4R6HrZ0SaSI6c6SNo3o/lmHcg==
-----END CERTIFICATE-----
