Certificate:
    Data:
        Version: 3 (0x2)
        Serial Number:
            54:1e:9d:4e:01:a1:0d:b1:15:3b:32:98:16:f7:28:a0
        Signature Algorithm: sha256WithRSAEncryption
        Issuer: CN=team671-net
        Validity
            Not Before: May 18 23:32:00 2022 GMT
            Not After : May  2 23:32:00 2025 GMT
        Subject: CN=team671-server
        Subject Public Key Info:
            Public Key Algorithm: rsaEncryption
                RSA Public-Key: (2048 bit)
                Modulus:
                    00:d5:5d:08:f7:fd:19:ba:95:e3:a1:69:ac:64:98:
                    32:73:35:aa:a2:6d:b3:08:cb:51:95:23:a3:ac:63:
                    a5:4b:13:6c:0c:8d:74:4e:af:9c:66:0e:44:b5:e9:
                    e8:7b:00:41:29:13:5a:f8:b6:7f:ed:3c:53:8c:54:
                    1d:57:be:9a:39:1e:0b:a1:03:c2:a8:d9:96:5e:a8:
                    07:b9:35:13:4b:46:bc:51:00:d6:f9:a2:42:58:24:
                    15:d2:ec:55:96:28:9e:fb:13:44:3d:6d:61:32:3f:
                    04:fa:e7:27:49:4e:aa:0c:6f:e3:4a:fc:9f:6d:ad:
                    ae:75:b2:5a:3e:48:55:4d:dc:38:b8:53:7f:14:38:
                    55:13:b0:59:f1:c3:18:fd:3b:39:57:c0:3a:1b:09:
                    63:2c:2c:31:e9:43:4e:b4:ea:84:78:b3:84:0b:21:
                    08:ad:01:21:36:cd:fd:43:47:ef:15:93:19:f8:7f:
                    82:51:4b:03:09:25:ac:19:21:27:8f:34:f1:9f:6c:
                    7c:c8:ae:da:51:fd:06:52:fa:c2:70:9f:15:74:8b:
                    4a:cd:a5:e4:cb:d0:30:15:79:0b:20:1a:6a:e9:fc:
                    19:d7:da:e3:51:60:6e:0e:cb:8f:0f:d2:53:6d:f2:
                    c5:e1:f8:0e:22:fe:19:4b:0e:b0:09:01:40:55:9c:
                    43:b5
                Exponent: 65537 (0x10001)
        X509v3 extensions:
            X509v3 Basic Constraints: 
                CA:FALSE
            X509v3 Subject Key Identifier: 
                51:27:F8:5D:91:9C:03:13:A3:C6:0F:CB:B3:33:8E:6E:00:29:38:35
            X509v3 Authority Key Identifier: 
                keyid:5F:E1:54:EF:0E:BC:C5:09:C9:EE:BE:0A:B5:72:49:5C:01:9F:2C:A3
                DirName:/CN=team671-net
                serial:6D:EA:99:E2:66:9C:EA:69:33:3D:22:AE:B3:0D:EC:71:5D:D8:CB:89

            X509v3 Extended Key Usage: 
                TLS Web Server Authentication
            X509v3 Key Usage: 
                Digital Signature, Key Encipherment
            X509v3 Subject Alternative Name: 
                DNS:team671-server
    Signature Algorithm: sha256WithRSAEncryption
         6f:32:e3:d9:90:f1:bc:c1:70:0e:54:84:4b:2e:6a:6d:04:06:
         f3:85:65:1e:22:2a:58:be:fe:bc:8d:8a:73:b3:ce:97:be:03:
         d2:99:3f:c2:67:63:fe:cd:f4:55:dd:e6:79:d6:52:06:9e:e8:
         a8:75:91:8f:17:b2:cd:26:99:aa:3e:af:f8:b7:c2:d6:cf:37:
         b9:b3:4e:ba:e3:a9:3b:dc:11:14:69:d0:eb:24:61:9a:07:8b:
         10:16:18:44:63:64:52:d9:5d:2d:4d:9c:b9:92:b1:64:de:53:
         31:9b:15:e7:ee:d2:fe:32:08:0b:df:2a:e7:bb:d7:e1:d1:1d:
         bc:64:9f:f0:ce:49:9e:8f:85:ab:54:12:e9:73:8c:5c:aa:0c:
         b0:cb:47:33:56:7b:b0:ef:bf:c3:0e:13:eb:0c:5c:84:bc:75:
         32:cc:8b:b5:07:38:cb:81:0c:69:7c:cc:36:49:36:16:b2:5a:
         e2:f2:1a:63:49:bd:a1:75:e0:a6:39:58:26:10:50:1e:28:bb:
         be:4d:d4:d8:1a:42:b7:05:76:94:d1:f7:df:32:be:f0:02:1e:
         ca:bc:f8:30:b6:2c:62:bb:8f:f5:ce:40:6b:63:47:14:f7:a0:
         82:0b:1e:95:e8:ac:17:7c:24:6b:8b:9f:85:fa:3d:a4:f3:d9:
         a5:a5:89:c7
-----BEGIN CERTIFICATE-----
MIIDdzCCAl+gAwIBAgIQVB6dTgGhDbEVOzKYFvcooDANBgkqhkiG9w0BAQsFADAW
MRQwEgYDVQQDDAt0ZWFtNjcxLW5ldDAeFw0yMjA1MTgyMzMyMDBaFw0yNTA1MDIy
MzMyMDBaMBkxFzAVBgNVBAMMDnRlYW02NzEtc2VydmVyMIIBIjANBgkqhkiG9w0B
AQEFAAOCAQ8AMIIBCgKCAQEA1V0I9/0ZupXjoWmsZJgyczWqom2zCMtRlSOjrGOl
SxNsDI10Tq+cZg5EtenoewBBKRNa+LZ/7TxTjFQdV76aOR4LoQPCqNmWXqgHuTUT
S0a8UQDW+aJCWCQV0uxVliie+xNEPW1hMj8E+ucnSU6qDG/jSvyfba2udbJaPkhV
Tdw4uFN/FDhVE7BZ8cMY/Ts5V8A6GwljLCwx6UNOtOqEeLOECyEIrQEhNs39Q0fv
FZMZ+H+CUUsDCSWsGSEnjzTxn2x8yK7aUf0GUvrCcJ8VdItKzaXky9AwFXkLIBpq
6fwZ19rjUWBuDsuPD9JTbfLF4fgOIv4ZSw6wCQFAVZxDtQIDAQABo4G9MIG6MAkG
A1UdEwQCMAAwHQYDVR0OBBYEFFEn+F2RnAMTo8YPy7Mzjm4AKTg1MFEGA1UdIwRK
MEiAFF/hVO8OvMUJye6+CrVySVwBnyyjoRqkGDAWMRQwEgYDVQQDDAt0ZWFtNjcx
LW5ldIIUbeqZ4mac6mkzPSKusw3scV3Yy4kwEwYDVR0lBAwwCgYIKwYBBQUHAwEw
CwYDVR0PBAQDAgWgMBkGA1UdEQQSMBCCDnRlYW02NzEtc2VydmVyMA0GCSqGSIb3
DQEBCwUAA4IBAQBvMuPZkPG8wXAOVIRLLmptBAbzhWUeIipYvv68jYpzs86XvgPS
mT/CZ2P+zfRV3eZ51lIGnuiodZGPF7LNJpmqPq/4t8LWzze5s06646k73BEUadDr
JGGaB4sQFhhEY2RS2V0tTZy5krFk3lMxmxXn7tL+MggL3yrnu9fh0R28ZJ/wzkme
j4WrVBLpc4xcqgywy0czVnuw77/DDhPrDFyEvHUyzIu1BzjLgQxpfMw2STYWslri
8hpjSb2hdeCmOVgmEFAeKLu+TdTYGkK3BXaU0fffMr7wAh7KvPgwtixiu4/1zkBr
Y0cU96CCCx6V6KwXfCRri5+F+j2k89mlpYnH
-----END CERTIFICATE-----
