Certificate:
    Data:
        Version: 3 (0x2)
        Serial Number:
            bc:1d:be:b8:a5:ca:02:76:4e:4b:f8:72:85:71:8b:c9
        Signature Algorithm: sha256WithRSAEncryption
        Issuer: CN=team697-net
        Validity
            Not Before: May 18 23:44:59 2022 GMT
            Not After : May  2 23:44:59 2025 GMT
        Subject: CN=team697-server
        Subject Public Key Info:
            Public Key Algorithm: rsaEncryption
                RSA Public-Key: (2048 bit)
                Modulus:
                    00:d6:ac:0f:9b:2f:1b:27:b2:68:9b:dd:26:03:ff:
                    dd:5e:7c:b1:78:de:90:53:71:1f:3c:0a:bd:d1:75:
                    9b:5c:fc:53:0c:b6:89:80:01:19:f4:dc:53:6d:63:
                    36:af:d4:78:c7:39:19:29:76:c5:4c:c5:85:de:05:
                    99:ed:69:fa:7b:32:16:cd:4b:ea:77:6b:76:71:67:
                    c3:25:26:09:83:21:2b:55:35:c5:52:6f:eb:f7:ad:
                    b9:22:7d:77:c9:2a:1f:87:4a:10:97:20:25:e1:35:
                    1c:69:1b:ea:24:f3:fa:31:eb:c0:c8:ae:ba:ce:54:
                    77:a8:c8:fd:41:51:41:40:5d:44:69:25:58:07:f7:
                    81:a0:aa:76:15:d7:48:93:1f:59:96:71:65:6e:64:
                    6c:99:7f:40:5e:46:ea:a1:50:38:ed:f4:06:e0:b5:
                    e3:3f:b7:49:16:25:8e:90:05:a6:d2:0b:71:ee:8e:
                    ae:b5:a1:34:b9:a0:46:39:3f:35:9b:a3:4e:c5:bf:
                    5f:db:5a:69:40:00:84:96:59:09:56:3e:55:9d:81:
                    a3:91:13:99:87:67:54:ff:9f:41:f9:93:bc:a4:bd:
                    3e:80:a3:a6:e5:3d:a6:8f:57:eb:83:6b:0e:e8:43:
                    45:57:07:44:fc:a4:f4:b0:bd:a6:07:0f:ac:b2:98:
                    4f:af
                Exponent: 65537 (0x10001)
        X509v3 extensions:
            X509v3 Basic Constraints: 
                CA:FALSE
            X509v3 Subject Key Identifier: 
                AA:86:73:F1:50:00:A6:43:B6:5D:67:33:E4:3A:B5:80:04:CE:D0:B7
            X509v3 Authority Key Identifier: 
                keyid:0F:18:63:72:5D:F1:23:E1:E4:51:EA:66:AF:EE:37:31:99:66:FB:39
                DirName:/CN=team697-net
                serial:0D:37:E3:79:E4:58:6F:49:2E:B3:95:40:DE:7D:26:52:D9:23:49:80

            X509v3 Extended Key Usage: 
                TLS Web Server Authentication
            X509v3 Key Usage: 
                Digital Signature, Key Encipherment
            X509v3 Subject Alternative Name: 
                DNS:team697-server
    Signature Algorithm: sha256WithRSAEncryption
         8b:21:53:7d:b2:d7:f9:9a:7a:5f:60:25:f1:f8:f0:fd:f8:62:
         4e:d5:89:31:85:13:82:3d:5c:21:26:c8:35:1b:17:0a:17:ab:
         e9:a1:08:a3:c7:18:cf:c8:e3:ce:8f:57:b6:2a:da:aa:40:c3:
         3d:a1:22:d4:62:7c:65:fa:75:e1:62:e4:8d:cb:b1:23:56:4b:
         38:f0:af:f0:3a:fc:0c:ed:1d:31:fd:4c:56:66:28:5b:76:15:
         7f:00:56:26:b9:e8:81:20:f4:51:4e:e0:e6:64:bb:0a:64:21:
         fc:24:9d:75:37:b8:4c:96:08:06:8c:52:bc:c7:f5:f4:77:96:
         28:e9:15:2e:35:f0:e5:15:2a:cf:8d:8b:e1:3f:25:90:cb:4d:
         a4:2f:41:ad:12:bd:ed:95:0f:14:23:9b:84:21:77:8d:04:b5:
         82:28:00:21:fb:b7:ba:6e:a1:f1:66:14:31:98:88:28:ad:c7:
         c3:d0:70:d9:f5:4c:70:38:8f:19:7f:04:20:b4:87:b2:2c:a5:
         31:e3:3c:eb:ef:89:96:f3:87:72:02:b5:4c:e2:e0:0b:50:01:
         8d:31:3c:c5:c3:c6:cb:d5:e2:45:32:30:06:ad:20:75:5c:05:
         88:c3:6e:97:9b:92:6e:09:c5:fa:f9:56:56:f9:28:fd:62:24:
         c9:38:37:60
-----BEGIN CERTIFICATE-----
MIIDeDCCAmCgAwIBAgIRALwdvrilygJ2Tkv4coVxi8kwDQYJKoZIhvcNAQELBQAw
FjEUMBIGA1UEAwwLdGVhbTY5Ny1uZXQwHhcNMjIwNTE4MjM0NDU5WhcNMjUwNTAy
MjM0NDU5WjAZMRcwFQYDVQQDDA50ZWFtNjk3LXNlcnZlcjCCASIwDQYJKoZIhvcN
AQEBBQADggEPADCCAQoCggEBANasD5svGyeyaJvdJgP/3V58sXjekFNxHzwKvdF1
m1z8Uwy2iYABGfTcU21jNq/UeMc5GSl2xUzFhd4Fme1p+nsyFs1L6ndrdnFnwyUm
CYMhK1U1xVJv6/etuSJ9d8kqH4dKEJcgJeE1HGkb6iTz+jHrwMiuus5Ud6jI/UFR
QUBdRGklWAf3gaCqdhXXSJMfWZZxZW5kbJl/QF5G6qFQOO30BuC14z+3SRYljpAF
ptILce6OrrWhNLmgRjk/NZujTsW/X9taaUAAhJZZCVY+VZ2Bo5ETmYdnVP+fQfmT
vKS9PoCjpuU9po9X64NrDuhDRVcHRPyk9LC9pgcPrLKYT68CAwEAAaOBvTCBujAJ
BgNVHRMEAjAAMB0GA1UdDgQWBBSqhnPxUACmQ7ZdZzPkOrWABM7QtzBRBgNVHSME
SjBIgBQPGGNyXfEj4eRR6mav7jcxmWb7OaEapBgwFjEUMBIGA1UEAwwLdGVhbTY5
Ny1uZXSCFA0343nkWG9JLrOVQN59JlLZI0mAMBMGA1UdJQQMMAoGCCsGAQUFBwMB
MAsGA1UdDwQEAwIFoDAZBgNVHREEEjAQgg50ZWFtNjk3LXNlcnZlcjANBgkqhkiG
9w0BAQsFAAOCAQEAiyFTfbLX+Zp6X2Al8fjw/fhiTtWJMYUTgj1cISbINRsXCher
6aEIo8cYz8jjzo9XtiraqkDDPaEi1GJ8Zfp14WLkjcuxI1ZLOPCv8Dr8DO0dMf1M
VmYoW3YVfwBWJrnogSD0UU7g5mS7CmQh/CSddTe4TJYIBoxSvMf19HeWKOkVLjXw
5RUqz42L4T8lkMtNpC9BrRK97ZUPFCObhCF3jQS1gigAIfu3um6h8WYUMZiIKK3H
w9Bw2fVMcDiPGX8EILSHsiylMeM86++JlvOHcgK1TOLgC1ABjTE8xcPGy9XiRTIw
Bq0gdVwFiMNul5uSbgnF+vlWVvko/WIkyTg3YA==
-----END CERTIFICATE-----
