Certificate:
    Data:
        Version: 3 (0x2)
        Serial Number:
            47:ef:83:25:59:ff:da:4e:80:19:e0:a2:c3:ce:52:b9
        Signature Algorithm: sha256WithRSAEncryption
        Issuer: CN=team454-net
        Validity
            Not Before: May 18 21:16:37 2022 GMT
            Not After : May  2 21:16:37 2025 GMT
        Subject: CN=team454-server
        Subject Public Key Info:
            Public Key Algorithm: rsaEncryption
                RSA Public-Key: (2048 bit)
                Modulus:
                    00:a8:b6:12:3e:a7:5a:79:85:24:78:e4:34:17:53:
                    14:4f:7e:ff:05:05:5a:42:12:ce:70:60:8c:85:1b:
                    ac:80:2e:99:06:f1:a6:d5:57:fa:05:73:00:cc:ca:
                    c4:61:27:fa:4f:50:60:67:7f:8d:78:f8:0b:62:00:
                    d4:9b:b1:3e:7a:08:1e:1b:7c:74:1c:58:33:bd:59:
                    83:17:66:41:6f:b0:ab:c1:52:19:48:97:9b:8e:b6:
                    b5:ba:69:ef:20:bf:64:f0:ee:61:35:5a:b5:f1:0c:
                    4c:c8:c2:d9:69:67:aa:92:ac:0c:82:fa:02:d5:a8:
                    15:dc:11:ac:74:50:e9:f7:c6:b3:81:5f:be:ec:60:
                    22:2e:bb:f8:32:7b:30:bf:cd:8f:a3:1c:61:67:53:
                    82:48:03:88:2f:9d:d0:a2:de:a5:3e:8b:5f:6d:5a:
                    61:49:cc:af:27:dc:fe:ba:f7:10:05:d8:02:6b:10:
                    64:17:a6:83:f6:58:1a:f7:7f:86:52:57:ae:44:af:
                    b7:60:7a:8b:87:0f:68:35:0d:2f:50:c4:4c:6a:0a:
                    50:70:e7:bf:25:44:cf:89:36:f0:68:22:39:97:2d:
                    68:bf:60:9e:bf:02:bd:8c:bd:a9:e7:8e:30:80:96:
                    28:60:59:13:f9:b7:9e:7b:aa:49:e7:b3:7e:c4:7a:
                    52:31
                Exponent: 65537 (0x10001)
        X509v3 extensions:
            X509v3 Basic Constraints: 
                CA:FALSE
            X509v3 Subject Key Identifier: 
                56:7A:C9:E2:A4:4E:77:26:BA:9C:9B:B9:AD:0D:D9:C1:0F:5E:F2:B3
            X509v3 Authority Key Identifier: 
                keyid:24:6F:07:7B:40:50:C6:C1:24:C4:AB:E4:A3:B4:50:67:CF:88:B2:B9
                DirName:/CN=team454-net
                serial:78:3F:11:43:37:4B:6B:65:11:54:66:D1:31:5B:00:3C:11:0F:98:D5

            X509v3 Extended Key Usage: 
                TLS Web Server Authentication
            X509v3 Key Usage: 
                Digital Signature, Key Encipherment
            X509v3 Subject Alternative Name: 
                DNS:team454-server
    Signature Algorithm: sha256WithRSAEncryption
         18:89:31:c4:79:9e:ae:50:a7:ac:08:ed:fe:e2:31:c4:de:04:
         61:a7:86:56:24:1b:8c:3e:d3:cf:df:8c:30:41:87:99:39:21:
         2b:55:4b:6b:e4:cc:42:0a:e6:c4:09:f3:f2:9c:55:2b:db:a9:
         1a:9b:5a:8f:68:cc:b2:b8:bd:fa:ae:d6:15:42:26:d9:1c:54:
         93:2b:0c:5b:02:31:88:84:0c:8e:f0:14:f7:91:b8:c1:49:a1:
         3a:11:8d:99:e9:fb:96:ae:9c:36:57:3f:a2:89:be:ca:ae:d9:
         91:69:42:89:cb:cf:35:4d:c3:06:8b:a9:c7:44:4a:30:0a:b2:
         25:9b:26:2c:ef:88:c1:ad:e8:9d:42:10:dd:ac:6c:f9:24:2e:
         e7:b0:f7:27:87:34:65:f3:6c:1d:22:c1:b3:c3:64:8e:4b:a0:
         91:9d:21:d7:a5:0c:b8:d9:95:4d:93:d2:f4:22:bc:12:30:28:
         97:33:e7:ac:58:74:0c:8a:10:12:97:0e:c8:76:e9:08:23:72:
         70:00:cd:d6:6e:b3:8e:0f:04:ba:47:a8:75:cd:ee:14:05:d5:
         42:74:75:0b:d3:74:cd:78:76:1f:ba:b4:c8:9f:7f:c6:41:06:
         dc:0e:8d:34:ef:6e:af:7d:81:92:2d:72:a8:2e:54:09:9a:a3:
         1f:44:38:65
-----BEGIN CERTIFICATE-----
MIIDdzCCAl+gAwIBAgIQR++DJVn/2k6AGeCiw85SuTANBgkqhkiG9w0BAQsFADAW
MRQwEgYDVQQDDAt0ZWFtNDU0LW5ldDAeFw0yMjA1MTgyMTE2MzdaFw0yNTA1MDIy
MTE2MzdaMBkxFzAVBgNVBAMMDnRlYW00NTQtc2VydmVyMIIBIjANBgkqhkiG9w0B
AQEFAAOCAQ8AMIIBCgKCAQEAqLYSPqdaeYUkeOQ0F1MUT37/BQVaQhLOcGCMhRus
gC6ZBvGm1Vf6BXMAzMrEYSf6T1BgZ3+NePgLYgDUm7E+eggeG3x0HFgzvVmDF2ZB
b7CrwVIZSJebjra1umnvIL9k8O5hNVq18QxMyMLZaWeqkqwMgvoC1agV3BGsdFDp
98azgV++7GAiLrv4Mnswv82PoxxhZ1OCSAOIL53Qot6lPotfbVphScyvJ9z+uvcQ
BdgCaxBkF6aD9lga93+GUleuRK+3YHqLhw9oNQ0vUMRMagpQcOe/JUTPiTbwaCI5
ly1ov2CevwK9jL2p544wgJYoYFkT+beee6pJ57N+xHpSMQIDAQABo4G9MIG6MAkG
A1UdEwQCMAAwHQYDVR0OBBYEFFZ6yeKkTncmupybua0N2cEPXvKzMFEGA1UdIwRK
MEiAFCRvB3tAUMbBJMSr5KO0UGfPiLK5oRqkGDAWMRQwEgYDVQQDDAt0ZWFtNDU0
LW5ldIIUeD8RQzdLa2URVGbRMVsAPBEPmNUwEwYDVR0lBAwwCgYIKwYBBQUHAwEw
CwYDVR0PBAQDAgWgMBkGA1UdEQQSMBCCDnRlYW00NTQtc2VydmVyMA0GCSqGSIb3
DQEBCwUAA4IBAQAYiTHEeZ6uUKesCO3+4jHE3gRhp4ZWJBuMPtPP34wwQYeZOSEr
VUtr5MxCCubECfPynFUr26kam1qPaMyyuL36rtYVQibZHFSTKwxbAjGIhAyO8BT3
kbjBSaE6EY2Z6fuWrpw2Vz+iib7KrtmRaUKJy881TcMGi6nHREowCrIlmyYs74jB
reidQhDdrGz5JC7nsPcnhzRl82wdIsGzw2SOS6CRnSHXpQy42ZVNk9L0IrwSMCiX
M+esWHQMihASlw7IdukII3JwAM3WbrOODwS6R6h1ze4UBdVCdHUL03TNeHYfurTI
n3/GQQbcDo00726vfYGSLXKoLlQJmqMfRDhl
-----END CERTIFICATE-----
