Certificate:
    Data:
        Version: 3 (0x2)
        Serial Number:
            9a:31:fc:85:ad:a5:37:44:49:d1:06:aa:c4:e8:39:87
        Signature Algorithm: sha256WithRSAEncryption
        Issuer: CN=team569-net
        Validity
            Not Before: May 18 22:28:50 2022 GMT
            Not After : May  2 22:28:50 2025 GMT
        Subject: CN=team569-client
        Subject Public Key Info:
            Public Key Algorithm: rsaEncryption
                RSA Public-Key: (2048 bit)
                Modulus:
                    00:ce:ba:d1:54:7f:4e:ec:93:71:af:95:04:eb:41:
                    2d:35:dc:fb:52:50:5f:cc:d3:20:8a:e0:d4:e3:9b:
                    05:8a:f4:5c:2c:3c:85:04:fc:31:d4:bf:ad:76:55:
                    65:74:17:cd:69:ab:61:44:98:b0:35:16:f1:6b:21:
                    2b:5a:18:53:b1:9e:d7:f3:28:a4:c1:bf:02:49:1b:
                    73:59:71:7a:17:3c:d9:d6:71:6d:8d:e7:4a:1a:8e:
                    74:fe:49:b1:60:4f:b3:10:09:86:d3:0f:05:fc:01:
                    99:3d:72:75:61:a1:6c:7d:e0:69:dc:00:02:88:e9:
                    93:aa:2e:44:f3:46:f5:05:e4:cb:c4:64:75:4d:27:
                    50:14:03:b4:f2:89:b8:95:41:91:4c:ee:14:75:43:
                    09:93:a6:a2:10:c7:89:04:c3:75:4c:eb:e9:0c:69:
                    8f:a8:f9:8d:8a:21:6b:62:39:f8:af:25:fa:06:29:
                    db:b7:f0:04:4e:1f:b2:b5:38:29:16:c8:e3:2c:8c:
                    b5:48:73:b7:c8:58:51:d4:a9:c8:4b:26:aa:09:58:
                    0f:e0:ce:58:cf:64:75:b3:ad:1d:4c:86:67:1c:c9:
                    df:cd:af:11:a3:9b:ad:07:26:66:0f:89:3c:0f:14:
                    2c:57:28:8c:ca:41:26:b5:0f:38:0f:32:ab:13:be:
                    e5:33
                Exponent: 65537 (0x10001)
        X509v3 extensions:
            X509v3 Basic Constraints: 
                CA:FALSE
            X509v3 Subject Key Identifier: 
                0E:17:01:7F:3C:BE:78:43:D8:D0:44:EE:14:0C:18:0F:E6:AB:47:23
            X509v3 Authority Key Identifier: 
                keyid:9F:A6:95:1C:A0:0F:A5:DA:04:FC:26:25:62:6D:81:96:C2:FF:8E:55
                DirName:/CN=team569-net
                serial:26:81:AD:97:86:2C:3D:8F:2E:39:A6:D8:44:A1:F9:9F:CF:0B:80:0E

            X509v3 Extended Key Usage: 
                TLS Web Client Authentication
            X509v3 Key Usage: 
                Digital Signature
    Signature Algorithm: sha256WithRSAEncryption
         46:3e:e7:9f:7b:53:4a:fe:59:d1:ff:92:c3:9f:fe:d3:24:14:
         ff:88:43:f0:08:66:76:10:37:b3:3c:42:03:8c:9d:5c:bd:fc:
         cf:d3:23:25:2a:ce:ee:4c:6b:2b:93:8b:39:44:7e:0b:d3:52:
         2a:14:c5:55:62:f6:a6:54:43:4d:00:1f:e6:94:4d:82:80:74:
         11:fb:12:40:3c:57:31:20:6b:59:95:37:bd:26:1e:fe:c2:ee:
         26:79:cb:5d:a5:39:90:29:86:26:e9:88:68:61:7f:f9:6b:e8:
         d8:66:68:63:bf:5b:69:31:dc:a5:f0:06:6d:74:7b:a1:55:f2:
         88:7a:f3:b8:af:1b:75:f9:cd:51:c3:6c:a6:12:9f:6a:95:e8:
         da:25:c1:84:6b:db:be:be:f6:3b:27:49:ee:8b:f8:22:69:88:
         62:19:87:5e:10:d0:ec:2a:36:8a:df:ba:a0:28:3e:2e:87:45:
         eb:69:f1:58:ea:21:db:3a:76:c6:40:d6:9a:9f:10:24:d8:a6:
         d8:f2:2f:06:54:f1:9c:b8:65:1a:bf:9d:46:54:48:80:58:f6:
         6a:8a:e1:55:a0:0e:83:91:ff:e0:36:eb:86:ba:32:07:04:cc:
         d4:0d:fc:0c:8d:3f:b1:e2:c2:9f:fd:bb:d4:e1:c7:cf:92:53:
         bb:ec:e2:73
-----BEGIN CERTIFICATE-----
MIIDXTCCAkWgAwIBAgIRAJox/IWtpTdESdEGqsToOYcwDQYJKoZIhvcNAQELBQAw
FjEUMBIGA1UEAwwLdGVhbTU2OS1uZXQwHhcNMjIwNTE4MjIyODUwWhcNMjUwNTAy
MjIyODUwWjAZMRcwFQYDVQQDDA50ZWFtNTY5LWNsaWVudDCCASIwDQYJKoZIhvcN
AQEBBQADggEPADCCAQoCggEBAM660VR/TuyTca+VBOtBLTXc+1JQX8zTIIrg1OOb
BYr0XCw8hQT8MdS/rXZVZXQXzWmrYUSYsDUW8WshK1oYU7Ge1/MopMG/Akkbc1lx
ehc82dZxbY3nShqOdP5JsWBPsxAJhtMPBfwBmT1ydWGhbH3gadwAAojpk6ouRPNG
9QXky8RkdU0nUBQDtPKJuJVBkUzuFHVDCZOmohDHiQTDdUzr6Qxpj6j5jYoha2I5
+K8l+gYp27fwBE4fsrU4KRbI4yyMtUhzt8hYUdSpyEsmqglYD+DOWM9kdbOtHUyG
ZxzJ382vEaObrQcmZg+JPA8ULFcojMpBJrUPOA8yqxO+5TMCAwEAAaOBojCBnzAJ
BgNVHRMEAjAAMB0GA1UdDgQWBBQOFwF/PL54Q9jQRO4UDBgP5qtHIzBRBgNVHSME
SjBIgBSfppUcoA+l2gT8JiVibYGWwv+OVaEapBgwFjEUMBIGA1UEAwwLdGVhbTU2
OS1uZXSCFCaBrZeGLD2PLjmm2ESh+Z/PC4AOMBMGA1UdJQQMMAoGCCsGAQUFBwMC
MAsGA1UdDwQEAwIHgDANBgkqhkiG9w0BAQsFAAOCAQEARj7nn3tTSv5Z0f+Sw5/+
0yQU/4hD8AhmdhA3szxCA4ydXL38z9MjJSrO7kxrK5OLOUR+C9NSKhTFVWL2plRD
TQAf5pRNgoB0EfsSQDxXMSBrWZU3vSYe/sLuJnnLXaU5kCmGJumIaGF/+Wvo2GZo
Y79baTHcpfAGbXR7oVXyiHrzuK8bdfnNUcNsphKfapXo2iXBhGvbvr72OydJ7ov4
ImmIYhmHXhDQ7Co2it+6oCg+LodF62nxWOoh2zp2xkDWmp8QJNim2PIvBlTxnLhl
Gr+dRlRIgFj2aorhVaAOg5H/4DbrhroyBwTM1A38DI0/seLCn/271OHHz5JTu+zi
cw==
-----END CERTIFICATE-----
