Certificate:
    Data:
        Version: 3 (0x2)
        Serial Number:
            93:23:b2:e8:95:cc:3a:9d:28:13:30:39:e3:34:ff:9e
        Signature Algorithm: sha256WithRSAEncryption
        Issuer: CN=team11-net
        Validity
            Not Before: May 18 13:58:51 2022 GMT
            Not After : May  2 13:58:51 2025 GMT
        Subject: CN=team11-client
        Subject Public Key Info:
            Public Key Algorithm: rsaEncryption
                RSA Public-Key: (2048 bit)
                Modulus:
                    00:c0:2c:8f:36:21:ae:05:80:46:99:06:1e:b4:7d:
                    4f:1e:6e:c5:e1:d4:48:b0:26:37:41:84:fc:10:fc:
                    bb:90:c1:5b:cb:6f:2c:67:db:61:81:d2:49:96:dc:
                    cb:be:59:f1:e9:bc:2e:3f:47:98:00:e6:87:14:f5:
                    c7:a4:3d:bf:06:37:45:24:bf:71:52:9c:f2:fb:3c:
                    a0:57:f8:3c:27:25:5c:6f:58:e4:57:40:95:fd:32:
                    4a:e5:3a:66:19:18:c2:27:a7:37:ea:8e:d0:45:94:
                    a2:1c:8e:36:85:03:0f:d7:50:3e:1d:d1:3a:aa:ac:
                    b3:36:6b:af:e3:1d:00:7a:d0:26:ea:5b:db:7b:1f:
                    2d:2f:24:1d:27:b0:cf:d3:e0:63:03:77:63:97:75:
                    b9:04:76:b9:aa:c6:5c:0d:a0:ff:e5:08:4c:9e:7c:
                    81:e0:17:49:0b:0c:c6:d1:ee:e8:5c:e2:35:df:36:
                    b1:fd:bf:c6:25:54:fb:73:06:ba:06:a4:29:b8:bc:
                    42:56:5e:ae:60:e1:6d:9e:da:14:6f:a5:97:ae:76:
                    a4:32:12:68:75:85:cf:f3:76:2b:86:ef:d0:2f:17:
                    29:38:82:a3:7f:6b:9f:e9:78:71:83:cb:63:65:35:
                    87:44:18:01:37:2d:4f:c3:20:a6:7c:b7:df:cb:31:
                    77:11
                Exponent: 65537 (0x10001)
        X509v3 extensions:
            X509v3 Basic Constraints: 
                CA:FALSE
            X509v3 Subject Key Identifier: 
                26:FC:B3:C5:D5:57:EF:25:B7:0A:70:A4:A4:1E:FA:52:DD:19:51:EC
            X509v3 Authority Key Identifier: 
                keyid:DD:A0:75:FE:A8:36:5B:83:BE:5A:58:00:BE:B6:B2:37:74:3F:9B:36
                DirName:/CN=team11-net
                serial:47:EC:9E:9C:E9:A1:6C:BA:35:17:08:2B:75:16:2A:15:8D:AB:1D:CD

            X509v3 Extended Key Usage: 
                TLS Web Client Authentication
            X509v3 Key Usage: 
                Digital Signature
    Signature Algorithm: sha256WithRSAEncryption
         5d:c6:43:cf:dc:16:98:81:b0:fe:ff:37:88:d9:cb:ce:01:46:
         4d:2a:6c:24:fb:95:a0:50:b7:39:11:15:f5:87:66:d8:80:4a:
         ae:29:f7:75:4c:90:a9:d0:73:36:04:dc:19:0b:86:9d:ea:86:
         69:01:f4:1a:48:47:b3:3c:41:e8:a2:ab:84:9b:8d:19:93:59:
         e2:a5:1d:cd:98:85:f3:6e:82:88:e9:44:de:b0:da:8d:1e:91:
         f5:10:c6:88:31:dd:59:b8:b6:c7:c3:e4:dc:df:d6:25:7c:20:
         63:c6:e3:6c:a6:31:6a:e7:47:3f:a2:5e:40:d5:d8:2a:03:ba:
         66:9d:89:b1:a0:cf:45:a6:9c:2e:df:74:95:cb:33:02:c4:b6:
         c8:98:e7:44:d4:9d:fe:0b:42:85:e3:61:24:c3:3e:63:a1:f3:
         ad:ca:f6:84:61:b8:bd:16:6a:fa:74:5a:f2:59:34:6a:d0:d7:
         d0:be:00:6f:d2:46:f1:c2:d7:f1:8c:81:08:15:80:82:3a:b6:
         d5:cd:30:cc:b4:38:ea:12:48:a5:2d:e6:f8:55:64:e8:54:8f:
         c9:1d:a6:4c:1a:87:8d:6f:19:9d:02:ee:b6:5f:47:17:a2:97:
         a0:12:11:22:22:45:f5:cf:f9:a5:f0:eb:c8:fa:a5:07:da:9b:
         cd:cd:54:ac
-----BEGIN CERTIFICATE-----
MIIDWjCCAkKgAwIBAgIRAJMjsuiVzDqdKBMwOeM0/54wDQYJKoZIhvcNAQELBQAw
FTETMBEGA1UEAwwKdGVhbTExLW5ldDAeFw0yMjA1MTgxMzU4NTFaFw0yNTA1MDIx
MzU4NTFaMBgxFjAUBgNVBAMMDXRlYW0xMS1jbGllbnQwggEiMA0GCSqGSIb3DQEB
AQUAA4IBDwAwggEKAoIBAQDALI82Ia4FgEaZBh60fU8ebsXh1EiwJjdBhPwQ/LuQ
wVvLbyxn22GB0kmW3Mu+WfHpvC4/R5gA5ocU9cekPb8GN0Ukv3FSnPL7PKBX+Dwn
JVxvWORXQJX9MkrlOmYZGMInpzfqjtBFlKIcjjaFAw/XUD4d0TqqrLM2a6/jHQB6
0CbqW9t7Hy0vJB0nsM/T4GMDd2OXdbkEdrmqxlwNoP/lCEyefIHgF0kLDMbR7uhc
4jXfNrH9v8YlVPtzBroGpCm4vEJWXq5g4W2e2hRvpZeudqQyEmh1hc/zdiuG79Av
Fyk4gqN/a5/peHGDy2NlNYdEGAE3LU/DIKZ8t9/LMXcRAgMBAAGjgaEwgZ4wCQYD
VR0TBAIwADAdBgNVHQ4EFgQUJvyzxdVX7yW3CnCkpB76Ut0ZUewwUAYDVR0jBEkw
R4AU3aB1/qg2W4O+WlgAvrayN3Q/mzahGaQXMBUxEzARBgNVBAMMCnRlYW0xMS1u
ZXSCFEfsnpzpoWy6NRcIK3UWKhWNqx3NMBMGA1UdJQQMMAoGCCsGAQUFBwMCMAsG
A1UdDwQEAwIHgDANBgkqhkiG9w0BAQsFAAOCAQEAXcZDz9wWmIGw/v83iNnLzgFG
TSpsJPuVoFC3OREV9Ydm2IBKrin3dUyQqdBzNgTcGQuGneqGaQH0GkhHszxB6KKr
hJuNGZNZ4qUdzZiF826CiOlE3rDajR6R9RDGiDHdWbi2x8Pk3N/WJXwgY8bjbKYx
audHP6JeQNXYKgO6Zp2JsaDPRaacLt90lcszAsS2yJjnRNSd/gtCheNhJMM+Y6Hz
rcr2hGG4vRZq+nRa8lk0atDX0L4Ab9JG8cLX8YyBCBWAgjq21c0wzLQ46hJIpS3m
+FVk6FSPyR2mTBqHjW8ZnQLutl9HF6KXoBIRIiJF9c/5pfDryPqlB9qbzc1UrA==
-----END CERTIFICATE-----
