Certificate:
    Data:
        Version: 3 (0x2)
        Serial Number:
            0e:0b:77:72:f2:5d:31:95:23:c3:b8:22:9f:fd:8f:d7
        Signature Algorithm: sha256WithRSAEncryption
        Issuer: CN=team667-net
        Validity
            Not Before: May 18 23:14:45 2022 GMT
            Not After : May  2 23:14:45 2025 GMT
        Subject: CN=team667-client
        Subject Public Key Info:
            Public Key Algorithm: rsaEncryption
                RSA Public-Key: (2048 bit)
                Modulus:
                    00:c5:b1:a0:7a:56:a2:3a:0f:a6:0e:50:28:da:ca:
                    78:d3:5e:c6:ce:ea:a0:cb:20:d1:ad:d3:1e:92:b9:
                    07:07:16:7d:1f:b2:26:f8:9b:e5:47:26:dc:16:14:
                    76:e6:37:00:c1:81:7e:41:5f:f1:61:e5:41:6e:77:
                    95:a3:80:cd:de:70:8f:6e:25:aa:dc:f8:13:0d:db:
                    88:60:0f:c4:bf:af:45:dd:80:a9:80:92:b1:f4:7d:
                    d7:66:a8:3a:de:95:38:aa:21:48:8f:dd:6d:c6:43:
                    68:21:17:7f:c4:5f:5d:fe:06:e4:5f:5a:75:a9:7b:
                    52:6e:b4:0e:85:4f:f8:c8:0b:84:aa:4a:5e:8c:95:
                    92:18:a1:b8:60:8e:ab:a6:24:a0:e6:eb:e5:2f:13:
                    46:ea:a8:36:19:5c:a0:75:4c:d0:ea:a5:88:28:69:
                    3d:22:21:6a:ff:30:a9:03:12:d6:5d:73:63:22:40:
                    21:87:20:90:23:a4:c4:c0:fb:64:c0:72:b1:b9:8b:
                    8f:3a:7b:bc:2b:37:eb:9d:7c:d8:fd:a8:2e:56:26:
                    0f:da:1d:55:d8:09:b9:cf:13:e7:e2:9d:78:8e:1c:
                    11:74:72:87:7b:b2:08:05:d8:3d:bf:ee:11:85:ec:
                    76:ab:4d:af:61:d6:96:da:fb:99:a4:9b:4a:dc:06:
                    62:1f
                Exponent: 65537 (0x10001)
        X509v3 extensions:
            X509v3 Basic Constraints: 
                CA:FALSE
            X509v3 Subject Key Identifier: 
                47:79:32:93:32:17:87:A8:D4:47:4E:10:FF:A4:A4:38:58:3B:BE:02
            X509v3 Authority Key Identifier: 
                keyid:F9:CA:EF:EB:72:AD:03:EE:29:16:4B:B8:D1:3E:28:34:BD:A0:25:9F
                DirName:/CN=team667-net
                serial:3F:8B:23:CC:81:BB:C6:BE:C7:D8:CA:13:B4:5F:77:DF:F0:94:92:37

            X509v3 Extended Key Usage: 
                TLS Web Client Authentication
            X509v3 Key Usage: 
                Digital Signature
    Signature Algorithm: sha256WithRSAEncryption
         37:e3:c9:84:a6:05:4b:f1:f0:ba:a9:75:73:c0:bb:24:08:47:
         ac:ef:0f:e2:02:83:c1:c5:2a:35:de:bf:95:1d:10:07:7b:4b:
         ec:3a:4e:af:24:1e:94:ca:33:09:ed:b6:36:47:c5:81:dd:01:
         f9:e8:82:e6:91:2c:e4:70:3b:79:c2:37:8c:8a:d9:ea:0a:8f:
         df:18:d8:55:50:f6:3c:8a:00:67:37:cd:4b:7e:d0:24:65:f5:
         0a:b5:62:b8:6a:cc:b5:02:a3:f0:c5:c1:3f:df:ea:00:31:52:
         e7:a2:5e:c1:99:7d:d6:54:9f:c2:29:c2:fa:f9:b3:13:94:ae:
         d0:65:4b:0f:49:d7:33:b5:1f:7d:28:99:49:b6:a5:c9:98:3b:
         95:da:79:21:81:ff:2b:6f:69:c5:ba:47:b8:56:0f:5f:35:58:
         99:34:f9:7d:a3:b1:bc:c5:5a:a4:61:33:8a:74:20:5b:22:3e:
         52:1f:a6:45:09:f5:65:f4:dd:72:bc:80:12:3c:dc:80:30:4d:
         db:5a:b8:f6:01:7e:f1:99:2d:7d:d4:f9:a8:38:9a:ae:39:1b:
         7b:01:af:99:15:a4:c8:24:b1:01:92:6e:8c:f7:bf:1c:a3:75:
         d3:fc:20:bc:2e:6d:9a:68:c6:fb:cf:12:62:7f:c7:63:9e:db:
         bd:fe:de:7a
-----BEGIN CERTIFICATE-----
MIIDXDCCAkSgAwIBAgIQDgt3cvJdMZUjw7gin/2P1zANBgkqhkiG9w0BAQsFADAW
MRQwEgYDVQQDDAt0ZWFtNjY3LW5ldDAeFw0yMjA1MTgyMzE0NDVaFw0yNTA1MDIy
MzE0NDVaMBkxFzAVBgNVBAMMDnRlYW02NjctY2xpZW50MIIBIjANBgkqhkiG9w0B
AQEFAAOCAQ8AMIIBCgKCAQEAxbGgelaiOg+mDlAo2sp4017GzuqgyyDRrdMekrkH
BxZ9H7Im+JvlRybcFhR25jcAwYF+QV/xYeVBbneVo4DN3nCPbiWq3PgTDduIYA/E
v69F3YCpgJKx9H3XZqg63pU4qiFIj91txkNoIRd/xF9d/gbkX1p1qXtSbrQOhU/4
yAuEqkpejJWSGKG4YI6rpiSg5uvlLxNG6qg2GVygdUzQ6qWIKGk9IiFq/zCpAxLW
XXNjIkAhhyCQI6TEwPtkwHKxuYuPOnu8KzfrnXzY/aguViYP2h1V2Am5zxPn4p14
jhwRdHKHe7IIBdg9v+4Rhex2q02vYdaW2vuZpJtK3AZiHwIDAQABo4GiMIGfMAkG
A1UdEwQCMAAwHQYDVR0OBBYEFEd5MpMyF4eo1EdOEP+kpDhYO74CMFEGA1UdIwRK
MEiAFPnK7+tyrQPuKRZLuNE+KDS9oCWfoRqkGDAWMRQwEgYDVQQDDAt0ZWFtNjY3
LW5ldIIUP4sjzIG7xr7H2MoTtF933/CUkjcwEwYDVR0lBAwwCgYIKwYBBQUHAwIw
CwYDVR0PBAQDAgeAMA0GCSqGSIb3DQEBCwUAA4IBAQA348mEpgVL8fC6qXVzwLsk
CEes7w/iAoPBxSo13r+VHRAHe0vsOk6vJB6UyjMJ7bY2R8WB3QH56ILmkSzkcDt5
wjeMitnqCo/fGNhVUPY8igBnN81LftAkZfUKtWK4asy1AqPwxcE/3+oAMVLnol7B
mX3WVJ/CKcL6+bMTlK7QZUsPSdcztR99KJlJtqXJmDuV2nkhgf8rb2nFuke4Vg9f
NViZNPl9o7G8xVqkYTOKdCBbIj5SH6ZFCfVl9N1yvIASPNyAME3bWrj2AX7xmS19
1PmoOJquORt7Aa+ZFaTIJLEBkm6M978co3XT/CC8Lm2aaMb7zxJif8djntu9/t56
-----END CERTIFICATE-----
