Certificate:
    Data:
        Version: 3 (0x2)
        Serial Number:
            0a:10:0c:04:ad:2c:2d:2a:59:60:04:8c:8e:f6:18:e1
        Signature Algorithm: sha256WithRSAEncryption
        Issuer: CN=team344-net
        Validity
            Not Before: May 18 20:25:12 2022 GMT
            Not After : May  2 20:25:12 2025 GMT
        Subject: CN=team344-server
        Subject Public Key Info:
            Public Key Algorithm: rsaEncryption
                RSA Public-Key: (2048 bit)
                Modulus:
                    00:ab:ae:5d:32:0f:ed:a4:e6:f9:03:8e:c5:d4:3c:
                    20:24:f2:06:f0:ad:7f:1e:f8:74:f2:0a:78:29:2b:
                    ab:56:1b:8f:88:05:e2:06:34:e6:38:8c:6c:5b:ff:
                    47:5c:68:d8:ab:a4:95:90:86:1a:55:72:be:73:e1:
                    ad:d4:cf:a0:50:cd:26:fe:68:b6:b3:4f:6b:30:30:
                    c7:eb:d5:8a:e5:44:66:35:37:6c:0a:42:ac:8a:60:
                    e6:84:97:23:b6:ec:51:55:f4:00:a8:2b:ed:4c:2d:
                    71:81:84:32:c5:fd:51:35:2a:fe:10:8b:b8:6d:34:
                    df:e6:e3:0f:37:26:30:7e:ab:87:e6:ff:12:6f:e1:
                    d3:e4:47:ec:6b:b8:07:fb:78:14:3b:3c:f9:4c:9e:
                    5c:cf:e3:00:23:9b:53:3e:80:b6:8c:28:9b:33:3a:
                    4c:d4:1e:3b:69:1b:41:2c:d5:26:5d:22:f6:90:6e:
                    6f:fc:8d:d0:22:53:ac:1e:5b:e7:74:8a:2c:cd:2e:
                    37:26:68:a2:74:79:82:e1:da:39:85:5f:83:ef:92:
                    e4:66:b5:07:8f:55:39:85:8a:5d:bb:74:3d:cd:98:
                    ef:f9:fe:cc:6d:24:b3:a9:01:5b:77:ca:68:e3:12:
                    23:0c:09:0c:97:a2:74:33:3c:97:db:80:62:11:dc:
                    07:f1
                Exponent: 65537 (0x10001)
        X509v3 extensions:
            X509v3 Basic Constraints: 
                CA:FALSE
            X509v3 Subject Key Identifier: 
                AF:90:38:D3:B7:E0:58:3B:F2:EE:51:A0:CA:87:48:05:C4:DE:EE:86
            X509v3 Authority Key Identifier: 
                keyid:8F:DD:58:C7:99:66:5F:E3:6D:CF:AA:57:00:DC:90:5B:2D:BE:01:52
                DirName:/CN=team344-net
                serial:12:01:90:73:DB:11:B1:BE:DD:3D:3A:BB:FA:A3:14:07:4A:8F:8E:6A

            X509v3 Extended Key Usage: 
                TLS Web Server Authentication
            X509v3 Key Usage: 
                Digital Signature, Key Encipherment
            X509v3 Subject Alternative Name: 
                DNS:team344-server
    Signature Algorithm: sha256WithRSAEncryption
         af:a0:7f:38:74:fa:7f:56:0e:d1:25:55:55:2f:80:cb:40:9a:
         7c:63:1d:bc:f3:ae:66:95:9a:17:97:fb:d4:36:49:37:bb:53:
         b6:73:b1:9a:aa:6b:7e:1e:18:d9:f0:c0:e9:bc:ee:cb:53:43:
         78:88:7a:17:8f:41:74:a6:32:95:0e:ec:3e:59:cd:f3:b6:ec:
         2a:97:c9:c8:8a:20:1d:c7:3a:23:d0:b4:8e:ad:31:88:e1:2d:
         d3:3b:66:44:1b:1e:b3:4a:c5:8a:d6:e7:87:8f:ed:f4:7c:48:
         b7:86:9d:20:96:ec:46:38:63:71:4e:c4:c0:c1:6a:68:aa:04:
         90:2d:92:33:aa:e0:1c:f4:87:56:3a:83:1b:5d:cc:1c:46:0f:
         7d:bb:72:9f:4b:cc:74:e8:97:d8:18:59:36:11:bb:c6:a8:09:
         f4:02:e1:be:2e:66:7b:b2:1e:a9:c3:54:a6:2f:d9:69:31:e8:
         0d:20:5a:30:dd:12:ba:84:6e:64:34:9a:50:2a:50:a6:6f:2d:
         ce:cd:c1:6e:78:b1:cc:1d:40:a4:40:ef:cc:57:ee:0b:99:e2:
         83:24:67:ad:1b:68:bf:92:2d:5f:91:3e:de:25:45:81:9b:01:
         93:a5:de:3e:3f:65:fb:ec:14:da:7c:05:1c:fb:4b:47:02:97:
         2c:b9:f9:05
-----BEGIN CERTIFICATE-----
MIIDdzCCAl+gAwIBAgIQChAMBK0sLSpZYASMjvYY4TANBgkqhkiG9w0BAQsFADAW
MRQwEgYDVQQDDAt0ZWFtMzQ0LW5ldDAeFw0yMjA1MTgyMDI1MTJaFw0yNTA1MDIy
MDI1MTJaMBkxFzAVBgNVBAMMDnRlYW0zNDQtc2VydmVyMIIBIjANBgkqhkiG9w0B
AQEFAAOCAQ8AMIIBCgKCAQEAq65dMg/tpOb5A47F1DwgJPIG8K1/Hvh08gp4KSur
VhuPiAXiBjTmOIxsW/9HXGjYq6SVkIYaVXK+c+Gt1M+gUM0m/mi2s09rMDDH69WK
5URmNTdsCkKsimDmhJcjtuxRVfQAqCvtTC1xgYQyxf1RNSr+EIu4bTTf5uMPNyYw
fquH5v8Sb+HT5Efsa7gH+3gUOzz5TJ5cz+MAI5tTPoC2jCibMzpM1B47aRtBLNUm
XSL2kG5v/I3QIlOsHlvndIoszS43JmiidHmC4do5hV+D75LkZrUHj1U5hYpdu3Q9
zZjv+f7MbSSzqQFbd8po4xIjDAkMl6J0MzyX24BiEdwH8QIDAQABo4G9MIG6MAkG
A1UdEwQCMAAwHQYDVR0OBBYEFK+QONO34Fg78u5RoMqHSAXE3u6GMFEGA1UdIwRK
MEiAFI/dWMeZZl/jbc+qVwDckFstvgFSoRqkGDAWMRQwEgYDVQQDDAt0ZWFtMzQ0
LW5ldIIUEgGQc9sRsb7dPTq7+qMUB0qPjmowEwYDVR0lBAwwCgYIKwYBBQUHAwEw
CwYDVR0PBAQDAgWgMBkGA1UdEQQSMBCCDnRlYW0zNDQtc2VydmVyMA0GCSqGSIb3
DQEBCwUAA4IBAQCvoH84dPp/Vg7RJVVVL4DLQJp8Yx28865mlZoXl/vUNkk3u1O2
c7Gaqmt+HhjZ8MDpvO7LU0N4iHoXj0F0pjKVDuw+Wc3ztuwql8nIiiAdxzoj0LSO
rTGI4S3TO2ZEGx6zSsWK1ueHj+30fEi3hp0gluxGOGNxTsTAwWpoqgSQLZIzquAc
9IdWOoMbXcwcRg99u3KfS8x06JfYGFk2EbvGqAn0AuG+LmZ7sh6pw1SmL9lpMegN
IFow3RK6hG5kNJpQKlCmby3OzcFueLHMHUCkQO/MV+4LmeKDJGetG2i/ki1fkT7e
JUWBmwGTpd4+P2X77BTafAUc+0tHApcsufkF
-----END CERTIFICATE-----
