Certificate:
    Data:
        Version: 3 (0x2)
        Serial Number:
            4c:04:cd:0c:04:86:d0:48:c8:58:f5:4d:86:34:95:8f
        Signature Algorithm: sha256WithRSAEncryption
        Issuer: CN=team60-net
        Validity
            Not Before: May 18 14:29:03 2022 GMT
            Not After : May  2 14:29:03 2025 GMT
        Subject: CN=team60-server
        Subject Public Key Info:
            Public Key Algorithm: rsaEncryption
                RSA Public-Key: (2048 bit)
                Modulus:
                    00:b8:a0:95:08:df:f5:8a:ec:f6:44:e6:6b:c7:6c:
                    0e:17:e4:70:6f:c1:d7:9f:91:6f:5a:2d:94:a6:37:
                    e4:bb:0f:d4:0e:12:af:82:0d:16:a5:da:da:d6:af:
                    31:a2:25:31:d3:55:aa:33:a0:34:d3:e4:1e:0a:d2:
                    ca:c4:1f:03:5b:eb:e4:8b:6b:a4:69:0e:16:09:18:
                    46:1e:b7:e6:fa:73:42:f0:46:71:71:01:c2:4b:90:
                    ae:da:d0:62:bf:09:3c:01:25:23:67:8d:ae:f4:31:
                    9d:e3:59:12:82:1c:39:99:34:cc:88:fb:49:fd:bc:
                    38:2a:45:65:ca:30:2f:cd:4e:b5:8f:e0:43:b6:30:
                    be:a3:8e:44:d6:1e:60:2f:11:da:48:e4:8f:f0:d2:
                    80:85:db:bd:f0:a5:7c:78:fd:2a:32:69:3e:f3:41:
                    7a:d0:b2:d9:d6:35:13:6a:5d:ec:00:b6:9b:6d:1a:
                    82:89:db:64:33:00:11:1c:d0:2d:c0:b1:a3:cd:93:
                    43:2a:1c:9d:b5:71:00:fb:72:d9:39:1c:5c:e0:b2:
                    43:ec:99:1d:02:24:73:30:f1:80:97:0b:35:dd:25:
                    06:2c:4a:35:90:46:77:34:ea:2f:6b:cd:7b:8d:5d:
                    a9:10:66:ee:1a:0b:5a:0e:01:81:fc:91:68:5c:2a:
                    fd:a7
                Exponent: 65537 (0x10001)
        X509v3 extensions:
            X509v3 Basic Constraints: 
                CA:FALSE
            X509v3 Subject Key Identifier: 
                51:1E:BF:F4:D7:06:C2:4E:01:55:A2:71:DF:A6:88:D7:F5:07:BB:93
            X509v3 Authority Key Identifier: 
                keyid:37:12:CF:08:89:9E:EE:4A:35:85:E1:DD:EE:42:B2:16:65:B6:75:61
                DirName:/CN=team60-net
                serial:51:6E:6F:52:84:80:A2:CE:83:F1:46:7A:D0:5D:3E:0D:CE:EC:8A:BE

            X509v3 Extended Key Usage: 
                TLS Web Server Authentication
            X509v3 Key Usage: 
                Digital Signature, Key Encipherment
            X509v3 Subject Alternative Name: 
                DNS:team60-server
    Signature Algorithm: sha256WithRSAEncryption
         65:fa:45:33:ee:61:97:ca:a7:d6:71:7f:09:95:20:41:ac:a8:
         6d:4d:33:2f:df:f5:0e:34:67:3f:e0:67:94:c1:8e:b3:97:10:
         98:a0:32:65:52:a4:1a:a1:8c:11:41:a5:ed:da:da:d1:12:e2:
         e1:4c:a5:fd:db:ee:0b:9a:d7:27:d3:f6:1e:00:1c:56:81:35:
         b4:1b:cd:e8:88:a9:3c:46:c3:7d:c9:41:f0:12:1b:6c:c9:70:
         6a:0f:9a:93:69:6a:91:ac:75:23:47:87:89:29:92:10:6a:40:
         3a:99:98:3f:9c:8d:a3:54:e3:e7:ad:e3:7f:d6:b4:85:a4:7a:
         5e:77:20:52:be:6d:ad:80:cf:ab:02:04:de:63:fd:25:80:99:
         fd:2c:69:51:61:49:d5:e2:b3:75:ea:2b:83:0a:ee:1e:6f:1e:
         cd:d6:8e:88:32:9d:8e:8d:3e:87:85:17:45:32:e2:f9:ed:a1:
         aa:e6:1e:79:38:12:2f:7f:bf:b0:5b:61:5c:c3:1f:83:08:2b:
         22:eb:9b:a9:32:ea:3e:b8:5e:02:5f:4a:a4:25:31:ed:20:43:
         2a:bc:01:37:78:39:d9:a1:38:2d:d0:31:6e:d2:99:ae:9a:54:
         f1:df:37:8e:22:ed:17:6d:40:b7:df:02:92:de:63:6b:4a:b4:
         d7:a2:f1:f2
-----BEGIN CERTIFICATE-----
MIIDczCCAlugAwIBAgIQTATNDASG0EjIWPVNhjSVjzANBgkqhkiG9w0BAQsFADAV
MRMwEQYDVQQDDAp0ZWFtNjAtbmV0MB4XDTIyMDUxODE0MjkwM1oXDTI1MDUwMjE0
MjkwM1owGDEWMBQGA1UEAwwNdGVhbTYwLXNlcnZlcjCCASIwDQYJKoZIhvcNAQEB
BQADggEPADCCAQoCggEBALiglQjf9Yrs9kTma8dsDhfkcG/B15+Rb1otlKY35LsP
1A4Sr4INFqXa2tavMaIlMdNVqjOgNNPkHgrSysQfA1vr5ItrpGkOFgkYRh635vpz
QvBGcXEBwkuQrtrQYr8JPAElI2eNrvQxneNZEoIcOZk0zIj7Sf28OCpFZcowL81O
tY/gQ7YwvqOORNYeYC8R2kjkj/DSgIXbvfClfHj9KjJpPvNBetCy2dY1E2pd7AC2
m20agonbZDMAERzQLcCxo82TQyocnbVxAPty2TkcXOCyQ+yZHQIkczDxgJcLNd0l
BixKNZBGdzTqL2vNe41dqRBm7hoLWg4BgfyRaFwq/acCAwEAAaOBuzCBuDAJBgNV
HRMEAjAAMB0GA1UdDgQWBBRRHr/01wbCTgFVonHfpojX9Qe7kzBQBgNVHSMESTBH
gBQ3Es8IiZ7uSjWF4d3uQrIWZbZ1YaEZpBcwFTETMBEGA1UEAwwKdGVhbTYwLW5l
dIIUUW5vUoSAos6D8UZ60F0+Dc7sir4wEwYDVR0lBAwwCgYIKwYBBQUHAwEwCwYD
VR0PBAQDAgWgMBgGA1UdEQQRMA+CDXRlYW02MC1zZXJ2ZXIwDQYJKoZIhvcNAQEL
BQADggEBAGX6RTPuYZfKp9ZxfwmVIEGsqG1NMy/f9Q40Zz/gZ5TBjrOXEJigMmVS
pBqhjBFBpe3a2tES4uFMpf3b7gua1yfT9h4AHFaBNbQbzeiIqTxGw33JQfASG2zJ
cGoPmpNpapGsdSNHh4kpkhBqQDqZmD+cjaNU4+et43/WtIWkel53IFK+ba2Az6sC
BN5j/SWAmf0saVFhSdXis3XqK4MK7h5vHs3WjogynY6NPoeFF0Uy4vntoarmHnk4
Ei9/v7BbYVzDH4MIKyLrm6ky6j64XgJfSqQlMe0gQyq8ATd4OdmhOC3QMW7Sma6a
VPHfN44i7RdtQLffApLeY2tKtNei8fI=
-----END CERTIFICATE-----
