Certificate:
    Data:
        Version: 3 (0x2)
        Serial Number:
            b1:80:ae:f6:1d:72:41:68:8e:a7:b8:e7:ed:55:55:13
        Signature Algorithm: sha256WithRSAEncryption
        Issuer: CN=team225-net
        Validity
            Not Before: May 18 19:24:15 2022 GMT
            Not After : May  2 19:24:15 2025 GMT
        Subject: CN=team225-client
        Subject Public Key Info:
            Public Key Algorithm: rsaEncryption
                RSA Public-Key: (2048 bit)
                Modulus:
                    00:c2:7f:ac:5f:ac:cf:cb:cc:02:3e:15:de:26:e8:
                    d3:50:36:47:ac:57:b1:57:f3:31:da:4a:78:b9:69:
                    30:b3:e0:7d:e8:84:dd:ee:cc:15:43:d4:c0:86:ae:
                    ae:28:cb:ce:3e:aa:f2:61:88:15:b1:7a:40:f7:ee:
                    45:24:4e:99:a8:87:3a:dc:49:3f:f8:ec:cf:e5:9a:
                    9c:d4:20:2e:c6:0e:ff:89:6e:31:0f:aa:6d:88:5a:
                    85:e8:fa:78:48:e8:9e:5a:01:a4:4e:7c:91:f3:1f:
                    ee:83:40:d8:f8:8a:97:0c:62:56:80:06:6b:81:4f:
                    8c:5b:5f:b5:c6:39:4f:69:81:37:85:f4:80:12:4f:
                    6d:64:66:9c:08:5c:f9:8b:5e:c7:f2:ff:66:ac:5d:
                    24:bd:5d:c7:af:dd:c5:08:4c:96:45:c6:71:bd:26:
                    fa:bd:15:90:be:c9:1a:a8:a5:98:2e:b3:5b:8e:1e:
                    27:3a:26:35:6d:98:55:5c:4d:03:64:cc:07:0e:12:
                    6c:a8:0e:52:f4:89:44:3a:3f:d9:10:d9:4e:f5:d2:
                    94:30:1a:d2:bd:25:da:51:98:4b:15:05:7f:d5:2e:
                    3d:a1:7d:41:2d:54:02:df:39:0f:cb:ce:fc:b8:2e:
                    85:ec:fc:cc:24:af:d8:c2:f4:02:f9:28:04:cd:7d:
                    a9:81
                Exponent: 65537 (0x10001)
        X509v3 extensions:
            X509v3 Basic Constraints: 
                CA:FALSE
            X509v3 Subject Key Identifier: 
                97:77:AD:4C:61:10:3A:F0:F5:1D:1E:03:78:63:FA:23:78:39:5A:81
            X509v3 Authority Key Identifier: 
                keyid:82:0E:40:23:64:18:E5:8B:D3:6A:94:B1:50:4A:8E:9F:1F:70:F7:33
                DirName:/CN=team225-net
                serial:08:A6:DF:0F:71:3E:16:6D:7D:7A:8C:1C:61:E2:FF:30:33:C7:62:AF

            X509v3 Extended Key Usage: 
                TLS Web Client Authentication
            X509v3 Key Usage: 
                Digital Signature
    Signature Algorithm: sha256WithRSAEncryption
         e4:a3:b3:16:ad:f7:0b:10:68:94:70:3c:9b:3f:98:18:3e:ea:
         56:41:ae:ba:e3:c6:d5:44:a1:7a:f7:5f:ce:b7:25:f1:ec:91:
         70:a0:cc:88:de:19:bf:91:c0:66:71:2c:b7:c7:52:fb:bd:fd:
         95:d5:1e:02:3e:f3:44:c8:69:ec:e2:13:96:4b:17:6b:59:5b:
         cc:e7:5a:d3:10:a4:e0:9a:ef:b2:0a:83:b8:a3:8f:cc:55:29:
         47:b7:fc:d7:67:d0:73:0a:5e:a6:11:56:44:20:77:b2:08:18:
         aa:65:56:04:21:54:4d:51:5b:5a:68:3a:0b:a0:a5:ff:30:22:
         3b:8c:0d:4d:d9:94:7d:54:41:3e:8e:36:a2:55:6e:02:c6:9e:
         ba:a7:b5:a0:bc:94:63:11:6f:90:c0:f9:13:cd:6a:13:14:d2:
         e0:59:da:e1:34:6b:15:ae:a2:ec:84:e4:2f:e8:bf:c1:17:15:
         19:a7:cf:38:10:72:34:b2:46:5b:20:1a:57:98:1e:16:45:b2:
         05:66:48:1a:91:78:31:e8:97:14:09:9b:82:81:0c:58:c0:ea:
         45:2d:3e:77:a8:54:fe:54:bd:ba:37:24:20:99:34:f2:c0:fb:
         55:cd:db:88:18:3b:5f:75:25:94:98:2b:0f:e6:2e:82:78:aa:
         a6:54:3a:df
-----BEGIN CERTIFICATE-----
MIIDXTCCAkWgAwIBAgIRALGArvYdckFojqe45+1VVRMwDQYJKoZIhvcNAQELBQAw
FjEUMBIGA1UEAwwLdGVhbTIyNS1uZXQwHhcNMjIwNTE4MTkyNDE1WhcNMjUwNTAy
MTkyNDE1WjAZMRcwFQYDVQQDDA50ZWFtMjI1LWNsaWVudDCCASIwDQYJKoZIhvcN
AQEBBQADggEPADCCAQoCggEBAMJ/rF+sz8vMAj4V3ibo01A2R6xXsVfzMdpKeLlp
MLPgfeiE3e7MFUPUwIaurijLzj6q8mGIFbF6QPfuRSROmaiHOtxJP/jsz+WanNQg
LsYO/4luMQ+qbYhahej6eEjonloBpE58kfMf7oNA2PiKlwxiVoAGa4FPjFtftcY5
T2mBN4X0gBJPbWRmnAhc+Ytex/L/ZqxdJL1dx6/dxQhMlkXGcb0m+r0VkL7JGqil
mC6zW44eJzomNW2YVVxNA2TMBw4SbKgOUvSJRDo/2RDZTvXSlDAa0r0l2lGYSxUF
f9UuPaF9QS1UAt85D8vO/Lguhez8zCSv2ML0AvkoBM19qYECAwEAAaOBojCBnzAJ
BgNVHRMEAjAAMB0GA1UdDgQWBBSXd61MYRA68PUdHgN4Y/ojeDlagTBRBgNVHSME
SjBIgBSCDkAjZBjli9NqlLFQSo6fH3D3M6EapBgwFjEUMBIGA1UEAwwLdGVhbTIy
NS1uZXSCFAim3w9xPhZtfXqMHGHi/zAzx2KvMBMGA1UdJQQMMAoGCCsGAQUFBwMC
MAsGA1UdDwQEAwIHgDANBgkqhkiG9w0BAQsFAAOCAQEA5KOzFq33CxBolHA8mz+Y
GD7qVkGuuuPG1UShevdfzrcl8eyRcKDMiN4Zv5HAZnEst8dS+739ldUeAj7zRMhp
7OITlksXa1lbzOda0xCk4JrvsgqDuKOPzFUpR7f812fQcwpephFWRCB3sggYqmVW
BCFUTVFbWmg6C6Cl/zAiO4wNTdmUfVRBPo42olVuAsaeuqe1oLyUYxFvkMD5E81q
ExTS4Fna4TRrFa6i7ITkL+i/wRcVGafPOBByNLJGWyAaV5geFkWyBWZIGpF4MeiX
FAmbgoEMWMDqRS0+d6hU/lS9ujckIJk08sD7Vc3biBg7X3UllJgrD+YugniqplQ6
3w==
-----END CERTIFICATE-----
