Certificate:
    Data:
        Version: 3 (0x2)
        Serial Number:
            e9:1e:ab:61:19:b5:a7:1f:61:0c:2c:6a:e5:a2:9d:8c
        Signature Algorithm: sha256WithRSAEncryption
        Issuer: CN=team357-net
        Validity
            Not Before: May 18 20:39:10 2022 GMT
            Not After : May  2 20:39:10 2025 GMT
        Subject: CN=team357-server
        Subject Public Key Info:
            Public Key Algorithm: rsaEncryption
                RSA Public-Key: (2048 bit)
                Modulus:
                    00:bf:7f:aa:01:f9:37:38:30:97:3e:88:3c:22:ff:
                    41:75:f7:5d:fc:51:f8:53:f4:32:e9:0e:7b:df:2c:
                    ff:e7:48:c5:2a:77:34:10:16:b3:a3:8a:de:e9:49:
                    1e:01:e1:bb:c3:89:63:45:65:57:68:2b:73:e9:80:
                    ae:b3:d1:f6:ad:3f:63:fa:fd:94:cf:c2:26:e1:b9:
                    91:10:44:5e:e5:ae:67:cd:c3:1a:eb:4c:b0:7b:39:
                    6c:ff:f0:ac:34:28:93:0d:d4:a8:55:cd:03:68:62:
                    9d:92:15:5f:0f:fa:bc:c3:5c:20:be:34:09:bc:c6:
                    ad:74:17:2a:77:67:f5:cb:8b:89:7d:03:c5:bd:b0:
                    47:b5:cb:23:12:db:5c:6c:1b:64:76:24:0d:33:18:
                    4f:3c:4f:71:b7:6f:02:e3:71:9c:d1:47:21:79:e1:
                    25:e6:f4:39:be:e1:8b:76:b6:1c:f0:df:2b:1e:ec:
                    31:ba:63:f2:e0:93:cc:1a:89:aa:cf:4e:06:b8:a1:
                    e5:1b:e7:37:8c:e7:c5:e8:10:49:e1:14:e7:51:f6:
                    d8:c9:8f:ae:7d:f6:66:67:3f:9c:6e:00:36:e3:63:
                    d6:86:e6:3c:24:fe:8b:ba:ef:00:c7:a5:15:56:f3:
                    04:76:27:cf:2a:3e:da:29:9d:91:b8:09:d4:cb:4c:
                    fd:27
                Exponent: 65537 (0x10001)
        X509v3 extensions:
            X509v3 Basic Constraints: 
                CA:FALSE
            X509v3 Subject Key Identifier: 
                D6:73:42:2A:CB:61:5E:B7:7A:F7:E4:DB:E6:10:2B:55:5F:A4:11:FB
            X509v3 Authority Key Identifier: 
                keyid:11:B6:9A:6A:27:82:A9:76:D6:B5:89:73:EC:51:BD:31:05:47:74:64
                DirName:/CN=team357-net
                serial:38:A1:EA:67:A2:27:A5:03:21:47:E7:AC:42:C9:CE:1B:BA:22:42:D4

            X509v3 Extended Key Usage: 
                TLS Web Server Authentication
            X509v3 Key Usage: 
                Digital Signature, Key Encipherment
            X509v3 Subject Alternative Name: 
                DNS:team357-server
    Signature Algorithm: sha256WithRSAEncryption
         a7:55:c8:d9:59:19:54:21:86:43:8f:6a:b4:6a:1b:ef:cf:e8:
         dd:80:1f:0a:08:33:3b:21:94:80:7d:5a:1a:d3:6e:21:b7:2d:
         e8:6f:3b:e8:18:d4:c0:bd:39:ec:11:f9:2a:3f:2a:c5:36:c6:
         98:5b:52:6d:ea:e2:92:d7:e6:5f:a4:52:4d:ec:9b:e1:61:23:
         d7:51:96:01:cd:97:11:09:54:8a:b7:5b:34:38:32:f8:ab:88:
         f7:9b:d5:db:3b:6c:2e:fc:cc:b0:7b:68:db:73:f3:f1:d5:35:
         d7:9c:af:89:2d:67:75:38:4a:36:b7:a8:6c:1e:73:0d:0a:b8:
         4a:1b:18:e3:76:7d:4a:e9:01:83:10:97:91:f6:a4:42:75:28:
         a1:6a:eb:b1:32:1a:c6:85:cb:e6:97:94:bc:44:e7:66:bd:01:
         72:e6:35:99:a9:48:61:98:3a:46:29:a6:82:80:65:22:16:4f:
         32:cb:74:f9:30:0f:67:58:86:21:60:54:ef:5c:f7:de:7c:27:
         60:b4:af:a7:a3:89:ac:95:5d:65:c0:7a:e5:8f:ac:47:05:82:
         92:d5:eb:e2:c1:8b:82:3d:2a:e4:de:da:10:cd:e4:7a:69:2e:
         be:eb:9e:6e:f6:8f:f6:47:6c:39:af:dc:13:fa:92:8a:d3:5b:
         ea:ff:27:d2
-----BEGIN CERTIFICATE-----
MIIDeDCCAmCgAwIBAgIRAOkeq2EZtacfYQwsauWinYwwDQYJKoZIhvcNAQELBQAw
FjEUMBIGA1UEAwwLdGVhbTM1Ny1uZXQwHhcNMjIwNTE4MjAzOTEwWhcNMjUwNTAy
MjAzOTEwWjAZMRcwFQYDVQQDDA50ZWFtMzU3LXNlcnZlcjCCASIwDQYJKoZIhvcN
AQEBBQADggEPADCCAQoCggEBAL9/qgH5Nzgwlz6IPCL/QXX3XfxR+FP0MukOe98s
/+dIxSp3NBAWs6OK3ulJHgHhu8OJY0VlV2grc+mArrPR9q0/Y/r9lM/CJuG5kRBE
XuWuZ83DGutMsHs5bP/wrDQokw3UqFXNA2hinZIVXw/6vMNcIL40CbzGrXQXKndn
9cuLiX0Dxb2wR7XLIxLbXGwbZHYkDTMYTzxPcbdvAuNxnNFHIXnhJeb0Ob7hi3a2
HPDfKx7sMbpj8uCTzBqJqs9OBrih5RvnN4znxegQSeEU51H22MmPrn32Zmc/nG4A
NuNj1obmPCT+i7rvAMelFVbzBHYnzyo+2imdkbgJ1MtM/ScCAwEAAaOBvTCBujAJ
BgNVHRMEAjAAMB0GA1UdDgQWBBTWc0Iqy2Fet3r35NvmECtVX6QR+zBRBgNVHSME
SjBIgBQRtppqJ4Kpdta1iXPsUb0xBUd0ZKEapBgwFjEUMBIGA1UEAwwLdGVhbTM1
Ny1uZXSCFDih6meiJ6UDIUfnrELJzhu6IkLUMBMGA1UdJQQMMAoGCCsGAQUFBwMB
MAsGA1UdDwQEAwIFoDAZBgNVHREEEjAQgg50ZWFtMzU3LXNlcnZlcjANBgkqhkiG
9w0BAQsFAAOCAQEAp1XI2VkZVCGGQ49qtGob78/o3YAfCggzOyGUgH1aGtNuIbct
6G876BjUwL057BH5Kj8qxTbGmFtSberiktfmX6RSTeyb4WEj11GWAc2XEQlUirdb
NDgy+KuI95vV2ztsLvzMsHto23Pz8dU115yviS1ndThKNreobB5zDQq4ShsY43Z9
SukBgxCXkfakQnUooWrrsTIaxoXL5peUvETnZr0BcuY1malIYZg6RimmgoBlIhZP
Mst0+TAPZ1iGIWBU71z33nwnYLSvp6OJrJVdZcB65Y+sRwWCktXr4sGLgj0q5N7a
EM3kemkuvuuebvaP9kdsOa/cE/qSitNb6v8n0g==
-----END CERTIFICATE-----
