Certificate:
    Data:
        Version: 3 (0x2)
        Serial Number:
            e5:72:cd:e0:70:bc:75:f6:7a:3e:4c:86:29:fc:f8:64
        Signature Algorithm: sha256WithRSAEncryption
        Issuer: CN=team133-net
        Validity
            Not Before: May 18 15:14:13 2022 GMT
            Not After : May  2 15:14:13 2025 GMT
        Subject: CN=team133-server
        Subject Public Key Info:
            Public Key Algorithm: rsaEncryption
                RSA Public-Key: (2048 bit)
                Modulus:
                    00:dc:ea:a8:09:04:ce:c7:fe:73:20:68:f0:bf:2e:
                    2f:8c:39:76:07:c2:4d:1b:1b:bd:c7:a8:57:f4:3d:
                    ab:ea:66:90:75:3a:cd:15:3c:91:db:5f:67:86:82:
                    1c:40:76:8e:8f:32:32:0e:79:9d:54:c1:12:67:9e:
                    c8:21:06:86:97:59:b1:6f:e0:bb:26:ea:49:bb:6c:
                    e3:83:44:04:61:c9:9d:57:8a:3b:c2:5c:91:4f:ee:
                    cc:22:2c:5e:1b:9b:25:e8:a3:a4:a2:91:17:44:39:
                    3a:3e:99:34:a2:b8:39:35:dc:da:c5:0e:f7:06:b9:
                    30:3c:24:b0:b7:d5:57:ac:2e:1a:17:e8:42:64:0e:
                    31:18:0c:25:39:c2:4b:6f:8b:a1:f1:df:42:59:73:
                    08:5e:50:68:69:3c:65:99:f6:19:2f:56:d6:ff:c5:
                    73:e1:6a:03:d0:52:69:9f:2b:4e:be:4e:c6:84:8a:
                    c4:44:9d:9a:2e:44:69:1a:d9:ac:bd:85:c6:6f:dd:
                    68:0d:f6:4a:ca:01:a0:b5:a0:76:d6:64:79:c8:5f:
                    e8:ef:27:c1:3d:11:df:bc:39:b8:65:62:09:21:98:
                    16:4b:43:14:37:3f:db:e8:de:ab:69:8c:dc:14:35:
                    cd:60:ae:0f:98:a2:aa:8b:e0:85:78:1b:a6:6b:1f:
                    3e:27
                Exponent: 65537 (0x10001)
        X509v3 extensions:
            X509v3 Basic Constraints: 
                CA:FALSE
            X509v3 Subject Key Identifier: 
                D9:21:48:EC:26:B6:F4:5E:43:FA:0A:C1:DF:B6:61:98:A1:3D:FE:23
            X509v3 Authority Key Identifier: 
                keyid:2E:A0:EF:6B:4C:FC:D5:57:4A:0D:56:D1:AC:8F:39:42:41:8E:01:6A
                DirName:/CN=team133-net
                serial:61:3A:08:E1:7D:3D:FE:3B:AC:E1:B7:91:10:5C:94:F4:B0:DD:17:80

            X509v3 Extended Key Usage: 
                TLS Web Server Authentication
            X509v3 Key Usage: 
                Digital Signature, Key Encipherment
            X509v3 Subject Alternative Name: 
                DNS:team133-server
    Signature Algorithm: sha256WithRSAEncryption
         90:b5:16:7e:45:b1:49:bb:be:31:a3:c6:2f:1f:6d:06:8f:0a:
         85:ed:7f:b0:70:c7:96:f2:bf:cc:99:a0:d9:80:8a:60:a5:b0:
         3a:bc:b7:fd:e9:17:73:ee:84:f2:41:15:ad:e4:47:1e:df:59:
         ad:a2:50:f4:61:5e:dd:fe:45:c4:f7:1b:dc:86:d8:8e:49:58:
         97:fc:b1:8e:01:26:af:41:c9:ed:95:bc:91:e4:0a:17:71:86:
         c5:47:b8:3d:f6:85:56:77:81:ed:ac:50:f3:13:ba:80:c1:1a:
         ab:a9:50:d2:72:7b:fe:a0:e6:f9:4e:b6:81:f0:94:49:8b:a0:
         81:e6:ca:e5:0e:f1:6c:38:53:33:f8:40:1f:d3:e8:bc:ee:de:
         3e:fe:9a:a2:6c:d3:76:2f:cb:a3:46:f5:65:cf:90:65:76:40:
         9a:41:89:11:7b:14:e4:a0:c8:33:7a:95:b2:a0:5d:67:11:e9:
         02:28:81:aa:3e:b1:bd:1b:e7:35:f5:1a:c3:f4:1c:c8:62:b7:
         0d:a0:79:6a:54:1b:62:1b:f4:db:f6:9f:ad:12:38:dd:5d:aa:
         eb:6c:05:a6:01:0f:17:23:32:83:c0:15:17:f0:83:a1:f1:62:
         8a:15:fa:4a:f1:8a:c4:02:ef:75:a1:3f:22:e1:4c:64:af:10:
         6f:4a:67:e8
-----BEGIN CERTIFICATE-----
MIIDeDCCAmCgAwIBAgIRAOVyzeBwvHX2ej5Mhin8+GQwDQYJKoZIhvcNAQELBQAw
FjEUMBIGA1UEAwwLdGVhbTEzMy1uZXQwHhcNMjIwNTE4MTUxNDEzWhcNMjUwNTAy
MTUxNDEzWjAZMRcwFQYDVQQDDA50ZWFtMTMzLXNlcnZlcjCCASIwDQYJKoZIhvcN
AQEBBQADggEPADCCAQoCggEBANzqqAkEzsf+cyBo8L8uL4w5dgfCTRsbvceoV/Q9
q+pmkHU6zRU8kdtfZ4aCHEB2jo8yMg55nVTBEmeeyCEGhpdZsW/guybqSbts44NE
BGHJnVeKO8JckU/uzCIsXhubJeijpKKRF0Q5Oj6ZNKK4OTXc2sUO9wa5MDwksLfV
V6wuGhfoQmQOMRgMJTnCS2+LofHfQllzCF5QaGk8ZZn2GS9W1v/Fc+FqA9BSaZ8r
Tr5OxoSKxESdmi5EaRrZrL2Fxm/daA32SsoBoLWgdtZkechf6O8nwT0R37w5uGVi
CSGYFktDFDc/2+jeq2mM3BQ1zWCuD5iiqovghXgbpmsfPicCAwEAAaOBvTCBujAJ
BgNVHRMEAjAAMB0GA1UdDgQWBBTZIUjsJrb0XkP6CsHftmGYoT3+IzBRBgNVHSME
SjBIgBQuoO9rTPzVV0oNVtGsjzlCQY4BaqEapBgwFjEUMBIGA1UEAwwLdGVhbTEz
My1uZXSCFGE6COF9Pf47rOG3kRBclPSw3ReAMBMGA1UdJQQMMAoGCCsGAQUFBwMB
MAsGA1UdDwQEAwIFoDAZBgNVHREEEjAQgg50ZWFtMTMzLXNlcnZlcjANBgkqhkiG
9w0BAQsFAAOCAQEAkLUWfkWxSbu+MaPGLx9tBo8Khe1/sHDHlvK/zJmg2YCKYKWw
Ory3/ekXc+6E8kEVreRHHt9ZraJQ9GFe3f5FxPcb3IbYjklYl/yxjgEmr0HJ7ZW8
keQKF3GGxUe4PfaFVneB7axQ8xO6gMEaq6lQ0nJ7/qDm+U62gfCUSYuggebK5Q7x
bDhTM/hAH9PovO7ePv6aomzTdi/Lo0b1Zc+QZXZAmkGJEXsU5KDIM3qVsqBdZxHp
AiiBqj6xvRvnNfUaw/QcyGK3DaB5alQbYhv02/afrRI43V2q62wFpgEPFyMyg8AV
F/CDofFiihX6SvGKxALvdaE/IuFMZK8Qb0pn6A==
-----END CERTIFICATE-----
