Certificate:
    Data:
        Version: 3 (0x2)
        Serial Number:
            c2:21:54:5a:4b:2f:d2:37:1d:f5:65:4c:55:35:dc:2f
        Signature Algorithm: sha256WithRSAEncryption
        Issuer: CN=team555-net
        Validity
            Not Before: May 18 22:15:37 2022 GMT
            Not After : May  2 22:15:37 2025 GMT
        Subject: CN=team555-server
        Subject Public Key Info:
            Public Key Algorithm: rsaEncryption
                RSA Public-Key: (2048 bit)
                Modulus:
                    00:d1:87:8e:8e:55:1a:be:80:0a:6d:9d:ad:b1:bb:
                    3b:d5:84:95:4f:d0:0f:0c:c8:fa:3c:86:34:a7:4b:
                    91:56:04:e8:3a:4f:46:5b:00:d5:a8:f9:c1:4f:16:
                    bc:3e:36:74:bd:82:da:0c:d1:25:9c:fd:b4:90:6a:
                    f1:69:9c:b5:d9:07:7e:a9:8a:e6:cd:68:d1:f6:46:
                    ee:85:32:52:68:70:8d:23:b9:18:32:88:08:73:59:
                    bd:28:00:5b:47:cf:49:10:d9:ae:a7:ec:58:98:d8:
                    ee:fb:47:8a:10:6c:fd:a1:73:1f:3c:87:f7:1e:7e:
                    4e:62:2d:10:0e:ff:54:e5:f1:b3:ac:18:60:37:bc:
                    7a:27:e5:5a:08:a1:fe:7c:41:69:c1:68:8d:80:ec:
                    9a:5b:75:f9:da:85:e4:21:28:61:fa:87:3e:bf:cc:
                    7e:45:8a:ed:69:45:5a:ba:7b:33:fa:0d:68:8b:a6:
                    f7:d2:8b:cb:fb:5d:05:4c:2d:87:7c:78:44:96:ad:
                    db:f7:1e:ee:ca:23:18:16:95:aa:37:69:1b:97:34:
                    b3:48:6d:47:4b:e9:cc:f2:e8:ed:92:16:e5:b4:4f:
                    94:1f:cd:8c:ff:c0:59:a4:80:06:c4:32:ed:48:3e:
                    45:1b:32:cc:e5:1c:a5:dd:56:29:8d:60:e3:ae:95:
                    88:81
                Exponent: 65537 (0x10001)
        X509v3 extensions:
            X509v3 Basic Constraints: 
                CA:FALSE
            X509v3 Subject Key Identifier: 
                D2:A0:01:0A:64:95:B5:D8:C2:CA:21:4B:3A:94:B6:23:7A:2D:9A:59
            X509v3 Authority Key Identifier: 
                keyid:C3:7C:E1:BC:66:75:BA:13:A0:30:A4:6F:B2:2F:96:9F:9D:87:A0:39
                DirName:/CN=team555-net
                serial:78:0B:69:BE:C7:5D:A5:27:FD:18:50:AC:B1:64:E1:9F:C1:34:85:F0

            X509v3 Extended Key Usage: 
                TLS Web Server Authentication
            X509v3 Key Usage: 
                Digital Signature, Key Encipherment
            X509v3 Subject Alternative Name: 
                DNS:team555-server
    Signature Algorithm: sha256WithRSAEncryption
         92:49:84:a7:e8:12:e6:4b:63:59:5b:0c:78:25:a2:d5:97:9c:
         8c:c4:72:87:b5:06:f3:eb:8b:c2:44:3c:35:27:7a:2c:62:c1:
         56:0f:26:6a:8d:ab:fc:f5:76:cf:15:ed:f6:cb:4a:94:37:48:
         84:25:54:61:1c:a5:81:1b:ab:ea:44:22:41:16:c5:77:04:98:
         21:22:a1:05:cb:17:55:00:ce:ef:8c:2f:d5:77:bf:16:f8:5f:
         6c:2b:b7:fb:08:f9:35:29:d1:4c:17:ba:85:0b:72:4a:2d:32:
         4d:24:e3:0c:48:92:3f:06:19:12:4d:91:54:04:66:0a:e9:94:
         bb:09:d8:62:6b:5b:d7:40:0c:94:8e:91:14:e4:ce:ab:06:fd:
         36:7d:40:6e:dc:9c:88:d1:b1:2c:c9:81:f0:cf:32:90:3a:e5:
         88:92:9f:17:9c:cf:84:38:c5:3b:f7:5b:24:b8:33:40:b4:93:
         56:cf:81:c7:a3:44:b3:4b:c2:5f:96:df:11:d4:95:ee:ad:61:
         52:68:53:bd:7d:89:c4:d9:3c:54:cc:e2:38:22:e6:e7:b5:b7:
         08:7e:5b:1c:2b:11:fd:9f:d9:35:40:ed:d0:0c:de:69:98:72:
         22:ad:51:05:f7:bb:55:96:c9:45:3e:44:3f:48:3c:4b:33:eb:
         a0:d1:e6:d4
-----BEGIN CERTIFICATE-----
MIIDeDCCAmCgAwIBAgIRAMIhVFpLL9I3HfVlTFU13C8wDQYJKoZIhvcNAQELBQAw
FjEUMBIGA1UEAwwLdGVhbTU1NS1uZXQwHhcNMjIwNTE4MjIxNTM3WhcNMjUwNTAy
MjIxNTM3WjAZMRcwFQYDVQQDDA50ZWFtNTU1LXNlcnZlcjCCASIwDQYJKoZIhvcN
AQEBBQADggEPADCCAQoCggEBANGHjo5VGr6ACm2drbG7O9WElU/QDwzI+jyGNKdL
kVYE6DpPRlsA1aj5wU8WvD42dL2C2gzRJZz9tJBq8WmctdkHfqmK5s1o0fZG7oUy
UmhwjSO5GDKICHNZvSgAW0fPSRDZrqfsWJjY7vtHihBs/aFzHzyH9x5+TmItEA7/
VOXxs6wYYDe8eiflWgih/nxBacFojYDsmlt1+dqF5CEoYfqHPr/MfkWK7WlFWrp7
M/oNaIum99KLy/tdBUwth3x4RJat2/ce7sojGBaVqjdpG5c0s0htR0vpzPLo7ZIW
5bRPlB/NjP/AWaSABsQy7Ug+RRsyzOUcpd1WKY1g466ViIECAwEAAaOBvTCBujAJ
BgNVHRMEAjAAMB0GA1UdDgQWBBTSoAEKZJW12MLKIUs6lLYjei2aWTBRBgNVHSME
SjBIgBTDfOG8ZnW6E6AwpG+yL5afnYegOaEapBgwFjEUMBIGA1UEAwwLdGVhbTU1
NS1uZXSCFHgLab7HXaUn/RhQrLFk4Z/BNIXwMBMGA1UdJQQMMAoGCCsGAQUFBwMB
MAsGA1UdDwQEAwIFoDAZBgNVHREEEjAQgg50ZWFtNTU1LXNlcnZlcjANBgkqhkiG
9w0BAQsFAAOCAQEAkkmEp+gS5ktjWVsMeCWi1ZecjMRyh7UG8+uLwkQ8NSd6LGLB
Vg8mao2r/PV2zxXt9stKlDdIhCVUYRylgRur6kQiQRbFdwSYISKhBcsXVQDO74wv
1Xe/FvhfbCu3+wj5NSnRTBe6hQtySi0yTSTjDEiSPwYZEk2RVARmCumUuwnYYmtb
10AMlI6RFOTOqwb9Nn1AbtyciNGxLMmB8M8ykDrliJKfF5zPhDjFO/dbJLgzQLST
Vs+Bx6NEs0vCX5bfEdSV7q1hUmhTvX2JxNk8VMziOCLm57W3CH5bHCsR/Z/ZNUDt
0AzeaZhyIq1RBfe7VZbJRT5EP0g8SzProNHm1A==
-----END CERTIFICATE-----
