Certificate:
    Data:
        Version: 3 (0x2)
        Serial Number:
            54:a9:00:c4:02:dc:b5:33:f7:02:23:19:92:ab:fb:33
        Signature Algorithm: sha256WithRSAEncryption
        Issuer: CN=team659-net
        Validity
            Not Before: May 18 23:09:23 2022 GMT
            Not After : May  2 23:09:23 2025 GMT
        Subject: CN=team659-client
        Subject Public Key Info:
            Public Key Algorithm: rsaEncryption
                RSA Public-Key: (2048 bit)
                Modulus:
                    00:e0:f6:77:04:72:37:e0:54:bb:3e:b6:c7:8d:d4:
                    50:a6:c2:e3:51:31:92:33:4a:3f:37:20:2a:d8:18:
                    e8:79:f0:67:a9:7d:ea:20:e5:b0:7d:30:8a:4d:16:
                    96:b6:44:29:2e:48:7d:ab:3b:37:03:a4:2a:89:62:
                    5e:dd:56:38:7c:52:48:63:81:2a:01:6d:b5:36:45:
                    bf:f1:f8:2c:bb:35:8a:b6:40:02:a0:44:d4:85:84:
                    af:03:43:9c:f4:99:80:19:6f:bb:e8:1a:7c:5d:5a:
                    e7:9f:a6:15:e0:86:0e:9a:a9:83:cd:15:f3:97:41:
                    54:fe:d7:b4:8e:7c:3d:fa:2f:f2:73:00:d7:7a:29:
                    27:fb:15:7e:1e:10:12:88:55:95:94:c7:a0:07:46:
                    28:f4:4e:9e:c8:36:5f:6e:b0:af:12:52:08:6e:93:
                    a4:f4:0d:f2:33:bb:e5:c6:2f:78:95:84:78:7d:ba:
                    81:d3:b6:64:27:55:12:57:dc:f6:6c:08:90:e4:50:
                    be:e4:81:0b:7f:44:a0:31:64:e4:90:27:f8:f1:a1:
                    72:a0:47:2c:e8:a9:d2:3b:8a:31:b2:43:45:c4:93:
                    92:4d:63:77:5b:ff:19:c1:a7:09:50:90:ae:15:77:
                    99:ce:ce:4f:22:c5:56:c3:3e:50:0c:3a:f4:1b:bf:
                    e4:0b
                Exponent: 65537 (0x10001)
        X509v3 extensions:
            X509v3 Basic Constraints: 
                CA:FALSE
            X509v3 Subject Key Identifier: 
                30:E3:0F:DD:C6:DF:6C:61:27:3D:58:AE:27:C2:57:D4:E0:9B:ED:23
            X509v3 Authority Key Identifier: 
                keyid:78:B4:AA:5C:B1:5D:34:12:D3:00:8D:21:35:79:B5:29:12:BB:86:10
                DirName:/CN=team659-net
                serial:39:01:07:87:6B:08:D0:16:DE:94:DB:22:14:9C:23:33:34:E3:C6:6F

            X509v3 Extended Key Usage: 
                TLS Web Client Authentication
            X509v3 Key Usage: 
                Digital Signature
    Signature Algorithm: sha256WithRSAEncryption
         74:1d:1f:8a:24:1e:df:b6:d1:27:92:4b:e0:a2:92:8d:86:d9:
         42:57:61:67:f3:dd:63:bb:4a:9f:fc:bc:0f:88:56:70:2b:e5:
         b8:c4:b4:3a:a4:7e:28:17:b7:3c:8d:d3:01:6c:4f:e9:99:d2:
         26:00:5d:29:86:0f:7d:80:be:da:fe:20:10:19:f0:4a:9c:ee:
         4f:63:22:29:ba:b9:cf:82:24:85:8b:cf:8a:e2:2d:73:18:71:
         b8:e7:26:f7:5d:98:07:29:e6:bc:3b:98:af:6f:fd:6c:91:60:
         8a:ec:ae:57:26:f1:c8:50:c7:2d:83:4e:2a:ba:18:d0:67:0c:
         7c:77:c5:17:79:c1:48:34:0c:d1:d5:56:05:6c:ef:ef:8e:ca:
         96:0d:83:00:75:5c:1c:15:f6:3a:a6:23:05:df:fe:40:91:9d:
         59:11:a6:2f:a0:9c:e8:ab:21:ac:8c:43:3f:82:18:e9:f4:d5:
         fb:95:7a:83:67:7d:26:b7:e9:ad:a6:9d:56:2f:e7:18:bf:e2:
         26:68:7f:9a:81:f1:61:b2:42:57:96:64:73:d3:7b:a6:36:11:
         47:1b:b6:a2:ee:80:83:53:ae:1d:b4:52:6f:19:94:f8:62:65:
         5e:19:68:eb:05:49:29:3f:d3:be:0a:e1:6d:81:cb:5c:84:4c:
         58:9b:50:ad
-----BEGIN CERTIFICATE-----
MIIDXDCCAkSgAwIBAgIQVKkAxALctTP3AiMZkqv7MzANBgkqhkiG9w0BAQsFADAW
MRQwEgYDVQQDDAt0ZWFtNjU5LW5ldDAeFw0yMjA1MTgyMzA5MjNaFw0yNTA1MDIy
MzA5MjNaMBkxFzAVBgNVBAMMDnRlYW02NTktY2xpZW50MIIBIjANBgkqhkiG9w0B
AQEFAAOCAQ8AMIIBCgKCAQEA4PZ3BHI34FS7PrbHjdRQpsLjUTGSM0o/NyAq2Bjo
efBnqX3qIOWwfTCKTRaWtkQpLkh9qzs3A6QqiWJe3VY4fFJIY4EqAW21NkW/8fgs
uzWKtkACoETUhYSvA0Oc9JmAGW+76Bp8XVrnn6YV4IYOmqmDzRXzl0FU/te0jnw9
+i/ycwDXeikn+xV+HhASiFWVlMegB0Yo9E6eyDZfbrCvElIIbpOk9A3yM7vlxi94
lYR4fbqB07ZkJ1USV9z2bAiQ5FC+5IELf0SgMWTkkCf48aFyoEcs6KnSO4oxskNF
xJOSTWN3W/8ZwacJUJCuFXeZzs5PIsVWwz5QDDr0G7/kCwIDAQABo4GiMIGfMAkG
A1UdEwQCMAAwHQYDVR0OBBYEFDDjD93G32xhJz1YrifCV9Tgm+0jMFEGA1UdIwRK
MEiAFHi0qlyxXTQS0wCNITV5tSkSu4YQoRqkGDAWMRQwEgYDVQQDDAt0ZWFtNjU5
LW5ldIIUOQEHh2sI0BbelNsiFJwjMzTjxm8wEwYDVR0lBAwwCgYIKwYBBQUHAwIw
CwYDVR0PBAQDAgeAMA0GCSqGSIb3DQEBCwUAA4IBAQB0HR+KJB7fttEnkkvgopKN
htlCV2Fn891ju0qf/LwPiFZwK+W4xLQ6pH4oF7c8jdMBbE/pmdImAF0phg99gL7a
/iAQGfBKnO5PYyIpurnPgiSFi8+K4i1zGHG45yb3XZgHKea8O5ivb/1skWCK7K5X
JvHIUMctg04quhjQZwx8d8UXecFINAzR1VYFbO/vjsqWDYMAdVwcFfY6piMF3/5A
kZ1ZEaYvoJzoqyGsjEM/ghjp9NX7lXqDZ30mt+mtpp1WL+cYv+ImaH+agfFhskJX
lmRz03umNhFHG7ai7oCDU64dtFJvGZT4YmVeGWjrBUkpP9O+CuFtgctchExYm1Ct
-----END CERTIFICATE-----
