Certificate:
    Data:
        Version: 3 (0x2)
        Serial Number:
            6e:fb:24:f6:e3:b5:65:73:3b:eb:2a:39:54:c1:08:6b
        Signature Algorithm: sha256WithRSAEncryption
        Issuer: CN=team659-net
        Validity
            Not Before: May 18 23:09:23 2022 GMT
            Not After : May  2 23:09:23 2025 GMT
        Subject: CN=team659-server
        Subject Public Key Info:
            Public Key Algorithm: rsaEncryption
                RSA Public-Key: (2048 bit)
                Modulus:
                    00:c5:20:2a:01:18:a8:60:df:c9:92:53:50:ed:01:
                    63:5c:cf:37:f1:a1:b5:3e:16:f3:79:84:9b:9c:1d:
                    2e:7f:57:e6:7a:ba:52:06:b0:53:c9:df:9a:23:cc:
                    d0:c1:a1:d5:73:d2:b7:e0:80:1b:06:df:b6:5d:13:
                    9c:d2:90:67:cd:60:5c:dd:c8:48:e2:3e:19:d5:b8:
                    34:78:13:45:0e:d3:df:00:0b:03:bd:3c:48:da:f7:
                    4b:a2:d7:0b:62:0a:4d:85:d3:a6:18:48:fc:2a:a0:
                    35:da:cc:45:d4:19:ce:c8:b6:6a:56:52:22:4b:01:
                    15:ce:c3:e6:c5:3d:48:4b:9d:04:96:a9:30:bb:81:
                    86:b1:de:ea:eb:43:9c:03:54:6b:10:5b:02:eb:7f:
                    54:d7:40:58:29:c7:8c:ef:80:b0:58:8d:d4:5d:20:
                    18:8f:b3:72:99:61:9d:69:df:d5:46:c3:89:c3:48:
                    b9:35:c1:d6:6c:74:8a:50:75:ea:77:54:59:f4:6b:
                    48:85:75:e4:33:7b:30:fc:7d:32:5b:ce:b2:03:35:
                    63:54:bf:aa:29:5d:8f:c7:3e:47:ae:9a:42:cd:b6:
                    3a:a8:22:f3:9e:04:89:b4:d8:67:fc:ee:6a:4f:60:
                    b6:57:19:9c:a5:c1:7c:3f:ec:c7:03:4e:0d:99:aa:
                    63:d5
                Exponent: 65537 (0x10001)
        X509v3 extensions:
            X509v3 Basic Constraints: 
                CA:FALSE
            X509v3 Subject Key Identifier: 
                4F:69:E3:99:8A:F5:9E:9D:C2:A7:33:F5:B5:3D:89:6C:A9:3C:E6:EB
            X509v3 Authority Key Identifier: 
                keyid:78:B4:AA:5C:B1:5D:34:12:D3:00:8D:21:35:79:B5:29:12:BB:86:10
                DirName:/CN=team659-net
                serial:39:01:07:87:6B:08:D0:16:DE:94:DB:22:14:9C:23:33:34:E3:C6:6F

            X509v3 Extended Key Usage: 
                TLS Web Server Authentication
            X509v3 Key Usage: 
                Digital Signature, Key Encipherment
            X509v3 Subject Alternative Name: 
                DNS:team659-server
    Signature Algorithm: sha256WithRSAEncryption
         ca:11:97:ff:35:ad:fd:64:7f:e7:4b:cd:f4:f5:00:48:9a:ec:
         2b:7e:c9:06:83:f9:b1:85:57:74:b7:b3:99:6c:e1:d2:9f:c8:
         39:7d:9a:bf:a4:3b:c0:32:f2:57:de:db:bc:cb:29:74:9d:c0:
         ee:78:52:52:a6:a2:2c:be:2b:f3:8d:23:5b:6a:3d:2d:b4:c5:
         24:ae:33:27:1f:27:27:3f:04:ee:df:19:1c:5c:57:5c:51:4a:
         b1:b1:f7:ee:b6:22:01:1e:dc:b7:73:8d:28:35:9b:1d:af:71:
         da:b9:f1:f3:06:c9:8d:2d:0e:d4:f0:92:b0:d2:dd:98:df:e2:
         c7:45:30:ce:4f:ba:f8:2f:b0:2d:47:c4:7d:d3:94:92:c7:6f:
         98:d9:96:48:c3:65:5d:6b:af:a4:5b:6d:f2:31:22:de:c2:0c:
         93:eb:73:5b:70:35:ad:b1:2d:93:9c:5e:e2:56:a3:63:6d:2b:
         68:20:16:15:eb:bb:21:65:ef:69:3f:77:26:7e:2d:0d:de:27:
         6c:c3:59:f6:92:9e:be:63:b0:56:50:f7:c8:99:71:73:3d:6d:
         7c:c5:f9:37:90:73:69:96:25:01:51:62:00:4e:49:4d:04:ea:
         96:99:65:e5:f0:86:ff:7d:24:11:dd:3e:b0:c6:7e:78:ce:b3:
         1b:a3:5c:e7
-----BEGIN CERTIFICATE-----
MIIDdzCCAl+gAwIBAgIQbvsk9uO1ZXM76yo5VMEIazANBgkqhkiG9w0BAQsFADAW
MRQwEgYDVQQDDAt0ZWFtNjU5LW5ldDAeFw0yMjA1MTgyMzA5MjNaFw0yNTA1MDIy
MzA5MjNaMBkxFzAVBgNVBAMMDnRlYW02NTktc2VydmVyMIIBIjANBgkqhkiG9w0B
AQEFAAOCAQ8AMIIBCgKCAQEAxSAqARioYN/JklNQ7QFjXM838aG1PhbzeYSbnB0u
f1fmerpSBrBTyd+aI8zQwaHVc9K34IAbBt+2XROc0pBnzWBc3chI4j4Z1bg0eBNF
DtPfAAsDvTxI2vdLotcLYgpNhdOmGEj8KqA12sxF1BnOyLZqVlIiSwEVzsPmxT1I
S50Elqkwu4GGsd7q60OcA1RrEFsC639U10BYKceM74CwWI3UXSAYj7NymWGdad/V
RsOJw0i5NcHWbHSKUHXqd1RZ9GtIhXXkM3sw/H0yW86yAzVjVL+qKV2Pxz5HrppC
zbY6qCLzngSJtNhn/O5qT2C2VxmcpcF8P+zHA04Nmapj1QIDAQABo4G9MIG6MAkG
A1UdEwQCMAAwHQYDVR0OBBYEFE9p45mK9Z6dwqcz9bU9iWypPObrMFEGA1UdIwRK
MEiAFHi0qlyxXTQS0wCNITV5tSkSu4YQoRqkGDAWMRQwEgYDVQQDDAt0ZWFtNjU5
LW5ldIIUOQEHh2sI0BbelNsiFJwjMzTjxm8wEwYDVR0lBAwwCgYIKwYBBQUHAwEw
CwYDVR0PBAQDAgWgMBkGA1UdEQQSMBCCDnRlYW02NTktc2VydmVyMA0GCSqGSIb3
DQEBCwUAA4IBAQDKEZf/Na39ZH/nS8309QBImuwrfskGg/mxhVd0t7OZbOHSn8g5
fZq/pDvAMvJX3tu8yyl0ncDueFJSpqIsvivzjSNbaj0ttMUkrjMnHycnPwTu3xkc
XFdcUUqxsffutiIBHty3c40oNZsdr3HaufHzBsmNLQ7U8JKw0t2Y3+LHRTDOT7r4
L7AtR8R905SSx2+Y2ZZIw2Vda6+kW23yMSLewgyT63NbcDWtsS2TnF7iVqNjbSto
IBYV67shZe9pP3cmfi0N3idsw1n2kp6+Y7BWUPfImXFzPW18xfk3kHNpliUBUWIA
TklNBOqWmWXl8Ib/fSQR3T6wxn54zrMbo1zn
-----END CERTIFICATE-----
