Certificate:
    Data:
        Version: 3 (0x2)
        Serial Number:
            f5:af:1a:da:f3:d5:3a:31:3a:d1:d2:4c:9e:d8:54:65
        Signature Algorithm: sha256WithRSAEncryption
        Issuer: CN=team686-net
        Validity
            Not Before: May 18 23:25:25 2022 GMT
            Not After : May  2 23:25:25 2025 GMT
        Subject: CN=team686-server
        Subject Public Key Info:
            Public Key Algorithm: rsaEncryption
                RSA Public-Key: (2048 bit)
                Modulus:
                    00:d2:37:74:66:eb:df:cb:77:c5:f2:9a:8a:49:5b:
                    6e:c1:61:d7:77:50:15:cc:12:3a:f2:7c:d4:5f:ce:
                    84:d8:8e:3c:bb:0a:11:b6:93:8e:ef:01:36:d1:6f:
                    82:60:8b:30:2e:60:e6:5f:a1:f7:24:ec:5c:8f:97:
                    cb:78:1d:27:fb:83:30:1b:ca:dd:25:07:63:96:48:
                    11:3f:ca:06:c6:76:fa:f4:4a:57:9f:7e:93:ab:d7:
                    19:7c:87:4f:39:9c:c4:a9:70:ce:24:7a:3e:c6:2d:
                    f4:7f:d9:33:50:f1:96:15:b8:b3:d3:08:66:09:ac:
                    85:05:f7:2e:55:34:7e:ef:da:ab:6b:29:5f:c4:02:
                    a5:ed:09:01:ef:51:d1:f1:3e:d6:78:61:8b:90:f4:
                    74:3e:94:a6:81:16:17:5c:be:d7:6d:5b:fb:83:41:
                    36:23:a8:03:0a:86:6c:f4:62:b1:cb:d8:55:2d:9b:
                    a5:67:eb:79:c3:83:9a:f0:0b:c6:73:9d:d7:c6:25:
                    60:41:35:64:c7:b6:54:5b:07:ec:1e:2e:d7:b9:ed:
                    23:b6:5b:60:4d:0a:39:0b:0e:83:67:71:aa:c8:39:
                    ad:13:e1:39:40:d9:a7:0f:a5:8b:e8:40:b7:3b:16:
                    6f:0f:b3:c9:cc:3e:6d:6c:79:2c:8c:11:df:d8:6a:
                    0e:7f
                Exponent: 65537 (0x10001)
        X509v3 extensions:
            X509v3 Basic Constraints: 
                CA:FALSE
            X509v3 Subject Key Identifier: 
                C7:D2:81:31:11:53:14:F9:08:F7:F5:DF:5F:8A:97:66:51:27:3F:C9
            X509v3 Authority Key Identifier: 
                keyid:50:F0:D0:E0:8A:BD:5B:98:03:5C:DC:B2:74:B4:2A:F1:C0:E4:EE:50
                DirName:/CN=team686-net
                serial:11:AB:97:7F:CE:DB:92:DD:FE:39:4F:BB:BF:E1:EB:02:FF:A8:0C:D1

            X509v3 Extended Key Usage: 
                TLS Web Server Authentication
            X509v3 Key Usage: 
                Digital Signature, Key Encipherment
            X509v3 Subject Alternative Name: 
                DNS:team686-server
    Signature Algorithm: sha256WithRSAEncryption
         3f:87:79:d7:57:04:6a:57:11:09:ef:32:ea:de:d5:17:89:c9:
         e4:d7:bf:d9:d6:25:d5:96:c6:2a:82:f6:d1:2a:34:14:aa:46:
         b2:25:66:c1:9b:c6:bc:53:92:58:d9:f8:5e:49:9e:48:b4:89:
         b7:64:a5:aa:5e:a0:5e:a4:c4:f8:96:d0:b7:33:62:25:31:34:
         f4:22:23:71:83:f0:61:1c:31:75:82:bf:73:74:d2:76:0b:e7:
         fb:ac:00:a3:ee:63:43:0e:6f:71:7f:b9:af:96:a7:ba:c7:14:
         29:1b:b8:d6:0a:64:7f:f2:b2:e4:72:f2:fa:fe:2e:9f:fc:fb:
         66:95:28:6e:87:e8:af:e6:92:24:83:68:c4:0a:c7:5b:b6:22:
         61:1c:0d:3f:53:a7:a8:2e:e0:0c:06:fb:34:1e:da:f5:5e:43:
         f1:7c:37:e4:86:57:3d:a1:86:dc:40:bc:7d:9c:b0:3f:62:f9:
         a3:e1:be:54:eb:eb:df:80:75:b5:12:53:a0:ba:77:ea:c3:c0:
         b6:d8:f1:e6:06:c6:fb:1e:c2:d8:85:d9:50:84:14:2b:83:7e:
         2a:af:f8:b2:18:fc:f6:02:26:3e:18:bb:76:45:64:5d:fa:e9:
         d7:f5:79:25:64:cd:ba:03:cf:b2:3f:c4:9f:43:05:6f:f2:8d:
         b7:f9:3b:37
-----BEGIN CERTIFICATE-----
MIIDeDCCAmCgAwIBAgIRAPWvGtrz1ToxOtHSTJ7YVGUwDQYJKoZIhvcNAQELBQAw
FjEUMBIGA1UEAwwLdGVhbTY4Ni1uZXQwHhcNMjIwNTE4MjMyNTI1WhcNMjUwNTAy
MjMyNTI1WjAZMRcwFQYDVQQDDA50ZWFtNjg2LXNlcnZlcjCCASIwDQYJKoZIhvcN
AQEBBQADggEPADCCAQoCggEBANI3dGbr38t3xfKaiklbbsFh13dQFcwSOvJ81F/O
hNiOPLsKEbaTju8BNtFvgmCLMC5g5l+h9yTsXI+Xy3gdJ/uDMBvK3SUHY5ZIET/K
BsZ2+vRKV59+k6vXGXyHTzmcxKlwziR6PsYt9H/ZM1DxlhW4s9MIZgmshQX3LlU0
fu/aq2spX8QCpe0JAe9R0fE+1nhhi5D0dD6UpoEWF1y+121b+4NBNiOoAwqGbPRi
scvYVS2bpWfrecODmvALxnOd18YlYEE1ZMe2VFsH7B4u17ntI7ZbYE0KOQsOg2dx
qsg5rRPhOUDZpw+li+hAtzsWbw+zycw+bWx5LIwR39hqDn8CAwEAAaOBvTCBujAJ
BgNVHRMEAjAAMB0GA1UdDgQWBBTH0oExEVMU+Qj39d9fipdmUSc/yTBRBgNVHSME
SjBIgBRQ8NDgir1bmANc3LJ0tCrxwOTuUKEapBgwFjEUMBIGA1UEAwwLdGVhbTY4
Ni1uZXSCFBGrl3/O25Ld/jlPu7/h6wL/qAzRMBMGA1UdJQQMMAoGCCsGAQUFBwMB
MAsGA1UdDwQEAwIFoDAZBgNVHREEEjAQgg50ZWFtNjg2LXNlcnZlcjANBgkqhkiG
9w0BAQsFAAOCAQEAP4d511cEalcRCe8y6t7VF4nJ5Ne/2dYl1ZbGKoL20So0FKpG
siVmwZvGvFOSWNn4XkmeSLSJt2Slql6gXqTE+JbQtzNiJTE09CIjcYPwYRwxdYK/
c3TSdgvn+6wAo+5jQw5vcX+5r5anuscUKRu41gpkf/Ky5HLy+v4un/z7ZpUobofo
r+aSJINoxArHW7YiYRwNP1OnqC7gDAb7NB7a9V5D8Xw35IZXPaGG3EC8fZywP2L5
o+G+VOvr34B1tRJToLp36sPAttjx5gbG+x7C2IXZUIQUK4N+Kq/4shj89gImPhi7
dkVkXfrp1/V5JWTNugPPsj/En0MFb/KNt/k7Nw==
-----END CERTIFICATE-----
