Certificate:
    Data:
        Version: 3 (0x2)
        Serial Number:
            69:0c:fc:3c:e6:e4:dd:cf:5c:a4:61:a9:f9:4e:1a:35
        Signature Algorithm: sha256WithRSAEncryption
        Issuer: CN=team204-net
        Validity
            Not Before: May 18 19:13:09 2022 GMT
            Not After : May  2 19:13:09 2025 GMT
        Subject: CN=team204-server
        Subject Public Key Info:
            Public Key Algorithm: rsaEncryption
                RSA Public-Key: (2048 bit)
                Modulus:
                    00:b1:1a:eb:db:43:c0:48:86:8c:7b:23:9d:5d:73:
                    9e:03:c6:04:ff:42:cf:93:2f:ef:fa:cc:21:4f:be:
                    25:b3:49:ca:7a:ca:b3:f0:b8:29:37:47:00:33:9b:
                    c3:48:fb:06:e1:56:97:a4:24:27:17:8d:09:c7:ee:
                    32:93:fa:52:94:a7:0b:01:9f:4f:2d:95:c8:5e:ae:
                    78:12:0f:a9:b5:54:93:aa:f8:dc:d7:7a:0e:aa:b6:
                    81:a3:98:2a:f6:7d:8f:42:ca:a8:c9:a7:b6:25:e1:
                    a7:47:02:cd:76:ff:5f:71:1d:f7:5d:14:93:9e:9e:
                    8f:ff:59:a8:18:36:e5:26:34:89:f0:e5:0c:af:12:
                    58:85:1f:03:e6:ff:e1:0d:51:03:af:aa:cc:c4:ca:
                    3c:a4:19:00:fb:87:67:2e:75:9f:72:04:7d:5e:21:
                    49:d6:29:59:64:82:d2:0d:50:a4:35:76:7b:01:d5:
                    3f:7d:60:e0:fa:1e:fd:2b:61:3c:82:26:f1:5f:e7:
                    56:cf:58:7d:eb:0e:0e:7f:f2:66:34:a3:1d:04:64:
                    15:12:1b:eb:b9:8c:37:e6:c4:65:77:1b:c2:52:8b:
                    a9:c2:d6:f0:fd:22:8b:c4:29:a2:90:e4:fb:3a:44:
                    4c:45:02:7d:f6:1a:71:6a:33:d2:0d:37:4f:38:f7:
                    99:6d
                Exponent: 65537 (0x10001)
        X509v3 extensions:
            X509v3 Basic Constraints: 
                CA:FALSE
            X509v3 Subject Key Identifier: 
                45:4D:B7:51:7C:03:7E:57:5E:31:AC:2B:41:D2:C2:AD:C6:37:05:D0
            X509v3 Authority Key Identifier: 
                keyid:9C:7C:9A:2A:C4:EC:0E:67:F7:B8:2D:38:F6:B3:35:C0:69:CE:B0:36
                DirName:/CN=team204-net
                serial:70:34:8A:57:EC:EA:71:52:42:8F:73:07:12:21:5E:45:6D:5C:9E:35

            X509v3 Extended Key Usage: 
                TLS Web Server Authentication
            X509v3 Key Usage: 
                Digital Signature, Key Encipherment
            X509v3 Subject Alternative Name: 
                DNS:team204-server
    Signature Algorithm: sha256WithRSAEncryption
         1f:a9:ff:7d:e8:a3:c2:ea:70:78:3c:4e:3c:cd:69:9c:36:39:
         dd:fd:42:b1:af:86:61:5c:b3:6d:00:0b:d4:6f:7a:b3:57:b2:
         eb:bc:47:f7:f0:c6:fd:bd:07:0d:6c:28:d4:9d:c0:e2:0d:04:
         1d:08:d8:fa:e7:55:cf:58:c6:f9:46:36:9d:6f:60:3b:93:c0:
         d6:dd:26:21:60:7c:f8:9b:a5:42:ee:be:61:e6:e2:95:44:5f:
         05:7d:f6:b6:cb:3c:b4:c8:06:26:c1:0a:4a:59:51:87:71:2d:
         b7:df:0e:27:90:db:66:55:4f:fe:23:32:73:85:d3:bf:0b:bc:
         df:e6:af:ad:15:95:a9:5a:7f:63:ed:83:8f:0b:c1:0f:04:e1:
         7a:01:2c:48:79:f6:30:41:dd:32:ed:17:ac:42:bf:af:d2:ee:
         96:5f:3b:63:dd:e5:23:70:03:6a:cc:f2:2f:14:fd:8f:76:74:
         2c:e9:ba:e6:2b:b6:83:76:a0:9b:5a:c2:fa:4b:33:a0:b3:96:
         69:e4:b0:81:6a:cf:83:ff:74:9d:df:2d:12:71:95:c3:7e:22:
         41:9f:b4:79:dc:ad:db:d5:3a:2e:4e:fe:34:68:9c:58:73:81:
         9b:e9:30:bf:a0:76:21:0d:21:d1:55:c6:6c:45:de:b9:b5:12:
         bd:37:8c:0b
-----BEGIN CERTIFICATE-----
MIIDdzCCAl+gAwIBAgIQaQz8PObk3c9cpGGp+U4aNTANBgkqhkiG9w0BAQsFADAW
MRQwEgYDVQQDDAt0ZWFtMjA0LW5ldDAeFw0yMjA1MTgxOTEzMDlaFw0yNTA1MDIx
OTEzMDlaMBkxFzAVBgNVBAMMDnRlYW0yMDQtc2VydmVyMIIBIjANBgkqhkiG9w0B
AQEFAAOCAQ8AMIIBCgKCAQEAsRrr20PASIaMeyOdXXOeA8YE/0LPky/v+swhT74l
s0nKesqz8LgpN0cAM5vDSPsG4VaXpCQnF40Jx+4yk/pSlKcLAZ9PLZXIXq54Eg+p
tVSTqvjc13oOqraBo5gq9n2PQsqoyae2JeGnRwLNdv9fcR33XRSTnp6P/1moGDbl
JjSJ8OUMrxJYhR8D5v/hDVEDr6rMxMo8pBkA+4dnLnWfcgR9XiFJ1ilZZILSDVCk
NXZ7AdU/fWDg+h79K2E8gibxX+dWz1h96w4Of/JmNKMdBGQVEhvruYw35sRldxvC
Uoupwtbw/SKLxCmikOT7OkRMRQJ99hpxajPSDTdPOPeZbQIDAQABo4G9MIG6MAkG
A1UdEwQCMAAwHQYDVR0OBBYEFEVNt1F8A35XXjGsK0HSwq3GNwXQMFEGA1UdIwRK
MEiAFJx8mirE7A5n97gtOPazNcBpzrA2oRqkGDAWMRQwEgYDVQQDDAt0ZWFtMjA0
LW5ldIIUcDSKV+zqcVJCj3MHEiFeRW1cnjUwEwYDVR0lBAwwCgYIKwYBBQUHAwEw
CwYDVR0PBAQDAgWgMBkGA1UdEQQSMBCCDnRlYW0yMDQtc2VydmVyMA0GCSqGSIb3
DQEBCwUAA4IBAQAfqf996KPC6nB4PE48zWmcNjnd/UKxr4ZhXLNtAAvUb3qzV7Lr
vEf38Mb9vQcNbCjUncDiDQQdCNj651XPWMb5Rjadb2A7k8DW3SYhYHz4m6VC7r5h
5uKVRF8Fffa2yzy0yAYmwQpKWVGHcS233w4nkNtmVU/+IzJzhdO/C7zf5q+tFZWp
Wn9j7YOPC8EPBOF6ASxIefYwQd0y7ResQr+v0u6WXztj3eUjcANqzPIvFP2PdnQs
6brmK7aDdqCbWsL6SzOgs5Zp5LCBas+D/3Sd3y0ScZXDfiJBn7R53K3b1TouTv40
aJxYc4Gb6TC/oHYhDSHRVcZsRd65tRK9N4wL
-----END CERTIFICATE-----
