Certificate:
    Data:
        Version: 3 (0x2)
        Serial Number:
            f3:62:f7:ef:ed:f7:6b:51:34:78:ca:d9:7c:cf:59:5b
        Signature Algorithm: sha256WithRSAEncryption
        Issuer: CN=team204-net
        Validity
            Not Before: May 18 19:13:08 2022 GMT
            Not After : May  2 19:13:08 2025 GMT
        Subject: CN=team204-client
        Subject Public Key Info:
            Public Key Algorithm: rsaEncryption
                RSA Public-Key: (2048 bit)
                Modulus:
                    00:dd:8f:39:d8:51:11:58:41:55:fc:7e:dc:aa:f6:
                    4e:65:e6:03:f0:98:c0:f4:46:e7:4a:1d:eb:e2:f4:
                    c5:40:13:cd:fd:83:91:2b:8d:2e:18:aa:9d:b6:19:
                    58:18:43:04:11:c6:60:51:98:95:a4:ec:34:8a:e2:
                    8f:b7:6f:dd:8f:00:73:05:56:2d:e9:31:51:e9:c8:
                    ca:ff:2f:95:50:5d:b6:db:f0:6e:aa:b5:97:d4:cb:
                    81:d1:b9:93:e6:7b:d6:92:0b:cb:81:57:ca:ad:ac:
                    08:32:4c:0c:eb:32:8f:2e:e2:4c:4f:08:a6:a8:63:
                    ee:c2:b9:51:e9:70:81:33:f9:bb:52:03:dc:90:31:
                    0c:05:6d:24:4f:76:13:5b:c3:42:ae:06:72:a0:89:
                    18:4e:75:f5:26:a2:61:7c:13:a0:c8:97:4c:e3:cc:
                    9b:8a:83:4a:1d:67:0f:0b:d9:d8:4b:c9:22:3f:70:
                    d3:cc:9d:45:02:cb:11:f1:90:ac:ad:e6:f0:f7:6a:
                    15:6f:5e:9b:8c:3f:bb:ee:e1:1e:57:0b:72:84:de:
                    00:21:cc:66:f8:03:e9:fc:b4:a3:fd:16:e9:bd:7f:
                    7d:03:37:69:b2:46:fa:b2:c6:19:9a:e5:de:91:08:
                    33:91:fe:ca:fa:ff:90:f0:6c:bf:60:7a:d9:b3:f2:
                    31:0d
                Exponent: 65537 (0x10001)
        X509v3 extensions:
            X509v3 Basic Constraints: 
                CA:FALSE
            X509v3 Subject Key Identifier: 
                70:6C:6C:A5:A7:3D:9D:DE:04:9F:61:12:E7:38:BD:B4:44:2D:A2:E4
            X509v3 Authority Key Identifier: 
                keyid:9C:7C:9A:2A:C4:EC:0E:67:F7:B8:2D:38:F6:B3:35:C0:69:CE:B0:36
                DirName:/CN=team204-net
                serial:70:34:8A:57:EC:EA:71:52:42:8F:73:07:12:21:5E:45:6D:5C:9E:35

            X509v3 Extended Key Usage: 
                TLS Web Client Authentication
            X509v3 Key Usage: 
                Digital Signature
    Signature Algorithm: sha256WithRSAEncryption
         c2:8a:1a:1d:6e:31:e5:ab:8c:18:4e:58:cd:49:32:26:32:1a:
         b8:c9:92:04:2c:1d:fc:e6:38:7a:ca:0f:c5:25:b6:be:05:19:
         af:7a:b4:36:0f:57:f8:7c:a8:33:63:36:31:98:a3:62:d1:71:
         ea:e8:53:4d:92:1b:2b:fc:ee:a7:aa:e7:cd:b8:5a:99:b8:c6:
         f0:92:6e:22:e5:29:65:d8:d2:a9:2e:88:0f:4b:ec:07:4b:8c:
         40:f2:e7:43:39:05:ed:34:f8:3c:ac:19:55:d4:4d:90:30:af:
         86:1e:55:ce:74:54:16:64:36:1c:ba:37:3e:43:7d:04:f0:41:
         4c:f0:10:e8:9f:31:52:2c:fa:5f:6d:81:f6:59:46:17:55:96:
         3d:56:59:d0:0f:f7:ee:49:69:8f:6d:7a:fc:77:d7:02:c1:a2:
         26:6e:ea:4f:80:46:65:21:84:d8:0f:9a:8e:66:d3:5b:7f:b5:
         65:87:b9:88:4d:6c:ef:61:6e:b3:b4:7e:f6:98:6a:84:d2:9b:
         27:45:55:f1:74:17:60:ff:1f:ee:1a:00:e1:6f:c0:19:76:d9:
         64:30:46:f2:b5:5d:8b:70:f4:95:5a:e6:0e:42:aa:f7:6d:42:
         d6:5c:e8:c3:74:31:7c:8b:b4:6d:e0:5b:a3:a7:94:7d:1c:0c:
         c5:21:4f:a6
-----BEGIN CERTIFICATE-----
MIIDXTCCAkWgAwIBAgIRAPNi9+/t92tRNHjK2XzPWVswDQYJKoZIhvcNAQELBQAw
FjEUMBIGA1UEAwwLdGVhbTIwNC1uZXQwHhcNMjIwNTE4MTkxMzA4WhcNMjUwNTAy
MTkxMzA4WjAZMRcwFQYDVQQDDA50ZWFtMjA0LWNsaWVudDCCASIwDQYJKoZIhvcN
AQEBBQADggEPADCCAQoCggEBAN2POdhREVhBVfx+3Kr2TmXmA/CYwPRG50od6+L0
xUATzf2DkSuNLhiqnbYZWBhDBBHGYFGYlaTsNIrij7dv3Y8AcwVWLekxUenIyv8v
lVBdttvwbqq1l9TLgdG5k+Z71pILy4FXyq2sCDJMDOsyjy7iTE8Ipqhj7sK5Uelw
gTP5u1ID3JAxDAVtJE92E1vDQq4GcqCJGE519SaiYXwToMiXTOPMm4qDSh1nDwvZ
2EvJIj9w08ydRQLLEfGQrK3m8PdqFW9em4w/u+7hHlcLcoTeACHMZvgD6fy0o/0W
6b1/fQM3abJG+rLGGZrl3pEIM5H+yvr/kPBsv2B62bPyMQ0CAwEAAaOBojCBnzAJ
BgNVHRMEAjAAMB0GA1UdDgQWBBRwbGylpz2d3gSfYRLnOL20RC2i5DBRBgNVHSME
SjBIgBScfJoqxOwOZ/e4LTj2szXAac6wNqEapBgwFjEUMBIGA1UEAwwLdGVhbTIw
NC1uZXSCFHA0ilfs6nFSQo9zBxIhXkVtXJ41MBMGA1UdJQQMMAoGCCsGAQUFBwMC
MAsGA1UdDwQEAwIHgDANBgkqhkiG9w0BAQsFAAOCAQEAwooaHW4x5auMGE5YzUky
JjIauMmSBCwd/OY4esoPxSW2vgUZr3q0Ng9X+HyoM2M2MZijYtFx6uhTTZIbK/zu
p6rnzbhambjG8JJuIuUpZdjSqS6ID0vsB0uMQPLnQzkF7TT4PKwZVdRNkDCvhh5V
znRUFmQ2HLo3PkN9BPBBTPAQ6J8xUiz6X22B9llGF1WWPVZZ0A/37klpj216/HfX
AsGiJm7qT4BGZSGE2A+ajmbTW3+1ZYe5iE1s72Fus7R+9phqhNKbJ0VV8XQXYP8f
7hoA4W/AGXbZZDBG8rVdi3D0lVrmDkKq921C1lzow3QxfIu0beBbo6eUfRwMxSFP
pg==
-----END CERTIFICATE-----
