Certificate:
    Data:
        Version: 3 (0x2)
        Serial Number:
            67:5e:4f:cf:c9:f5:b2:43:6c:db:25:2a:e4:a3:01:15
        Signature Algorithm: sha256WithRSAEncryption
        Issuer: CN=team554-net
        Validity
            Not Before: May 18 22:21:36 2022 GMT
            Not After : May  2 22:21:36 2025 GMT
        Subject: CN=team554-server
        Subject Public Key Info:
            Public Key Algorithm: rsaEncryption
                RSA Public-Key: (2048 bit)
                Modulus:
                    00:9a:77:e4:1a:83:73:d4:18:45:f0:04:d7:bc:77:
                    84:d7:4e:66:47:b4:58:ae:7a:66:7a:b8:d5:15:0d:
                    11:29:2b:28:20:c5:32:9d:2c:05:3d:3c:27:27:28:
                    9d:31:17:9d:ab:72:aa:ab:8f:ca:d8:70:c8:9a:14:
                    b4:92:7d:5d:71:8b:5a:81:90:32:1a:f9:54:8f:47:
                    2f:2a:a0:d7:4b:f6:97:67:c4:37:b3:8d:18:39:30:
                    68:89:a4:6e:81:0d:8e:46:3f:83:a0:a2:97:41:1e:
                    20:30:90:05:86:3d:25:e9:86:2a:ab:21:b9:43:cf:
                    41:d7:c3:36:9a:3e:8c:8b:55:a0:71:4f:7a:7c:00:
                    d1:03:6a:d3:69:a1:93:89:87:d3:9a:a5:31:ca:8b:
                    91:03:40:84:22:ee:48:91:c8:2e:69:df:02:04:8d:
                    df:6e:e5:56:9e:1b:c3:67:54:cd:51:34:01:b6:4f:
                    c5:b6:d7:e3:e0:5b:8e:cf:f0:e7:e1:cf:52:52:d9:
                    ea:e2:06:c3:08:a8:28:e7:64:32:0f:4f:a0:86:9a:
                    5d:77:af:23:7d:17:6e:50:7b:ba:87:cf:a1:de:16:
                    60:87:bb:15:57:43:ed:ea:f0:f7:8b:8f:1d:87:fa:
                    bc:54:ff:7a:b5:7f:6f:1e:40:c0:16:95:3c:13:98:
                    01:b7
                Exponent: 65537 (0x10001)
        X509v3 extensions:
            X509v3 Basic Constraints: 
                CA:FALSE
            X509v3 Subject Key Identifier: 
                FA:7B:19:BE:48:FA:B3:A4:72:44:4A:C1:2D:0C:20:86:81:54:F6:5B
            X509v3 Authority Key Identifier: 
                keyid:F6:2A:AA:87:A4:C1:60:6C:6F:16:86:D0:61:B2:0D:19:1E:8D:CF:7F
                DirName:/CN=team554-net
                serial:19:19:62:54:01:6C:DC:51:28:D7:DB:73:F3:23:DB:07:E1:0F:7A:FA

            X509v3 Extended Key Usage: 
                TLS Web Server Authentication
            X509v3 Key Usage: 
                Digital Signature, Key Encipherment
            X509v3 Subject Alternative Name: 
                DNS:team554-server
    Signature Algorithm: sha256WithRSAEncryption
         13:7e:b6:4a:c6:8b:39:c2:9d:10:b6:24:fc:9e:1c:88:fb:05:
         9c:4e:aa:15:68:83:e4:6a:1b:89:8d:15:06:eb:c8:62:e1:8b:
         07:80:f9:de:38:5c:b2:57:ab:62:ab:26:77:4e:85:74:36:c3:
         1e:e3:e7:64:c4:c0:e7:f2:0e:1a:bf:4a:6e:9c:e5:ec:30:ef:
         68:d2:13:ff:53:5f:1e:62:95:8e:78:f8:b2:f5:16:36:0e:40:
         ec:d8:04:e5:a5:ae:e8:d9:e8:85:4e:f3:38:8e:c7:57:db:4a:
         8b:48:3d:55:b5:3b:e0:36:fc:a0:12:7a:a4:61:24:41:3f:3c:
         98:60:ed:14:6a:7c:d7:7d:bc:70:ef:f7:45:d3:a4:d3:f8:58:
         7a:8a:9e:88:01:5a:1e:b9:23:9e:cb:de:db:5c:e5:2b:e4:7a:
         ba:56:92:3e:7b:bc:d0:f2:7b:1f:90:be:80:12:a4:45:ff:22:
         64:64:11:43:de:7b:5a:20:73:81:97:38:b9:17:82:b6:71:28:
         23:dd:c9:d2:57:33:b8:0d:3e:69:25:a6:f0:1e:03:25:74:75:
         cd:1c:6a:02:67:d5:70:27:97:0a:03:78:aa:e7:b0:94:7f:2f:
         d6:e2:69:a9:c2:9a:cb:42:80:ab:67:32:f0:d6:de:8f:2f:ad:
         07:4b:59:49
-----BEGIN CERTIFICATE-----
MIIDdzCCAl+gAwIBAgIQZ15Pz8n1skNs2yUq5KMBFTANBgkqhkiG9w0BAQsFADAW
MRQwEgYDVQQDDAt0ZWFtNTU0LW5ldDAeFw0yMjA1MTgyMjIxMzZaFw0yNTA1MDIy
MjIxMzZaMBkxFzAVBgNVBAMMDnRlYW01NTQtc2VydmVyMIIBIjANBgkqhkiG9w0B
AQEFAAOCAQ8AMIIBCgKCAQEAmnfkGoNz1BhF8ATXvHeE105mR7RYrnpmerjVFQ0R
KSsoIMUynSwFPTwnJyidMRedq3Kqq4/K2HDImhS0kn1dcYtagZAyGvlUj0cvKqDX
S/aXZ8Q3s40YOTBoiaRugQ2ORj+DoKKXQR4gMJAFhj0l6YYqqyG5Q89B18M2mj6M
i1WgcU96fADRA2rTaaGTiYfTmqUxyouRA0CEIu5Ikcguad8CBI3fbuVWnhvDZ1TN
UTQBtk/Fttfj4FuOz/Dn4c9SUtnq4gbDCKgo52QyD0+ghppdd68jfRduUHu6h8+h
3hZgh7sVV0Pt6vD3i48dh/q8VP96tX9vHkDAFpU8E5gBtwIDAQABo4G9MIG6MAkG
A1UdEwQCMAAwHQYDVR0OBBYEFPp7Gb5I+rOkckRKwS0MIIaBVPZbMFEGA1UdIwRK
MEiAFPYqqoekwWBsbxaG0GGyDRkejc9/oRqkGDAWMRQwEgYDVQQDDAt0ZWFtNTU0
LW5ldIIUGRliVAFs3FEo19tz8yPbB+EPevowEwYDVR0lBAwwCgYIKwYBBQUHAwEw
CwYDVR0PBAQDAgWgMBkGA1UdEQQSMBCCDnRlYW01NTQtc2VydmVyMA0GCSqGSIb3
DQEBCwUAA4IBAQATfrZKxos5wp0QtiT8nhyI+wWcTqoVaIPkahuJjRUG68hi4YsH
gPneOFyyV6tiqyZ3ToV0NsMe4+dkxMDn8g4av0punOXsMO9o0hP/U18eYpWOePiy
9RY2DkDs2ATlpa7o2eiFTvM4jsdX20qLSD1VtTvgNvygEnqkYSRBPzyYYO0UanzX
fbxw7/dF06TT+Fh6ip6IAVoeuSOey97bXOUr5Hq6VpI+e7zQ8nsfkL6AEqRF/yJk
ZBFD3ntaIHOBlzi5F4K2cSgj3cnSVzO4DT5pJabwHgMldHXNHGoCZ9VwJ5cKA3iq
57CUfy/W4mmpwprLQoCrZzLw1t6PL60HS1lJ
-----END CERTIFICATE-----
