Certificate:
    Data:
        Version: 3 (0x2)
        Serial Number:
            98:8a:70:54:c3:55:8e:b1:c3:7d:64:ba:23:27:df:61
        Signature Algorithm: sha256WithRSAEncryption
        Issuer: CN=team187-net
        Validity
            Not Before: May 18 18:54:35 2022 GMT
            Not After : May  2 18:54:35 2025 GMT
        Subject: CN=team187-server
        Subject Public Key Info:
            Public Key Algorithm: rsaEncryption
                RSA Public-Key: (2048 bit)
                Modulus:
                    00:af:fb:c9:95:fa:85:4e:29:ad:57:2a:82:02:7a:
                    e3:61:1d:1e:2c:25:a2:d5:93:af:3f:fb:2c:b2:3a:
                    1e:a3:d3:fe:1e:b8:d4:f3:f1:ab:f1:01:b3:ba:fd:
                    c9:bc:b0:27:a1:19:5c:ef:03:f1:dc:c1:39:d0:81:
                    1e:3d:d2:f6:e9:3f:99:37:42:fa:7e:c0:bd:79:4b:
                    3a:db:92:91:f0:80:bf:1a:55:75:7c:a7:db:41:7c:
                    77:34:fc:41:0d:c2:e2:c4:e4:bc:61:e0:ab:7f:cd:
                    7f:ac:92:5f:14:8d:8f:2a:2b:5b:bc:68:25:68:db:
                    da:aa:75:51:8a:87:2a:44:02:33:be:f5:c0:b7:3d:
                    92:c8:f0:9e:a6:b7:34:69:a8:a8:e4:c2:8a:1e:0b:
                    47:6a:63:92:c9:9f:9f:d7:9a:59:87:83:ce:c5:6d:
                    9e:58:c9:81:4d:63:0a:78:34:e9:f6:6f:66:33:2b:
                    77:29:dd:37:30:ac:78:ce:cd:c6:ea:dd:a4:37:d6:
                    29:a4:42:f4:27:84:16:9e:42:e7:bb:27:c8:d8:73:
                    11:98:69:60:c1:da:a5:4d:c8:0e:c1:45:4f:8e:b1:
                    17:b4:ac:a0:cd:e6:f6:e1:38:60:01:63:be:67:5c:
                    ec:6c:35:42:29:a2:a1:49:40:07:78:89:47:8b:ab:
                    fe:ad
                Exponent: 65537 (0x10001)
        X509v3 extensions:
            X509v3 Basic Constraints: 
                CA:FALSE
            X509v3 Subject Key Identifier: 
                62:DA:9B:D7:42:A4:3D:4A:15:11:6A:6D:29:56:83:4E:4A:8F:C3:35
            X509v3 Authority Key Identifier: 
                keyid:FA:A7:1F:17:06:25:87:53:EE:5B:17:E5:B8:8C:3B:12:FC:05:7A:41
                DirName:/CN=team187-net
                serial:31:23:F4:A4:1C:71:12:86:BB:C5:7D:37:7F:1F:F1:09:42:30:D1:84

            X509v3 Extended Key Usage: 
                TLS Web Server Authentication
            X509v3 Key Usage: 
                Digital Signature, Key Encipherment
            X509v3 Subject Alternative Name: 
                DNS:team187-server
    Signature Algorithm: sha256WithRSAEncryption
         03:54:e7:87:c4:01:c3:0e:72:c7:14:e2:14:6b:18:c4:3c:f9:
         26:88:b5:3a:14:31:d4:d7:39:f6:99:5c:46:f8:ce:86:3c:54:
         97:db:f2:10:7d:4d:26:a9:a1:52:cc:72:a1:1d:2d:74:62:62:
         74:1f:5d:f9:61:fd:69:d8:ba:09:59:22:8f:c7:f2:51:14:3f:
         fd:98:90:7e:4b:a1:df:43:20:3d:1e:d1:66:05:59:2d:25:60:
         b3:e8:46:09:46:cd:13:be:5e:3c:2c:79:f2:98:72:89:bc:c5:
         20:14:56:ab:70:06:e8:e5:f5:16:6c:4f:c2:86:0b:0a:23:83:
         f3:60:d3:96:c7:8b:10:9a:4f:3c:e9:6e:76:cc:9f:c7:28:4f:
         f2:3c:ca:7a:d7:11:e1:54:27:d8:bb:64:af:11:f4:5e:52:80:
         9b:c9:30:42:6c:be:5b:c9:99:4c:2d:63:36:64:60:12:2d:ab:
         e2:66:ce:ca:ec:bb:74:24:1b:c3:0c:4e:8e:fd:8a:45:74:3e:
         5c:66:1d:e0:18:2b:64:82:1b:e7:40:1c:34:43:07:2a:5d:94:
         fc:75:7d:ba:3e:c7:bb:2e:54:10:fa:1e:79:22:83:82:9e:cd:
         dd:f2:0d:e6:e4:60:19:73:73:5f:b7:9f:7f:18:b5:1a:4e:97:
         33:9c:60:a5
-----BEGIN CERTIFICATE-----
MIIDeDCCAmCgAwIBAgIRAJiKcFTDVY6xw31kuiMn32EwDQYJKoZIhvcNAQELBQAw
FjEUMBIGA1UEAwwLdGVhbTE4Ny1uZXQwHhcNMjIwNTE4MTg1NDM1WhcNMjUwNTAy
MTg1NDM1WjAZMRcwFQYDVQQDDA50ZWFtMTg3LXNlcnZlcjCCASIwDQYJKoZIhvcN
AQEBBQADggEPADCCAQoCggEBAK/7yZX6hU4prVcqggJ642EdHiwlotWTrz/7LLI6
HqPT/h641PPxq/EBs7r9ybywJ6EZXO8D8dzBOdCBHj3S9uk/mTdC+n7AvXlLOtuS
kfCAvxpVdXyn20F8dzT8QQ3C4sTkvGHgq3/Nf6ySXxSNjyorW7xoJWjb2qp1UYqH
KkQCM771wLc9ksjwnqa3NGmoqOTCih4LR2pjksmfn9eaWYeDzsVtnljJgU1jCng0
6fZvZjMrdyndNzCseM7NxurdpDfWKaRC9CeEFp5C57snyNhzEZhpYMHapU3IDsFF
T46xF7SsoM3m9uE4YAFjvmdc7Gw1QimioUlAB3iJR4ur/q0CAwEAAaOBvTCBujAJ
BgNVHRMEAjAAMB0GA1UdDgQWBBRi2pvXQqQ9ShURam0pVoNOSo/DNTBRBgNVHSME
SjBIgBT6px8XBiWHU+5bF+W4jDsS/AV6QaEapBgwFjEUMBIGA1UEAwwLdGVhbTE4
Ny1uZXSCFDEj9KQccRKGu8V9N38f8QlCMNGEMBMGA1UdJQQMMAoGCCsGAQUFBwMB
MAsGA1UdDwQEAwIFoDAZBgNVHREEEjAQgg50ZWFtMTg3LXNlcnZlcjANBgkqhkiG
9w0BAQsFAAOCAQEAA1Tnh8QBww5yxxTiFGsYxDz5Joi1OhQx1Nc59plcRvjOhjxU
l9vyEH1NJqmhUsxyoR0tdGJidB9d+WH9adi6CVkij8fyURQ//ZiQfkuh30MgPR7R
ZgVZLSVgs+hGCUbNE75ePCx58phyibzFIBRWq3AG6OX1FmxPwoYLCiOD82DTlseL
EJpPPOludsyfxyhP8jzKetcR4VQn2LtkrxH0XlKAm8kwQmy+W8mZTC1jNmRgEi2r
4mbOyuy7dCQbwwxOjv2KRXQ+XGYd4BgrZIIb50AcNEMHKl2U/HV9uj7Huy5UEPoe
eSKDgp7N3fIN5uRgGXNzX7effxi1Gk6XM5xgpQ==
-----END CERTIFICATE-----
