Certificate:
    Data:
        Version: 3 (0x2)
        Serial Number:
            d1:2d:21:49:25:9a:52:7e:7d:bd:3f:90:be:75:8c:50
        Signature Algorithm: sha256WithRSAEncryption
        Issuer: CN=team187-net
        Validity
            Not Before: May 18 18:54:35 2022 GMT
            Not After : May  2 18:54:35 2025 GMT
        Subject: CN=team187-client
        Subject Public Key Info:
            Public Key Algorithm: rsaEncryption
                RSA Public-Key: (2048 bit)
                Modulus:
                    00:ab:fe:99:1d:b6:23:71:b1:21:d6:e2:12:3b:08:
                    47:58:fd:0a:84:5b:f2:2b:b2:b8:64:d0:1b:e1:36:
                    f3:d5:9d:9d:f6:e6:8a:40:9f:fd:94:f7:a5:55:b7:
                    ba:53:ae:7c:57:5c:24:96:ee:4f:93:e9:c5:49:21:
                    64:42:a5:50:cb:d5:5c:37:60:03:0a:aa:f9:fc:7a:
                    12:13:5c:f6:6a:2c:34:ba:07:f6:b1:84:e1:41:03:
                    52:41:64:80:cd:55:b6:99:7f:7d:7e:fb:1b:85:84:
                    6b:89:41:03:ee:37:06:6b:8b:5e:04:e2:28:7d:43:
                    e9:8b:2c:5d:56:de:5f:8b:09:f1:0d:18:d8:14:83:
                    4c:1a:fe:0e:4e:f1:95:1e:fa:0d:a6:b7:75:7a:ef:
                    82:ef:42:af:fe:69:ca:cf:82:9f:a1:73:82:00:7f:
                    96:6c:62:78:68:7f:a4:04:45:ec:b4:ed:60:50:19:
                    90:74:8f:fe:19:4e:4b:ae:75:6f:4d:36:6c:fe:a9:
                    66:94:df:c0:f6:de:d7:6f:90:43:81:3e:00:ec:00:
                    29:b6:03:83:2b:50:7f:13:a7:07:95:fc:c6:a5:e2:
                    b8:cb:99:77:f4:09:50:12:b9:fa:1b:e4:e2:0d:59:
                    5e:f1:8a:fd:dc:88:e4:2c:b4:1f:2e:ec:3a:25:d4:
                    57:3d
                Exponent: 65537 (0x10001)
        X509v3 extensions:
            X509v3 Basic Constraints: 
                CA:FALSE
            X509v3 Subject Key Identifier: 
                35:F6:41:24:16:C6:D2:09:2B:98:73:60:82:C1:9D:4B:62:35:9E:F9
            X509v3 Authority Key Identifier: 
                keyid:FA:A7:1F:17:06:25:87:53:EE:5B:17:E5:B8:8C:3B:12:FC:05:7A:41
                DirName:/CN=team187-net
                serial:31:23:F4:A4:1C:71:12:86:BB:C5:7D:37:7F:1F:F1:09:42:30:D1:84

            X509v3 Extended Key Usage: 
                TLS Web Client Authentication
            X509v3 Key Usage: 
                Digital Signature
    Signature Algorithm: sha256WithRSAEncryption
         97:34:a8:e9:0d:0c:40:5a:31:18:75:bb:62:17:bd:8d:47:ee:
         03:d0:fa:a0:85:e2:12:2a:30:d6:0a:bd:86:2d:79:f2:77:eb:
         a0:d7:3c:5e:ef:3c:6d:27:08:9f:a0:0b:62:57:b7:5e:1d:22:
         f5:70:6d:1e:0c:d2:07:c3:8c:57:24:93:b8:77:b4:8b:8e:b7:
         56:71:28:46:6d:33:e4:64:3e:5b:fe:e6:31:3f:0e:3b:ee:a6:
         6d:01:34:68:d5:2a:52:cb:3a:df:80:f0:ae:65:61:35:da:e2:
         da:72:a6:a5:2c:d3:f8:ad:a8:a6:d0:50:37:0a:69:81:1c:21:
         a0:38:5f:9d:eb:e0:97:4d:c4:7e:06:e4:49:4a:5b:ea:fc:13:
         2a:32:11:8c:1e:10:fe:15:78:9f:7c:c2:50:2e:bd:1c:72:0b:
         68:f2:d2:9c:3f:1e:fc:50:f0:00:33:90:5a:8f:5d:85:28:07:
         cc:d5:1e:02:4a:f5:df:46:98:7b:bd:75:8b:06:07:a0:fb:d8:
         99:3e:db:7d:16:33:7a:79:c6:0d:97:d7:4a:1b:79:5a:27:b6:
         63:3e:c1:d1:01:76:77:c3:ae:dc:1d:3b:2e:07:64:14:c0:6c:
         bc:f1:2b:f6:70:9f:97:46:ae:d9:9f:ca:7a:f9:3b:f1:86:bc:
         62:83:66:63
-----BEGIN CERTIFICATE-----
MIIDXTCCAkWgAwIBAgIRANEtIUklmlJ+fb0/kL51jFAwDQYJKoZIhvcNAQELBQAw
FjEUMBIGA1UEAwwLdGVhbTE4Ny1uZXQwHhcNMjIwNTE4MTg1NDM1WhcNMjUwNTAy
MTg1NDM1WjAZMRcwFQYDVQQDDA50ZWFtMTg3LWNsaWVudDCCASIwDQYJKoZIhvcN
AQEBBQADggEPADCCAQoCggEBAKv+mR22I3GxIdbiEjsIR1j9CoRb8iuyuGTQG+E2
89WdnfbmikCf/ZT3pVW3ulOufFdcJJbuT5PpxUkhZEKlUMvVXDdgAwqq+fx6EhNc
9mosNLoH9rGE4UEDUkFkgM1Vtpl/fX77G4WEa4lBA+43BmuLXgTiKH1D6YssXVbe
X4sJ8Q0Y2BSDTBr+Dk7xlR76Daa3dXrvgu9Cr/5pys+Cn6FzggB/lmxieGh/pARF
7LTtYFAZkHSP/hlOS651b002bP6pZpTfwPbe12+QQ4E+AOwAKbYDgytQfxOnB5X8
xqXiuMuZd/QJUBK5+hvk4g1ZXvGK/dyI5Cy0Hy7sOiXUVz0CAwEAAaOBojCBnzAJ
BgNVHRMEAjAAMB0GA1UdDgQWBBQ19kEkFsbSCSuYc2CCwZ1LYjWe+TBRBgNVHSME
SjBIgBT6px8XBiWHU+5bF+W4jDsS/AV6QaEapBgwFjEUMBIGA1UEAwwLdGVhbTE4
Ny1uZXSCFDEj9KQccRKGu8V9N38f8QlCMNGEMBMGA1UdJQQMMAoGCCsGAQUFBwMC
MAsGA1UdDwQEAwIHgDANBgkqhkiG9w0BAQsFAAOCAQEAlzSo6Q0MQFoxGHW7Yhe9
jUfuA9D6oIXiEiow1gq9hi158nfroNc8Xu88bScIn6ALYle3Xh0i9XBtHgzSB8OM
VySTuHe0i463VnEoRm0z5GQ+W/7mMT8OO+6mbQE0aNUqUss634DwrmVhNdri2nKm
pSzT+K2optBQNwppgRwhoDhfnevgl03EfgbkSUpb6vwTKjIRjB4Q/hV4n3zCUC69
HHILaPLSnD8e/FDwADOQWo9dhSgHzNUeAkr130aYe711iwYHoPvYmT7bfRYzennG
DZfXSht5Wie2Yz7B0QF2d8Ou3B07LgdkFMBsvPEr9nCfl0au2Z/Kevk78Ya8YoNm
Yw==
-----END CERTIFICATE-----
