Certificate:
    Data:
        Version: 3 (0x2)
        Serial Number:
            34:61:a2:f5:e6:b6:c5:7c:6a:8f:ea:3c:be:eb:a4:ed
        Signature Algorithm: sha256WithRSAEncryption
        Issuer: CN=team405-net
        Validity
            Not Before: May 18 21:03:44 2022 GMT
            Not After : May  2 21:03:44 2025 GMT
        Subject: CN=team405-client
        Subject Public Key Info:
            Public Key Algorithm: rsaEncryption
                RSA Public-Key: (2048 bit)
                Modulus:
                    00:da:89:63:1b:3b:46:d4:3c:d7:37:d8:77:85:24:
                    c2:d5:e2:75:be:fe:8a:34:17:02:d5:0b:d8:2f:c3:
                    af:11:43:d0:a8:9f:33:98:ef:1f:7a:8c:4f:74:55:
                    2c:32:b6:14:56:c7:2f:10:b9:17:44:31:59:6c:e5:
                    eb:3d:c5:8b:ba:e7:db:c3:6f:16:7d:b5:50:1b:cf:
                    3a:0f:7f:2d:e0:7c:15:54:fa:ba:5e:d8:54:6c:2b:
                    73:ae:53:5f:96:44:8d:41:9d:b1:4d:5d:15:cf:44:
                    9a:2e:f5:ba:fe:07:de:b2:94:d6:d1:f3:01:4c:00:
                    ea:78:fc:bf:fd:b9:3e:b6:56:4b:c4:52:d4:b2:f5:
                    c5:6c:1c:9f:47:7e:f1:cf:ce:1e:cd:f0:06:92:82:
                    1e:79:ee:06:7d:ba:34:dd:65:61:7a:f5:68:a3:f0:
                    20:a7:9f:ef:a4:e4:ed:20:84:8d:96:de:77:bc:c0:
                    86:1d:20:07:80:37:00:7c:c0:3d:54:36:89:65:29:
                    36:fe:cc:62:97:74:fa:62:f2:d7:33:69:2f:56:dc:
                    76:44:7a:d1:f3:09:9c:5b:6e:86:8d:ec:ca:c5:c7:
                    1a:27:9a:15:76:1e:76:11:c0:06:fe:38:22:8a:75:
                    57:4a:9e:7a:e8:41:f1:8b:ca:7b:a4:8a:dc:b3:ee:
                    e9:35
                Exponent: 65537 (0x10001)
        X509v3 extensions:
            X509v3 Basic Constraints: 
                CA:FALSE
            X509v3 Subject Key Identifier: 
                98:18:50:71:00:F9:F4:95:95:0F:01:E0:83:BC:CF:7B:5C:3E:4C:61
            X509v3 Authority Key Identifier: 
                keyid:6A:0B:42:22:87:81:00:66:8A:3A:F7:0C:E4:E1:6A:E6:D0:C0:47:FD
                DirName:/CN=team405-net
                serial:4D:B0:0A:A4:4F:12:AB:9B:0D:AD:46:77:B9:33:59:17:7C:9F:EF:EB

            X509v3 Extended Key Usage: 
                TLS Web Client Authentication
            X509v3 Key Usage: 
                Digital Signature
    Signature Algorithm: sha256WithRSAEncryption
         39:9f:9b:12:21:ad:34:8e:68:28:ca:0c:73:72:e3:84:c2:de:
         54:89:5a:53:0d:ba:0f:19:59:61:a4:a7:04:6d:3d:78:5a:3a:
         f6:b6:1d:19:a9:b5:d7:93:49:ab:64:99:50:c1:92:69:cb:38:
         a3:72:dd:2d:fa:19:e0:c5:19:a8:69:ab:3d:d5:96:aa:32:87:
         d6:b3:17:ea:59:4c:4f:dd:99:ab:3c:a2:a1:7a:c1:ec:0d:26:
         03:08:a0:77:0b:dc:be:f4:5c:26:12:4b:09:19:86:a9:39:52:
         67:f7:e9:b6:78:9b:ae:fe:51:b5:d1:4c:a0:4b:74:4a:72:55:
         6d:9a:97:dc:43:13:39:08:57:b0:d5:5d:e2:5b:79:60:4d:bb:
         2a:1e:54:54:c5:7b:c3:64:90:c2:a3:8c:c0:ab:f4:50:a8:a3:
         d0:2c:b8:e0:97:0c:f4:5c:60:74:6c:b5:7a:51:39:9c:02:d0:
         f9:07:2f:df:c2:f6:1b:f0:7d:d9:64:12:23:08:8d:31:90:cc:
         a5:8e:7b:7e:d4:ed:21:93:cc:3c:ed:0c:02:09:e6:4c:af:2f:
         31:7e:87:05:59:60:47:14:86:e3:5d:40:df:b5:43:a6:00:ff:
         15:bb:20:27:a1:a8:be:b7:cd:a2:ab:49:a2:b8:82:df:b0:74:
         f4:76:c4:b2
-----BEGIN CERTIFICATE-----
MIIDXDCCAkSgAwIBAgIQNGGi9ea2xXxqj+o8vuuk7TANBgkqhkiG9w0BAQsFADAW
MRQwEgYDVQQDDAt0ZWFtNDA1LW5ldDAeFw0yMjA1MTgyMTAzNDRaFw0yNTA1MDIy
MTAzNDRaMBkxFzAVBgNVBAMMDnRlYW00MDUtY2xpZW50MIIBIjANBgkqhkiG9w0B
AQEFAAOCAQ8AMIIBCgKCAQEA2oljGztG1DzXN9h3hSTC1eJ1vv6KNBcC1QvYL8Ov
EUPQqJ8zmO8feoxPdFUsMrYUVscvELkXRDFZbOXrPcWLuufbw28WfbVQG886D38t
4HwVVPq6XthUbCtzrlNflkSNQZ2xTV0Vz0SaLvW6/gfespTW0fMBTADqePy//bk+
tlZLxFLUsvXFbByfR37xz84ezfAGkoIeee4Gfbo03WVhevVoo/Agp5/vpOTtIISN
lt53vMCGHSAHgDcAfMA9VDaJZSk2/sxil3T6YvLXM2kvVtx2RHrR8wmcW26GjezK
xccaJ5oVdh52EcAG/jgiinVXSp566EHxi8p7pIrcs+7pNQIDAQABo4GiMIGfMAkG
A1UdEwQCMAAwHQYDVR0OBBYEFJgYUHEA+fSVlQ8B4IO8z3tcPkxhMFEGA1UdIwRK
MEiAFGoLQiKHgQBmijr3DOThaubQwEf9oRqkGDAWMRQwEgYDVQQDDAt0ZWFtNDA1
LW5ldIIUTbAKpE8Sq5sNrUZ3uTNZF3yf7+swEwYDVR0lBAwwCgYIKwYBBQUHAwIw
CwYDVR0PBAQDAgeAMA0GCSqGSIb3DQEBCwUAA4IBAQA5n5sSIa00jmgoygxzcuOE
wt5UiVpTDboPGVlhpKcEbT14Wjr2th0ZqbXXk0mrZJlQwZJpyzijct0t+hngxRmo
aas91ZaqMofWsxfqWUxP3ZmrPKKhesHsDSYDCKB3C9y+9FwmEksJGYapOVJn9+m2
eJuu/lG10UygS3RKclVtmpfcQxM5CFew1V3iW3lgTbsqHlRUxXvDZJDCo4zAq/RQ
qKPQLLjglwz0XGB0bLV6UTmcAtD5By/fwvYb8H3ZZBIjCI0xkMyljnt+1O0hk8w8
7QwCCeZMry8xfocFWWBHFIbjXUDftUOmAP8VuyAnoai+t82iq0miuILfsHT0dsSy
-----END CERTIFICATE-----
