Certificate:
    Data:
        Version: 3 (0x2)
        Serial Number:
            0a:ed:30:a8:6d:05:7b:04:10:c5:e8:2f:c2:83:7b:a9
        Signature Algorithm: sha256WithRSAEncryption
        Issuer: CN=team417-net
        Validity
            Not Before: May 18 21:07:49 2022 GMT
            Not After : May  2 21:07:49 2025 GMT
        Subject: CN=team417-server
        Subject Public Key Info:
            Public Key Algorithm: rsaEncryption
                RSA Public-Key: (2048 bit)
                Modulus:
                    00:b4:da:24:87:cb:5b:18:c5:be:f9:76:bd:f8:26:
                    24:1f:cd:d0:67:a0:e6:4e:00:8f:5f:be:db:3e:33:
                    8e:5f:83:28:62:e2:8a:05:1a:52:8f:68:a2:64:7f:
                    f1:1a:d6:f6:d8:1d:d7:9b:63:36:d9:41:62:2a:8a:
                    6d:40:f3:1b:75:90:34:1a:d9:77:a5:64:e8:e2:fa:
                    f5:72:b2:5c:e8:18:0e:4b:a3:a8:8b:72:e8:71:4c:
                    8c:bf:2a:ca:ed:64:44:56:ae:d5:cc:53:34:f2:93:
                    ab:1c:a1:84:f2:94:ca:e6:de:1d:f7:8b:8f:05:28:
                    9e:61:75:60:7f:73:b6:77:14:68:ee:7d:c0:ab:94:
                    7e:fc:c3:70:45:fb:26:c4:2e:ff:92:3f:77:bc:d1:
                    48:5a:af:2b:17:d6:c3:8d:c9:25:92:e2:6b:a2:a3:
                    d2:64:5f:78:db:5f:f8:82:31:65:11:8b:f0:3f:51:
                    82:56:ba:c6:9b:08:cf:c3:58:4b:b6:a8:c6:30:11:
                    88:27:46:a9:16:30:80:d8:cc:c3:a9:a7:5a:99:b0:
                    24:55:b2:ac:3c:53:d4:3c:c1:fe:41:5f:88:9a:73:
                    2b:d5:e1:ab:a8:07:08:14:da:1c:80:7f:d0:04:f5:
                    b8:05:24:97:bd:af:71:82:0d:b9:ed:76:89:a9:cf:
                    ee:0b
                Exponent: 65537 (0x10001)
        X509v3 extensions:
            X509v3 Basic Constraints: 
                CA:FALSE
            X509v3 Subject Key Identifier: 
                F2:8A:CB:11:15:2F:8F:BB:29:60:BB:BE:97:4B:39:42:8A:88:12:4F
            X509v3 Authority Key Identifier: 
                keyid:A0:D3:68:04:00:0B:7C:13:D8:AD:6B:AC:E4:B3:0A:1F:B5:C6:D8:80
                DirName:/CN=team417-net
                serial:46:5A:9E:42:EA:02:49:47:85:99:2C:FB:4D:E2:70:84:9B:BA:6A:A1

            X509v3 Extended Key Usage: 
                TLS Web Server Authentication
            X509v3 Key Usage: 
                Digital Signature, Key Encipherment
            X509v3 Subject Alternative Name: 
                DNS:team417-server
    Signature Algorithm: sha256WithRSAEncryption
         b5:69:5e:a1:dd:9b:c1:f3:52:c2:42:38:c6:4c:eb:8c:c6:40:
         7f:8a:1d:c6:d0:33:35:0e:19:33:00:c2:fe:a5:20:2a:04:d6:
         bf:34:00:ec:3f:82:2d:87:f2:0a:e2:1e:75:16:1e:fd:95:d6:
         64:ab:88:31:0c:a1:2e:44:5d:28:06:b2:e5:60:78:bb:59:64:
         b3:ec:3c:6f:67:be:4b:c8:f3:a8:ba:ea:2f:8b:9e:c6:b6:1c:
         63:14:73:4c:24:62:db:3b:32:8e:de:ea:7a:75:61:41:aa:dc:
         ea:30:d1:f7:00:ca:25:ca:d6:9f:2b:9b:03:bd:4e:7c:29:d3:
         95:40:0e:4e:d5:2f:1d:dc:41:1d:33:4e:8b:e9:55:87:4b:ef:
         06:6b:a2:cd:ae:02:7f:92:c4:ac:d7:e7:cb:15:c7:a7:10:2a:
         cc:15:37:ef:f1:24:9f:65:91:dd:04:31:ea:15:ba:39:0b:c0:
         3a:ac:a8:9f:a9:58:bd:66:a6:92:78:df:01:86:d4:ae:a2:c6:
         b3:0d:d6:26:fe:e0:b1:1e:c1:7c:be:62:52:9a:c0:4f:8a:df:
         de:7a:70:15:27:04:c1:23:b2:42:4a:ff:8c:1f:84:4f:ed:3d:
         87:36:00:b9:19:7c:82:78:77:b4:86:a7:dc:75:b3:64:0e:05:
         07:60:85:ff
-----BEGIN CERTIFICATE-----
MIIDdzCCAl+gAwIBAgIQCu0wqG0FewQQxegvwoN7qTANBgkqhkiG9w0BAQsFADAW
MRQwEgYDVQQDDAt0ZWFtNDE3LW5ldDAeFw0yMjA1MTgyMTA3NDlaFw0yNTA1MDIy
MTA3NDlaMBkxFzAVBgNVBAMMDnRlYW00MTctc2VydmVyMIIBIjANBgkqhkiG9w0B
AQEFAAOCAQ8AMIIBCgKCAQEAtNokh8tbGMW++Xa9+CYkH83QZ6DmTgCPX77bPjOO
X4MoYuKKBRpSj2iiZH/xGtb22B3Xm2M22UFiKoptQPMbdZA0Gtl3pWTo4vr1crJc
6BgOS6Ooi3LocUyMvyrK7WREVq7VzFM08pOrHKGE8pTK5t4d94uPBSieYXVgf3O2
dxRo7n3Aq5R+/MNwRfsmxC7/kj93vNFIWq8rF9bDjcklkuJroqPSZF9421/4gjFl
EYvwP1GCVrrGmwjPw1hLtqjGMBGIJ0apFjCA2MzDqadambAkVbKsPFPUPMH+QV+I
mnMr1eGrqAcIFNocgH/QBPW4BSSXva9xgg257XaJqc/uCwIDAQABo4G9MIG6MAkG
A1UdEwQCMAAwHQYDVR0OBBYEFPKKyxEVL4+7KWC7vpdLOUKKiBJPMFEGA1UdIwRK
MEiAFKDTaAQAC3wT2K1rrOSzCh+1xtiAoRqkGDAWMRQwEgYDVQQDDAt0ZWFtNDE3
LW5ldIIURlqeQuoCSUeFmSz7TeJwhJu6aqEwEwYDVR0lBAwwCgYIKwYBBQUHAwEw
CwYDVR0PBAQDAgWgMBkGA1UdEQQSMBCCDnRlYW00MTctc2VydmVyMA0GCSqGSIb3
DQEBCwUAA4IBAQC1aV6h3ZvB81LCQjjGTOuMxkB/ih3G0DM1DhkzAML+pSAqBNa/
NADsP4Ith/IK4h51Fh79ldZkq4gxDKEuRF0oBrLlYHi7WWSz7DxvZ75LyPOouuov
i57GthxjFHNMJGLbOzKO3up6dWFBqtzqMNH3AMolytafK5sDvU58KdOVQA5O1S8d
3EEdM06L6VWHS+8Ga6LNrgJ/ksSs1+fLFcenECrMFTfv8SSfZZHdBDHqFbo5C8A6
rKifqVi9ZqaSeN8BhtSuosazDdYm/uCxHsF8vmJSmsBPit/eenAVJwTBI7JCSv+M
H4RP7T2HNgC5GXyCeHe0hqfcdbNkDgUHYIX/
-----END CERTIFICATE-----
