Certificate:
    Data:
        Version: 3 (0x2)
        Serial Number:
            57:85:fc:9a:13:20:39:fc:e1:09:d7:98:48:16:7f:d1
        Signature Algorithm: sha256WithRSAEncryption
        Issuer: CN=team287-net
        Validity
            Not Before: May 18 19:52:44 2022 GMT
            Not After : May  2 19:52:44 2025 GMT
        Subject: CN=team287-client
        Subject Public Key Info:
            Public Key Algorithm: rsaEncryption
                RSA Public-Key: (2048 bit)
                Modulus:
                    00:c9:1b:18:de:2e:6b:e3:55:ff:e8:34:9a:ba:d8:
                    2a:6c:f3:07:a4:c9:89:f1:58:4b:09:40:85:e6:cf:
                    ef:93:ae:d7:21:f7:05:46:ec:65:69:f2:4b:fb:f5:
                    38:b7:9f:e4:36:09:72:b2:65:33:9c:6d:9f:dc:5a:
                    7f:e1:ce:b0:8e:64:55:a6:5b:ba:03:09:b2:e5:74:
                    eb:6e:03:17:e7:63:ad:c2:c2:af:99:da:fd:b4:17:
                    e6:8c:8c:6d:0f:ec:64:c6:18:df:09:c7:49:ed:47:
                    d7:df:e2:de:0a:5c:d6:18:a7:27:c2:dc:ec:e8:88:
                    74:e0:64:5b:f2:74:ff:11:2f:c9:70:e7:93:05:40:
                    77:46:a8:3e:aa:e8:73:2b:dd:53:63:fb:e2:03:d9:
                    b1:0a:d4:1d:3e:4d:fa:fc:f7:72:98:67:d0:19:54:
                    2c:1d:85:58:68:d4:94:77:5b:b2:99:11:a4:31:a9:
                    3d:27:05:db:53:8d:c7:b9:0b:15:0b:b6:f7:9c:2e:
                    bc:78:c1:df:44:b2:9c:4a:e7:0b:cd:44:9e:e8:6d:
                    f1:3d:c7:30:57:12:77:18:c6:a8:8e:6f:10:b1:fd:
                    5a:d8:ec:04:db:8f:0a:6a:62:9c:8e:d4:c9:e4:8c:
                    83:7e:d2:11:d0:b3:03:7d:7f:41:14:b8:48:15:e5:
                    58:a7
                Exponent: 65537 (0x10001)
        X509v3 extensions:
            X509v3 Basic Constraints: 
                CA:FALSE
            X509v3 Subject Key Identifier: 
                07:F0:B1:81:78:7C:08:A7:18:17:65:2B:06:B0:70:A5:3D:78:E2:8D
            X509v3 Authority Key Identifier: 
                keyid:DD:3A:7E:A5:AD:CD:D1:7B:5D:98:91:6A:73:32:65:DD:59:41:32:9A
                DirName:/CN=team287-net
                serial:08:12:82:43:AE:B2:F3:77:9A:4D:F4:0A:D5:48:03:94:A1:86:C2:AF

            X509v3 Extended Key Usage: 
                TLS Web Client Authentication
            X509v3 Key Usage: 
                Digital Signature
    Signature Algorithm: sha256WithRSAEncryption
         76:5e:e0:da:a4:0d:3d:43:49:f9:8c:5d:02:2a:f4:fa:2e:b2:
         fb:64:80:d4:26:c9:c9:60:86:2f:38:e0:6d:d6:16:8d:ce:51:
         2e:34:35:d2:24:2a:46:01:ca:bf:8a:f9:2f:5b:87:b6:4c:f5:
         bb:51:2d:ae:b0:6a:4a:c8:12:dd:1f:bf:ee:73:87:d2:bb:fa:
         8d:c4:21:18:12:49:7b:85:b9:cc:e9:40:17:c9:bc:2b:0a:85:
         6c:3d:4f:33:b5:54:ab:23:4f:0f:fa:a8:4c:37:95:a0:ff:1b:
         a5:83:12:b7:cd:48:8d:46:92:89:16:88:8f:a2:78:87:e1:99:
         45:77:30:44:f4:a1:49:4f:f5:d8:88:e0:eb:04:2e:34:05:06:
         64:8e:8a:de:be:58:5c:65:5f:1e:de:7f:42:7e:52:d0:cc:d1:
         15:f6:80:70:6e:e3:69:9d:41:cb:81:62:a2:50:e2:b4:ff:0b:
         86:f7:35:ce:9c:bc:4a:96:bf:63:26:ad:7b:06:6b:27:9c:ff:
         87:1b:e9:2f:40:fd:ed:87:38:31:49:dc:aa:05:63:73:43:f3:
         f4:62:64:7b:66:92:5e:29:34:29:a9:a5:ab:8f:fb:9b:7c:e2:
         e8:d6:a8:1f:d7:f9:ea:2b:25:86:2c:e5:01:6f:da:88:05:f4:
         04:a4:5b:90
-----BEGIN CERTIFICATE-----
MIIDXDCCAkSgAwIBAgIQV4X8mhMgOfzhCdeYSBZ/0TANBgkqhkiG9w0BAQsFADAW
MRQwEgYDVQQDDAt0ZWFtMjg3LW5ldDAeFw0yMjA1MTgxOTUyNDRaFw0yNTA1MDIx
OTUyNDRaMBkxFzAVBgNVBAMMDnRlYW0yODctY2xpZW50MIIBIjANBgkqhkiG9w0B
AQEFAAOCAQ8AMIIBCgKCAQEAyRsY3i5r41X/6DSautgqbPMHpMmJ8VhLCUCF5s/v
k67XIfcFRuxlafJL+/U4t5/kNglysmUznG2f3Fp/4c6wjmRVplu6Awmy5XTrbgMX
52OtwsKvmdr9tBfmjIxtD+xkxhjfCcdJ7UfX3+LeClzWGKcnwtzs6Ih04GRb8nT/
ES/JcOeTBUB3Rqg+quhzK91TY/viA9mxCtQdPk36/PdymGfQGVQsHYVYaNSUd1uy
mRGkMak9JwXbU43HuQsVC7b3nC68eMHfRLKcSucLzUSe6G3xPccwVxJ3GMaojm8Q
sf1a2OwE248KamKcjtTJ5IyDftIR0LMDfX9BFLhIFeVYpwIDAQABo4GiMIGfMAkG
A1UdEwQCMAAwHQYDVR0OBBYEFAfwsYF4fAinGBdlKwawcKU9eOKNMFEGA1UdIwRK
MEiAFN06fqWtzdF7XZiRanMyZd1ZQTKaoRqkGDAWMRQwEgYDVQQDDAt0ZWFtMjg3
LW5ldIIUCBKCQ66y83eaTfQK1UgDlKGGwq8wEwYDVR0lBAwwCgYIKwYBBQUHAwIw
CwYDVR0PBAQDAgeAMA0GCSqGSIb3DQEBCwUAA4IBAQB2XuDapA09Q0n5jF0CKvT6
LrL7ZIDUJsnJYIYvOOBt1haNzlEuNDXSJCpGAcq/ivkvW4e2TPW7US2usGpKyBLd
H7/uc4fSu/qNxCEYEkl7hbnM6UAXybwrCoVsPU8ztVSrI08P+qhMN5Wg/xulgxK3
zUiNRpKJFoiPoniH4ZlFdzBE9KFJT/XYiODrBC40BQZkjorevlhcZV8e3n9CflLQ
zNEV9oBwbuNpnUHLgWKiUOK0/wuG9zXOnLxKlr9jJq17BmsnnP+HG+kvQP3thzgx
SdyqBWNzQ/P0YmR7ZpJeKTQpqaWrj/ubfOLo1qgf1/nqKyWGLOUBb9qIBfQEpFuQ
-----END CERTIFICATE-----
