Certificate:
    Data:
        Version: 3 (0x2)
        Serial Number:
            65:d6:89:5c:e0:6c:15:d1:8f:71:a5:35:3e:11:e2:40
        Signature Algorithm: sha256WithRSAEncryption
        Issuer: CN=team376-net
        Validity
            Not Before: May 18 20:39:22 2022 GMT
            Not After : May  2 20:39:22 2025 GMT
        Subject: CN=team376-client
        Subject Public Key Info:
            Public Key Algorithm: rsaEncryption
                RSA Public-Key: (2048 bit)
                Modulus:
                    00:97:b3:0b:f1:49:7e:c1:e2:bd:9f:0c:01:7e:d7:
                    50:71:a3:a7:fa:b9:71:d8:09:48:75:77:f3:6d:65:
                    65:21:3b:65:0f:9b:a8:b6:0d:b4:29:54:e7:5f:16:
                    6c:75:17:57:af:66:56:0b:73:a7:c4:a9:b5:93:d7:
                    f0:25:9e:77:74:20:5b:6a:96:a4:cf:3e:87:c2:6c:
                    2a:ad:2a:d3:ec:e2:db:75:e8:99:1e:96:a2:1b:27:
                    27:8c:6d:0b:39:3f:d5:fe:60:69:91:01:1c:93:5f:
                    19:3a:62:9c:ab:fd:1c:ac:e6:b6:f9:82:0a:92:4e:
                    d9:38:ff:7e:34:ca:2e:c8:d9:3e:a7:70:96:33:9f:
                    ed:96:40:b6:1e:c5:6a:ac:f9:6e:30:d0:6f:f4:9b:
                    d2:03:3e:6e:b9:a8:59:36:84:a0:ba:a2:2c:0d:bb:
                    ad:8c:2f:ed:33:60:a0:04:a3:3d:2c:a4:d5:17:30:
                    ea:51:2d:ff:3c:07:3e:c0:f8:2e:ad:64:76:5e:6c:
                    5c:a2:1c:ac:8e:d4:85:01:9c:b2:36:30:2c:bc:fa:
                    09:31:6a:bd:c4:c2:55:27:86:a9:e8:e2:aa:90:23:
                    ea:12:8a:09:c5:c9:ea:23:57:12:e2:7b:ee:a3:b0:
                    c7:a7:77:2b:10:e3:0f:a2:2c:d8:c3:a8:72:24:18:
                    e9:e9
                Exponent: 65537 (0x10001)
        X509v3 extensions:
            X509v3 Basic Constraints: 
                CA:FALSE
            X509v3 Subject Key Identifier: 
                FB:A8:BF:F2:CD:26:0D:36:AE:AC:FF:41:63:26:27:B3:A7:F5:B3:DC
            X509v3 Authority Key Identifier: 
                keyid:5F:11:98:A2:07:FF:52:E1:83:AA:5F:D2:ED:D0:2B:8E:73:3B:C3:50
                DirName:/CN=team376-net
                serial:41:8A:0C:0C:74:E4:95:1B:EE:E7:6E:C7:AB:74:3E:E0:5D:B6:0F:79

            X509v3 Extended Key Usage: 
                TLS Web Client Authentication
            X509v3 Key Usage: 
                Digital Signature
    Signature Algorithm: sha256WithRSAEncryption
         4c:0e:9e:25:84:41:06:f2:cf:fd:0e:8a:6d:1f:0f:61:89:df:
         d3:78:90:14:90:fc:c7:be:9e:bf:08:72:7d:0e:26:32:c0:9b:
         f6:b6:a0:f9:c3:e2:f3:c7:45:4d:18:7a:f3:e7:26:95:6a:92:
         bd:25:b9:a5:6d:4d:68:e7:40:17:64:ac:7d:05:f1:94:f6:a0:
         ff:3f:e7:0c:b5:81:b1:16:0b:bf:f9:6b:40:ae:d6:0d:c4:72:
         35:5e:ee:37:6c:1a:0f:8e:a0:cd:02:ed:c5:69:84:e8:2a:15:
         16:1d:32:07:e3:7d:d5:83:b7:04:46:69:3f:e2:91:03:aa:e3:
         b4:9c:15:41:1e:1c:96:b4:1b:d8:00:b1:2a:de:cb:4c:ce:44:
         dc:00:b8:c6:36:40:88:a1:91:8b:41:bd:86:47:ea:15:e0:81:
         66:54:42:f8:96:bb:d7:64:72:8e:f5:fe:8a:96:c5:b3:0d:5c:
         c2:61:f7:28:fe:0e:86:79:70:29:e1:60:85:3e:fe:b8:ef:e7:
         2e:49:24:0a:97:b8:34:04:f9:f1:02:9a:50:de:f1:c4:7e:48:
         6e:cc:4b:28:f1:7c:a1:ea:91:c7:bc:b1:1c:de:77:9b:95:1d:
         07:52:d1:ea:98:6d:6f:16:f9:fb:94:a0:1e:ab:05:2c:3a:5a:
         1a:ae:4c:d0
-----BEGIN CERTIFICATE-----
MIIDXDCCAkSgAwIBAgIQZdaJXOBsFdGPcaU1PhHiQDANBgkqhkiG9w0BAQsFADAW
MRQwEgYDVQQDDAt0ZWFtMzc2LW5ldDAeFw0yMjA1MTgyMDM5MjJaFw0yNTA1MDIy
MDM5MjJaMBkxFzAVBgNVBAMMDnRlYW0zNzYtY2xpZW50MIIBIjANBgkqhkiG9w0B
AQEFAAOCAQ8AMIIBCgKCAQEAl7ML8Ul+weK9nwwBftdQcaOn+rlx2AlIdXfzbWVl
ITtlD5uotg20KVTnXxZsdRdXr2ZWC3OnxKm1k9fwJZ53dCBbapakzz6HwmwqrSrT
7OLbdeiZHpaiGycnjG0LOT/V/mBpkQEck18ZOmKcq/0crOa2+YIKkk7ZOP9+NMou
yNk+p3CWM5/tlkC2HsVqrPluMNBv9JvSAz5uuahZNoSguqIsDbutjC/tM2CgBKM9
LKTVFzDqUS3/PAc+wPgurWR2XmxcohysjtSFAZyyNjAsvPoJMWq9xMJVJ4ap6OKq
kCPqEooJxcnqI1cS4nvuo7DHp3crEOMPoizYw6hyJBjp6QIDAQABo4GiMIGfMAkG
A1UdEwQCMAAwHQYDVR0OBBYEFPuov/LNJg02rqz/QWMmJ7On9bPcMFEGA1UdIwRK
MEiAFF8RmKIH/1Lhg6pf0u3QK45zO8NQoRqkGDAWMRQwEgYDVQQDDAt0ZWFtMzc2
LW5ldIIUQYoMDHTklRvu527Hq3Q+4F22D3kwEwYDVR0lBAwwCgYIKwYBBQUHAwIw
CwYDVR0PBAQDAgeAMA0GCSqGSIb3DQEBCwUAA4IBAQBMDp4lhEEG8s/9DoptHw9h
id/TeJAUkPzHvp6/CHJ9DiYywJv2tqD5w+Lzx0VNGHrz5yaVapK9JbmlbU1o50AX
ZKx9BfGU9qD/P+cMtYGxFgu/+WtArtYNxHI1Xu43bBoPjqDNAu3FaYToKhUWHTIH
433Vg7cERmk/4pEDquO0nBVBHhyWtBvYALEq3stMzkTcALjGNkCIoZGLQb2GR+oV
4IFmVEL4lrvXZHKO9f6KlsWzDVzCYfco/g6GeXAp4WCFPv647+cuSSQKl7g0BPnx
AppQ3vHEfkhuzEso8Xyh6pHHvLEc3neblR0HUtHqmG1vFvn7lKAeqwUsOloarkzQ
-----END CERTIFICATE-----
