Certificate:
    Data:
        Version: 3 (0x2)
        Serial Number:
            8d:7d:a5:65:03:bf:10:bd:e9:9e:fb:fe:8a:58:74:05
        Signature Algorithm: sha256WithRSAEncryption
        Issuer: CN=team715-net
        Validity
            Not Before: May 18 23:40:27 2022 GMT
            Not After : May  2 23:40:27 2025 GMT
        Subject: CN=team715-client
        Subject Public Key Info:
            Public Key Algorithm: rsaEncryption
                RSA Public-Key: (2048 bit)
                Modulus:
                    00:ae:1e:19:c9:43:37:f7:f7:99:40:2a:09:21:c1:
                    96:79:75:5a:11:49:0a:02:b4:2e:6b:1e:ce:f9:c8:
                    0e:63:b9:00:e1:b5:d6:33:5b:1d:b2:98:8f:c4:a7:
                    aa:b1:41:30:66:d6:73:79:5f:84:6b:55:0f:9b:a5:
                    82:30:d4:fb:09:2f:94:30:15:af:32:76:6e:88:47:
                    bd:7d:8e:84:28:bd:2a:c7:04:88:5e:b4:b1:ad:50:
                    7d:1f:23:a6:35:06:a0:07:14:60:2c:18:bf:a3:86:
                    60:16:d5:5a:b0:5d:89:6a:0c:76:f2:50:b1:d3:8a:
                    24:01:5c:7a:2b:3a:87:30:3b:49:2b:19:14:5f:3a:
                    e2:46:04:47:d9:91:17:48:40:d9:02:b5:71:29:9c:
                    b8:a9:11:1a:58:41:ee:db:02:a2:41:51:24:71:d0:
                    3d:e1:6e:be:32:92:aa:1d:7d:84:b5:5a:e6:dc:70:
                    10:ba:0c:20:51:b9:30:54:f1:f2:7a:19:5c:55:d5:
                    32:77:33:aa:ce:0c:14:5e:cb:15:a3:33:15:df:a5:
                    4c:6f:32:95:bf:77:b8:7d:1e:cb:2f:57:bb:de:b2:
                    96:c4:7e:69:85:53:b0:41:60:e3:84:81:96:83:9d:
                    a3:01:49:47:95:31:7e:23:4e:38:37:ef:b8:35:ce:
                    13:47
                Exponent: 65537 (0x10001)
        X509v3 extensions:
            X509v3 Basic Constraints: 
                CA:FALSE
            X509v3 Subject Key Identifier: 
                FA:A4:37:42:E3:63:D8:66:88:94:EB:51:99:A3:C3:53:FD:05:5D:A1
            X509v3 Authority Key Identifier: 
                keyid:D8:2F:50:C1:EE:36:14:4B:B7:99:AB:DA:FE:77:AA:B3:55:40:38:73
                DirName:/CN=team715-net
                serial:7B:10:C6:F0:99:84:E9:2F:3B:D9:AC:B9:C2:64:CA:1C:08:75:41:82

            X509v3 Extended Key Usage: 
                TLS Web Client Authentication
            X509v3 Key Usage: 
                Digital Signature
    Signature Algorithm: sha256WithRSAEncryption
         a2:37:bd:c4:57:4c:3f:4e:d3:a1:22:f4:76:24:d8:dc:85:a8:
         b1:6a:6f:4b:09:e3:ff:bb:de:28:15:92:37:7e:2d:f0:a1:67:
         52:45:b2:95:24:1c:ac:e6:01:8a:b6:be:60:34:11:84:9b:31:
         03:38:29:2c:4a:62:36:d9:e8:d5:ab:5e:d2:a2:37:ac:00:f0:
         18:12:d9:3c:3e:3a:70:58:47:93:c3:14:cf:d4:24:c1:c5:8e:
         9e:d9:59:b4:0b:e0:1f:4e:02:17:cb:77:1c:d0:14:fc:d6:35:
         7f:bc:2a:4e:1b:42:34:42:5b:d3:b1:40:61:8e:80:63:07:ad:
         54:aa:c4:5c:5a:96:62:b8:0e:9e:83:0c:cd:43:df:e7:6a:59:
         22:3a:c6:dc:0a:74:f5:58:fe:bb:85:e0:a3:4e:74:49:49:22:
         2a:6f:cc:31:2f:0d:4c:b7:86:e3:d7:cd:b1:9e:86:5d:53:9f:
         35:18:54:bc:bd:0d:c1:58:a1:55:c5:15:6d:49:89:3a:e1:34:
         0a:43:42:ef:1b:db:c1:17:50:a0:6b:70:eb:57:a6:4e:96:56:
         2c:e5:77:fa:53:c1:94:dc:57:4e:2e:98:b3:91:06:17:49:dd:
         07:77:eb:a7:7e:aa:45:f2:3e:b6:ea:8f:fc:b2:d7:62:4f:8b:
         6c:55:58:48
-----BEGIN CERTIFICATE-----
MIIDXTCCAkWgAwIBAgIRAI19pWUDvxC96Z77/opYdAUwDQYJKoZIhvcNAQELBQAw
FjEUMBIGA1UEAwwLdGVhbTcxNS1uZXQwHhcNMjIwNTE4MjM0MDI3WhcNMjUwNTAy
MjM0MDI3WjAZMRcwFQYDVQQDDA50ZWFtNzE1LWNsaWVudDCCASIwDQYJKoZIhvcN
AQEBBQADggEPADCCAQoCggEBAK4eGclDN/f3mUAqCSHBlnl1WhFJCgK0LmsezvnI
DmO5AOG11jNbHbKYj8SnqrFBMGbWc3lfhGtVD5ulgjDU+wkvlDAVrzJ2bohHvX2O
hCi9KscEiF60sa1QfR8jpjUGoAcUYCwYv6OGYBbVWrBdiWoMdvJQsdOKJAFceis6
hzA7SSsZFF864kYER9mRF0hA2QK1cSmcuKkRGlhB7tsCokFRJHHQPeFuvjKSqh19
hLVa5txwELoMIFG5MFTx8noZXFXVMnczqs4MFF7LFaMzFd+lTG8ylb93uH0eyy9X
u96ylsR+aYVTsEFg44SBloOdowFJR5UxfiNOODfvuDXOE0cCAwEAAaOBojCBnzAJ
BgNVHRMEAjAAMB0GA1UdDgQWBBT6pDdC42PYZoiU61GZo8NT/QVdoTBRBgNVHSME
SjBIgBTYL1DB7jYUS7eZq9r+d6qzVUA4c6EapBgwFjEUMBIGA1UEAwwLdGVhbTcx
NS1uZXSCFHsQxvCZhOkvO9msucJkyhwIdUGCMBMGA1UdJQQMMAoGCCsGAQUFBwMC
MAsGA1UdDwQEAwIHgDANBgkqhkiG9w0BAQsFAAOCAQEAoje9xFdMP07ToSL0diTY
3IWosWpvSwnj/7veKBWSN34t8KFnUkWylSQcrOYBira+YDQRhJsxAzgpLEpiNtno
1ate0qI3rADwGBLZPD46cFhHk8MUz9QkwcWOntlZtAvgH04CF8t3HNAU/NY1f7wq
ThtCNEJb07FAYY6AYwetVKrEXFqWYrgOnoMMzUPf52pZIjrG3Ap09Vj+u4Xgo050
SUkiKm/MMS8NTLeG49fNsZ6GXVOfNRhUvL0NwVihVcUVbUmJOuE0CkNC7xvbwRdQ
oGtw61emTpZWLOV3+lPBlNxXTi6Ys5EGF0ndB3frp36qRfI+tuqP/LLXYk+LbFVY
SA==
-----END CERTIFICATE-----
