Certificate:
    Data:
        Version: 3 (0x2)
        Serial Number:
            ae:30:3b:3e:df:c1:58:84:71:2f:52:b6:37:9e:49:8b
        Signature Algorithm: sha256WithRSAEncryption
        Issuer: CN=team715-net
        Validity
            Not Before: May 18 23:40:28 2022 GMT
            Not After : May  2 23:40:28 2025 GMT
        Subject: CN=team715-server
        Subject Public Key Info:
            Public Key Algorithm: rsaEncryption
                RSA Public-Key: (2048 bit)
                Modulus:
                    00:ee:97:d7:d5:90:d2:14:bd:cf:30:0f:81:b1:01:
                    cd:ae:e0:ab:09:db:8a:69:54:9f:8e:6f:f7:c5:d6:
                    31:73:ef:3e:2e:c9:91:c7:3a:82:1e:54:25:c9:19:
                    a8:50:f9:b2:be:e2:3a:3b:dd:4c:af:f5:c1:7d:26:
                    86:d9:19:ae:a8:ae:4a:32:24:44:5f:d1:4b:f3:1d:
                    25:0f:3c:a3:87:d5:5a:24:8e:db:38:af:93:ef:a8:
                    df:22:af:84:15:87:8a:a6:06:2a:f4:ea:97:ad:2c:
                    10:1b:bf:80:41:e3:c0:bd:01:8e:39:26:81:6b:60:
                    b1:64:98:5c:b6:9a:ff:32:47:a9:fc:25:fb:a7:7d:
                    1e:6a:90:e4:34:da:20:ad:43:ae:69:96:d6:be:92:
                    7a:66:69:f2:d0:7c:04:4d:0d:b5:cc:96:39:d8:4c:
                    77:e4:e4:7e:e5:96:b4:66:19:c7:58:1c:7a:fa:9d:
                    b7:5a:03:bf:7b:d8:6c:88:b4:01:3e:12:81:87:8c:
                    5d:c2:fe:4a:cb:0d:19:35:5b:6d:d4:d2:9f:89:fb:
                    f9:6f:76:e5:56:9c:96:02:d1:1a:24:4a:c8:30:c6:
                    50:15:bd:74:03:80:e1:54:96:1e:9c:0a:09:6c:1b:
                    76:77:89:f0:b3:26:80:44:73:b1:5c:08:bb:cb:1a:
                    67:cd
                Exponent: 65537 (0x10001)
        X509v3 extensions:
            X509v3 Basic Constraints: 
                CA:FALSE
            X509v3 Subject Key Identifier: 
                18:09:D1:61:08:49:F2:E4:C9:A4:64:EB:53:69:43:9E:93:B3:82:C7
            X509v3 Authority Key Identifier: 
                keyid:D8:2F:50:C1:EE:36:14:4B:B7:99:AB:DA:FE:77:AA:B3:55:40:38:73
                DirName:/CN=team715-net
                serial:7B:10:C6:F0:99:84:E9:2F:3B:D9:AC:B9:C2:64:CA:1C:08:75:41:82

            X509v3 Extended Key Usage: 
                TLS Web Server Authentication
            X509v3 Key Usage: 
                Digital Signature, Key Encipherment
            X509v3 Subject Alternative Name: 
                DNS:team715-server
    Signature Algorithm: sha256WithRSAEncryption
         9b:00:2d:9e:cc:c3:4f:33:95:0a:5c:95:33:96:8c:14:3a:db:
         df:38:42:2f:fb:91:ad:05:1a:a9:ca:28:be:7d:fb:f2:0c:45:
         b6:fd:48:b2:2c:09:d5:54:d0:57:04:bc:9a:a9:55:92:b9:e9:
         ff:44:9f:e2:9b:d4:f7:d8:61:1d:18:db:32:a1:36:66:6d:4f:
         71:e1:38:5a:e5:6b:9e:bb:42:84:94:ed:dc:c1:d7:cf:88:cb:
         3a:60:8f:d2:4b:dc:7d:bd:b9:fa:b6:f7:3b:2e:fa:45:c3:5d:
         0c:c8:00:be:7d:54:96:26:47:c7:15:d5:5b:3a:2e:61:2f:6d:
         73:6a:b6:4a:af:64:e7:3e:c9:8d:c3:e5:13:1b:83:1b:53:b5:
         cb:6a:f4:d4:4b:1c:6b:6d:0a:56:63:84:c8:2b:8e:02:fb:63:
         62:07:02:73:12:e1:4b:ba:56:12:80:62:ae:b7:0d:4f:42:d6:
         f8:e5:30:0f:3e:c8:f8:a5:ef:e7:cd:b9:23:a1:41:f8:0c:d8:
         a7:96:95:db:e5:03:92:ca:f1:39:18:c3:05:88:ee:98:19:84:
         2e:97:1e:fe:5e:75:4d:c3:cc:9c:aa:de:f2:36:f1:65:d8:d3:
         b4:6a:c3:3e:32:45:fd:08:a5:e1:e2:71:9a:b9:9f:08:ff:39:
         b1:d4:c6:cc
-----BEGIN CERTIFICATE-----
MIIDeDCCAmCgAwIBAgIRAK4wOz7fwViEcS9StjeeSYswDQYJKoZIhvcNAQELBQAw
FjEUMBIGA1UEAwwLdGVhbTcxNS1uZXQwHhcNMjIwNTE4MjM0MDI4WhcNMjUwNTAy
MjM0MDI4WjAZMRcwFQYDVQQDDA50ZWFtNzE1LXNlcnZlcjCCASIwDQYJKoZIhvcN
AQEBBQADggEPADCCAQoCggEBAO6X19WQ0hS9zzAPgbEBza7gqwnbimlUn45v98XW
MXPvPi7Jkcc6gh5UJckZqFD5sr7iOjvdTK/1wX0mhtkZrqiuSjIkRF/RS/MdJQ88
o4fVWiSO2zivk++o3yKvhBWHiqYGKvTql60sEBu/gEHjwL0BjjkmgWtgsWSYXLaa
/zJHqfwl+6d9HmqQ5DTaIK1DrmmW1r6SemZp8tB8BE0NtcyWOdhMd+TkfuWWtGYZ
x1gcevqdt1oDv3vYbIi0AT4SgYeMXcL+SssNGTVbbdTSn4n7+W925VaclgLRGiRK
yDDGUBW9dAOA4VSWHpwKCWwbdneJ8LMmgERzsVwIu8saZ80CAwEAAaOBvTCBujAJ
BgNVHRMEAjAAMB0GA1UdDgQWBBQYCdFhCEny5MmkZOtTaUOek7OCxzBRBgNVHSME
SjBIgBTYL1DB7jYUS7eZq9r+d6qzVUA4c6EapBgwFjEUMBIGA1UEAwwLdGVhbTcx
NS1uZXSCFHsQxvCZhOkvO9msucJkyhwIdUGCMBMGA1UdJQQMMAoGCCsGAQUFBwMB
MAsGA1UdDwQEAwIFoDAZBgNVHREEEjAQgg50ZWFtNzE1LXNlcnZlcjANBgkqhkiG
9w0BAQsFAAOCAQEAmwAtnszDTzOVClyVM5aMFDrb3zhCL/uRrQUaqcoovn378gxF
tv1IsiwJ1VTQVwS8mqlVkrnp/0Sf4pvU99hhHRjbMqE2Zm1PceE4WuVrnrtChJTt
3MHXz4jLOmCP0kvcfb25+rb3Oy76RcNdDMgAvn1UliZHxxXVWzouYS9tc2q2Sq9k
5z7JjcPlExuDG1O1y2r01Esca20KVmOEyCuOAvtjYgcCcxLhS7pWEoBirrcNT0LW
+OUwDz7I+KXv5825I6FB+AzYp5aV2+UDksrxORjDBYjumBmELpce/l51TcPMnKre
8jbxZdjTtGrDPjJF/Qil4eJxmrmfCP85sdTGzA==
-----END CERTIFICATE-----
