Certificate:
    Data:
        Version: 3 (0x2)
        Serial Number:
            93:3f:38:62:20:1d:6c:11:5c:f8:c7:15:18:5c:a1:65
        Signature Algorithm: sha256WithRSAEncryption
        Issuer: CN=team651-net
        Validity
            Not Before: May 18 23:03:24 2022 GMT
            Not After : May  2 23:03:24 2025 GMT
        Subject: CN=team651-server
        Subject Public Key Info:
            Public Key Algorithm: rsaEncryption
                RSA Public-Key: (2048 bit)
                Modulus:
                    00:b3:47:6c:71:ef:bb:5a:46:fb:42:61:24:d1:cd:
                    ec:5e:59:28:96:38:cc:9c:59:1a:53:69:35:b1:1b:
                    df:8c:a8:8c:6e:bf:c5:13:a0:e3:20:e5:0b:40:71:
                    c8:8c:01:20:e9:7d:fc:50:cc:09:47:0b:7d:bf:4c:
                    1e:f0:f1:d4:90:0e:7d:15:4e:71:f0:92:2c:0b:d3:
                    0e:b8:f3:59:7c:d1:a8:8e:e6:aa:fe:a2:a6:25:03:
                    54:50:b6:15:94:a4:48:22:9b:3b:c8:c6:e7:65:c3:
                    62:67:76:cd:8c:63:0d:42:ca:f6:41:01:8a:c5:a2:
                    47:a1:83:ff:da:d1:05:72:aa:ae:d5:c8:91:fa:1c:
                    fb:c1:75:87:1c:45:db:0c:91:8c:af:3d:b5:cc:88:
                    18:2b:db:25:5d:b3:a2:e4:0a:08:31:dc:67:b6:7b:
                    5c:ef:8a:cb:fe:cf:45:51:60:13:d8:d4:58:e2:ee:
                    e0:2d:41:26:4b:2f:0f:e4:1a:52:60:fb:5d:f6:78:
                    a8:2d:91:0a:06:45:b0:2e:29:73:88:e2:80:d2:4b:
                    4a:50:4a:21:40:85:8c:df:82:d3:b9:11:e8:18:94:
                    57:ca:fa:fe:70:66:2d:60:43:6a:e0:fb:27:f8:38:
                    08:34:64:ea:59:21:90:c0:bf:ff:1f:13:e0:b9:ef:
                    9a:77
                Exponent: 65537 (0x10001)
        X509v3 extensions:
            X509v3 Basic Constraints: 
                CA:FALSE
            X509v3 Subject Key Identifier: 
                96:97:5E:83:BC:A6:1F:B6:C1:8A:3F:3F:96:40:39:50:10:57:A4:44
            X509v3 Authority Key Identifier: 
                keyid:5A:BC:F7:76:D3:EF:3C:10:9B:8B:FC:76:07:28:FA:51:16:54:4E:3C
                DirName:/CN=team651-net
                serial:31:F6:37:C1:05:C3:61:B1:27:B7:92:AD:B4:20:AF:59:F7:F5:D0:1E

            X509v3 Extended Key Usage: 
                TLS Web Server Authentication
            X509v3 Key Usage: 
                Digital Signature, Key Encipherment
            X509v3 Subject Alternative Name: 
                DNS:team651-server
    Signature Algorithm: sha256WithRSAEncryption
         6a:bd:66:64:12:6f:90:4c:b8:13:82:1d:d1:0a:33:7d:0a:37:
         30:4a:2b:be:ba:47:7a:28:03:5a:51:0e:ad:3f:3d:e1:05:35:
         73:50:09:3a:20:2f:4e:c1:6c:8a:ec:52:57:27:5a:c8:85:eb:
         bd:6e:eb:64:d9:a1:0c:62:f6:5f:54:ec:67:d6:8a:8e:43:c3:
         12:5a:ed:bf:66:18:d2:fa:30:20:77:79:63:25:47:9d:9b:40:
         d5:5f:1a:32:87:58:6d:61:d5:26:0d:01:45:3d:80:78:1d:e7:
         03:c9:ac:8b:f7:54:4d:70:b8:88:57:81:37:52:79:52:04:e9:
         39:91:a5:78:b3:90:6b:33:ce:6f:4b:5a:78:30:0f:dc:60:16:
         1f:0f:0a:f6:be:23:40:01:a2:fb:20:8b:35:c8:a3:81:ce:c6:
         86:cb:39:7f:24:4d:e7:d6:c7:25:78:a6:92:73:61:89:f8:10:
         1b:06:73:e6:c8:9c:f0:25:c2:12:27:3b:5c:2f:d1:64:47:7f:
         41:54:56:87:c2:dd:45:07:aa:ad:fe:fb:97:81:19:fd:75:31:
         70:4a:b9:bf:37:14:fd:c7:a3:ca:3a:ab:d8:53:dc:a2:bb:7e:
         0d:4d:4f:e7:0a:45:73:2e:25:7b:6e:49:68:07:4e:4b:e0:a3:
         7c:2d:fb:3b
-----BEGIN CERTIFICATE-----
MIIDeDCCAmCgAwIBAgIRAJM/OGIgHWwRXPjHFRhcoWUwDQYJKoZIhvcNAQELBQAw
FjEUMBIGA1UEAwwLdGVhbTY1MS1uZXQwHhcNMjIwNTE4MjMwMzI0WhcNMjUwNTAy
MjMwMzI0WjAZMRcwFQYDVQQDDA50ZWFtNjUxLXNlcnZlcjCCASIwDQYJKoZIhvcN
AQEBBQADggEPADCCAQoCggEBALNHbHHvu1pG+0JhJNHN7F5ZKJY4zJxZGlNpNbEb
34yojG6/xROg4yDlC0BxyIwBIOl9/FDMCUcLfb9MHvDx1JAOfRVOcfCSLAvTDrjz
WXzRqI7mqv6ipiUDVFC2FZSkSCKbO8jG52XDYmd2zYxjDULK9kEBisWiR6GD/9rR
BXKqrtXIkfoc+8F1hxxF2wyRjK89tcyIGCvbJV2zouQKCDHcZ7Z7XO+Ky/7PRVFg
E9jUWOLu4C1BJksvD+QaUmD7XfZ4qC2RCgZFsC4pc4jigNJLSlBKIUCFjN+C07kR
6BiUV8r6/nBmLWBDauD7J/g4CDRk6lkhkMC//x8T4LnvmncCAwEAAaOBvTCBujAJ
BgNVHRMEAjAAMB0GA1UdDgQWBBSWl16DvKYftsGKPz+WQDlQEFekRDBRBgNVHSME
SjBIgBRavPd20+88EJuL/HYHKPpRFlROPKEapBgwFjEUMBIGA1UEAwwLdGVhbTY1
MS1uZXSCFDH2N8EFw2GxJ7eSrbQgr1n39dAeMBMGA1UdJQQMMAoGCCsGAQUFBwMB
MAsGA1UdDwQEAwIFoDAZBgNVHREEEjAQgg50ZWFtNjUxLXNlcnZlcjANBgkqhkiG
9w0BAQsFAAOCAQEAar1mZBJvkEy4E4Id0QozfQo3MEorvrpHeigDWlEOrT894QU1
c1AJOiAvTsFsiuxSVydayIXrvW7rZNmhDGL2X1TsZ9aKjkPDElrtv2YY0vowIHd5
YyVHnZtA1V8aModYbWHVJg0BRT2AeB3nA8msi/dUTXC4iFeBN1J5UgTpOZGleLOQ
azPOb0taeDAP3GAWHw8K9r4jQAGi+yCLNcijgc7Ghss5fyRN59bHJXimknNhifgQ
GwZz5sic8CXCEic7XC/RZEd/QVRWh8LdRQeqrf77l4EZ/XUxcEq5vzcU/cejyjqr
2FPcort+DU1P5wpFcy4le25JaAdOS+CjfC37Ow==
-----END CERTIFICATE-----
