Certificate:
    Data:
        Version: 3 (0x2)
        Serial Number:
            63:35:cb:39:66:c0:0e:b8:1f:5b:b9:8d:9b:f1:0e:4b
        Signature Algorithm: sha256WithRSAEncryption
        Issuer: CN=team581-net
        Validity
            Not Before: May 18 22:32:50 2022 GMT
            Not After : May  2 22:32:50 2025 GMT
        Subject: CN=team581-client
        Subject Public Key Info:
            Public Key Algorithm: rsaEncryption
                RSA Public-Key: (2048 bit)
                Modulus:
                    00:b3:d5:3a:23:ac:91:ae:e6:70:b3:04:75:bd:8c:
                    c2:12:cb:9d:02:09:c9:2b:b7:b8:d9:a4:85:86:45:
                    af:a2:95:72:6d:f1:23:83:e0:4b:40:bb:f9:0c:03:
                    35:00:1e:15:5c:88:d5:f6:8d:19:9e:58:04:b0:db:
                    58:b8:0d:14:ba:c3:31:a4:92:92:6f:7c:51:5d:09:
                    0c:1a:b9:46:af:02:dc:66:f1:68:bd:28:c1:9e:3b:
                    8a:a3:0f:f8:fc:f3:16:07:68:5c:80:f6:5b:11:8a:
                    64:1c:07:1a:d5:ab:f3:e1:d0:d9:08:bc:0b:95:bc:
                    f3:08:4f:4e:28:54:5a:73:3e:ea:09:a0:6c:be:7a:
                    0c:fe:91:47:3f:95:a8:67:c6:78:a7:fd:c7:9b:bc:
                    e2:e5:2e:62:05:26:de:85:06:17:f8:d7:40:8d:c9:
                    2a:12:26:6b:4f:2b:fa:20:f1:21:86:bb:df:96:aa:
                    43:bf:bc:af:2f:f8:0f:2e:52:9a:ae:1c:ba:65:1b:
                    8a:ad:81:57:bb:d3:7d:24:89:03:bd:45:db:f7:51:
                    22:60:15:0c:12:04:ca:ad:d5:43:20:0b:7b:71:31:
                    b5:fa:83:f7:b5:ec:31:b3:b8:83:e8:35:52:fc:c7:
                    ea:22:5b:ab:2e:73:05:f1:73:bc:1a:5d:95:fa:ae:
                    84:85
                Exponent: 65537 (0x10001)
        X509v3 extensions:
            X509v3 Basic Constraints: 
                CA:FALSE
            X509v3 Subject Key Identifier: 
                8E:06:20:D3:E8:8E:55:72:19:54:9E:58:A6:4F:4F:D4:15:EE:04:6A
            X509v3 Authority Key Identifier: 
                keyid:6F:84:F2:48:75:24:FC:12:44:E5:92:C0:86:6E:62:F2:14:D5:B2:9D
                DirName:/CN=team581-net
                serial:74:43:94:AC:65:79:E6:14:EB:D4:10:C5:0D:B0:43:ED:BA:F0:28:E1

            X509v3 Extended Key Usage: 
                TLS Web Client Authentication
            X509v3 Key Usage: 
                Digital Signature
    Signature Algorithm: sha256WithRSAEncryption
         ae:f6:97:8d:02:5a:bb:63:49:ed:33:d9:be:4d:fe:d2:74:fe:
         27:9c:da:a6:d2:36:be:75:99:ce:c3:5a:0a:37:54:05:a7:4e:
         3e:8c:a0:2b:9d:d5:40:b0:6d:7d:eb:7b:76:7b:5a:66:a6:09:
         fc:d9:aa:6b:4c:89:66:f2:c8:d0:c1:20:5c:6f:a8:43:63:b2:
         50:cd:f0:16:1f:51:75:10:98:c3:a6:89:fb:dc:e9:c3:e7:12:
         fe:e7:78:e8:43:6b:f6:6a:d0:3c:76:fc:e3:da:6f:4b:dd:6e:
         0d:97:1d:8b:d0:81:5a:a1:6d:83:1a:c0:dd:5a:07:f2:e7:7b:
         d6:be:af:e3:77:f8:f4:4e:14:ff:d4:8f:fe:e1:db:9b:85:bb:
         a3:5f:d1:9d:3b:46:d9:f2:a7:c2:26:25:96:fb:2e:eb:8b:ec:
         07:1e:ec:89:2e:41:6e:bd:0d:9d:ac:d1:1a:f0:c3:f7:b9:e0:
         4d:b7:0d:ef:84:2c:d5:ab:09:19:a0:89:ab:c6:1d:56:78:81:
         0b:ea:99:09:31:16:7f:19:23:b5:f2:a3:de:84:59:d7:a1:88:
         16:d5:74:71:1d:35:e2:9d:7c:9d:30:a5:e4:95:2a:7b:65:11:
         fe:e5:65:f4:75:45:7e:1e:51:cb:d9:15:29:f7:d3:da:2c:0c:
         1a:61:50:95
-----BEGIN CERTIFICATE-----
MIIDXDCCAkSgAwIBAgIQYzXLOWbADrgfW7mNm/EOSzANBgkqhkiG9w0BAQsFADAW
MRQwEgYDVQQDDAt0ZWFtNTgxLW5ldDAeFw0yMjA1MTgyMjMyNTBaFw0yNTA1MDIy
MjMyNTBaMBkxFzAVBgNVBAMMDnRlYW01ODEtY2xpZW50MIIBIjANBgkqhkiG9w0B
AQEFAAOCAQ8AMIIBCgKCAQEAs9U6I6yRruZwswR1vYzCEsudAgnJK7e42aSFhkWv
opVybfEjg+BLQLv5DAM1AB4VXIjV9o0ZnlgEsNtYuA0UusMxpJKSb3xRXQkMGrlG
rwLcZvFovSjBnjuKow/4/PMWB2hcgPZbEYpkHAca1avz4dDZCLwLlbzzCE9OKFRa
cz7qCaBsvnoM/pFHP5WoZ8Z4p/3Hm7zi5S5iBSbehQYX+NdAjckqEiZrTyv6IPEh
hrvflqpDv7yvL/gPLlKarhy6ZRuKrYFXu9N9JIkDvUXb91EiYBUMEgTKrdVDIAt7
cTG1+oP3tewxs7iD6DVS/MfqIlurLnMF8XO8Gl2V+q6EhQIDAQABo4GiMIGfMAkG
A1UdEwQCMAAwHQYDVR0OBBYEFI4GINPojlVyGVSeWKZPT9QV7gRqMFEGA1UdIwRK
MEiAFG+E8kh1JPwSROWSwIZuYvIU1bKdoRqkGDAWMRQwEgYDVQQDDAt0ZWFtNTgx
LW5ldIIUdEOUrGV55hTr1BDFDbBD7brwKOEwEwYDVR0lBAwwCgYIKwYBBQUHAwIw
CwYDVR0PBAQDAgeAMA0GCSqGSIb3DQEBCwUAA4IBAQCu9peNAlq7Y0ntM9m+Tf7S
dP4nnNqm0ja+dZnOw1oKN1QFp04+jKArndVAsG1963t2e1pmpgn82aprTIlm8sjQ
wSBcb6hDY7JQzfAWH1F1EJjDpon73OnD5xL+53joQ2v2atA8dvzj2m9L3W4Nlx2L
0IFaoW2DGsDdWgfy53vWvq/jd/j0ThT/1I/+4dubhbujX9GdO0bZ8qfCJiWW+y7r
i+wHHuyJLkFuvQ2drNEa8MP3ueBNtw3vhCzVqwkZoImrxh1WeIEL6pkJMRZ/GSO1
8qPehFnXoYgW1XRxHTXinXydMKXklSp7ZRH+5WX0dUV+HlHL2RUp99PaLAwaYVCV
-----END CERTIFICATE-----
