Certificate:
    Data:
        Version: 3 (0x2)
        Serial Number:
            fc:f5:39:98:7d:c9:15:cb:d0:b7:d3:3c:91:ab:3d:9b
        Signature Algorithm: sha256WithRSAEncryption
        Issuer: CN=team27-net
        Validity
            Not Before: May 18 14:11:24 2022 GMT
            Not After : May  2 14:11:24 2025 GMT
        Subject: CN=team27-server
        Subject Public Key Info:
            Public Key Algorithm: rsaEncryption
                RSA Public-Key: (2048 bit)
                Modulus:
                    00:be:20:d1:9c:c6:34:c4:39:10:e1:cd:28:c8:35:
                    7f:e0:0b:dd:e0:d5:f0:ca:51:0e:97:ff:60:80:4e:
                    c6:6f:01:c9:25:61:de:a4:69:54:0b:7a:6d:cc:2e:
                    c1:c9:d1:fb:03:04:89:81:12:eb:19:b9:35:9a:cf:
                    0f:7e:43:23:ef:3d:60:e2:13:e8:90:ed:ec:14:62:
                    9f:22:82:93:4c:62:5a:83:99:80:35:41:66:53:ef:
                    21:7c:2f:c4:4b:ab:58:9b:04:b8:27:f9:d7:dc:a3:
                    5e:b3:63:43:5b:a8:35:ee:0e:8c:53:4a:b1:e9:1a:
                    64:30:4a:30:11:1d:c1:fc:38:3a:94:8d:e0:b9:77:
                    ed:7e:33:2d:12:5c:8a:99:af:ab:dd:61:27:69:f1:
                    e7:54:8a:70:19:20:2b:e0:ec:d2:96:8d:5f:8b:73:
                    c6:09:d9:42:3f:32:95:1b:16:55:8c:ae:44:94:2a:
                    c2:29:34:39:30:1b:4d:28:8c:45:28:3b:64:f5:b4:
                    10:30:f2:1e:72:dd:d5:91:45:89:76:f3:73:2d:25:
                    9c:70:72:33:5f:f2:04:9e:26:c3:9e:99:13:d2:3e:
                    d0:50:7b:0f:b5:fc:05:8f:e0:4d:81:c8:c9:19:9b:
                    85:7c:2c:e0:36:f3:3d:b4:c1:76:8e:79:8b:8b:98:
                    c1:e9
                Exponent: 65537 (0x10001)
        X509v3 extensions:
            X509v3 Basic Constraints: 
                CA:FALSE
            X509v3 Subject Key Identifier: 
                70:A4:7E:7A:C2:B5:52:2E:98:91:28:18:07:04:5F:33:13:0C:D9:CB
            X509v3 Authority Key Identifier: 
                keyid:89:59:51:CC:C3:0E:7B:77:18:36:B0:7B:27:8B:CB:13:4B:BB:A2:55
                DirName:/CN=team27-net
                serial:40:B1:D9:3B:28:63:A4:68:6C:CB:E9:DF:50:DA:51:BB:4A:B7:76:79

            X509v3 Extended Key Usage: 
                TLS Web Server Authentication
            X509v3 Key Usage: 
                Digital Signature, Key Encipherment
            X509v3 Subject Alternative Name: 
                DNS:team27-server
    Signature Algorithm: sha256WithRSAEncryption
         1d:a2:b7:d2:90:36:7f:a4:a6:40:87:08:49:ea:34:be:99:c8:
         9b:9a:ab:e0:e2:a6:61:85:b3:35:c5:59:86:c7:14:6a:83:2a:
         f2:50:23:1c:12:d8:5e:b4:b6:fa:d8:6e:81:f2:e6:f3:e5:eb:
         eb:d0:14:96:0f:f1:ed:b8:cf:8a:48:41:8b:0f:68:1d:8a:f0:
         0f:05:3c:d2:d9:2c:0d:9f:15:08:8f:8e:a2:b9:75:b7:be:71:
         6a:60:0f:f9:bc:2c:76:0b:ea:14:fe:67:52:f4:e2:3f:c3:28:
         5b:51:3b:81:29:4e:0f:86:94:ad:f1:5b:b0:ca:2a:07:03:6c:
         71:6c:2d:d9:c8:45:42:7e:06:62:04:a5:bb:a9:eb:27:04:9a:
         f9:1d:5d:e3:3b:e0:de:b5:f4:ad:d6:fe:52:10:ac:b4:e1:77:
         76:a5:ca:90:c3:56:33:75:43:df:5b:9b:d0:6f:68:d7:f4:45:
         68:e4:5f:5f:56:b0:d3:2f:11:59:85:45:86:4e:fd:8b:65:a8:
         5f:c6:cf:17:91:f9:69:1a:5f:3e:f8:14:2f:4b:b5:cf:97:45:
         ba:94:0f:14:9c:14:7c:89:5e:2c:a8:e3:10:c4:b9:6c:e1:e1:
         89:26:94:69:74:a3:6e:f9:c5:c0:48:12:a4:ff:85:2b:7e:b6:
         a9:a7:68:4e
-----BEGIN CERTIFICATE-----
MIIDdDCCAlygAwIBAgIRAPz1OZh9yRXL0LfTPJGrPZswDQYJKoZIhvcNAQELBQAw
FTETMBEGA1UEAwwKdGVhbTI3LW5ldDAeFw0yMjA1MTgxNDExMjRaFw0yNTA1MDIx
NDExMjRaMBgxFjAUBgNVBAMMDXRlYW0yNy1zZXJ2ZXIwggEiMA0GCSqGSIb3DQEB
AQUAA4IBDwAwggEKAoIBAQC+INGcxjTEORDhzSjINX/gC93g1fDKUQ6X/2CATsZv
AcklYd6kaVQLem3MLsHJ0fsDBImBEusZuTWazw9+QyPvPWDiE+iQ7ewUYp8igpNM
YlqDmYA1QWZT7yF8L8RLq1ibBLgn+dfco16zY0NbqDXuDoxTSrHpGmQwSjARHcH8
ODqUjeC5d+1+My0SXIqZr6vdYSdp8edUinAZICvg7NKWjV+Lc8YJ2UI/MpUbFlWM
rkSUKsIpNDkwG00ojEUoO2T1tBAw8h5y3dWRRYl283MtJZxwcjNf8gSeJsOemRPS
PtBQew+1/AWP4E2ByMkZm4V8LOA28z20wXaOeYuLmMHpAgMBAAGjgbswgbgwCQYD
VR0TBAIwADAdBgNVHQ4EFgQUcKR+esK1Ui6YkSgYBwRfMxMM2cswUAYDVR0jBEkw
R4AUiVlRzMMOe3cYNrB7J4vLE0u7olWhGaQXMBUxEzARBgNVBAMMCnRlYW0yNy1u
ZXSCFECx2TsoY6RobMvp31DaUbtKt3Z5MBMGA1UdJQQMMAoGCCsGAQUFBwMBMAsG
A1UdDwQEAwIFoDAYBgNVHREEETAPgg10ZWFtMjctc2VydmVyMA0GCSqGSIb3DQEB
CwUAA4IBAQAdorfSkDZ/pKZAhwhJ6jS+mcibmqvg4qZhhbM1xVmGxxRqgyryUCMc
EthetLb62G6B8ubz5evr0BSWD/HtuM+KSEGLD2gdivAPBTzS2SwNnxUIj46iuXW3
vnFqYA/5vCx2C+oU/mdS9OI/wyhbUTuBKU4PhpSt8VuwyioHA2xxbC3ZyEVCfgZi
BKW7qesnBJr5HV3jO+DetfSt1v5SEKy04Xd2pcqQw1YzdUPfW5vQb2jX9EVo5F9f
VrDTLxFZhUWGTv2LZahfxs8XkflpGl8++BQvS7XPl0W6lA8UnBR8iV4sqOMQxLls
4eGJJpRpdKNu+cXASBKk/4Urfrapp2hO
-----END CERTIFICATE-----
