Certificate:
    Data:
        Version: 3 (0x2)
        Serial Number:
            66:23:63:ce:27:e5:e2:b7:5d:3e:7a:b5:eb:56:01:df
        Signature Algorithm: sha256WithRSAEncryption
        Issuer: CN=team115-net
        Validity
            Not Before: May 18 15:02:06 2022 GMT
            Not After : May  2 15:02:06 2025 GMT
        Subject: CN=team115-client
        Subject Public Key Info:
            Public Key Algorithm: rsaEncryption
                RSA Public-Key: (2048 bit)
                Modulus:
                    00:a9:4d:5c:d4:0f:67:39:fb:9e:de:78:a4:52:c7:
                    71:66:65:12:bb:0e:9b:0b:71:c3:92:9c:70:69:ad:
                    95:97:e5:4b:80:7a:2e:f9:d0:42:dc:bd:8d:3e:a1:
                    12:22:15:8e:4d:0f:46:c8:bd:d6:12:8f:69:84:0f:
                    9f:90:24:17:af:fc:a5:e1:ab:48:3e:b4:89:0b:be:
                    07:c0:64:84:03:47:7d:d9:62:80:71:3d:08:3c:1f:
                    c1:6e:b5:67:17:66:b3:47:0b:e3:65:20:51:17:83:
                    d8:fc:3f:4a:99:84:2f:65:8f:b5:fe:76:6a:cb:3f:
                    b7:57:b2:79:b8:ca:a4:cf:91:8a:0c:8a:72:3c:8c:
                    ac:0c:31:32:f1:ad:0b:1b:a2:5b:fe:75:8f:6a:f9:
                    ea:df:cf:00:06:e3:d1:93:c9:2f:82:21:11:8d:ec:
                    48:0c:6e:ff:7e:06:57:b5:92:db:7a:f6:96:57:d8:
                    33:33:7a:f3:e0:75:b2:27:91:26:36:82:bd:ca:c6:
                    74:2c:f4:8f:21:e9:51:ec:cf:00:bc:93:ec:16:c7:
                    5c:a2:e9:3e:ce:b7:3e:4a:c9:13:a4:81:65:af:ce:
                    af:bd:54:67:62:56:0b:55:1a:45:7c:d3:6e:d3:9a:
                    48:02:f8:59:06:5b:5c:22:fe:0e:7f:7b:44:1d:a3:
                    8d:17
                Exponent: 65537 (0x10001)
        X509v3 extensions:
            X509v3 Basic Constraints: 
                CA:FALSE
            X509v3 Subject Key Identifier: 
                ED:59:BA:B1:98:B1:94:54:44:83:D4:DD:D4:1B:AF:02:6B:5B:31:1B
            X509v3 Authority Key Identifier: 
                keyid:C8:83:E4:8C:C2:EC:03:B9:BD:71:42:FC:3C:39:13:18:BF:F4:76:EA
                DirName:/CN=team115-net
                serial:24:29:7D:A4:75:56:5C:E2:1A:51:54:80:BA:E9:E6:3D:2C:DA:51:4F

            X509v3 Extended Key Usage: 
                TLS Web Client Authentication
            X509v3 Key Usage: 
                Digital Signature
    Signature Algorithm: sha256WithRSAEncryption
         39:03:41:db:13:01:af:a8:21:68:52:99:0f:09:05:15:5a:3d:
         f8:94:c5:07:1f:e6:26:43:4d:bd:c9:ac:50:f2:d8:ea:13:f8:
         7c:57:eb:e3:29:58:26:f4:90:d9:63:d2:85:25:a5:2a:17:e3:
         a9:50:f5:42:4b:cb:d8:90:14:59:39:37:59:ad:cb:f4:e6:17:
         b4:20:69:61:8a:42:a3:81:5a:47:6f:e2:64:ee:4d:df:17:94:
         29:fc:04:a8:15:ac:c6:b8:18:3b:5b:eb:f1:76:ed:31:ab:af:
         9c:72:ae:05:87:c1:8e:91:f3:70:f5:d5:4c:df:20:6f:e6:6e:
         35:85:51:f5:a0:73:50:f9:44:aa:49:39:6c:83:d4:e3:b6:a5:
         10:1d:d3:a9:93:23:e6:3d:9e:42:30:f6:83:cb:dd:91:ed:95:
         de:1c:a4:58:a8:f9:db:69:18:bb:f9:88:4e:4f:46:5b:5a:3f:
         3b:21:b2:ec:68:df:a9:24:ec:4e:ef:b4:f1:07:5d:96:26:ad:
         fa:bc:a5:45:71:f1:ad:7a:6d:07:77:e3:5f:78:1f:8e:f4:40:
         0e:78:33:64:bb:c3:5c:bf:37:1e:0a:7a:e5:c6:0b:ed:f4:f1:
         0b:fa:c7:3c:b7:63:03:41:e4:36:01:06:34:50:7b:6b:47:c6:
         8c:89:79:a1
-----BEGIN CERTIFICATE-----
MIIDXDCCAkSgAwIBAgIQZiNjzifl4rddPnq161YB3zANBgkqhkiG9w0BAQsFADAW
MRQwEgYDVQQDDAt0ZWFtMTE1LW5ldDAeFw0yMjA1MTgxNTAyMDZaFw0yNTA1MDIx
NTAyMDZaMBkxFzAVBgNVBAMMDnRlYW0xMTUtY2xpZW50MIIBIjANBgkqhkiG9w0B
AQEFAAOCAQ8AMIIBCgKCAQEAqU1c1A9nOfue3nikUsdxZmUSuw6bC3HDkpxwaa2V
l+VLgHou+dBC3L2NPqESIhWOTQ9GyL3WEo9phA+fkCQXr/yl4atIPrSJC74HwGSE
A0d92WKAcT0IPB/BbrVnF2azRwvjZSBRF4PY/D9KmYQvZY+1/nZqyz+3V7J5uMqk
z5GKDIpyPIysDDEy8a0LG6Jb/nWPavnq388ABuPRk8kvgiERjexIDG7/fgZXtZLb
evaWV9gzM3rz4HWyJ5EmNoK9ysZ0LPSPIelR7M8AvJPsFsdcouk+zrc+SskTpIFl
r86vvVRnYlYLVRpFfNNu05pIAvhZBltcIv4Of3tEHaONFwIDAQABo4GiMIGfMAkG
A1UdEwQCMAAwHQYDVR0OBBYEFO1ZurGYsZRURIPU3dQbrwJrWzEbMFEGA1UdIwRK
MEiAFMiD5IzC7AO5vXFC/Dw5Exi/9HbqoRqkGDAWMRQwEgYDVQQDDAt0ZWFtMTE1
LW5ldIIUJCl9pHVWXOIaUVSAuunmPSzaUU8wEwYDVR0lBAwwCgYIKwYBBQUHAwIw
CwYDVR0PBAQDAgeAMA0GCSqGSIb3DQEBCwUAA4IBAQA5A0HbEwGvqCFoUpkPCQUV
Wj34lMUHH+YmQ029yaxQ8tjqE/h8V+vjKVgm9JDZY9KFJaUqF+OpUPVCS8vYkBRZ
OTdZrcv05he0IGlhikKjgVpHb+Jk7k3fF5Qp/ASoFazGuBg7W+vxdu0xq6+ccq4F
h8GOkfNw9dVM3yBv5m41hVH1oHNQ+USqSTlsg9TjtqUQHdOpkyPmPZ5CMPaDy92R
7ZXeHKRYqPnbaRi7+YhOT0ZbWj87IbLsaN+pJOxO77TxB12WJq36vKVFcfGtem0H
d+NfeB+O9EAOeDNku8NcvzceCnrlxgvt9PEL+sc8t2MDQeQ2AQY0UHtrR8aMiXmh
-----END CERTIFICATE-----
