Certificate:
    Data:
        Version: 3 (0x2)
        Serial Number:
            dc:95:52:e5:b1:32:8c:57:b6:94:47:32:14:44:9b:9d
        Signature Algorithm: sha256WithRSAEncryption
        Issuer: CN=team387-net
        Validity
            Not Before: May 18 20:54:58 2022 GMT
            Not After : May  2 20:54:58 2025 GMT
        Subject: CN=team387-client
        Subject Public Key Info:
            Public Key Algorithm: rsaEncryption
                RSA Public-Key: (2048 bit)
                Modulus:
                    00:c7:c6:4f:d2:f4:c6:ab:40:be:44:e1:4c:77:97:
                    0a:c4:ce:02:d9:ac:dc:07:ed:26:aa:f2:8e:17:96:
                    ae:2d:ae:d3:24:f4:c1:18:2e:9e:a4:61:9c:f7:8f:
                    a2:97:8c:af:4f:e3:16:bc:f8:c2:a1:9e:88:52:4d:
                    b8:ed:42:ae:9a:6a:10:14:85:69:78:fa:06:04:4d:
                    a6:2e:95:4d:c7:ff:28:db:b9:86:24:7a:cd:3e:da:
                    15:61:71:39:d1:da:28:73:f6:07:b9:44:4c:3e:66:
                    41:ce:57:8c:36:32:9f:aa:96:f6:3d:09:19:23:34:
                    0d:4d:ae:d5:ab:9a:63:61:2f:51:5b:41:ae:e6:7c:
                    d9:99:7c:9e:a2:88:d5:1d:82:7c:7e:c7:29:4b:dd:
                    52:20:09:1e:92:4b:9d:0b:c0:0c:83:d1:7e:a7:de:
                    74:6f:92:d9:5e:06:62:a2:0a:55:cf:df:5c:02:4f:
                    72:76:3f:c3:d1:1e:2d:7f:9d:ba:07:9e:e2:ac:47:
                    99:81:67:05:ac:96:6e:de:0a:c8:d7:aa:0b:3f:5b:
                    7f:70:91:6f:43:a4:9e:7f:70:b4:b0:1b:37:66:76:
                    d9:f8:8c:c7:77:5e:d4:d7:d3:0d:e7:a4:6a:a5:6c:
                    91:27:11:0c:41:e8:76:25:9b:db:ee:26:d0:05:7b:
                    f7:03
                Exponent: 65537 (0x10001)
        X509v3 extensions:
            X509v3 Basic Constraints: 
                CA:FALSE
            X509v3 Subject Key Identifier: 
                5C:29:39:C0:32:0F:7E:C5:27:50:E5:62:CA:A2:C0:57:E1:5A:86:E3
            X509v3 Authority Key Identifier: 
                keyid:7F:FC:32:49:0F:85:CA:50:E2:BF:7E:C2:76:98:4F:C8:EF:AA:28:9B
                DirName:/CN=team387-net
                serial:4A:8E:93:A2:9E:EA:ED:09:06:51:1D:20:E8:C1:9D:79:74:81:61:89

            X509v3 Extended Key Usage: 
                TLS Web Client Authentication
            X509v3 Key Usage: 
                Digital Signature
    Signature Algorithm: sha256WithRSAEncryption
         0a:61:0e:88:a4:14:da:52:74:3a:9d:2c:e6:05:9d:0f:1c:b8:
         6d:32:ba:97:d1:29:cc:c5:7d:35:6c:ab:86:dd:14:a0:10:a2:
         4d:df:97:d7:ce:e6:5e:85:92:c7:ba:4e:6a:31:de:11:4d:b1:
         19:57:70:0d:4c:91:67:f0:8a:72:49:ec:88:25:83:34:e8:32:
         0b:8d:8d:ac:af:11:9d:cf:c6:68:b5:f0:27:95:f2:f0:ee:a0:
         cd:bf:d2:8f:e9:d7:62:10:f2:b3:56:04:93:2b:dc:80:cb:c1:
         7d:bf:68:89:bb:c4:b4:5f:83:07:29:92:43:a1:ca:df:a8:4f:
         31:c4:58:ba:8f:0a:87:46:23:b5:26:fa:4d:78:9c:f5:7f:e4:
         5b:9e:da:48:3c:37:da:b8:bb:5d:9b:1b:81:e6:55:d6:a9:28:
         6f:99:6b:a3:53:90:35:0f:3b:a5:0b:e6:6e:15:b2:e4:42:02:
         67:00:5f:b8:26:e3:a8:da:f5:73:90:4e:8a:f8:dc:fd:d4:2a:
         e6:80:d4:c6:24:05:32:ff:be:14:f6:30:21:49:da:2a:62:80:
         a4:ad:f1:a5:e5:51:a6:59:44:07:87:d5:01:4e:8b:c5:58:ce:
         2f:b3:96:89:4a:ae:05:59:12:bc:a6:46:f0:f1:3e:a3:78:62:
         ec:99:b2:4c
-----BEGIN CERTIFICATE-----
MIIDXTCCAkWgAwIBAgIRANyVUuWxMoxXtpRHMhREm50wDQYJKoZIhvcNAQELBQAw
FjEUMBIGA1UEAwwLdGVhbTM4Ny1uZXQwHhcNMjIwNTE4MjA1NDU4WhcNMjUwNTAy
MjA1NDU4WjAZMRcwFQYDVQQDDA50ZWFtMzg3LWNsaWVudDCCASIwDQYJKoZIhvcN
AQEBBQADggEPADCCAQoCggEBAMfGT9L0xqtAvkThTHeXCsTOAtms3AftJqryjheW
ri2u0yT0wRgunqRhnPePopeMr0/jFrz4wqGeiFJNuO1CrppqEBSFaXj6BgRNpi6V
Tcf/KNu5hiR6zT7aFWFxOdHaKHP2B7lETD5mQc5XjDYyn6qW9j0JGSM0DU2u1aua
Y2EvUVtBruZ82Zl8nqKI1R2CfH7HKUvdUiAJHpJLnQvADIPRfqfedG+S2V4GYqIK
Vc/fXAJPcnY/w9EeLX+dugee4qxHmYFnBayWbt4KyNeqCz9bf3CRb0Oknn9wtLAb
N2Z22fiMx3de1NfTDeekaqVskScRDEHodiWb2+4m0AV79wMCAwEAAaOBojCBnzAJ
BgNVHRMEAjAAMB0GA1UdDgQWBBRcKTnAMg9+xSdQ5WLKosBX4VqG4zBRBgNVHSME
SjBIgBR//DJJD4XKUOK/fsJ2mE/I76oom6EapBgwFjEUMBIGA1UEAwwLdGVhbTM4
Ny1uZXSCFEqOk6Ke6u0JBlEdIOjBnXl0gWGJMBMGA1UdJQQMMAoGCCsGAQUFBwMC
MAsGA1UdDwQEAwIHgDANBgkqhkiG9w0BAQsFAAOCAQEACmEOiKQU2lJ0Op0s5gWd
Dxy4bTK6l9EpzMV9NWyrht0UoBCiTd+X187mXoWSx7pOajHeEU2xGVdwDUyRZ/CK
cknsiCWDNOgyC42NrK8Rnc/GaLXwJ5Xy8O6gzb/Sj+nXYhDys1YEkyvcgMvBfb9o
ibvEtF+DBymSQ6HK36hPMcRYuo8Kh0YjtSb6TXic9X/kW57aSDw32ri7XZsbgeZV
1qkob5lro1OQNQ87pQvmbhWy5EICZwBfuCbjqNr1c5BOivjc/dQq5oDUxiQFMv++
FPYwIUnaKmKApK3xpeVRpllEB4fVAU6LxVjOL7OWiUquBVkSvKZG8PE+o3hi7Jmy
TA==
-----END CERTIFICATE-----
