Certificate:
    Data:
        Version: 3 (0x2)
        Serial Number:
            41:ff:28:6b:b1:0c:e6:07:db:b3:0e:da:d0:4c:af:3f
        Signature Algorithm: sha256WithRSAEncryption
        Issuer: CN=team517-net
        Validity
            Not Before: May 18 22:01:16 2022 GMT
            Not After : May  2 22:01:16 2025 GMT
        Subject: CN=team517-server
        Subject Public Key Info:
            Public Key Algorithm: rsaEncryption
                RSA Public-Key: (2048 bit)
                Modulus:
                    00:c4:5f:d9:5c:c0:87:f8:65:09:db:b8:6e:09:1b:
                    18:e5:5f:7a:c1:d1:06:4d:11:b6:c5:19:95:40:32:
                    c0:c7:2e:d2:bf:7a:b2:67:30:04:be:d9:64:6e:57:
                    f4:ab:f2:95:a4:4d:40:54:a2:29:b4:7d:5b:e3:32:
                    58:de:38:14:cb:61:e4:cc:d5:0a:17:de:48:00:ab:
                    a3:c8:e3:3b:52:03:e6:e8:1e:39:03:33:09:f8:b6:
                    3e:fe:9b:a8:12:a3:8f:4a:ad:d5:98:a4:3f:2f:b3:
                    fa:22:16:e2:7c:3e:6c:fd:2d:cb:87:eb:86:7e:d9:
                    ad:a6:a3:de:fd:ef:25:b8:f5:dc:9b:eb:59:64:83:
                    79:84:73:d3:51:b8:e5:5d:1a:f3:a6:24:34:5b:e3:
                    c6:ca:e6:6f:a8:36:8f:f9:5b:fb:23:99:f4:9d:b9:
                    f3:bb:b6:94:03:2c:2e:1f:75:db:bb:73:e2:5d:58:
                    06:af:7f:77:f9:b1:58:ef:12:a6:a7:23:9a:56:8e:
                    8b:f6:f5:fe:33:0a:2e:87:ed:a2:6b:cd:53:be:0f:
                    18:ca:32:e8:a1:24:7f:da:f0:f1:7c:68:75:47:b5:
                    77:92:6d:84:72:6f:ef:5e:f2:15:60:71:37:31:7d:
                    b6:eb:3a:92:9c:72:78:92:ed:91:c6:18:fd:d0:eb:
                    38:0d
                Exponent: 65537 (0x10001)
        X509v3 extensions:
            X509v3 Basic Constraints: 
                CA:FALSE
            X509v3 Subject Key Identifier: 
                15:51:AF:0D:42:F8:CC:1F:B9:6B:D5:59:13:0D:13:DF:4A:9C:C3:E6
            X509v3 Authority Key Identifier: 
                keyid:A7:92:2A:21:E6:0C:07:B5:0B:A0:B2:22:BD:5B:CF:84:52:D7:02:F7
                DirName:/CN=team517-net
                serial:27:D1:CB:05:15:D5:8C:E9:1B:69:B3:D5:48:90:D1:A3:3C:43:99:00

            X509v3 Extended Key Usage: 
                TLS Web Server Authentication
            X509v3 Key Usage: 
                Digital Signature, Key Encipherment
            X509v3 Subject Alternative Name: 
                DNS:team517-server
    Signature Algorithm: sha256WithRSAEncryption
         e9:2a:eb:ef:00:02:0c:ee:4b:ad:5f:4f:8e:fc:27:38:1b:ee:
         d9:5c:97:48:da:24:f0:a9:6c:ea:c8:3f:54:83:ab:9d:40:54:
         d5:4e:74:c9:91:66:86:79:bd:0e:30:33:95:98:fd:61:14:b9:
         1e:66:66:ea:aa:f6:56:81:9e:09:80:db:3b:b4:ae:94:f5:79:
         1a:50:d5:5d:a2:db:d2:52:e8:59:fc:62:df:07:58:01:5a:56:
         de:57:c2:d0:97:f1:d7:f0:ef:20:fb:23:74:07:df:60:30:b3:
         81:a7:f3:99:83:c8:1c:e5:4b:c0:a0:cb:2b:05:84:4c:75:e2:
         84:78:00:83:5e:df:4f:94:8a:17:b2:25:1d:c3:6e:12:0a:61:
         56:25:60:28:c1:d0:a7:f2:00:a8:da:38:b6:3b:f1:44:62:0d:
         45:87:7f:b7:bf:91:7b:00:75:c3:26:b5:65:61:c6:a4:77:9f:
         48:10:a7:15:11:d7:db:21:30:3a:fa:96:84:15:70:a1:d5:90:
         3f:ba:46:4b:f5:4e:04:e1:12:8a:60:10:e8:47:1d:72:54:8f:
         cf:86:aa:25:02:a0:72:b7:45:39:65:de:de:55:df:7a:ec:71:
         b4:9e:86:73:82:c6:d2:88:e6:e0:a0:ef:dd:a0:d0:75:39:48:
         71:dc:85:67
-----BEGIN CERTIFICATE-----
MIIDdzCCAl+gAwIBAgIQQf8oa7EM5gfbsw7a0EyvPzANBgkqhkiG9w0BAQsFADAW
MRQwEgYDVQQDDAt0ZWFtNTE3LW5ldDAeFw0yMjA1MTgyMjAxMTZaFw0yNTA1MDIy
MjAxMTZaMBkxFzAVBgNVBAMMDnRlYW01MTctc2VydmVyMIIBIjANBgkqhkiG9w0B
AQEFAAOCAQ8AMIIBCgKCAQEAxF/ZXMCH+GUJ27huCRsY5V96wdEGTRG2xRmVQDLA
xy7Sv3qyZzAEvtlkblf0q/KVpE1AVKIptH1b4zJY3jgUy2HkzNUKF95IAKujyOM7
UgPm6B45AzMJ+LY+/puoEqOPSq3VmKQ/L7P6IhbifD5s/S3Lh+uGftmtpqPe/e8l
uPXcm+tZZIN5hHPTUbjlXRrzpiQ0W+PGyuZvqDaP+Vv7I5n0nbnzu7aUAywuH3Xb
u3PiXVgGr393+bFY7xKmpyOaVo6L9vX+Mwouh+2ia81Tvg8YyjLooSR/2vDxfGh1
R7V3km2Ecm/vXvIVYHE3MX226zqSnHJ4ku2Rxhj90Os4DQIDAQABo4G9MIG6MAkG
A1UdEwQCMAAwHQYDVR0OBBYEFBVRrw1C+MwfuWvVWRMNE99KnMPmMFEGA1UdIwRK
MEiAFKeSKiHmDAe1C6CyIr1bz4RS1wL3oRqkGDAWMRQwEgYDVQQDDAt0ZWFtNTE3
LW5ldIIUJ9HLBRXVjOkbabPVSJDRozxDmQAwEwYDVR0lBAwwCgYIKwYBBQUHAwEw
CwYDVR0PBAQDAgWgMBkGA1UdEQQSMBCCDnRlYW01MTctc2VydmVyMA0GCSqGSIb3
DQEBCwUAA4IBAQDpKuvvAAIM7kutX0+O/Cc4G+7ZXJdI2iTwqWzqyD9Ug6udQFTV
TnTJkWaGeb0OMDOVmP1hFLkeZmbqqvZWgZ4JgNs7tK6U9XkaUNVdotvSUuhZ/GLf
B1gBWlbeV8LQl/HX8O8g+yN0B99gMLOBp/OZg8gc5UvAoMsrBYRMdeKEeACDXt9P
lIoXsiUdw24SCmFWJWAowdCn8gCo2ji2O/FEYg1Fh3+3v5F7AHXDJrVlYcakd59I
EKcVEdfbITA6+paEFXCh1ZA/ukZL9U4E4RKKYBDoRx1yVI/PhqolAqByt0U5Zd7e
Vd967HG0noZzgsbSiObgoO/doNB1OUhx3IVn
-----END CERTIFICATE-----
