Certificate:
    Data:
        Version: 3 (0x2)
        Serial Number:
            cf:6c:7f:1a:7b:48:b4:58:97:f7:f5:f8:0f:89:a8:12
        Signature Algorithm: sha256WithRSAEncryption
        Issuer: CN=team517-net
        Validity
            Not Before: May 18 22:01:16 2022 GMT
            Not After : May  2 22:01:16 2025 GMT
        Subject: CN=team517-client
        Subject Public Key Info:
            Public Key Algorithm: rsaEncryption
                RSA Public-Key: (2048 bit)
                Modulus:
                    00:b2:27:85:1c:14:4e:74:45:fd:83:b1:b2:36:61:
                    97:23:ba:f9:bf:4f:ab:71:11:cb:2c:d2:9c:91:a4:
                    16:fc:4e:6e:e7:1f:bc:ad:ef:cb:fb:62:33:0f:af:
                    8c:9b:ec:04:30:1b:48:22:39:e1:07:eb:48:fb:1a:
                    4f:cc:48:04:b7:5f:5e:5a:d6:02:0f:47:4a:bc:73:
                    3b:0c:b7:09:f9:7a:c8:4e:7e:28:30:e0:aa:34:2b:
                    62:65:e3:76:ef:ee:9d:65:cc:88:0a:5c:d2:61:b8:
                    7b:94:aa:c5:47:3e:02:a8:d6:95:d6:7e:0c:27:62:
                    4d:a8:7a:07:aa:07:26:bd:11:3d:4f:57:5b:a2:a8:
                    0e:87:05:dd:c7:28:9f:f8:4c:7a:09:62:93:ab:10:
                    8d:80:43:5c:88:f5:2f:d3:a4:8e:88:12:f7:2e:e1:
                    7c:b4:85:ad:0d:52:71:95:94:cf:84:71:80:99:86:
                    a1:b7:14:01:4f:a2:00:c3:07:93:92:42:a0:aa:df:
                    18:e1:d2:69:7f:81:77:32:2f:fc:f6:f6:09:a6:88:
                    98:15:2b:f8:19:19:91:17:34:7c:97:bd:b0:21:2c:
                    2a:5a:45:d8:eb:c5:1a:75:8f:4a:5a:2b:81:26:0a:
                    0e:28:39:86:5f:b6:08:64:01:a1:a1:77:1b:73:d8:
                    ff:73
                Exponent: 65537 (0x10001)
        X509v3 extensions:
            X509v3 Basic Constraints: 
                CA:FALSE
            X509v3 Subject Key Identifier: 
                93:D5:55:AD:10:2D:AF:B4:FA:6E:D6:99:48:B5:78:53:C1:52:F0:84
            X509v3 Authority Key Identifier: 
                keyid:A7:92:2A:21:E6:0C:07:B5:0B:A0:B2:22:BD:5B:CF:84:52:D7:02:F7
                DirName:/CN=team517-net
                serial:27:D1:CB:05:15:D5:8C:E9:1B:69:B3:D5:48:90:D1:A3:3C:43:99:00

            X509v3 Extended Key Usage: 
                TLS Web Client Authentication
            X509v3 Key Usage: 
                Digital Signature
    Signature Algorithm: sha256WithRSAEncryption
         a6:d2:19:df:42:00:44:4b:00:ad:d3:17:a6:26:72:03:44:75:
         d4:8e:b7:46:7d:78:ce:93:ed:c3:f5:f8:81:71:fe:ca:c5:c0:
         6b:4e:c8:f2:db:dd:77:d2:f4:b8:bc:29:58:5f:87:ae:b7:4f:
         3d:3e:75:21:4b:3c:6c:86:9d:93:f4:d5:e9:6b:27:f8:dc:89:
         87:48:75:19:a7:3a:9b:b5:b5:e8:fd:ca:bc:a1:c9:36:58:8c:
         57:55:6a:3c:28:46:af:c1:32:68:ae:d7:39:1c:29:e9:50:3d:
         86:8b:32:c4:04:38:42:cc:cb:14:26:ca:b9:ec:c6:0d:a4:fd:
         6b:1a:84:55:ce:f3:7c:1c:f4:25:fc:8d:db:ad:6b:00:99:4f:
         31:8d:ab:45:92:ea:ab:17:59:ca:2d:df:a8:da:8e:43:f3:61:
         90:97:de:80:a2:a0:f9:1d:0e:d8:71:21:23:a5:29:2b:83:4b:
         6c:2f:4d:a3:37:79:79:52:22:91:45:09:9e:de:72:30:78:9a:
         8f:f7:20:77:00:4b:2a:4f:6c:db:0a:b3:6d:88:81:01:ba:b8:
         29:9d:83:85:9f:78:b3:25:f6:2f:5e:e6:04:85:75:8d:b8:03:
         8c:79:94:26:cd:ff:3d:01:01:70:f6:b9:cc:8a:2b:22:26:96:
         39:99:df:57
-----BEGIN CERTIFICATE-----
MIIDXTCCAkWgAwIBAgIRAM9sfxp7SLRYl/f1+A+JqBIwDQYJKoZIhvcNAQELBQAw
FjEUMBIGA1UEAwwLdGVhbTUxNy1uZXQwHhcNMjIwNTE4MjIwMTE2WhcNMjUwNTAy
MjIwMTE2WjAZMRcwFQYDVQQDDA50ZWFtNTE3LWNsaWVudDCCASIwDQYJKoZIhvcN
AQEBBQADggEPADCCAQoCggEBALInhRwUTnRF/YOxsjZhlyO6+b9Pq3ERyyzSnJGk
FvxObucfvK3vy/tiMw+vjJvsBDAbSCI54QfrSPsaT8xIBLdfXlrWAg9HSrxzOwy3
Cfl6yE5+KDDgqjQrYmXjdu/unWXMiApc0mG4e5SqxUc+AqjWldZ+DCdiTah6B6oH
Jr0RPU9XW6KoDocF3ccon/hMeglik6sQjYBDXIj1L9OkjogS9y7hfLSFrQ1ScZWU
z4RxgJmGobcUAU+iAMMHk5JCoKrfGOHSaX+BdzIv/Pb2CaaImBUr+BkZkRc0fJe9
sCEsKlpF2OvFGnWPSlorgSYKDig5hl+2CGQBoaF3G3PY/3MCAwEAAaOBojCBnzAJ
BgNVHRMEAjAAMB0GA1UdDgQWBBST1VWtEC2vtPpu1plItXhTwVLwhDBRBgNVHSME
SjBIgBSnkioh5gwHtQugsiK9W8+EUtcC96EapBgwFjEUMBIGA1UEAwwLdGVhbTUx
Ny1uZXSCFCfRywUV1YzpG2mz1UiQ0aM8Q5kAMBMGA1UdJQQMMAoGCCsGAQUFBwMC
MAsGA1UdDwQEAwIHgDANBgkqhkiG9w0BAQsFAAOCAQEAptIZ30IAREsArdMXpiZy
A0R11I63Rn14zpPtw/X4gXH+ysXAa07I8tvdd9L0uLwpWF+HrrdPPT51IUs8bIad
k/TV6Wsn+NyJh0h1Gac6m7W16P3KvKHJNliMV1VqPChGr8EyaK7XORwp6VA9hosy
xAQ4QszLFCbKuezGDaT9axqEVc7zfBz0JfyN261rAJlPMY2rRZLqqxdZyi3fqNqO
Q/NhkJfegKKg+R0O2HEhI6UpK4NLbC9Nozd5eVIikUUJnt5yMHiaj/cgdwBLKk9s
2wqzbYiBAbq4KZ2DhZ94syX2L17mBIV1jbgDjHmUJs3/PQEBcPa5zIorIiaWOZnf
Vw==
-----END CERTIFICATE-----
