Certificate:
    Data:
        Version: 3 (0x2)
        Serial Number:
            ad:b1:a9:e1:a0:e4:9b:1a:54:4f:be:68:a3:d3:22:ce
        Signature Algorithm: sha256WithRSAEncryption
        Issuer: CN=team119-net
        Validity
            Not Before: May 18 15:00:01 2022 GMT
            Not After : May  2 15:00:01 2025 GMT
        Subject: CN=team119-client
        Subject Public Key Info:
            Public Key Algorithm: rsaEncryption
                RSA Public-Key: (2048 bit)
                Modulus:
                    00:e8:20:94:ec:0f:8b:94:57:c8:11:c3:ee:31:99:
                    73:27:81:ff:ba:9e:e1:59:5c:88:44:8b:1d:f4:86:
                    6d:a2:4b:89:46:62:a5:6d:60:9f:08:59:3a:f6:c1:
                    dc:d1:e5:7d:a1:37:46:b8:ae:b3:ba:f6:06:0e:1c:
                    e5:c9:99:ec:26:fe:e5:b6:9f:e2:a8:d0:76:09:13:
                    46:a8:84:bd:7a:26:18:e6:15:d5:13:fe:fd:df:52:
                    3e:35:79:7c:6c:36:a4:b8:fc:be:ff:99:0c:f1:dd:
                    71:e8:a4:83:bc:0b:16:14:15:f7:51:42:b4:33:9c:
                    39:67:07:06:70:19:f2:04:16:c4:fc:84:25:67:0b:
                    1b:e2:b4:21:bc:06:1e:48:dc:87:d3:22:e2:fd:80:
                    f3:73:35:42:43:ea:a7:17:c2:60:8c:94:07:04:3b:
                    f2:d4:47:39:49:a3:dc:09:40:e1:95:a0:2f:83:30:
                    c6:ee:29:49:6d:4c:dc:c1:87:41:22:51:52:49:3a:
                    37:64:1d:30:76:c0:e9:d4:e8:6c:61:3e:51:de:af:
                    6f:d0:e1:75:80:35:15:e6:95:55:09:dd:24:aa:cd:
                    e8:98:3b:be:86:27:1a:ba:7a:d4:0d:6c:fb:51:f7:
                    c3:7f:ba:e6:c4:b7:e8:39:7f:cc:89:ea:c1:e9:60:
                    39:6d
                Exponent: 65537 (0x10001)
        X509v3 extensions:
            X509v3 Basic Constraints: 
                CA:FALSE
            X509v3 Subject Key Identifier: 
                88:3E:6D:AF:EF:04:DF:70:01:E5:A8:E5:FC:5E:7A:A9:29:77:07:BC
            X509v3 Authority Key Identifier: 
                keyid:2A:9C:DC:D9:73:81:74:27:E1:55:62:3E:2B:0B:18:F5:11:0E:3D:52
                DirName:/CN=team119-net
                serial:42:8B:D3:08:C9:4E:04:5D:7A:BB:1B:A2:D7:D2:D4:24:59:A4:CF:DF

            X509v3 Extended Key Usage: 
                TLS Web Client Authentication
            X509v3 Key Usage: 
                Digital Signature
    Signature Algorithm: sha256WithRSAEncryption
         a9:0a:23:2e:33:be:b0:27:d4:68:20:fc:8e:a1:e5:28:4b:da:
         aa:eb:f7:bc:d6:68:af:a1:76:07:4b:51:c5:42:92:57:bc:19:
         99:34:11:14:c1:6a:e8:07:e6:fa:ef:40:2e:59:e8:b6:b3:9e:
         fc:ac:25:33:79:27:66:e9:34:1f:a2:02:5e:c5:44:34:99:98:
         ee:6d:ef:eb:a8:22:49:27:33:d4:7c:4d:4d:2d:bd:48:4c:46:
         a6:f7:2f:26:a5:88:38:a8:19:ef:d9:40:ad:94:96:83:81:4e:
         fb:4d:ce:16:62:a1:eb:c8:97:7c:c9:2c:22:47:a6:69:3b:c4:
         2b:8b:19:dd:da:55:93:ad:ac:80:8b:01:cb:00:65:46:82:79:
         37:93:7d:55:fc:de:7a:dd:67:47:73:a2:4a:88:a2:a1:32:f9:
         e1:71:b8:03:ac:82:a5:30:d3:d6:5b:df:17:35:60:ed:12:87:
         11:41:a5:0e:33:91:80:5e:89:08:fd:5d:d9:41:99:f2:1d:31:
         fb:4e:5e:71:bc:8d:1e:92:7e:89:e3:4a:b6:18:d6:60:21:3d:
         29:6a:32:1b:66:5c:c8:eb:bd:af:61:16:36:da:2a:7f:13:06:
         74:03:ad:b7:e6:5e:bf:1b:c1:7c:35:e6:26:fe:d5:01:45:84:
         97:b8:a0:19
-----BEGIN CERTIFICATE-----
MIIDXTCCAkWgAwIBAgIRAK2xqeGg5JsaVE++aKPTIs4wDQYJKoZIhvcNAQELBQAw
FjEUMBIGA1UEAwwLdGVhbTExOS1uZXQwHhcNMjIwNTE4MTUwMDAxWhcNMjUwNTAy
MTUwMDAxWjAZMRcwFQYDVQQDDA50ZWFtMTE5LWNsaWVudDCCASIwDQYJKoZIhvcN
AQEBBQADggEPADCCAQoCggEBAOgglOwPi5RXyBHD7jGZcyeB/7qe4VlciESLHfSG
baJLiUZipW1gnwhZOvbB3NHlfaE3Rrius7r2Bg4c5cmZ7Cb+5baf4qjQdgkTRqiE
vXomGOYV1RP+/d9SPjV5fGw2pLj8vv+ZDPHdceikg7wLFhQV91FCtDOcOWcHBnAZ
8gQWxPyEJWcLG+K0IbwGHkjch9Mi4v2A83M1QkPqpxfCYIyUBwQ78tRHOUmj3AlA
4ZWgL4Mwxu4pSW1M3MGHQSJRUkk6N2QdMHbA6dTobGE+Ud6vb9DhdYA1FeaVVQnd
JKrN6Jg7voYnGrp61A1s+1H3w3+65sS36Dl/zInqwelgOW0CAwEAAaOBojCBnzAJ
BgNVHRMEAjAAMB0GA1UdDgQWBBSIPm2v7wTfcAHlqOX8XnqpKXcHvDBRBgNVHSME
SjBIgBQqnNzZc4F0J+FVYj4rCxj1EQ49UqEapBgwFjEUMBIGA1UEAwwLdGVhbTEx
OS1uZXSCFEKL0wjJTgRdersbotfS1CRZpM/fMBMGA1UdJQQMMAoGCCsGAQUFBwMC
MAsGA1UdDwQEAwIHgDANBgkqhkiG9w0BAQsFAAOCAQEAqQojLjO+sCfUaCD8jqHl
KEvaquv3vNZor6F2B0tRxUKSV7wZmTQRFMFq6Afm+u9ALlnotrOe/KwlM3knZuk0
H6ICXsVENJmY7m3v66giSScz1HxNTS29SExGpvcvJqWIOKgZ79lArZSWg4FO+03O
FmKh68iXfMksIkemaTvEK4sZ3dpVk62sgIsBywBlRoJ5N5N9Vfzeet1nR3OiSoii
oTL54XG4A6yCpTDT1lvfFzVg7RKHEUGlDjORgF6JCP1d2UGZ8h0x+05ecbyNHpJ+
ieNKthjWYCE9KWoyG2ZcyOu9r2EWNtoqfxMGdAOtt+ZevxvBfDXmJv7VAUWEl7ig
GQ==
-----END CERTIFICATE-----
