Certificate:
    Data:
        Version: 3 (0x2)
        Serial Number:
            6d:95:a4:83:b8:40:33:02:68:c9:12:f0:24:dc:6a:15
        Signature Algorithm: sha256WithRSAEncryption
        Issuer: CN=team141-net
        Validity
            Not Before: May 18 18:34:47 2022 GMT
            Not After : May  2 18:34:47 2025 GMT
        Subject: CN=team141-server
        Subject Public Key Info:
            Public Key Algorithm: rsaEncryption
                RSA Public-Key: (2048 bit)
                Modulus:
                    00:ca:e9:91:e4:60:69:ff:70:1a:a8:c0:a1:9c:d6:
                    46:4b:2b:a3:ce:09:0c:a4:a6:65:47:0e:ae:af:81:
                    8f:5c:f1:9c:9a:5b:02:cc:3b:aa:6b:f9:99:42:93:
                    44:c3:41:61:fd:26:1f:f1:d1:9c:a6:88:8d:07:d2:
                    56:bb:0c:53:e3:fc:ae:87:38:81:02:8d:10:6e:40:
                    66:6e:e7:2a:8c:1c:58:30:87:77:7a:f9:f3:62:6d:
                    84:21:ba:34:7c:5a:3f:f7:56:db:8a:f7:0d:01:1c:
                    ad:27:12:05:8f:db:1f:32:31:5d:41:78:92:3f:46:
                    8a:11:ca:e7:52:0e:bd:aa:1f:ab:d1:b6:25:f9:85:
                    a6:0c:90:77:a6:7c:b8:93:86:4e:fc:72:4a:72:85:
                    12:5f:be:35:d7:15:b1:68:cf:d7:4e:66:2f:c6:24:
                    df:31:8c:d2:ef:16:ba:fb:a9:1c:18:be:94:96:54:
                    4e:2c:df:df:ae:69:ff:e4:75:81:19:2b:14:9b:83:
                    d4:6b:0e:93:2f:90:72:c9:1c:f1:ce:6c:25:79:ac:
                    7d:77:0d:b1:22:61:c7:24:f0:f2:fd:41:6c:6e:11:
                    aa:fc:fe:98:92:55:c2:c3:6f:1e:4f:6b:ab:2d:d4:
                    30:58:22:7c:f3:01:38:44:08:ba:bf:fe:dd:f4:00:
                    05:2d
                Exponent: 65537 (0x10001)
        X509v3 extensions:
            X509v3 Basic Constraints: 
                CA:FALSE
            X509v3 Subject Key Identifier: 
                DF:32:5B:E6:B6:1E:74:50:95:6A:7E:8B:24:98:D1:4E:94:36:9C:6E
            X509v3 Authority Key Identifier: 
                keyid:52:7C:C9:57:99:C2:E9:AA:E2:39:36:3C:B6:3B:79:C9:26:BB:FC:52
                DirName:/CN=team141-net
                serial:16:3B:D1:57:20:2B:C0:97:D7:72:F6:71:E1:87:34:7C:BC:43:C8:A8

            X509v3 Extended Key Usage: 
                TLS Web Server Authentication
            X509v3 Key Usage: 
                Digital Signature, Key Encipherment
            X509v3 Subject Alternative Name: 
                DNS:team141-server
    Signature Algorithm: sha256WithRSAEncryption
         7b:a3:6e:f8:0c:e2:fc:21:6d:01:74:5e:1a:80:6a:9f:e7:5c:
         05:08:f3:d0:d3:4e:ac:18:45:db:2a:67:64:9e:f7:7c:6a:ed:
         df:8b:4b:fd:1b:60:30:dd:11:5b:46:ce:86:f3:f5:2d:be:2f:
         e6:7f:64:5e:67:a1:af:8f:1c:5d:52:db:65:4f:be:03:88:25:
         8f:d5:fe:2e:23:21:59:42:90:ae:65:b2:6f:d1:1b:30:d3:ee:
         d9:a6:b2:6a:c3:87:bd:fc:f4:7e:88:a4:b4:b3:31:d1:6d:01:
         2a:66:fd:6a:35:83:d9:8e:19:c3:84:31:a4:99:17:0a:a2:90:
         60:9f:5f:ff:72:61:70:81:60:f5:8f:c7:a6:a1:49:7f:18:2a:
         8c:d5:d7:16:cb:60:8e:c8:26:2a:59:77:9a:1d:64:14:f2:99:
         04:ef:0a:d2:8d:11:63:3c:ae:66:ff:ef:33:a1:16:10:fc:0f:
         69:31:8f:17:6a:d3:47:ec:16:bd:5e:8b:b7:f6:9a:93:44:cc:
         0e:da:18:62:75:54:2d:4b:9f:60:86:13:3c:58:6f:a9:40:6c:
         d4:38:13:98:8c:03:83:d8:42:a1:47:39:d1:5b:30:3b:43:07:
         9b:7c:46:37:47:40:32:94:90:ff:d3:00:3c:86:9e:01:1e:cf:
         15:32:2e:85
-----BEGIN CERTIFICATE-----
MIIDdzCCAl+gAwIBAgIQbZWkg7hAMwJoyRLwJNxqFTANBgkqhkiG9w0BAQsFADAW
MRQwEgYDVQQDDAt0ZWFtMTQxLW5ldDAeFw0yMjA1MTgxODM0NDdaFw0yNTA1MDIx
ODM0NDdaMBkxFzAVBgNVBAMMDnRlYW0xNDEtc2VydmVyMIIBIjANBgkqhkiG9w0B
AQEFAAOCAQ8AMIIBCgKCAQEAyumR5GBp/3AaqMChnNZGSyujzgkMpKZlRw6ur4GP
XPGcmlsCzDuqa/mZQpNEw0Fh/SYf8dGcpoiNB9JWuwxT4/yuhziBAo0QbkBmbucq
jBxYMId3evnzYm2EIbo0fFo/91bbivcNARytJxIFj9sfMjFdQXiSP0aKEcrnUg69
qh+r0bYl+YWmDJB3pny4k4ZO/HJKcoUSX7411xWxaM/XTmYvxiTfMYzS7xa6+6kc
GL6UllROLN/frmn/5HWBGSsUm4PUaw6TL5ByyRzxzmwleax9dw2xImHHJPDy/UFs
bhGq/P6YklXCw28eT2urLdQwWCJ88wE4RAi6v/7d9AAFLQIDAQABo4G9MIG6MAkG
A1UdEwQCMAAwHQYDVR0OBBYEFN8yW+a2HnRQlWp+iySY0U6UNpxuMFEGA1UdIwRK
MEiAFFJ8yVeZwumq4jk2PLY7eckmu/xSoRqkGDAWMRQwEgYDVQQDDAt0ZWFtMTQx
LW5ldIIUFjvRVyArwJfXcvZx4Yc0fLxDyKgwEwYDVR0lBAwwCgYIKwYBBQUHAwEw
CwYDVR0PBAQDAgWgMBkGA1UdEQQSMBCCDnRlYW0xNDEtc2VydmVyMA0GCSqGSIb3
DQEBCwUAA4IBAQB7o274DOL8IW0BdF4agGqf51wFCPPQ006sGEXbKmdknvd8au3f
i0v9G2Aw3RFbRs6G8/Utvi/mf2ReZ6GvjxxdUttlT74DiCWP1f4uIyFZQpCuZbJv
0Rsw0+7ZprJqw4e9/PR+iKS0szHRbQEqZv1qNYPZjhnDhDGkmRcKopBgn1//cmFw
gWD1j8emoUl/GCqM1dcWy2COyCYqWXeaHWQU8pkE7wrSjRFjPK5m/+8zoRYQ/A9p
MY8XatNH7Ba9Xou39pqTRMwO2hhidVQtS59ghhM8WG+pQGzUOBOYjAOD2EKhRznR
WzA7QwebfEY3R0AylJD/0wA8hp4BHs8VMi6F
-----END CERTIFICATE-----
