Certificate:
    Data:
        Version: 3 (0x2)
        Serial Number:
            3f:ae:7c:71:ea:ae:9e:ec:20:e8:bf:d3:73:d5:24:22
        Signature Algorithm: sha256WithRSAEncryption
        Issuer: CN=team209-net
        Validity
            Not Before: May 18 19:15:51 2022 GMT
            Not After : May  2 19:15:51 2025 GMT
        Subject: CN=team209-server
        Subject Public Key Info:
            Public Key Algorithm: rsaEncryption
                RSA Public-Key: (2048 bit)
                Modulus:
                    00:b2:20:c0:2e:a4:42:23:bd:3b:fc:c0:67:56:d8:
                    fe:6f:61:85:60:a3:c1:e3:d1:b7:36:cc:dc:2c:05:
                    8e:25:a3:ce:93:fc:61:c6:e2:3c:6c:1b:31:b7:93:
                    1a:07:39:99:fa:3d:c9:2d:0e:bb:eb:de:f5:4b:c7:
                    a6:96:7e:83:a3:b6:61:f9:43:02:7e:27:22:34:73:
                    60:d8:b1:df:21:82:12:05:13:6c:e9:bb:94:fe:ed:
                    ae:77:28:89:4f:b8:ee:2e:7b:c6:ba:e6:e7:67:c2:
                    75:d9:85:74:22:b4:70:41:ac:6d:be:c6:f0:97:43:
                    79:3b:6e:4b:a0:72:c8:80:e5:03:9a:c7:eb:04:cb:
                    bb:6e:1a:32:7b:66:e4:b2:06:50:70:f4:5e:62:8a:
                    71:fe:0b:d2:1d:3e:7f:5b:65:53:de:51:24:99:16:
                    6f:06:26:2c:4a:b6:20:9a:29:d9:0e:b7:32:26:72:
                    bd:8b:25:3e:45:06:2e:97:59:70:76:f1:c1:76:3d:
                    01:00:8b:34:2f:0d:93:d0:08:7c:d9:ba:64:38:42:
                    94:e6:b9:27:ce:6b:a7:35:6e:33:af:ca:05:ab:b6:
                    3e:dc:59:e5:29:c3:d5:96:49:99:ee:f3:00:61:05:
                    42:02:16:80:a4:64:8a:97:8e:f4:5c:4e:17:63:0f:
                    63:8d
                Exponent: 65537 (0x10001)
        X509v3 extensions:
            X509v3 Basic Constraints: 
                CA:FALSE
            X509v3 Subject Key Identifier: 
                51:6E:57:B4:A3:40:7C:F6:D7:72:CD:52:6A:0E:2C:E6:B7:50:58:CA
            X509v3 Authority Key Identifier: 
                keyid:3B:62:46:A2:A6:CE:19:32:83:EF:6E:CB:40:82:C8:4B:E2:7D:F1:23
                DirName:/CN=team209-net
                serial:17:63:0C:FB:E1:CA:D9:4E:96:3E:34:0F:7E:1A:63:14:B8:E6:00:FD

            X509v3 Extended Key Usage: 
                TLS Web Server Authentication
            X509v3 Key Usage: 
                Digital Signature, Key Encipherment
            X509v3 Subject Alternative Name: 
                DNS:team209-server
    Signature Algorithm: sha256WithRSAEncryption
         62:a8:b4:61:82:c0:a5:af:da:3d:4e:0a:e2:9a:0d:e1:be:86:
         2c:4d:9c:f5:8b:f3:da:81:a6:e3:5f:69:c6:ae:93:2e:92:12:
         a7:8d:fb:89:e1:87:97:9f:ff:aa:8e:1d:b0:ab:01:2c:3f:cc:
         eb:ce:1a:10:8a:66:d9:f8:65:20:cf:dd:f6:ce:db:9d:e7:29:
         d4:7d:01:d5:f8:62:0c:72:73:fd:0b:9e:c9:63:8d:42:d8:3c:
         86:99:08:3a:0c:f7:34:ed:31:5e:85:04:38:41:86:b9:1c:c5:
         94:c5:b1:9e:7c:20:4d:2c:10:7e:05:55:1b:7b:32:48:84:69:
         eb:d1:b2:9d:7e:24:b1:df:ae:9b:df:22:ae:e6:f0:87:ef:13:
         2e:db:10:1a:b4:05:dc:3d:e0:ce:45:e1:7a:fc:32:6f:ce:01:
         b9:58:a9:88:59:93:57:09:92:6a:9d:ed:03:1d:10:09:5e:6d:
         66:8e:ef:72:b0:47:74:6d:d6:ea:9b:7f:15:1d:ae:12:2e:59:
         5e:a9:4b:c7:b6:32:a3:80:b7:1a:12:9a:cd:6d:42:12:22:86:
         54:f5:61:96:fe:30:11:4c:f3:2f:a0:d4:5d:a7:c7:47:5b:ce:
         db:6b:bf:ea:6d:7d:44:5c:3d:4d:02:9e:53:df:8c:05:76:2f:
         61:e4:39:89
-----BEGIN CERTIFICATE-----
MIIDdzCCAl+gAwIBAgIQP658cequnuwg6L/Tc9UkIjANBgkqhkiG9w0BAQsFADAW
MRQwEgYDVQQDDAt0ZWFtMjA5LW5ldDAeFw0yMjA1MTgxOTE1NTFaFw0yNTA1MDIx
OTE1NTFaMBkxFzAVBgNVBAMMDnRlYW0yMDktc2VydmVyMIIBIjANBgkqhkiG9w0B
AQEFAAOCAQ8AMIIBCgKCAQEAsiDALqRCI707/MBnVtj+b2GFYKPB49G3NszcLAWO
JaPOk/xhxuI8bBsxt5MaBzmZ+j3JLQ676971S8emln6Do7Zh+UMCficiNHNg2LHf
IYISBRNs6buU/u2udyiJT7juLnvGuubnZ8J12YV0IrRwQaxtvsbwl0N5O25LoHLI
gOUDmsfrBMu7bhoye2bksgZQcPReYopx/gvSHT5/W2VT3lEkmRZvBiYsSrYgminZ
DrcyJnK9iyU+RQYul1lwdvHBdj0BAIs0Lw2T0Ah82bpkOEKU5rknzmunNW4zr8oF
q7Y+3FnlKcPVlkmZ7vMAYQVCAhaApGSKl470XE4XYw9jjQIDAQABo4G9MIG6MAkG
A1UdEwQCMAAwHQYDVR0OBBYEFFFuV7SjQHz213LNUmoOLOa3UFjKMFEGA1UdIwRK
MEiAFDtiRqKmzhkyg+9uy0CCyEviffEjoRqkGDAWMRQwEgYDVQQDDAt0ZWFtMjA5
LW5ldIIUF2MM++HK2U6WPjQPfhpjFLjmAP0wEwYDVR0lBAwwCgYIKwYBBQUHAwEw
CwYDVR0PBAQDAgWgMBkGA1UdEQQSMBCCDnRlYW0yMDktc2VydmVyMA0GCSqGSIb3
DQEBCwUAA4IBAQBiqLRhgsClr9o9Tgrimg3hvoYsTZz1i/PagabjX2nGrpMukhKn
jfuJ4YeXn/+qjh2wqwEsP8zrzhoQimbZ+GUgz932ztud5ynUfQHV+GIMcnP9C57J
Y41C2DyGmQg6DPc07TFehQQ4QYa5HMWUxbGefCBNLBB+BVUbezJIhGnr0bKdfiSx
366b3yKu5vCH7xMu2xAatAXcPeDOReF6/DJvzgG5WKmIWZNXCZJqne0DHRAJXm1m
ju9ysEd0bdbqm38VHa4SLlleqUvHtjKjgLcaEprNbUISIoZU9WGW/jARTPMvoNRd
p8dHW87ba7/qbX1EXD1NAp5T34wFdi9h5DmJ
-----END CERTIFICATE-----
