Certificate:
    Data:
        Version: 3 (0x2)
        Serial Number:
            82:7b:60:3e:5e:ec:1a:04:3c:a7:40:fa:71:20:3f:16
        Signature Algorithm: sha256WithRSAEncryption
        Issuer: CN=team326-net
        Validity
            Not Before: May 18 20:13:25 2022 GMT
            Not After : May  2 20:13:25 2025 GMT
        Subject: CN=team326-client
        Subject Public Key Info:
            Public Key Algorithm: rsaEncryption
                RSA Public-Key: (2048 bit)
                Modulus:
                    00:cb:01:58:ef:43:16:89:f3:2b:12:da:27:fe:44:
                    91:0c:20:7f:e7:79:f0:ff:ac:26:fd:9f:91:f4:c9:
                    a7:98:d8:1d:0e:92:b5:ac:14:16:be:78:1c:43:12:
                    b2:3b:98:c6:60:d1:97:36:13:9c:cc:c3:c3:fd:32:
                    d3:6d:64:32:b3:0b:73:d1:be:fd:00:d8:af:39:76:
                    e7:82:c3:5d:18:aa:c8:7e:64:f2:57:89:e9:db:72:
                    04:b8:d1:1c:6d:6a:7f:97:3b:d7:ae:97:12:92:83:
                    df:a4:da:49:1a:6f:58:87:7f:7a:07:96:60:51:41:
                    86:02:c2:44:52:9e:05:7b:68:75:59:f3:22:26:73:
                    41:7d:44:f0:14:a7:64:7a:d9:d0:fd:8b:53:e7:0a:
                    35:82:90:3d:de:44:46:bf:98:67:f0:e0:77:1b:ba:
                    df:e3:cf:1e:14:2f:5c:a4:2a:40:43:34:24:e9:9d:
                    7c:ae:d9:5e:2b:7f:31:6e:f6:32:9c:c6:8b:1f:e4:
                    ce:5f:66:94:f7:58:1f:c5:88:60:26:1d:60:4f:52:
                    00:f6:d4:f9:8d:6c:2d:4a:50:4f:2c:01:92:55:8c:
                    0c:02:5a:bd:fa:ca:86:dc:c4:ef:24:02:2f:50:45:
                    46:76:f5:79:ca:ce:63:9f:09:90:00:f4:59:2a:f3:
                    28:e7
                Exponent: 65537 (0x10001)
        X509v3 extensions:
            X509v3 Basic Constraints: 
                CA:FALSE
            X509v3 Subject Key Identifier: 
                3B:EB:A6:44:B3:63:91:CB:89:E1:D3:B4:2F:B1:81:CA:FB:9B:FE:19
            X509v3 Authority Key Identifier: 
                keyid:24:F0:9B:F8:42:0F:D5:31:50:D0:A0:B6:2A:21:96:FC:8E:DF:5F:0C
                DirName:/CN=team326-net
                serial:58:BD:5A:F7:AD:98:1E:69:3A:79:FA:60:7C:8C:87:A7:4D:EC:17:19

            X509v3 Extended Key Usage: 
                TLS Web Client Authentication
            X509v3 Key Usage: 
                Digital Signature
    Signature Algorithm: sha256WithRSAEncryption
         4a:e2:11:d4:a0:9b:0b:47:06:58:35:74:9a:fe:3c:87:91:b8:
         ed:ff:67:c0:81:a7:1f:15:cf:dd:64:50:68:c8:59:b3:ff:03:
         52:3b:ed:0e:01:37:44:6b:54:eb:5f:d9:d7:f1:41:1d:dd:8d:
         13:22:d7:e2:0a:bc:94:68:d2:1c:7f:3f:e7:e3:9a:26:17:b5:
         d6:83:7e:62:87:68:45:e1:19:c0:bb:17:4e:16:d3:91:16:e9:
         5b:65:ea:8a:17:a6:b9:46:12:3f:2a:39:4f:94:d7:28:76:e6:
         3e:90:dc:26:23:2b:0a:a9:01:2a:27:46:fa:79:a4:7a:23:f3:
         48:d6:8b:38:d8:75:af:58:99:c4:37:f5:90:5e:a8:00:0e:92:
         42:80:5e:b7:fe:c4:6f:ca:e2:8f:f7:11:94:19:fc:4f:98:78:
         c3:6f:1b:be:0b:0a:31:3e:a0:95:8c:35:47:03:cc:a9:5c:cb:
         bc:3b:c1:d5:36:b0:19:db:7e:a6:8a:8f:2f:1b:52:fd:c6:ba:
         c3:16:43:c2:3b:d4:7a:8f:3c:7b:f0:8e:2d:d9:e1:18:ef:46:
         aa:88:3b:94:6f:21:1e:49:fd:e3:ff:e3:4e:ae:90:74:cf:aa:
         de:98:71:af:17:07:74:56:24:bc:8b:74:9d:bb:cc:e1:48:10:
         58:5f:77:b9
-----BEGIN CERTIFICATE-----
MIIDXTCCAkWgAwIBAgIRAIJ7YD5e7BoEPKdA+nEgPxYwDQYJKoZIhvcNAQELBQAw
FjEUMBIGA1UEAwwLdGVhbTMyNi1uZXQwHhcNMjIwNTE4MjAxMzI1WhcNMjUwNTAy
MjAxMzI1WjAZMRcwFQYDVQQDDA50ZWFtMzI2LWNsaWVudDCCASIwDQYJKoZIhvcN
AQEBBQADggEPADCCAQoCggEBAMsBWO9DFonzKxLaJ/5EkQwgf+d58P+sJv2fkfTJ
p5jYHQ6StawUFr54HEMSsjuYxmDRlzYTnMzDw/0y021kMrMLc9G+/QDYrzl254LD
XRiqyH5k8leJ6dtyBLjRHG1qf5c7166XEpKD36TaSRpvWId/egeWYFFBhgLCRFKe
BXtodVnzIiZzQX1E8BSnZHrZ0P2LU+cKNYKQPd5ERr+YZ/Dgdxu63+PPHhQvXKQq
QEM0JOmdfK7ZXit/MW72MpzGix/kzl9mlPdYH8WIYCYdYE9SAPbU+Y1sLUpQTywB
klWMDAJavfrKhtzE7yQCL1BFRnb1ecrOY58JkAD0WSrzKOcCAwEAAaOBojCBnzAJ
BgNVHRMEAjAAMB0GA1UdDgQWBBQ766ZEs2ORy4nh07QvsYHK+5v+GTBRBgNVHSME
SjBIgBQk8Jv4Qg/VMVDQoLYqIZb8jt9fDKEapBgwFjEUMBIGA1UEAwwLdGVhbTMy
Ni1uZXSCFFi9WvetmB5pOnn6YHyMh6dN7BcZMBMGA1UdJQQMMAoGCCsGAQUFBwMC
MAsGA1UdDwQEAwIHgDANBgkqhkiG9w0BAQsFAAOCAQEASuIR1KCbC0cGWDV0mv48
h5G47f9nwIGnHxXP3WRQaMhZs/8DUjvtDgE3RGtU61/Z1/FBHd2NEyLX4gq8lGjS
HH8/5+OaJhe11oN+YodoReEZwLsXThbTkRbpW2XqihemuUYSPyo5T5TXKHbmPpDc
JiMrCqkBKidG+nmkeiPzSNaLONh1r1iZxDf1kF6oAA6SQoBet/7Eb8rij/cRlBn8
T5h4w28bvgsKMT6glYw1RwPMqVzLvDvB1TawGdt+poqPLxtS/ca6wxZDwjvUeo88
e/COLdnhGO9Gqog7lG8hHkn94//jTq6QdM+q3phxrxcHdFYkvIt0nbvM4UgQWF93
uQ==
-----END CERTIFICATE-----
