Certificate:
    Data:
        Version: 3 (0x2)
        Serial Number:
            c7:06:fa:46:8f:6d:87:0b:ac:f0:97:03:55:9f:71:ff
        Signature Algorithm: sha256WithRSAEncryption
        Issuer: CN=team326-net
        Validity
            Not Before: May 18 20:13:25 2022 GMT
            Not After : May  2 20:13:25 2025 GMT
        Subject: CN=team326-server
        Subject Public Key Info:
            Public Key Algorithm: rsaEncryption
                RSA Public-Key: (2048 bit)
                Modulus:
                    00:b2:24:dd:48:65:09:da:20:6b:9c:9f:1d:db:68:
                    c2:dd:aa:cc:01:3f:9b:5c:ba:46:18:12:2c:46:6a:
                    76:58:23:6c:38:18:9b:73:7d:bf:2e:b8:c8:62:4a:
                    0c:e4:3d:3b:30:4c:89:e2:be:52:d2:47:8e:64:d2:
                    83:75:b1:06:29:ec:fc:b5:3a:94:34:62:7a:b8:c4:
                    ed:27:ef:68:44:5a:f8:0d:16:2a:36:ce:ae:ba:a0:
                    83:14:b0:90:6f:b6:44:c2:2d:d4:bd:19:6c:96:7f:
                    95:83:45:86:ec:e3:65:6e:24:d5:ce:41:0d:cc:cd:
                    c4:f0:b5:ce:36:ff:a2:6b:9b:68:30:16:22:30:75:
                    d7:2c:e7:a9:98:8c:6d:d6:27:fe:ec:80:d6:0d:88:
                    68:d6:d2:5d:a7:3e:88:1a:b5:f2:e5:c3:77:b6:65:
                    a2:47:4c:36:97:7d:9b:61:b0:fc:78:57:80:8c:d5:
                    c1:6b:a8:dc:f3:81:86:cb:55:e0:c0:eb:65:72:84:
                    a0:e0:d3:65:e4:7e:79:d1:b1:76:bf:f0:70:99:07:
                    1b:b2:bb:85:60:f4:1d:45:c6:27:ae:2c:fb:89:9c:
                    88:33:2c:18:cc:7c:d9:9a:41:01:a0:ae:13:ef:49:
                    0c:9d:12:05:e0:c8:e3:cf:ca:3d:76:4c:3b:e3:d1:
                    48:61
                Exponent: 65537 (0x10001)
        X509v3 extensions:
            X509v3 Basic Constraints: 
                CA:FALSE
            X509v3 Subject Key Identifier: 
                75:6C:28:FD:61:E2:AF:96:B5:7B:B8:DD:6D:81:C9:AB:F6:E6:1C:02
            X509v3 Authority Key Identifier: 
                keyid:24:F0:9B:F8:42:0F:D5:31:50:D0:A0:B6:2A:21:96:FC:8E:DF:5F:0C
                DirName:/CN=team326-net
                serial:58:BD:5A:F7:AD:98:1E:69:3A:79:FA:60:7C:8C:87:A7:4D:EC:17:19

            X509v3 Extended Key Usage: 
                TLS Web Server Authentication
            X509v3 Key Usage: 
                Digital Signature, Key Encipherment
            X509v3 Subject Alternative Name: 
                DNS:team326-server
    Signature Algorithm: sha256WithRSAEncryption
         26:92:9d:5b:64:6f:9c:38:93:fb:c8:6b:4e:d0:c2:64:06:a7:
         5b:da:3b:d1:af:5d:e9:50:35:58:dc:a9:25:8e:ce:fb:bd:59:
         b6:32:d5:55:a8:e0:c5:46:f5:a7:5c:5e:3a:a2:4c:16:7b:32:
         2b:ed:85:15:5c:e0:f2:8e:bd:23:52:6c:1f:83:94:09:f1:7c:
         c3:39:9d:88:85:78:40:a7:7a:43:61:01:c9:f1:2d:78:9a:d4:
         b9:56:ff:3b:6c:87:77:0a:35:72:dd:e4:fe:04:47:43:d2:d9:
         c0:28:eb:1a:a2:55:fb:5c:db:0d:34:0e:92:6d:b4:cf:cc:6d:
         ac:7e:0a:ea:3a:4a:ae:97:fe:5b:c4:0c:c3:0b:ea:f7:ef:71:
         00:78:51:be:fa:0d:87:77:59:b5:32:8c:07:ee:87:88:17:2d:
         bd:10:4a:78:d0:16:be:1b:2b:68:fb:9f:c5:2f:68:58:a4:83:
         f3:a2:ba:d1:6a:58:fd:fa:49:35:bb:b8:84:85:18:42:f8:45:
         98:8b:73:f8:06:e8:e2:bf:02:86:24:84:c7:dc:1e:30:e8:e1:
         75:2f:e8:fc:a3:5e:30:7c:0d:b7:e9:08:b5:60:ad:b1:a5:3b:
         2c:dc:2c:53:c9:12:52:ed:da:9e:14:b5:31:f0:be:85:ef:35:
         71:fc:d0:2e
-----BEGIN CERTIFICATE-----
MIIDeDCCAmCgAwIBAgIRAMcG+kaPbYcLrPCXA1Wfcf8wDQYJKoZIhvcNAQELBQAw
FjEUMBIGA1UEAwwLdGVhbTMyNi1uZXQwHhcNMjIwNTE4MjAxMzI1WhcNMjUwNTAy
MjAxMzI1WjAZMRcwFQYDVQQDDA50ZWFtMzI2LXNlcnZlcjCCASIwDQYJKoZIhvcN
AQEBBQADggEPADCCAQoCggEBALIk3UhlCdoga5yfHdtowt2qzAE/m1y6RhgSLEZq
dlgjbDgYm3N9vy64yGJKDOQ9OzBMieK+UtJHjmTSg3WxBins/LU6lDRierjE7Sfv
aERa+A0WKjbOrrqggxSwkG+2RMIt1L0ZbJZ/lYNFhuzjZW4k1c5BDczNxPC1zjb/
omubaDAWIjB11yznqZiMbdYn/uyA1g2IaNbSXac+iBq18uXDd7ZlokdMNpd9m2Gw
/HhXgIzVwWuo3POBhstV4MDrZXKEoODTZeR+edGxdr/wcJkHG7K7hWD0HUXGJ64s
+4mciDMsGMx82ZpBAaCuE+9JDJ0SBeDI48/KPXZMO+PRSGECAwEAAaOBvTCBujAJ
BgNVHRMEAjAAMB0GA1UdDgQWBBR1bCj9YeKvlrV7uN1tgcmr9uYcAjBRBgNVHSME
SjBIgBQk8Jv4Qg/VMVDQoLYqIZb8jt9fDKEapBgwFjEUMBIGA1UEAwwLdGVhbTMy
Ni1uZXSCFFi9WvetmB5pOnn6YHyMh6dN7BcZMBMGA1UdJQQMMAoGCCsGAQUFBwMB
MAsGA1UdDwQEAwIFoDAZBgNVHREEEjAQgg50ZWFtMzI2LXNlcnZlcjANBgkqhkiG
9w0BAQsFAAOCAQEAJpKdW2RvnDiT+8hrTtDCZAanW9o70a9d6VA1WNypJY7O+71Z
tjLVVajgxUb1p1xeOqJMFnsyK+2FFVzg8o69I1JsH4OUCfF8wzmdiIV4QKd6Q2EB
yfEteJrUuVb/O2yHdwo1ct3k/gRHQ9LZwCjrGqJV+1zbDTQOkm20z8xtrH4K6jpK
rpf+W8QMwwvq9+9xAHhRvvoNh3dZtTKMB+6HiBctvRBKeNAWvhsraPufxS9oWKSD
86K60WpY/fpJNbu4hIUYQvhFmItz+Abo4r8ChiSEx9weMOjhdS/o/KNeMHwNt+kI
tWCtsaU7LNwsU8kSUu3anhS1MfC+he81cfzQLg==
-----END CERTIFICATE-----
