Certificate:
    Data:
        Version: 3 (0x2)
        Serial Number:
            6f:60:b1:62:f1:aa:16:9c:54:81:fa:99:bb:63:24:28
        Signature Algorithm: sha256WithRSAEncryption
        Issuer: CN=team599-net
        Validity
            Not Before: May 18 22:48:54 2022 GMT
            Not After : May  2 22:48:54 2025 GMT
        Subject: CN=team599-client
        Subject Public Key Info:
            Public Key Algorithm: rsaEncryption
                RSA Public-Key: (2048 bit)
                Modulus:
                    00:ce:ea:0a:ae:b4:bd:b2:1d:6c:68:45:b6:c9:84:
                    49:16:b7:86:15:d0:9b:dd:75:19:86:a7:8a:9e:07:
                    48:2f:80:be:27:36:35:f9:fa:76:75:9d:5d:7b:b7:
                    38:77:30:4e:4f:93:20:6b:26:08:e7:81:8a:2e:7e:
                    54:8e:e5:16:b7:dc:1f:d9:88:bb:4a:ba:3f:7d:db:
                    37:ff:97:61:11:48:7c:5d:6f:89:b0:c3:72:78:86:
                    6f:95:7f:a6:97:73:fb:91:8a:4c:14:c5:83:04:28:
                    0a:43:e5:c7:d2:4a:1a:2b:12:4e:d6:0b:59:3c:41:
                    3a:45:a8:6b:36:b1:6f:97:10:ec:04:99:8b:eb:cc:
                    15:5d:f6:5e:26:06:6d:0c:f2:b5:a1:e0:33:e6:34:
                    a1:4e:96:31:23:88:83:92:bf:6e:3f:8c:bc:48:9c:
                    3b:58:b4:20:13:23:3d:dd:04:82:b8:10:7c:ee:5e:
                    ea:90:cf:af:6c:5f:94:76:5c:69:d8:1c:ca:ae:cf:
                    ed:ed:63:5b:06:50:5f:94:19:89:1e:49:14:39:4d:
                    60:a3:d6:f2:76:ff:7c:c5:7c:c5:7f:bc:86:f9:5e:
                    a5:fd:b1:73:48:a1:0a:7d:22:d4:35:d4:62:67:44:
                    ae:b8:0d:0e:8c:5c:f1:3d:5c:67:19:9e:2c:1c:b7:
                    47:f5
                Exponent: 65537 (0x10001)
        X509v3 extensions:
            X509v3 Basic Constraints: 
                CA:FALSE
            X509v3 Subject Key Identifier: 
                5A:63:21:C1:E3:79:94:E2:76:4E:A3:D3:7D:02:C4:4C:62:A2:1D:17
            X509v3 Authority Key Identifier: 
                keyid:2E:91:27:66:F4:42:9B:E1:49:BD:5D:89:40:3A:D7:1D:1C:FA:80:7F
                DirName:/CN=team599-net
                serial:F4:D4:DF:31:AA:1B:FF:A3:43:33:0C:1A:FA:28:B7:BC:C8:1D:82

            X509v3 Extended Key Usage: 
                TLS Web Client Authentication
            X509v3 Key Usage: 
                Digital Signature
    Signature Algorithm: sha256WithRSAEncryption
         3a:1c:f1:26:01:26:b4:4e:81:86:a1:95:e5:b5:99:ac:63:bd:
         ba:98:1c:98:e3:c4:e9:a0:ad:77:d6:36:f7:f1:6e:13:a9:fe:
         aa:7e:9c:9e:44:be:b4:e8:e9:34:aa:d5:a4:ce:04:36:d6:de:
         23:64:9a:77:db:ad:da:9d:73:08:bc:de:34:6d:ed:6c:f2:1c:
         96:8a:5a:63:f6:19:36:61:fa:41:5e:be:e8:2f:1b:11:71:92:
         ff:95:63:6c:f5:5d:15:ac:de:4c:f8:1e:f7:4a:45:a2:a7:42:
         4e:71:a8:c3:fa:35:fb:bf:64:ab:06:e1:1e:02:50:9e:3f:97:
         e9:32:5c:a5:42:c9:d9:0e:3f:52:ec:8f:91:f8:80:2f:c5:f5:
         eb:e8:48:09:0f:22:fa:9b:79:15:12:dd:8d:42:c9:87:b2:2e:
         25:d1:39:9b:a6:1a:ae:74:79:3c:31:bf:ee:e7:ea:da:94:ed:
         97:d9:3b:e3:6d:75:62:d7:d8:5d:e0:34:d5:af:68:db:18:a4:
         ae:c1:42:2f:12:f0:ee:f8:94:62:d6:7e:f0:78:cd:ee:92:b2:
         1d:5f:f7:6c:db:c6:98:5b:49:55:93:fe:73:fa:21:5d:69:48:
         64:8a:68:d5:e5:1a:ec:59:58:35:fe:34:cc:14:0a:2d:b1:3f:
         3e:ff:bd:30
-----BEGIN CERTIFICATE-----
MIIDXDCCAkSgAwIBAgIQb2CxYvGqFpxUgfqZu2MkKDANBgkqhkiG9w0BAQsFADAW
MRQwEgYDVQQDDAt0ZWFtNTk5LW5ldDAeFw0yMjA1MTgyMjQ4NTRaFw0yNTA1MDIy
MjQ4NTRaMBkxFzAVBgNVBAMMDnRlYW01OTktY2xpZW50MIIBIjANBgkqhkiG9w0B
AQEFAAOCAQ8AMIIBCgKCAQEAzuoKrrS9sh1saEW2yYRJFreGFdCb3XUZhqeKngdI
L4C+JzY1+fp2dZ1de7c4dzBOT5MgayYI54GKLn5UjuUWt9wf2Yi7Sro/fds3/5dh
EUh8XW+JsMNyeIZvlX+ml3P7kYpMFMWDBCgKQ+XH0koaKxJO1gtZPEE6RahrNrFv
lxDsBJmL68wVXfZeJgZtDPK1oeAz5jShTpYxI4iDkr9uP4y8SJw7WLQgEyM93QSC
uBB87l7qkM+vbF+Udlxp2BzKrs/t7WNbBlBflBmJHkkUOU1go9bydv98xXzFf7yG
+V6l/bFzSKEKfSLUNdRiZ0SuuA0OjFzxPVxnGZ4sHLdH9QIDAQABo4GiMIGfMAkG
A1UdEwQCMAAwHQYDVR0OBBYEFFpjIcHjeZTidk6j030CxExioh0XMFEGA1UdIwRK
MEiAFC6RJ2b0QpvhSb1diUA61x0c+oB/oRqkGDAWMRQwEgYDVQQDDAt0ZWFtNTk5
LW5ldIIUAPTU3zGqG/+jQzMMGvoot7zIHYIwEwYDVR0lBAwwCgYIKwYBBQUHAwIw
CwYDVR0PBAQDAgeAMA0GCSqGSIb3DQEBCwUAA4IBAQA6HPEmASa0ToGGoZXltZms
Y726mByY48TpoK131jb38W4Tqf6qfpyeRL606Ok0qtWkzgQ21t4jZJp3263anXMI
vN40be1s8hyWilpj9hk2YfpBXr7oLxsRcZL/lWNs9V0VrN5M+B73SkWip0JOcajD
+jX7v2SrBuEeAlCeP5fpMlylQsnZDj9S7I+R+IAvxfXr6EgJDyL6m3kVEt2NQsmH
si4l0TmbphqudHk8Mb/u5+ralO2X2TvjbXVi19hd4DTVr2jbGKSuwUIvEvDu+JRi
1n7weM3ukrIdX/ds28aYW0lVk/5z+iFdaUhkimjV5RrsWVg1/jTMFAotsT8+/70w
-----END CERTIFICATE-----
