Certificate:
    Data:
        Version: 3 (0x2)
        Serial Number:
            8f:e0:87:07:6e:bf:48:4b:8a:47:f3:6c:ab:24:ad:8d
        Signature Algorithm: sha256WithRSAEncryption
        Issuer: CN=team599-net
        Validity
            Not Before: May 18 22:48:54 2022 GMT
            Not After : May  2 22:48:54 2025 GMT
        Subject: CN=team599-server
        Subject Public Key Info:
            Public Key Algorithm: rsaEncryption
                RSA Public-Key: (2048 bit)
                Modulus:
                    00:b7:05:b3:b7:f8:1e:e6:59:88:41:af:6a:dd:56:
                    b1:7e:74:c8:2f:83:ba:c9:ee:f3:c5:f0:63:5a:62:
                    54:84:4d:b8:71:2e:9b:4d:84:4a:a5:11:bd:53:c0:
                    92:43:e8:66:75:0d:26:ff:44:3e:d0:ce:81:ba:a2:
                    2b:92:97:e1:a8:a3:55:60:a6:26:79:cd:29:cf:c7:
                    59:dd:b4:be:60:76:1d:f2:45:78:5f:ab:b9:e6:c4:
                    87:45:b0:15:bc:7b:e1:fd:da:b7:88:63:f2:1c:8d:
                    e0:b3:8d:71:b2:72:fb:d7:f1:1c:4d:0f:e1:e6:89:
                    33:88:b0:79:ce:cf:eb:5d:9e:29:8c:8e:7e:88:ab:
                    e8:cb:ea:53:f4:1a:8c:25:22:b5:43:fc:89:f7:eb:
                    4b:0d:91:e8:3e:cf:54:bd:b9:34:20:62:c5:bd:1f:
                    66:29:9b:99:f9:23:98:0d:4a:ff:0c:5a:75:9c:fc:
                    74:8d:f5:d7:8e:27:76:f1:45:12:e3:2b:8a:a2:37:
                    5e:8a:8e:b4:08:02:97:db:88:1b:0f:18:8b:59:fb:
                    cb:16:ee:09:57:3f:b6:12:35:0e:b6:6f:00:04:fc:
                    32:fa:73:68:3f:a0:2f:b1:0b:93:7d:41:74:4d:d7:
                    e7:0b:ef:47:a8:ec:b0:66:0e:79:53:14:02:1d:9f:
                    1a:57
                Exponent: 65537 (0x10001)
        X509v3 extensions:
            X509v3 Basic Constraints: 
                CA:FALSE
            X509v3 Subject Key Identifier: 
                C7:16:09:BE:D1:1C:17:F2:45:D9:59:99:08:13:C4:48:AC:8A:C2:F4
            X509v3 Authority Key Identifier: 
                keyid:2E:91:27:66:F4:42:9B:E1:49:BD:5D:89:40:3A:D7:1D:1C:FA:80:7F
                DirName:/CN=team599-net
                serial:F4:D4:DF:31:AA:1B:FF:A3:43:33:0C:1A:FA:28:B7:BC:C8:1D:82

            X509v3 Extended Key Usage: 
                TLS Web Server Authentication
            X509v3 Key Usage: 
                Digital Signature, Key Encipherment
            X509v3 Subject Alternative Name: 
                DNS:team599-server
    Signature Algorithm: sha256WithRSAEncryption
         da:7b:5e:65:2c:87:55:81:75:f0:16:e1:32:56:2c:f8:5e:8e:
         94:79:0d:f5:aa:1a:dd:e1:bb:e2:31:9c:50:1f:b9:2b:60:d1:
         03:0b:3b:a0:a0:d5:f7:dd:ff:68:98:02:78:41:ca:ea:a3:9c:
         81:60:02:08:e2:41:8e:2a:76:0f:ed:7e:77:1f:e9:d5:cb:01:
         5d:22:a4:22:4c:0f:0f:82:9a:6d:5a:03:fd:54:8d:76:df:50:
         18:a0:8d:ea:7a:c3:a8:cd:53:fd:43:d7:28:bc:4c:12:cb:80:
         1b:36:b0:fc:20:61:fe:ae:f4:dd:cb:4c:56:cb:2b:4d:4b:c1:
         d8:50:d9:9e:b2:83:aa:52:24:76:6a:48:48:d2:7c:59:06:ab:
         f5:eb:e0:0c:07:e9:0d:8f:bf:6f:4e:c4:bd:d5:e2:fb:c2:47:
         07:59:c4:4a:37:44:aa:e7:1b:60:21:34:a4:74:2b:4a:13:30:
         3c:1b:0b:63:62:f9:6a:87:d5:2f:fe:d4:74:f9:a6:03:4f:d7:
         55:58:54:92:dd:1e:65:98:0c:48:71:09:02:c6:d2:84:df:6b:
         f4:37:66:cf:65:9d:11:1e:67:a1:ef:e6:16:05:6b:35:ae:49:
         2b:6e:84:77:3c:c2:79:c5:ed:d5:5c:b0:ec:37:59:6e:29:8b:
         b2:7f:38:ba
-----BEGIN CERTIFICATE-----
MIIDeDCCAmCgAwIBAgIRAI/ghwduv0hLikfzbKskrY0wDQYJKoZIhvcNAQELBQAw
FjEUMBIGA1UEAwwLdGVhbTU5OS1uZXQwHhcNMjIwNTE4MjI0ODU0WhcNMjUwNTAy
MjI0ODU0WjAZMRcwFQYDVQQDDA50ZWFtNTk5LXNlcnZlcjCCASIwDQYJKoZIhvcN
AQEBBQADggEPADCCAQoCggEBALcFs7f4HuZZiEGvat1WsX50yC+Dusnu88XwY1pi
VIRNuHEum02ESqURvVPAkkPoZnUNJv9EPtDOgbqiK5KX4aijVWCmJnnNKc/HWd20
vmB2HfJFeF+ruebEh0WwFbx74f3at4hj8hyN4LONcbJy+9fxHE0P4eaJM4iwec7P
612eKYyOfoir6MvqU/QajCUitUP8iffrSw2R6D7PVL25NCBixb0fZimbmfkjmA1K
/wxadZz8dI31144ndvFFEuMriqI3XoqOtAgCl9uIGw8Yi1n7yxbuCVc/thI1DrZv
AAT8MvpzaD+gL7ELk31BdE3X5wvvR6jssGYOeVMUAh2fGlcCAwEAAaOBvTCBujAJ
BgNVHRMEAjAAMB0GA1UdDgQWBBTHFgm+0RwX8kXZWZkIE8RIrIrC9DBRBgNVHSME
SjBIgBQukSdm9EKb4Um9XYlAOtcdHPqAf6EapBgwFjEUMBIGA1UEAwwLdGVhbTU5
OS1uZXSCFAD01N8xqhv/o0MzDBr6KLe8yB2CMBMGA1UdJQQMMAoGCCsGAQUFBwMB
MAsGA1UdDwQEAwIFoDAZBgNVHREEEjAQgg50ZWFtNTk5LXNlcnZlcjANBgkqhkiG
9w0BAQsFAAOCAQEA2nteZSyHVYF18BbhMlYs+F6OlHkN9aoa3eG74jGcUB+5K2DR
Aws7oKDV993/aJgCeEHK6qOcgWACCOJBjip2D+1+dx/p1csBXSKkIkwPD4KabVoD
/VSNdt9QGKCN6nrDqM1T/UPXKLxMEsuAGzaw/CBh/q703ctMVssrTUvB2FDZnrKD
qlIkdmpISNJ8WQar9evgDAfpDY+/b07EvdXi+8JHB1nESjdEqucbYCE0pHQrShMw
PBsLY2L5aofVL/7UdPmmA0/XVVhUkt0eZZgMSHEJAsbShN9r9Ddmz2WdER5noe/m
FgVrNa5JK26EdzzCecXt1Vyw7DdZbimLsn84ug==
-----END CERTIFICATE-----
