Certificate:
    Data:
        Version: 3 (0x2)
        Serial Number:
            7a:b1:08:16:bc:fc:dc:29:ca:0f:e2:43:f5:1f:0f:69
        Signature Algorithm: sha256WithRSAEncryption
        Issuer: CN=team32-net
        Validity
            Not Before: May 18 14:12:06 2022 GMT
            Not After : May  2 14:12:06 2025 GMT
        Subject: CN=team32-client
        Subject Public Key Info:
            Public Key Algorithm: rsaEncryption
                RSA Public-Key: (2048 bit)
                Modulus:
                    00:cb:97:70:26:e4:b7:a2:8d:9f:dd:54:3e:37:a2:
                    01:1d:05:3a:29:77:d4:d7:58:5b:95:c5:49:b4:de:
                    00:57:0e:44:14:ba:cf:52:87:ec:ea:72:d9:ba:72:
                    29:c6:22:58:15:a3:be:3b:11:b5:54:15:6e:45:56:
                    81:96:03:d3:bf:01:7f:5c:23:54:25:c6:b9:db:05:
                    41:56:6c:e4:92:29:cc:d7:36:a6:3c:03:1c:fa:c4:
                    58:70:65:4e:56:82:9b:ce:c6:f4:2a:cc:6a:25:c9:
                    97:3d:8c:ef:7f:dc:18:06:1e:f5:f4:6d:d5:b6:bf:
                    60:a9:65:3c:12:8a:f8:b3:5a:c0:0b:ab:b3:55:d4:
                    41:33:70:db:de:00:40:56:b7:10:64:f1:53:4e:9d:
                    5c:c7:1e:f9:6b:1d:97:38:ba:34:8f:00:3a:f8:d3:
                    a6:41:09:ef:0a:ef:47:42:38:a0:7d:35:8d:e8:d5:
                    df:ad:4c:77:c0:5e:7f:9d:10:02:12:f8:3a:de:0d:
                    20:ab:c2:38:56:ac:0d:5c:15:3f:c9:77:d6:47:4b:
                    32:3e:ec:b0:b7:15:8e:41:2d:36:39:aa:27:83:d4:
                    51:1d:56:00:79:d7:77:9f:8e:ac:c8:6b:56:b3:4b:
                    79:d3:cd:f9:39:d8:66:a6:d8:86:e5:45:1a:36:ec:
                    ac:e7
                Exponent: 65537 (0x10001)
        X509v3 extensions:
            X509v3 Basic Constraints: 
                CA:FALSE
            X509v3 Subject Key Identifier: 
                50:D0:95:95:78:74:83:0F:EF:B9:92:4F:17:74:63:4A:36:E2:42:D4
            X509v3 Authority Key Identifier: 
                keyid:91:29:7A:98:B8:6F:34:D7:33:70:C3:97:53:54:85:43:E9:53:BF:1E
                DirName:/CN=team32-net
                serial:25:1B:C9:09:27:EC:12:AB:95:E3:40:2A:C7:72:E1:02:6E:C4:84:C4

            X509v3 Extended Key Usage: 
                TLS Web Client Authentication
            X509v3 Key Usage: 
                Digital Signature
    Signature Algorithm: sha256WithRSAEncryption
         68:3a:71:55:07:26:ff:3f:d7:35:43:fe:21:bd:6d:54:41:fb:
         f1:0b:c4:cb:3c:ec:f7:c3:62:98:5d:e5:7b:58:72:b4:17:f7:
         cf:67:28:b9:11:11:f3:a0:09:15:43:4d:66:d5:34:20:c5:5b:
         4e:1d:29:8e:d7:bc:9a:db:f2:ee:ce:f6:9a:f0:02:3a:b5:bd:
         e2:1b:83:23:91:f7:f5:d1:b4:fc:a4:7d:16:1d:39:c1:a6:99:
         72:8a:95:49:40:69:9a:67:e1:7d:61:d2:70:3a:8b:c2:f9:2f:
         a8:4d:a3:b1:b9:ea:f3:76:f0:9d:c9:ec:2b:33:d0:76:34:7c:
         3d:9e:5f:00:cd:80:d4:ef:7a:6d:9b:c2:c9:a7:f5:fa:ba:70:
         1f:a3:bd:86:cf:6d:cf:95:c0:ec:9c:1f:8e:40:d3:19:80:e0:
         04:a3:18:0a:48:95:89:9b:49:8f:11:31:5b:6e:c3:9d:fe:3e:
         b1:b9:f3:13:b6:0d:fc:f2:2a:53:fc:8c:e6:12:b6:8b:68:bb:
         93:7f:6c:85:95:16:b6:3a:3d:ec:a5:b5:64:34:e3:23:c1:61:
         78:2f:95:ce:b2:e5:29:a1:5a:a6:92:92:1d:e4:5e:7a:e8:be:
         f3:78:e0:03:f0:9f:8e:fd:79:33:a8:80:3b:ee:8b:01:1a:1c:
         a0:1d:a5:c4
-----BEGIN CERTIFICATE-----
MIIDWTCCAkGgAwIBAgIQerEIFrz83CnKD+JD9R8PaTANBgkqhkiG9w0BAQsFADAV
MRMwEQYDVQQDDAp0ZWFtMzItbmV0MB4XDTIyMDUxODE0MTIwNloXDTI1MDUwMjE0
MTIwNlowGDEWMBQGA1UEAwwNdGVhbTMyLWNsaWVudDCCASIwDQYJKoZIhvcNAQEB
BQADggEPADCCAQoCggEBAMuXcCbkt6KNn91UPjeiAR0FOil31NdYW5XFSbTeAFcO
RBS6z1KH7Opy2bpyKcYiWBWjvjsRtVQVbkVWgZYD078Bf1wjVCXGudsFQVZs5JIp
zNc2pjwDHPrEWHBlTlaCm87G9CrMaiXJlz2M73/cGAYe9fRt1ba/YKllPBKK+LNa
wAurs1XUQTNw294AQFa3EGTxU06dXMce+Wsdlzi6NI8AOvjTpkEJ7wrvR0I4oH01
jejV361Md8Bef50QAhL4Ot4NIKvCOFasDVwVP8l31kdLMj7ssLcVjkEtNjmqJ4PU
UR1WAHnXd5+OrMhrVrNLedPN+TnYZqbYhuVFGjbsrOcCAwEAAaOBoTCBnjAJBgNV
HRMEAjAAMB0GA1UdDgQWBBRQ0JWVeHSDD++5kk8XdGNKNuJC1DBQBgNVHSMESTBH
gBSRKXqYuG801zNww5dTVIVD6VO/HqEZpBcwFTETMBEGA1UEAwwKdGVhbTMyLW5l
dIIUJRvJCSfsEquV40Aqx3LhAm7EhMQwEwYDVR0lBAwwCgYIKwYBBQUHAwIwCwYD
VR0PBAQDAgeAMA0GCSqGSIb3DQEBCwUAA4IBAQBoOnFVByb/P9c1Q/4hvW1UQfvx
C8TLPOz3w2KYXeV7WHK0F/fPZyi5ERHzoAkVQ01m1TQgxVtOHSmO17ya2/Luzvaa
8AI6tb3iG4Mjkff10bT8pH0WHTnBpplyipVJQGmaZ+F9YdJwOovC+S+oTaOxuerz
dvCdyewrM9B2NHw9nl8AzYDU73ptm8LJp/X6unAfo72Gz23PlcDsnB+OQNMZgOAE
oxgKSJWJm0mPETFbbsOd/j6xufMTtg388ipT/IzmEraLaLuTf2yFlRa2Oj3spbVk
NOMjwWF4L5XOsuUpoVqmkpId5F566L7zeOAD8J+O/XkzqIA77osBGhygHaXE
-----END CERTIFICATE-----
