Certificate:
    Data:
        Version: 3 (0x2)
        Serial Number:
            55:9c:00:73:7a:aa:e4:91:64:6f:e6:ad:19:52:38:a5
        Signature Algorithm: sha256WithRSAEncryption
        Issuer: CN=team684-net
        Validity
            Not Before: May 18 23:38:35 2022 GMT
            Not After : May  2 23:38:35 2025 GMT
        Subject: CN=team684-client
        Subject Public Key Info:
            Public Key Algorithm: rsaEncryption
                RSA Public-Key: (2048 bit)
                Modulus:
                    00:df:72:a4:61:1a:0d:1d:d9:48:d8:50:8f:e7:79:
                    c8:c2:1a:dd:1f:e8:52:4a:3f:55:3d:39:04:27:76:
                    bb:85:2c:8d:01:a0:16:e3:38:d2:5b:6b:62:2f:14:
                    35:c6:2f:27:f4:ec:5e:57:af:5e:32:1a:b8:9b:29:
                    93:41:04:5e:67:29:67:ee:28:8f:a6:51:0d:22:23:
                    9a:fb:84:2e:b2:41:56:4a:0f:00:8e:7a:3b:c6:10:
                    46:cb:61:2b:6a:c6:28:54:65:2a:a9:6c:23:40:d9:
                    ac:eb:1e:86:9b:0f:f5:20:57:ff:21:d8:3e:e0:75:
                    47:c6:0f:53:a2:44:21:69:26:5d:12:37:60:66:71:
                    64:7a:3e:22:45:15:11:fb:93:4d:54:11:40:d0:fa:
                    e1:72:d3:d8:58:20:7c:52:0c:74:5a:d3:49:d4:cf:
                    73:1d:7e:29:1c:06:92:c2:48:e1:33:b6:db:e9:31:
                    3a:6d:bf:56:50:0d:6a:43:67:5f:27:44:a9:c5:62:
                    02:85:2f:fc:a4:0d:7e:03:f8:89:7a:c2:c9:7b:12:
                    86:a1:bd:16:90:a6:18:60:a0:d3:24:4a:86:c8:4e:
                    e7:56:f5:ab:45:43:5e:53:e1:de:d3:89:57:92:6f:
                    22:8b:79:67:31:4a:27:73:54:e3:22:d4:b6:43:f3:
                    b6:2f
                Exponent: 65537 (0x10001)
        X509v3 extensions:
            X509v3 Basic Constraints: 
                CA:FALSE
            X509v3 Subject Key Identifier: 
                EC:63:50:06:B7:6F:F6:BC:DF:3E:98:A2:AC:19:9A:33:F7:DB:99:5C
            X509v3 Authority Key Identifier: 
                keyid:C0:B4:94:63:B6:B4:47:00:EE:D3:0D:EA:13:10:BD:38:74:8F:58:AC
                DirName:/CN=team684-net
                serial:29:6C:88:0C:A1:BF:D0:0A:15:1C:30:76:B0:0E:6D:19:85:EE:F5:F3

            X509v3 Extended Key Usage: 
                TLS Web Client Authentication
            X509v3 Key Usage: 
                Digital Signature
    Signature Algorithm: sha256WithRSAEncryption
         7c:c0:62:27:b5:29:ef:78:ff:6b:d0:93:67:6e:46:09:49:3b:
         7d:f4:f5:12:cb:a7:40:25:d9:33:de:e0:d9:b4:f3:da:c5:a6:
         dc:0b:85:66:8a:4a:39:ae:47:63:11:c4:d5:4b:39:c8:cb:a3:
         b6:66:2e:11:f4:57:69:2a:4a:84:c1:9d:5f:da:a7:0e:0e:dd:
         ba:1b:c1:cf:e5:65:f6:8d:c1:e3:20:f2:63:02:d5:10:e8:7e:
         88:4b:c2:3c:94:dc:69:9b:b1:60:dc:48:90:7e:92:3f:04:82:
         a7:56:29:bc:d3:93:c6:52:a3:ea:8d:10:9c:86:14:cb:e6:dc:
         46:9f:08:9c:4a:7f:2f:62:39:2f:cd:5c:13:2b:79:3a:01:17:
         a9:48:66:49:b7:2e:93:d1:69:1d:28:43:47:c1:57:3c:4f:96:
         29:4c:01:32:5f:14:b9:16:72:80:dc:6d:8a:6e:59:5f:37:6a:
         ae:8b:f5:0b:87:78:fd:1b:ca:b9:f1:f9:7b:e1:29:23:a9:47:
         9a:27:7d:0d:d9:2c:fb:9c:b9:ad:a6:9d:06:a4:5f:0f:71:5b:
         f5:2c:71:e7:2f:2b:c9:0d:50:76:57:4f:fc:32:9b:c0:bc:0a:
         e6:cf:18:43:f1:93:d0:9d:af:b0:f4:38:63:b3:e2:39:fd:9d:
         63:e5:9d:89
-----BEGIN CERTIFICATE-----
MIIDXDCCAkSgAwIBAgIQVZwAc3qq5JFkb+atGVI4pTANBgkqhkiG9w0BAQsFADAW
MRQwEgYDVQQDDAt0ZWFtNjg0LW5ldDAeFw0yMjA1MTgyMzM4MzVaFw0yNTA1MDIy
MzM4MzVaMBkxFzAVBgNVBAMMDnRlYW02ODQtY2xpZW50MIIBIjANBgkqhkiG9w0B
AQEFAAOCAQ8AMIIBCgKCAQEA33KkYRoNHdlI2FCP53nIwhrdH+hSSj9VPTkEJ3a7
hSyNAaAW4zjSW2tiLxQ1xi8n9OxeV69eMhq4mymTQQReZyln7iiPplENIiOa+4Qu
skFWSg8Ajno7xhBGy2ErasYoVGUqqWwjQNms6x6Gmw/1IFf/Idg+4HVHxg9TokQh
aSZdEjdgZnFkej4iRRUR+5NNVBFA0PrhctPYWCB8Ugx0WtNJ1M9zHX4pHAaSwkjh
M7bb6TE6bb9WUA1qQ2dfJ0SpxWIChS/8pA1+A/iJesLJexKGob0WkKYYYKDTJEqG
yE7nVvWrRUNeU+He04lXkm8ii3lnMUonc1TjItS2Q/O2LwIDAQABo4GiMIGfMAkG
A1UdEwQCMAAwHQYDVR0OBBYEFOxjUAa3b/a83z6YoqwZmjP325lcMFEGA1UdIwRK
MEiAFMC0lGO2tEcA7tMN6hMQvTh0j1isoRqkGDAWMRQwEgYDVQQDDAt0ZWFtNjg0
LW5ldIIUKWyIDKG/0AoVHDB2sA5tGYXu9fMwEwYDVR0lBAwwCgYIKwYBBQUHAwIw
CwYDVR0PBAQDAgeAMA0GCSqGSIb3DQEBCwUAA4IBAQB8wGIntSnveP9r0JNnbkYJ
STt99PUSy6dAJdkz3uDZtPPaxabcC4Vmiko5rkdjEcTVSznIy6O2Zi4R9FdpKkqE
wZ1f2qcODt26G8HP5WX2jcHjIPJjAtUQ6H6IS8I8lNxpm7Fg3EiQfpI/BIKnVim8
05PGUqPqjRCchhTL5txGnwicSn8vYjkvzVwTK3k6ARepSGZJty6T0WkdKENHwVc8
T5YpTAEyXxS5FnKA3G2KbllfN2qui/ULh3j9G8q58fl74SkjqUeaJ30N2Sz7nLmt
pp0GpF8PcVv1LHHnLyvJDVB2V0/8MpvAvArmzxhD8ZPQna+w9Dhjs+I5/Z1j5Z2J
-----END CERTIFICATE-----
