Certificate:
    Data:
        Version: 3 (0x2)
        Serial Number:
            b4:02:ed:74:d1:f2:ca:02:88:62:55:d7:12:ad:8a:0b
        Signature Algorithm: sha256WithRSAEncryption
        Issuer: CN=team215-net
        Validity
            Not Before: May 18 19:09:22 2022 GMT
            Not After : May  2 19:09:22 2025 GMT
        Subject: CN=team215-client
        Subject Public Key Info:
            Public Key Algorithm: rsaEncryption
                RSA Public-Key: (2048 bit)
                Modulus:
                    00:cd:00:16:10:09:75:27:40:d9:9c:0f:1b:32:88:
                    86:80:be:a5:ef:9e:4d:67:98:e3:c5:97:a5:fa:bb:
                    a5:2d:da:33:c4:35:19:86:99:9a:cc:1d:a7:69:3c:
                    ee:8c:94:79:b9:95:22:58:5c:77:6a:08:ad:6e:5d:
                    7c:ae:44:78:9c:99:76:43:09:77:bc:21:56:6d:74:
                    a9:a8:c5:ba:2b:a0:e6:67:b3:0d:2d:44:aa:05:47:
                    cd:d0:cd:fc:d2:ca:73:fe:d2:9c:ed:f9:85:5a:38:
                    3c:b7:75:cd:07:21:2f:af:06:4a:54:04:b9:20:a7:
                    9d:5d:f4:53:2f:12:5c:89:5e:ca:43:25:99:32:64:
                    07:b9:82:c2:3c:04:d2:51:19:6b:e8:82:b2:a1:74:
                    a7:2b:d5:8e:12:7f:63:b6:c0:87:4f:57:8f:d8:f3:
                    b9:c0:b7:1a:cf:9c:9c:f8:a0:61:36:80:ca:c3:c0:
                    06:24:33:50:a5:02:06:5e:27:90:83:e0:04:e9:49:
                    5d:26:91:f3:c6:be:3a:b3:7d:db:22:35:34:20:78:
                    80:4e:ae:5d:95:7d:cb:07:50:ba:a6:7c:ea:50:5b:
                    22:17:b2:44:da:39:75:8f:d4:4f:df:33:7d:ff:8c:
                    ab:6b:6c:18:81:10:df:06:0d:10:f6:4c:63:77:ca:
                    ad:81
                Exponent: 65537 (0x10001)
        X509v3 extensions:
            X509v3 Basic Constraints: 
                CA:FALSE
            X509v3 Subject Key Identifier: 
                8A:9C:C0:63:24:7F:EF:9B:16:EF:10:47:32:DD:D9:2F:72:0C:68:27
            X509v3 Authority Key Identifier: 
                keyid:E4:54:96:88:D3:D8:89:D8:FA:8F:93:6A:4C:D8:67:88:6A:A7:78:99
                DirName:/CN=team215-net
                serial:58:6A:EC:70:46:1C:E1:CF:A7:F0:F2:A1:D7:0B:D1:02:6B:51:88:10

            X509v3 Extended Key Usage: 
                TLS Web Client Authentication
            X509v3 Key Usage: 
                Digital Signature
    Signature Algorithm: sha256WithRSAEncryption
         67:b7:74:bf:44:3b:f8:71:f4:45:af:9e:90:35:28:34:e4:11:
         c7:84:90:9e:bc:3b:63:bf:cb:4c:5e:4d:40:8d:9c:8e:16:e0:
         3a:e1:af:4c:f2:42:e1:e8:cc:7c:ca:0b:ce:4c:9b:03:26:bf:
         1f:2b:a6:62:2f:20:42:b8:7a:e9:3b:6a:be:be:82:c9:5b:fd:
         0f:f6:b8:44:6e:a8:9b:bf:41:4d:86:eb:27:26:c5:4c:e6:d0:
         4a:1c:71:dd:22:e2:bb:75:7c:8c:c3:c9:79:b8:57:6a:99:a5:
         b3:0f:b1:a4:8a:1c:75:de:28:b6:dd:bf:c0:e0:fb:c5:2a:bd:
         49:79:0b:3a:c6:9d:12:33:69:3c:50:d8:0a:b6:e0:d9:23:90:
         b6:1d:09:59:48:f1:83:8b:eb:7a:ac:bd:9f:e0:7a:d9:50:a9:
         c7:0c:2b:e9:9e:1a:4e:13:cf:3e:00:d5:9b:a3:fb:b3:4d:79:
         99:78:e0:82:b8:d2:b2:65:1d:ed:4a:4d:9e:df:ec:e8:39:6b:
         c5:a9:d7:71:42:6a:9f:0e:4f:4b:d9:a8:9a:46:d0:ad:0a:e3:
         c6:c8:de:68:ec:03:f3:fc:f3:ad:29:a1:0c:4a:82:24:9c:97:
         86:fa:0f:fc:2a:a6:f9:ca:5e:de:2e:34:17:d6:fb:cc:52:16:
         fc:59:ff:fe
-----BEGIN CERTIFICATE-----
MIIDXTCCAkWgAwIBAgIRALQC7XTR8soCiGJV1xKtigswDQYJKoZIhvcNAQELBQAw
FjEUMBIGA1UEAwwLdGVhbTIxNS1uZXQwHhcNMjIwNTE4MTkwOTIyWhcNMjUwNTAy
MTkwOTIyWjAZMRcwFQYDVQQDDA50ZWFtMjE1LWNsaWVudDCCASIwDQYJKoZIhvcN
AQEBBQADggEPADCCAQoCggEBAM0AFhAJdSdA2ZwPGzKIhoC+pe+eTWeY48WXpfq7
pS3aM8Q1GYaZmswdp2k87oyUebmVIlhcd2oIrW5dfK5EeJyZdkMJd7whVm10qajF
uiug5mezDS1EqgVHzdDN/NLKc/7SnO35hVo4PLd1zQchL68GSlQEuSCnnV30Uy8S
XIleykMlmTJkB7mCwjwE0lEZa+iCsqF0pyvVjhJ/Y7bAh09Xj9jzucC3Gs+cnPig
YTaAysPABiQzUKUCBl4nkIPgBOlJXSaR88a+OrN92yI1NCB4gE6uXZV9ywdQuqZ8
6lBbIheyRNo5dY/UT98zff+Mq2tsGIEQ3wYNEPZMY3fKrYECAwEAAaOBojCBnzAJ
BgNVHRMEAjAAMB0GA1UdDgQWBBSKnMBjJH/vmxbvEEcy3dkvcgxoJzBRBgNVHSME
SjBIgBTkVJaI09iJ2PqPk2pM2GeIaqd4maEapBgwFjEUMBIGA1UEAwwLdGVhbTIx
NS1uZXSCFFhq7HBGHOHPp/DyodcL0QJrUYgQMBMGA1UdJQQMMAoGCCsGAQUFBwMC
MAsGA1UdDwQEAwIHgDANBgkqhkiG9w0BAQsFAAOCAQEAZ7d0v0Q7+HH0Ra+ekDUo
NOQRx4SQnrw7Y7/LTF5NQI2cjhbgOuGvTPJC4ejMfMoLzkybAya/HyumYi8gQrh6
6Ttqvr6CyVv9D/a4RG6om79BTYbrJybFTObQShxx3SLiu3V8jMPJebhXapmlsw+x
pIocdd4ott2/wOD7xSq9SXkLOsadEjNpPFDYCrbg2SOQth0JWUjxg4vreqy9n+B6
2VCpxwwr6Z4aThPPPgDVm6P7s015mXjggrjSsmUd7UpNnt/s6DlrxanXcUJqnw5P
S9momkbQrQrjxsjeaOwD8/zzrSmhDEqCJJyXhvoP/Cqm+cpe3i40F9b7zFIW/Fn/
/g==
-----END CERTIFICATE-----
