Certificate:
    Data:
        Version: 3 (0x2)
        Serial Number:
            f5:f2:75:5d:34:ab:b1:b2:da:13:8c:89:ed:fd:b3:89
        Signature Algorithm: sha256WithRSAEncryption
        Issuer: CN=team215-net
        Validity
            Not Before: May 18 19:09:22 2022 GMT
            Not After : May  2 19:09:22 2025 GMT
        Subject: CN=team215-server
        Subject Public Key Info:
            Public Key Algorithm: rsaEncryption
                RSA Public-Key: (2048 bit)
                Modulus:
                    00:cc:33:76:e5:9c:57:83:90:dc:22:fc:af:f8:2f:
                    ba:57:2e:5c:1a:44:71:ef:00:cd:0e:50:4a:4d:4e:
                    55:9a:46:bf:95:60:f5:c6:ee:ba:63:52:3a:60:4f:
                    02:0c:cd:df:f1:85:00:55:ee:19:1a:09:75:0b:ce:
                    30:84:5d:02:c0:08:9e:e6:31:3d:df:98:08:68:71:
                    dd:d7:ec:7c:c0:4d:ae:5f:5b:93:40:7b:43:22:a3:
                    52:00:1c:08:3b:1e:60:2a:6d:04:22:ee:1f:dd:ce:
                    8f:d1:3f:17:3a:f6:30:b5:db:6b:8e:66:b5:cd:c1:
                    4b:e1:aa:0f:50:76:4d:41:5d:76:24:88:a3:29:a4:
                    af:39:2f:e3:a5:05:57:a5:ca:12:f9:9f:14:34:ea:
                    86:60:25:c4:9f:1f:42:53:6e:e1:06:e6:d7:82:44:
                    a5:40:1f:ce:29:66:cd:f8:48:6d:8f:dd:fc:24:ee:
                    38:17:35:cb:88:b4:b3:83:41:6f:63:f6:ac:2b:1f:
                    79:a9:00:36:a3:c7:3f:cf:8f:1f:72:ed:b6:12:76:
                    d5:c4:5c:17:1e:4f:64:e6:24:18:76:1f:c0:7c:48:
                    87:08:19:ab:59:0f:d4:66:b6:21:48:a8:b6:85:a5:
                    88:b8:f1:c9:a0:8f:05:a5:6f:4a:94:9c:8c:b7:96:
                    6a:d5
                Exponent: 65537 (0x10001)
        X509v3 extensions:
            X509v3 Basic Constraints: 
                CA:FALSE
            X509v3 Subject Key Identifier: 
                6C:E3:CB:F7:E9:85:9C:A6:00:9B:50:58:8F:BB:F6:C1:74:74:E3:9C
            X509v3 Authority Key Identifier: 
                keyid:E4:54:96:88:D3:D8:89:D8:FA:8F:93:6A:4C:D8:67:88:6A:A7:78:99
                DirName:/CN=team215-net
                serial:58:6A:EC:70:46:1C:E1:CF:A7:F0:F2:A1:D7:0B:D1:02:6B:51:88:10

            X509v3 Extended Key Usage: 
                TLS Web Server Authentication
            X509v3 Key Usage: 
                Digital Signature, Key Encipherment
            X509v3 Subject Alternative Name: 
                DNS:team215-server
    Signature Algorithm: sha256WithRSAEncryption
         69:c7:c6:09:02:65:93:f9:2b:d5:1d:ba:93:a7:93:03:2b:07:
         90:a0:4e:b8:7e:c1:e6:e4:00:24:c4:e1:ee:a0:f7:dd:f3:8d:
         db:60:ca:33:99:9b:31:09:99:6d:99:81:74:93:dd:aa:d6:9a:
         03:ed:87:5c:92:d5:e6:b9:94:91:48:eb:99:e7:ae:35:60:80:
         2b:81:a9:b2:36:dc:a9:13:01:1d:cf:6c:cd:16:16:38:b3:50:
         4c:0a:94:c7:52:b7:40:75:cf:42:82:fa:5d:c8:0f:ed:1e:83:
         9e:3a:98:08:15:2b:8c:cc:98:9e:c2:cf:82:e0:b8:ed:80:05:
         16:de:46:0e:6c:a3:0a:7b:47:52:88:a5:23:3e:fc:8f:17:6b:
         8d:37:a7:2e:0e:26:ed:42:24:fd:ed:32:38:93:05:4e:d7:84:
         7d:8f:8a:8d:98:f3:15:24:b8:61:3e:73:01:63:1a:8c:8c:05:
         04:24:cc:08:87:f6:6e:80:0f:26:f3:6b:79:b6:71:6c:d9:51:
         11:4f:8e:a0:bd:8b:e9:c3:68:33:eb:4e:b1:c5:6e:72:a7:81:
         39:3e:02:dc:c6:e8:06:5f:56:e1:ee:a6:58:aa:b0:55:ac:a9:
         0d:5c:da:c3:50:76:09:ab:5b:59:c7:da:d0:f4:a6:4f:56:f4:
         78:16:71:7c
-----BEGIN CERTIFICATE-----
MIIDeDCCAmCgAwIBAgIRAPXydV00q7Gy2hOMie39s4kwDQYJKoZIhvcNAQELBQAw
FjEUMBIGA1UEAwwLdGVhbTIxNS1uZXQwHhcNMjIwNTE4MTkwOTIyWhcNMjUwNTAy
MTkwOTIyWjAZMRcwFQYDVQQDDA50ZWFtMjE1LXNlcnZlcjCCASIwDQYJKoZIhvcN
AQEBBQADggEPADCCAQoCggEBAMwzduWcV4OQ3CL8r/gvulcuXBpEce8AzQ5QSk1O
VZpGv5Vg9cbuumNSOmBPAgzN3/GFAFXuGRoJdQvOMIRdAsAInuYxPd+YCGhx3dfs
fMBNrl9bk0B7QyKjUgAcCDseYCptBCLuH93Oj9E/Fzr2MLXba45mtc3BS+GqD1B2
TUFddiSIoymkrzkv46UFV6XKEvmfFDTqhmAlxJ8fQlNu4Qbm14JEpUAfzilmzfhI
bY/d/CTuOBc1y4i0s4NBb2P2rCsfeakANqPHP8+PH3LtthJ21cRcFx5PZOYkGHYf
wHxIhwgZq1kP1Ga2IUiotoWliLjxyaCPBaVvSpScjLeWatUCAwEAAaOBvTCBujAJ
BgNVHRMEAjAAMB0GA1UdDgQWBBRs48v36YWcpgCbUFiPu/bBdHTjnDBRBgNVHSME
SjBIgBTkVJaI09iJ2PqPk2pM2GeIaqd4maEapBgwFjEUMBIGA1UEAwwLdGVhbTIx
NS1uZXSCFFhq7HBGHOHPp/DyodcL0QJrUYgQMBMGA1UdJQQMMAoGCCsGAQUFBwMB
MAsGA1UdDwQEAwIFoDAZBgNVHREEEjAQgg50ZWFtMjE1LXNlcnZlcjANBgkqhkiG
9w0BAQsFAAOCAQEAacfGCQJlk/kr1R26k6eTAysHkKBOuH7B5uQAJMTh7qD33fON
22DKM5mbMQmZbZmBdJPdqtaaA+2HXJLV5rmUkUjrmeeuNWCAK4GpsjbcqRMBHc9s
zRYWOLNQTAqUx1K3QHXPQoL6XcgP7R6DnjqYCBUrjMyYnsLPguC47YAFFt5GDmyj
CntHUoilIz78jxdrjTenLg4m7UIk/e0yOJMFTteEfY+KjZjzFSS4YT5zAWMajIwF
BCTMCIf2boAPJvNrebZxbNlREU+OoL2L6cNoM+tOscVucqeBOT4C3MboBl9W4e6m
WKqwVaypDVzaw1B2CatbWcfa0PSmT1b0eBZxfA==
-----END CERTIFICATE-----
