Certificate:
    Data:
        Version: 3 (0x2)
        Serial Number:
            3a:62:a9:2a:22:2f:78:53:c8:b1:bb:b3:66:eb:e5:a2
        Signature Algorithm: sha256WithRSAEncryption
        Issuer: CN=team647-net
        Validity
            Not Before: May 18 23:02:08 2022 GMT
            Not After : May  2 23:02:08 2025 GMT
        Subject: CN=team647-server
        Subject Public Key Info:
            Public Key Algorithm: rsaEncryption
                RSA Public-Key: (2048 bit)
                Modulus:
                    00:b2:2c:d0:0f:ac:30:b2:a3:55:ba:d6:a2:fa:13:
                    8e:90:a0:1f:4d:c1:d8:22:99:06:36:81:7a:7a:f5:
                    bf:e6:db:13:4f:27:fd:0c:e5:b0:fe:14:16:f1:d6:
                    bb:a9:f7:30:86:df:b6:5d:64:3f:bb:22:97:02:39:
                    5f:57:65:80:75:b8:9e:47:c5:0b:cd:76:a4:61:40:
                    1c:2e:42:b9:8c:07:c8:88:ab:eb:12:89:72:80:82:
                    99:46:33:6c:70:ae:b4:32:1a:ad:53:a8:62:71:31:
                    bb:b7:28:89:f1:8e:5a:af:ca:87:16:84:3c:28:26:
                    fa:d4:02:9a:88:42:ac:57:cc:88:70:ba:82:ab:d0:
                    4e:a4:d4:f9:ea:77:71:5d:84:b5:9c:9b:e4:58:57:
                    e0:ce:de:d7:97:c2:bc:82:34:d2:95:12:c7:4a:f3:
                    c1:9f:38:b2:47:e5:fb:0a:8d:c8:c3:6a:31:10:46:
                    3c:95:79:7c:8a:1f:53:5f:d1:14:9d:02:47:84:a8:
                    d6:10:2b:d5:38:ed:4d:c7:00:62:48:47:f3:3e:35:
                    09:bf:87:7b:8b:1b:71:e1:de:aa:7f:2c:26:21:19:
                    ba:90:ad:0e:e2:1b:c0:07:96:d0:8b:ad:60:2a:40:
                    b3:e7:39:6e:35:72:a8:39:36:be:2a:ba:13:5b:04:
                    70:2f
                Exponent: 65537 (0x10001)
        X509v3 extensions:
            X509v3 Basic Constraints: 
                CA:FALSE
            X509v3 Subject Key Identifier: 
                87:35:5D:7F:EB:E8:0F:02:8A:97:DF:1E:7F:EC:C7:17:00:57:F3:1C
            X509v3 Authority Key Identifier: 
                keyid:E9:13:5E:28:3A:B9:35:22:B5:2A:2E:3F:2D:99:C9:93:AC:31:D7:2A
                DirName:/CN=team647-net
                serial:2B:79:D9:3C:B8:95:76:75:90:55:92:23:6D:23:64:E8:B8:16:F1:F8

            X509v3 Extended Key Usage: 
                TLS Web Server Authentication
            X509v3 Key Usage: 
                Digital Signature, Key Encipherment
            X509v3 Subject Alternative Name: 
                DNS:team647-server
    Signature Algorithm: sha256WithRSAEncryption
         29:3a:43:ae:ec:03:c1:5d:ae:c4:b3:f1:b5:34:27:5b:49:fa:
         ef:b3:b9:9f:2d:e8:67:66:ae:a8:d1:89:7b:a7:70:3d:be:81:
         a7:a6:83:b4:de:96:28:2d:c1:f0:97:ad:39:e6:d4:b8:fc:13:
         98:aa:72:3e:cf:bb:f0:a8:d7:79:cf:8d:c0:46:00:bc:90:93:
         c8:a5:a1:f5:ca:16:87:71:12:63:85:82:67:af:7f:be:97:d2:
         de:7b:65:7b:51:31:8e:b0:f3:54:77:50:91:39:5a:f1:9a:fb:
         35:c5:15:4d:63:85:08:d6:36:dd:b7:05:c0:4c:d0:32:16:a0:
         42:f9:f4:1f:76:36:ce:bb:d1:94:40:4f:bc:14:6e:f6:d0:79:
         56:7a:2b:4b:c3:88:48:08:d4:a4:c2:8a:91:c2:fb:61:2c:a1:
         a6:aa:ef:b5:4a:f0:cb:d7:63:37:15:0a:5b:54:0d:5b:53:12:
         47:83:60:c8:d1:49:5e:f9:bb:c0:1c:9d:bb:8d:06:2d:65:36:
         26:21:3a:5d:6f:01:2b:e0:d6:ff:f9:98:22:a0:d4:5c:75:ec:
         c2:bc:ef:ac:79:cc:40:e7:ff:b9:76:53:20:f1:db:d8:83:70:
         91:f3:8c:ca:53:be:6a:03:cd:e0:d6:60:8c:e2:d1:d0:0e:58:
         eb:59:43:df
-----BEGIN CERTIFICATE-----
MIIDdzCCAl+gAwIBAgIQOmKpKiIveFPIsbuzZuvlojANBgkqhkiG9w0BAQsFADAW
MRQwEgYDVQQDDAt0ZWFtNjQ3LW5ldDAeFw0yMjA1MTgyMzAyMDhaFw0yNTA1MDIy
MzAyMDhaMBkxFzAVBgNVBAMMDnRlYW02NDctc2VydmVyMIIBIjANBgkqhkiG9w0B
AQEFAAOCAQ8AMIIBCgKCAQEAsizQD6wwsqNVutai+hOOkKAfTcHYIpkGNoF6evW/
5tsTTyf9DOWw/hQW8da7qfcwht+2XWQ/uyKXAjlfV2WAdbieR8ULzXakYUAcLkK5
jAfIiKvrEolygIKZRjNscK60MhqtU6hicTG7tyiJ8Y5ar8qHFoQ8KCb61AKaiEKs
V8yIcLqCq9BOpNT56ndxXYS1nJvkWFfgzt7Xl8K8gjTSlRLHSvPBnziyR+X7Co3I
w2oxEEY8lXl8ih9TX9EUnQJHhKjWECvVOO1NxwBiSEfzPjUJv4d7ixtx4d6qfywm
IRm6kK0O4hvAB5bQi61gKkCz5zluNXKoOTa+KroTWwRwLwIDAQABo4G9MIG6MAkG
A1UdEwQCMAAwHQYDVR0OBBYEFIc1XX/r6A8CipffHn/sxxcAV/McMFEGA1UdIwRK
MEiAFOkTXig6uTUitSouPy2ZyZOsMdcqoRqkGDAWMRQwEgYDVQQDDAt0ZWFtNjQ3
LW5ldIIUK3nZPLiVdnWQVZIjbSNk6LgW8fgwEwYDVR0lBAwwCgYIKwYBBQUHAwEw
CwYDVR0PBAQDAgWgMBkGA1UdEQQSMBCCDnRlYW02NDctc2VydmVyMA0GCSqGSIb3
DQEBCwUAA4IBAQApOkOu7APBXa7Es/G1NCdbSfrvs7mfLehnZq6o0Yl7p3A9voGn
poO03pYoLcHwl6055tS4/BOYqnI+z7vwqNd5z43ARgC8kJPIpaH1yhaHcRJjhYJn
r3++l9Lee2V7UTGOsPNUd1CROVrxmvs1xRVNY4UI1jbdtwXATNAyFqBC+fQfdjbO
u9GUQE+8FG720HlWeitLw4hICNSkwoqRwvthLKGmqu+1SvDL12M3FQpbVA1bUxJH
g2DI0Ule+bvAHJ27jQYtZTYmITpdbwEr4Nb/+ZgioNRcdezCvO+secxA5/+5dlMg
8dvYg3CR84zKU75qA83g1mCM4tHQDljrWUPf
-----END CERTIFICATE-----
