Certificate:
    Data:
        Version: 3 (0x2)
        Serial Number:
            a0:32:f0:3d:7a:8a:78:ae:6b:0d:22:75:1e:b5:d8:da
        Signature Algorithm: sha256WithRSAEncryption
        Issuer: CN=team621-net
        Validity
            Not Before: May 18 22:51:34 2022 GMT
            Not After : May  2 22:51:34 2025 GMT
        Subject: CN=team621-client
        Subject Public Key Info:
            Public Key Algorithm: rsaEncryption
                RSA Public-Key: (2048 bit)
                Modulus:
                    00:ce:a1:a6:9a:04:c4:fc:a5:4d:28:f6:e6:d0:6c:
                    4f:16:ac:26:12:fa:65:68:f9:3b:1c:79:f9:e2:48:
                    71:bb:37:fb:49:81:04:88:a7:57:34:a1:c0:86:74:
                    f1:3f:b8:82:46:3f:ba:8c:79:a2:07:b8:97:be:bd:
                    1a:21:86:38:cc:bc:f7:39:f6:98:e6:c5:ea:56:f8:
                    d5:25:5d:42:7f:25:a0:d8:cf:38:07:9f:15:42:e9:
                    6e:ee:fc:42:14:5b:32:2a:c8:6b:bc:2d:6d:0d:4a:
                    88:7f:f6:b7:0a:bc:6c:5c:15:f5:6a:d7:5e:30:c0:
                    e4:66:a0:98:b0:c7:99:4d:06:c1:49:d9:78:ed:9c:
                    15:b0:9c:9d:77:df:ce:13:11:4e:de:90:23:6e:7f:
                    c1:5a:5d:3b:ee:94:fe:d9:4d:02:c3:79:75:88:54:
                    08:22:e7:1d:15:e2:25:b0:cd:a3:b0:77:67:44:21:
                    5b:a7:9f:e0:f5:cf:fb:07:6c:10:8e:4f:8b:96:4b:
                    e5:8d:68:fe:61:92:e2:5b:5d:3e:46:55:f3:7c:61:
                    f6:d3:7e:9d:ed:da:65:16:b4:db:f8:1f:da:a1:75:
                    db:89:2f:f8:dd:93:72:cc:64:4f:fe:21:54:aa:b8:
                    6a:79:d5:2b:f7:69:25:a4:6d:71:4c:4e:1d:5d:6d:
                    82:f1
                Exponent: 65537 (0x10001)
        X509v3 extensions:
            X509v3 Basic Constraints: 
                CA:FALSE
            X509v3 Subject Key Identifier: 
                60:13:C6:68:57:A2:83:FC:DA:59:AB:56:F9:1C:CC:6A:6F:AB:A3:71
            X509v3 Authority Key Identifier: 
                keyid:63:85:F1:66:CD:F2:89:B6:F4:DC:77:62:8F:81:3C:8F:C4:B1:85:29
                DirName:/CN=team621-net
                serial:7D:62:E7:AE:BE:06:8B:68:0F:DF:56:67:8D:52:B7:EF:2B:87:7D:E1

            X509v3 Extended Key Usage: 
                TLS Web Client Authentication
            X509v3 Key Usage: 
                Digital Signature
    Signature Algorithm: sha256WithRSAEncryption
         56:18:15:1f:3f:4d:e5:74:36:88:d8:99:44:ee:b3:5b:83:7f:
         61:f5:11:5c:03:04:c5:a4:40:8c:82:f4:33:b9:c3:8c:55:a0:
         13:a4:bf:2c:b2:da:4e:81:1e:56:fd:dc:82:c2:1a:86:be:74:
         03:d3:27:06:98:7b:16:00:e8:a1:a9:c5:6a:53:ee:bf:ae:45:
         f0:02:51:e9:ed:3f:9b:59:5f:45:a2:e6:78:ad:a7:e7:b1:60:
         a5:f9:8d:73:8e:97:61:5e:18:bd:2a:9c:6f:79:96:29:ed:0e:
         c8:63:01:06:ba:3f:b1:bf:34:c3:08:6a:e6:af:df:ca:5e:7e:
         b3:37:b0:a6:f5:2f:c6:68:a3:26:e1:46:95:d3:86:6d:71:79:
         8e:8e:9e:9e:5c:71:c8:28:8f:21:78:cb:09:4f:fa:3b:03:f4:
         25:2a:85:1b:de:b9:1a:4c:5f:49:3f:82:98:40:fb:a4:58:7d:
         89:da:b0:c8:12:5c:fc:97:7a:11:17:eb:b2:8c:9d:6d:94:d9:
         4c:81:28:c3:88:f2:c4:20:59:44:18:61:ea:3e:a8:f0:74:99:
         db:58:3e:73:71:63:ac:86:cf:d0:5c:38:b8:af:02:52:5e:8b:
         c5:e6:be:ba:b3:91:7c:2d:4f:a8:83:ba:9c:9d:48:9e:0f:bc:
         9c:4d:49:0e
-----BEGIN CERTIFICATE-----
MIIDXTCCAkWgAwIBAgIRAKAy8D16iniuaw0idR612NowDQYJKoZIhvcNAQELBQAw
FjEUMBIGA1UEAwwLdGVhbTYyMS1uZXQwHhcNMjIwNTE4MjI1MTM0WhcNMjUwNTAy
MjI1MTM0WjAZMRcwFQYDVQQDDA50ZWFtNjIxLWNsaWVudDCCASIwDQYJKoZIhvcN
AQEBBQADggEPADCCAQoCggEBAM6hppoExPylTSj25tBsTxasJhL6ZWj5Oxx5+eJI
cbs3+0mBBIinVzShwIZ08T+4gkY/uox5oge4l769GiGGOMy89zn2mObF6lb41SVd
Qn8loNjPOAefFULpbu78QhRbMirIa7wtbQ1KiH/2twq8bFwV9WrXXjDA5GagmLDH
mU0GwUnZeO2cFbCcnXffzhMRTt6QI25/wVpdO+6U/tlNAsN5dYhUCCLnHRXiJbDN
o7B3Z0QhW6ef4PXP+wdsEI5Pi5ZL5Y1o/mGS4ltdPkZV83xh9tN+ne3aZRa02/gf
2qF124kv+N2TcsxkT/4hVKq4annVK/dpJaRtcUxOHV1tgvECAwEAAaOBojCBnzAJ
BgNVHRMEAjAAMB0GA1UdDgQWBBRgE8ZoV6KD/NpZq1b5HMxqb6ujcTBRBgNVHSME
SjBIgBRjhfFmzfKJtvTcd2KPgTyPxLGFKaEapBgwFjEUMBIGA1UEAwwLdGVhbTYy
MS1uZXSCFH1i566+BotoD99WZ41St+8rh33hMBMGA1UdJQQMMAoGCCsGAQUFBwMC
MAsGA1UdDwQEAwIHgDANBgkqhkiG9w0BAQsFAAOCAQEAVhgVHz9N5XQ2iNiZRO6z
W4N/YfURXAMExaRAjIL0M7nDjFWgE6S/LLLaToEeVv3cgsIahr50A9MnBph7FgDo
oanFalPuv65F8AJR6e0/m1lfRaLmeK2n57FgpfmNc46XYV4YvSqcb3mWKe0OyGMB
Bro/sb80wwhq5q/fyl5+szewpvUvxmijJuFGldOGbXF5jo6enlxxyCiPIXjLCU/6
OwP0JSqFG965GkxfST+CmED7pFh9idqwyBJc/Jd6ERfrsoydbZTZTIEow4jyxCBZ
RBhh6j6o8HSZ21g+c3FjrIbP0Fw4uK8CUl6Lxea+urORfC1PqIO6nJ1Ing+8nE1J
Dg==
-----END CERTIFICATE-----
