Certificate:
    Data:
        Version: 3 (0x2)
        Serial Number:
            9e:79:81:5c:c8:0b:56:c1:45:70:56:89:07:98:ba:25
        Signature Algorithm: sha256WithRSAEncryption
        Issuer: CN=team78-net
        Validity
            Not Before: May 18 14:36:33 2022 GMT
            Not After : May  2 14:36:33 2025 GMT
        Subject: CN=team78-client
        Subject Public Key Info:
            Public Key Algorithm: rsaEncryption
                RSA Public-Key: (2048 bit)
                Modulus:
                    00:dd:a5:7f:2d:02:0a:b2:cb:20:dc:61:f5:57:92:
                    f0:82:41:c9:dc:f8:0c:d8:c1:82:02:48:aa:86:15:
                    8c:8f:5a:7f:26:32:a6:c1:f1:1a:9b:e4:05:31:23:
                    4f:35:4d:66:c7:72:91:d4:b2:fc:52:e0:08:b8:bf:
                    e3:be:54:8c:f5:e3:c2:f2:64:af:ff:27:f0:1c:7f:
                    25:46:c5:a3:ff:0d:79:ad:a6:15:b4:33:85:b9:d6:
                    47:e7:d1:aa:b0:5b:9f:bc:21:3a:da:a9:6e:86:69:
                    01:92:14:b4:22:34:ed:0e:00:d5:16:c6:0e:f0:2e:
                    1f:09:df:20:72:85:22:d4:4e:71:f3:b5:73:3a:df:
                    f3:f6:68:8d:cc:45:48:de:29:d5:f6:f6:04:68:cf:
                    df:9d:6f:ae:cf:70:61:85:38:42:41:71:f3:76:e6:
                    5f:f2:03:04:63:59:1d:2a:44:82:8f:38:20:33:42:
                    ef:29:9d:d0:b7:68:2b:20:4a:9d:50:f0:ac:e4:48:
                    09:1b:61:0e:55:13:96:ee:15:26:6d:38:be:16:66:
                    04:46:66:4b:98:39:a3:62:1c:2d:11:63:48:4b:14:
                    c3:40:95:0d:32:68:21:c2:81:7f:37:7a:44:e1:c2:
                    c2:9f:b8:4b:d1:fa:1f:d6:09:7a:35:48:7f:c8:99:
                    da:03
                Exponent: 65537 (0x10001)
        X509v3 extensions:
            X509v3 Basic Constraints: 
                CA:FALSE
            X509v3 Subject Key Identifier: 
                BA:DF:6F:42:5F:90:2A:03:DF:E7:13:33:1B:E1:B2:F1:95:4E:A5:E0
            X509v3 Authority Key Identifier: 
                keyid:B6:80:AC:02:18:98:6F:15:19:4B:75:D6:CE:70:1A:5E:DF:8A:F0:47
                DirName:/CN=team78-net
                serial:77:D3:11:B7:D1:07:CA:1A:78:CF:2F:3E:63:E0:44:81:D8:EC:F9:93

            X509v3 Extended Key Usage: 
                TLS Web Client Authentication
            X509v3 Key Usage: 
                Digital Signature
    Signature Algorithm: sha256WithRSAEncryption
         c0:3c:c1:e6:08:20:ae:aa:c7:2f:e1:5a:b2:bd:7a:f3:9a:9b:
         43:43:bf:65:23:b9:51:ee:a2:ce:93:b6:a3:1b:83:4a:9f:61:
         75:fa:bb:72:32:28:30:c3:50:14:76:72:e1:66:e8:9e:d5:e9:
         ae:69:33:78:98:0b:5a:dd:5a:2c:32:53:d5:b4:f3:41:5a:30:
         ea:7c:b0:97:c5:09:29:12:26:63:35:8c:0c:40:eb:ff:23:36:
         1c:e7:7d:2a:46:e4:49:09:69:f7:2c:20:17:c4:84:b8:ba:79:
         79:7d:8d:96:02:25:e3:06:83:30:82:e9:38:0c:00:b5:96:56:
         12:24:07:83:31:f6:3c:cc:a8:49:68:d8:fa:54:36:fe:cc:d6:
         da:b7:ae:de:7b:8c:80:94:db:20:f1:9f:86:76:93:aa:17:2f:
         c3:3b:95:6c:32:2f:ae:2d:51:11:99:f7:0f:10:38:7d:b6:73:
         59:48:cc:50:1d:c4:a1:60:26:cb:69:3b:7d:57:f1:d2:b8:ff:
         4d:7a:a9:05:d3:2d:cb:ff:aa:47:21:02:c1:0f:e9:2d:3f:19:
         dd:07:de:33:47:03:a6:5c:15:a6:2f:fa:0c:79:69:1c:be:7a:
         24:cf:26:ee:00:23:1e:ba:7f:9f:85:d9:b1:c6:7e:30:2f:a8:
         28:5b:c5:2d
-----BEGIN CERTIFICATE-----
MIIDWjCCAkKgAwIBAgIRAJ55gVzIC1bBRXBWiQeYuiUwDQYJKoZIhvcNAQELBQAw
FTETMBEGA1UEAwwKdGVhbTc4LW5ldDAeFw0yMjA1MTgxNDM2MzNaFw0yNTA1MDIx
NDM2MzNaMBgxFjAUBgNVBAMMDXRlYW03OC1jbGllbnQwggEiMA0GCSqGSIb3DQEB
AQUAA4IBDwAwggEKAoIBAQDdpX8tAgqyyyDcYfVXkvCCQcnc+AzYwYICSKqGFYyP
Wn8mMqbB8Rqb5AUxI081TWbHcpHUsvxS4Ai4v+O+VIz148LyZK//J/AcfyVGxaP/
DXmtphW0M4W51kfn0aqwW5+8ITraqW6GaQGSFLQiNO0OANUWxg7wLh8J3yByhSLU
TnHztXM63/P2aI3MRUjeKdX29gRoz9+db67PcGGFOEJBcfN25l/yAwRjWR0qRIKP
OCAzQu8pndC3aCsgSp1Q8KzkSAkbYQ5VE5buFSZtOL4WZgRGZkuYOaNiHC0RY0hL
FMNAlQ0yaCHCgX83ekThwsKfuEvR+h/WCXo1SH/ImdoDAgMBAAGjgaEwgZ4wCQYD
VR0TBAIwADAdBgNVHQ4EFgQUut9vQl+QKgPf5xMzG+Gy8ZVOpeAwUAYDVR0jBEkw
R4AUtoCsAhiYbxUZS3XWznAaXt+K8EehGaQXMBUxEzARBgNVBAMMCnRlYW03OC1u
ZXSCFHfTEbfRB8oaeM8vPmPgRIHY7PmTMBMGA1UdJQQMMAoGCCsGAQUFBwMCMAsG
A1UdDwQEAwIHgDANBgkqhkiG9w0BAQsFAAOCAQEAwDzB5gggrqrHL+Fasr1685qb
Q0O/ZSO5Ue6izpO2oxuDSp9hdfq7cjIoMMNQFHZy4WbontXprmkzeJgLWt1aLDJT
1bTzQVow6nywl8UJKRImYzWMDEDr/yM2HOd9KkbkSQlp9ywgF8SEuLp5eX2NlgIl
4waDMILpOAwAtZZWEiQHgzH2PMyoSWjY+lQ2/szW2reu3nuMgJTbIPGfhnaTqhcv
wzuVbDIvri1REZn3DxA4fbZzWUjMUB3EoWAmy2k7fVfx0rj/TXqpBdMty/+qRyEC
wQ/pLT8Z3QfeM0cDplwVpi/6DHlpHL56JM8m7gAjHrp/n4XZscZ+MC+oKFvFLQ==
-----END CERTIFICATE-----
