Certificate:
    Data:
        Version: 3 (0x2)
        Serial Number:
            59:f6:8e:37:1b:4b:07:79:41:58:6b:db:ec:d2:33:ed
        Signature Algorithm: sha256WithRSAEncryption
        Issuer: CN=team750-net
        Validity
            Not Before: May 19 00:04:28 2022 GMT
            Not After : May  3 00:04:28 2025 GMT
        Subject: CN=team750-client
        Subject Public Key Info:
            Public Key Algorithm: rsaEncryption
                RSA Public-Key: (2048 bit)
                Modulus:
                    00:9f:ca:03:8b:d3:98:a5:51:e8:1a:c3:c3:32:45:
                    a8:04:55:d4:25:f3:1e:48:e1:fa:0b:8f:16:8c:97:
                    ee:b6:79:76:9a:d7:8d:80:86:b0:14:26:d6:1b:35:
                    65:86:b7:8a:a8:c3:21:fa:a8:18:2b:1a:28:54:df:
                    38:8e:43:b5:d8:a4:f5:4f:26:a6:88:ff:88:b1:e2:
                    c1:2a:db:a8:55:22:81:dc:5a:86:0d:1f:0e:30:cd:
                    b0:eb:5f:67:67:fa:fc:e1:60:54:99:ac:ff:22:80:
                    5a:33:b4:c8:e5:1d:87:88:80:c1:68:de:e8:31:95:
                    9c:b9:f6:e4:02:d1:11:a7:6a:86:49:ca:c4:c1:1f:
                    0e:af:3a:b2:6a:0d:1f:e1:02:4d:9e:aa:10:19:97:
                    e0:71:ff:7b:97:8a:4c:d5:5b:68:f6:28:d7:32:8e:
                    25:d6:8e:5d:b7:ee:c6:7d:13:38:dd:a5:0d:79:85:
                    79:0e:bb:70:9c:21:c6:55:d2:a2:13:91:39:a4:0b:
                    08:bd:52:4e:b7:98:80:fe:c1:20:c3:93:11:bc:9d:
                    51:1e:11:d1:e7:a9:7f:38:f5:ae:87:cc:fe:91:2f:
                    42:18:5f:5d:00:06:0b:d4:56:e1:68:15:c1:b5:db:
                    46:d6:01:cf:82:4f:88:8f:5d:52:0d:f1:a9:5f:4e:
                    0b:6d
                Exponent: 65537 (0x10001)
        X509v3 extensions:
            X509v3 Basic Constraints: 
                CA:FALSE
            X509v3 Subject Key Identifier: 
                E1:93:94:E8:EC:1F:54:86:88:72:85:C1:4E:26:2A:CE:DD:C1:99:EC
            X509v3 Authority Key Identifier: 
                keyid:71:B4:A7:21:1F:B1:5A:05:D3:D2:8A:12:76:6F:07:A9:BE:A1:7D:D6
                DirName:/CN=team750-net
                serial:09:BF:6A:C4:54:36:D5:7A:BF:1E:DD:5C:81:20:26:F4:4B:EB:E8:3B

            X509v3 Extended Key Usage: 
                TLS Web Client Authentication
            X509v3 Key Usage: 
                Digital Signature
    Signature Algorithm: sha256WithRSAEncryption
         51:51:3f:fc:81:26:33:c0:ed:8c:9d:b6:49:62:b7:79:2c:70:
         47:f0:2b:bc:99:7b:61:5d:d7:bd:3e:ab:17:a6:37:31:e7:7c:
         00:86:6b:ac:e2:72:1c:f9:2d:12:21:11:19:7d:61:06:10:bb:
         79:e8:f6:4c:48:b8:ab:3c:b1:fe:0f:a4:b6:88:7f:55:1c:3e:
         e9:05:b6:6f:8c:30:4f:6e:ff:e1:ed:b7:d8:75:65:8e:4e:87:
         8e:5d:33:55:e3:e0:27:01:fd:66:db:89:64:a3:8d:ab:99:f3:
         0f:9a:b4:39:80:c7:fd:e0:a3:63:d8:fc:41:1e:d8:20:4d:e5:
         f9:ec:7a:8e:b3:a0:b7:f0:20:86:a4:dc:b2:69:64:81:6d:cc:
         60:5e:60:df:50:f6:9e:5b:79:25:8a:78:5c:5f:b9:18:9c:a8:
         50:dd:db:c2:fb:c0:00:db:6c:7a:2d:6d:d3:95:28:44:dc:70:
         ff:21:0c:17:09:b7:c9:6c:a7:4c:bc:b2:a5:11:a4:5c:19:d9:
         ee:e5:69:85:ce:7c:c7:f3:e3:0e:28:90:c6:b9:92:eb:9c:0f:
         b6:05:17:bf:1b:b9:4e:12:e7:56:70:84:51:b6:db:a0:0c:5c:
         10:c8:85:75:fb:04:c3:6a:1f:1c:2a:55:cb:98:b3:8a:e8:06:
         5f:f9:a0:d0
-----BEGIN CERTIFICATE-----
MIIDXDCCAkSgAwIBAgIQWfaONxtLB3lBWGvb7NIz7TANBgkqhkiG9w0BAQsFADAW
MRQwEgYDVQQDDAt0ZWFtNzUwLW5ldDAeFw0yMjA1MTkwMDA0MjhaFw0yNTA1MDMw
MDA0MjhaMBkxFzAVBgNVBAMMDnRlYW03NTAtY2xpZW50MIIBIjANBgkqhkiG9w0B
AQEFAAOCAQ8AMIIBCgKCAQEAn8oDi9OYpVHoGsPDMkWoBFXUJfMeSOH6C48WjJfu
tnl2mteNgIawFCbWGzVlhreKqMMh+qgYKxooVN84jkO12KT1TyamiP+IseLBKtuo
VSKB3FqGDR8OMM2w619nZ/r84WBUmaz/IoBaM7TI5R2HiIDBaN7oMZWcufbkAtER
p2qGScrEwR8Orzqyag0f4QJNnqoQGZfgcf97l4pM1Vto9ijXMo4l1o5dt+7GfRM4
3aUNeYV5DrtwnCHGVdKiE5E5pAsIvVJOt5iA/sEgw5MRvJ1RHhHR56l/OPWuh8z+
kS9CGF9dAAYL1FbhaBXBtdtG1gHPgk+Ij11SDfGpX04LbQIDAQABo4GiMIGfMAkG
A1UdEwQCMAAwHQYDVR0OBBYEFOGTlOjsH1SGiHKFwU4mKs7dwZnsMFEGA1UdIwRK
MEiAFHG0pyEfsVoF09KKEnZvB6m+oX3WoRqkGDAWMRQwEgYDVQQDDAt0ZWFtNzUw
LW5ldIIUCb9qxFQ21Xq/Ht1cgSAm9Evr6DswEwYDVR0lBAwwCgYIKwYBBQUHAwIw
CwYDVR0PBAQDAgeAMA0GCSqGSIb3DQEBCwUAA4IBAQBRUT/8gSYzwO2MnbZJYrd5
LHBH8Cu8mXthXde9PqsXpjcx53wAhmus4nIc+S0SIREZfWEGELt56PZMSLirPLH+
D6S2iH9VHD7pBbZvjDBPbv/h7bfYdWWOToeOXTNV4+AnAf1m24lko42rmfMPmrQ5
gMf94KNj2PxBHtggTeX57HqOs6C38CCGpNyyaWSBbcxgXmDfUPaeW3klinhcX7kY
nKhQ3dvC+8AA22x6LW3TlShE3HD/IQwXCbfJbKdMvLKlEaRcGdnu5WmFznzH8+MO
KJDGuZLrnA+2BRe/G7lOEudWcIRRttugDFwQyIV1+wTDah8cKlXLmLOK6AZf+aDQ
-----END CERTIFICATE-----
