Certificate:
    Data:
        Version: 3 (0x2)
        Serial Number:
            a2:48:b9:76:1c:9c:6f:2e:11:c7:55:2f:ad:86:f0:2e
        Signature Algorithm: sha256WithRSAEncryption
        Issuer: CN=team71-net
        Validity
            Not Before: May 18 14:30:18 2022 GMT
            Not After : May  2 14:30:18 2025 GMT
        Subject: CN=team71-client
        Subject Public Key Info:
            Public Key Algorithm: rsaEncryption
                RSA Public-Key: (2048 bit)
                Modulus:
                    00:e2:ae:38:04:e4:e5:84:d0:3b:43:00:83:d9:ca:
                    93:8b:99:a9:d5:cb:79:7f:44:e1:ef:be:ea:86:5a:
                    f6:72:aa:67:0e:a0:32:02:d5:08:e0:21:35:9f:49:
                    22:60:80:62:59:43:7b:ad:96:81:15:33:e2:72:8e:
                    62:67:2c:5c:d1:56:7e:62:ec:6e:ba:dd:c2:9f:6e:
                    6e:33:0b:32:db:65:5a:98:8a:f0:ea:53:90:1f:00:
                    1d:cd:fc:4f:40:70:3f:b8:bb:29:4d:4a:93:72:ec:
                    4f:08:56:60:76:7b:f2:29:93:1f:9f:a4:1a:c2:8d:
                    2d:1c:ed:81:4f:f8:6e:d8:0d:7e:20:8a:0b:85:6c:
                    3d:b5:fe:10:f2:32:8e:80:3d:7d:4a:94:6e:8e:ef:
                    6c:a7:a5:28:60:fd:e1:8a:a5:98:de:c7:6b:52:18:
                    36:21:e3:ce:18:78:12:d0:1e:4f:75:27:92:cc:36:
                    4f:01:f5:f1:06:b7:12:68:3d:1b:87:25:f8:20:7a:
                    e5:3d:a5:c4:2d:a5:0d:29:07:e0:a0:a3:84:e1:fe:
                    63:d3:4a:6c:71:78:8e:b8:62:df:a5:ee:0a:d0:87:
                    df:a4:7d:72:f2:3f:03:80:3c:91:af:ca:0f:5b:23:
                    0a:01:80:f7:a3:e4:a4:5d:c1:e7:b3:b8:72:ee:8a:
                    f2:5f
                Exponent: 65537 (0x10001)
        X509v3 extensions:
            X509v3 Basic Constraints: 
                CA:FALSE
            X509v3 Subject Key Identifier: 
                73:A0:DB:7D:1B:D2:01:9C:5C:E9:A4:95:B3:34:AD:02:49:DA:95:95
            X509v3 Authority Key Identifier: 
                keyid:26:34:88:F1:4D:30:A5:3A:15:8B:F0:31:52:F7:5E:66:4A:8F:51:74
                DirName:/CN=team71-net
                serial:6A:A5:47:44:CF:B4:19:0A:2B:47:7A:0F:13:14:4C:80:CC:5B:68:17

            X509v3 Extended Key Usage: 
                TLS Web Client Authentication
            X509v3 Key Usage: 
                Digital Signature
    Signature Algorithm: sha256WithRSAEncryption
         42:80:90:c3:33:bf:64:2b:6c:87:1c:a8:c6:ea:97:3b:55:e3:
         b9:56:90:5e:fe:22:7b:f9:e1:cc:c7:36:1b:0c:24:ef:5f:ff:
         59:81:e3:1c:b0:ee:82:d2:19:31:3b:e6:cf:8d:9f:d8:b0:8f:
         ac:46:a0:30:3e:5e:e6:55:92:80:93:d1:5c:a6:70:1d:2b:45:
         7c:2a:47:26:5e:1c:b5:09:5d:81:06:06:91:fb:b8:38:ed:5b:
         1f:eb:44:3e:71:23:40:9f:ba:ac:33:7a:32:e0:88:18:77:5d:
         6d:64:c9:c5:4d:2c:8e:cb:ee:4a:a3:ea:35:19:4b:a9:42:d1:
         e3:e9:26:c2:7f:95:5c:52:a4:e8:2f:4b:91:a5:70:dd:5f:b2:
         a7:6b:7a:4e:20:e5:06:f6:40:ba:b8:e5:cf:72:a3:6a:ff:af:
         79:dd:87:22:a7:cb:94:7a:15:8c:86:a3:b3:cb:c6:d6:c7:61:
         3e:42:55:44:88:29:40:a5:4e:32:c1:2a:30:46:2f:a1:43:d0:
         27:e5:06:e8:a7:b1:ac:49:2f:93:3a:b7:bb:4f:c2:61:d1:91:
         5b:b5:ae:84:75:df:16:bd:2b:2d:45:76:f8:06:7b:ca:23:43:
         9a:c9:20:e5:55:b8:d3:86:7d:be:a9:f4:02:c4:f4:21:7a:47:
         12:9f:b2:f1
-----BEGIN CERTIFICATE-----
MIIDWjCCAkKgAwIBAgIRAKJIuXYcnG8uEcdVL62G8C4wDQYJKoZIhvcNAQELBQAw
FTETMBEGA1UEAwwKdGVhbTcxLW5ldDAeFw0yMjA1MTgxNDMwMThaFw0yNTA1MDIx
NDMwMThaMBgxFjAUBgNVBAMMDXRlYW03MS1jbGllbnQwggEiMA0GCSqGSIb3DQEB
AQUAA4IBDwAwggEKAoIBAQDirjgE5OWE0DtDAIPZypOLmanVy3l/ROHvvuqGWvZy
qmcOoDIC1QjgITWfSSJggGJZQ3utloEVM+JyjmJnLFzRVn5i7G663cKfbm4zCzLb
ZVqYivDqU5AfAB3N/E9AcD+4uylNSpNy7E8IVmB2e/Ipkx+fpBrCjS0c7YFP+G7Y
DX4giguFbD21/hDyMo6APX1KlG6O72ynpShg/eGKpZjex2tSGDYh484YeBLQHk91
J5LMNk8B9fEGtxJoPRuHJfggeuU9pcQtpQ0pB+Cgo4Th/mPTSmxxeI64Yt+l7grQ
h9+kfXLyPwOAPJGvyg9bIwoBgPej5KRdweezuHLuivJfAgMBAAGjgaEwgZ4wCQYD
VR0TBAIwADAdBgNVHQ4EFgQUc6DbfRvSAZxc6aSVszStAknalZUwUAYDVR0jBEkw
R4AUJjSI8U0wpToVi/AxUvdeZkqPUXShGaQXMBUxEzARBgNVBAMMCnRlYW03MS1u
ZXSCFGqlR0TPtBkKK0d6DxMUTIDMW2gXMBMGA1UdJQQMMAoGCCsGAQUFBwMCMAsG
A1UdDwQEAwIHgDANBgkqhkiG9w0BAQsFAAOCAQEAQoCQwzO/ZCtshxyoxuqXO1Xj
uVaQXv4ie/nhzMc2Gwwk71//WYHjHLDugtIZMTvmz42f2LCPrEagMD5e5lWSgJPR
XKZwHStFfCpHJl4ctQldgQYGkfu4OO1bH+tEPnEjQJ+6rDN6MuCIGHddbWTJxU0s
jsvuSqPqNRlLqULR4+kmwn+VXFKk6C9LkaVw3V+yp2t6TiDlBvZAurjlz3Kjav+v
ed2HIqfLlHoVjIajs8vG1sdhPkJVRIgpQKVOMsEqMEYvoUPQJ+UG6KexrEkvkzq3
u0/CYdGRW7WuhHXfFr0rLUV2+AZ7yiNDmskg5VW404Z9vqn0AsT0IXpHEp+y8Q==
-----END CERTIFICATE-----
