Certificate:
    Data:
        Version: 3 (0x2)
        Serial Number:
            2d:de:3d:99:ed:97:f2:45:d1:8f:9a:4d:c7:c3:f0:71
        Signature Algorithm: sha256WithRSAEncryption
        Issuer: CN=team150-net
        Validity
            Not Before: May 18 18:40:55 2022 GMT
            Not After : May  2 18:40:55 2025 GMT
        Subject: CN=team150-client
        Subject Public Key Info:
            Public Key Algorithm: rsaEncryption
                RSA Public-Key: (2048 bit)
                Modulus:
                    00:ad:f6:4c:b1:2a:7c:1d:86:6f:d9:5f:36:3f:89:
                    7b:db:44:04:d1:60:e6:bd:ad:bc:07:bf:1c:b4:d9:
                    e7:98:6b:d1:43:6c:a7:2f:cb:a3:b1:e4:64:b8:1d:
                    84:9e:ca:bf:e3:ba:35:5d:47:4d:b0:bb:3f:f0:0d:
                    aa:eb:00:86:0f:f4:af:a5:b5:12:bc:a2:f9:c3:4c:
                    86:46:4c:06:ea:e7:17:83:ed:b2:20:ed:8c:81:fd:
                    57:dd:a3:50:bd:50:c9:b1:b7:d1:80:38:d1:f6:65:
                    a1:eb:57:2c:d2:95:ac:9a:0d:8f:d6:70:da:24:56:
                    cb:30:5f:a9:fb:b7:65:66:0a:48:77:3f:cf:4f:60:
                    f2:7d:75:9a:fc:3d:f1:b2:de:c8:27:c4:ec:ac:af:
                    b1:97:71:1e:60:e3:12:e4:10:43:15:8c:b6:be:72:
                    69:52:44:7d:9e:49:1f:c5:8b:33:87:c5:8a:18:1f:
                    22:28:43:ee:f0:0c:e7:f2:51:64:ca:ec:24:f1:2d:
                    8b:e7:fe:0c:45:37:5b:d6:19:02:37:1c:32:ca:79:
                    a3:b6:2c:84:5c:04:09:f5:7f:d5:dd:6a:07:69:ef:
                    6c:65:8c:9d:63:b4:1e:f3:29:08:c9:e0:34:6d:4c:
                    ec:e5:b3:0e:6d:f7:dc:fe:44:f8:ba:78:19:31:e9:
                    a6:87
                Exponent: 65537 (0x10001)
        X509v3 extensions:
            X509v3 Basic Constraints: 
                CA:FALSE
            X509v3 Subject Key Identifier: 
                EE:0D:A2:0F:20:3D:EE:11:0A:3A:B7:9E:81:67:D2:EB:42:71:1D:02
            X509v3 Authority Key Identifier: 
                keyid:E2:4E:02:4F:FF:3A:D1:25:59:D8:18:93:1D:86:EF:71:0C:D5:A9:33
                DirName:/CN=team150-net
                serial:03:ED:D0:3F:90:11:E0:23:A0:39:8A:4F:CF:D2:C3:AF:E0:81:3D:CC

            X509v3 Extended Key Usage: 
                TLS Web Client Authentication
            X509v3 Key Usage: 
                Digital Signature
    Signature Algorithm: sha256WithRSAEncryption
         bb:6c:20:1d:b5:ea:b6:c1:6a:93:e7:0e:06:47:2d:8a:bc:2c:
         6f:c6:2e:ce:1a:3a:6a:83:8a:0b:0b:46:d9:66:a0:18:82:bd:
         29:17:16:a3:6a:b2:42:bc:9b:c9:46:57:db:85:24:40:40:cd:
         7a:ec:c7:26:46:b1:39:11:bb:d6:50:b6:65:0c:e8:dc:02:fa:
         30:67:82:99:2c:af:d6:ea:1d:d0:96:ec:0f:bf:0d:ff:35:99:
         05:b2:53:7e:eb:bb:e1:de:3b:ca:84:18:3b:27:4a:58:a8:36:
         80:35:61:ac:fb:4a:f1:34:36:14:ba:d7:03:e6:ff:19:39:6e:
         54:e9:19:44:9e:03:e6:fc:25:b4:e9:cf:98:f6:b6:d7:50:9f:
         da:82:0e:93:9f:e9:25:c7:f4:85:82:0c:12:fc:4d:e4:26:c5:
         9c:78:53:5f:22:5e:f8:68:69:36:a4:9a:65:85:25:94:b5:f1:
         b6:ea:8b:00:c1:87:30:85:0d:ec:21:2e:18:58:63:f6:c0:14:
         ec:fe:73:93:e3:ae:f0:86:1c:bb:6a:c1:68:fb:a1:77:75:da:
         9e:7d:28:28:0e:d4:70:2a:06:5d:29:e3:aa:5d:10:c6:80:5e:
         99:8c:17:30:27:6c:9e:5e:05:94:5c:e9:72:58:04:6b:75:e3:
         ff:8c:07:ef
-----BEGIN CERTIFICATE-----
MIIDXDCCAkSgAwIBAgIQLd49me2X8kXRj5pNx8PwcTANBgkqhkiG9w0BAQsFADAW
MRQwEgYDVQQDDAt0ZWFtMTUwLW5ldDAeFw0yMjA1MTgxODQwNTVaFw0yNTA1MDIx
ODQwNTVaMBkxFzAVBgNVBAMMDnRlYW0xNTAtY2xpZW50MIIBIjANBgkqhkiG9w0B
AQEFAAOCAQ8AMIIBCgKCAQEArfZMsSp8HYZv2V82P4l720QE0WDmva28B78ctNnn
mGvRQ2ynL8ujseRkuB2Ensq/47o1XUdNsLs/8A2q6wCGD/SvpbUSvKL5w0yGRkwG
6ucXg+2yIO2Mgf1X3aNQvVDJsbfRgDjR9mWh61cs0pWsmg2P1nDaJFbLMF+p+7dl
ZgpIdz/PT2DyfXWa/D3xst7IJ8TsrK+xl3EeYOMS5BBDFYy2vnJpUkR9nkkfxYsz
h8WKGB8iKEPu8Azn8lFkyuwk8S2L5/4MRTdb1hkCNxwyynmjtiyEXAQJ9X/V3WoH
ae9sZYydY7Qe8ykIyeA0bUzs5bMObffc/kT4ungZMemmhwIDAQABo4GiMIGfMAkG
A1UdEwQCMAAwHQYDVR0OBBYEFO4Nog8gPe4RCjq3noFn0utCcR0CMFEGA1UdIwRK
MEiAFOJOAk//OtElWdgYkx2G73EM1akzoRqkGDAWMRQwEgYDVQQDDAt0ZWFtMTUw
LW5ldIIUA+3QP5AR4COgOYpPz9LDr+CBPcwwEwYDVR0lBAwwCgYIKwYBBQUHAwIw
CwYDVR0PBAQDAgeAMA0GCSqGSIb3DQEBCwUAA4IBAQC7bCAdteq2wWqT5w4GRy2K
vCxvxi7OGjpqg4oLC0bZZqAYgr0pFxajarJCvJvJRlfbhSRAQM167McmRrE5EbvW
ULZlDOjcAvowZ4KZLK/W6h3QluwPvw3/NZkFslN+67vh3jvKhBg7J0pYqDaANWGs
+0rxNDYUutcD5v8ZOW5U6RlEngPm/CW06c+Y9rbXUJ/agg6Tn+klx/SFggwS/E3k
JsWceFNfIl74aGk2pJplhSWUtfG26osAwYcwhQ3sIS4YWGP2wBTs/nOT467whhy7
asFo+6F3ddqefSgoDtRwKgZdKeOqXRDGgF6ZjBcwJ2yeXgWUXOlyWARrdeP/jAfv
-----END CERTIFICATE-----
