Certificate:
    Data:
        Version: 3 (0x2)
        Serial Number:
            2b:34:5e:17:ae:63:98:8c:f0:4e:6f:8a:6f:ea:89:7e
        Signature Algorithm: sha256WithRSAEncryption
        Issuer: CN=team618-net
        Validity
            Not Before: May 18 22:48:55 2022 GMT
            Not After : May  2 22:48:55 2025 GMT
        Subject: CN=team618-client
        Subject Public Key Info:
            Public Key Algorithm: rsaEncryption
                RSA Public-Key: (2048 bit)
                Modulus:
                    00:be:ba:d0:3f:d0:ec:aa:87:47:13:d3:19:00:aa:
                    c4:2d:4e:de:40:79:99:f9:48:70:04:e7:94:7b:7c:
                    75:0e:0c:87:8f:01:0d:61:ee:bc:2f:8b:c6:4e:b8:
                    1e:39:e4:10:8e:53:c1:cb:77:b3:1a:1e:ef:e9:a5:
                    e5:45:36:78:c5:ec:65:8a:73:8a:48:49:ec:58:e4:
                    ae:ba:19:ea:1d:08:fc:29:09:61:7e:b4:6c:04:26:
                    ca:87:f2:06:2b:e1:47:5f:f9:22:7c:39:7e:ad:c0:
                    61:8b:c2:ba:62:47:40:fc:10:9a:e3:30:f5:00:13:
                    17:39:f2:33:5f:14:81:33:50:43:96:80:ad:17:8b:
                    b4:e3:0b:13:b8:69:ba:49:49:a5:52:39:1e:8d:f9:
                    f6:dc:7d:e6:55:14:f7:39:f2:3c:ef:f8:51:c5:37:
                    74:8c:5e:1c:ea:01:a1:d6:6f:f4:ab:c9:35:93:27:
                    17:0b:c3:6f:65:56:a3:3f:8b:ee:3e:9e:16:40:4e:
                    f9:94:42:65:93:b6:38:fe:b8:ef:fb:5b:eb:47:86:
                    73:49:0f:43:a1:b9:90:c9:6e:9a:f0:f8:29:74:53:
                    ed:b1:c0:3b:5a:d5:0f:c5:fb:06:ac:07:37:bd:71:
                    69:a5:e9:d3:04:43:4e:aa:76:d6:6a:55:74:fa:ee:
                    7c:a3
                Exponent: 65537 (0x10001)
        X509v3 extensions:
            X509v3 Basic Constraints: 
                CA:FALSE
            X509v3 Subject Key Identifier: 
                0A:1E:F5:A5:23:17:90:27:60:D5:66:6A:DE:34:E1:52:C5:60:44:31
            X509v3 Authority Key Identifier: 
                keyid:87:A1:1A:F3:33:C5:BB:D7:21:86:4D:03:CE:9F:EC:43:7A:9A:30:CC
                DirName:/CN=team618-net
                serial:50:40:82:12:52:4E:C2:12:B0:3F:B4:72:83:08:D1:B1:F9:34:B9:60

            X509v3 Extended Key Usage: 
                TLS Web Client Authentication
            X509v3 Key Usage: 
                Digital Signature
    Signature Algorithm: sha256WithRSAEncryption
         b7:49:61:24:58:d6:8d:dd:8c:ab:a8:57:4a:1b:ed:fe:fa:68:
         ee:f4:2f:d1:77:49:83:12:67:59:41:8a:ad:f9:3b:9d:ec:c0:
         d8:47:35:cc:9c:3a:03:d0:52:80:ea:47:1e:2b:4f:d0:3d:90:
         32:21:a8:90:8a:52:96:cf:58:e5:ec:e3:4f:96:2d:c4:5e:e3:
         d8:13:73:98:7b:cf:ac:44:19:be:7b:d7:9f:f2:3b:d5:58:2a:
         31:69:ea:20:69:a3:3e:77:95:b4:e4:c9:1e:a1:e6:60:f1:a0:
         9a:ef:5d:5d:f0:6f:b0:93:39:2a:6b:71:ee:b2:7d:48:4b:71:
         50:04:b1:1d:50:74:47:ee:eb:38:34:f9:68:d2:e3:dc:ca:50:
         58:f6:10:e9:d3:0d:6d:c3:89:9a:e8:5b:2a:24:a0:74:ca:29:
         e7:07:90:e3:f4:ac:8e:62:91:a9:45:ff:23:cb:d6:d2:db:74:
         16:14:b3:84:a3:e2:12:b4:37:0d:3f:df:08:f5:21:1c:49:fc:
         2c:f5:fc:8f:ee:a3:c0:38:c6:0a:ec:bf:ef:9f:5a:54:dd:d2:
         e0:94:44:6d:61:08:c4:be:2e:5c:0d:a3:87:f4:9a:2a:3c:3c:
         31:5a:36:b0:2f:bd:60:0d:4b:28:c9:22:7a:c9:52:ee:10:3b:
         d7:31:2d:58
-----BEGIN CERTIFICATE-----
MIIDXDCCAkSgAwIBAgIQKzReF65jmIzwTm+Kb+qJfjANBgkqhkiG9w0BAQsFADAW
MRQwEgYDVQQDDAt0ZWFtNjE4LW5ldDAeFw0yMjA1MTgyMjQ4NTVaFw0yNTA1MDIy
MjQ4NTVaMBkxFzAVBgNVBAMMDnRlYW02MTgtY2xpZW50MIIBIjANBgkqhkiG9w0B
AQEFAAOCAQ8AMIIBCgKCAQEAvrrQP9DsqodHE9MZAKrELU7eQHmZ+UhwBOeUe3x1
DgyHjwENYe68L4vGTrgeOeQQjlPBy3ezGh7v6aXlRTZ4xexlinOKSEnsWOSuuhnq
HQj8KQlhfrRsBCbKh/IGK+FHX/kifDl+rcBhi8K6YkdA/BCa4zD1ABMXOfIzXxSB
M1BDloCtF4u04wsTuGm6SUmlUjkejfn23H3mVRT3OfI87/hRxTd0jF4c6gGh1m/0
q8k1kycXC8NvZVajP4vuPp4WQE75lEJlk7Y4/rjv+1vrR4ZzSQ9DobmQyW6a8Pgp
dFPtscA7WtUPxfsGrAc3vXFppenTBENOqnbWalV0+u58owIDAQABo4GiMIGfMAkG
A1UdEwQCMAAwHQYDVR0OBBYEFAoe9aUjF5AnYNVmat404VLFYEQxMFEGA1UdIwRK
MEiAFIehGvMzxbvXIYZNA86f7EN6mjDMoRqkGDAWMRQwEgYDVQQDDAt0ZWFtNjE4
LW5ldIIUUECCElJOwhKwP7RygwjRsfk0uWAwEwYDVR0lBAwwCgYIKwYBBQUHAwIw
CwYDVR0PBAQDAgeAMA0GCSqGSIb3DQEBCwUAA4IBAQC3SWEkWNaN3YyrqFdKG+3+
+mju9C/Rd0mDEmdZQYqt+Tud7MDYRzXMnDoD0FKA6kceK0/QPZAyIaiQilKWz1jl
7ONPli3EXuPYE3OYe8+sRBm+e9ef8jvVWCoxaeogaaM+d5W05MkeoeZg8aCa711d
8G+wkzkqa3Husn1IS3FQBLEdUHRH7us4NPlo0uPcylBY9hDp0w1tw4ma6FsqJKB0
yinnB5Dj9KyOYpGpRf8jy9bS23QWFLOEo+IStDcNP98I9SEcSfws9fyP7qPAOMYK
7L/vn1pU3dLglERtYQjEvi5cDaOH9JoqPDwxWjawL71gDUsoySJ6yVLuEDvXMS1Y
-----END CERTIFICATE-----
