Certificate:
    Data:
        Version: 3 (0x2)
        Serial Number:
            b0:36:a5:3e:60:97:d7:4d:d9:22:65:03:76:b4:f9:cd
        Signature Algorithm: sha256WithRSAEncryption
        Issuer: CN=team565-net
        Validity
            Not Before: May 18 22:26:28 2022 GMT
            Not After : May  2 22:26:28 2025 GMT
        Subject: CN=team565-client
        Subject Public Key Info:
            Public Key Algorithm: rsaEncryption
                RSA Public-Key: (2048 bit)
                Modulus:
                    00:e1:4e:b8:2b:1c:1e:29:58:99:84:3a:1b:0b:48:
                    cb:cc:2f:ab:60:94:20:b4:4d:e4:2d:3c:92:af:a6:
                    54:c1:dc:06:ad:5c:83:a6:03:2e:ab:d8:15:16:cd:
                    b1:ab:d6:4c:88:41:8b:c7:4b:ab:67:16:b7:ae:b7:
                    ff:78:67:0f:e0:38:ed:8f:74:3b:fb:1d:ac:fc:cd:
                    d9:4d:23:34:34:2a:92:1a:23:74:fb:61:d2:73:5f:
                    45:0e:32:84:c5:fd:50:da:d2:c1:7b:97:11:df:57:
                    23:23:9d:51:de:0f:a5:10:8e:b4:5a:de:5a:7c:87:
                    9b:29:68:dc:ad:fa:2c:b8:ff:5a:25:db:46:44:eb:
                    91:79:0d:b8:6f:39:9c:cd:be:c5:9c:76:06:34:f8:
                    66:04:f5:11:ba:8b:fd:10:7e:63:ab:45:42:ba:79:
                    eb:fe:1b:d4:1b:62:97:67:d7:44:1c:37:7c:12:0e:
                    56:f7:17:4e:df:d2:8c:dc:6c:d1:d9:7f:c5:51:41:
                    5e:0f:4d:96:2c:06:a9:d8:27:1f:a9:1a:82:78:6a:
                    94:89:90:3b:49:d9:09:18:09:fd:6b:75:bf:52:91:
                    af:59:3e:27:f7:3d:f7:ed:78:13:23:ae:3e:f1:6f:
                    4c:65:37:9c:7b:f7:9f:08:fc:7b:dd:89:76:1a:b8:
                    81:2b
                Exponent: 65537 (0x10001)
        X509v3 extensions:
            X509v3 Basic Constraints: 
                CA:FALSE
            X509v3 Subject Key Identifier: 
                2B:66:D4:ED:00:96:4B:EC:02:DB:85:2E:54:4D:D4:1F:9F:B7:4A:5A
            X509v3 Authority Key Identifier: 
                keyid:E9:2C:17:01:95:29:FF:DA:E7:3C:BE:BD:C7:B1:BA:A7:25:5A:BC:70
                DirName:/CN=team565-net
                serial:3B:B6:7F:F7:3F:20:FB:6C:0D:B0:F0:AE:F0:FC:AB:EC:FA:4C:D0:17

            X509v3 Extended Key Usage: 
                TLS Web Client Authentication
            X509v3 Key Usage: 
                Digital Signature
    Signature Algorithm: sha256WithRSAEncryption
         8d:be:12:b7:b6:a8:05:6e:da:a7:97:c5:3f:8c:d7:f0:6f:7b:
         b4:0a:d6:88:95:2b:94:7e:8c:79:6c:15:35:bc:df:53:be:9d:
         16:66:e3:3a:c3:5c:a5:d2:10:e8:bb:ee:0f:d3:68:03:36:35:
         64:7a:05:25:65:dd:d6:87:ef:92:59:4f:3a:f8:49:02:e0:9f:
         05:8f:04:28:fc:78:b6:20:42:35:2e:78:a6:de:e5:d1:f7:f7:
         d7:b3:30:01:97:cd:7e:e2:47:cd:6b:fe:83:8d:3e:15:c6:0c:
         7d:f6:09:e7:91:bb:24:61:78:ed:44:8e:35:ed:be:81:80:d8:
         68:73:39:78:5a:8b:02:e3:fe:6b:69:71:af:32:b6:a3:c2:57:
         bc:8b:1b:8a:07:9a:41:da:d7:0f:22:84:cc:ea:52:c8:e1:80:
         18:ce:e6:cd:45:28:dd:75:94:ba:36:c7:11:8a:06:61:dc:df:
         fe:0c:5f:93:3a:4d:c6:87:31:66:66:85:77:cd:e1:95:8e:0f:
         67:72:35:5c:23:8c:46:fc:43:99:a4:e5:70:47:07:54:da:97:
         cb:fd:1d:9e:ef:90:d1:31:0e:f8:3e:d7:8e:10:4e:a3:1c:28:
         6e:98:2a:3b:09:82:ec:65:2a:b6:7f:94:07:0f:c8:37:79:ef:
         95:7f:d0:30
-----BEGIN CERTIFICATE-----
MIIDXTCCAkWgAwIBAgIRALA2pT5gl9dN2SJlA3a0+c0wDQYJKoZIhvcNAQELBQAw
FjEUMBIGA1UEAwwLdGVhbTU2NS1uZXQwHhcNMjIwNTE4MjIyNjI4WhcNMjUwNTAy
MjIyNjI4WjAZMRcwFQYDVQQDDA50ZWFtNTY1LWNsaWVudDCCASIwDQYJKoZIhvcN
AQEBBQADggEPADCCAQoCggEBAOFOuCscHilYmYQ6GwtIy8wvq2CUILRN5C08kq+m
VMHcBq1cg6YDLqvYFRbNsavWTIhBi8dLq2cWt663/3hnD+A47Y90O/sdrPzN2U0j
NDQqkhojdPth0nNfRQ4yhMX9UNrSwXuXEd9XIyOdUd4PpRCOtFreWnyHmylo3K36
LLj/WiXbRkTrkXkNuG85nM2+xZx2BjT4ZgT1EbqL/RB+Y6tFQrp56/4b1Btil2fX
RBw3fBIOVvcXTt/SjNxs0dl/xVFBXg9NliwGqdgnH6kagnhqlImQO0nZCRgJ/Wt1
v1KRr1k+J/c99+14EyOuPvFvTGU3nHv3nwj8e92Jdhq4gSsCAwEAAaOBojCBnzAJ
BgNVHRMEAjAAMB0GA1UdDgQWBBQrZtTtAJZL7ALbhS5UTdQfn7dKWjBRBgNVHSME
SjBIgBTpLBcBlSn/2uc8vr3HsbqnJVq8cKEapBgwFjEUMBIGA1UEAwwLdGVhbTU2
NS1uZXSCFDu2f/c/IPtsDbDwrvD8q+z6TNAXMBMGA1UdJQQMMAoGCCsGAQUFBwMC
MAsGA1UdDwQEAwIHgDANBgkqhkiG9w0BAQsFAAOCAQEAjb4St7aoBW7ap5fFP4zX
8G97tArWiJUrlH6MeWwVNbzfU76dFmbjOsNcpdIQ6LvuD9NoAzY1ZHoFJWXd1ofv
kllPOvhJAuCfBY8EKPx4tiBCNS54pt7l0ff317MwAZfNfuJHzWv+g40+FcYMffYJ
55G7JGF47USONe2+gYDYaHM5eFqLAuP+a2lxrzK2o8JXvIsbigeaQdrXDyKEzOpS
yOGAGM7mzUUo3XWUujbHEYoGYdzf/gxfkzpNxocxZmaFd83hlY4PZ3I1XCOMRvxD
maTlcEcHVNqXy/0dnu+Q0TEO+D7XjhBOoxwobpgqOwmC7GUqtn+UBw/IN3nvlX/Q
MA==
-----END CERTIFICATE-----
