Certificate:
    Data:
        Version: 3 (0x2)
        Serial Number:
            fc:af:ce:9f:2d:79:83:b9:af:a2:2a:b5:90:97:07:91
        Signature Algorithm: sha256WithRSAEncryption
        Issuer: CN=team743-net
        Validity
            Not Before: May 19 00:01:16 2022 GMT
            Not After : May  3 00:01:16 2025 GMT
        Subject: CN=team743-server
        Subject Public Key Info:
            Public Key Algorithm: rsaEncryption
                RSA Public-Key: (2048 bit)
                Modulus:
                    00:a2:0c:48:3c:a9:db:af:d8:73:d6:37:a9:49:af:
                    75:17:10:5d:cf:28:a9:1b:23:56:6b:2e:eb:a9:0d:
                    1b:a4:8c:ad:dd:44:0d:52:64:0d:66:0e:59:5f:80:
                    0d:9f:36:93:f0:17:f2:ba:3f:93:dd:d1:36:d9:8a:
                    a8:4b:e7:29:88:be:6e:7e:2f:a4:24:18:d4:50:9c:
                    6f:08:6c:4a:0f:d7:ed:01:fa:dd:83:5b:7d:01:6c:
                    84:1f:b5:e4:56:70:6b:79:34:f6:27:11:0c:28:f1:
                    b2:8f:06:8f:ef:a2:cd:33:52:93:3a:a5:81:ed:1c:
                    01:72:3d:3c:ef:46:c5:b7:05:80:ee:3e:1f:38:af:
                    2f:7a:35:84:a9:e9:7d:4d:70:32:62:4e:81:f2:72:
                    a3:f0:7d:b1:d5:3b:cd:7a:09:d9:d2:6f:e1:d9:c6:
                    16:78:87:c7:dd:8c:9c:e4:60:86:1e:92:fe:d5:dd:
                    08:76:d2:7a:1a:dd:91:ac:15:bd:7e:e7:28:02:bd:
                    aa:0d:e5:6b:9f:0f:8b:05:cf:2c:59:52:8f:3c:7f:
                    e1:d6:53:43:c1:3e:8c:f2:aa:26:82:e4:52:f3:4a:
                    16:df:55:7b:8e:ed:e7:2a:87:08:09:4d:ba:be:29:
                    a3:42:a7:44:04:3d:1e:2d:e6:c1:5d:56:53:02:07:
                    a4:d7
                Exponent: 65537 (0x10001)
        X509v3 extensions:
            X509v3 Basic Constraints: 
                CA:FALSE
            X509v3 Subject Key Identifier: 
                B9:CB:99:A4:31:BB:15:3C:E4:6F:63:3F:D4:5A:D3:44:DC:89:9C:1A
            X509v3 Authority Key Identifier: 
                keyid:ED:69:67:8A:31:98:4D:C6:1E:23:05:48:D3:7C:F8:CC:F4:61:B5:01
                DirName:/CN=team743-net
                serial:38:BB:3A:97:1F:88:4A:1E:E6:3C:4D:A6:45:2B:1F:9A:9D:BD:B4:92

            X509v3 Extended Key Usage: 
                TLS Web Server Authentication
            X509v3 Key Usage: 
                Digital Signature, Key Encipherment
            X509v3 Subject Alternative Name: 
                DNS:team743-server
    Signature Algorithm: sha256WithRSAEncryption
         9f:68:e9:d2:24:07:c9:75:bc:fa:43:65:b4:be:7a:63:83:d5:
         ec:4f:cf:f7:f3:92:f4:cb:81:e1:b9:db:36:a7:02:32:24:bf:
         6c:6d:bb:41:e7:43:f3:dd:9a:71:86:40:90:1c:3a:7c:e6:44:
         52:2a:b7:cb:ee:f5:61:b3:6f:1f:8f:e5:58:31:fb:e0:c1:22:
         af:58:34:62:5a:6c:37:66:93:e7:e2:bd:f3:59:44:ba:a6:c6:
         67:c2:45:de:5b:b5:32:c8:b2:ff:87:20:a0:fa:4c:a5:94:e1:
         68:9b:28:53:42:3b:b2:8f:e4:67:e5:5e:08:79:ec:65:67:38:
         39:5b:26:f3:85:b3:1a:da:9d:dc:63:c5:11:5d:f1:72:c4:4f:
         8a:d0:64:b5:7d:bc:fa:dc:38:56:d9:ec:20:33:8c:82:28:42:
         7e:d3:52:7f:59:24:0a:01:42:fd:a2:32:b1:36:4d:c1:74:92:
         f1:cd:3f:40:e3:be:a5:a8:5d:e5:52:fd:f4:de:13:66:22:e2:
         bd:22:4a:27:42:51:e5:17:fc:02:da:99:cf:6c:3d:df:be:97:
         f2:b1:10:a2:42:17:c4:27:5c:fe:32:71:61:31:e1:72:7b:85:
         ad:89:04:60:50:eb:b7:17:a2:e9:d9:93:6d:61:d2:37:78:8f:
         88:d9:e5:eb
-----BEGIN CERTIFICATE-----
MIIDeDCCAmCgAwIBAgIRAPyvzp8teYO5r6IqtZCXB5EwDQYJKoZIhvcNAQELBQAw
FjEUMBIGA1UEAwwLdGVhbTc0My1uZXQwHhcNMjIwNTE5MDAwMTE2WhcNMjUwNTAz
MDAwMTE2WjAZMRcwFQYDVQQDDA50ZWFtNzQzLXNlcnZlcjCCASIwDQYJKoZIhvcN
AQEBBQADggEPADCCAQoCggEBAKIMSDyp26/Yc9Y3qUmvdRcQXc8oqRsjVmsu66kN
G6SMrd1EDVJkDWYOWV+ADZ82k/AX8ro/k93RNtmKqEvnKYi+bn4vpCQY1FCcbwhs
Sg/X7QH63YNbfQFshB+15FZwa3k09icRDCjxso8Gj++izTNSkzqlge0cAXI9PO9G
xbcFgO4+HzivL3o1hKnpfU1wMmJOgfJyo/B9sdU7zXoJ2dJv4dnGFniHx92MnORg
hh6S/tXdCHbSehrdkawVvX7nKAK9qg3la58PiwXPLFlSjzx/4dZTQ8E+jPKqJoLk
UvNKFt9Ve47t5yqHCAlNur4po0KnRAQ9Hi3mwV1WUwIHpNcCAwEAAaOBvTCBujAJ
BgNVHRMEAjAAMB0GA1UdDgQWBBS5y5mkMbsVPORvYz/UWtNE3ImcGjBRBgNVHSME
SjBIgBTtaWeKMZhNxh4jBUjTfPjM9GG1AaEapBgwFjEUMBIGA1UEAwwLdGVhbTc0
My1uZXSCFDi7OpcfiEoe5jxNpkUrH5qdvbSSMBMGA1UdJQQMMAoGCCsGAQUFBwMB
MAsGA1UdDwQEAwIFoDAZBgNVHREEEjAQgg50ZWFtNzQzLXNlcnZlcjANBgkqhkiG
9w0BAQsFAAOCAQEAn2jp0iQHyXW8+kNltL56Y4PV7E/P9/OS9MuB4bnbNqcCMiS/
bG27QedD892acYZAkBw6fOZEUiq3y+71YbNvH4/lWDH74MEir1g0YlpsN2aT5+K9
81lEuqbGZ8JF3lu1Msiy/4cgoPpMpZThaJsoU0I7so/kZ+VeCHnsZWc4OVsm84Wz
Gtqd3GPFEV3xcsRPitBktX28+tw4VtnsIDOMgihCftNSf1kkCgFC/aIysTZNwXSS
8c0/QOO+pahd5VL99N4TZiLivSJKJ0JR5Rf8AtqZz2w9376X8rEQokIXxCdc/jJx
YTHhcnuFrYkEYFDrtxei6dmTbWHSN3iPiNnl6w==
-----END CERTIFICATE-----
