Certificate:
    Data:
        Version: 3 (0x2)
        Serial Number:
            fc:a1:86:74:96:54:62:90:3c:64:2d:81:0b:38:68
        Signature Algorithm: sha256WithRSAEncryption
        Issuer: CN=team37-net
        Validity
            Not Before: May 18 14:15:26 2022 GMT
            Not After : May  2 14:15:26 2025 GMT
        Subject: CN=team37-server
        Subject Public Key Info:
            Public Key Algorithm: rsaEncryption
                RSA Public-Key: (2048 bit)
                Modulus:
                    00:b9:ee:43:bf:58:67:e1:f6:b4:21:f8:b8:ed:7b:
                    06:66:fe:c5:1b:45:9a:14:70:6e:fb:b3:4f:89:6c:
                    d7:0e:fd:6c:13:c5:f8:3a:38:c5:c9:a8:f1:63:11:
                    30:41:1d:6c:13:4e:d5:d1:c4:75:8b:9d:66:b2:e8:
                    91:54:48:dd:88:f6:7c:38:70:72:a8:9f:8f:26:4f:
                    56:5a:ee:5b:d9:1f:86:f8:f0:52:69:06:f5:37:a4:
                    68:af:29:cb:54:27:5c:35:89:cf:67:67:19:bc:e0:
                    de:20:03:60:da:bc:99:6b:ff:7d:94:2b:7e:66:b6:
                    64:ea:45:01:19:11:a4:36:42:48:95:03:a7:8c:b6:
                    8e:c8:11:43:8d:12:aa:0a:c3:e5:ff:67:c7:c2:69:
                    5a:01:af:5e:a2:81:2e:d1:8a:96:92:82:ea:9b:64:
                    a0:a7:82:9b:b2:95:a1:cf:7e:0a:ef:34:c0:ec:92:
                    ef:c5:db:e7:69:2a:3c:e7:88:44:63:80:07:7b:ca:
                    79:94:0c:41:5f:82:a8:8a:c6:f1:de:65:02:42:41:
                    62:02:50:b7:02:57:a9:fa:7f:8f:ee:fc:6a:2d:5e:
                    a0:ea:c3:d2:85:5c:65:92:f3:cd:53:7c:7f:90:d7:
                    9f:3b:1c:13:28:38:02:34:0f:7c:5e:ea:ac:72:11:
                    99:55
                Exponent: 65537 (0x10001)
        X509v3 extensions:
            X509v3 Basic Constraints: 
                CA:FALSE
            X509v3 Subject Key Identifier: 
                7E:7D:39:31:F0:7B:0A:94:2D:D9:94:84:04:96:6E:FB:95:82:DB:57
            X509v3 Authority Key Identifier: 
                keyid:D3:B9:1B:AD:B5:4D:CA:E5:F4:1E:7A:E7:67:2B:6A:16:54:E5:4D:6E
                DirName:/CN=team37-net
                serial:62:24:0B:D2:A7:CF:8B:A1:3A:FA:A0:99:F3:F2:3F:31:BA:5B:38:83

            X509v3 Extended Key Usage: 
                TLS Web Server Authentication
            X509v3 Key Usage: 
                Digital Signature, Key Encipherment
            X509v3 Subject Alternative Name: 
                DNS:team37-server
    Signature Algorithm: sha256WithRSAEncryption
         22:0e:fb:e5:32:28:be:52:da:3b:f1:19:3b:6a:0f:33:1c:5f:
         44:eb:41:46:ee:c7:2e:5f:48:70:dd:bd:22:f6:0e:d6:c3:65:
         ab:4c:ae:a7:ef:3e:68:b3:c7:4e:24:99:cb:8f:ab:13:4e:73:
         a5:c9:a9:cb:f1:00:bc:14:bc:32:3a:38:52:55:24:30:d6:9d:
         6b:f7:fb:23:be:6e:6a:0b:84:ac:33:6f:2f:a4:d1:9e:8f:77:
         38:78:33:8d:a2:e6:1b:53:40:37:9d:6e:11:09:d7:da:ee:ea:
         dc:39:c5:7b:63:29:0a:b2:18:c7:99:40:a2:86:4c:33:cb:12:
         63:82:13:0c:f9:4c:af:20:15:f1:b8:01:f5:dc:36:d4:76:cc:
         be:3b:da:df:6f:0c:7b:58:d7:c8:5d:d5:92:82:38:2b:9b:96:
         e2:25:67:1d:ee:b3:ff:fe:e9:83:6f:b6:9e:69:c4:6e:a2:b4:
         2a:35:92:ec:30:e8:86:ae:34:47:75:da:86:ac:91:32:6d:74:
         5e:70:53:0f:e5:5e:16:de:3b:50:3c:8a:21:72:4f:d0:63:ce:
         84:df:f6:d8:64:08:3e:bf:40:9e:8f:cc:e1:69:62:51:9e:a0:
         6c:3c:61:a2:83:20:e4:36:2c:b3:3e:57:a7:b3:d2:a6:0a:1e:
         02:2e:e2:d3
-----BEGIN CERTIFICATE-----
MIIDczCCAlugAwIBAgIQAPyhhnSWVGKQPGQtgQs4aDANBgkqhkiG9w0BAQsFADAV
MRMwEQYDVQQDDAp0ZWFtMzctbmV0MB4XDTIyMDUxODE0MTUyNloXDTI1MDUwMjE0
MTUyNlowGDEWMBQGA1UEAwwNdGVhbTM3LXNlcnZlcjCCASIwDQYJKoZIhvcNAQEB
BQADggEPADCCAQoCggEBALnuQ79YZ+H2tCH4uO17Bmb+xRtFmhRwbvuzT4ls1w79
bBPF+Do4xcmo8WMRMEEdbBNO1dHEdYudZrLokVRI3Yj2fDhwcqifjyZPVlruW9kf
hvjwUmkG9TekaK8py1QnXDWJz2dnGbzg3iADYNq8mWv/fZQrfma2ZOpFARkRpDZC
SJUDp4y2jsgRQ40SqgrD5f9nx8JpWgGvXqKBLtGKlpKC6ptkoKeCm7KVoc9+Cu80
wOyS78Xb52kqPOeIRGOAB3vKeZQMQV+CqIrG8d5lAkJBYgJQtwJXqfp/j+78ai1e
oOrD0oVcZZLzzVN8f5DXnzscEyg4AjQPfF7qrHIRmVUCAwEAAaOBuzCBuDAJBgNV
HRMEAjAAMB0GA1UdDgQWBBR+fTkx8HsKlC3ZlIQElm77lYLbVzBQBgNVHSMESTBH
gBTTuRuttU3K5fQeeudnK2oWVOVNbqEZpBcwFTETMBEGA1UEAwwKdGVhbTM3LW5l
dIIUYiQL0qfPi6E6+qCZ8/I/MbpbOIMwEwYDVR0lBAwwCgYIKwYBBQUHAwEwCwYD
VR0PBAQDAgWgMBgGA1UdEQQRMA+CDXRlYW0zNy1zZXJ2ZXIwDQYJKoZIhvcNAQEL
BQADggEBACIO++UyKL5S2jvxGTtqDzMcX0TrQUbuxy5fSHDdvSL2DtbDZatMrqfv
Pmizx04kmcuPqxNOc6XJqcvxALwUvDI6OFJVJDDWnWv3+yO+bmoLhKwzby+k0Z6P
dzh4M42i5htTQDedbhEJ19ru6tw5xXtjKQqyGMeZQKKGTDPLEmOCEwz5TK8gFfG4
AfXcNtR2zL472t9vDHtY18hd1ZKCOCubluIlZx3us//+6YNvtp5pxG6itCo1kuww
6IauNEd12oaskTJtdF5wUw/lXhbeO1A8iiFyT9BjzoTf9thkCD6/QJ6PzOFpYlGe
oGw8YaKDIOQ2LLM+V6ez0qYKHgIu4tM=
-----END CERTIFICATE-----
