Certificate:
    Data:
        Version: 3 (0x2)
        Serial Number:
            a6:fd:ef:23:bf:11:d0:7f:f5:b1:c7:5a:0c:93:e9
        Signature Algorithm: sha256WithRSAEncryption
        Issuer: CN=team531-net
        Validity
            Not Before: May 18 22:09:49 2022 GMT
            Not After : May  2 22:09:49 2025 GMT
        Subject: CN=team531-server
        Subject Public Key Info:
            Public Key Algorithm: rsaEncryption
                RSA Public-Key: (2048 bit)
                Modulus:
                    00:b1:e3:a9:c0:77:c4:70:08:06:ff:d7:32:4a:40:
                    96:ac:ac:70:16:41:0d:52:e9:89:6a:f2:ab:08:fc:
                    93:6f:07:1c:97:8b:e4:18:e0:da:43:c2:64:db:02:
                    e5:ee:00:8b:b9:b2:1f:df:49:fd:fb:06:d0:00:aa:
                    7d:7c:8d:af:92:c3:4d:05:5f:25:86:8b:cd:43:48:
                    58:d4:ea:67:a1:88:c5:25:5d:15:e2:9a:16:fe:81:
                    77:3e:7a:00:58:94:0a:c4:78:63:ab:8d:8b:49:48:
                    33:e4:32:3f:f7:ed:26:66:c5:db:23:c8:44:48:7d:
                    53:65:e0:bf:05:b5:96:3f:fe:27:b1:ef:e9:f6:43:
                    b6:f5:ab:38:9a:00:48:95:0f:70:18:ef:01:5e:63:
                    42:64:cd:33:63:d0:96:4e:ef:82:06:97:d7:c0:88:
                    6d:b9:ba:f9:59:d0:fd:88:2f:97:22:2f:08:bb:16:
                    7b:57:2f:84:51:d6:fc:ea:44:f9:80:b2:03:c4:e2:
                    53:fc:cd:e4:83:0c:37:23:e4:d4:d3:29:32:72:62:
                    90:01:f6:37:c5:03:3f:5a:be:08:97:dc:2f:62:d7:
                    cb:96:0a:57:8d:5a:f7:21:3b:30:73:c9:b1:24:ba:
                    68:7c:a7:92:3f:e7:0a:b2:85:4a:7f:c8:3c:b8:34:
                    87:b3
                Exponent: 65537 (0x10001)
        X509v3 extensions:
            X509v3 Basic Constraints: 
                CA:FALSE
            X509v3 Subject Key Identifier: 
                27:BC:A5:CE:25:F4:D0:01:0C:8B:93:2D:0F:03:24:4E:04:53:E2:EE
            X509v3 Authority Key Identifier: 
                keyid:74:29:F6:02:AF:C9:CD:F0:E1:33:2B:BD:35:4B:E7:6E:AA:7F:8B:3F
                DirName:/CN=team531-net
                serial:36:D3:AB:81:0A:CB:D3:D6:58:41:7A:41:9F:59:98:0C:B5:CD:50:5E

            X509v3 Extended Key Usage: 
                TLS Web Server Authentication
            X509v3 Key Usage: 
                Digital Signature, Key Encipherment
            X509v3 Subject Alternative Name: 
                DNS:team531-server
    Signature Algorithm: sha256WithRSAEncryption
         d2:e4:7a:c5:4c:c3:f3:34:a8:a2:ca:e4:f1:da:de:54:09:0b:
         c2:11:48:b6:1f:30:60:10:57:e7:14:02:88:19:c0:66:b0:47:
         13:48:a2:b2:ba:fb:97:43:e5:db:dd:c0:01:f0:0d:42:cb:73:
         3a:55:63:75:bc:a6:08:4f:e2:b4:ec:40:12:ee:10:72:60:08:
         8d:e6:e6:f6:18:0b:af:b0:53:00:25:cd:f1:92:68:a3:7a:16:
         55:aa:7c:4c:d0:2a:84:a7:3c:2a:1c:15:2e:c3:8b:9f:62:33:
         6b:22:c4:d2:7b:d8:5a:8b:ba:d0:d8:92:f5:d7:fc:00:df:86:
         47:2a:85:d3:d8:fe:b8:52:c8:ea:f9:b7:cf:2e:28:46:34:58:
         94:f3:96:0d:91:20:f4:ac:98:87:47:ad:50:1e:2e:71:c0:ec:
         f4:c5:a9:3e:b6:e8:6c:cd:5a:61:63:4a:f7:b0:16:34:c5:b1:
         03:01:75:2a:92:37:22:60:a8:f9:06:98:5f:c5:fe:04:f5:ae:
         5f:fe:89:b3:a8:d3:d5:1d:8f:ee:ab:0f:c0:6d:f9:54:6f:14:
         0c:04:66:b9:f8:5c:28:93:bf:fd:9c:1c:49:ce:0f:41:5e:24:
         ae:44:5c:f8:14:ec:6f:da:10:20:46:aa:d6:70:f6:3d:96:c6:
         96:4b:62:89
-----BEGIN CERTIFICATE-----
MIIDdzCCAl+gAwIBAgIQAKb97yO/EdB/9bHHWgyT6TANBgkqhkiG9w0BAQsFADAW
MRQwEgYDVQQDDAt0ZWFtNTMxLW5ldDAeFw0yMjA1MTgyMjA5NDlaFw0yNTA1MDIy
MjA5NDlaMBkxFzAVBgNVBAMMDnRlYW01MzEtc2VydmVyMIIBIjANBgkqhkiG9w0B
AQEFAAOCAQ8AMIIBCgKCAQEAseOpwHfEcAgG/9cySkCWrKxwFkENUumJavKrCPyT
bwccl4vkGODaQ8Jk2wLl7gCLubIf30n9+wbQAKp9fI2vksNNBV8lhovNQ0hY1Opn
oYjFJV0V4poW/oF3PnoAWJQKxHhjq42LSUgz5DI/9+0mZsXbI8hESH1TZeC/BbWW
P/4nse/p9kO29as4mgBIlQ9wGO8BXmNCZM0zY9CWTu+CBpfXwIhtubr5WdD9iC+X
Ii8IuxZ7Vy+EUdb86kT5gLIDxOJT/M3kgww3I+TU0ykycmKQAfY3xQM/Wr4Il9wv
YtfLlgpXjVr3ITswc8mxJLpofKeSP+cKsoVKf8g8uDSHswIDAQABo4G9MIG6MAkG
A1UdEwQCMAAwHQYDVR0OBBYEFCe8pc4l9NABDIuTLQ8DJE4EU+LuMFEGA1UdIwRK
MEiAFHQp9gKvyc3w4TMrvTVL526qf4s/oRqkGDAWMRQwEgYDVQQDDAt0ZWFtNTMx
LW5ldIIUNtOrgQrL09ZYQXpBn1mYDLXNUF4wEwYDVR0lBAwwCgYIKwYBBQUHAwEw
CwYDVR0PBAQDAgWgMBkGA1UdEQQSMBCCDnRlYW01MzEtc2VydmVyMA0GCSqGSIb3
DQEBCwUAA4IBAQDS5HrFTMPzNKiiyuTx2t5UCQvCEUi2HzBgEFfnFAKIGcBmsEcT
SKKyuvuXQ+Xb3cAB8A1Cy3M6VWN1vKYIT+K07EAS7hByYAiN5ub2GAuvsFMAJc3x
kmijehZVqnxM0CqEpzwqHBUuw4ufYjNrIsTSe9hai7rQ2JL11/wA34ZHKoXT2P64
Usjq+bfPLihGNFiU85YNkSD0rJiHR61QHi5xwOz0xak+tuhszVphY0r3sBY0xbED
AXUqkjciYKj5Bphfxf4E9a5f/omzqNPVHY/uqw/AbflUbxQMBGa5+Fwok7/9nBxJ
zg9BXiSuRFz4FOxv2hAgRqrWcPY9lsaWS2KJ
-----END CERTIFICATE-----
