Certificate:
    Data:
        Version: 3 (0x2)
        Serial Number:
            f0:f1:a8:d4:d0:fe:7c:a0:a5:1e:a3:97:22:65:de:71
        Signature Algorithm: sha256WithRSAEncryption
        Issuer: CN=team275-net
        Validity
            Not Before: May 18 19:44:23 2022 GMT
            Not After : May  2 19:44:23 2025 GMT
        Subject: CN=team275-server
        Subject Public Key Info:
            Public Key Algorithm: rsaEncryption
                RSA Public-Key: (2048 bit)
                Modulus:
                    00:e5:b5:9a:8a:74:8e:fc:80:f9:e4:5d:8c:16:05:
                    fe:26:3e:75:09:e7:15:8e:28:4e:c5:28:3b:74:76:
                    55:a7:9e:bc:78:21:3b:af:79:76:bd:d4:59:b3:1b:
                    f0:f2:af:e6:2c:92:dc:6a:c3:5d:e1:04:67:f4:94:
                    5d:e4:b1:11:ea:52:9c:05:54:ff:4e:89:a2:5b:06:
                    2e:bb:5d:0c:59:48:77:82:37:4e:42:b0:d6:e9:9b:
                    23:d5:7f:3a:ad:b0:2f:3a:ee:6d:db:89:6b:5d:90:
                    85:cf:65:3e:2c:5c:e0:aa:e1:b4:a1:f2:dc:d4:88:
                    ed:70:84:10:5e:a9:83:4f:dd:af:61:bf:9e:bc:f9:
                    73:45:b6:84:a1:d7:31:32:97:97:50:c6:75:bc:bf:
                    db:47:5e:64:be:c1:6c:39:ea:20:6c:f4:ed:ba:59:
                    a6:e8:90:08:2d:9a:59:c9:23:e9:a1:fa:e0:48:14:
                    d5:af:5c:af:47:74:b0:9d:8e:85:40:a7:28:77:ca:
                    c8:a7:e1:0c:10:b8:32:39:21:df:b9:5a:ed:fc:74:
                    df:de:6b:0d:9c:58:d3:d7:c5:5d:2e:34:04:f6:72:
                    07:ed:c2:da:3d:4a:20:90:81:e6:3d:82:f3:c8:3a:
                    1a:8b:f4:b2:d3:6a:67:a8:ff:24:a6:4d:f5:c3:20:
                    59:4f
                Exponent: 65537 (0x10001)
        X509v3 extensions:
            X509v3 Basic Constraints: 
                CA:FALSE
            X509v3 Subject Key Identifier: 
                FA:D5:75:EC:03:DF:BD:3A:4C:CD:C3:4D:D9:35:0F:1B:D0:15:62:75
            X509v3 Authority Key Identifier: 
                keyid:A0:17:62:5C:7C:48:C6:07:B1:6F:6F:D6:0E:F8:B3:92:AF:B6:67:CF
                DirName:/CN=team275-net
                serial:57:7E:FF:F9:D1:19:6A:FC:51:E6:64:69:0B:23:50:33:03:C0:4C:83

            X509v3 Extended Key Usage: 
                TLS Web Server Authentication
            X509v3 Key Usage: 
                Digital Signature, Key Encipherment
            X509v3 Subject Alternative Name: 
                DNS:team275-server
    Signature Algorithm: sha256WithRSAEncryption
         4f:b8:c3:d4:b1:c0:d8:c9:d5:02:46:90:5e:3c:8a:ad:f7:37:
         4b:91:73:6c:d8:f9:6b:33:44:bb:de:38:58:6f:78:7c:cb:19:
         20:cd:6a:5b:55:7f:e5:a2:2e:28:42:34:a2:e6:28:6c:86:38:
         66:23:18:13:6a:4c:b3:32:27:76:99:79:2d:3c:0b:92:7e:b1:
         b1:c7:36:3a:f8:7a:9d:61:e7:fb:d7:5f:93:39:02:46:59:86:
         be:a9:38:7b:ae:a5:5b:76:72:ea:37:bb:b5:6b:0a:32:3b:0b:
         74:85:f5:87:c7:29:63:d0:db:7e:f4:f8:e9:9d:48:b7:13:f5:
         57:7f:4d:96:3d:3a:bf:36:68:76:36:a8:ac:20:06:1f:6f:d3:
         f6:b1:55:e8:48:53:a6:97:ab:b3:cc:c0:3b:60:1c:3b:86:d4:
         15:5e:6f:b1:df:c9:c3:ff:3e:56:43:bf:1c:e3:b1:5e:0b:30:
         ab:e2:24:3c:b3:c9:c2:02:eb:9f:4d:9b:bc:a5:43:dd:19:83:
         96:a3:50:08:7a:fd:e5:93:f0:6a:93:22:ce:45:e9:2f:9b:f4:
         7e:91:35:5a:40:ed:5d:a3:e8:a8:8c:e7:d0:59:c0:c7:a4:b0:
         ee:92:c5:75:ea:99:43:16:6d:50:a7:20:a0:95:9a:95:b9:49:
         5e:a2:7d:73
-----BEGIN CERTIFICATE-----
MIIDeDCCAmCgAwIBAgIRAPDxqNTQ/nygpR6jlyJl3nEwDQYJKoZIhvcNAQELBQAw
FjEUMBIGA1UEAwwLdGVhbTI3NS1uZXQwHhcNMjIwNTE4MTk0NDIzWhcNMjUwNTAy
MTk0NDIzWjAZMRcwFQYDVQQDDA50ZWFtMjc1LXNlcnZlcjCCASIwDQYJKoZIhvcN
AQEBBQADggEPADCCAQoCggEBAOW1mop0jvyA+eRdjBYF/iY+dQnnFY4oTsUoO3R2
VaeevHghO695dr3UWbMb8PKv5iyS3GrDXeEEZ/SUXeSxEepSnAVU/06JolsGLrtd
DFlId4I3TkKw1umbI9V/Oq2wLzrubduJa12Qhc9lPixc4KrhtKHy3NSI7XCEEF6p
g0/dr2G/nrz5c0W2hKHXMTKXl1DGdby/20deZL7BbDnqIGz07bpZpuiQCC2aWckj
6aH64EgU1a9cr0d0sJ2OhUCnKHfKyKfhDBC4Mjkh37la7fx0395rDZxY09fFXS40
BPZyB+3C2j1KIJCB5j2C88g6Gov0stNqZ6j/JKZN9cMgWU8CAwEAAaOBvTCBujAJ
BgNVHRMEAjAAMB0GA1UdDgQWBBT61XXsA9+9OkzNw03ZNQ8b0BVidTBRBgNVHSME
SjBIgBSgF2JcfEjGB7Fvb9YO+LOSr7Znz6EapBgwFjEUMBIGA1UEAwwLdGVhbTI3
NS1uZXSCFFd+//nRGWr8UeZkaQsjUDMDwEyDMBMGA1UdJQQMMAoGCCsGAQUFBwMB
MAsGA1UdDwQEAwIFoDAZBgNVHREEEjAQgg50ZWFtMjc1LXNlcnZlcjANBgkqhkiG
9w0BAQsFAAOCAQEAT7jD1LHA2MnVAkaQXjyKrfc3S5FzbNj5azNEu944WG94fMsZ
IM1qW1V/5aIuKEI0ouYobIY4ZiMYE2pMszIndpl5LTwLkn6xscc2Ovh6nWHn+9df
kzkCRlmGvqk4e66lW3Zy6je7tWsKMjsLdIX1h8cpY9DbfvT46Z1ItxP1V39Nlj06
vzZodjaorCAGH2/T9rFV6EhTppers8zAO2AcO4bUFV5vsd/Jw/8+VkO/HOOxXgsw
q+IkPLPJwgLrn02bvKVD3RmDlqNQCHr95ZPwapMizkXpL5v0fpE1WkDtXaPoqIzn
0FnAx6Sw7pLFdeqZQxZtUKcgoJWalblJXqJ9cw==
-----END CERTIFICATE-----
