Certificate:
    Data:
        Version: 3 (0x2)
        Serial Number:
            f6:dc:6f:df:d1:1f:5f:26:17:e8:cd:35:d8:72:7d:94
        Signature Algorithm: sha256WithRSAEncryption
        Issuer: CN=team51-net
        Validity
            Not Before: May 18 14:24:18 2022 GMT
            Not After : May  2 14:24:18 2025 GMT
        Subject: CN=team51-server
        Subject Public Key Info:
            Public Key Algorithm: rsaEncryption
                RSA Public-Key: (2048 bit)
                Modulus:
                    00:9f:d0:5f:54:99:3e:82:7b:c2:90:17:d3:55:78:
                    71:34:e3:64:a6:fb:40:27:38:20:c6:38:16:ad:83:
                    03:1b:41:de:ed:da:4c:88:56:9d:ab:cf:eb:4b:21:
                    39:12:2c:65:64:7a:98:c9:7b:d8:d7:ae:76:22:30:
                    d4:80:83:48:99:6d:fc:8b:17:ef:e6:ac:74:f4:97:
                    c2:d1:a0:9d:74:94:9c:1f:5f:ef:50:51:71:f5:7c:
                    ab:96:4f:c1:23:f8:31:da:a5:f9:60:99:4c:87:24:
                    ca:70:65:2c:ce:e0:ed:80:94:b0:15:a3:a5:00:8a:
                    07:b4:ca:60:8b:78:77:a8:b1:d6:4e:73:b0:fc:6c:
                    a5:ad:12:2e:40:bf:c1:b9:b7:bd:33:80:73:b3:de:
                    e1:68:dd:4e:26:13:e8:a7:bb:05:a9:59:73:d7:ec:
                    b2:35:c9:90:cb:a5:14:46:ac:5b:55:7d:4a:74:d2:
                    c1:44:1a:ba:50:a6:c9:df:bc:b6:59:27:51:81:cc:
                    d5:2b:33:3a:23:f6:df:d7:41:2c:6e:03:f7:f8:68:
                    20:68:3c:10:09:49:88:d4:01:41:70:44:0f:96:95:
                    a9:dc:71:05:54:f7:ab:37:95:4c:2d:f0:96:15:85:
                    69:d3:1c:60:3f:a8:b8:25:f9:e0:d3:2f:bb:43:f2:
                    2a:cb
                Exponent: 65537 (0x10001)
        X509v3 extensions:
            X509v3 Basic Constraints: 
                CA:FALSE
            X509v3 Subject Key Identifier: 
                CD:26:A2:92:7A:8E:FA:92:43:A1:7B:F1:07:31:9C:14:12:CF:6A:78
            X509v3 Authority Key Identifier: 
                keyid:E9:19:FA:06:9E:00:3A:62:6C:7B:D0:21:67:8B:D0:1A:DE:4C:8D:40
                DirName:/CN=team51-net
                serial:10:F0:74:4C:36:0D:E2:7E:37:62:8E:2A:29:51:88:7E:E7:BF:D5:1A

            X509v3 Extended Key Usage: 
                TLS Web Server Authentication
            X509v3 Key Usage: 
                Digital Signature, Key Encipherment
            X509v3 Subject Alternative Name: 
                DNS:team51-server
    Signature Algorithm: sha256WithRSAEncryption
         46:bf:bb:69:5b:bb:b6:16:98:1f:81:60:26:b2:d7:df:25:83:
         04:a2:a2:cc:68:3e:c8:3f:94:e9:fd:65:19:af:db:83:50:d9:
         d9:b2:91:3c:4b:91:ed:fb:57:1e:83:f0:62:1e:da:53:44:c6:
         84:5f:8a:aa:e1:60:f3:c6:eb:83:a7:b0:e2:e1:00:80:24:33:
         b8:e5:a3:8d:53:78:5c:e9:c0:6b:69:65:94:5f:c9:84:20:9f:
         98:3b:50:f3:1b:e2:a4:d2:bd:90:7d:8d:e8:cd:41:03:d2:7a:
         90:d0:1c:18:db:d9:c2:a0:70:0e:58:e9:e7:d1:73:57:7d:8d:
         ba:3c:f2:1f:43:1c:29:2f:f8:81:0b:0d:4e:ae:b5:7f:c9:3b:
         74:81:16:6b:29:5d:5a:57:72:4c:75:21:5d:7f:b8:fb:8d:cc:
         6b:fa:d6:11:f7:b0:50:3f:9b:db:6a:0c:d6:1b:5c:e1:5e:bd:
         6d:d7:29:f5:97:cc:3f:65:6e:9e:1a:2f:46:48:48:a3:40:61:
         3c:92:ff:4a:80:c2:28:e1:24:0c:52:63:8a:6e:a3:3e:81:44:
         0c:0d:5e:5e:6e:ca:a9:42:4e:c8:d0:a8:81:8e:c0:17:2f:13:
         b9:9d:81:dc:22:49:05:38:e6:df:63:75:48:c7:cd:53:98:b2:
         19:29:3d:35
-----BEGIN CERTIFICATE-----
MIIDdDCCAlygAwIBAgIRAPbcb9/RH18mF+jNNdhyfZQwDQYJKoZIhvcNAQELBQAw
FTETMBEGA1UEAwwKdGVhbTUxLW5ldDAeFw0yMjA1MTgxNDI0MThaFw0yNTA1MDIx
NDI0MThaMBgxFjAUBgNVBAMMDXRlYW01MS1zZXJ2ZXIwggEiMA0GCSqGSIb3DQEB
AQUAA4IBDwAwggEKAoIBAQCf0F9UmT6Ce8KQF9NVeHE042Sm+0AnOCDGOBatgwMb
Qd7t2kyIVp2rz+tLITkSLGVkepjJe9jXrnYiMNSAg0iZbfyLF+/mrHT0l8LRoJ10
lJwfX+9QUXH1fKuWT8Ej+DHapflgmUyHJMpwZSzO4O2AlLAVo6UAige0ymCLeHeo
sdZOc7D8bKWtEi5Av8G5t70zgHOz3uFo3U4mE+inuwWpWXPX7LI1yZDLpRRGrFtV
fUp00sFEGrpQpsnfvLZZJ1GBzNUrMzoj9t/XQSxuA/f4aCBoPBAJSYjUAUFwRA+W
lanccQVU96s3lUwt8JYVhWnTHGA/qLgl+eDTL7tD8irLAgMBAAGjgbswgbgwCQYD
VR0TBAIwADAdBgNVHQ4EFgQUzSaiknqO+pJDoXvxBzGcFBLPangwUAYDVR0jBEkw
R4AU6Rn6Bp4AOmJse9AhZ4vQGt5MjUChGaQXMBUxEzARBgNVBAMMCnRlYW01MS1u
ZXSCFBDwdEw2DeJ+N2KOKilRiH7nv9UaMBMGA1UdJQQMMAoGCCsGAQUFBwMBMAsG
A1UdDwQEAwIFoDAYBgNVHREEETAPgg10ZWFtNTEtc2VydmVyMA0GCSqGSIb3DQEB
CwUAA4IBAQBGv7tpW7u2FpgfgWAmstffJYMEoqLMaD7IP5Tp/WUZr9uDUNnZspE8
S5Ht+1ceg/BiHtpTRMaEX4qq4WDzxuuDp7Di4QCAJDO45aONU3hc6cBraWWUX8mE
IJ+YO1DzG+Kk0r2QfY3ozUED0nqQ0BwY29nCoHAOWOnn0XNXfY26PPIfQxwpL/iB
Cw1OrrV/yTt0gRZrKV1aV3JMdSFdf7j7jcxr+tYR97BQP5vbagzWG1zhXr1t1yn1
l8w/ZW6eGi9GSEijQGE8kv9KgMIo4SQMUmOKbqM+gUQMDV5ebsqpQk7I0KiBjsAX
LxO5nYHcIkkFOObfY3VIx81TmLIZKT01
-----END CERTIFICATE-----
