Certificate:
    Data:
        Version: 3 (0x2)
        Serial Number:
            08:b0:32:96:cd:85:4e:7e:45:b6:ec:41:43:fc:d4:9e
        Signature Algorithm: sha256WithRSAEncryption
        Issuer: CN=team116-net
        Validity
            Not Before: May 18 15:02:45 2022 GMT
            Not After : May  2 15:02:45 2025 GMT
        Subject: CN=team116-server
        Subject Public Key Info:
            Public Key Algorithm: rsaEncryption
                RSA Public-Key: (2048 bit)
                Modulus:
                    00:d4:42:0f:64:3c:45:2e:eb:10:af:97:98:18:b3:
                    89:09:8f:5e:cc:5d:3f:ba:7e:2e:71:46:f5:e7:3d:
                    68:54:a9:68:43:cf:33:60:ae:b1:47:40:28:24:2d:
                    6c:16:12:66:a7:e5:4a:bf:13:71:ca:f2:94:d8:66:
                    1f:a5:2f:4f:eb:e0:a3:71:ed:b4:63:7c:bc:42:39:
                    b7:e5:59:b3:56:5e:95:da:5a:b2:06:a2:d8:ec:52:
                    68:31:60:65:a6:f3:a5:c4:27:dc:ea:ea:99:7f:25:
                    f9:a2:7a:be:42:b8:2d:7b:1f:5d:fb:85:c0:71:ae:
                    6b:ae:9d:53:08:8c:e6:cd:8c:35:5a:71:41:9c:3b:
                    a4:a3:fd:4b:b1:68:d6:56:a4:ac:cc:57:68:8a:47:
                    6c:ba:7c:6a:fd:33:dc:13:05:53:6c:47:f2:22:a5:
                    05:e3:44:54:56:c7:5b:e6:20:78:26:5e:a5:f8:f9:
                    f6:0d:d1:c0:26:8a:4a:b1:25:a5:bd:73:5e:32:5a:
                    10:aa:ae:29:06:8a:5c:47:ba:42:a5:f5:3b:bc:28:
                    a9:3e:d5:aa:e5:68:dc:b6:4e:43:90:5c:32:e6:cb:
                    c2:3d:6f:88:84:e3:57:06:0f:8b:b9:ab:75:74:a1:
                    1c:26:7b:1c:9b:79:d8:83:4c:0c:37:3b:36:2c:82:
                    f1:1f
                Exponent: 65537 (0x10001)
        X509v3 extensions:
            X509v3 Basic Constraints: 
                CA:FALSE
            X509v3 Subject Key Identifier: 
                CC:94:F4:79:A8:9D:80:A9:C5:9A:96:71:5C:91:91:2E:40:9A:22:E9
            X509v3 Authority Key Identifier: 
                keyid:99:28:84:F6:79:63:8C:BF:36:F2:0B:ED:92:E9:FF:DD:28:AB:39:86
                DirName:/CN=team116-net
                serial:58:CE:72:93:A6:10:9A:74:C0:B4:C5:87:15:E5:44:2E:19:09:D7:07

            X509v3 Extended Key Usage: 
                TLS Web Server Authentication
            X509v3 Key Usage: 
                Digital Signature, Key Encipherment
            X509v3 Subject Alternative Name: 
                DNS:team116-server
    Signature Algorithm: sha256WithRSAEncryption
         13:8e:09:96:e7:f1:ff:c2:93:bc:0f:d8:55:61:88:e8:c2:9e:
         e0:d0:e6:7a:d2:3a:3c:b6:f2:a4:a5:b0:e4:4e:ec:a6:45:16:
         6c:89:b6:1d:98:9e:b0:9f:8b:0e:5a:3a:36:8e:4f:13:bd:f8:
         1e:a6:7a:1e:6d:5c:72:33:2b:52:d4:70:16:f9:fc:8b:54:a4:
         6e:a0:09:97:f2:03:5c:a7:85:71:97:82:05:44:2e:69:6f:fd:
         d3:d1:6a:c5:55:e3:96:c3:56:a6:8d:10:2c:0f:be:52:89:8a:
         70:ba:82:96:4d:f3:2f:20:1f:86:ca:0f:a6:01:44:0a:75:79:
         90:e4:a3:f9:1e:bc:0f:80:90:a1:ca:1f:c5:7b:68:3d:85:18:
         2e:cd:a1:ae:5f:3a:01:37:35:e5:b1:27:cc:79:b1:f4:a1:d1:
         24:45:65:f3:41:ab:3b:8e:ae:ce:6f:1f:1d:b8:00:03:53:52:
         44:86:5e:ec:71:2a:e1:43:45:e9:88:3f:72:4f:4d:be:42:13:
         14:16:da:78:f8:29:86:b2:72:fe:e4:04:f3:ee:7e:a6:87:1b:
         65:37:9b:74:12:24:28:7c:c7:93:f7:c1:54:fa:19:f5:aa:65:
         58:19:6e:1a:73:3f:9b:71:d1:2e:7b:e2:34:c8:6e:b4:4d:32:
         fb:3c:82:0b
-----BEGIN CERTIFICATE-----
MIIDdzCCAl+gAwIBAgIQCLAyls2FTn5FtuxBQ/zUnjANBgkqhkiG9w0BAQsFADAW
MRQwEgYDVQQDDAt0ZWFtMTE2LW5ldDAeFw0yMjA1MTgxNTAyNDVaFw0yNTA1MDIx
NTAyNDVaMBkxFzAVBgNVBAMMDnRlYW0xMTYtc2VydmVyMIIBIjANBgkqhkiG9w0B
AQEFAAOCAQ8AMIIBCgKCAQEA1EIPZDxFLusQr5eYGLOJCY9ezF0/un4ucUb15z1o
VKloQ88zYK6xR0AoJC1sFhJmp+VKvxNxyvKU2GYfpS9P6+Cjce20Y3y8Qjm35Vmz
Vl6V2lqyBqLY7FJoMWBlpvOlxCfc6uqZfyX5onq+Qrgtex9d+4XAca5rrp1TCIzm
zYw1WnFBnDuko/1LsWjWVqSszFdoikdsunxq/TPcEwVTbEfyIqUF40RUVsdb5iB4
Jl6l+Pn2DdHAJopKsSWlvXNeMloQqq4pBopcR7pCpfU7vCipPtWq5Wjctk5DkFwy
5svCPW+IhONXBg+Luat1dKEcJnscm3nYg0wMNzs2LILxHwIDAQABo4G9MIG6MAkG
A1UdEwQCMAAwHQYDVR0OBBYEFMyU9HmonYCpxZqWcVyRkS5AmiLpMFEGA1UdIwRK
MEiAFJkohPZ5Y4y/NvIL7ZLp/90oqzmGoRqkGDAWMRQwEgYDVQQDDAt0ZWFtMTE2
LW5ldIIUWM5yk6YQmnTAtMWHFeVELhkJ1wcwEwYDVR0lBAwwCgYIKwYBBQUHAwEw
CwYDVR0PBAQDAgWgMBkGA1UdEQQSMBCCDnRlYW0xMTYtc2VydmVyMA0GCSqGSIb3
DQEBCwUAA4IBAQATjgmW5/H/wpO8D9hVYYjowp7g0OZ60jo8tvKkpbDkTuymRRZs
ibYdmJ6wn4sOWjo2jk8TvfgepnoebVxyMytS1HAW+fyLVKRuoAmX8gNcp4Vxl4IF
RC5pb/3T0WrFVeOWw1amjRAsD75SiYpwuoKWTfMvIB+Gyg+mAUQKdXmQ5KP5HrwP
gJChyh/Fe2g9hRguzaGuXzoBNzXlsSfMebH0odEkRWXzQas7jq7Obx8duAADU1JE
hl7scSrhQ0XpiD9yT02+QhMUFtp4+CmGsnL+5ATz7n6mhxtlN5t0EiQofMeT98FU
+hn1qmVYGW4acz+bcdEue+I0yG60TTL7PIIL
-----END CERTIFICATE-----
