Certificate:
    Data:
        Version: 3 (0x2)
        Serial Number:
            7a:01:4c:3f:d3:d7:a2:98:4e:71:72:02:10:76:48:67
        Signature Algorithm: sha256WithRSAEncryption
        Issuer: CN=team567-net
        Validity
            Not Before: May 18 22:28:12 2022 GMT
            Not After : May  2 22:28:12 2025 GMT
        Subject: CN=team567-client
        Subject Public Key Info:
            Public Key Algorithm: rsaEncryption
                RSA Public-Key: (2048 bit)
                Modulus:
                    00:cd:23:5d:45:cb:17:ec:c8:bc:6c:e4:27:f7:95:
                    9f:fc:98:75:f4:11:1b:9d:fb:22:95:62:b1:1e:39:
                    60:30:ea:c0:1f:0e:a8:cb:98:68:9e:d0:53:05:93:
                    cd:88:2a:49:08:b0:bb:39:d5:42:23:d8:8b:47:4d:
                    c5:0f:6e:83:5d:59:a9:4e:0f:ac:7c:ed:94:77:11:
                    e0:1f:b2:ac:5b:d6:9b:5f:dc:59:22:20:bf:ef:46:
                    f5:85:07:49:90:83:ac:93:a3:ae:7e:48:e3:2a:e4:
                    c2:3e:6c:8d:5a:d4:db:33:b4:0f:d5:fa:6e:3b:8b:
                    12:8e:d8:71:ad:22:0e:43:cf:3e:c9:61:a6:5d:fb:
                    bf:1b:ca:6b:12:36:9c:24:2b:1e:0e:5a:d8:5f:62:
                    1c:e3:d7:6c:5c:0f:3e:10:17:0f:47:f7:d8:f3:22:
                    17:85:80:b3:1e:6b:79:61:c8:16:c2:3e:d9:53:33:
                    70:90:29:c9:a7:2e:11:e8:4f:4e:90:18:4a:84:71:
                    0f:24:e5:f7:8c:28:9d:20:ed:06:21:89:aa:18:55:
                    8d:20:b8:48:de:6d:f1:6a:d7:93:69:cb:0f:0d:61:
                    fd:bc:fb:86:14:58:33:03:2d:92:6e:9d:48:94:3a:
                    e3:f4:35:4b:3c:b2:98:d4:34:f1:b3:ce:50:da:b6:
                    e9:a5
                Exponent: 65537 (0x10001)
        X509v3 extensions:
            X509v3 Basic Constraints: 
                CA:FALSE
            X509v3 Subject Key Identifier: 
                5C:BB:30:A6:15:8C:1F:56:27:88:9D:86:A8:DE:25:BF:7F:B4:A2:84
            X509v3 Authority Key Identifier: 
                keyid:0D:86:55:A4:D2:69:1D:EA:8D:1E:61:8C:3A:B5:7A:03:A6:0C:F9:9A
                DirName:/CN=team567-net
                serial:CD:EE:90:9B:CC:DE:C5:9D:AE:CB:CF:28:98:A4:49:36:B1:C3:66

            X509v3 Extended Key Usage: 
                TLS Web Client Authentication
            X509v3 Key Usage: 
                Digital Signature
    Signature Algorithm: sha256WithRSAEncryption
         87:65:56:f5:5d:0d:be:59:f2:c8:6c:be:8a:72:f6:56:6e:df:
         08:15:cf:01:0c:30:53:b1:d6:39:12:e6:7e:40:78:c9:5e:8b:
         f8:fc:cd:a7:8c:e1:18:77:db:a6:84:a0:06:58:c0:33:8a:f4:
         cd:03:e1:11:b9:15:76:55:b7:60:85:f9:b3:81:92:96:32:79:
         15:85:e1:8e:3f:e3:6b:c5:e3:84:a1:3c:62:0d:15:7e:46:14:
         ed:2e:3a:e9:3f:7f:0a:a8:2b:81:25:19:c8:0b:19:cb:90:f6:
         4f:b7:e6:35:70:2a:5a:99:8b:24:50:c1:de:37:20:e5:40:14:
         bf:e1:5b:29:7f:10:65:65:29:7e:08:57:54:fe:bd:6a:27:be:
         13:8a:c2:3b:8e:6a:62:52:ef:18:e2:40:d7:07:ec:86:6e:67:
         c6:a1:b8:8e:dd:73:ca:c8:b0:76:2a:db:e4:30:06:26:e0:af:
         98:84:eb:42:c3:1e:60:22:c0:4e:5a:c0:0e:85:db:b0:6b:d8:
         05:6e:a6:43:e5:1d:bb:a6:e7:7b:fb:52:1f:12:38:e2:f1:c9:
         fd:a5:40:64:09:72:95:a6:d1:39:be:fd:23:f4:51:4a:e5:da:
         6e:57:cc:8f:10:61:bd:2f:a4:31:17:98:3b:94:d9:4f:85:61:
         d9:c7:72:7b
-----BEGIN CERTIFICATE-----
MIIDXDCCAkSgAwIBAgIQegFMP9PXophOcXICEHZIZzANBgkqhkiG9w0BAQsFADAW
MRQwEgYDVQQDDAt0ZWFtNTY3LW5ldDAeFw0yMjA1MTgyMjI4MTJaFw0yNTA1MDIy
MjI4MTJaMBkxFzAVBgNVBAMMDnRlYW01NjctY2xpZW50MIIBIjANBgkqhkiG9w0B
AQEFAAOCAQ8AMIIBCgKCAQEAzSNdRcsX7Mi8bOQn95Wf/Jh19BEbnfsilWKxHjlg
MOrAHw6oy5hontBTBZPNiCpJCLC7OdVCI9iLR03FD26DXVmpTg+sfO2UdxHgH7Ks
W9abX9xZIiC/70b1hQdJkIOsk6OufkjjKuTCPmyNWtTbM7QP1fpuO4sSjthxrSIO
Q88+yWGmXfu/G8prEjacJCseDlrYX2Ic49dsXA8+EBcPR/fY8yIXhYCzHmt5YcgW
wj7ZUzNwkCnJpy4R6E9OkBhKhHEPJOX3jCidIO0GIYmqGFWNILhI3m3xateTacsP
DWH9vPuGFFgzAy2Sbp1IlDrj9DVLPLKY1DTxs85Q2rbppQIDAQABo4GiMIGfMAkG
A1UdEwQCMAAwHQYDVR0OBBYEFFy7MKYVjB9WJ4idhqjeJb9/tKKEMFEGA1UdIwRK
MEiAFA2GVaTSaR3qjR5hjDq1egOmDPmaoRqkGDAWMRQwEgYDVQQDDAt0ZWFtNTY3
LW5ldIIUAM3ukJvM3sWdrsvPKJikSTaxw2YwEwYDVR0lBAwwCgYIKwYBBQUHAwIw
CwYDVR0PBAQDAgeAMA0GCSqGSIb3DQEBCwUAA4IBAQCHZVb1XQ2+WfLIbL6KcvZW
bt8IFc8BDDBTsdY5EuZ+QHjJXov4/M2njOEYd9umhKAGWMAzivTNA+ERuRV2Vbdg
hfmzgZKWMnkVheGOP+NrxeOEoTxiDRV+RhTtLjrpP38KqCuBJRnICxnLkPZPt+Y1
cCpamYskUMHeNyDlQBS/4VspfxBlZSl+CFdU/r1qJ74TisI7jmpiUu8Y4kDXB+yG
bmfGobiO3XPKyLB2KtvkMAYm4K+YhOtCwx5gIsBOWsAOhduwa9gFbqZD5R27pud7
+1IfEjji8cn9pUBkCXKVptE5vv0j9FFK5dpuV8yPEGG9L6QxF5g7lNlPhWHZx3J7
-----END CERTIFICATE-----
