Certificate:
    Data:
        Version: 3 (0x2)
        Serial Number:
            d5:52:29:b1:01:7c:01:e9:21:de:fe:e4:54:48:b0:38
        Signature Algorithm: sha256WithRSAEncryption
        Issuer: CN=team155-net
        Validity
            Not Before: May 18 18:44:36 2022 GMT
            Not After : May  2 18:44:36 2025 GMT
        Subject: CN=team155-server
        Subject Public Key Info:
            Public Key Algorithm: rsaEncryption
                RSA Public-Key: (2048 bit)
                Modulus:
                    00:c1:eb:e8:9a:11:e7:00:d5:41:ba:9e:46:3d:ec:
                    1b:c5:9c:43:4b:2f:d9:3e:b6:22:91:ab:0c:4d:50:
                    b1:4f:f1:ef:aa:ac:4b:9a:f8:93:5a:04:7c:0b:62:
                    a1:10:bc:d5:f2:ea:36:bf:94:44:02:8e:50:54:61:
                    5e:5c:96:ad:f3:77:49:65:14:7f:9e:cc:af:47:bc:
                    fd:de:44:af:d3:62:01:ef:f9:b4:e4:65:1e:61:50:
                    e5:ce:72:e4:cd:95:1c:ae:81:73:4a:f3:00:4e:b9:
                    34:12:4b:1a:e8:a1:66:59:b4:e8:85:b0:91:1e:1c:
                    ba:57:5b:2e:d2:9f:96:81:47:89:cd:9e:bd:66:c1:
                    5b:c5:f5:6a:1d:08:f9:78:8e:df:c8:02:9b:f3:e6:
                    d0:94:da:ee:e5:42:99:74:1e:49:14:0b:76:f3:7d:
                    07:44:16:86:17:08:d2:8d:eb:88:56:ba:6f:00:26:
                    40:b6:2b:e2:92:2b:6c:57:aa:d8:51:86:f8:7a:9f:
                    04:7f:4d:02:50:7c:cd:17:60:6f:2e:95:41:88:e7:
                    6e:42:83:ba:ed:62:2b:16:85:e4:c0:b3:c4:de:ca:
                    fe:85:4f:19:b8:ed:1f:c7:59:ee:79:b5:19:d1:ff:
                    c5:80:15:06:96:d1:c3:1e:4d:a0:3b:21:2c:5b:d9:
                    f2:85
                Exponent: 65537 (0x10001)
        X509v3 extensions:
            X509v3 Basic Constraints: 
                CA:FALSE
            X509v3 Subject Key Identifier: 
                D5:B7:C2:A6:B1:D8:DA:1A:03:F9:9A:51:D1:7F:40:45:58:9F:F4:0C
            X509v3 Authority Key Identifier: 
                keyid:60:C2:86:2E:7B:5A:68:B0:3D:69:D4:FF:DA:51:E0:69:D6:EE:3F:A6
                DirName:/CN=team155-net
                serial:30:8D:4B:4C:1D:99:B7:D9:B1:72:D6:9C:16:6D:C4:E9:C8:30:63:FF

            X509v3 Extended Key Usage: 
                TLS Web Server Authentication
            X509v3 Key Usage: 
                Digital Signature, Key Encipherment
            X509v3 Subject Alternative Name: 
                DNS:team155-server
    Signature Algorithm: sha256WithRSAEncryption
         ad:7c:7f:81:d1:9b:77:d3:78:12:a5:cd:b2:ab:76:22:e9:fa:
         43:3d:a8:b7:1f:4e:3e:37:61:67:1d:5d:56:b3:4c:6f:60:71:
         43:e5:c7:af:49:7d:13:b6:42:f8:16:b9:f6:52:ad:5b:98:31:
         f5:de:ff:cc:63:00:ba:76:ea:da:ca:b0:1d:c2:11:20:fe:01:
         4e:f9:c4:9d:a3:79:12:40:06:5d:f0:bd:53:93:6c:45:bb:ad:
         47:e8:a6:57:98:c9:da:5e:95:e7:e5:4f:d7:9f:75:ef:60:00:
         76:26:34:c0:39:f2:b2:71:f4:a3:50:1c:7d:88:37:3b:b5:f9:
         d1:8a:3c:13:64:95:61:93:ac:78:f2:60:20:c4:83:a4:68:ef:
         d8:1d:8e:f8:36:de:92:a6:d6:76:1b:c9:6e:26:e9:c6:8d:55:
         b1:00:6f:a7:23:42:0d:51:89:cb:85:93:ef:0d:e0:ba:23:71:
         64:48:d4:d3:19:04:90:71:80:f9:f3:32:c0:9b:6a:e3:58:8e:
         a6:77:db:77:0d:af:46:74:52:35:d5:01:df:ec:6a:d1:5e:09:
         25:93:cc:34:8e:a5:08:98:63:56:8b:2e:99:32:6b:bb:3a:bc:
         73:f0:b7:0b:0b:01:de:59:8d:f4:9b:5b:22:8c:04:ad:23:bd:
         71:d7:6f:3e
-----BEGIN CERTIFICATE-----
MIIDeDCCAmCgAwIBAgIRANVSKbEBfAHpId7+5FRIsDgwDQYJKoZIhvcNAQELBQAw
FjEUMBIGA1UEAwwLdGVhbTE1NS1uZXQwHhcNMjIwNTE4MTg0NDM2WhcNMjUwNTAy
MTg0NDM2WjAZMRcwFQYDVQQDDA50ZWFtMTU1LXNlcnZlcjCCASIwDQYJKoZIhvcN
AQEBBQADggEPADCCAQoCggEBAMHr6JoR5wDVQbqeRj3sG8WcQ0sv2T62IpGrDE1Q
sU/x76qsS5r4k1oEfAtioRC81fLqNr+URAKOUFRhXlyWrfN3SWUUf57Mr0e8/d5E
r9NiAe/5tORlHmFQ5c5y5M2VHK6Bc0rzAE65NBJLGuihZlm06IWwkR4culdbLtKf
loFHic2evWbBW8X1ah0I+XiO38gCm/Pm0JTa7uVCmXQeSRQLdvN9B0QWhhcI0o3r
iFa6bwAmQLYr4pIrbFeq2FGG+HqfBH9NAlB8zRdgby6VQYjnbkKDuu1iKxaF5MCz
xN7K/oVPGbjtH8dZ7nm1GdH/xYAVBpbRwx5NoDshLFvZ8oUCAwEAAaOBvTCBujAJ
BgNVHRMEAjAAMB0GA1UdDgQWBBTVt8KmsdjaGgP5mlHRf0BFWJ/0DDBRBgNVHSME
SjBIgBRgwoYue1posD1p1P/aUeBp1u4/pqEapBgwFjEUMBIGA1UEAwwLdGVhbTE1
NS1uZXSCFDCNS0wdmbfZsXLWnBZtxOnIMGP/MBMGA1UdJQQMMAoGCCsGAQUFBwMB
MAsGA1UdDwQEAwIFoDAZBgNVHREEEjAQgg50ZWFtMTU1LXNlcnZlcjANBgkqhkiG
9w0BAQsFAAOCAQEArXx/gdGbd9N4EqXNsqt2Iun6Qz2otx9OPjdhZx1dVrNMb2Bx
Q+XHr0l9E7ZC+Ba59lKtW5gx9d7/zGMAunbq2sqwHcIRIP4BTvnEnaN5EkAGXfC9
U5NsRbutR+imV5jJ2l6V5+VP159172AAdiY0wDnysnH0o1AcfYg3O7X50Yo8E2SV
YZOsePJgIMSDpGjv2B2O+DbekqbWdhvJbibpxo1VsQBvpyNCDVGJy4WT7w3guiNx
ZEjU0xkEkHGA+fMywJtq41iOpnfbdw2vRnRSNdUB3+xq0V4JJZPMNI6lCJhjVosu
mTJruzq8c/C3CwsB3lmN9JtbIowErSO9cddvPg==
-----END CERTIFICATE-----
