Certificate:
    Data:
        Version: 3 (0x2)
        Serial Number:
            c2:35:27:70:19:78:a0:98:85:d0:10:92:c7:94:46:5d
        Signature Algorithm: sha256WithRSAEncryption
        Issuer: CN=team262-net
        Validity
            Not Before: May 18 19:44:26 2022 GMT
            Not After : May  2 19:44:26 2025 GMT
        Subject: CN=team262-server
        Subject Public Key Info:
            Public Key Algorithm: rsaEncryption
                RSA Public-Key: (2048 bit)
                Modulus:
                    00:bf:19:83:43:ce:45:2b:45:d3:04:8c:90:e6:23:
                    6d:5a:f8:99:ba:31:a0:56:e1:1f:f7:52:87:d7:a7:
                    37:c1:d9:80:0c:01:de:8f:7c:a7:6f:58:de:cd:35:
                    34:7d:5c:0a:22:2c:b9:7b:09:06:06:40:3b:37:57:
                    57:e2:41:cb:b9:fb:d0:6e:38:19:3c:4a:ec:24:c8:
                    24:81:cb:34:10:19:05:4d:97:80:a8:bd:d2:9a:d3:
                    68:3d:90:c6:21:74:fc:4b:d8:63:b8:2f:d5:ff:53:
                    e8:a5:1b:64:66:15:78:f1:27:18:73:0a:e0:58:b4:
                    ef:29:c5:e2:45:78:c7:92:0b:ad:a7:bc:9c:9b:9a:
                    84:06:f0:09:17:21:d1:72:af:d9:b2:34:41:9c:4b:
                    b2:8e:d3:d4:95:de:e7:ea:e5:67:94:61:74:d1:b5:
                    fa:e2:8a:a2:93:f7:57:d5:a4:ba:88:3a:80:cd:f6:
                    f9:ce:c3:fe:b2:f9:82:26:4e:4c:ec:19:25:7f:20:
                    f8:fd:77:ee:7b:ee:db:5e:55:2e:80:27:b8:c2:3f:
                    ba:42:42:3b:7a:80:04:7e:61:6d:5c:2a:9d:13:2c:
                    6b:8a:0c:70:f8:b3:7b:d2:96:b1:a1:98:66:e8:89:
                    b0:12:1c:ea:51:68:2d:7f:0b:53:54:53:83:b2:07:
                    59:7f
                Exponent: 65537 (0x10001)
        X509v3 extensions:
            X509v3 Basic Constraints: 
                CA:FALSE
            X509v3 Subject Key Identifier: 
                07:06:0A:6E:49:27:9F:79:CF:08:EB:78:AE:AE:D1:BD:14:30:B7:F8
            X509v3 Authority Key Identifier: 
                keyid:92:B2:C7:AE:8F:AD:23:15:02:18:5F:87:C9:E2:F0:D5:7C:E8:33:A9
                DirName:/CN=team262-net
                serial:38:A6:1A:F8:2C:86:5F:0A:3D:F7:54:3B:3B:D7:93:8C:E7:CE:A6:36

            X509v3 Extended Key Usage: 
                TLS Web Server Authentication
            X509v3 Key Usage: 
                Digital Signature, Key Encipherment
            X509v3 Subject Alternative Name: 
                DNS:team262-server
    Signature Algorithm: sha256WithRSAEncryption
         35:59:b4:ae:e4:a7:e4:fe:8e:08:49:fc:e3:f4:ab:c3:a1:ab:
         d3:37:cb:6b:f3:c5:83:68:75:03:9d:2f:c1:44:0e:11:11:0a:
         05:30:d2:44:ac:50:a4:ce:c8:8b:0c:03:86:81:62:6d:89:03:
         d7:43:62:81:98:6b:db:c0:30:7f:26:aa:f8:96:f3:c3:9e:30:
         93:52:81:70:92:98:f1:7e:fa:cb:df:c8:72:29:82:86:3b:ab:
         25:d4:6d:48:ed:31:c9:a6:39:1a:32:ee:ff:d3:5f:0c:49:50:
         36:32:cd:e0:67:28:da:40:e4:26:72:9e:fd:60:c5:0e:a7:db:
         fb:55:67:53:21:0b:22:fa:e2:a2:2d:8a:56:6a:29:47:10:e4:
         60:3e:75:c4:64:0b:c9:17:da:33:5a:f0:9c:87:e1:7b:3d:e6:
         5f:30:d8:d4:48:d0:d6:a5:20:60:14:83:46:5e:18:0f:f6:2c:
         1e:e2:00:bd:44:37:05:9c:05:2c:94:12:87:08:96:a9:62:e7:
         a3:f8:22:81:e9:d8:83:9e:e6:f3:7f:dc:a2:16:4a:be:87:72:
         3f:37:c7:a6:b8:94:d4:d6:b4:06:ca:bc:6e:91:3b:52:74:39:
         dc:66:89:71:2f:d8:f9:c4:97:98:7b:36:fc:06:38:75:d9:e1:
         cf:84:99:e4
-----BEGIN CERTIFICATE-----
MIIDeDCCAmCgAwIBAgIRAMI1J3AZeKCYhdAQkseURl0wDQYJKoZIhvcNAQELBQAw
FjEUMBIGA1UEAwwLdGVhbTI2Mi1uZXQwHhcNMjIwNTE4MTk0NDI2WhcNMjUwNTAy
MTk0NDI2WjAZMRcwFQYDVQQDDA50ZWFtMjYyLXNlcnZlcjCCASIwDQYJKoZIhvcN
AQEBBQADggEPADCCAQoCggEBAL8Zg0PORStF0wSMkOYjbVr4mboxoFbhH/dSh9en
N8HZgAwB3o98p29Y3s01NH1cCiIsuXsJBgZAOzdXV+JBy7n70G44GTxK7CTIJIHL
NBAZBU2XgKi90prTaD2QxiF0/EvYY7gv1f9T6KUbZGYVePEnGHMK4Fi07ynF4kV4
x5ILrae8nJuahAbwCRch0XKv2bI0QZxLso7T1JXe5+rlZ5RhdNG1+uKKopP3V9Wk
uog6gM32+c7D/rL5giZOTOwZJX8g+P137nvu215VLoAnuMI/ukJCO3qABH5hbVwq
nRMsa4oMcPize9KWsaGYZuiJsBIc6lFoLX8LU1RTg7IHWX8CAwEAAaOBvTCBujAJ
BgNVHRMEAjAAMB0GA1UdDgQWBBQHBgpuSSefec8I63iurtG9FDC3+DBRBgNVHSME
SjBIgBSSsseuj60jFQIYX4fJ4vDVfOgzqaEapBgwFjEUMBIGA1UEAwwLdGVhbTI2
Mi1uZXSCFDimGvgshl8KPfdUOzvXk4znzqY2MBMGA1UdJQQMMAoGCCsGAQUFBwMB
MAsGA1UdDwQEAwIFoDAZBgNVHREEEjAQgg50ZWFtMjYyLXNlcnZlcjANBgkqhkiG
9w0BAQsFAAOCAQEANVm0ruSn5P6OCEn84/Srw6Gr0zfLa/PFg2h1A50vwUQOEREK
BTDSRKxQpM7IiwwDhoFibYkD10NigZhr28Awfyaq+Jbzw54wk1KBcJKY8X76y9/I
cimChjurJdRtSO0xyaY5GjLu/9NfDElQNjLN4Gco2kDkJnKe/WDFDqfb+1VnUyEL
Ivrioi2KVmopRxDkYD51xGQLyRfaM1rwnIfhez3mXzDY1EjQ1qUgYBSDRl4YD/Ys
HuIAvUQ3BZwFLJQShwiWqWLno/gigenYg57m83/cohZKvodyPzfHpriU1Na0Bsq8
bpE7UnQ53GaJcS/Y+cSXmHs2/AY4ddnhz4SZ5A==
-----END CERTIFICATE-----
