Certificate:
    Data:
        Version: 3 (0x2)
        Serial Number:
            41:6f:ef:82:19:e6:07:21:a0:39:4f:87:c4:9c:68:bb
        Signature Algorithm: sha256WithRSAEncryption
        Issuer: CN=team324-net
        Validity
            Not Before: May 18 20:23:17 2022 GMT
            Not After : May  2 20:23:17 2025 GMT
        Subject: CN=team324-server
        Subject Public Key Info:
            Public Key Algorithm: rsaEncryption
                RSA Public-Key: (2048 bit)
                Modulus:
                    00:ad:ba:98:0c:5b:9e:6e:7f:a6:1b:f6:9b:a3:52:
                    34:31:d9:31:a2:d7:55:ab:e0:96:97:91:07:c4:8b:
                    06:1a:52:fb:18:cf:12:1a:38:96:3e:83:7d:f9:b4:
                    0a:04:01:33:e6:0b:8f:8b:be:2d:64:cc:b6:85:48:
                    17:e4:49:ad:fe:c8:cf:8f:72:e2:a2:05:c9:3b:10:
                    22:38:b2:7f:d9:09:a8:6b:26:57:d7:6b:3e:b9:38:
                    2d:1c:47:01:25:8f:fe:b6:c9:f5:01:5a:04:39:7d:
                    9c:ce:61:e8:45:9c:f3:3a:ac:1a:07:ac:74:e8:b0:
                    35:06:cc:77:49:66:61:51:0c:31:2f:7d:c4:05:78:
                    b4:ee:6d:ed:62:e3:a9:96:56:5d:d4:5c:37:dc:7e:
                    ff:8b:24:5e:9b:e0:62:31:e9:f2:ca:5d:f9:51:36:
                    37:3f:be:a9:7d:69:90:dd:91:35:7a:cd:98:64:3d:
                    29:83:63:a9:89:3a:ee:97:60:7c:3b:5b:dd:de:08:
                    49:77:31:fb:89:2d:4e:6a:02:b6:52:97:e8:06:f4:
                    07:65:5b:be:f1:34:69:f0:40:2c:e9:41:41:4c:99:
                    17:de:7a:a1:27:4f:fe:be:9d:fc:59:41:12:ff:ab:
                    04:8f:0f:22:7d:9c:0e:80:03:2a:83:46:d4:16:13:
                    b1:fb
                Exponent: 65537 (0x10001)
        X509v3 extensions:
            X509v3 Basic Constraints: 
                CA:FALSE
            X509v3 Subject Key Identifier: 
                6A:2D:6B:36:3A:79:27:30:7B:B2:C1:00:59:AB:68:FB:2C:95:75:3D
            X509v3 Authority Key Identifier: 
                keyid:CA:15:D5:D8:C3:74:9C:DC:A7:1B:80:7F:E8:C7:8D:16:41:7B:3A:DE
                DirName:/CN=team324-net
                serial:65:F7:EC:FE:EE:40:45:8A:D8:C8:8B:DC:AF:BB:CC:3E:75:82:47:89

            X509v3 Extended Key Usage: 
                TLS Web Server Authentication
            X509v3 Key Usage: 
                Digital Signature, Key Encipherment
            X509v3 Subject Alternative Name: 
                DNS:team324-server
    Signature Algorithm: sha256WithRSAEncryption
         7d:e2:5d:a4:89:f1:ee:06:08:05:5e:b1:09:d0:9a:bb:33:2a:
         db:64:46:21:17:62:6d:6b:aa:61:6e:33:2a:25:00:f5:de:bd:
         54:dc:47:fd:92:70:56:a8:20:4d:8a:30:53:41:d5:5d:e3:15:
         00:94:5f:a9:d9:dc:6e:8a:25:b9:22:fe:5d:4b:3b:90:8f:01:
         82:4e:8c:ef:c6:ca:80:a2:24:f7:2f:86:b9:dc:65:46:35:6c:
         1c:be:7d:78:88:c0:64:31:27:47:3b:c0:08:b8:df:24:80:12:
         26:15:57:ae:65:aa:59:ca:fa:68:33:8c:89:9c:4b:f3:22:70:
         db:6e:c3:c8:a5:d8:e9:a8:93:14:2c:e9:a7:fd:a1:9b:d7:1a:
         1b:20:38:3a:fb:ab:81:cb:18:c1:6d:17:1c:30:04:77:c8:87:
         39:4b:b7:a7:61:9e:bd:89:9d:d9:82:d4:d6:52:53:1b:fa:7e:
         ed:6e:2a:34:45:c5:fe:ea:f0:80:13:d9:d0:a7:82:ce:fe:d5:
         dc:79:53:17:a4:61:7c:4a:4c:2f:5b:95:dc:49:78:97:37:97:
         75:de:76:8d:04:60:42:f0:8b:75:96:37:d7:36:66:cb:80:fd:
         1e:80:b3:0b:2b:2e:cf:df:5b:35:6b:c7:43:57:06:0f:73:58:
         02:74:cc:fe
-----BEGIN CERTIFICATE-----
MIIDdzCCAl+gAwIBAgIQQW/vghnmByGgOU+HxJxouzANBgkqhkiG9w0BAQsFADAW
MRQwEgYDVQQDDAt0ZWFtMzI0LW5ldDAeFw0yMjA1MTgyMDIzMTdaFw0yNTA1MDIy
MDIzMTdaMBkxFzAVBgNVBAMMDnRlYW0zMjQtc2VydmVyMIIBIjANBgkqhkiG9w0B
AQEFAAOCAQ8AMIIBCgKCAQEArbqYDFuebn+mG/abo1I0MdkxotdVq+CWl5EHxIsG
GlL7GM8SGjiWPoN9+bQKBAEz5guPi74tZMy2hUgX5Emt/sjPj3LiogXJOxAiOLJ/
2QmoayZX12s+uTgtHEcBJY/+tsn1AVoEOX2czmHoRZzzOqwaB6x06LA1Bsx3SWZh
UQwxL33EBXi07m3tYuOpllZd1Fw33H7/iyRem+BiMenyyl35UTY3P76pfWmQ3ZE1
es2YZD0pg2OpiTrul2B8O1vd3ghJdzH7iS1OagK2UpfoBvQHZVu+8TRp8EAs6UFB
TJkX3nqhJ0/+vp38WUES/6sEjw8ifZwOgAMqg0bUFhOx+wIDAQABo4G9MIG6MAkG
A1UdEwQCMAAwHQYDVR0OBBYEFGotazY6eScwe7LBAFmraPsslXU9MFEGA1UdIwRK
MEiAFMoV1djDdJzcpxuAf+jHjRZBezreoRqkGDAWMRQwEgYDVQQDDAt0ZWFtMzI0
LW5ldIIUZffs/u5ARYrYyIvcr7vMPnWCR4kwEwYDVR0lBAwwCgYIKwYBBQUHAwEw
CwYDVR0PBAQDAgWgMBkGA1UdEQQSMBCCDnRlYW0zMjQtc2VydmVyMA0GCSqGSIb3
DQEBCwUAA4IBAQB94l2kifHuBggFXrEJ0Jq7MyrbZEYhF2Jta6phbjMqJQD13r1U
3Ef9knBWqCBNijBTQdVd4xUAlF+p2dxuiiW5Iv5dSzuQjwGCTozvxsqAoiT3L4a5
3GVGNWwcvn14iMBkMSdHO8AIuN8kgBImFVeuZapZyvpoM4yJnEvzInDbbsPIpdjp
qJMULOmn/aGb1xobIDg6+6uByxjBbRccMAR3yIc5S7enYZ69iZ3ZgtTWUlMb+n7t
bio0RcX+6vCAE9nQp4LO/tXceVMXpGF8SkwvW5XcSXiXN5d13naNBGBC8It1ljfX
NmbLgP0egLMLKy7P31s1a8dDVwYPc1gCdMz+
-----END CERTIFICATE-----
