Certificate:
    Data:
        Version: 3 (0x2)
        Serial Number:
            60:ea:33:2a:e9:46:19:e3:1a:08:b5:c1:1b:03:ad:88
        Signature Algorithm: sha256WithRSAEncryption
        Issuer: CN=team14-net
        Validity
            Not Before: May 18 14:00:21 2022 GMT
            Not After : May  2 14:00:21 2025 GMT
        Subject: CN=team14-client
        Subject Public Key Info:
            Public Key Algorithm: rsaEncryption
                RSA Public-Key: (2048 bit)
                Modulus:
                    00:c2:66:a4:2a:d7:97:5b:eb:b1:f6:a0:2f:f2:cd:
                    4a:c1:c9:07:b7:9b:c0:3f:c5:9b:83:58:e7:79:a5:
                    db:52:f4:16:0b:6d:89:55:3f:a8:a1:f4:67:a9:a0:
                    bf:eb:31:a0:f2:89:2b:34:47:97:f1:e0:21:97:ec:
                    ed:b3:6b:7a:e3:8a:bf:78:29:11:a5:78:da:dd:8d:
                    3e:12:af:ea:9c:b5:58:41:77:88:03:27:84:d6:5e:
                    30:ab:f5:8e:de:86:e1:5c:f5:35:fc:14:87:b8:95:
                    a8:96:ad:38:3d:aa:e7:80:50:fa:44:b9:99:90:96:
                    a1:68:ec:b6:ea:ae:a3:db:20:ae:03:ff:cc:26:6f:
                    cb:fc:86:84:b6:be:18:22:61:d6:66:cb:14:ac:93:
                    17:0e:6b:07:79:d6:af:3e:6d:15:0e:fb:18:19:55:
                    ee:6d:44:57:2d:6b:30:5a:8a:9e:2c:3d:f3:e3:4b:
                    33:0e:be:e3:c2:de:eb:5e:37:e5:47:3d:f6:e7:0d:
                    83:10:be:0a:23:8e:82:77:9b:87:7f:57:17:f8:c6:
                    34:52:05:91:b9:47:be:58:cb:ed:4f:ed:aa:ec:13:
                    7e:2f:c8:c8:f6:95:94:2a:3f:aa:88:d1:dd:c3:ca:
                    52:a7:aa:99:30:de:29:c8:14:16:bd:d6:20:53:48:
                    43:bb
                Exponent: 65537 (0x10001)
        X509v3 extensions:
            X509v3 Basic Constraints: 
                CA:FALSE
            X509v3 Subject Key Identifier: 
                14:27:D3:BB:14:D8:C9:29:71:4B:79:D5:40:2F:7E:77:58:FB:2E:42
            X509v3 Authority Key Identifier: 
                keyid:1C:83:FA:DD:1D:5C:7E:A0:18:3F:F1:7F:39:87:B9:86:39:91:42:0F
                DirName:/CN=team14-net
                serial:44:9D:23:C9:57:C6:96:C3:B7:82:2C:42:67:66:F5:EA:01:74:68:B9

            X509v3 Extended Key Usage: 
                TLS Web Client Authentication
            X509v3 Key Usage: 
                Digital Signature
    Signature Algorithm: sha256WithRSAEncryption
         52:03:8d:c2:d7:41:4b:40:7b:b6:ad:4e:2c:07:0e:13:2f:81:
         c6:14:bf:60:71:35:aa:59:14:ec:6d:2e:81:aa:d1:14:e6:07:
         ce:6f:85:e5:78:03:1c:13:2c:86:d0:97:bc:0f:be:eb:7f:17:
         7a:c2:af:18:59:08:65:ed:40:10:19:95:8d:eb:96:75:90:58:
         72:3f:41:0f:a3:69:e3:20:eb:a3:42:a4:07:88:58:9c:df:2b:
         d6:fe:7b:f0:6b:f9:5c:b6:b4:43:33:46:47:c7:03:d9:2f:eb:
         dc:95:f6:7c:74:dd:db:1d:f6:23:62:72:c8:6b:c9:38:16:b8:
         b7:eb:b2:48:b7:24:a3:a8:2a:ce:e0:fc:21:46:0c:21:8d:4a:
         19:d1:b7:ed:d2:ec:b9:ee:c6:db:1f:58:77:b4:ed:4a:b2:e5:
         7a:21:79:df:cf:5f:ff:5f:74:84:16:32:e4:d5:1c:81:ff:93:
         1c:b2:6b:94:d9:70:a3:2f:e8:c3:5d:9b:09:64:f3:aa:6e:49:
         7b:c9:52:4d:43:f3:9b:a0:90:63:c6:61:54:f8:7e:be:d2:f0:
         9d:da:6a:a1:98:bd:4d:75:87:a9:7d:d6:b1:75:fb:aa:00:01:
         ce:8c:d6:60:86:90:77:f0:37:7d:e3:f5:7d:6e:12:42:37:a7:
         f1:0a:58:f8
-----BEGIN CERTIFICATE-----
MIIDWTCCAkGgAwIBAgIQYOozKulGGeMaCLXBGwOtiDANBgkqhkiG9w0BAQsFADAV
MRMwEQYDVQQDDAp0ZWFtMTQtbmV0MB4XDTIyMDUxODE0MDAyMVoXDTI1MDUwMjE0
MDAyMVowGDEWMBQGA1UEAwwNdGVhbTE0LWNsaWVudDCCASIwDQYJKoZIhvcNAQEB
BQADggEPADCCAQoCggEBAMJmpCrXl1vrsfagL/LNSsHJB7ebwD/Fm4NY53ml21L0
FgttiVU/qKH0Z6mgv+sxoPKJKzRHl/HgIZfs7bNreuOKv3gpEaV42t2NPhKv6py1
WEF3iAMnhNZeMKv1jt6G4Vz1NfwUh7iVqJatOD2q54BQ+kS5mZCWoWjstuquo9sg
rgP/zCZvy/yGhLa+GCJh1mbLFKyTFw5rB3nWrz5tFQ77GBlV7m1EVy1rMFqKniw9
8+NLMw6+48Le61435Uc99ucNgxC+CiOOgnebh39XF/jGNFIFkblHvljL7U/tquwT
fi/IyPaVlCo/qojR3cPKUqeqmTDeKcgUFr3WIFNIQ7sCAwEAAaOBoTCBnjAJBgNV
HRMEAjAAMB0GA1UdDgQWBBQUJ9O7FNjJKXFLedVAL353WPsuQjBQBgNVHSMESTBH
gBQcg/rdHVx+oBg/8X85h7mGOZFCD6EZpBcwFTETMBEGA1UEAwwKdGVhbTE0LW5l
dIIURJ0jyVfGlsO3gixCZ2b16gF0aLkwEwYDVR0lBAwwCgYIKwYBBQUHAwIwCwYD
VR0PBAQDAgeAMA0GCSqGSIb3DQEBCwUAA4IBAQBSA43C10FLQHu2rU4sBw4TL4HG
FL9gcTWqWRTsbS6BqtEU5gfOb4XleAMcEyyG0Je8D77rfxd6wq8YWQhl7UAQGZWN
65Z1kFhyP0EPo2njIOujQqQHiFic3yvW/nvwa/lctrRDM0ZHxwPZL+vclfZ8dN3b
HfYjYnLIa8k4Fri367JItySjqCrO4PwhRgwhjUoZ0bft0uy57sbbH1h3tO1KsuV6
IXnfz1//X3SEFjLk1RyB/5McsmuU2XCjL+jDXZsJZPOqbkl7yVJNQ/OboJBjxmFU
+H6+0vCd2mqhmL1NdYepfdaxdfuqAAHOjNZghpB38Dd94/V9bhJCN6fxClj4
-----END CERTIFICATE-----
