Certificate:
    Data:
        Version: 3 (0x2)
        Serial Number:
            f3:6f:0e:17:aa:1c:bf:1e:18:57:7a:05:46:10:9c:3b
        Signature Algorithm: sha256WithRSAEncryption
        Issuer: CN=team289-net
        Validity
            Not Before: May 18 19:59:44 2022 GMT
            Not After : May  2 19:59:44 2025 GMT
        Subject: CN=team289-server
        Subject Public Key Info:
            Public Key Algorithm: rsaEncryption
                RSA Public-Key: (2048 bit)
                Modulus:
                    00:b9:96:29:1d:59:62:62:bd:3f:6c:94:bf:b3:b9:
                    54:87:03:fb:39:38:20:fc:9e:e6:f1:93:0e:a1:af:
                    54:2d:75:e6:1f:1d:ea:18:3f:81:9b:5a:e9:e4:92:
                    c9:38:ff:95:44:77:78:b7:97:77:3d:f1:22:9e:f3:
                    cb:a0:66:b2:c9:6a:ba:d6:6d:bd:4f:f1:48:97:26:
                    e6:3c:b8:46:92:ca:72:60:dd:fa:36:b5:ef:26:ce:
                    7f:a5:8b:53:68:fd:91:e7:8c:0a:ee:2c:35:25:70:
                    8c:d6:35:62:0a:66:af:6a:87:d3:c4:99:42:26:10:
                    dc:7d:52:cd:43:2f:3a:dc:4f:ba:01:e0:93:90:f0:
                    ba:ad:c9:7b:65:f9:63:45:d3:20:cd:72:3f:ac:30:
                    07:c1:14:3d:12:7a:f2:21:26:c1:0f:af:c2:b7:4c:
                    aa:2e:15:81:87:3a:b7:4b:43:69:de:0e:95:7b:f2:
                    33:83:1b:3d:15:d6:fa:20:85:67:08:28:f2:be:80:
                    4c:6b:f0:cb:2a:17:6a:4d:9e:71:c9:62:73:53:c9:
                    78:93:fc:89:66:eb:9d:94:d5:cf:f8:1e:f8:3a:f6:
                    6e:d7:1c:48:dc:aa:77:c7:35:b9:38:c8:02:37:bc:
                    21:41:17:fa:3a:b3:28:e6:89:e0:2a:d5:0d:4f:a0:
                    c3:b7
                Exponent: 65537 (0x10001)
        X509v3 extensions:
            X509v3 Basic Constraints: 
                CA:FALSE
            X509v3 Subject Key Identifier: 
                E6:63:4C:51:43:89:CA:7F:95:3E:C4:92:3C:D1:23:15:52:A3:3F:EA
            X509v3 Authority Key Identifier: 
                keyid:00:D8:52:59:CE:10:E1:EA:83:74:0A:F3:C7:7B:2E:B6:D5:21:69:05
                DirName:/CN=team289-net
                serial:7B:62:25:DA:CC:B8:49:9E:FC:AA:09:F6:2A:71:9C:74:6A:F9:A0:FF

            X509v3 Extended Key Usage: 
                TLS Web Server Authentication
            X509v3 Key Usage: 
                Digital Signature, Key Encipherment
            X509v3 Subject Alternative Name: 
                DNS:team289-server
    Signature Algorithm: sha256WithRSAEncryption
         21:75:16:85:79:25:af:d1:26:b2:fa:95:3e:86:a6:b3:56:ab:
         55:03:2c:c6:2e:dc:7b:2e:bc:74:98:fd:e0:fd:d0:65:e2:2e:
         38:f0:c2:8b:1f:9e:c1:71:2b:c1:78:da:ee:19:83:6a:50:f0:
         f3:f5:c4:37:4c:16:8a:53:41:b2:ef:8b:98:c5:c5:6d:01:a7:
         57:0d:77:07:f0:3f:d0:d2:5a:68:8f:a9:72:5e:55:dc:c6:07:
         e7:cd:21:2a:ef:78:f4:2a:6c:e3:52:6f:0d:c1:07:6a:45:45:
         20:73:c8:27:ed:a9:26:c4:72:79:88:e4:8e:de:a4:5d:60:9c:
         6f:0e:1f:fe:96:95:a9:f8:10:6e:ba:38:d6:e8:b7:5f:59:e6:
         4d:77:47:12:40:b5:d8:26:eb:e1:c0:24:a3:6e:69:74:4e:fe:
         54:9f:d8:27:94:20:1a:b6:27:36:9e:c3:ce:a5:23:30:3d:45:
         bf:07:fa:91:0c:dc:cc:a8:e0:96:9f:01:f5:e1:c5:8c:11:1e:
         9c:2b:00:e2:18:6d:e1:8f:f9:0f:78:d8:9a:95:e2:02:e3:f3:
         12:a8:0e:47:bd:e3:3b:6b:cf:d6:28:2e:38:e0:93:cd:24:b3:
         69:db:0c:4c:d2:c1:d7:b2:b8:55:73:e0:86:2f:a9:da:37:8b:
         b3:e4:1e:41
-----BEGIN CERTIFICATE-----
MIIDeDCCAmCgAwIBAgIRAPNvDheqHL8eGFd6BUYQnDswDQYJKoZIhvcNAQELBQAw
FjEUMBIGA1UEAwwLdGVhbTI4OS1uZXQwHhcNMjIwNTE4MTk1OTQ0WhcNMjUwNTAy
MTk1OTQ0WjAZMRcwFQYDVQQDDA50ZWFtMjg5LXNlcnZlcjCCASIwDQYJKoZIhvcN
AQEBBQADggEPADCCAQoCggEBALmWKR1ZYmK9P2yUv7O5VIcD+zk4IPye5vGTDqGv
VC115h8d6hg/gZta6eSSyTj/lUR3eLeXdz3xIp7zy6BmsslqutZtvU/xSJcm5jy4
RpLKcmDd+ja17ybOf6WLU2j9keeMCu4sNSVwjNY1Ygpmr2qH08SZQiYQ3H1SzUMv
OtxPugHgk5Dwuq3Je2X5Y0XTIM1yP6wwB8EUPRJ68iEmwQ+vwrdMqi4VgYc6t0tD
ad4OlXvyM4MbPRXW+iCFZwgo8r6ATGvwyyoXak2ecclic1PJeJP8iWbrnZTVz/ge
+Dr2btccSNyqd8c1uTjIAje8IUEX+jqzKOaJ4CrVDU+gw7cCAwEAAaOBvTCBujAJ
BgNVHRMEAjAAMB0GA1UdDgQWBBTmY0xRQ4nKf5U+xJI80SMVUqM/6jBRBgNVHSME
SjBIgBQA2FJZzhDh6oN0CvPHey621SFpBaEapBgwFjEUMBIGA1UEAwwLdGVhbTI4
OS1uZXSCFHtiJdrMuEme/KoJ9ipxnHRq+aD/MBMGA1UdJQQMMAoGCCsGAQUFBwMB
MAsGA1UdDwQEAwIFoDAZBgNVHREEEjAQgg50ZWFtMjg5LXNlcnZlcjANBgkqhkiG
9w0BAQsFAAOCAQEAIXUWhXklr9EmsvqVPoams1arVQMsxi7cey68dJj94P3QZeIu
OPDCix+ewXErwXja7hmDalDw8/XEN0wWilNBsu+LmMXFbQGnVw13B/A/0NJaaI+p
cl5V3MYH580hKu949Cps41JvDcEHakVFIHPIJ+2pJsRyeYjkjt6kXWCcbw4f/paV
qfgQbro41ui3X1nmTXdHEkC12Cbr4cAko25pdE7+VJ/YJ5QgGrYnNp7DzqUjMD1F
vwf6kQzczKjglp8B9eHFjBEenCsA4hht4Y/5D3jYmpXiAuPzEqgOR73jO2vP1igu
OOCTzSSzadsMTNLB17K4VXPghi+p2jeLs+QeQQ==
-----END CERTIFICATE-----
