Certificate:
    Data:
        Version: 3 (0x2)
        Serial Number:
            bd:34:da:73:ad:4f:ea:01:4f:a2:1c:36:0e:04:88:15
        Signature Algorithm: sha256WithRSAEncryption
        Issuer: CN=team79-net
        Validity
            Not Before: May 18 14:34:44 2022 GMT
            Not After : May  2 14:34:44 2025 GMT
        Subject: CN=team79-client
        Subject Public Key Info:
            Public Key Algorithm: rsaEncryption
                RSA Public-Key: (2048 bit)
                Modulus:
                    00:da:04:5b:dd:e4:bc:f5:44:01:1d:15:6e:be:cd:
                    f5:d6:b6:24:ac:ce:7e:03:d9:c7:3c:c3:27:29:f3:
                    36:49:01:dc:48:13:d8:39:4e:ad:0b:8d:78:88:e1:
                    34:75:4a:79:30:79:bb:f0:61:5d:d0:1e:a4:01:8b:
                    2a:bc:0d:99:3b:88:b5:08:09:c5:37:c9:69:00:2c:
                    64:45:31:55:3d:6f:d2:a5:2b:ce:9f:a3:3d:63:15:
                    66:a3:63:f3:6a:21:96:44:26:85:b8:60:de:15:25:
                    39:3b:f0:92:1b:66:99:80:3b:6a:81:15:72:a0:1c:
                    e4:3f:31:b0:10:c8:06:75:9a:ac:7c:61:d4:44:af:
                    bc:c1:64:ab:44:66:6e:d6:f1:be:16:38:0b:18:87:
                    91:74:ee:7d:e4:a7:29:5e:ce:08:1d:b5:66:cf:93:
                    12:d5:04:85:30:77:41:61:2c:34:a8:cc:ea:5d:d1:
                    54:4f:2a:2c:5c:6d:f7:50:d3:5f:a5:01:b8:cb:c9:
                    d3:b0:b8:3f:ad:8c:e2:cf:dc:32:06:97:b4:cc:36:
                    81:da:92:3a:06:60:df:dc:43:9e:68:69:d2:a1:77:
                    98:ac:08:90:be:22:87:32:d5:3d:57:1f:22:6a:2e:
                    7c:e7:84:1f:f0:9a:61:ba:7c:07:7c:0d:a7:22:42:
                    cb:59
                Exponent: 65537 (0x10001)
        X509v3 extensions:
            X509v3 Basic Constraints: 
                CA:FALSE
            X509v3 Subject Key Identifier: 
                BF:6F:CE:49:01:31:E6:99:65:4D:98:0F:A9:C8:C4:95:EC:49:47:0A
            X509v3 Authority Key Identifier: 
                keyid:9E:7E:D9:2B:F5:61:92:0E:1C:FD:6A:19:47:E6:9B:82:12:B2:35:87
                DirName:/CN=team79-net
                serial:08:6D:92:82:24:C6:6F:0A:13:E0:A5:14:69:49:87:44:FB:1B:87:59

            X509v3 Extended Key Usage: 
                TLS Web Client Authentication
            X509v3 Key Usage: 
                Digital Signature
    Signature Algorithm: sha256WithRSAEncryption
         92:f8:62:cb:f5:f1:60:25:b6:ce:03:e9:bf:6e:aa:ec:27:ac:
         71:11:7f:c3:8d:73:ca:cb:b0:fa:e0:93:81:ef:b3:bf:b6:ae:
         04:77:92:f3:18:f3:b2:ff:10:2d:88:80:11:49:c4:32:2b:72:
         b0:56:26:cf:a2:3d:92:11:17:6d:98:c7:d0:26:be:bd:d9:0e:
         5b:b5:aa:66:e8:bc:fe:bc:b7:55:c8:9e:ec:c5:5f:eb:8b:db:
         41:fc:27:41:e1:4f:5a:3e:c2:18:ca:f3:1c:89:51:22:66:ae:
         a0:d3:c5:6e:c3:04:5d:81:98:ef:8f:f3:c3:55:07:a6:29:d9:
         a7:5f:f7:20:0a:86:5c:5a:ea:d9:a3:16:00:b9:0d:98:15:07:
         da:94:34:46:32:ca:db:e3:33:b3:89:f8:60:97:43:43:2d:c5:
         e0:34:3a:4e:a5:69:62:7d:ca:3a:41:94:60:3e:0b:1d:01:9d:
         bc:37:28:53:56:b6:61:d6:80:7a:f4:12:e5:7a:0c:fc:0e:fd:
         75:d4:5b:9b:7f:ba:55:13:88:d1:f0:5e:61:2a:5d:bc:86:1d:
         23:47:d5:a4:79:80:e0:89:7e:25:01:78:80:03:67:7b:1a:ed:
         b7:cf:21:f2:cb:bb:c6:7a:ca:35:b5:52:d0:39:1f:03:fe:3b:
         f9:bd:51:15
-----BEGIN CERTIFICATE-----
MIIDWjCCAkKgAwIBAgIRAL002nOtT+oBT6IcNg4EiBUwDQYJKoZIhvcNAQELBQAw
FTETMBEGA1UEAwwKdGVhbTc5LW5ldDAeFw0yMjA1MTgxNDM0NDRaFw0yNTA1MDIx
NDM0NDRaMBgxFjAUBgNVBAMMDXRlYW03OS1jbGllbnQwggEiMA0GCSqGSIb3DQEB
AQUAA4IBDwAwggEKAoIBAQDaBFvd5Lz1RAEdFW6+zfXWtiSszn4D2cc8wycp8zZJ
AdxIE9g5Tq0LjXiI4TR1SnkwebvwYV3QHqQBiyq8DZk7iLUICcU3yWkALGRFMVU9
b9KlK86foz1jFWajY/NqIZZEJoW4YN4VJTk78JIbZpmAO2qBFXKgHOQ/MbAQyAZ1
mqx8YdREr7zBZKtEZm7W8b4WOAsYh5F07n3kpylezggdtWbPkxLVBIUwd0FhLDSo
zOpd0VRPKixcbfdQ01+lAbjLydOwuD+tjOLP3DIGl7TMNoHakjoGYN/cQ55oadKh
d5isCJC+Iocy1T1XHyJqLnznhB/wmmG6fAd8DaciQstZAgMBAAGjgaEwgZ4wCQYD
VR0TBAIwADAdBgNVHQ4EFgQUv2/OSQEx5pllTZgPqcjElexJRwowUAYDVR0jBEkw
R4AUnn7ZK/Vhkg4c/WoZR+abghKyNYehGaQXMBUxEzARBgNVBAMMCnRlYW03OS1u
ZXSCFAhtkoIkxm8KE+ClFGlJh0T7G4dZMBMGA1UdJQQMMAoGCCsGAQUFBwMCMAsG
A1UdDwQEAwIHgDANBgkqhkiG9w0BAQsFAAOCAQEAkvhiy/XxYCW2zgPpv26q7Ces
cRF/w41zysuw+uCTge+zv7auBHeS8xjzsv8QLYiAEUnEMitysFYmz6I9khEXbZjH
0Ca+vdkOW7WqZui8/ry3Vcie7MVf64vbQfwnQeFPWj7CGMrzHIlRImauoNPFbsME
XYGY74/zw1UHpinZp1/3IAqGXFrq2aMWALkNmBUH2pQ0RjLK2+Mzs4n4YJdDQy3F
4DQ6TqVpYn3KOkGUYD4LHQGdvDcoU1a2YdaAevQS5XoM/A79ddRbm3+6VROI0fBe
YSpdvIYdI0fVpHmA4Il+JQF4gANnexrtt88h8su7xnrKNbVS0DkfA/47+b1RFQ==
-----END CERTIFICATE-----
