Certificate:
    Data:
        Version: 3 (0x2)
        Serial Number:
            90:03:cd:91:0e:02:5d:1a:e2:20:bd:6f:6b:6b:d1:f8
        Signature Algorithm: sha256WithRSAEncryption
        Issuer: CN=team362-net
        Validity
            Not Before: May 18 20:43:53 2022 GMT
            Not After : May  2 20:43:53 2025 GMT
        Subject: CN=team362-client
        Subject Public Key Info:
            Public Key Algorithm: rsaEncryption
                RSA Public-Key: (2048 bit)
                Modulus:
                    00:9a:ec:c1:82:1c:e0:29:d1:ed:31:61:0b:8e:32:
                    0a:2c:06:b8:15:8d:5b:90:b2:73:d3:aa:f0:30:d6:
                    ef:b2:e6:7c:3b:34:4c:a5:93:ce:30:04:b6:bf:d4:
                    fb:01:88:fc:a3:e3:20:a7:58:79:88:7b:be:3c:af:
                    6c:b9:24:5a:79:6c:9c:c7:7e:5d:a7:c4:27:34:46:
                    cf:0c:05:bb:ef:b0:a0:ae:27:ad:f4:83:bb:30:af:
                    aa:64:1f:a7:72:0c:32:b7:f6:35:ed:2d:2a:e3:3d:
                    12:98:1a:17:9d:0b:15:83:86:3b:c7:3c:36:4c:ed:
                    50:0a:fe:35:69:bd:40:80:00:49:50:03:33:36:5e:
                    84:20:ac:a4:1b:e4:d5:f6:da:2d:ab:f8:e1:5f:2f:
                    8c:d2:e6:0d:88:f7:a3:9c:fa:6b:b6:60:dc:4d:69:
                    03:15:76:20:3b:4d:b0:84:6e:bd:0e:f6:dd:d6:98:
                    70:d3:0c:74:00:c5:05:0a:09:86:6d:1b:ff:e8:1e:
                    5a:ac:db:fc:a7:c1:63:2f:e6:06:ce:8b:d5:a6:84:
                    b1:ba:e6:c5:85:c8:80:bb:1a:aa:b1:5b:31:be:1e:
                    d4:81:b4:59:52:ef:ae:94:61:80:65:91:84:d6:3d:
                    f0:c0:8f:a1:e9:f5:a1:d5:0f:ea:a3:b6:49:38:f9:
                    7f:41
                Exponent: 65537 (0x10001)
        X509v3 extensions:
            X509v3 Basic Constraints: 
                CA:FALSE
            X509v3 Subject Key Identifier: 
                FE:36:C0:15:08:D0:8B:E4:42:A8:3F:3B:86:1C:04:C9:B7:EC:4A:50
            X509v3 Authority Key Identifier: 
                keyid:32:03:46:63:62:CB:21:73:2B:B1:9A:E5:0D:87:72:FA:09:62:DB:D4
                DirName:/CN=team362-net
                serial:1B:72:1C:60:73:67:7E:E0:8C:BC:D7:35:81:A2:3B:39:88:7A:FB:BC

            X509v3 Extended Key Usage: 
                TLS Web Client Authentication
            X509v3 Key Usage: 
                Digital Signature
    Signature Algorithm: sha256WithRSAEncryption
         06:8d:c5:7f:a9:ff:ec:91:44:50:77:93:1b:ed:21:98:56:d8:
         a4:c0:a5:75:3f:5c:90:a1:99:72:be:94:cd:17:52:fc:d8:a5:
         df:d4:e0:c2:7b:fe:0d:63:ff:f0:12:4d:97:5b:aa:68:0b:70:
         da:5e:b1:6a:2d:69:5c:47:6c:8e:c7:83:d9:ee:8e:07:04:78:
         45:d6:8f:9d:92:61:ef:da:d7:7e:4a:da:bc:89:d7:50:2f:ca:
         92:ac:5a:49:d3:f3:53:52:d5:0e:21:90:c4:d6:7c:ae:b7:de:
         7e:b1:93:2f:9e:3d:97:0a:26:c7:15:41:2c:8e:ee:5f:8d:ed:
         c9:da:20:5f:df:93:ee:25:1a:fc:34:b1:b6:d0:52:01:36:ad:
         6d:ea:aa:81:14:75:9a:51:01:95:5b:34:fb:78:c3:31:ca:2f:
         61:2a:f5:dc:07:46:50:48:1e:0f:e1:6e:2f:b1:5e:98:63:13:
         07:9a:39:3a:65:2f:c2:47:ba:bb:97:d4:92:cb:3f:67:0d:c5:
         74:bf:34:b6:c3:4f:39:84:18:7b:4e:7d:8a:04:0e:e4:88:78:
         22:94:eb:4a:c9:9d:96:ca:43:98:64:3e:76:95:1c:fc:b2:94:
         65:9e:fa:e1:94:25:db:bb:cb:3a:73:e0:8a:55:af:84:6c:3a:
         b5:30:61:4b
-----BEGIN CERTIFICATE-----
MIIDXTCCAkWgAwIBAgIRAJADzZEOAl0a4iC9b2tr0fgwDQYJKoZIhvcNAQELBQAw
FjEUMBIGA1UEAwwLdGVhbTM2Mi1uZXQwHhcNMjIwNTE4MjA0MzUzWhcNMjUwNTAy
MjA0MzUzWjAZMRcwFQYDVQQDDA50ZWFtMzYyLWNsaWVudDCCASIwDQYJKoZIhvcN
AQEBBQADggEPADCCAQoCggEBAJrswYIc4CnR7TFhC44yCiwGuBWNW5Cyc9Oq8DDW
77LmfDs0TKWTzjAEtr/U+wGI/KPjIKdYeYh7vjyvbLkkWnlsnMd+XafEJzRGzwwF
u++woK4nrfSDuzCvqmQfp3IMMrf2Ne0tKuM9EpgaF50LFYOGO8c8NkztUAr+NWm9
QIAASVADMzZehCCspBvk1fbaLav44V8vjNLmDYj3o5z6a7Zg3E1pAxV2IDtNsIRu
vQ723daYcNMMdADFBQoJhm0b/+geWqzb/KfBYy/mBs6L1aaEsbrmxYXIgLsaqrFb
Mb4e1IG0WVLvrpRhgGWRhNY98MCPoen1odUP6qO2STj5f0ECAwEAAaOBojCBnzAJ
BgNVHRMEAjAAMB0GA1UdDgQWBBT+NsAVCNCL5EKoPzuGHATJt+xKUDBRBgNVHSME
SjBIgBQyA0ZjYsshcyuxmuUNh3L6CWLb1KEapBgwFjEUMBIGA1UEAwwLdGVhbTM2
Mi1uZXSCFBtyHGBzZ37gjLzXNYGiOzmIevu8MBMGA1UdJQQMMAoGCCsGAQUFBwMC
MAsGA1UdDwQEAwIHgDANBgkqhkiG9w0BAQsFAAOCAQEABo3Ff6n/7JFEUHeTG+0h
mFbYpMCldT9ckKGZcr6UzRdS/Nil39Tgwnv+DWP/8BJNl1uqaAtw2l6xai1pXEds
jseD2e6OBwR4RdaPnZJh79rXfkravInXUC/KkqxaSdPzU1LVDiGQxNZ8rrfefrGT
L549lwomxxVBLI7uX43tydogX9+T7iUa/DSxttBSATatbeqqgRR1mlEBlVs0+3jD
McovYSr13AdGUEgeD+FuL7FemGMTB5o5OmUvwke6u5fUkss/Zw3FdL80tsNPOYQY
e059igQO5Ih4IpTrSsmdlspDmGQ+dpUc/LKUZZ764ZQl27vLOnPgilWvhGw6tTBh
Sw==
-----END CERTIFICATE-----
