Certificate:
    Data:
        Version: 3 (0x2)
        Serial Number:
            61:c6:6b:2e:12:8e:7d:cb:99:c4:8c:96:7e:13:b5:09
        Signature Algorithm: sha256WithRSAEncryption
        Issuer: CN=team441-net
        Validity
            Not Before: May 18 21:12:32 2022 GMT
            Not After : May  2 21:12:32 2025 GMT
        Subject: CN=team441-client
        Subject Public Key Info:
            Public Key Algorithm: rsaEncryption
                RSA Public-Key: (2048 bit)
                Modulus:
                    00:cc:ff:2a:f3:f0:55:79:18:f9:b6:ba:f5:a5:a5:
                    46:db:91:d1:19:c2:51:59:01:bc:83:be:b6:49:54:
                    fa:cf:ce:9b:fc:27:21:98:0a:b8:ea:8f:ff:51:78:
                    59:91:bd:52:70:69:29:4c:bf:33:e3:6f:af:82:be:
                    da:99:22:a9:07:77:85:29:bd:3d:cd:65:59:aa:a0:
                    a0:00:8d:ed:77:b3:53:38:9d:3a:68:1e:25:a8:79:
                    de:c1:e0:fa:50:64:03:8a:4b:48:bb:a7:7a:46:96:
                    a1:1b:c3:dc:01:18:06:11:88:7a:c0:2b:5d:79:8c:
                    61:23:aa:2c:52:82:a9:cb:24:36:47:82:be:ab:15:
                    29:4f:30:b7:0e:a2:d2:5a:88:e7:b7:9c:9e:ff:06:
                    51:8c:14:06:14:aa:16:67:0a:8b:ea:7c:84:53:d8:
                    c4:c9:13:a2:98:86:6e:29:98:fd:f7:88:fe:60:ac:
                    a3:ab:7f:20:a8:19:29:a8:98:81:73:cc:f7:bc:2a:
                    93:9f:28:90:29:ba:40:38:1d:7f:96:b0:2d:c9:be:
                    f3:bb:9b:54:49:d3:9d:49:3d:93:4d:b1:05:ac:da:
                    a8:5c:61:47:3c:32:ac:52:36:e9:4b:45:73:5f:a1:
                    fa:a8:27:45:2d:65:8e:f4:43:53:64:ee:93:f9:1d:
                    2a:7b
                Exponent: 65537 (0x10001)
        X509v3 extensions:
            X509v3 Basic Constraints: 
                CA:FALSE
            X509v3 Subject Key Identifier: 
                3C:83:EB:FB:E3:B5:66:B5:E3:CD:71:13:C3:02:34:60:47:A9:3F:E2
            X509v3 Authority Key Identifier: 
                keyid:7E:E7:A8:3A:15:CC:48:90:29:42:42:53:94:98:F3:AA:69:C0:02:7B
                DirName:/CN=team441-net
                serial:4B:6E:81:18:C7:6C:DC:45:AE:77:2B:2A:4F:B7:3F:2C:44:D0:F5:FE

            X509v3 Extended Key Usage: 
                TLS Web Client Authentication
            X509v3 Key Usage: 
                Digital Signature
    Signature Algorithm: sha256WithRSAEncryption
         23:a3:84:19:5e:6c:9d:e3:fd:a9:4f:e9:26:21:75:6b:b3:f9:
         5c:b7:49:04:aa:87:08:fe:8b:90:a9:8a:ed:27:b0:d5:db:d3:
         91:be:08:1a:8c:0a:a4:aa:35:c2:bc:53:fb:dc:71:68:7a:18:
         b8:e4:43:e6:23:65:15:9f:81:87:37:82:41:6b:05:30:67:ba:
         bf:de:68:67:65:1c:c6:0a:d3:01:fd:35:2c:ad:04:b2:ce:f5:
         cc:df:b9:3c:aa:06:4f:73:21:1b:ef:2e:91:92:e8:78:de:c8:
         20:ec:63:d5:ef:ef:ab:d7:69:bc:92:6c:fa:39:3a:52:2d:d6:
         b4:60:80:86:19:dd:bb:6e:b9:22:5d:8a:82:5c:de:f6:37:37:
         2a:8a:68:f9:35:05:f9:f3:7b:bb:23:eb:57:2e:c0:a8:fb:e5:
         68:f7:a8:8c:29:6e:39:da:01:50:de:ff:83:84:d1:c3:5b:2b:
         dc:1c:24:90:f2:36:eb:8f:1f:1b:01:ed:c1:f7:71:a4:01:cb:
         ba:4e:5b:92:5a:b3:07:ad:1f:28:f0:17:00:71:70:a9:53:d4:
         8e:2c:26:59:f8:36:ab:90:99:84:f7:60:9e:40:c0:60:bf:00:
         f8:a0:07:1f:1d:97:fb:d1:d1:7c:3c:d1:b2:7a:05:fc:ba:0d:
         91:f9:ea:d5
-----BEGIN CERTIFICATE-----
MIIDXDCCAkSgAwIBAgIQYcZrLhKOfcuZxIyWfhO1CTANBgkqhkiG9w0BAQsFADAW
MRQwEgYDVQQDDAt0ZWFtNDQxLW5ldDAeFw0yMjA1MTgyMTEyMzJaFw0yNTA1MDIy
MTEyMzJaMBkxFzAVBgNVBAMMDnRlYW00NDEtY2xpZW50MIIBIjANBgkqhkiG9w0B
AQEFAAOCAQ8AMIIBCgKCAQEAzP8q8/BVeRj5trr1paVG25HRGcJRWQG8g762SVT6
z86b/CchmAq46o//UXhZkb1ScGkpTL8z42+vgr7amSKpB3eFKb09zWVZqqCgAI3t
d7NTOJ06aB4lqHneweD6UGQDiktIu6d6RpahG8PcARgGEYh6wCtdeYxhI6osUoKp
yyQ2R4K+qxUpTzC3DqLSWojnt5ye/wZRjBQGFKoWZwqL6nyEU9jEyROimIZuKZj9
94j+YKyjq38gqBkpqJiBc8z3vCqTnyiQKbpAOB1/lrAtyb7zu5tUSdOdST2TTbEF
rNqoXGFHPDKsUjbpS0VzX6H6qCdFLWWO9ENTZO6T+R0qewIDAQABo4GiMIGfMAkG
A1UdEwQCMAAwHQYDVR0OBBYEFDyD6/vjtWa1481xE8MCNGBHqT/iMFEGA1UdIwRK
MEiAFH7nqDoVzEiQKUJCU5SY86ppwAJ7oRqkGDAWMRQwEgYDVQQDDAt0ZWFtNDQx
LW5ldIIUS26BGMds3EWudysqT7c/LETQ9f4wEwYDVR0lBAwwCgYIKwYBBQUHAwIw
CwYDVR0PBAQDAgeAMA0GCSqGSIb3DQEBCwUAA4IBAQAjo4QZXmyd4/2pT+kmIXVr
s/lct0kEqocI/ouQqYrtJ7DV29ORvggajAqkqjXCvFP73HFoehi45EPmI2UVn4GH
N4JBawUwZ7q/3mhnZRzGCtMB/TUsrQSyzvXM37k8qgZPcyEb7y6Rkuh43sgg7GPV
7++r12m8kmz6OTpSLda0YICGGd27brkiXYqCXN72Nzcqimj5NQX583u7I+tXLsCo
++Vo96iMKW452gFQ3v+DhNHDWyvcHCSQ8jbrjx8bAe3B93GkAcu6TluSWrMHrR8o
8BcAcXCpU9SOLCZZ+DarkJmE92CeQMBgvwD4oAcfHZf70dF8PNGyegX8ug2R+erV
-----END CERTIFICATE-----
