Certificate:
    Data:
        Version: 3 (0x2)
        Serial Number:
            a6:57:4e:a8:29:98:47:b9:82:d9:19:f8:e0:5c:f4:86
        Signature Algorithm: sha256WithRSAEncryption
        Issuer: CN=team445-net
        Validity
            Not Before: May 18 21:13:20 2022 GMT
            Not After : May  2 21:13:20 2025 GMT
        Subject: CN=team445-server
        Subject Public Key Info:
            Public Key Algorithm: rsaEncryption
                RSA Public-Key: (2048 bit)
                Modulus:
                    00:bf:7c:18:b9:2d:9f:15:c1:fb:ee:ba:65:b1:ac:
                    c4:16:1f:c7:91:56:c4:9a:cf:c1:73:10:57:78:41:
                    1a:41:32:a4:f3:23:7a:8b:8d:bd:ee:44:58:29:fc:
                    e8:fd:78:b8:d1:b8:ff:80:f7:09:4c:93:a1:ca:b5:
                    7c:1c:91:79:06:7c:2f:b0:02:b1:4d:38:29:4a:e9:
                    33:e8:3f:97:76:e1:91:6a:07:93:d0:ae:e0:1c:07:
                    71:85:16:37:9a:19:4d:01:7f:23:cc:d0:71:f7:65:
                    be:2f:f1:39:15:17:e7:8b:92:af:97:ac:25:38:9e:
                    5f:bb:b3:08:e4:45:a7:1c:fd:54:f2:93:dd:7b:54:
                    63:a9:2a:93:83:f6:32:6e:f0:79:2b:fa:3e:a8:00:
                    a2:de:08:74:d1:44:d5:ad:c1:7a:40:11:80:52:c4:
                    7b:9d:34:f4:54:80:c0:61:c8:41:68:bc:69:5e:d2:
                    81:08:04:a1:f3:6d:6b:af:15:d3:a9:00:f8:1b:ff:
                    c7:f8:69:9c:78:b1:ac:6a:53:d7:2d:b9:6c:d1:71:
                    2c:ce:16:0e:f1:13:10:31:01:21:ef:54:d6:8a:cf:
                    57:79:83:ad:b0:b2:ae:ce:d7:f4:b4:5f:51:d1:f8:
                    8c:f6:cd:de:42:09:d5:60:0b:96:48:77:d3:fa:19:
                    6c:bb
                Exponent: 65537 (0x10001)
        X509v3 extensions:
            X509v3 Basic Constraints: 
                CA:FALSE
            X509v3 Subject Key Identifier: 
                3A:90:7F:DA:D9:87:24:77:65:60:53:33:F9:24:F3:67:6E:26:C7:63
            X509v3 Authority Key Identifier: 
                keyid:38:CC:B5:C3:10:93:8D:A3:79:B1:20:85:70:E0:A2:46:57:95:73:10
                DirName:/CN=team445-net
                serial:51:11:2C:6C:B2:19:44:6E:27:78:5A:B0:D7:63:4E:3B:5B:CC:EB:18

            X509v3 Extended Key Usage: 
                TLS Web Server Authentication
            X509v3 Key Usage: 
                Digital Signature, Key Encipherment
            X509v3 Subject Alternative Name: 
                DNS:team445-server
    Signature Algorithm: sha256WithRSAEncryption
         69:d0:b0:d9:98:db:f6:51:1f:ed:b8:c7:05:50:ff:b0:d7:af:
         d1:e2:31:d3:8a:ba:eb:c7:59:80:cf:1a:ba:d5:98:3c:18:50:
         b1:ce:5f:14:42:f9:e7:e9:8f:f5:3f:fa:e7:2a:16:f3:a6:e6:
         7f:39:f9:ae:ce:e3:e0:b0:84:03:fc:8d:89:11:46:78:bf:b2:
         7a:9f:f6:0c:89:63:ae:9e:55:4b:73:ef:9d:f0:99:af:a1:35:
         1b:dc:d3:85:66:c9:54:d8:06:be:e5:b3:39:c6:a3:2e:64:ca:
         9b:b8:2d:40:a1:97:ca:19:8c:85:0a:10:cc:5e:4b:04:ad:48:
         8d:71:6d:1b:d6:9e:84:53:c1:28:4e:68:40:19:b1:70:0e:9b:
         36:d6:48:13:1a:07:f2:46:35:54:b1:98:42:71:2b:9f:b7:4c:
         98:b6:9e:b6:63:0b:40:0a:91:61:a6:1c:ce:76:80:9a:68:67:
         08:b5:70:77:a2:9b:e0:29:6b:ae:71:f3:5b:03:a8:23:91:04:
         e9:f5:c4:c2:11:ef:aa:46:b2:24:b6:04:df:c8:bd:24:53:0e:
         b9:3b:80:e5:9e:77:aa:90:90:05:b0:86:d3:1f:34:70:7e:60:
         18:fe:91:47:ba:64:11:b8:2b:cc:a1:d7:fb:d2:af:72:48:3f:
         80:87:be:bc
-----BEGIN CERTIFICATE-----
MIIDeDCCAmCgAwIBAgIRAKZXTqgpmEe5gtkZ+OBc9IYwDQYJKoZIhvcNAQELBQAw
FjEUMBIGA1UEAwwLdGVhbTQ0NS1uZXQwHhcNMjIwNTE4MjExMzIwWhcNMjUwNTAy
MjExMzIwWjAZMRcwFQYDVQQDDA50ZWFtNDQ1LXNlcnZlcjCCASIwDQYJKoZIhvcN
AQEBBQADggEPADCCAQoCggEBAL98GLktnxXB++66ZbGsxBYfx5FWxJrPwXMQV3hB
GkEypPMjeouNve5EWCn86P14uNG4/4D3CUyTocq1fByReQZ8L7ACsU04KUrpM+g/
l3bhkWoHk9Cu4BwHcYUWN5oZTQF/I8zQcfdlvi/xORUX54uSr5esJTieX7uzCORF
pxz9VPKT3XtUY6kqk4P2Mm7weSv6PqgAot4IdNFE1a3BekARgFLEe5009FSAwGHI
QWi8aV7SgQgEofNta68V06kA+Bv/x/hpnHixrGpT1y25bNFxLM4WDvETEDEBIe9U
1orPV3mDrbCyrs7X9LRfUdH4jPbN3kIJ1WALlkh30/oZbLsCAwEAAaOBvTCBujAJ
BgNVHRMEAjAAMB0GA1UdDgQWBBQ6kH/a2Yckd2VgUzP5JPNnbibHYzBRBgNVHSME
SjBIgBQ4zLXDEJONo3mxIIVw4KJGV5VzEKEapBgwFjEUMBIGA1UEAwwLdGVhbTQ0
NS1uZXSCFFERLGyyGURuJ3hasNdjTjtbzOsYMBMGA1UdJQQMMAoGCCsGAQUFBwMB
MAsGA1UdDwQEAwIFoDAZBgNVHREEEjAQgg50ZWFtNDQ1LXNlcnZlcjANBgkqhkiG
9w0BAQsFAAOCAQEAadCw2Zjb9lEf7bjHBVD/sNev0eIx04q668dZgM8autWYPBhQ
sc5fFEL55+mP9T/65yoW86bmfzn5rs7j4LCEA/yNiRFGeL+yep/2DIljrp5VS3Pv
nfCZr6E1G9zThWbJVNgGvuWzOcajLmTKm7gtQKGXyhmMhQoQzF5LBK1IjXFtG9ae
hFPBKE5oQBmxcA6bNtZIExoH8kY1VLGYQnErn7dMmLaetmMLQAqRYaYcznaAmmhn
CLVwd6Kb4ClrrnHzWwOoI5EE6fXEwhHvqkayJLYE38i9JFMOuTuA5Z53qpCQBbCG
0x80cH5gGP6RR7pkEbgrzKHX+9Kvckg/gIe+vA==
-----END CERTIFICATE-----
