Certificate:
    Data:
        Version: 3 (0x2)
        Serial Number:
            3d:64:6a:f1:02:10:c1:e7:7d:7a:a1:6f:c3:1b:2f:ea
        Signature Algorithm: sha256WithRSAEncryption
        Issuer: CN=team111-net
        Validity
            Not Before: May 18 14:56:05 2022 GMT
            Not After : May  2 14:56:05 2025 GMT
        Subject: CN=team111-client
        Subject Public Key Info:
            Public Key Algorithm: rsaEncryption
                RSA Public-Key: (2048 bit)
                Modulus:
                    00:b0:c1:e0:08:58:4b:21:f0:31:58:f4:af:3a:0a:
                    f9:ab:cd:3b:d1:c8:8a:1b:a9:a6:0e:44:cb:aa:b5:
                    76:e4:c3:6e:eb:ad:f7:1e:51:28:96:5d:7f:15:cc:
                    55:d6:2f:fe:b8:65:76:1c:dd:42:fa:51:63:43:3e:
                    4b:08:0d:3e:8f:24:1a:9c:4a:02:22:67:c6:03:19:
                    14:2a:80:73:62:b4:bc:28:20:57:1c:f4:8c:48:02:
                    77:97:44:0c:76:cd:cd:04:c1:bc:39:65:9a:56:ab:
                    88:0b:41:46:21:7c:3d:45:60:bb:d7:24:51:75:08:
                    81:5c:c4:df:eb:4f:54:5f:31:e7:21:2e:34:16:88:
                    bf:07:36:3d:a7:17:fc:37:06:96:d4:dd:34:8c:d3:
                    16:42:52:e8:cf:ee:9d:6a:65:3f:d6:d6:3f:83:61:
                    f9:74:eb:aa:60:05:ab:32:c8:90:d0:a2:76:00:27:
                    8f:e5:87:d8:cf:05:08:c7:57:47:08:03:47:48:5e:
                    27:61:d0:7c:10:4e:79:32:ac:27:85:1f:fd:5e:f4:
                    90:e6:27:5e:7a:d5:d7:cb:80:2c:92:c9:9e:1b:db:
                    b3:12:1f:2d:7d:dd:a9:7e:77:cd:18:43:24:a3:97:
                    7a:1b:00:b8:6d:cc:27:e6:a0:97:48:a5:8c:11:af:
                    c7:2f
                Exponent: 65537 (0x10001)
        X509v3 extensions:
            X509v3 Basic Constraints: 
                CA:FALSE
            X509v3 Subject Key Identifier: 
                11:0C:38:D1:14:09:19:06:0A:7B:3A:D8:E3:FA:A4:D0:0B:18:88:DC
            X509v3 Authority Key Identifier: 
                keyid:58:92:E4:31:A4:D3:90:BB:83:23:98:DC:90:2A:B0:7E:17:50:60:D4
                DirName:/CN=team111-net
                serial:6E:55:4E:DD:58:45:8C:19:49:C9:4D:7A:06:CB:18:DC:17:DD:A3:C4

            X509v3 Extended Key Usage: 
                TLS Web Client Authentication
            X509v3 Key Usage: 
                Digital Signature
    Signature Algorithm: sha256WithRSAEncryption
         7b:51:61:a9:59:8d:e6:e9:81:8a:bf:ea:9d:ac:d5:fe:35:93:
         0d:d3:63:44:bd:4a:92:34:5a:d8:ec:ad:67:c6:c1:ad:78:df:
         71:56:3d:56:17:9a:d9:f9:fb:bb:fc:78:fe:20:1d:f2:a1:16:
         ab:54:85:99:8e:aa:65:b2:62:80:5e:e4:95:15:5f:ed:e9:96:
         7c:1d:23:14:28:cb:7d:02:84:d4:af:fb:a8:71:d8:24:ec:5a:
         ea:d3:27:9c:95:49:cd:37:e3:ae:ea:2a:c7:fa:ec:fb:a9:d5:
         7b:5f:ae:ec:a4:27:ca:69:3d:24:47:59:b1:02:c1:74:a5:69:
         f3:d9:51:54:dc:57:19:d4:1f:ab:4e:e8:f1:31:21:ac:47:46:
         9c:3b:e1:3c:5f:dc:7b:e2:6c:75:4e:b2:fd:2d:bd:40:36:44:
         16:ba:0e:ea:ad:39:86:6c:4f:a4:4f:33:a8:e9:12:32:92:2d:
         13:7f:fe:03:55:4a:3e:0d:46:c2:31:22:b1:52:38:12:2c:3d:
         12:72:18:64:75:cb:11:a6:d8:19:1c:c9:f2:4d:bf:02:22:d6:
         e5:0d:c0:48:c0:b5:fe:c5:75:cb:25:51:81:b7:b2:f9:d7:9a:
         fb:6f:1b:db:ad:91:be:5c:73:9c:c9:2c:3d:bf:0f:1c:65:4c:
         8c:c4:b5:f4
-----BEGIN CERTIFICATE-----
MIIDXDCCAkSgAwIBAgIQPWRq8QIQwed9eqFvwxsv6jANBgkqhkiG9w0BAQsFADAW
MRQwEgYDVQQDDAt0ZWFtMTExLW5ldDAeFw0yMjA1MTgxNDU2MDVaFw0yNTA1MDIx
NDU2MDVaMBkxFzAVBgNVBAMMDnRlYW0xMTEtY2xpZW50MIIBIjANBgkqhkiG9w0B
AQEFAAOCAQ8AMIIBCgKCAQEAsMHgCFhLIfAxWPSvOgr5q8070ciKG6mmDkTLqrV2
5MNu6633HlEoll1/FcxV1i/+uGV2HN1C+lFjQz5LCA0+jyQanEoCImfGAxkUKoBz
YrS8KCBXHPSMSAJ3l0QMds3NBMG8OWWaVquIC0FGIXw9RWC71yRRdQiBXMTf609U
XzHnIS40Foi/BzY9pxf8NwaW1N00jNMWQlLoz+6damU/1tY/g2H5dOuqYAWrMsiQ
0KJ2ACeP5YfYzwUIx1dHCANHSF4nYdB8EE55MqwnhR/9XvSQ5ideetXXy4Asksme
G9uzEh8tfd2pfnfNGEMko5d6GwC4bcwn5qCXSKWMEa/HLwIDAQABo4GiMIGfMAkG
A1UdEwQCMAAwHQYDVR0OBBYEFBEMONEUCRkGCns62OP6pNALGIjcMFEGA1UdIwRK
MEiAFFiS5DGk05C7gyOY3JAqsH4XUGDUoRqkGDAWMRQwEgYDVQQDDAt0ZWFtMTEx
LW5ldIIUblVO3VhFjBlJyU16BssY3Bfdo8QwEwYDVR0lBAwwCgYIKwYBBQUHAwIw
CwYDVR0PBAQDAgeAMA0GCSqGSIb3DQEBCwUAA4IBAQB7UWGpWY3m6YGKv+qdrNX+
NZMN02NEvUqSNFrY7K1nxsGteN9xVj1WF5rZ+fu7/Hj+IB3yoRarVIWZjqplsmKA
XuSVFV/t6ZZ8HSMUKMt9AoTUr/uocdgk7Frq0yeclUnNN+Ou6irH+uz7qdV7X67s
pCfKaT0kR1mxAsF0pWnz2VFU3FcZ1B+rTujxMSGsR0acO+E8X9x74mx1TrL9Lb1A
NkQWug7qrTmGbE+kTzOo6RIyki0Tf/4DVUo+DUbCMSKxUjgSLD0SchhkdcsRptgZ
HMnyTb8CItblDcBIwLX+xXXLJVGBt7L515r7bxvbrZG+XHOcySw9vw8cZUyMxLX0
-----END CERTIFICATE-----
