Certificate:
    Data:
        Version: 3 (0x2)
        Serial Number:
            e9:e5:d4:2c:d8:ce:14:ef:20:e7:f8:8b:c0:4b:a4:b5
        Signature Algorithm: sha256WithRSAEncryption
        Issuer: CN=team67-net
        Validity
            Not Before: May 18 14:31:05 2022 GMT
            Not After : May  2 14:31:05 2025 GMT
        Subject: CN=team67-client
        Subject Public Key Info:
            Public Key Algorithm: rsaEncryption
                RSA Public-Key: (2048 bit)
                Modulus:
                    00:e5:da:20:34:a2:e4:7d:cb:6d:d7:5c:8f:ea:19:
                    77:c4:3f:57:57:67:c0:e6:6f:01:51:d9:a2:dd:f4:
                    f7:ba:1a:3b:d3:f7:68:3f:54:e9:1e:e5:1b:d7:c2:
                    ba:e3:69:c7:59:22:18:05:03:b0:4e:77:04:bb:79:
                    ee:85:d2:4f:4e:b3:56:17:55:2f:d5:da:34:4a:99:
                    67:58:55:30:22:7f:35:22:55:59:41:4a:41:1b:e0:
                    d2:62:3d:e3:ed:4b:be:44:54:34:a8:ae:7f:c7:29:
                    60:64:f6:13:1f:0e:d1:57:3d:78:f8:9c:62:2d:f2:
                    8e:cd:69:cb:19:0b:31:4f:29:ce:13:ba:86:09:15:
                    c2:c7:2d:56:0c:e3:60:3c:0f:3f:c0:fc:dd:b9:b5:
                    b6:08:36:80:11:fd:43:ac:8f:4f:a2:36:0a:55:75:
                    59:14:1f:b2:ff:5b:33:47:0b:73:93:cb:92:1b:cd:
                    4a:5a:47:1f:c9:4f:50:60:56:cb:95:4b:cd:f6:29:
                    70:a2:39:e8:7c:5d:7f:f0:43:00:f9:ab:22:1b:e6:
                    fd:af:e6:ed:c2:14:d2:e0:9d:43:fd:b2:e9:92:a7:
                    7e:48:e2:35:26:e4:85:e6:6e:4e:00:6f:c5:c9:0e:
                    20:e4:94:18:8b:2e:c3:db:5a:91:bb:63:fe:11:d6:
                    36:c1
                Exponent: 65537 (0x10001)
        X509v3 extensions:
            X509v3 Basic Constraints: 
                CA:FALSE
            X509v3 Subject Key Identifier: 
                A9:38:3B:84:0B:EA:6D:E8:9F:F3:F6:BC:F6:F7:BD:A6:62:F3:7F:F1
            X509v3 Authority Key Identifier: 
                keyid:0D:BA:90:52:E3:7E:16:90:B1:AD:6F:FE:40:1C:5E:FE:35:8A:9C:2F
                DirName:/CN=team67-net
                serial:12:DC:8F:E9:93:62:E6:65:75:48:8E:CC:57:73:EC:98:0A:8B:6A:B9

            X509v3 Extended Key Usage: 
                TLS Web Client Authentication
            X509v3 Key Usage: 
                Digital Signature
    Signature Algorithm: sha256WithRSAEncryption
         6f:5b:dc:23:ff:0b:bb:0b:e1:e6:c8:4b:94:20:ae:e7:2a:ae:
         28:5d:19:14:13:ad:77:d2:b8:c1:9b:51:37:6a:b1:7b:99:e0:
         5b:4e:f7:e7:98:77:b6:bd:d5:66:d5:49:47:25:b3:5e:3a:9a:
         e7:31:fa:2c:50:0e:21:12:f5:2d:28:bc:33:0d:01:ac:0c:f6:
         a5:70:48:30:e5:cf:bd:92:d6:cb:aa:60:97:14:7b:4e:3e:62:
         b2:b4:73:48:07:8c:d8:59:73:9c:4e:fc:a1:de:61:bc:21:17:
         2d:ca:f6:11:9a:2f:90:c9:68:af:c1:2f:b9:9c:fe:9d:6a:27:
         d3:0e:49:3b:ba:6b:d0:a7:bb:61:c8:ee:94:e2:6b:b5:e9:07:
         de:4f:51:63:6a:5b:16:31:a8:21:89:22:4c:0d:52:39:3b:c7:
         1c:90:08:34:2c:aa:21:72:9a:8d:63:9b:d5:77:a1:32:8b:7c:
         c5:ee:84:5d:02:df:e6:9a:aa:02:9e:34:cd:ec:74:67:1f:8c:
         dc:23:35:a5:67:a2:30:44:d8:93:1f:ad:47:d8:6b:12:c3:fa:
         3f:09:24:fa:5c:d9:03:13:3d:a5:83:2b:84:14:c2:46:7c:61:
         73:ff:63:a2:fb:cd:e1:61:97:72:55:e3:0e:df:98:69:c4:93:
         4a:3c:b7:f5
-----BEGIN CERTIFICATE-----
MIIDWjCCAkKgAwIBAgIRAOnl1CzYzhTvIOf4i8BLpLUwDQYJKoZIhvcNAQELBQAw
FTETMBEGA1UEAwwKdGVhbTY3LW5ldDAeFw0yMjA1MTgxNDMxMDVaFw0yNTA1MDIx
NDMxMDVaMBgxFjAUBgNVBAMMDXRlYW02Ny1jbGllbnQwggEiMA0GCSqGSIb3DQEB
AQUAA4IBDwAwggEKAoIBAQDl2iA0ouR9y23XXI/qGXfEP1dXZ8DmbwFR2aLd9Pe6
GjvT92g/VOke5RvXwrrjacdZIhgFA7BOdwS7ee6F0k9Os1YXVS/V2jRKmWdYVTAi
fzUiVVlBSkEb4NJiPePtS75EVDSorn/HKWBk9hMfDtFXPXj4nGIt8o7NacsZCzFP
Kc4TuoYJFcLHLVYM42A8Dz/A/N25tbYINoAR/UOsj0+iNgpVdVkUH7L/WzNHC3OT
y5IbzUpaRx/JT1BgVsuVS832KXCiOeh8XX/wQwD5qyIb5v2v5u3CFNLgnUP9sumS
p35I4jUm5IXmbk4Ab8XJDiDklBiLLsPbWpG7Y/4R1jbBAgMBAAGjgaEwgZ4wCQYD
VR0TBAIwADAdBgNVHQ4EFgQUqTg7hAvqbeif8/a89ve9pmLzf/EwUAYDVR0jBEkw
R4AUDbqQUuN+FpCxrW/+QBxe/jWKnC+hGaQXMBUxEzARBgNVBAMMCnRlYW02Ny1u
ZXSCFBLcj+mTYuZldUiOzFdz7JgKi2q5MBMGA1UdJQQMMAoGCCsGAQUFBwMCMAsG
A1UdDwQEAwIHgDANBgkqhkiG9w0BAQsFAAOCAQEAb1vcI/8Luwvh5shLlCCu5yqu
KF0ZFBOtd9K4wZtRN2qxe5ngW07355h3tr3VZtVJRyWzXjqa5zH6LFAOIRL1LSi8
Mw0BrAz2pXBIMOXPvZLWy6pglxR7Tj5isrRzSAeM2FlznE78od5hvCEXLcr2EZov
kMlor8EvuZz+nWon0w5JO7pr0Ke7YcjulOJrtekH3k9RY2pbFjGoIYkiTA1SOTvH
HJAINCyqIXKajWOb1XehMot8xe6EXQLf5pqqAp40zex0Zx+M3CM1pWeiMETYkx+t
R9hrEsP6Pwkk+lzZAxM9pYMrhBTCRnxhc/9jovvN4WGXclXjDt+YacSTSjy39Q==
-----END CERTIFICATE-----
