Certificate:
    Data:
        Version: 3 (0x2)
        Serial Number:
            23:63:38:47:12:be:68:7c:62:96:89:6c:70:32:a8:3e
        Signature Algorithm: sha256WithRSAEncryption
        Issuer: CN=team694-net
        Validity
            Not Before: May 18 23:43:35 2022 GMT
            Not After : May  2 23:43:35 2025 GMT
        Subject: CN=team694-server
        Subject Public Key Info:
            Public Key Algorithm: rsaEncryption
                RSA Public-Key: (2048 bit)
                Modulus:
                    00:d0:ee:f2:6b:3b:c0:13:ef:b8:3c:ee:e2:3d:36:
                    97:21:a5:9b:37:11:2e:58:31:7c:7a:7a:73:5b:7a:
                    31:0e:e5:f9:cb:44:13:36:c5:d8:0c:73:11:0f:ae:
                    0e:47:93:7e:37:d6:52:0f:15:13:9c:dc:39:41:ef:
                    80:69:33:ac:a4:c7:d2:9e:bb:eb:1d:77:2f:11:b0:
                    d9:86:86:df:43:53:c0:0e:10:e3:64:1d:9e:f7:92:
                    42:d5:ae:b8:16:4c:28:b1:f4:2c:89:16:02:1b:98:
                    4b:29:93:73:5d:1c:e3:7f:66:0d:13:d7:ad:78:d2:
                    4c:b1:18:25:92:4e:c6:cf:c1:c6:b3:73:63:84:6a:
                    ef:2e:ed:01:c3:85:35:5e:b4:a7:22:dc:54:84:12:
                    6d:ed:f6:77:e8:cd:55:c3:c5:6c:5b:f3:12:40:09:
                    d5:a0:f0:11:12:c3:bd:41:bc:b0:b4:9b:c7:f8:67:
                    03:0f:e6:e8:4e:e1:eb:ec:33:70:c6:8d:ac:70:59:
                    8d:3a:c5:3e:b4:f5:17:7c:73:65:71:bc:1d:92:b2:
                    ec:ef:c5:e1:88:79:19:cc:7c:01:a4:b6:31:19:ec:
                    6c:71:e4:0d:82:62:66:85:81:a1:b8:a5:b5:0a:23:
                    3c:3f:6b:52:f0:fc:a6:07:0c:43:f2:66:54:17:cf:
                    bd:a1
                Exponent: 65537 (0x10001)
        X509v3 extensions:
            X509v3 Basic Constraints: 
                CA:FALSE
            X509v3 Subject Key Identifier: 
                5F:03:19:9F:9A:60:0B:5E:37:BE:E9:A7:1E:B6:81:65:EF:BF:EC:CD
            X509v3 Authority Key Identifier: 
                keyid:3B:95:BC:B0:96:A8:15:11:0A:A8:B3:67:81:AF:7B:C6:98:67:1A:47
                DirName:/CN=team694-net
                serial:17:4D:97:25:74:59:FA:5F:F6:27:95:0C:70:F6:B9:26:C3:AC:12:0B

            X509v3 Extended Key Usage: 
                TLS Web Server Authentication
            X509v3 Key Usage: 
                Digital Signature, Key Encipherment
            X509v3 Subject Alternative Name: 
                DNS:team694-server
    Signature Algorithm: sha256WithRSAEncryption
         2a:f8:51:c9:c2:a3:6a:72:e5:bf:e2:08:93:79:34:49:e3:bb:
         ae:83:a8:4f:f4:85:38:2b:91:57:f8:91:dd:0f:db:72:20:33:
         81:31:db:72:63:25:ea:3b:a3:a5:9a:64:75:bb:9b:59:a3:54:
         40:04:98:0f:ca:2f:8b:66:61:af:b2:dd:8a:68:14:2c:39:48:
         84:a2:91:2f:fe:a4:4d:c3:b9:fc:be:bd:b4:1c:51:b7:a5:3d:
         f3:69:d4:a9:d4:cc:dd:0a:6e:0d:d1:50:8b:e5:2a:d2:a5:af:
         74:6a:3f:04:e7:2b:2a:a2:bc:8e:1b:a8:ac:27:e6:f3:64:43:
         d3:c7:04:a2:bf:94:25:06:ec:aa:2a:26:8a:ba:24:0a:dd:19:
         36:ad:81:de:78:58:64:2d:40:b9:17:3a:e6:cc:ed:60:82:d0:
         d6:ae:48:e3:94:7a:f3:77:f2:d7:5e:7c:bd:99:8c:8e:87:ed:
         d3:55:1d:1e:f6:f6:c6:18:a0:8e:d5:29:a2:27:4b:28:a2:a0:
         7f:e0:36:6e:84:da:56:bb:ac:89:92:c9:34:98:e7:a5:82:6d:
         d4:6a:38:2b:1e:7c:2b:10:d4:ef:50:37:d0:75:22:dd:c0:a1:
         ce:3b:a8:15:51:d4:d7:08:da:01:87:fd:86:c0:7c:b3:6e:db:
         59:f9:34:ac
-----BEGIN CERTIFICATE-----
MIIDdzCCAl+gAwIBAgIQI2M4RxK+aHxilolscDKoPjANBgkqhkiG9w0BAQsFADAW
MRQwEgYDVQQDDAt0ZWFtNjk0LW5ldDAeFw0yMjA1MTgyMzQzMzVaFw0yNTA1MDIy
MzQzMzVaMBkxFzAVBgNVBAMMDnRlYW02OTQtc2VydmVyMIIBIjANBgkqhkiG9w0B
AQEFAAOCAQ8AMIIBCgKCAQEA0O7yazvAE++4PO7iPTaXIaWbNxEuWDF8enpzW3ox
DuX5y0QTNsXYDHMRD64OR5N+N9ZSDxUTnNw5Qe+AaTOspMfSnrvrHXcvEbDZhobf
Q1PADhDjZB2e95JC1a64FkwosfQsiRYCG5hLKZNzXRzjf2YNE9eteNJMsRglkk7G
z8HGs3NjhGrvLu0Bw4U1XrSnItxUhBJt7fZ36M1Vw8VsW/MSQAnVoPAREsO9Qbyw
tJvH+GcDD+boTuHr7DNwxo2scFmNOsU+tPUXfHNlcbwdkrLs78XhiHkZzHwBpLYx
GexsceQNgmJmhYGhuKW1CiM8P2tS8PymBwxD8mZUF8+9oQIDAQABo4G9MIG6MAkG
A1UdEwQCMAAwHQYDVR0OBBYEFF8DGZ+aYAteN77ppx62gWXvv+zNMFEGA1UdIwRK
MEiAFDuVvLCWqBURCqizZ4Gve8aYZxpHoRqkGDAWMRQwEgYDVQQDDAt0ZWFtNjk0
LW5ldIIUF02XJXRZ+l/2J5UMcPa5JsOsEgswEwYDVR0lBAwwCgYIKwYBBQUHAwEw
CwYDVR0PBAQDAgWgMBkGA1UdEQQSMBCCDnRlYW02OTQtc2VydmVyMA0GCSqGSIb3
DQEBCwUAA4IBAQAq+FHJwqNqcuW/4giTeTRJ47uug6hP9IU4K5FX+JHdD9tyIDOB
MdtyYyXqO6OlmmR1u5tZo1RABJgPyi+LZmGvst2KaBQsOUiEopEv/qRNw7n8vr20
HFG3pT3zadSp1MzdCm4N0VCL5SrSpa90aj8E5ysqoryOG6isJ+bzZEPTxwSiv5Ql
BuyqKiaKuiQK3Rk2rYHeeFhkLUC5FzrmzO1ggtDWrkjjlHrzd/LXXny9mYyOh+3T
VR0e9vbGGKCO1SmiJ0sooqB/4DZuhNpWu6yJksk0mOelgm3UajgrHnwrENTvUDfQ
dSLdwKHOO6gVUdTXCNoBh/2GwHyzbttZ+TSs
-----END CERTIFICATE-----
