Certificate:
    Data:
        Version: 3 (0x2)
        Serial Number:
            de:2c:0f:46:d2:21:f8:db:e5:e1:fb:8e:67:a8:bd:12
        Signature Algorithm: sha256WithRSAEncryption
        Issuer: CN=team201-net
        Validity
            Not Before: May 18 19:11:25 2022 GMT
            Not After : May  2 19:11:25 2025 GMT
        Subject: CN=team201-server
        Subject Public Key Info:
            Public Key Algorithm: rsaEncryption
                RSA Public-Key: (2048 bit)
                Modulus:
                    00:b7:5d:8d:79:eb:f9:4c:07:c7:c1:4b:a9:4e:2a:
                    e4:6c:09:8d:0b:4e:73:89:e6:b7:bd:1c:35:9b:e4:
                    9b:cd:0d:ed:e1:25:7b:aa:18:43:ab:e1:1f:ac:7a:
                    37:7d:3d:1a:e0:6e:96:9e:a7:57:12:1f:90:34:70:
                    b2:72:8a:3f:05:72:14:92:17:21:82:45:0a:e7:42:
                    cb:0d:16:1c:2f:fc:6f:69:cc:a3:7d:48:7c:93:62:
                    39:a5:31:77:d8:b1:0e:50:19:79:0a:23:a3:54:55:
                    fd:2b:e3:1f:f2:1b:b2:8e:e3:66:cb:06:42:15:73:
                    75:5c:21:65:ee:62:07:e3:aa:13:c5:60:4d:00:0a:
                    b9:46:0e:db:8f:d1:54:18:a8:3e:62:c5:fc:c6:6f:
                    24:ec:66:19:57:d4:2a:64:8d:59:82:06:b7:e0:92:
                    83:cf:7a:21:f1:20:31:16:fa:04:a3:72:54:36:95:
                    86:46:d1:02:57:90:b6:a3:0a:15:ab:1d:48:83:55:
                    ec:fc:27:17:78:1e:1a:81:e9:57:77:ac:60:33:78:
                    55:e7:36:b1:34:74:1f:7a:2a:b2:88:1a:e8:38:49:
                    32:ba:2a:4f:93:48:9f:cd:69:97:ed:c5:93:de:cd:
                    aa:25:30:68:15:b1:83:bd:da:d0:e0:ac:98:3f:57:
                    c4:d3
                Exponent: 65537 (0x10001)
        X509v3 extensions:
            X509v3 Basic Constraints: 
                CA:FALSE
            X509v3 Subject Key Identifier: 
                DF:95:66:BA:61:5E:B3:61:95:56:E2:76:3C:59:66:36:E2:72:73:9E
            X509v3 Authority Key Identifier: 
                keyid:DD:0C:31:9D:D8:4F:9D:90:0F:36:8A:75:B4:49:34:79:30:1B:4C:DD
                DirName:/CN=team201-net
                serial:65:F2:C2:D7:0E:33:78:68:B0:2A:F3:14:E2:72:61:97:33:CD:37:74

            X509v3 Extended Key Usage: 
                TLS Web Server Authentication
            X509v3 Key Usage: 
                Digital Signature, Key Encipherment
            X509v3 Subject Alternative Name: 
                DNS:team201-server
    Signature Algorithm: sha256WithRSAEncryption
         5d:57:44:f2:93:b9:33:e9:f2:fa:67:93:bf:88:f0:30:a6:79:
         ad:e9:15:4b:86:aa:a9:d6:d9:cd:f9:94:08:a2:95:dc:b0:e0:
         c3:4b:67:68:b0:b1:9c:67:99:a6:e7:12:a3:ea:98:d1:03:53:
         e2:2f:b0:ee:20:87:85:ba:e7:c1:d0:c8:61:6a:a6:37:21:96:
         cb:3c:12:96:2f:f2:b7:93:74:35:b3:14:b0:34:9e:ee:98:a4:
         50:38:5f:32:c1:88:ae:51:4f:6a:48:a3:90:fe:52:6a:5f:67:
         e2:63:63:fd:57:5b:a2:76:72:d2:ce:08:8c:69:fe:ac:e6:d2:
         28:f2:4d:a3:1c:79:14:00:4e:cc:b2:2d:50:06:2a:cc:59:c5:
         2f:de:78:b2:58:44:16:a8:3e:5e:20:fb:b2:d7:ae:f4:fb:fd:
         07:d9:a5:32:eb:99:14:dd:2b:67:61:6e:8a:47:29:e0:5c:dc:
         e0:97:0f:d2:d6:5d:6e:32:e0:30:ab:c9:01:c5:bb:e2:f3:d7:
         e1:d4:7b:fc:dd:26:04:22:b4:54:10:09:53:5f:d7:c3:40:06:
         45:b4:d2:b6:a1:6e:76:e8:a1:8d:1d:b2:ef:3f:34:61:be:4f:
         74:94:3e:fa:f4:2a:f7:ce:7a:02:8b:9b:bf:37:e6:97:da:d7:
         b1:ba:12:0a
-----BEGIN CERTIFICATE-----
MIIDeDCCAmCgAwIBAgIRAN4sD0bSIfjb5eH7jmeovRIwDQYJKoZIhvcNAQELBQAw
FjEUMBIGA1UEAwwLdGVhbTIwMS1uZXQwHhcNMjIwNTE4MTkxMTI1WhcNMjUwNTAy
MTkxMTI1WjAZMRcwFQYDVQQDDA50ZWFtMjAxLXNlcnZlcjCCASIwDQYJKoZIhvcN
AQEBBQADggEPADCCAQoCggEBALddjXnr+UwHx8FLqU4q5GwJjQtOc4nmt70cNZvk
m80N7eEle6oYQ6vhH6x6N309GuBulp6nVxIfkDRwsnKKPwVyFJIXIYJFCudCyw0W
HC/8b2nMo31IfJNiOaUxd9ixDlAZeQojo1RV/SvjH/Ibso7jZssGQhVzdVwhZe5i
B+OqE8VgTQAKuUYO24/RVBioPmLF/MZvJOxmGVfUKmSNWYIGt+CSg896IfEgMRb6
BKNyVDaVhkbRAleQtqMKFasdSINV7PwnF3geGoHpV3esYDN4Vec2sTR0H3oqsoga
6DhJMroqT5NIn81pl+3Fk97NqiUwaBWxg73a0OCsmD9XxNMCAwEAAaOBvTCBujAJ
BgNVHRMEAjAAMB0GA1UdDgQWBBTflWa6YV6zYZVW4nY8WWY24nJznjBRBgNVHSME
SjBIgBTdDDGd2E+dkA82inW0STR5MBtM3aEapBgwFjEUMBIGA1UEAwwLdGVhbTIw
MS1uZXSCFGXywtcOM3hosCrzFOJyYZczzTd0MBMGA1UdJQQMMAoGCCsGAQUFBwMB
MAsGA1UdDwQEAwIFoDAZBgNVHREEEjAQgg50ZWFtMjAxLXNlcnZlcjANBgkqhkiG
9w0BAQsFAAOCAQEAXVdE8pO5M+ny+meTv4jwMKZ5rekVS4aqqdbZzfmUCKKV3LDg
w0tnaLCxnGeZpucSo+qY0QNT4i+w7iCHhbrnwdDIYWqmNyGWyzwSli/yt5N0NbMU
sDSe7pikUDhfMsGIrlFPakijkP5Sal9n4mNj/VdbonZy0s4IjGn+rObSKPJNoxx5
FABOzLItUAYqzFnFL954slhEFqg+XiD7steu9Pv9B9mlMuuZFN0rZ2Fuikcp4Fzc
4JcP0tZdbjLgMKvJAcW74vPX4dR7/N0mBCK0VBAJU1/Xw0AGRbTStqFuduihjR2y
7z80Yb5PdJQ++vQq9856Aoubvzfml9rXsboSCg==
-----END CERTIFICATE-----
