Certificate:
    Data:
        Version: 3 (0x2)
        Serial Number:
            d8:39:2c:cb:54:40:13:c3:cc:99:87:54:ad:a5:c9:40
        Signature Algorithm: sha256WithRSAEncryption
        Issuer: CN=team335-net
        Validity
            Not Before: May 18 20:19:52 2022 GMT
            Not After : May  2 20:19:52 2025 GMT
        Subject: CN=team335-server
        Subject Public Key Info:
            Public Key Algorithm: rsaEncryption
                RSA Public-Key: (2048 bit)
                Modulus:
                    00:dc:a9:01:55:c1:c2:4a:7f:93:f8:4b:5f:6b:a6:
                    14:30:e0:24:8f:0f:bc:b5:7e:28:81:4b:91:ca:4d:
                    70:ec:d2:7e:83:17:75:91:54:69:e9:24:c7:5a:6c:
                    4d:a4:2c:3d:07:f0:ec:51:df:c2:3d:24:51:14:11:
                    33:af:40:6c:ca:4f:b5:e6:ea:c9:c3:b8:be:91:b8:
                    a3:3b:28:27:e4:95:40:82:c1:2c:0e:37:45:67:82:
                    af:92:fe:e3:be:1c:c1:dc:1f:b9:2a:1c:62:87:f2:
                    46:22:27:5e:64:3a:69:d4:e1:e7:e9:fb:fc:b5:6d:
                    5d:68:72:1a:92:7d:92:ba:e8:6b:76:8d:9f:16:c7:
                    f5:92:5d:43:47:d7:17:e8:d4:54:a0:e1:ad:51:e1:
                    cb:2f:37:10:81:b6:20:7c:08:20:36:c2:b2:77:00:
                    b4:d9:6b:d4:78:1a:dc:6c:6c:29:55:fb:1c:32:1f:
                    fe:65:13:b2:0a:24:98:0a:2c:00:82:43:88:5b:6f:
                    46:b0:b6:b8:d9:e2:7f:7b:40:e6:0e:83:15:f5:21:
                    2f:a8:e2:bb:df:44:1b:f5:b9:6c:82:96:05:2b:4e:
                    4d:1f:85:f3:00:56:9d:ff:d8:8a:8b:0c:5a:98:9b:
                    36:95:89:ad:59:7d:13:15:a7:2f:d5:e2:57:5a:78:
                    6b:21
                Exponent: 65537 (0x10001)
        X509v3 extensions:
            X509v3 Basic Constraints: 
                CA:FALSE
            X509v3 Subject Key Identifier: 
                8E:5C:9B:66:89:70:83:FA:EC:C3:6B:2B:B0:FA:F9:BB:1A:ED:88:25
            X509v3 Authority Key Identifier: 
                keyid:8D:A9:0B:B9:EC:35:B0:FC:6E:D0:D1:B8:99:6A:5E:FC:5A:6B:22:81
                DirName:/CN=team335-net
                serial:57:B5:93:91:09:41:E5:41:6D:17:B7:70:B7:56:DB:2F:93:C2:95:B6

            X509v3 Extended Key Usage: 
                TLS Web Server Authentication
            X509v3 Key Usage: 
                Digital Signature, Key Encipherment
            X509v3 Subject Alternative Name: 
                DNS:team335-server
    Signature Algorithm: sha256WithRSAEncryption
         a5:e5:3c:44:28:ac:74:67:78:c1:57:f1:9c:bc:cd:aa:2f:b7:
         b8:0f:75:8d:aa:db:8d:95:c1:c5:82:fa:69:7e:10:72:6f:d7:
         09:42:55:10:97:05:a9:11:e7:d4:7b:27:58:66:34:df:4f:b9:
         af:04:af:80:7b:56:a7:15:6e:6c:b4:f2:b0:cb:2d:ea:84:8a:
         1c:61:d8:58:73:4c:9a:66:08:51:99:19:b1:be:6d:23:cb:a7:
         2a:b8:b8:4a:ec:5f:4c:ed:eb:c2:95:c4:6f:fe:a5:45:f0:06:
         c3:56:29:36:28:21:70:25:68:c8:3e:ed:2f:26:06:1c:d2:7e:
         32:b1:bf:dd:0f:3b:97:b9:a3:a9:dc:e7:c4:59:bf:cd:63:d2:
         b6:9a:1a:04:08:81:cf:84:3d:e2:5a:47:10:17:d5:97:ce:f3:
         cb:28:96:72:92:02:85:5f:ed:22:d8:61:06:c9:fb:13:8e:0f:
         f1:24:66:0a:b0:13:78:37:f8:3c:58:66:7d:8c:de:a7:5a:8d:
         2e:ac:b4:2c:65:71:b7:29:d0:29:bd:ea:3a:af:48:42:31:0a:
         b6:60:85:d1:76:7e:a3:6a:da:3d:2b:46:55:20:2e:b5:9e:83:
         45:17:ed:5d:a4:1e:a2:c5:6f:4b:56:10:26:46:8c:fe:25:a9:
         b1:f9:41:9d
-----BEGIN CERTIFICATE-----
MIIDeDCCAmCgAwIBAgIRANg5LMtUQBPDzJmHVK2lyUAwDQYJKoZIhvcNAQELBQAw
FjEUMBIGA1UEAwwLdGVhbTMzNS1uZXQwHhcNMjIwNTE4MjAxOTUyWhcNMjUwNTAy
MjAxOTUyWjAZMRcwFQYDVQQDDA50ZWFtMzM1LXNlcnZlcjCCASIwDQYJKoZIhvcN
AQEBBQADggEPADCCAQoCggEBANypAVXBwkp/k/hLX2umFDDgJI8PvLV+KIFLkcpN
cOzSfoMXdZFUaekkx1psTaQsPQfw7FHfwj0kURQRM69AbMpPtebqycO4vpG4ozso
J+SVQILBLA43RWeCr5L+474cwdwfuSocYofyRiInXmQ6adTh5+n7/LVtXWhyGpJ9
krroa3aNnxbH9ZJdQ0fXF+jUVKDhrVHhyy83EIG2IHwIIDbCsncAtNlr1Hga3Gxs
KVX7HDIf/mUTsgokmAosAIJDiFtvRrC2uNnif3tA5g6DFfUhL6jiu99EG/W5bIKW
BStOTR+F8wBWnf/YiosMWpibNpWJrVl9ExWnL9XiV1p4ayECAwEAAaOBvTCBujAJ
BgNVHRMEAjAAMB0GA1UdDgQWBBSOXJtmiXCD+uzDayuw+vm7Gu2IJTBRBgNVHSME
SjBIgBSNqQu57DWw/G7Q0biZal78WmsigaEapBgwFjEUMBIGA1UEAwwLdGVhbTMz
NS1uZXSCFFe1k5EJQeVBbRe3cLdW2y+TwpW2MBMGA1UdJQQMMAoGCCsGAQUFBwMB
MAsGA1UdDwQEAwIFoDAZBgNVHREEEjAQgg50ZWFtMzM1LXNlcnZlcjANBgkqhkiG
9w0BAQsFAAOCAQEApeU8RCisdGd4wVfxnLzNqi+3uA91jarbjZXBxYL6aX4Qcm/X
CUJVEJcFqRHn1HsnWGY030+5rwSvgHtWpxVubLTysMst6oSKHGHYWHNMmmYIUZkZ
sb5tI8unKri4SuxfTO3rwpXEb/6lRfAGw1YpNighcCVoyD7tLyYGHNJ+MrG/3Q87
l7mjqdznxFm/zWPStpoaBAiBz4Q94lpHEBfVl87zyyiWcpIChV/tIthhBsn7E44P
8SRmCrATeDf4PFhmfYzep1qNLqy0LGVxtynQKb3qOq9IQjEKtmCF0XZ+o2raPStG
VSAutZ6DRRftXaQeosVvS1YQJkaM/iWpsflBnQ==
-----END CERTIFICATE-----
