Certificate:
    Data:
        Version: 3 (0x2)
        Serial Number:
            bd:4d:de:1c:35:fd:c6:eb:c9:26:cb:88:eb:47:47:75
        Signature Algorithm: sha256WithRSAEncryption
        Issuer: CN=team59-net
        Validity
            Not Before: May 18 14:28:29 2022 GMT
            Not After : May  2 14:28:29 2025 GMT
        Subject: CN=team59-server
        Subject Public Key Info:
            Public Key Algorithm: rsaEncryption
                RSA Public-Key: (2048 bit)
                Modulus:
                    00:c8:2b:93:02:10:c3:f4:97:c3:ed:a5:96:25:70:
                    94:8b:36:bc:38:92:2e:f4:d9:e3:83:ea:74:7f:e2:
                    57:83:1b:42:8f:6e:30:f9:25:b0:54:dc:fd:ed:c0:
                    64:fe:ac:d4:e1:d2:3d:0d:68:c2:4b:53:27:91:16:
                    8f:28:02:43:b5:ab:df:39:94:e8:d5:e2:50:3b:9c:
                    11:b0:23:1d:67:8f:67:19:a0:d7:9f:45:00:a8:b2:
                    00:09:2c:91:09:a5:8f:55:f8:ad:a8:01:bb:a3:25:
                    db:9c:34:d2:89:8a:eb:4d:9a:7d:01:57:58:6c:d6:
                    79:5d:98:a0:70:89:ea:5b:b5:97:74:51:e5:7b:2b:
                    ae:42:20:fb:e8:12:d0:b2:1a:34:d1:68:ac:40:5f:
                    da:fc:42:b5:d3:27:95:86:3f:a4:58:d5:a8:6c:9d:
                    07:b2:f0:f0:5b:7f:b4:9d:95:9a:42:6d:f7:d7:72:
                    e4:50:30:44:a7:f3:64:af:03:85:d7:e3:ef:3a:d4:
                    5b:0f:11:89:91:c1:56:b5:03:88:3a:80:25:6b:84:
                    38:cd:48:95:5a:b8:a2:9e:33:a6:16:f8:2b:0d:fb:
                    b3:49:71:0c:75:51:a3:4b:36:0c:46:c3:cc:da:b2:
                    67:c5:05:02:ff:15:02:27:18:9f:03:70:fa:3e:b6:
                    1b:11
                Exponent: 65537 (0x10001)
        X509v3 extensions:
            X509v3 Basic Constraints: 
                CA:FALSE
            X509v3 Subject Key Identifier: 
                4E:A4:F4:F3:40:46:EE:00:C8:52:35:75:DA:64:B2:6F:E3:25:1E:A4
            X509v3 Authority Key Identifier: 
                keyid:61:D2:43:D5:3B:72:A8:A3:EC:CC:C8:03:C3:7E:79:AC:58:44:1D:D5
                DirName:/CN=team59-net
                serial:56:FB:8E:24:3E:07:6E:E2:CD:CC:FF:96:EA:70:17:00:90:A9:26:4D

            X509v3 Extended Key Usage: 
                TLS Web Server Authentication
            X509v3 Key Usage: 
                Digital Signature, Key Encipherment
            X509v3 Subject Alternative Name: 
                DNS:team59-server
    Signature Algorithm: sha256WithRSAEncryption
         17:30:99:dc:8f:45:9c:1d:3f:c4:57:59:83:bc:89:28:a1:5a:
         70:a8:1e:63:3f:fb:4b:3f:df:cb:98:0a:49:5e:e8:25:a4:c9:
         4d:c1:65:11:dc:0a:38:3b:84:f3:da:07:1f:ec:f0:af:b9:09:
         ee:3b:77:8d:f2:9d:21:bc:2f:ba:4d:ab:d8:10:d8:d9:38:74:
         46:39:08:3f:f0:2f:ac:3e:81:af:8e:b2:eb:8d:a4:c9:24:32:
         0b:52:fc:69:ae:4b:32:b4:26:f0:c0:87:87:b7:f4:27:e2:27:
         76:a7:77:ea:c9:e3:68:ed:d6:ea:05:53:4e:ad:bc:16:61:83:
         03:88:87:78:b0:2f:39:d2:06:69:c4:11:54:4e:04:75:33:5b:
         29:02:94:1f:04:1f:cc:3e:a0:57:1a:49:78:c1:6a:73:c2:35:
         cd:80:65:ad:bf:64:cd:27:18:0d:f6:b0:a1:cf:00:b1:e4:c8:
         6c:5e:4e:fc:86:0f:8b:46:17:a8:54:97:54:3b:a3:d2:3b:29:
         5d:a6:ae:37:e9:2b:ca:d1:8b:b7:be:2b:09:db:76:ca:57:f6:
         0c:cb:d5:fa:fa:a1:91:06:ff:32:35:69:9e:ed:5c:a5:6b:70:
         95:c4:76:30:01:ab:95:e7:6b:42:26:a3:1a:45:92:0a:96:b4:
         05:f4:33:85
-----BEGIN CERTIFICATE-----
MIIDdDCCAlygAwIBAgIRAL1N3hw1/cbrySbLiOtHR3UwDQYJKoZIhvcNAQELBQAw
FTETMBEGA1UEAwwKdGVhbTU5LW5ldDAeFw0yMjA1MTgxNDI4MjlaFw0yNTA1MDIx
NDI4MjlaMBgxFjAUBgNVBAMMDXRlYW01OS1zZXJ2ZXIwggEiMA0GCSqGSIb3DQEB
AQUAA4IBDwAwggEKAoIBAQDIK5MCEMP0l8PtpZYlcJSLNrw4ki702eOD6nR/4leD
G0KPbjD5JbBU3P3twGT+rNTh0j0NaMJLUyeRFo8oAkO1q985lOjV4lA7nBGwIx1n
j2cZoNefRQCosgAJLJEJpY9V+K2oAbujJducNNKJiutNmn0BV1hs1nldmKBwiepb
tZd0UeV7K65CIPvoEtCyGjTRaKxAX9r8QrXTJ5WGP6RY1ahsnQey8PBbf7SdlZpC
bffXcuRQMESn82SvA4XX4+861FsPEYmRwVa1A4g6gCVrhDjNSJVauKKeM6YW+CsN
+7NJcQx1UaNLNgxGw8zasmfFBQL/FQInGJ8DcPo+thsRAgMBAAGjgbswgbgwCQYD
VR0TBAIwADAdBgNVHQ4EFgQUTqT080BG7gDIUjV12mSyb+MlHqQwUAYDVR0jBEkw
R4AUYdJD1TtyqKPszMgDw355rFhEHdWhGaQXMBUxEzARBgNVBAMMCnRlYW01OS1u
ZXSCFFb7jiQ+B27izcz/lupwFwCQqSZNMBMGA1UdJQQMMAoGCCsGAQUFBwMBMAsG
A1UdDwQEAwIFoDAYBgNVHREEETAPgg10ZWFtNTktc2VydmVyMA0GCSqGSIb3DQEB
CwUAA4IBAQAXMJncj0WcHT/EV1mDvIkooVpwqB5jP/tLP9/LmApJXuglpMlNwWUR
3Ao4O4Tz2gcf7PCvuQnuO3eN8p0hvC+6TavYENjZOHRGOQg/8C+sPoGvjrLrjaTJ
JDILUvxprksytCbwwIeHt/Qn4id2p3fqyeNo7dbqBVNOrbwWYYMDiId4sC850gZp
xBFUTgR1M1spApQfBB/MPqBXGkl4wWpzwjXNgGWtv2TNJxgN9rChzwCx5MhsXk78
hg+LRheoVJdUO6PSOyldpq436SvK0Yu3visJ23bKV/YMy9X6+qGRBv8yNWme7Vyl
a3CVxHYwAauV52tCJqMaRZIKlrQF9DOF
-----END CERTIFICATE-----
