Certificate:
    Data:
        Version: 3 (0x2)
        Serial Number:
            ee:9d:e3:3a:a7:d3:8f:16:c9:56:c4:74:4f:6e:d8:13
        Signature Algorithm: sha256WithRSAEncryption
        Issuer: CN=team424-net
        Validity
            Not Before: May 18 21:11:41 2022 GMT
            Not After : May  2 21:11:41 2025 GMT
        Subject: CN=team424-client
        Subject Public Key Info:
            Public Key Algorithm: rsaEncryption
                RSA Public-Key: (2048 bit)
                Modulus:
                    00:cb:c5:a2:1d:1e:2b:5e:00:a1:72:88:2f:32:c4:
                    4f:97:b1:24:66:bd:55:38:dc:eb:3e:00:26:46:16:
                    45:66:ca:1e:3c:78:84:53:5d:aa:b5:b3:c8:83:2d:
                    31:23:a3:da:31:b4:d2:b4:61:c7:fa:31:01:c6:b7:
                    f7:1b:ae:73:9b:e7:a7:07:ef:d2:75:01:12:5d:b4:
                    fe:92:25:c5:41:c7:61:b5:63:2f:a3:f1:3a:e4:ab:
                    ac:c9:e7:9e:01:75:5c:9c:29:90:25:12:68:e3:eb:
                    cc:95:4b:dc:99:be:f6:0c:d7:a3:be:13:18:af:50:
                    90:5e:2f:05:e0:d7:6d:f0:04:ba:98:71:69:e9:ff:
                    1e:c7:cd:dd:b3:45:f2:f6:2b:2f:4e:8c:c4:7f:b3:
                    77:52:2f:07:3c:d6:53:87:f9:68:c2:59:7c:eb:b9:
                    e0:22:3b:8a:f5:e4:14:f3:28:8a:7c:2e:09:b7:73:
                    1e:a9:50:ae:51:07:9b:09:84:44:6f:cc:5f:e8:6a:
                    d9:d6:71:a9:87:31:54:ad:f9:78:dd:f5:f3:b3:33:
                    b3:13:82:91:51:50:47:b1:05:28:3c:6c:b7:9b:66:
                    60:23:7f:37:a0:35:06:56:52:c0:f5:1a:b9:22:7a:
                    3a:43:63:19:f4:db:51:32:02:f7:d7:21:aa:0f:0b:
                    69:1d
                Exponent: 65537 (0x10001)
        X509v3 extensions:
            X509v3 Basic Constraints: 
                CA:FALSE
            X509v3 Subject Key Identifier: 
                B4:0A:21:18:FA:49:15:03:1C:A7:D3:AA:19:8C:8F:2A:02:47:B1:E1
            X509v3 Authority Key Identifier: 
                keyid:AB:DA:7E:99:F3:F3:37:26:1A:BD:7E:C9:88:10:51:CB:7C:2C:02:EC
                DirName:/CN=team424-net
                serial:2A:99:18:9D:71:14:22:64:D3:7D:0D:7B:46:18:3A:2F:3A:E8:C6:71

            X509v3 Extended Key Usage: 
                TLS Web Client Authentication
            X509v3 Key Usage: 
                Digital Signature
    Signature Algorithm: sha256WithRSAEncryption
         55:dd:1e:5f:96:ac:d2:48:b5:78:49:a1:c2:4d:a4:d1:da:06:
         f6:22:bb:f6:2f:33:28:d7:dc:6f:9a:94:15:4f:ab:fa:5d:59:
         e2:61:1f:c3:8f:15:2f:1f:7c:00:d7:32:ad:74:61:d9:ea:91:
         c0:0c:5c:21:98:4b:e0:7b:ee:33:94:f3:70:1d:c1:76:0d:0b:
         b3:f2:27:06:ad:49:67:e8:34:f9:57:e5:7c:93:74:e7:9d:eb:
         e0:4a:00:09:e6:58:35:a3:c3:ed:32:bf:a5:a6:84:37:d2:94:
         da:3e:4d:33:13:5a:76:d5:42:6b:58:81:d7:7d:fc:29:d1:f7:
         4a:a1:09:d1:3e:99:3a:01:ac:02:26:d5:06:ad:7f:64:7e:2e:
         88:7f:54:f2:db:19:ae:fc:78:ab:58:1d:85:3a:1b:50:1c:45:
         17:04:91:e8:a2:a8:b6:72:b4:4f:32:1b:fa:d9:b2:50:f7:87:
         7e:cf:c6:6b:de:94:80:81:3a:b4:8b:45:14:81:dd:ec:3d:3a:
         91:35:0e:98:b1:70:73:e3:e7:2c:fd:71:cc:0a:be:c7:0a:7e:
         bb:d3:9a:df:af:69:52:21:22:1d:6c:82:3c:d3:0f:7c:ad:04:
         51:af:d0:07:7a:5f:b7:d0:39:95:32:ca:38:22:03:86:c6:2c:
         2e:17:a3:a4
-----BEGIN CERTIFICATE-----
MIIDXTCCAkWgAwIBAgIRAO6d4zqn048WyVbEdE9u2BMwDQYJKoZIhvcNAQELBQAw
FjEUMBIGA1UEAwwLdGVhbTQyNC1uZXQwHhcNMjIwNTE4MjExMTQxWhcNMjUwNTAy
MjExMTQxWjAZMRcwFQYDVQQDDA50ZWFtNDI0LWNsaWVudDCCASIwDQYJKoZIhvcN
AQEBBQADggEPADCCAQoCggEBAMvFoh0eK14AoXKILzLET5exJGa9VTjc6z4AJkYW
RWbKHjx4hFNdqrWzyIMtMSOj2jG00rRhx/oxAca39xuuc5vnpwfv0nUBEl20/pIl
xUHHYbVjL6PxOuSrrMnnngF1XJwpkCUSaOPrzJVL3Jm+9gzXo74TGK9QkF4vBeDX
bfAEuphxaen/HsfN3bNF8vYrL06MxH+zd1IvBzzWU4f5aMJZfOu54CI7ivXkFPMo
inwuCbdzHqlQrlEHmwmERG/MX+hq2dZxqYcxVK35eN3187MzsxOCkVFQR7EFKDxs
t5tmYCN/N6A1BlZSwPUauSJ6OkNjGfTbUTIC99chqg8LaR0CAwEAAaOBojCBnzAJ
BgNVHRMEAjAAMB0GA1UdDgQWBBS0CiEY+kkVAxyn06oZjI8qAkex4TBRBgNVHSME
SjBIgBSr2n6Z8/M3Jhq9fsmIEFHLfCwC7KEapBgwFjEUMBIGA1UEAwwLdGVhbTQy
NC1uZXSCFCqZGJ1xFCJk030Ne0YYOi866MZxMBMGA1UdJQQMMAoGCCsGAQUFBwMC
MAsGA1UdDwQEAwIHgDANBgkqhkiG9w0BAQsFAAOCAQEAVd0eX5as0ki1eEmhwk2k
0doG9iK79i8zKNfcb5qUFU+r+l1Z4mEfw48VLx98ANcyrXRh2eqRwAxcIZhL4Hvu
M5TzcB3Bdg0Ls/InBq1JZ+g0+VflfJN0553r4EoACeZYNaPD7TK/paaEN9KU2j5N
MxNadtVCa1iB1338KdH3SqEJ0T6ZOgGsAibVBq1/ZH4uiH9U8tsZrvx4q1gdhTob
UBxFFwSR6KKotnK0TzIb+tmyUPeHfs/Ga96UgIE6tItFFIHd7D06kTUOmLFwc+Pn
LP1xzAq+xwp+u9Oa369pUiEiHWyCPNMPfK0EUa/QB3pft9A5lTLKOCIDhsYsLhej
pA==
-----END CERTIFICATE-----
