Certificate:
    Data:
        Version: 3 (0x2)
        Serial Number:
            f2:d8:bf:7b:02:c7:16:d9:6f:b9:33:b2:de:df:b4:db
        Signature Algorithm: sha256WithRSAEncryption
        Issuer: CN=team389-net
        Validity
            Not Before: May 18 20:56:13 2022 GMT
            Not After : May  2 20:56:13 2025 GMT
        Subject: CN=team389-client
        Subject Public Key Info:
            Public Key Algorithm: rsaEncryption
                RSA Public-Key: (2048 bit)
                Modulus:
                    00:a2:7b:f7:8c:ba:92:c5:26:0c:6d:ba:8c:21:49:
                    2b:48:b2:be:c9:6d:8b:88:72:d2:74:81:9d:9f:45:
                    3b:45:a9:b8:3d:02:24:20:be:06:9f:54:ee:e7:1e:
                    c2:be:21:a9:9f:b0:e0:63:4f:ae:7a:d2:90:2c:f8:
                    1a:98:84:1e:20:7e:42:5f:02:f0:b5:4a:5c:af:dc:
                    6d:a9:01:29:45:4b:9b:18:f7:1d:9a:94:a2:4a:7e:
                    64:31:95:a5:b8:9f:df:36:53:7b:6a:28:e5:3d:b6:
                    80:51:64:50:78:23:c6:50:18:32:e7:1c:dc:35:a2:
                    74:d7:06:12:80:ec:65:bc:f1:4f:00:69:ac:1b:b6:
                    32:e0:a3:16:6a:00:49:89:08:8e:48:4a:95:34:19:
                    b8:29:6e:b6:93:be:63:d3:e7:76:b5:a9:5d:21:83:
                    f7:bc:42:f5:ab:f3:d6:7f:9a:ef:79:6b:7c:67:a2:
                    dd:bb:e3:17:ba:95:a6:c6:61:ed:54:b6:b2:e8:73:
                    8a:1c:55:f4:9b:d5:be:e1:44:91:3e:8a:69:a4:e8:
                    d2:4e:98:38:3f:b6:b5:88:9a:e3:79:c6:31:8f:e9:
                    a7:a9:0a:2e:78:17:d9:00:fa:a0:6c:1d:51:a3:97:
                    4b:0c:ef:3e:9a:c9:e1:33:1d:f6:71:c6:25:36:a7:
                    64:91
                Exponent: 65537 (0x10001)
        X509v3 extensions:
            X509v3 Basic Constraints: 
                CA:FALSE
            X509v3 Subject Key Identifier: 
                F0:59:A4:11:84:DF:18:8C:04:23:A7:82:36:CF:B7:3E:50:3A:01:20
            X509v3 Authority Key Identifier: 
                keyid:9C:1F:CE:76:7A:0C:D9:50:26:B9:2F:9B:4C:C3:2F:31:E6:89:FA:1C
                DirName:/CN=team389-net
                serial:0B:3C:AE:80:D0:EE:38:41:76:ED:57:E0:28:91:70:FD:02:54:D1:5B

            X509v3 Extended Key Usage: 
                TLS Web Client Authentication
            X509v3 Key Usage: 
                Digital Signature
    Signature Algorithm: sha256WithRSAEncryption
         84:79:6a:ac:6e:29:b6:25:74:ed:26:54:ad:e1:41:bd:94:f4:
         0f:8a:a4:70:1f:ed:d6:12:49:a0:30:6b:ba:15:e1:b9:bc:8c:
         43:09:ca:21:45:ae:f3:9f:28:1a:64:38:27:d0:06:3e:40:35:
         a5:fd:c5:5e:62:5c:af:ba:e0:89:79:26:dd:98:04:dd:cc:6b:
         e1:56:02:9d:39:ba:59:c6:85:91:ea:60:ba:38:94:54:0a:7d:
         b7:e6:02:dc:8d:49:5e:20:ef:ce:fd:9d:0d:a6:41:33:27:ac:
         58:ff:f3:78:87:14:f7:23:f3:ee:ee:87:5b:62:d8:ab:2c:e9:
         a3:f8:06:b8:c9:cf:e6:05:67:92:62:d5:46:99:66:6d:ff:d8:
         49:7c:3d:2a:a0:6c:e4:b5:31:13:b1:83:0c:68:cf:de:61:ed:
         43:b5:d0:90:a9:cc:57:f2:ec:e9:dd:1b:71:6b:b7:3d:33:ee:
         22:4d:29:b9:5b:74:38:f8:08:d0:52:c4:6a:e0:b9:98:a7:b8:
         8d:2f:dd:53:7a:79:8e:8f:50:df:08:46:32:a2:e6:73:d5:bd:
         dd:a4:74:aa:a0:d0:a1:e2:94:30:d8:f5:6d:b9:8e:ab:35:f7:
         9d:08:7e:95:71:25:ab:5e:fc:8f:00:2a:4f:31:72:75:e1:09:
         d7:16:e3:7d
-----BEGIN CERTIFICATE-----
MIIDXTCCAkWgAwIBAgIRAPLYv3sCxxbZb7kzst7ftNswDQYJKoZIhvcNAQELBQAw
FjEUMBIGA1UEAwwLdGVhbTM4OS1uZXQwHhcNMjIwNTE4MjA1NjEzWhcNMjUwNTAy
MjA1NjEzWjAZMRcwFQYDVQQDDA50ZWFtMzg5LWNsaWVudDCCASIwDQYJKoZIhvcN
AQEBBQADggEPADCCAQoCggEBAKJ794y6ksUmDG26jCFJK0iyvslti4hy0nSBnZ9F
O0WpuD0CJCC+Bp9U7ucewr4hqZ+w4GNPrnrSkCz4GpiEHiB+Ql8C8LVKXK/cbakB
KUVLmxj3HZqUokp+ZDGVpbif3zZTe2oo5T22gFFkUHgjxlAYMucc3DWidNcGEoDs
ZbzxTwBprBu2MuCjFmoASYkIjkhKlTQZuClutpO+Y9PndrWpXSGD97xC9avz1n+a
73lrfGei3bvjF7qVpsZh7VS2suhzihxV9JvVvuFEkT6KaaTo0k6YOD+2tYia43nG
MY/pp6kKLngX2QD6oGwdUaOXSwzvPprJ4TMd9nHGJTanZJECAwEAAaOBojCBnzAJ
BgNVHRMEAjAAMB0GA1UdDgQWBBTwWaQRhN8YjAQjp4I2z7c+UDoBIDBRBgNVHSME
SjBIgBScH852egzZUCa5L5tMwy8x5on6HKEapBgwFjEUMBIGA1UEAwwLdGVhbTM4
OS1uZXSCFAs8roDQ7jhBdu1X4CiRcP0CVNFbMBMGA1UdJQQMMAoGCCsGAQUFBwMC
MAsGA1UdDwQEAwIHgDANBgkqhkiG9w0BAQsFAAOCAQEAhHlqrG4ptiV07SZUreFB
vZT0D4qkcB/t1hJJoDBruhXhubyMQwnKIUWu858oGmQ4J9AGPkA1pf3FXmJcr7rg
iXkm3ZgE3cxr4VYCnTm6WcaFkepgujiUVAp9t+YC3I1JXiDvzv2dDaZBMyesWP/z
eIcU9yPz7u6HW2LYqyzpo/gGuMnP5gVnkmLVRplmbf/YSXw9KqBs5LUxE7GDDGjP
3mHtQ7XQkKnMV/Ls6d0bcWu3PTPuIk0puVt0OPgI0FLEauC5mKe4jS/dU3p5jo9Q
3whGMqLmc9W93aR0qqDQoeKUMNj1bbmOqzX3nQh+lXElq178jwAqTzFydeEJ1xbj
fQ==
-----END CERTIFICATE-----
