Certificate:
    Data:
        Version: 3 (0x2)
        Serial Number:
            25:ca:76:ca:96:48:e8:54:a4:66:8a:46:ef:9e:92:da
        Signature Algorithm: sha256WithRSAEncryption
        Issuer: CN=team555-net
        Validity
            Not Before: May 18 22:23:13 2022 GMT
            Not After : May  2 22:23:13 2025 GMT
        Subject: CN=team555-client
        Subject Public Key Info:
            Public Key Algorithm: rsaEncryption
                RSA Public-Key: (2048 bit)
                Modulus:
                    00:cc:bd:0e:25:97:24:bb:b4:f8:dd:52:2c:82:a8:
                    bc:7f:1f:99:4d:43:41:1a:11:98:02:58:d7:a3:00:
                    48:24:c0:dd:e8:fe:03:31:43:ee:46:50:b0:36:91:
                    16:3d:18:bd:7b:e2:ab:58:31:17:85:0f:f4:55:7e:
                    1d:5f:d3:d5:61:7a:6e:7f:ac:44:fc:d7:ad:9a:36:
                    be:5f:5d:d7:55:50:5c:44:48:02:e5:97:48:99:16:
                    9f:11:f3:80:af:4f:e2:9a:09:25:b8:11:b4:0a:6a:
                    f3:10:98:b3:80:81:f6:6b:21:4a:48:16:8a:5b:75:
                    74:64:2e:68:4a:6d:75:c9:3d:89:b3:68:6c:5d:06:
                    b8:ae:63:26:1d:a8:c4:6e:95:a7:95:65:52:69:c4:
                    95:00:40:4d:5a:5e:ff:e8:e2:02:38:40:5f:e8:18:
                    de:33:cf:f7:1f:0a:0f:0c:0a:80:84:df:21:c7:98:
                    8e:e3:85:00:8a:c4:39:40:56:87:dc:e7:b7:4f:3b:
                    db:04:98:7c:7c:cd:83:ad:bf:15:e5:ef:48:31:dd:
                    fe:15:2a:39:c6:46:80:c3:2f:da:02:f7:70:72:72:
                    10:3a:c7:68:df:2c:49:76:c3:81:b8:c3:a2:ba:cc:
                    42:ac:a0:de:cf:33:ae:bd:47:9a:2b:ef:4e:0e:4c:
                    af:b5
                Exponent: 65537 (0x10001)
        X509v3 extensions:
            X509v3 Basic Constraints: 
                CA:FALSE
            X509v3 Subject Key Identifier: 
                3C:51:7F:FA:C0:8F:86:00:C9:B1:74:D3:C6:3B:C5:8E:6D:9B:6B:F2
            X509v3 Authority Key Identifier: 
                keyid:2C:4A:0C:AB:B0:8E:9A:EE:E4:DD:E4:2F:AE:40:CF:0E:7A:B9:24:E4
                DirName:/CN=team555-net
                serial:4A:3D:3B:63:D8:D5:AA:0E:0B:A3:8C:7E:A8:33:F8:EA:77:C2:DB:A5

            X509v3 Extended Key Usage: 
                TLS Web Client Authentication
            X509v3 Key Usage: 
                Digital Signature
    Signature Algorithm: sha256WithRSAEncryption
         cc:3b:2e:4e:27:cf:cd:21:18:15:71:d4:b5:cd:30:91:45:e4:
         e4:dd:54:1f:59:94:ba:1d:13:d6:83:c7:b4:74:b6:25:ef:4a:
         47:ca:2b:c0:e6:ea:90:89:73:53:5a:96:fa:9e:af:06:ca:01:
         a3:77:21:4b:69:ef:91:74:82:9a:49:a1:ff:b8:3d:75:23:90:
         ca:13:a6:d0:ae:5b:5a:8c:2a:08:cb:22:f1:3a:66:3a:37:a6:
         fd:f8:32:17:78:28:fd:1c:45:90:51:c0:d0:97:e4:9d:08:16:
         d3:6d:e5:88:01:ab:23:0a:ca:cb:3c:c3:f2:1b:df:e2:2f:df:
         29:68:13:14:96:0b:eb:f4:a7:bd:79:d0:44:51:71:2e:a0:bb:
         19:e4:b7:22:75:67:5b:77:84:31:15:14:92:53:4d:ec:39:f9:
         2e:8a:f4:b1:d7:52:4d:0e:05:e0:ee:ed:0a:6c:47:c2:0e:98:
         ce:e7:0c:44:de:80:e2:c4:b4:45:31:15:aa:07:81:32:42:37:
         0b:ab:55:97:4a:4b:d4:13:f2:cc:59:03:d4:9b:0b:9e:1b:8c:
         d4:81:a8:ef:6f:fd:ea:4f:ce:f1:91:22:9c:8e:98:77:9a:22:
         bb:d8:8d:bf:89:04:71:36:1d:e0:2f:c1:50:69:ff:93:8c:37:
         28:5f:60:b6
-----BEGIN CERTIFICATE-----
MIIDXDCCAkSgAwIBAgIQJcp2ypZI6FSkZopG756S2jANBgkqhkiG9w0BAQsFADAW
MRQwEgYDVQQDDAt0ZWFtNTU1LW5ldDAeFw0yMjA1MTgyMjIzMTNaFw0yNTA1MDIy
MjIzMTNaMBkxFzAVBgNVBAMMDnRlYW01NTUtY2xpZW50MIIBIjANBgkqhkiG9w0B
AQEFAAOCAQ8AMIIBCgKCAQEAzL0OJZcku7T43VIsgqi8fx+ZTUNBGhGYAljXowBI
JMDd6P4DMUPuRlCwNpEWPRi9e+KrWDEXhQ/0VX4dX9PVYXpuf6xE/Netmja+X13X
VVBcREgC5ZdImRafEfOAr0/imgkluBG0CmrzEJizgIH2ayFKSBaKW3V0ZC5oSm11
yT2Js2hsXQa4rmMmHajEbpWnlWVSacSVAEBNWl7/6OICOEBf6BjeM8/3HwoPDAqA
hN8hx5iO44UAisQ5QFaH3Oe3TzvbBJh8fM2Drb8V5e9IMd3+FSo5xkaAwy/aAvdw
cnIQOsdo3yxJdsOBuMOiusxCrKDezzOuvUeaK+9ODkyvtQIDAQABo4GiMIGfMAkG
A1UdEwQCMAAwHQYDVR0OBBYEFDxRf/rAj4YAybF008Y7xY5tm2vyMFEGA1UdIwRK
MEiAFCxKDKuwjpru5N3kL65Azw56uSTkoRqkGDAWMRQwEgYDVQQDDAt0ZWFtNTU1
LW5ldIIUSj07Y9jVqg4Lo4x+qDP46nfC26UwEwYDVR0lBAwwCgYIKwYBBQUHAwIw
CwYDVR0PBAQDAgeAMA0GCSqGSIb3DQEBCwUAA4IBAQDMOy5OJ8/NIRgVcdS1zTCR
ReTk3VQfWZS6HRPWg8e0dLYl70pHyivA5uqQiXNTWpb6nq8GygGjdyFLae+RdIKa
SaH/uD11I5DKE6bQrltajCoIyyLxOmY6N6b9+DIXeCj9HEWQUcDQl+SdCBbTbeWI
AasjCsrLPMPyG9/iL98paBMUlgvr9Ke9edBEUXEuoLsZ5LcidWdbd4QxFRSSU03s
OfkuivSx11JNDgXg7u0KbEfCDpjO5wxE3oDixLRFMRWqB4EyQjcLq1WXSkvUE/LM
WQPUmwueG4zUgajvb/3qT87xkSKcjph3miK72I2/iQRxNh3gL8FQaf+TjDcoX2C2
-----END CERTIFICATE-----
