Certificate:
    Data:
        Version: 3 (0x2)
        Serial Number:
            31:59:a3:e9:7c:ed:9e:32:27:a7:81:23:c3:b7:6f:5f
        Signature Algorithm: sha256WithRSAEncryption
        Issuer: CN=team555-net
        Validity
            Not Before: May 18 22:23:14 2022 GMT
            Not After : May  2 22:23:14 2025 GMT
        Subject: CN=team555-server
        Subject Public Key Info:
            Public Key Algorithm: rsaEncryption
                RSA Public-Key: (2048 bit)
                Modulus:
                    00:c7:eb:c2:83:bf:42:1b:e8:fd:9e:0b:28:1a:4e:
                    fc:1f:5c:29:2c:65:09:f2:83:48:ab:f5:a6:5e:ed:
                    e4:1c:a3:5e:73:ff:b0:b5:76:78:2a:d1:c6:3a:13:
                    00:1f:0f:d3:3f:fc:1b:e1:8a:d6:c0:cf:94:bd:57:
                    d5:5f:2e:82:0a:fe:d0:77:63:12:65:b1:d8:b0:e7:
                    ad:ed:3c:5f:4c:69:2a:bd:33:cd:48:d3:fe:64:4a:
                    5e:74:2b:9c:d3:83:74:8c:07:96:e9:cb:5b:1c:b9:
                    58:96:18:4c:f9:b3:15:96:0e:e1:1c:f2:f3:ac:d0:
                    41:58:6d:6e:cb:ce:d5:af:8f:24:61:fa:80:44:9c:
                    dd:5f:7f:34:56:d9:c1:d9:2c:de:90:4e:bc:20:d2:
                    5c:e1:fc:b8:64:57:13:21:85:d1:df:da:21:90:b0:
                    2c:fe:00:c7:6b:ca:ec:39:16:a0:0a:43:5f:7d:65:
                    66:d3:ff:3b:35:d8:e0:04:53:d7:a5:1a:6e:12:14:
                    6e:a0:48:c9:97:8e:5f:04:96:b6:bd:ff:97:89:6c:
                    d3:23:6e:d0:63:0a:de:a9:91:84:3f:0c:8c:a0:fe:
                    b0:4a:51:5e:a0:ea:24:17:e5:b0:01:c1:5b:cd:74:
                    25:ab:b1:28:9b:ba:e3:b1:c3:f6:b7:72:57:62:53:
                    97:07
                Exponent: 65537 (0x10001)
        X509v3 extensions:
            X509v3 Basic Constraints: 
                CA:FALSE
            X509v3 Subject Key Identifier: 
                70:D2:56:6E:69:A4:BE:CF:EA:1E:DC:C2:EA:DE:BF:A7:F7:72:1D:50
            X509v3 Authority Key Identifier: 
                keyid:2C:4A:0C:AB:B0:8E:9A:EE:E4:DD:E4:2F:AE:40:CF:0E:7A:B9:24:E4
                DirName:/CN=team555-net
                serial:4A:3D:3B:63:D8:D5:AA:0E:0B:A3:8C:7E:A8:33:F8:EA:77:C2:DB:A5

            X509v3 Extended Key Usage: 
                TLS Web Server Authentication
            X509v3 Key Usage: 
                Digital Signature, Key Encipherment
            X509v3 Subject Alternative Name: 
                DNS:team555-server
    Signature Algorithm: sha256WithRSAEncryption
         4e:22:ac:de:34:97:7c:f7:9d:99:20:8f:6b:1a:59:ea:40:e0:
         a5:dd:32:62:66:a0:2b:0d:2b:99:c1:4f:d3:61:65:7a:88:62:
         55:d3:e8:6e:8f:a3:dc:b2:88:cd:fb:b8:60:5e:d0:e0:27:14:
         3b:3e:37:79:31:0d:73:be:8b:9b:07:6a:e3:a7:23:92:71:1a:
         f2:32:52:f6:4c:90:b2:10:44:80:82:b6:d4:04:55:36:b4:79:
         67:94:0b:6b:3a:61:4a:58:ee:c6:35:d0:7c:b0:6a:44:17:e9:
         fd:04:d9:1c:89:a8:3f:91:b0:03:83:25:70:42:0f:bc:50:53:
         e3:05:a0:75:ab:60:5d:99:a1:f3:c4:cc:10:33:4c:77:6f:c9:
         cc:ba:a5:ba:49:54:d0:6c:b1:4b:a2:8e:1a:10:2a:27:3b:f2:
         f8:7f:92:3b:1f:c9:b4:e2:1b:93:4b:a8:9d:ea:77:10:71:8a:
         96:e3:be:d1:5e:da:26:b9:c1:8c:ee:0d:76:ad:26:c0:71:cb:
         6c:54:0d:75:26:ca:e4:f2:15:ca:c8:44:1e:aa:11:7d:8f:9b:
         31:8d:53:85:94:5f:21:56:d6:ee:83:a7:fa:fa:3c:03:da:b4:
         8b:6d:2a:20:f9:ed:06:f9:be:a7:87:a2:72:f4:1a:8f:bc:62:
         78:b7:1f:b4
-----BEGIN CERTIFICATE-----
MIIDdzCCAl+gAwIBAgIQMVmj6XztnjInp4Ejw7dvXzANBgkqhkiG9w0BAQsFADAW
MRQwEgYDVQQDDAt0ZWFtNTU1LW5ldDAeFw0yMjA1MTgyMjIzMTRaFw0yNTA1MDIy
MjIzMTRaMBkxFzAVBgNVBAMMDnRlYW01NTUtc2VydmVyMIIBIjANBgkqhkiG9w0B
AQEFAAOCAQ8AMIIBCgKCAQEAx+vCg79CG+j9ngsoGk78H1wpLGUJ8oNIq/WmXu3k
HKNec/+wtXZ4KtHGOhMAHw/TP/wb4YrWwM+UvVfVXy6CCv7Qd2MSZbHYsOet7Txf
TGkqvTPNSNP+ZEpedCuc04N0jAeW6ctbHLlYlhhM+bMVlg7hHPLzrNBBWG1uy87V
r48kYfqARJzdX380VtnB2SzekE68INJc4fy4ZFcTIYXR39ohkLAs/gDHa8rsORag
CkNffWVm0/87NdjgBFPXpRpuEhRuoEjJl45fBJa2vf+XiWzTI27QYwreqZGEPwyM
oP6wSlFeoOokF+WwAcFbzXQlq7Eom7rjscP2t3JXYlOXBwIDAQABo4G9MIG6MAkG
A1UdEwQCMAAwHQYDVR0OBBYEFHDSVm5ppL7P6h7cwurev6f3ch1QMFEGA1UdIwRK
MEiAFCxKDKuwjpru5N3kL65Azw56uSTkoRqkGDAWMRQwEgYDVQQDDAt0ZWFtNTU1
LW5ldIIUSj07Y9jVqg4Lo4x+qDP46nfC26UwEwYDVR0lBAwwCgYIKwYBBQUHAwEw
CwYDVR0PBAQDAgWgMBkGA1UdEQQSMBCCDnRlYW01NTUtc2VydmVyMA0GCSqGSIb3
DQEBCwUAA4IBAQBOIqzeNJd8952ZII9rGlnqQOCl3TJiZqArDSuZwU/TYWV6iGJV
0+huj6PcsojN+7hgXtDgJxQ7Pjd5MQ1zvoubB2rjpyOScRryMlL2TJCyEESAgrbU
BFU2tHlnlAtrOmFKWO7GNdB8sGpEF+n9BNkciag/kbADgyVwQg+8UFPjBaB1q2Bd
maHzxMwQM0x3b8nMuqW6SVTQbLFLoo4aEConO/L4f5I7H8m04huTS6id6ncQcYqW
477RXtomucGM7g12rSbAcctsVA11Jsrk8hXKyEQeqhF9j5sxjVOFlF8hVtbug6f6
+jwD2rSLbSog+e0G+b6nh6Jy9BqPvGJ4tx+0
-----END CERTIFICATE-----
