Certificate:
    Data:
        Version: 3 (0x2)
        Serial Number:
            da:ef:f0:d1:99:d8:f0:ab:3c:4d:0f:7b:b3:35:dd:49
        Signature Algorithm: sha256WithRSAEncryption
        Issuer: CN=team74-net
        Validity
            Not Before: May 18 14:32:40 2022 GMT
            Not After : May  2 14:32:40 2025 GMT
        Subject: CN=team74-server
        Subject Public Key Info:
            Public Key Algorithm: rsaEncryption
                RSA Public-Key: (2048 bit)
                Modulus:
                    00:a6:ee:b3:bf:39:4a:3d:ea:46:51:b6:4f:6d:5d:
                    e6:2a:86:e3:81:2e:fd:ef:d3:e1:58:fb:d9:2e:3a:
                    3d:f5:aa:d3:19:2a:e5:a6:f8:e2:db:2f:2d:53:e1:
                    af:10:ca:37:30:51:d2:2d:04:64:7a:dd:19:e9:e0:
                    29:31:23:c3:7d:85:f2:cb:de:2b:a6:00:e4:e2:20:
                    33:24:da:a3:0d:a1:0b:1d:49:dd:e1:3f:fb:d3:73:
                    f1:9b:80:9e:de:49:b9:c6:9c:28:1a:e6:09:43:30:
                    1a:29:e3:1e:ee:d0:ec:65:1e:1a:f9:f1:f2:c5:7f:
                    9b:ee:7e:75:9d:22:a0:da:22:dc:d1:27:07:9d:34:
                    8e:32:46:b1:18:ef:43:4b:b8:9e:c3:ec:12:ca:33:
                    0d:06:ae:20:63:bf:41:28:df:75:4c:a6:d1:0c:d1:
                    0f:df:d3:75:35:49:04:cf:b3:7f:b7:8a:90:d8:a3:
                    43:c1:62:32:9d:71:94:21:1f:97:f3:92:23:fb:1c:
                    70:5a:9f:e5:8c:d1:fa:1d:ff:7f:bb:ee:64:5b:5f:
                    21:81:d0:8f:80:d1:1c:e7:a9:39:57:6e:f9:73:56:
                    4c:c1:39:15:74:51:a9:91:60:80:5d:10:44:5c:1f:
                    f9:e4:95:fa:ee:06:cc:5d:a8:31:7b:4c:4a:1c:0c:
                    51:c9
                Exponent: 65537 (0x10001)
        X509v3 extensions:
            X509v3 Basic Constraints: 
                CA:FALSE
            X509v3 Subject Key Identifier: 
                FD:2F:B4:12:AF:1F:4B:74:76:F5:AD:80:3F:A5:5E:BE:04:3C:10:7A
            X509v3 Authority Key Identifier: 
                keyid:63:72:41:90:28:A0:B8:FE:FF:3C:EB:0E:62:C2:39:70:C1:7F:1E:B6
                DirName:/CN=team74-net
                serial:06:13:D3:90:C4:44:7D:C9:E4:C7:A4:79:E5:EA:27:BF:55:03:01:95

            X509v3 Extended Key Usage: 
                TLS Web Server Authentication
            X509v3 Key Usage: 
                Digital Signature, Key Encipherment
            X509v3 Subject Alternative Name: 
                DNS:team74-server
    Signature Algorithm: sha256WithRSAEncryption
         52:f0:15:72:36:21:e8:6f:75:d1:77:64:29:9d:a1:81:14:ff:
         f8:a1:75:b0:58:5c:b8:f0:97:f2:68:3e:46:e9:eb:20:76:df:
         c5:c2:d6:84:c3:bd:6f:90:b3:94:c2:68:11:2d:3f:81:84:b8:
         a5:65:5e:88:73:07:c2:04:b4:1e:7d:87:50:f1:a0:4c:38:08:
         29:d6:b2:4b:52:cf:cb:ed:94:c4:d7:55:22:b2:0f:c6:2e:67:
         7b:7a:8b:cd:60:f2:86:ff:49:b6:67:a0:5d:e7:18:a9:9e:c0:
         a3:05:9a:86:ca:31:98:88:0a:11:b2:a6:63:fd:7d:eb:9c:99:
         86:2a:5f:aa:41:6e:cc:6b:f0:2c:7c:c7:f4:ac:c3:f7:70:a3:
         02:72:6f:bb:09:c8:d2:6d:96:b4:ec:cf:23:e0:3e:b9:1b:08:
         67:f5:c4:c2:be:e6:06:63:fc:51:2f:b0:69:96:83:7c:95:ed:
         51:38:4e:9a:4b:c7:71:05:05:43:10:d0:dc:e0:93:48:c2:ad:
         26:57:50:0c:9f:81:48:1c:6b:4a:cd:bd:f0:20:5d:6b:59:e5:
         46:ca:d5:8a:48:e2:b9:f5:8b:db:00:98:da:37:53:bd:4b:e2:
         54:da:95:1a:20:c0:43:f1:a8:f3:39:39:2a:d7:e7:de:03:25:
         3b:5d:17:85
-----BEGIN CERTIFICATE-----
MIIDdDCCAlygAwIBAgIRANrv8NGZ2PCrPE0Pe7M13UkwDQYJKoZIhvcNAQELBQAw
FTETMBEGA1UEAwwKdGVhbTc0LW5ldDAeFw0yMjA1MTgxNDMyNDBaFw0yNTA1MDIx
NDMyNDBaMBgxFjAUBgNVBAMMDXRlYW03NC1zZXJ2ZXIwggEiMA0GCSqGSIb3DQEB
AQUAA4IBDwAwggEKAoIBAQCm7rO/OUo96kZRtk9tXeYqhuOBLv3v0+FY+9kuOj31
qtMZKuWm+OLbLy1T4a8QyjcwUdItBGR63Rnp4CkxI8N9hfLL3iumAOTiIDMk2qMN
oQsdSd3hP/vTc/GbgJ7eSbnGnCga5glDMBop4x7u0OxlHhr58fLFf5vufnWdIqDa
ItzRJwedNI4yRrEY70NLuJ7D7BLKMw0GriBjv0Eo33VMptEM0Q/f03U1SQTPs3+3
ipDYo0PBYjKdcZQhH5fzkiP7HHBan+WM0fod/3+77mRbXyGB0I+A0RznqTlXbvlz
VkzBORV0UamRYIBdEERcH/nklfruBsxdqDF7TEocDFHJAgMBAAGjgbswgbgwCQYD
VR0TBAIwADAdBgNVHQ4EFgQU/S+0Eq8fS3R29a2AP6VevgQ8EHowUAYDVR0jBEkw
R4AUY3JBkCiguP7/POsOYsI5cMF/HrahGaQXMBUxEzARBgNVBAMMCnRlYW03NC1u
ZXSCFAYT05DERH3J5MekeeXqJ79VAwGVMBMGA1UdJQQMMAoGCCsGAQUFBwMBMAsG
A1UdDwQEAwIFoDAYBgNVHREEETAPgg10ZWFtNzQtc2VydmVyMA0GCSqGSIb3DQEB
CwUAA4IBAQBS8BVyNiHob3XRd2QpnaGBFP/4oXWwWFy48JfyaD5G6esgdt/FwtaE
w71vkLOUwmgRLT+BhLilZV6IcwfCBLQefYdQ8aBMOAgp1rJLUs/L7ZTE11Uisg/G
Lmd7eovNYPKG/0m2Z6Bd5xipnsCjBZqGyjGYiAoRsqZj/X3rnJmGKl+qQW7Ma/As
fMf0rMP3cKMCcm+7CcjSbZa07M8j4D65Gwhn9cTCvuYGY/xRL7BploN8le1ROE6a
S8dxBQVDENDc4JNIwq0mV1AMn4FIHGtKzb3wIF1rWeVGytWKSOK59YvbAJjaN1O9
S+JU2pUaIMBD8ajzOTkq1+feAyU7XReF
-----END CERTIFICATE-----
