Certificate:
    Data:
        Version: 3 (0x2)
        Serial Number:
            db:d8:f7:a1:1b:fa:fc:fd:bb:62:b4:7e:8c:85:85:91
        Signature Algorithm: sha256WithRSAEncryption
        Issuer: CN=team77-net
        Validity
            Not Before: May 18 14:34:00 2022 GMT
            Not After : May  2 14:34:00 2025 GMT
        Subject: CN=team77-client
        Subject Public Key Info:
            Public Key Algorithm: rsaEncryption
                RSA Public-Key: (2048 bit)
                Modulus:
                    00:9f:c3:42:9d:cb:78:f1:e1:12:ae:cd:34:60:ce:
                    c5:75:62:fc:47:24:e0:ec:4d:43:cf:bc:84:0b:86:
                    0b:79:e8:5b:28:d3:93:90:fe:c5:de:91:5f:a3:fe:
                    cd:e0:1d:0c:f4:68:60:27:3e:6b:d6:12:9a:2a:b4:
                    f9:06:df:d5:36:2b:b6:32:1e:53:c9:33:ee:a3:c0:
                    cb:26:c6:74:fd:b2:a5:84:d4:dc:98:0f:9b:13:f9:
                    87:ed:f8:23:b5:74:75:d7:ec:1c:5e:e4:13:22:69:
                    7d:fa:aa:5e:14:aa:ab:57:64:47:a9:cf:bd:4c:82:
                    5f:cf:3b:e2:c8:2d:1f:19:5a:32:b6:7b:b2:21:bf:
                    fb:67:59:27:07:47:98:af:a7:e4:9e:7f:ef:43:4f:
                    42:a1:bf:5d:51:de:61:3e:96:6a:b3:aa:51:e9:44:
                    43:a9:0c:27:11:3c:ce:55:63:84:c9:f6:0c:25:a3:
                    2d:89:a9:31:b1:43:70:e1:e0:16:51:78:49:86:ba:
                    25:ab:e0:ee:32:da:d8:2d:9f:7c:74:82:07:e6:16:
                    3f:ab:e3:98:d7:fa:a5:03:b3:cf:14:32:43:55:3d:
                    86:aa:36:7b:01:1b:03:af:72:3c:b3:b8:d8:62:c6:
                    fe:83:12:84:0b:2a:e6:c2:5f:14:de:d4:e2:3b:3c:
                    d7:d7
                Exponent: 65537 (0x10001)
        X509v3 extensions:
            X509v3 Basic Constraints: 
                CA:FALSE
            X509v3 Subject Key Identifier: 
                E9:CC:AD:6F:24:85:CA:A1:83:57:0F:4F:5C:F4:36:16:51:C8:1D:63
            X509v3 Authority Key Identifier: 
                keyid:E3:DB:79:43:C3:1D:6F:7B:5F:B5:14:1C:A7:85:57:F2:A6:11:ED:3E
                DirName:/CN=team77-net
                serial:14:13:F7:6F:87:0C:B1:F6:5E:8D:5D:72:36:6D:77:41:63:B6:2F:67

            X509v3 Extended Key Usage: 
                TLS Web Client Authentication
            X509v3 Key Usage: 
                Digital Signature
    Signature Algorithm: sha256WithRSAEncryption
         58:45:4b:8b:b4:ed:43:1e:28:24:9e:fb:e5:cc:ea:14:62:27:
         31:fd:d8:85:58:9c:c0:f6:fc:f3:fb:99:fe:b4:b1:d9:a8:01:
         6c:36:a7:8d:14:53:67:00:a6:b5:01:04:12:38:0a:f3:16:b2:
         08:1f:de:a1:df:b5:1e:dd:4f:3d:f8:3a:f9:1a:fc:7b:a1:8c:
         ce:50:47:8a:14:82:29:b0:8d:6c:dd:94:ee:c5:63:7e:58:ca:
         d7:e4:e7:7a:50:cf:9b:4b:9c:ef:76:1b:bf:b5:74:2c:81:50:
         b1:b8:87:d9:eb:2d:aa:b3:08:8e:0e:81:51:37:ba:20:b2:4b:
         37:27:20:8b:a8:6b:ec:f0:9b:87:f5:38:a9:57:d4:6d:35:75:
         d4:3d:16:b5:48:97:6f:39:9a:d9:5e:4e:c7:21:6c:b5:55:ee:
         37:5a:70:f6:82:48:ab:06:4c:76:9a:53:1a:3e:56:29:b6:c6:
         c4:c9:67:be:33:60:d2:12:22:98:29:a8:f9:0f:6b:f2:23:8a:
         98:b1:d1:ad:d7:98:f4:34:d1:c9:be:96:90:7c:57:42:eb:b6:
         66:7f:f8:5a:80:9b:30:fb:02:da:07:b6:c0:3e:e7:d5:32:63:
         69:6f:31:f4:3b:fd:91:8c:be:1e:cb:de:b6:16:e9:05:ab:51:
         15:df:20:0a
-----BEGIN CERTIFICATE-----
MIIDWjCCAkKgAwIBAgIRANvY96Eb+vz9u2K0foyFhZEwDQYJKoZIhvcNAQELBQAw
FTETMBEGA1UEAwwKdGVhbTc3LW5ldDAeFw0yMjA1MTgxNDM0MDBaFw0yNTA1MDIx
NDM0MDBaMBgxFjAUBgNVBAMMDXRlYW03Ny1jbGllbnQwggEiMA0GCSqGSIb3DQEB
AQUAA4IBDwAwggEKAoIBAQCfw0Kdy3jx4RKuzTRgzsV1YvxHJODsTUPPvIQLhgt5
6Fso05OQ/sXekV+j/s3gHQz0aGAnPmvWEpoqtPkG39U2K7YyHlPJM+6jwMsmxnT9
sqWE1NyYD5sT+Yft+CO1dHXX7Bxe5BMiaX36ql4UqqtXZEepz71Mgl/PO+LILR8Z
WjK2e7Ihv/tnWScHR5ivp+Sef+9DT0Khv11R3mE+lmqzqlHpREOpDCcRPM5VY4TJ
9gwloy2JqTGxQ3Dh4BZReEmGuiWr4O4y2tgtn3x0ggfmFj+r45jX+qUDs88UMkNV
PYaqNnsBGwOvcjyzuNhixv6DEoQLKubCXxTe1OI7PNfXAgMBAAGjgaEwgZ4wCQYD
VR0TBAIwADAdBgNVHQ4EFgQU6cytbySFyqGDVw9PXPQ2FlHIHWMwUAYDVR0jBEkw
R4AU49t5Q8Mdb3tftRQcp4VX8qYR7T6hGaQXMBUxEzARBgNVBAMMCnRlYW03Ny1u
ZXSCFBQT92+HDLH2Xo1dcjZtd0Fjti9nMBMGA1UdJQQMMAoGCCsGAQUFBwMCMAsG
A1UdDwQEAwIHgDANBgkqhkiG9w0BAQsFAAOCAQEAWEVLi7TtQx4oJJ775czqFGIn
Mf3YhVicwPb88/uZ/rSx2agBbDanjRRTZwCmtQEEEjgK8xayCB/eod+1Ht1PPfg6
+Rr8e6GMzlBHihSCKbCNbN2U7sVjfljK1+TnelDPm0uc73Ybv7V0LIFQsbiH2est
qrMIjg6BUTe6ILJLNycgi6hr7PCbh/U4qVfUbTV11D0WtUiXbzma2V5OxyFstVXu
N1pw9oJIqwZMdppTGj5WKbbGxMlnvjNg0hIimCmo+Q9r8iOKmLHRrdeY9DTRyb6W
kHxXQuu2Zn/4WoCbMPsC2ge2wD7n1TJjaW8x9Dv9kYy+HsvethbpBatRFd8gCg==
-----END CERTIFICATE-----
