Certificate:
    Data:
        Version: 3 (0x2)
        Serial Number:
            12:30:28:59:ac:a1:4f:83:48:ff:8b:b2:95:a6:23:dc
        Signature Algorithm: sha256WithRSAEncryption
        Issuer: CN=team344-net
        Validity
            Not Before: May 18 20:33:36 2022 GMT
            Not After : May  2 20:33:36 2025 GMT
        Subject: CN=team344-client
        Subject Public Key Info:
            Public Key Algorithm: rsaEncryption
                RSA Public-Key: (2048 bit)
                Modulus:
                    00:c8:56:5a:4f:92:6b:16:af:4e:a0:50:f8:41:7b:
                    5b:68:69:b4:24:e4:0f:6c:da:58:29:ee:1f:81:00:
                    dc:88:3d:d7:46:fc:a4:14:24:87:98:f2:f5:63:ec:
                    09:ed:57:a7:95:62:be:24:cb:99:5c:0d:f5:d3:b6:
                    5f:64:02:64:75:99:8e:0d:9d:f6:9a:83:5c:50:ce:
                    18:43:0a:94:c2:c8:69:f3:6f:64:50:4e:1a:47:7f:
                    08:25:c5:f3:0d:70:32:f5:68:5d:e1:ab:12:4c:09:
                    ad:ff:70:fe:7c:9a:ea:fb:00:0c:56:87:39:27:05:
                    75:ed:45:f1:a9:52:f8:e4:7c:d3:5d:29:49:96:2f:
                    03:fb:a4:02:c5:fa:45:d9:26:e5:a6:7a:75:12:da:
                    e0:a5:cf:97:3c:9f:36:6c:7b:cb:de:b3:10:81:35:
                    68:35:ba:64:78:22:86:2c:a1:d7:09:50:aa:f8:7a:
                    8f:ca:9d:89:65:f3:c7:ea:5f:27:8f:44:71:bd:5d:
                    00:94:9f:83:77:72:25:18:d2:de:c9:2e:73:6b:17:
                    1c:0d:6d:8a:4d:90:62:3a:de:a4:06:26:5d:27:27:
                    60:1b:d4:1a:df:15:56:00:0d:ef:9a:c2:e9:89:4f:
                    cf:68:d2:cc:0d:1a:f6:2b:db:79:8a:bc:6f:45:e6:
                    19:19
                Exponent: 65537 (0x10001)
        X509v3 extensions:
            X509v3 Basic Constraints: 
                CA:FALSE
            X509v3 Subject Key Identifier: 
                ED:AA:F0:0F:F7:D0:E8:E3:12:72:30:B9:04:E6:45:4A:FE:02:16:78
            X509v3 Authority Key Identifier: 
                keyid:86:CC:05:B0:E8:E7:C1:3B:BF:9A:2B:CB:65:D0:9A:CA:83:18:52:CE
                DirName:/CN=team344-net
                serial:2B:0E:49:BD:9F:65:3C:A7:35:C4:A2:FD:0B:05:61:0B:D7:51:47:68

            X509v3 Extended Key Usage: 
                TLS Web Client Authentication
            X509v3 Key Usage: 
                Digital Signature
    Signature Algorithm: sha256WithRSAEncryption
         17:42:fb:fe:90:d2:26:a0:66:92:b6:f0:71:3d:6f:66:5a:2f:
         e4:bd:21:05:b1:d9:a2:5a:30:3d:ab:12:63:44:9d:c6:ec:cc:
         b0:e7:20:36:3d:05:8f:ab:1a:24:a9:b7:20:7a:5e:31:ae:45:
         96:12:9d:9c:1a:91:3a:f4:ee:41:76:45:0a:ba:ee:a8:20:75:
         a7:1b:60:16:37:ca:dd:3b:5d:8a:a5:3c:59:fe:ef:71:b6:53:
         9c:ba:3d:20:58:7e:39:8d:61:7d:39:83:ba:5e:b3:43:bd:12:
         57:49:cf:4f:71:8b:34:d2:7c:8e:78:f2:f7:52:df:d9:a3:7c:
         fb:ca:4c:5c:88:9e:cb:39:fd:22:7f:79:1d:bd:a2:a0:58:f1:
         9c:02:0e:f2:34:f6:9c:46:35:05:04:73:9a:38:4a:1e:29:5c:
         be:0f:ee:20:30:17:cd:84:e7:95:df:3b:f7:ef:cc:85:df:5a:
         5a:ab:53:19:b9:f2:f5:e3:57:72:8e:9a:8e:16:fa:de:6c:db:
         c8:a8:64:b7:ed:e1:a0:1f:7f:99:2f:bc:67:12:92:ef:89:0e:
         1f:10:22:6c:d9:27:a9:ce:ed:26:70:68:b1:55:5e:a0:e1:c6:
         ea:7f:65:33:03:d7:8c:ca:d0:39:d1:8d:67:7f:e6:2e:59:bd:
         66:b0:f8:94
-----BEGIN CERTIFICATE-----
MIIDXDCCAkSgAwIBAgIQEjAoWayhT4NI/4uylaYj3DANBgkqhkiG9w0BAQsFADAW
MRQwEgYDVQQDDAt0ZWFtMzQ0LW5ldDAeFw0yMjA1MTgyMDMzMzZaFw0yNTA1MDIy
MDMzMzZaMBkxFzAVBgNVBAMMDnRlYW0zNDQtY2xpZW50MIIBIjANBgkqhkiG9w0B
AQEFAAOCAQ8AMIIBCgKCAQEAyFZaT5JrFq9OoFD4QXtbaGm0JOQPbNpYKe4fgQDc
iD3XRvykFCSHmPL1Y+wJ7VenlWK+JMuZXA3107ZfZAJkdZmODZ32moNcUM4YQwqU
wshp829kUE4aR38IJcXzDXAy9Whd4asSTAmt/3D+fJrq+wAMVoc5JwV17UXxqVL4
5HzTXSlJli8D+6QCxfpF2Sblpnp1Etrgpc+XPJ82bHvL3rMQgTVoNbpkeCKGLKHX
CVCq+HqPyp2JZfPH6l8nj0RxvV0AlJ+Dd3IlGNLeyS5zaxccDW2KTZBiOt6kBiZd
JydgG9Qa3xVWAA3vmsLpiU/PaNLMDRr2K9t5irxvReYZGQIDAQABo4GiMIGfMAkG
A1UdEwQCMAAwHQYDVR0OBBYEFO2q8A/30OjjEnIwuQTmRUr+AhZ4MFEGA1UdIwRK
MEiAFIbMBbDo58E7v5ory2XQmsqDGFLOoRqkGDAWMRQwEgYDVQQDDAt0ZWFtMzQ0
LW5ldIIUKw5JvZ9lPKc1xKL9CwVhC9dRR2gwEwYDVR0lBAwwCgYIKwYBBQUHAwIw
CwYDVR0PBAQDAgeAMA0GCSqGSIb3DQEBCwUAA4IBAQAXQvv+kNImoGaStvBxPW9m
Wi/kvSEFsdmiWjA9qxJjRJ3G7Myw5yA2PQWPqxokqbcgel4xrkWWEp2cGpE69O5B
dkUKuu6oIHWnG2AWN8rdO12KpTxZ/u9xtlOcuj0gWH45jWF9OYO6XrNDvRJXSc9P
cYs00nyOePL3Ut/Zo3z7ykxciJ7LOf0if3kdvaKgWPGcAg7yNPacRjUFBHOaOEoe
KVy+D+4gMBfNhOeV3zv378yF31paq1MZufL141dyjpqOFvrebNvIqGS37eGgH3+Z
L7xnEpLviQ4fECJs2Sepzu0mcGixVV6g4cbqf2UzA9eMytA50Y1nf+YuWb1msPiU
-----END CERTIFICATE-----
