Certificate:
    Data:
        Version: 3 (0x2)
        Serial Number:
            9d:bc:a2:6e:f0:f6:90:21:02:50:da:c9:7b:83:c5:29
        Signature Algorithm: sha256WithRSAEncryption
        Issuer: CN=team420-net
        Validity
            Not Before: May 18 21:02:28 2022 GMT
            Not After : May  2 21:02:28 2025 GMT
        Subject: CN=team420-server
        Subject Public Key Info:
            Public Key Algorithm: rsaEncryption
                RSA Public-Key: (2048 bit)
                Modulus:
                    00:b4:8e:8f:cb:ef:06:1e:10:88:89:6c:55:44:2d:
                    18:ba:14:34:c8:0b:32:c6:e1:56:4f:c5:9f:4f:51:
                    99:d8:87:3a:1f:65:ef:4a:0a:ff:20:fe:55:30:87:
                    ce:3c:52:a5:c8:ea:a3:69:fe:80:e8:05:66:a8:e1:
                    2b:aa:f5:f0:92:a3:61:b9:cd:e2:7d:28:68:a2:f4:
                    02:17:02:1a:2e:6d:4f:fe:f6:fa:9a:f9:6e:3e:a9:
                    af:39:a6:76:09:5f:01:1b:40:c0:4e:bb:15:fa:44:
                    3a:b0:e3:5a:eb:94:9c:43:98:54:b4:96:a1:c9:50:
                    f1:9a:ec:2b:d4:5c:72:63:b3:b3:88:35:ab:d7:f2:
                    c0:7a:42:b9:b2:96:27:3c:8b:9f:55:39:41:ae:1d:
                    78:40:42:5a:a7:36:39:c8:fe:1a:5d:f6:fc:22:2c:
                    e2:92:f6:f1:f7:92:ed:56:18:87:b9:b9:7f:96:2a:
                    56:34:a7:83:83:b6:a9:32:b1:d2:65:23:65:6b:01:
                    da:65:f5:d0:84:99:16:74:ad:c8:f2:ef:7d:c9:0f:
                    29:8d:d6:89:f8:d8:df:6d:aa:3b:e1:46:a8:1b:0f:
                    4d:f3:cd:fd:7b:be:dd:fc:e3:5d:a5:b1:9b:10:49:
                    d0:ef:36:1f:3b:03:74:d5:3f:7c:3d:43:a0:e8:65:
                    75:f1
                Exponent: 65537 (0x10001)
        X509v3 extensions:
            X509v3 Basic Constraints: 
                CA:FALSE
            X509v3 Subject Key Identifier: 
                0C:E7:B5:16:E5:D5:47:7F:F9:76:01:80:B8:A9:2C:D6:89:0D:12:AC
            X509v3 Authority Key Identifier: 
                keyid:DF:DB:A0:0D:94:EA:76:2D:37:D9:5B:8B:A6:35:F3:AE:DD:6E:5E:23
                DirName:/CN=team420-net
                serial:6A:D7:59:9E:A1:EF:2B:F7:5A:1C:83:0F:C6:FD:94:30:99:E2:38:F8

            X509v3 Extended Key Usage: 
                TLS Web Server Authentication
            X509v3 Key Usage: 
                Digital Signature, Key Encipherment
            X509v3 Subject Alternative Name: 
                DNS:team420-server
    Signature Algorithm: sha256WithRSAEncryption
         8d:61:42:e6:36:6b:9b:f9:2c:fa:f5:50:1c:20:f5:b7:ea:5c:
         14:4e:ce:c2:d2:5a:46:03:43:31:e4:ce:c4:68:d6:f1:85:3f:
         b1:f7:83:17:91:ad:e7:6d:66:60:62:94:b2:68:75:bc:ba:fb:
         78:59:c9:24:89:40:ea:e1:54:15:cf:14:bd:07:e4:59:ab:1f:
         2a:45:3a:3d:15:14:b6:a7:96:7a:91:fc:09:81:af:b1:29:13:
         18:3b:1e:ba:71:39:14:a4:ef:fd:82:6b:a6:dd:60:68:a9:6a:
         c2:1c:16:ae:a2:c0:e3:61:5b:3c:e7:ae:7d:4f:d4:3d:08:d7:
         14:2b:f3:14:ee:62:da:30:01:18:0e:af:58:ad:5e:dd:54:a8:
         fa:1d:a6:21:54:06:90:3f:d5:90:67:ed:78:14:fd:a8:a7:ce:
         3a:55:d5:7d:c5:38:ce:65:fe:d4:07:7e:34:8f:83:3a:09:f3:
         99:09:f2:7c:55:2e:31:78:ac:f6:0c:86:4e:cc:49:a4:be:02:
         6f:ef:e8:6e:e3:79:07:2e:d9:a9:77:69:20:6c:1d:a7:02:c9:
         f5:a2:4a:89:5d:8a:97:b3:8e:98:59:c4:64:8b:98:7b:ae:c2:
         6c:69:ab:07:a9:28:ef:a7:dc:30:5f:60:11:03:92:c3:ec:8f:
         9a:63:8f:a0
-----BEGIN CERTIFICATE-----
MIIDeDCCAmCgAwIBAgIRAJ28om7w9pAhAlDayXuDxSkwDQYJKoZIhvcNAQELBQAw
FjEUMBIGA1UEAwwLdGVhbTQyMC1uZXQwHhcNMjIwNTE4MjEwMjI4WhcNMjUwNTAy
MjEwMjI4WjAZMRcwFQYDVQQDDA50ZWFtNDIwLXNlcnZlcjCCASIwDQYJKoZIhvcN
AQEBBQADggEPADCCAQoCggEBALSOj8vvBh4QiIlsVUQtGLoUNMgLMsbhVk/Fn09R
mdiHOh9l70oK/yD+VTCHzjxSpcjqo2n+gOgFZqjhK6r18JKjYbnN4n0oaKL0AhcC
Gi5tT/72+pr5bj6przmmdglfARtAwE67FfpEOrDjWuuUnEOYVLSWoclQ8ZrsK9Rc
cmOzs4g1q9fywHpCubKWJzyLn1U5Qa4deEBCWqc2Ocj+Gl32/CIs4pL28feS7VYY
h7m5f5YqVjSng4O2qTKx0mUjZWsB2mX10ISZFnStyPLvfckPKY3WifjY322qO+FG
qBsPTfPN/Xu+3fzjXaWxmxBJ0O82HzsDdNU/fD1DoOhldfECAwEAAaOBvTCBujAJ
BgNVHRMEAjAAMB0GA1UdDgQWBBQM57UW5dVHf/l2AYC4qSzWiQ0SrDBRBgNVHSME
SjBIgBTf26ANlOp2LTfZW4umNfOu3W5eI6EapBgwFjEUMBIGA1UEAwwLdGVhbTQy
MC1uZXSCFGrXWZ6h7yv3WhyDD8b9lDCZ4jj4MBMGA1UdJQQMMAoGCCsGAQUFBwMB
MAsGA1UdDwQEAwIFoDAZBgNVHREEEjAQgg50ZWFtNDIwLXNlcnZlcjANBgkqhkiG
9w0BAQsFAAOCAQEAjWFC5jZrm/ks+vVQHCD1t+pcFE7OwtJaRgNDMeTOxGjW8YU/
sfeDF5Gt521mYGKUsmh1vLr7eFnJJIlA6uFUFc8UvQfkWasfKkU6PRUUtqeWepH8
CYGvsSkTGDseunE5FKTv/YJrpt1gaKlqwhwWrqLA42FbPOeufU/UPQjXFCvzFO5i
2jABGA6vWK1e3VSo+h2mIVQGkD/VkGfteBT9qKfOOlXVfcU4zmX+1Ad+NI+DOgnz
mQnyfFUuMXis9gyGTsxJpL4Cb+/obuN5By7ZqXdpIGwdpwLJ9aJKiV2Kl7OOmFnE
ZIuYe67CbGmrB6ko76fcMF9gEQOSw+yPmmOPoA==
-----END CERTIFICATE-----
