Certificate:
    Data:
        Version: 3 (0x2)
        Serial Number:
            3d:f4:76:29:1e:a4:24:fe:18:99:ba:09:cd:d5:a9:fd
        Signature Algorithm: sha256WithRSAEncryption
        Issuer: CN=team368-net
        Validity
            Not Before: May 18 20:37:02 2022 GMT
            Not After : May  2 20:37:02 2025 GMT
        Subject: CN=team368-client
        Subject Public Key Info:
            Public Key Algorithm: rsaEncryption
                RSA Public-Key: (2048 bit)
                Modulus:
                    00:c1:69:09:2e:0e:da:7e:3e:6d:21:ce:ac:9d:59:
                    5d:5f:b9:02:ea:c9:53:ce:9c:c1:df:72:90:a2:6d:
                    c3:df:93:29:78:72:3b:38:41:ff:df:34:a8:2f:ef:
                    ef:f8:55:ea:a1:70:ff:79:09:4d:5d:90:b1:ee:8f:
                    12:4d:33:da:f7:ee:8c:44:1a:ca:0f:6c:a8:30:9f:
                    a1:74:d0:f4:2f:68:2f:55:68:f7:64:3e:11:63:20:
                    05:93:93:59:3e:55:bd:fa:2e:20:4d:5c:9d:57:1f:
                    8d:32:93:36:43:8b:c7:89:08:81:bb:de:e2:d5:a8:
                    93:46:f5:10:59:b5:af:75:0f:0c:ac:65:2d:46:a9:
                    a3:52:75:d0:8c:3b:79:13:97:04:a1:a3:b9:16:1a:
                    36:fe:8d:b5:c0:3b:e8:69:7f:7d:49:c3:3f:cd:09:
                    7b:bc:d8:45:22:e5:4f:e0:b6:51:4b:42:23:cb:4e:
                    70:a0:26:d9:05:38:33:0f:59:79:15:30:ae:83:55:
                    16:4a:18:59:46:65:5e:be:b2:40:e6:97:df:c8:ec:
                    29:f4:90:50:5f:47:1a:08:0c:5e:5b:be:15:06:d3:
                    f4:b6:52:38:5e:73:7b:31:23:90:f3:90:b7:91:79:
                    38:7c:78:17:f2:32:92:6c:1c:0f:7b:86:af:81:ae:
                    ac:c7
                Exponent: 65537 (0x10001)
        X509v3 extensions:
            X509v3 Basic Constraints: 
                CA:FALSE
            X509v3 Subject Key Identifier: 
                63:E8:A6:1C:AD:04:68:A1:FD:99:C9:1D:7F:72:D3:EA:2D:EE:58:C0
            X509v3 Authority Key Identifier: 
                keyid:33:4C:34:1A:17:BA:B6:FD:E1:C6:BD:70:92:79:63:C6:8E:9D:D7:BA
                DirName:/CN=team368-net
                serial:56:05:25:A3:ED:BD:04:9B:9A:FC:7D:DA:F7:0D:F2:7C:5F:E9:6D:77

            X509v3 Extended Key Usage: 
                TLS Web Client Authentication
            X509v3 Key Usage: 
                Digital Signature
    Signature Algorithm: sha256WithRSAEncryption
         bc:ad:1e:1e:08:eb:55:c3:74:f7:37:f4:a9:d4:fc:57:28:db:
         20:a5:d4:38:c5:6f:41:5e:40:21:f6:09:d3:4f:c3:85:02:b3:
         60:54:16:11:b6:53:b8:dd:6b:f9:51:aa:99:3f:02:3f:19:cb:
         ec:b1:06:42:b8:8d:b0:72:6f:f0:5d:ae:f6:94:33:7a:02:a0:
         1a:34:90:f5:84:28:9a:2c:c1:88:77:3d:eb:9e:be:95:76:14:
         5b:2c:16:ed:aa:0c:9d:90:04:01:63:38:ee:e0:42:54:8b:cd:
         7b:4f:75:22:f3:eb:eb:3d:c1:f1:66:8d:3f:af:05:16:80:a8:
         3f:ff:50:7f:ba:7f:b9:80:cb:2b:c7:15:10:71:0d:20:3c:c7:
         66:c8:2a:70:11:6f:1d:62:92:ba:c6:57:90:54:1f:8c:12:51:
         24:e6:86:0a:c6:6a:a5:42:43:6d:7d:fd:fc:67:39:35:92:87:
         b3:7e:5b:c1:3f:36:a3:62:94:6b:36:9f:ec:ac:96:54:04:d7:
         c7:20:eb:e3:0e:52:58:4b:8e:37:dc:f8:eb:34:0c:d1:05:a3:
         a8:02:02:ca:77:b6:43:b6:7a:1a:4b:82:ef:a1:bb:a0:ea:94:
         cc:14:71:19:03:89:46:14:6c:5e:9d:49:8b:a1:ad:23:ab:39:
         fe:31:07:29
-----BEGIN CERTIFICATE-----
MIIDXDCCAkSgAwIBAgIQPfR2KR6kJP4YmboJzdWp/TANBgkqhkiG9w0BAQsFADAW
MRQwEgYDVQQDDAt0ZWFtMzY4LW5ldDAeFw0yMjA1MTgyMDM3MDJaFw0yNTA1MDIy
MDM3MDJaMBkxFzAVBgNVBAMMDnRlYW0zNjgtY2xpZW50MIIBIjANBgkqhkiG9w0B
AQEFAAOCAQ8AMIIBCgKCAQEAwWkJLg7afj5tIc6snVldX7kC6slTzpzB33KQom3D
35MpeHI7OEH/3zSoL+/v+FXqoXD/eQlNXZCx7o8STTPa9+6MRBrKD2yoMJ+hdND0
L2gvVWj3ZD4RYyAFk5NZPlW9+i4gTVydVx+NMpM2Q4vHiQiBu97i1aiTRvUQWbWv
dQ8MrGUtRqmjUnXQjDt5E5cEoaO5Fho2/o21wDvoaX99ScM/zQl7vNhFIuVP4LZR
S0Ijy05woCbZBTgzD1l5FTCug1UWShhZRmVevrJA5pffyOwp9JBQX0caCAxeW74V
BtP0tlI4XnN7MSOQ85C3kXk4fHgX8jKSbBwPe4avga6sxwIDAQABo4GiMIGfMAkG
A1UdEwQCMAAwHQYDVR0OBBYEFGPophytBGih/ZnJHX9y0+ot7ljAMFEGA1UdIwRK
MEiAFDNMNBoXurb94ca9cJJ5Y8aOnde6oRqkGDAWMRQwEgYDVQQDDAt0ZWFtMzY4
LW5ldIIUVgUlo+29BJua/H3a9w3yfF/pbXcwEwYDVR0lBAwwCgYIKwYBBQUHAwIw
CwYDVR0PBAQDAgeAMA0GCSqGSIb3DQEBCwUAA4IBAQC8rR4eCOtVw3T3N/Sp1PxX
KNsgpdQ4xW9BXkAh9gnTT8OFArNgVBYRtlO43Wv5UaqZPwI/GcvssQZCuI2wcm/w
Xa72lDN6AqAaNJD1hCiaLMGIdz3rnr6VdhRbLBbtqgydkAQBYzju4EJUi817T3Ui
8+vrPcHxZo0/rwUWgKg//1B/un+5gMsrxxUQcQ0gPMdmyCpwEW8dYpK6xleQVB+M
ElEk5oYKxmqlQkNtff38Zzk1koezflvBPzajYpRrNp/srJZUBNfHIOvjDlJYS443
3PjrNAzRBaOoAgLKd7ZDtnoaS4Lvobug6pTMFHEZA4lGFGxenUmLoa0jqzn+MQcp
-----END CERTIFICATE-----
