Certificate:
    Data:
        Version: 3 (0x2)
        Serial Number:
            c1:0b:0e:8d:20:a9:61:66:3b:68:06:d9:62:ce:02:1a
        Signature Algorithm: sha256WithRSAEncryption
        Issuer: CN=team263-net
        Validity
            Not Before: May 18 19:36:04 2022 GMT
            Not After : May  2 19:36:04 2025 GMT
        Subject: CN=team263-server
        Subject Public Key Info:
            Public Key Algorithm: rsaEncryption
                RSA Public-Key: (2048 bit)
                Modulus:
                    00:ba:9d:03:5f:1f:a6:7d:6a:62:a3:ee:ba:15:1d:
                    49:24:0c:7d:33:e2:f9:16:78:b2:5b:c0:2e:3e:b8:
                    38:1a:15:1c:6d:c9:4a:69:d1:48:a0:ce:a9:2d:ea:
                    74:ee:d6:e1:26:a7:d8:30:c9:68:c7:f8:38:d8:58:
                    a9:d9:4a:40:ba:6b:66:37:84:27:ab:96:79:87:ba:
                    b7:e9:ba:34:8a:70:da:78:8c:ab:31:41:72:52:4b:
                    c1:b8:a5:bd:8b:e5:20:3f:97:39:bb:2a:7d:c3:65:
                    ae:95:5f:0f:61:0d:40:6b:01:5a:2c:0a:6a:77:8c:
                    38:ea:48:34:ee:39:4f:88:ea:c7:4e:ba:d2:f9:55:
                    0f:34:4a:01:44:ab:4a:68:f4:24:51:fe:53:cb:55:
                    4b:af:4c:58:08:68:cc:85:ce:5b:fd:69:32:45:28:
                    e3:80:bc:c0:7d:bf:44:ea:1f:8f:b5:10:20:3d:7d:
                    80:91:a4:ff:d4:54:f8:ad:36:08:73:78:18:0f:5a:
                    07:50:41:89:b5:c5:7b:36:03:57:47:a2:53:d8:55:
                    be:51:9e:f2:5d:aa:11:6d:a6:b5:7c:e0:13:26:78:
                    51:54:17:ef:4b:fc:31:f2:d9:43:d9:44:a5:ea:f9:
                    41:b8:21:26:d6:2e:8b:51:f8:13:cc:02:9d:0f:dd:
                    a9:51
                Exponent: 65537 (0x10001)
        X509v3 extensions:
            X509v3 Basic Constraints: 
                CA:FALSE
            X509v3 Subject Key Identifier: 
                A4:CA:53:24:24:15:BD:DA:15:55:B3:91:15:9A:2B:F7:D9:9F:70:22
            X509v3 Authority Key Identifier: 
                keyid:CF:08:4B:64:B4:A7:A6:4E:48:1A:D9:76:59:1B:8B:D4:1D:83:BB:CB
                DirName:/CN=team263-net
                serial:01:CF:81:66:6C:52:3C:76:4E:4C:03:0A:5A:A0:53:6F:74:63:AA:C2

            X509v3 Extended Key Usage: 
                TLS Web Server Authentication
            X509v3 Key Usage: 
                Digital Signature, Key Encipherment
            X509v3 Subject Alternative Name: 
                DNS:team263-server
    Signature Algorithm: sha256WithRSAEncryption
         78:5e:45:73:d5:9a:31:f4:74:6f:64:be:e6:0d:43:ce:b1:ff:
         17:b7:09:7e:46:e7:9c:58:d9:5b:08:79:2d:bf:49:40:ab:ac:
         80:70:e4:b1:a8:2f:5b:9f:04:ff:3c:8a:8f:f2:7e:ab:13:c2:
         5b:2a:a9:1f:64:f1:1f:2c:3e:69:96:17:20:6b:38:2e:66:30:
         26:15:d5:67:8b:a3:6b:01:59:4a:bc:76:b5:34:e6:0a:46:8d:
         da:f0:1e:a5:5c:7e:cb:b4:8c:70:fe:18:19:f1:f7:af:ab:a6:
         18:1c:fc:9a:54:43:85:bf:43:9c:b1:70:36:79:dc:c8:ae:1e:
         0d:60:b9:e9:47:c5:8a:80:65:6e:22:30:4d:92:0c:0c:39:44:
         1b:ab:e8:92:31:8a:b5:d1:a3:14:46:4b:e5:e9:ed:95:b4:d9:
         47:eb:00:f5:68:e7:2e:a4:02:0c:65:b8:79:ce:65:5d:91:f7:
         ec:36:54:96:a3:6b:5d:56:28:15:60:1f:24:a9:6e:5b:c2:3a:
         90:2b:d7:30:5f:fb:d0:2c:c6:c0:16:78:7f:b1:eb:54:6c:37:
         da:59:68:18:4a:c5:fb:d4:06:6e:3a:b9:c2:7e:23:5e:ec:d5:
         00:15:60:f4:b8:ff:e7:63:db:a2:14:06:70:ae:0e:a7:31:3a:
         0a:88:ec:fe
-----BEGIN CERTIFICATE-----
MIIDeDCCAmCgAwIBAgIRAMELDo0gqWFmO2gG2WLOAhowDQYJKoZIhvcNAQELBQAw
FjEUMBIGA1UEAwwLdGVhbTI2My1uZXQwHhcNMjIwNTE4MTkzNjA0WhcNMjUwNTAy
MTkzNjA0WjAZMRcwFQYDVQQDDA50ZWFtMjYzLXNlcnZlcjCCASIwDQYJKoZIhvcN
AQEBBQADggEPADCCAQoCggEBALqdA18fpn1qYqPuuhUdSSQMfTPi+RZ4slvALj64
OBoVHG3JSmnRSKDOqS3qdO7W4San2DDJaMf4ONhYqdlKQLprZjeEJ6uWeYe6t+m6
NIpw2niMqzFBclJLwbilvYvlID+XObsqfcNlrpVfD2ENQGsBWiwKaneMOOpINO45
T4jqx0660vlVDzRKAUSrSmj0JFH+U8tVS69MWAhozIXOW/1pMkUo44C8wH2/ROof
j7UQID19gJGk/9RU+K02CHN4GA9aB1BBibXFezYDV0eiU9hVvlGe8l2qEW2mtXzg
EyZ4UVQX70v8MfLZQ9lEper5QbghJtYui1H4E8wCnQ/dqVECAwEAAaOBvTCBujAJ
BgNVHRMEAjAAMB0GA1UdDgQWBBSkylMkJBW92hVVs5EVmiv32Z9wIjBRBgNVHSME
SjBIgBTPCEtktKemTkga2XZZG4vUHYO7y6EapBgwFjEUMBIGA1UEAwwLdGVhbTI2
My1uZXSCFAHPgWZsUjx2TkwDClqgU290Y6rCMBMGA1UdJQQMMAoGCCsGAQUFBwMB
MAsGA1UdDwQEAwIFoDAZBgNVHREEEjAQgg50ZWFtMjYzLXNlcnZlcjANBgkqhkiG
9w0BAQsFAAOCAQEAeF5Fc9WaMfR0b2S+5g1DzrH/F7cJfkbnnFjZWwh5Lb9JQKus
gHDksagvW58E/zyKj/J+qxPCWyqpH2TxHyw+aZYXIGs4LmYwJhXVZ4ujawFZSrx2
tTTmCkaN2vAepVx+y7SMcP4YGfH3r6umGBz8mlRDhb9DnLFwNnncyK4eDWC56UfF
ioBlbiIwTZIMDDlEG6vokjGKtdGjFEZL5entlbTZR+sA9WjnLqQCDGW4ec5lXZH3
7DZUlqNrXVYoFWAfJKluW8I6kCvXMF/70CzGwBZ4f7HrVGw32lloGErF+9QGbjq5
wn4jXuzVABVg9Lj/52PbohQGcK4OpzE6Cojs/g==
-----END CERTIFICATE-----
