Certificate:
    Data:
        Version: 3 (0x2)
        Serial Number:
            c8:88:72:70:43:7e:68:ec:30:fd:7c:99:3d:d0:39:be
        Signature Algorithm: sha256WithRSAEncryption
        Issuer: CN=team263-net
        Validity
            Not Before: May 18 19:36:04 2022 GMT
            Not After : May  2 19:36:04 2025 GMT
        Subject: CN=team263-client
        Subject Public Key Info:
            Public Key Algorithm: rsaEncryption
                RSA Public-Key: (2048 bit)
                Modulus:
                    00:dd:1a:93:30:0f:47:aa:1e:9d:d2:8f:d2:14:75:
                    55:29:6d:b4:e2:cd:b8:d7:fd:3d:6a:e4:9a:77:e3:
                    a4:b5:35:5e:e1:5d:5d:2e:8f:a3:27:64:56:41:54:
                    fb:ca:66:dc:c1:00:8e:7b:82:e7:47:ad:b3:25:02:
                    25:7f:d6:6c:dd:08:fe:46:e4:aa:38:70:fd:22:75:
                    b8:eb:44:6a:05:44:57:de:bb:2c:74:92:e4:c9:7d:
                    0e:ae:22:4d:2c:a1:90:09:11:29:21:12:00:64:a8:
                    ff:e3:4e:ba:d0:87:d6:1c:b4:fe:7a:ad:b0:9d:e2:
                    7f:36:fe:04:3e:52:fc:fd:b4:3d:b2:ab:d4:b1:47:
                    8e:4b:96:9f:6c:9f:59:b7:01:07:fe:5f:07:98:51:
                    50:88:20:ec:83:fc:e9:dd:74:7a:e2:83:96:d6:53:
                    9d:52:b9:09:6b:40:41:de:6f:69:94:7a:31:b1:0e:
                    ef:a8:9a:40:6f:00:20:54:6c:8c:c4:c2:6e:05:99:
                    2f:36:01:ef:95:6b:da:14:ec:95:f2:9b:b0:04:16:
                    d9:67:4e:2a:b2:38:67:fd:6d:ab:82:ec:c4:41:9e:
                    92:9a:27:29:aa:db:85:8b:f6:b1:6f:93:3c:06:63:
                    20:79:17:cc:9d:bd:ba:59:61:9b:da:de:c4:92:b4:
                    23:bf
                Exponent: 65537 (0x10001)
        X509v3 extensions:
            X509v3 Basic Constraints: 
                CA:FALSE
            X509v3 Subject Key Identifier: 
                70:07:D8:B4:21:AF:3A:09:3A:B4:5F:37:4B:EF:F4:4D:9F:EC:AC:A4
            X509v3 Authority Key Identifier: 
                keyid:CF:08:4B:64:B4:A7:A6:4E:48:1A:D9:76:59:1B:8B:D4:1D:83:BB:CB
                DirName:/CN=team263-net
                serial:01:CF:81:66:6C:52:3C:76:4E:4C:03:0A:5A:A0:53:6F:74:63:AA:C2

            X509v3 Extended Key Usage: 
                TLS Web Client Authentication
            X509v3 Key Usage: 
                Digital Signature
    Signature Algorithm: sha256WithRSAEncryption
         55:8b:29:af:0a:9a:2f:e3:3c:f1:fc:7b:f4:35:8a:e7:3f:b8:
         d1:74:63:1b:00:37:8c:35:94:2e:9c:08:a0:50:cc:c0:51:55:
         8d:8a:45:e1:d6:5c:43:91:22:56:32:73:17:42:5f:71:31:e8:
         27:52:46:85:ed:d4:8a:2c:d0:f3:1f:4f:13:68:6a:8d:bb:9c:
         15:ff:44:ca:11:fc:e5:16:0a:4a:0f:7d:16:06:f6:da:5e:32:
         42:72:84:26:2b:d8:f8:32:73:2f:5e:0d:b9:c3:20:7f:f9:4a:
         67:4f:6a:86:08:03:31:52:25:93:bb:8d:0d:7a:d5:75:a3:61:
         eb:2d:e6:65:41:03:e7:c1:fd:86:c1:3c:0b:cb:21:e1:78:c2:
         8a:5c:d1:02:70:f5:27:3b:50:19:6f:98:24:cb:e9:99:a4:b9:
         b1:8e:69:72:87:0d:85:08:d7:b9:b1:62:17:02:98:72:70:b9:
         29:2c:4d:5d:00:2e:ba:0b:b9:2e:7b:bb:48:be:d4:ac:a6:42:
         98:3b:de:c0:c3:62:80:2d:72:f8:1e:a4:43:da:c1:32:08:e9:
         87:5e:85:35:dd:53:51:c3:1c:db:99:32:1e:21:78:66:0e:ef:
         da:cd:d5:b3:da:17:d4:e2:d1:19:32:68:61:eb:1b:f9:de:31:
         b8:17:c8:26
-----BEGIN CERTIFICATE-----
MIIDXTCCAkWgAwIBAgIRAMiIcnBDfmjsMP18mT3QOb4wDQYJKoZIhvcNAQELBQAw
FjEUMBIGA1UEAwwLdGVhbTI2My1uZXQwHhcNMjIwNTE4MTkzNjA0WhcNMjUwNTAy
MTkzNjA0WjAZMRcwFQYDVQQDDA50ZWFtMjYzLWNsaWVudDCCASIwDQYJKoZIhvcN
AQEBBQADggEPADCCAQoCggEBAN0akzAPR6oendKP0hR1VSlttOLNuNf9PWrkmnfj
pLU1XuFdXS6PoydkVkFU+8pm3MEAjnuC50etsyUCJX/WbN0I/kbkqjhw/SJ1uOtE
agVEV967LHSS5Ml9Dq4iTSyhkAkRKSESAGSo/+NOutCH1hy0/nqtsJ3ifzb+BD5S
/P20PbKr1LFHjkuWn2yfWbcBB/5fB5hRUIgg7IP86d10euKDltZTnVK5CWtAQd5v
aZR6MbEO76iaQG8AIFRsjMTCbgWZLzYB75Vr2hTslfKbsAQW2WdOKrI4Z/1tq4Ls
xEGekponKarbhYv2sW+TPAZjIHkXzJ29ullhm9rexJK0I78CAwEAAaOBojCBnzAJ
BgNVHRMEAjAAMB0GA1UdDgQWBBRwB9i0Ia86CTq0XzdL7/RNn+yspDBRBgNVHSME
SjBIgBTPCEtktKemTkga2XZZG4vUHYO7y6EapBgwFjEUMBIGA1UEAwwLdGVhbTI2
My1uZXSCFAHPgWZsUjx2TkwDClqgU290Y6rCMBMGA1UdJQQMMAoGCCsGAQUFBwMC
MAsGA1UdDwQEAwIHgDANBgkqhkiG9w0BAQsFAAOCAQEAVYsprwqaL+M88fx79DWK
5z+40XRjGwA3jDWULpwIoFDMwFFVjYpF4dZcQ5EiVjJzF0JfcTHoJ1JGhe3UiizQ
8x9PE2hqjbucFf9EyhH85RYKSg99Fgb22l4yQnKEJivY+DJzL14NucMgf/lKZ09q
hggDMVIlk7uNDXrVdaNh6y3mZUED58H9hsE8C8sh4XjCilzRAnD1JztQGW+YJMvp
maS5sY5pcocNhQjXubFiFwKYcnC5KSxNXQAuugu5Lnu7SL7UrKZCmDvewMNigC1y
+B6kQ9rBMgjph16FNd1TUcMc25kyHiF4Zg7v2s3Vs9oX1OLRGTJoYesb+d4xuBfI
Jg==
-----END CERTIFICATE-----
