Certificate:
    Data:
        Version: 3 (0x2)
        Serial Number:
            1e:4d:d3:8b:1e:49:d0:0d:c9:94:0a:32:a9:74:e9:28
        Signature Algorithm: sha256WithRSAEncryption
        Issuer: CN=team178-net
        Validity
            Not Before: May 18 18:56:09 2022 GMT
            Not After : May  2 18:56:09 2025 GMT
        Subject: CN=team178-client
        Subject Public Key Info:
            Public Key Algorithm: rsaEncryption
                RSA Public-Key: (2048 bit)
                Modulus:
                    00:b7:40:2b:4f:df:6d:82:6d:fe:7a:c0:8c:9f:1d:
                    a1:a2:6a:01:a5:ee:39:dd:be:40:a3:cc:d2:4c:ad:
                    08:8a:16:3b:90:f5:83:42:f0:33:09:0a:bd:f6:4d:
                    f9:41:0a:6a:9b:9f:60:00:21:26:9f:4e:83:86:38:
                    dd:18:46:80:1f:f3:15:8b:8d:c3:a5:2d:0e:f3:0b:
                    38:b9:0c:17:01:26:71:76:47:2c:b6:3c:ae:80:36:
                    57:6f:bc:69:0c:22:00:b0:0d:aa:6a:85:41:3d:d2:
                    82:05:40:f5:95:a5:49:65:42:d1:8f:cc:2f:7b:2f:
                    1b:fb:22:1a:e3:8d:22:f5:5a:86:e3:81:87:2f:9d:
                    90:c8:d1:fc:0d:a7:43:d6:bb:52:2c:46:fb:ba:15:
                    d6:4b:9f:27:95:c9:e7:59:36:f6:0e:d7:cd:84:63:
                    d1:12:43:83:c5:1f:d9:9b:8e:a1:9a:5a:20:e5:03:
                    8e:58:a0:f8:07:c9:53:2e:f4:e5:ec:8b:44:b2:c7:
                    d4:52:93:f1:ca:23:39:b7:b5:ee:bd:4c:ed:df:c4:
                    c2:24:ca:df:e7:c2:0f:36:8b:15:d3:03:c0:62:c3:
                    13:e5:e6:71:23:bf:d3:6e:ab:18:f2:70:af:ff:45:
                    06:fa:a2:f6:3e:40:13:c3:11:81:e1:73:a6:1c:72:
                    3f:b7
                Exponent: 65537 (0x10001)
        X509v3 extensions:
            X509v3 Basic Constraints: 
                CA:FALSE
            X509v3 Subject Key Identifier: 
                80:B5:F0:48:E0:61:A2:9C:D5:A4:C0:D0:4C:76:A6:6D:AB:DB:11:76
            X509v3 Authority Key Identifier: 
                keyid:2B:86:38:56:4E:6F:07:4F:6B:93:42:3D:CD:1A:87:FE:4F:04:C6:F0
                DirName:/CN=team178-net
                serial:59:3F:C0:89:E4:CC:7D:4D:6C:84:1B:18:A6:D0:AD:4D:79:3E:DB:D0

            X509v3 Extended Key Usage: 
                TLS Web Client Authentication
            X509v3 Key Usage: 
                Digital Signature
    Signature Algorithm: sha256WithRSAEncryption
         33:c1:60:7c:f2:e7:da:3b:75:91:52:f1:42:4d:ef:5b:4f:3e:
         14:e6:75:5e:64:10:1e:76:89:b1:72:40:0f:89:33:5c:de:77:
         e2:71:2a:3c:9f:d7:f9:0c:6d:a4:97:e5:c9:a6:5d:8e:f7:b2:
         3a:04:48:01:d4:4f:6b:d7:3c:b9:58:3c:91:18:ac:f0:66:75:
         48:54:2a:75:c7:36:b3:0e:d1:50:e8:52:35:0f:9d:8c:3b:e0:
         0b:05:4f:66:6c:c8:7a:bd:a7:14:8e:a6:28:d9:89:b9:87:8b:
         30:75:a3:a8:e0:49:1d:b8:7a:23:3a:b9:4e:8b:52:b9:d1:7a:
         f5:0a:9f:0d:af:49:f1:c9:2d:b0:82:07:76:36:66:f0:c3:b7:
         dc:c3:78:19:65:bd:77:6c:44:70:cf:4c:01:5a:c7:f9:a7:26:
         e1:22:1d:26:0c:9c:28:8f:1a:5e:bd:c6:3e:04:b5:92:b5:cd:
         58:60:69:9e:5e:7d:2b:30:6c:24:86:1e:b7:29:95:6a:f2:ba:
         f8:52:ac:5e:f4:c7:6b:e0:e3:ef:69:a1:f1:f7:39:fc:36:65:
         c8:e6:87:b1:84:74:5a:2c:6c:a2:32:b2:fd:ef:b5:70:ab:bf:
         2e:de:1c:9d:c7:1d:14:01:3a:8e:55:b3:35:cb:07:bd:fb:5e:
         b2:85:aa:fd
-----BEGIN CERTIFICATE-----
MIIDXDCCAkSgAwIBAgIQHk3Tix5J0A3JlAoyqXTpKDANBgkqhkiG9w0BAQsFADAW
MRQwEgYDVQQDDAt0ZWFtMTc4LW5ldDAeFw0yMjA1MTgxODU2MDlaFw0yNTA1MDIx
ODU2MDlaMBkxFzAVBgNVBAMMDnRlYW0xNzgtY2xpZW50MIIBIjANBgkqhkiG9w0B
AQEFAAOCAQ8AMIIBCgKCAQEAt0ArT99tgm3+esCMnx2homoBpe453b5Ao8zSTK0I
ihY7kPWDQvAzCQq99k35QQpqm59gACEmn06DhjjdGEaAH/MVi43DpS0O8ws4uQwX
ASZxdkcstjyugDZXb7xpDCIAsA2qaoVBPdKCBUD1laVJZULRj8wvey8b+yIa440i
9VqG44GHL52QyNH8DadD1rtSLEb7uhXWS58nlcnnWTb2DtfNhGPREkODxR/Zm46h
mlog5QOOWKD4B8lTLvTl7ItEssfUUpPxyiM5t7XuvUzt38TCJMrf58IPNosV0wPA
YsMT5eZxI7/TbqsY8nCv/0UG+qL2PkATwxGB4XOmHHI/twIDAQABo4GiMIGfMAkG
A1UdEwQCMAAwHQYDVR0OBBYEFIC18EjgYaKc1aTA0Ex2pm2r2xF2MFEGA1UdIwRK
MEiAFCuGOFZObwdPa5NCPc0ah/5PBMbwoRqkGDAWMRQwEgYDVQQDDAt0ZWFtMTc4
LW5ldIIUWT/AieTMfU1shBsYptCtTXk+29AwEwYDVR0lBAwwCgYIKwYBBQUHAwIw
CwYDVR0PBAQDAgeAMA0GCSqGSIb3DQEBCwUAA4IBAQAzwWB88ufaO3WRUvFCTe9b
Tz4U5nVeZBAedomxckAPiTNc3nficSo8n9f5DG2kl+XJpl2O97I6BEgB1E9r1zy5
WDyRGKzwZnVIVCp1xzazDtFQ6FI1D52MO+ALBU9mbMh6vacUjqYo2Ym5h4swdaOo
4EkduHojOrlOi1K50Xr1Cp8Nr0nxyS2wggd2Nmbww7fcw3gZZb13bERwz0wBWsf5
pybhIh0mDJwojxpevcY+BLWStc1YYGmeXn0rMGwkhh63KZVq8rr4Uqxe9Mdr4OPv
aaHx9zn8NmXI5oexhHRaLGyiMrL977Vwq78u3hydxx0UATqOVbM1ywe9+16yhar9
-----END CERTIFICATE-----
