Certificate:
    Data:
        Version: 3 (0x2)
        Serial Number:
            e5:2c:bf:a6:57:4a:83:28:46:f9:01:a1:b9:5d:e0:54
        Signature Algorithm: sha256WithRSAEncryption
        Issuer: CN=team258-net
        Validity
            Not Before: May 18 19:33:28 2022 GMT
            Not After : May  2 19:33:28 2025 GMT
        Subject: CN=team258-server
        Subject Public Key Info:
            Public Key Algorithm: rsaEncryption
                RSA Public-Key: (2048 bit)
                Modulus:
                    00:f3:d5:5a:8b:73:ac:41:51:6e:d4:a1:dc:fe:e1:
                    71:da:47:ee:cc:0b:4a:84:6c:11:e0:7d:28:e0:e8:
                    f3:68:bc:d2:d7:ec:50:72:4e:c5:fe:38:b8:0f:c9:
                    b0:7f:b6:a3:a0:5b:e3:47:d3:35:87:3a:22:5f:78:
                    e1:cd:71:ee:42:89:95:05:ab:1e:43:ff:63:0f:09:
                    dc:c8:56:df:65:79:4e:c5:b8:65:e0:37:7e:40:e2:
                    55:62:72:35:49:92:b8:8e:be:31:77:2d:20:8a:e1:
                    a8:4b:d9:5c:63:9f:56:98:bd:a1:d4:29:aa:32:89:
                    bc:18:72:85:b4:90:b2:67:01:2b:db:65:81:ee:bc:
                    3d:b5:df:39:05:ea:f7:9b:e1:08:08:f6:08:4e:36:
                    d3:3a:f5:15:07:2a:3e:bc:58:0a:93:70:a9:45:6d:
                    8b:e3:23:65:cb:10:2a:a2:b3:05:ef:23:39:78:f8:
                    08:ad:c5:bb:72:65:6c:f1:39:7d:11:06:40:1d:e0:
                    6f:b3:d9:09:ed:80:30:f7:66:08:3f:a0:1c:13:c1:
                    ba:8a:5c:bc:cd:04:ca:02:0c:69:b3:27:7c:95:1a:
                    72:a8:ff:6c:bd:05:ed:42:69:0a:4b:0e:39:89:27:
                    5d:be:88:ff:d4:fe:3e:dc:59:e0:83:9c:22:b4:e0:
                    85:47
                Exponent: 65537 (0x10001)
        X509v3 extensions:
            X509v3 Basic Constraints: 
                CA:FALSE
            X509v3 Subject Key Identifier: 
                0B:8C:CC:CC:26:2F:22:30:7A:B9:23:4D:59:54:46:60:87:E7:01:07
            X509v3 Authority Key Identifier: 
                keyid:72:87:14:6C:45:CD:61:75:F5:36:1C:67:6D:70:C9:FB:8A:F0:E2:A2
                DirName:/CN=team258-net
                serial:62:38:B2:DA:7A:49:60:9E:6A:4F:60:72:02:F7:6E:22:9F:A9:E0:3E

            X509v3 Extended Key Usage: 
                TLS Web Server Authentication
            X509v3 Key Usage: 
                Digital Signature, Key Encipherment
            X509v3 Subject Alternative Name: 
                DNS:team258-server
    Signature Algorithm: sha256WithRSAEncryption
         28:20:58:ca:e4:8f:16:6d:14:6c:80:30:28:1d:0e:23:73:aa:
         6f:3f:33:04:d7:b5:08:a0:dc:c2:2b:16:ff:4f:db:2e:e9:d4:
         40:84:0d:12:5b:00:88:87:53:3d:71:04:52:53:3e:33:f6:4f:
         74:f7:ff:1d:e2:30:38:4d:c5:d8:b7:d5:03:68:ad:36:4a:39:
         3f:7d:b7:69:ad:21:24:73:ca:26:a5:bd:ec:94:a3:3f:b1:a3:
         b5:2e:f9:22:00:f7:66:48:99:66:39:de:26:72:a6:05:f5:a8:
         ce:78:6c:ae:eb:af:e7:6a:91:38:b0:19:0c:c3:66:22:39:17:
         87:a1:c4:ca:1c:3a:ef:10:1c:59:21:71:32:20:e7:af:ab:69:
         69:41:08:3b:92:73:ae:67:00:78:7f:97:44:bf:91:79:f5:14:
         3f:9d:0e:f8:80:f8:93:0e:af:ae:fc:46:80:56:18:5d:28:be:
         06:ec:08:71:44:22:9b:f3:85:bb:c3:e5:94:0a:e8:4d:a6:b7:
         bc:53:23:36:8b:ea:56:d1:a1:c2:7d:a7:29:b0:52:5d:ac:78:
         1b:2d:02:9e:2f:43:e0:ed:1d:ad:f8:10:9a:60:d9:be:58:a2:
         bb:b5:96:39:67:e9:77:da:2e:b5:ed:ba:9d:d7:92:d4:17:60:
         96:36:1b:e8
-----BEGIN CERTIFICATE-----
MIIDeDCCAmCgAwIBAgIRAOUsv6ZXSoMoRvkBobld4FQwDQYJKoZIhvcNAQELBQAw
FjEUMBIGA1UEAwwLdGVhbTI1OC1uZXQwHhcNMjIwNTE4MTkzMzI4WhcNMjUwNTAy
MTkzMzI4WjAZMRcwFQYDVQQDDA50ZWFtMjU4LXNlcnZlcjCCASIwDQYJKoZIhvcN
AQEBBQADggEPADCCAQoCggEBAPPVWotzrEFRbtSh3P7hcdpH7swLSoRsEeB9KODo
82i80tfsUHJOxf44uA/JsH+2o6Bb40fTNYc6Il944c1x7kKJlQWrHkP/Yw8J3MhW
32V5TsW4ZeA3fkDiVWJyNUmSuI6+MXctIIrhqEvZXGOfVpi9odQpqjKJvBhyhbSQ
smcBK9tlge68PbXfOQXq95vhCAj2CE420zr1FQcqPrxYCpNwqUVti+MjZcsQKqKz
Be8jOXj4CK3Fu3JlbPE5fREGQB3gb7PZCe2AMPdmCD+gHBPBuopcvM0EygIMabMn
fJUacqj/bL0F7UJpCksOOYknXb6I/9T+PtxZ4IOcIrTghUcCAwEAAaOBvTCBujAJ
BgNVHRMEAjAAMB0GA1UdDgQWBBQLjMzMJi8iMHq5I01ZVEZgh+cBBzBRBgNVHSME
SjBIgBRyhxRsRc1hdfU2HGdtcMn7ivDioqEapBgwFjEUMBIGA1UEAwwLdGVhbTI1
OC1uZXSCFGI4stp6SWCeak9gcgL3biKfqeA+MBMGA1UdJQQMMAoGCCsGAQUFBwMB
MAsGA1UdDwQEAwIFoDAZBgNVHREEEjAQgg50ZWFtMjU4LXNlcnZlcjANBgkqhkiG
9w0BAQsFAAOCAQEAKCBYyuSPFm0UbIAwKB0OI3Oqbz8zBNe1CKDcwisW/0/bLunU
QIQNElsAiIdTPXEEUlM+M/ZPdPf/HeIwOE3F2LfVA2itNko5P323aa0hJHPKJqW9
7JSjP7GjtS75IgD3ZkiZZjneJnKmBfWoznhsruuv52qROLAZDMNmIjkXh6HEyhw6
7xAcWSFxMiDnr6tpaUEIO5JzrmcAeH+XRL+RefUUP50O+ID4kw6vrvxGgFYYXSi+
BuwIcUQim/OFu8PllAroTaa3vFMjNovqVtGhwn2nKbBSXax4Gy0Cni9D4O0drfgQ
mmDZvliiu7WWOWfpd9oute26ndeS1BdgljYb6A==
-----END CERTIFICATE-----
