Certificate:
    Data:
        Version: 3 (0x2)
        Serial Number:
            86:cc:32:69:5b:69:b0:69:3c:8e:82:90:57:91:28:7b
        Signature Algorithm: sha256WithRSAEncryption
        Issuer: CN=team547-net
        Validity
            Not Before: May 18 22:11:03 2022 GMT
            Not After : May  2 22:11:03 2025 GMT
        Subject: CN=team547-client
        Subject Public Key Info:
            Public Key Algorithm: rsaEncryption
                RSA Public-Key: (2048 bit)
                Modulus:
                    00:b4:9b:35:26:14:9b:f4:66:ec:59:36:49:b5:29:
                    73:44:45:32:90:98:b9:9e:d2:b3:c0:8b:07:2c:b1:
                    e4:77:58:ad:85:a2:3d:17:ec:b5:98:88:f8:a3:f3:
                    3d:d2:66:0a:bc:9c:46:ea:6f:dd:2e:d3:43:b6:d2:
                    7d:42:d8:63:89:55:4c:b3:ef:b9:50:ac:b5:19:85:
                    3f:a7:14:bf:5e:db:8e:92:e9:c0:d3:47:b4:9c:89:
                    d1:9f:15:7a:74:d6:23:ac:ec:46:5e:e0:70:6d:34:
                    ce:33:07:06:14:1c:be:f8:82:68:99:64:74:b4:04:
                    09:7e:f0:ed:2b:a8:07:35:80:84:cf:5a:e6:6e:a3:
                    3d:12:80:15:2e:0d:ea:63:8d:cf:7b:b1:12:e3:6d:
                    93:18:bb:36:d9:1d:be:ad:6a:a2:e8:17:aa:d2:61:
                    e8:44:e7:24:02:7d:ec:60:ac:c7:d3:66:31:ee:59:
                    8f:57:9e:97:66:ab:6e:b9:be:35:02:57:24:3a:e7:
                    96:e6:d2:29:a2:28:48:e0:78:41:c3:2d:25:71:b6:
                    c0:a2:e7:04:11:98:20:a5:e7:47:64:9e:e3:29:80:
                    31:8d:69:83:e1:95:1f:d8:21:35:48:3e:64:c4:60:
                    f7:10:e7:d8:10:cc:d7:e9:e1:76:35:35:d3:29:f1:
                    1c:05
                Exponent: 65537 (0x10001)
        X509v3 extensions:
            X509v3 Basic Constraints: 
                CA:FALSE
            X509v3 Subject Key Identifier: 
                F9:2E:F2:8C:EE:66:C8:5E:F9:29:B2:BA:F0:0C:8A:DB:99:54:1B:B8
            X509v3 Authority Key Identifier: 
                keyid:98:D5:71:E8:BD:2E:26:D6:CE:32:E5:EF:D7:81:14:B6:02:FB:25:78
                DirName:/CN=team547-net
                serial:20:27:19:46:14:2B:9E:AF:50:58:4F:52:9F:8F:02:8A:2D:27:B2:14

            X509v3 Extended Key Usage: 
                TLS Web Client Authentication
            X509v3 Key Usage: 
                Digital Signature
    Signature Algorithm: sha256WithRSAEncryption
         e8:c7:d6:21:6a:bf:d4:fd:c3:9b:e7:34:b8:e7:ee:42:17:61:
         9e:e1:d5:b6:4a:bf:af:c0:35:40:6c:b0:08:11:36:69:2c:fb:
         68:28:26:cd:97:1d:7d:5b:e1:bd:f4:79:b4:15:36:8f:32:f5:
         8c:12:f9:00:ae:82:00:1e:ad:b8:dc:b4:a5:1b:58:15:0f:19:
         f1:d3:1e:62:cd:54:e6:e0:c9:88:56:8f:4e:99:47:5c:bb:0f:
         f4:b5:40:04:43:45:94:e5:8b:d2:d7:96:00:4f:f2:1f:f3:49:
         5b:8a:fc:7f:a7:d5:e6:6d:1f:4e:52:23:fe:9a:9b:5a:d3:27:
         87:2e:99:30:92:05:bd:e4:32:b6:03:4b:0a:76:c6:ec:2e:ab:
         5a:2a:4f:8a:c1:f7:1b:ff:5c:6c:46:f7:0d:30:57:1a:7d:e0:
         46:2b:d9:3b:af:2f:61:93:b5:cf:b2:40:24:ee:56:12:d3:0f:
         b8:f7:8c:86:84:4a:a4:a1:1b:f1:a9:93:9f:6f:38:56:0c:23:
         77:fc:4f:77:18:db:8b:68:40:1a:8f:5c:71:88:31:18:57:0e:
         c9:db:d0:b3:da:08:91:bf:92:03:bd:61:08:42:b1:ab:16:10:
         62:19:c9:e1:74:0c:f9:bc:ab:1c:a2:a3:89:4f:9e:c3:74:24:
         2a:b4:7e:1d
-----BEGIN CERTIFICATE-----
MIIDXTCCAkWgAwIBAgIRAIbMMmlbabBpPI6CkFeRKHswDQYJKoZIhvcNAQELBQAw
FjEUMBIGA1UEAwwLdGVhbTU0Ny1uZXQwHhcNMjIwNTE4MjIxMTAzWhcNMjUwNTAy
MjIxMTAzWjAZMRcwFQYDVQQDDA50ZWFtNTQ3LWNsaWVudDCCASIwDQYJKoZIhvcN
AQEBBQADggEPADCCAQoCggEBALSbNSYUm/Rm7Fk2SbUpc0RFMpCYuZ7Ss8CLByyx
5HdYrYWiPRfstZiI+KPzPdJmCrycRupv3S7TQ7bSfULYY4lVTLPvuVCstRmFP6cU
v17bjpLpwNNHtJyJ0Z8VenTWI6zsRl7gcG00zjMHBhQcvviCaJlkdLQECX7w7Suo
BzWAhM9a5m6jPRKAFS4N6mONz3uxEuNtkxi7Ntkdvq1qougXqtJh6ETnJAJ97GCs
x9NmMe5Zj1eel2arbrm+NQJXJDrnlubSKaIoSOB4QcMtJXG2wKLnBBGYIKXnR2Se
4ymAMY1pg+GVH9ghNUg+ZMRg9xDn2BDM1+nhdjU10ynxHAUCAwEAAaOBojCBnzAJ
BgNVHRMEAjAAMB0GA1UdDgQWBBT5LvKM7mbIXvkpsrrwDIrbmVQbuDBRBgNVHSME
SjBIgBSY1XHovS4m1s4y5e/XgRS2AvsleKEapBgwFjEUMBIGA1UEAwwLdGVhbTU0
Ny1uZXSCFCAnGUYUK56vUFhPUp+PAootJ7IUMBMGA1UdJQQMMAoGCCsGAQUFBwMC
MAsGA1UdDwQEAwIHgDANBgkqhkiG9w0BAQsFAAOCAQEA6MfWIWq/1P3Dm+c0uOfu
QhdhnuHVtkq/r8A1QGywCBE2aSz7aCgmzZcdfVvhvfR5tBU2jzL1jBL5AK6CAB6t
uNy0pRtYFQ8Z8dMeYs1U5uDJiFaPTplHXLsP9LVABENFlOWL0teWAE/yH/NJW4r8
f6fV5m0fTlIj/pqbWtMnhy6ZMJIFveQytgNLCnbG7C6rWipPisH3G/9cbEb3DTBX
Gn3gRivZO68vYZO1z7JAJO5WEtMPuPeMhoRKpKEb8amTn284Vgwjd/xPdxjbi2hA
Go9ccYgxGFcOydvQs9oIkb+SA71hCEKxqxYQYhnJ4XQM+byrHKKjiU+ew3QkKrR+
HQ==
-----END CERTIFICATE-----
