Certificate:
    Data:
        Version: 3 (0x2)
        Serial Number:
            cc:5e:61:6d:91:da:13:13:bd:53:aa:55:ae:63:b2:10
        Signature Algorithm: sha256WithRSAEncryption
        Issuer: CN=team559-net
        Validity
            Not Before: May 18 22:23:57 2022 GMT
            Not After : May  2 22:23:57 2025 GMT
        Subject: CN=team559-client
        Subject Public Key Info:
            Public Key Algorithm: rsaEncryption
                RSA Public-Key: (2048 bit)
                Modulus:
                    00:cb:26:a5:84:5d:18:e8:60:81:6d:e0:43:01:e4:
                    87:ba:fa:68:f8:68:c7:a6:1c:91:31:cc:91:93:89:
                    f4:eb:08:86:48:8e:88:c8:5e:26:0e:b2:c7:28:0d:
                    a7:16:97:77:eb:0c:f3:f3:28:15:b3:cb:4f:da:d7:
                    90:94:5f:54:7e:c9:31:54:ec:94:bb:f0:7c:e1:ea:
                    5d:7f:82:7d:d9:ab:60:11:bb:94:9f:69:f8:17:24:
                    a2:e0:05:10:28:62:ad:ef:2d:c4:1e:a8:f2:b7:db:
                    4a:4f:67:a7:bc:3e:06:c0:22:e3:85:68:80:58:ec:
                    b1:2b:41:0b:6c:e3:c9:45:97:c9:0e:67:cf:21:88:
                    ff:8f:7e:4a:62:05:55:2a:26:58:25:35:35:8e:c7:
                    27:53:40:85:b8:ca:84:78:a5:6c:37:cd:86:95:74:
                    2d:ce:3a:47:b3:61:4e:b8:52:df:b3:fb:ea:67:b1:
                    d6:66:39:3e:05:9c:12:e9:82:84:4d:f1:74:98:81:
                    fa:f7:9e:ee:c3:cf:f9:60:fc:54:ef:94:f5:1f:ff:
                    d3:e0:8c:4c:f4:73:0f:da:60:df:ae:a5:a5:5f:e3:
                    55:68:c9:0c:2a:f3:31:84:50:f1:ab:eb:36:19:cf:
                    a8:0b:63:43:bd:3d:b9:38:0c:de:f4:6c:27:5e:1e:
                    a6:73
                Exponent: 65537 (0x10001)
        X509v3 extensions:
            X509v3 Basic Constraints: 
                CA:FALSE
            X509v3 Subject Key Identifier: 
                59:82:46:D8:64:70:CC:74:8F:96:65:68:20:92:36:20:78:C8:40:78
            X509v3 Authority Key Identifier: 
                keyid:51:2F:28:11:54:A7:23:17:D6:E7:03:03:C3:01:C8:A4:1A:B2:26:11
                DirName:/CN=team559-net
                serial:01:BF:06:7B:22:6E:75:24:92:4D:E0:B8:56:D8:49:F6:4B:FB:D6:32

            X509v3 Extended Key Usage: 
                TLS Web Client Authentication
            X509v3 Key Usage: 
                Digital Signature
    Signature Algorithm: sha256WithRSAEncryption
         35:50:43:3d:10:e9:96:82:5a:8e:44:50:cc:b7:38:e0:6b:1b:
         ca:fd:ca:28:1f:0b:88:1e:05:eb:05:f9:8f:9e:e0:1e:18:59:
         99:81:22:8f:f5:0f:48:ee:15:86:c5:f9:07:58:d7:2b:03:8b:
         7c:97:4a:a9:27:72:96:4d:c5:ac:07:11:81:55:55:1f:22:45:
         e6:d3:70:a1:b4:5e:0b:65:83:9c:3f:f3:11:cc:14:c8:ec:f0:
         70:0d:bb:0b:c9:40:9e:e1:c2:7c:5c:d4:3b:10:20:78:92:e2:
         3f:d1:1f:d8:94:53:82:06:ca:26:f0:e4:8a:11:23:bb:dd:32:
         cf:b2:37:84:34:17:87:57:67:25:46:6d:51:06:99:e6:91:b3:
         24:38:d2:01:55:7b:10:a3:58:6d:c4:ff:66:0b:43:50:17:b3:
         13:b8:46:92:89:70:76:51:6b:60:50:5f:7b:2f:6e:bd:8e:73:
         44:50:25:e8:b6:23:ea:2a:f8:13:f5:78:b3:01:bf:4b:01:81:
         c2:c2:94:ae:2f:4c:0b:cc:77:55:4d:31:1b:39:ea:94:db:78:
         60:9f:19:a0:aa:66:dd:18:5b:96:47:93:4c:a9:d9:73:24:e6:
         34:00:4a:c0:e2:56:7a:46:bc:17:22:9d:4d:c7:b1:4a:9c:e0:
         4f:ae:00:1f
-----BEGIN CERTIFICATE-----
MIIDXTCCAkWgAwIBAgIRAMxeYW2R2hMTvVOqVa5jshAwDQYJKoZIhvcNAQELBQAw
FjEUMBIGA1UEAwwLdGVhbTU1OS1uZXQwHhcNMjIwNTE4MjIyMzU3WhcNMjUwNTAy
MjIyMzU3WjAZMRcwFQYDVQQDDA50ZWFtNTU5LWNsaWVudDCCASIwDQYJKoZIhvcN
AQEBBQADggEPADCCAQoCggEBAMsmpYRdGOhggW3gQwHkh7r6aPhox6YckTHMkZOJ
9OsIhkiOiMheJg6yxygNpxaXd+sM8/MoFbPLT9rXkJRfVH7JMVTslLvwfOHqXX+C
fdmrYBG7lJ9p+BckouAFEChire8txB6o8rfbSk9np7w+BsAi44VogFjssStBC2zj
yUWXyQ5nzyGI/49+SmIFVSomWCU1NY7HJ1NAhbjKhHilbDfNhpV0Lc46R7NhTrhS
37P76mex1mY5PgWcEumChE3xdJiB+vee7sPP+WD8VO+U9R//0+CMTPRzD9pg366l
pV/jVWjJDCrzMYRQ8avrNhnPqAtjQ709uTgM3vRsJ14epnMCAwEAAaOBojCBnzAJ
BgNVHRMEAjAAMB0GA1UdDgQWBBRZgkbYZHDMdI+WZWggkjYgeMhAeDBRBgNVHSME
SjBIgBRRLygRVKcjF9bnAwPDAcikGrImEaEapBgwFjEUMBIGA1UEAwwLdGVhbTU1
OS1uZXSCFAG/BnsibnUkkk3guFbYSfZL+9YyMBMGA1UdJQQMMAoGCCsGAQUFBwMC
MAsGA1UdDwQEAwIHgDANBgkqhkiG9w0BAQsFAAOCAQEANVBDPRDploJajkRQzLc4
4Gsbyv3KKB8LiB4F6wX5j57gHhhZmYEij/UPSO4VhsX5B1jXKwOLfJdKqSdylk3F
rAcRgVVVHyJF5tNwobReC2WDnD/zEcwUyOzwcA27C8lAnuHCfFzUOxAgeJLiP9Ef
2JRTggbKJvDkihEju90yz7I3hDQXh1dnJUZtUQaZ5pGzJDjSAVV7EKNYbcT/ZgtD
UBezE7hGkolwdlFrYFBfey9uvY5zRFAl6LYj6ir4E/V4swG/SwGBwsKUri9MC8x3
VU0xGznqlNt4YJ8ZoKpm3RhblkeTTKnZcyTmNABKwOJWeka8FyKdTcexSpzgT64A
Hw==
-----END CERTIFICATE-----
