Certificate:
    Data:
        Version: 3 (0x2)
        Serial Number:
            67:c0:ac:d6:eb:f3:e7:21:5d:58:3d:19:71:82:de:a7
        Signature Algorithm: sha256WithRSAEncryption
        Issuer: CN=team220-net
        Validity
            Not Before: May 18 19:21:27 2022 GMT
            Not After : May  2 19:21:27 2025 GMT
        Subject: CN=team220-server
        Subject Public Key Info:
            Public Key Algorithm: rsaEncryption
                RSA Public-Key: (2048 bit)
                Modulus:
                    00:c5:18:43:4b:6e:3f:3a:91:46:55:d5:48:5a:90:
                    cc:76:83:1c:5c:96:fc:02:cb:a0:b6:b9:c6:57:fa:
                    4d:93:3e:4d:f2:ad:1b:ab:fc:36:53:c7:71:d3:94:
                    2c:3b:37:ba:5d:f7:73:4b:bc:95:e7:ca:24:78:bb:
                    2b:82:15:8c:0a:a4:3b:d2:df:b7:51:a0:b9:e0:45:
                    a2:15:66:ec:73:f2:a3:d1:2d:47:08:70:01:77:ba:
                    37:04:ce:8b:83:ed:ec:fe:0d:43:f0:3c:61:3a:84:
                    05:b0:1b:72:b7:5d:de:e2:3d:b2:25:1c:46:af:b4:
                    08:26:e7:9c:06:84:14:d9:83:69:0a:f9:c7:e5:40:
                    95:e4:40:8b:08:35:42:74:68:12:9c:43:b8:13:c9:
                    53:f8:d9:90:75:d4:3e:32:16:bc:0c:30:0e:5a:ec:
                    95:5d:d2:2d:a2:68:92:35:29:9e:cb:df:d1:c9:31:
                    33:90:77:1e:14:3b:ce:db:bd:c2:91:2d:1c:7e:07:
                    8c:d1:eb:b2:5b:ad:3a:c7:fd:c4:51:31:69:41:cc:
                    6e:ee:45:8b:58:47:be:14:61:b4:a4:8f:de:bb:0d:
                    7a:e3:ef:15:77:ad:f7:fe:ae:62:21:06:af:fa:f2:
                    28:9a:16:a6:66:a9:98:09:98:81:b3:44:70:be:af:
                    14:3f
                Exponent: 65537 (0x10001)
        X509v3 extensions:
            X509v3 Basic Constraints: 
                CA:FALSE
            X509v3 Subject Key Identifier: 
                33:CC:BB:FC:0E:8F:38:CA:22:9D:3E:25:A2:8A:72:E7:14:E5:80:71
            X509v3 Authority Key Identifier: 
                keyid:88:7A:A7:78:DC:50:03:07:D9:37:05:BD:B0:84:92:67:25:1B:00:52
                DirName:/CN=team220-net
                serial:15:B5:BE:96:93:A5:2E:C6:7B:3C:BA:7F:38:9E:04:D7:C3:81:EB:5C

            X509v3 Extended Key Usage: 
                TLS Web Server Authentication
            X509v3 Key Usage: 
                Digital Signature, Key Encipherment
            X509v3 Subject Alternative Name: 
                DNS:team220-server
    Signature Algorithm: sha256WithRSAEncryption
         34:be:7d:fd:c1:ec:a2:d2:32:43:e9:7b:fb:ed:87:a4:a0:97:
         1e:ff:55:82:ab:c6:6c:ce:ea:84:43:f0:f7:0a:09:44:d3:84:
         a6:cb:a2:02:71:a8:97:e2:07:70:9d:c0:42:2e:64:dc:59:01:
         98:a1:22:8d:6f:38:52:9e:6a:28:2f:22:e1:96:56:22:11:25:
         46:98:b6:f3:09:fd:be:ba:34:e6:9a:a9:e4:07:bd:b3:05:e6:
         29:74:a4:c7:7a:30:4c:53:6f:f6:06:95:8c:fa:35:34:8e:13:
         33:89:22:4b:43:2c:f8:e9:1f:64:07:11:d2:a6:16:f7:e2:50:
         dc:51:65:45:49:1c:79:8e:be:6a:03:21:b2:35:22:ad:3a:16:
         ff:47:9e:31:04:25:4d:8f:fa:95:48:b4:67:94:57:b9:a1:38:
         dd:45:fa:e1:de:b1:14:43:0d:69:f3:42:f0:68:3c:f0:54:03:
         40:a5:a1:37:9f:69:b5:96:d9:95:2b:47:88:7d:a2:31:e8:a0:
         08:7e:9c:8f:eb:f1:ee:25:36:4a:8f:ed:c2:25:ce:61:57:7b:
         24:65:10:b9:e5:39:96:e4:65:19:3a:6f:7b:73:10:83:9b:7f:
         0b:f7:25:60:62:38:0c:6d:f4:f3:a9:e8:ec:ce:48:da:b4:32:
         dd:0e:06:19
-----BEGIN CERTIFICATE-----
MIIDdzCCAl+gAwIBAgIQZ8Cs1uvz5yFdWD0ZcYLepzANBgkqhkiG9w0BAQsFADAW
MRQwEgYDVQQDDAt0ZWFtMjIwLW5ldDAeFw0yMjA1MTgxOTIxMjdaFw0yNTA1MDIx
OTIxMjdaMBkxFzAVBgNVBAMMDnRlYW0yMjAtc2VydmVyMIIBIjANBgkqhkiG9w0B
AQEFAAOCAQ8AMIIBCgKCAQEAxRhDS24/OpFGVdVIWpDMdoMcXJb8AsugtrnGV/pN
kz5N8q0bq/w2U8dx05QsOze6XfdzS7yV58okeLsrghWMCqQ70t+3UaC54EWiFWbs
c/Kj0S1HCHABd7o3BM6Lg+3s/g1D8DxhOoQFsBtyt13e4j2yJRxGr7QIJuecBoQU
2YNpCvnH5UCV5ECLCDVCdGgSnEO4E8lT+NmQddQ+Mha8DDAOWuyVXdItomiSNSme
y9/RyTEzkHceFDvO273CkS0cfgeM0euyW606x/3EUTFpQcxu7kWLWEe+FGG0pI/e
uw164+8Vd633/q5iIQav+vIomhamZqmYCZiBs0Rwvq8UPwIDAQABo4G9MIG6MAkG
A1UdEwQCMAAwHQYDVR0OBBYEFDPMu/wOjzjKIp0+JaKKcucU5YBxMFEGA1UdIwRK
MEiAFIh6p3jcUAMH2TcFvbCEkmclGwBSoRqkGDAWMRQwEgYDVQQDDAt0ZWFtMjIw
LW5ldIIUFbW+lpOlLsZ7PLp/OJ4E18OB61wwEwYDVR0lBAwwCgYIKwYBBQUHAwEw
CwYDVR0PBAQDAgWgMBkGA1UdEQQSMBCCDnRlYW0yMjAtc2VydmVyMA0GCSqGSIb3
DQEBCwUAA4IBAQA0vn39weyi0jJD6Xv77YekoJce/1WCq8ZszuqEQ/D3CglE04Sm
y6ICcaiX4gdwncBCLmTcWQGYoSKNbzhSnmooLyLhllYiESVGmLbzCf2+ujTmmqnk
B72zBeYpdKTHejBMU2/2BpWM+jU0jhMziSJLQyz46R9kBxHSphb34lDcUWVFSRx5
jr5qAyGyNSKtOhb/R54xBCVNj/qVSLRnlFe5oTjdRfrh3rEUQw1p80LwaDzwVANA
paE3n2m1ltmVK0eIfaIx6KAIfpyP6/HuJTZKj+3CJc5hV3skZRC55TmW5GUZOm97
cxCDm38L9yVgYjgMbfTzqejszkjatDLdDgYZ
-----END CERTIFICATE-----
