Certificate:
    Data:
        Version: 3 (0x2)
        Serial Number:
            25:6f:c9:2b:bf:09:cf:f9:3e:bb:4a:8f:b0:9f:25:e6
        Signature Algorithm: sha256WithRSAEncryption
        Issuer: CN=team661-net
        Validity
            Not Before: May 18 23:24:25 2022 GMT
            Not After : May  2 23:24:25 2025 GMT
        Subject: CN=team661-server
        Subject Public Key Info:
            Public Key Algorithm: rsaEncryption
                RSA Public-Key: (2048 bit)
                Modulus:
                    00:ba:f8:29:6b:8c:bc:53:4d:c5:aa:3a:38:a1:10:
                    ca:00:1b:a0:40:18:34:8a:f0:65:43:b8:f6:d5:2c:
                    0a:1d:77:4b:b5:e7:59:5c:6b:a7:60:ae:57:23:88:
                    99:bf:62:1c:f9:99:aa:2a:c1:65:c7:e2:0d:55:e7:
                    5e:d0:75:a9:ec:b9:9c:8c:40:77:07:fe:d9:ac:17:
                    73:dc:85:c9:15:9f:8f:c2:d8:55:9f:93:27:ea:1b:
                    f0:8b:71:46:18:00:f5:b0:0b:fa:4a:31:56:bd:37:
                    e7:35:80:75:ed:c9:d6:d0:2b:02:90:a1:c3:33:90:
                    44:4f:ca:54:86:51:87:ac:4a:18:0b:90:05:a4:08:
                    13:2d:fe:c4:55:07:39:58:a1:19:80:d1:e8:1f:dd:
                    d9:93:32:9c:63:a9:1c:c2:64:ba:fb:b3:47:b7:23:
                    f6:89:6c:24:23:7c:ff:1e:c7:18:e6:65:9a:9f:5c:
                    26:d5:02:c3:d9:bd:f7:cf:06:82:e7:d0:75:90:30:
                    99:8b:27:b2:35:fe:9c:b3:94:72:6a:d0:d2:7b:eb:
                    ef:4a:1f:6c:c8:23:2e:0f:27:66:80:ea:32:c7:76:
                    ae:7b:13:11:bb:a0:09:5c:f5:28:e7:b5:18:39:6e:
                    af:39:06:ea:00:94:11:88:f1:73:3e:84:30:50:2b:
                    df:f1
                Exponent: 65537 (0x10001)
        X509v3 extensions:
            X509v3 Basic Constraints: 
                CA:FALSE
            X509v3 Subject Key Identifier: 
                DB:E3:B4:3F:D0:B9:33:D1:49:53:A6:03:5C:85:50:E1:92:CB:D4:0C
            X509v3 Authority Key Identifier: 
                keyid:32:08:B0:E4:86:03:01:CE:A7:9C:3A:5F:B7:1C:0D:B3:18:7F:1D:DE
                DirName:/CN=team661-net
                serial:64:F2:FC:B4:1B:D1:88:D4:F1:1F:09:B7:BA:82:27:65:61:CD:F7:B4

            X509v3 Extended Key Usage: 
                TLS Web Server Authentication
            X509v3 Key Usage: 
                Digital Signature, Key Encipherment
            X509v3 Subject Alternative Name: 
                DNS:team661-server
    Signature Algorithm: sha256WithRSAEncryption
         2c:d4:e5:d5:47:77:09:18:07:b2:83:c1:88:3c:0b:67:7e:3a:
         ec:d2:94:51:bc:2f:0b:56:de:eb:0e:01:a7:09:f1:a8:e0:95:
         4a:7e:52:c7:85:57:fc:f7:d7:a1:77:08:03:df:cf:06:a0:63:
         a0:c3:37:00:46:39:29:5c:b2:05:8b:d8:58:4d:85:14:83:09:
         a8:cb:0f:a6:52:36:6a:0a:9a:8e:6c:a4:97:19:72:3a:d6:3a:
         d2:48:94:64:34:6c:6d:99:0a:19:17:d9:2d:07:a6:3f:e2:8c:
         57:06:5d:ab:fc:26:13:b4:c1:e9:99:61:40:f6:b0:3e:f5:6a:
         c4:e4:1b:5d:b8:78:46:02:4b:9b:24:17:54:93:89:22:aa:9a:
         b9:6a:6d:24:40:1e:9c:9e:b3:84:31:54:84:97:ac:3b:2c:4f:
         b9:f6:ef:08:ee:78:31:50:6f:2f:59:0e:34:50:fa:ad:9d:6a:
         67:31:ad:97:23:7f:b2:07:38:81:ac:f0:fa:99:82:96:ab:09:
         60:36:87:27:cb:04:f1:0c:8a:a2:e3:a7:94:88:96:92:56:f4:
         1e:a6:51:8f:0c:8b:67:c7:63:3f:ed:c5:50:f9:d1:7a:32:f1:
         7c:2b:1a:fc:e6:0e:a1:53:dd:df:01:a9:4d:ee:61:11:15:39:
         db:46:31:6c
-----BEGIN CERTIFICATE-----
MIIDdzCCAl+gAwIBAgIQJW/JK78Jz/k+u0qPsJ8l5jANBgkqhkiG9w0BAQsFADAW
MRQwEgYDVQQDDAt0ZWFtNjYxLW5ldDAeFw0yMjA1MTgyMzI0MjVaFw0yNTA1MDIy
MzI0MjVaMBkxFzAVBgNVBAMMDnRlYW02NjEtc2VydmVyMIIBIjANBgkqhkiG9w0B
AQEFAAOCAQ8AMIIBCgKCAQEAuvgpa4y8U03Fqjo4oRDKABugQBg0ivBlQ7j21SwK
HXdLtedZXGunYK5XI4iZv2Ic+ZmqKsFlx+INVede0HWp7LmcjEB3B/7ZrBdz3IXJ
FZ+PwthVn5Mn6hvwi3FGGAD1sAv6SjFWvTfnNYB17cnW0CsCkKHDM5BET8pUhlGH
rEoYC5AFpAgTLf7EVQc5WKEZgNHoH93ZkzKcY6kcwmS6+7NHtyP2iWwkI3z/HscY
5mWan1wm1QLD2b33zwaC59B1kDCZiyeyNf6cs5RyatDSe+vvSh9syCMuDydmgOoy
x3auexMRu6AJXPUo57UYOW6vOQbqAJQRiPFzPoQwUCvf8QIDAQABo4G9MIG6MAkG
A1UdEwQCMAAwHQYDVR0OBBYEFNvjtD/QuTPRSVOmA1yFUOGSy9QMMFEGA1UdIwRK
MEiAFDIIsOSGAwHOp5w6X7ccDbMYfx3eoRqkGDAWMRQwEgYDVQQDDAt0ZWFtNjYx
LW5ldIIUZPL8tBvRiNTxHwm3uoInZWHN97QwEwYDVR0lBAwwCgYIKwYBBQUHAwEw
CwYDVR0PBAQDAgWgMBkGA1UdEQQSMBCCDnRlYW02NjEtc2VydmVyMA0GCSqGSIb3
DQEBCwUAA4IBAQAs1OXVR3cJGAeyg8GIPAtnfjrs0pRRvC8LVt7rDgGnCfGo4JVK
flLHhVf899ehdwgD388GoGOgwzcARjkpXLIFi9hYTYUUgwmoyw+mUjZqCpqObKSX
GXI61jrSSJRkNGxtmQoZF9ktB6Y/4oxXBl2r/CYTtMHpmWFA9rA+9WrE5BtduHhG
AkubJBdUk4kiqpq5am0kQB6cnrOEMVSEl6w7LE+59u8I7ngxUG8vWQ40UPqtnWpn
Ma2XI3+yBziBrPD6mYKWqwlgNocnywTxDIqi46eUiJaSVvQeplGPDItnx2M/7cVQ
+dF6MvF8Kxr85g6hU93fAalN7mERFTnbRjFs
-----END CERTIFICATE-----
