Certificate:
    Data:
        Version: 3 (0x2)
        Serial Number:
            7d:83:b6:1b:7b:8d:af:c1:c2:ee:42:54:9c:4a:9f:d1
        Signature Algorithm: sha256WithRSAEncryption
        Issuer: CN=team270-net
        Validity
            Not Before: May 18 19:47:03 2022 GMT
            Not After : May  2 19:47:03 2025 GMT
        Subject: CN=team270-server
        Subject Public Key Info:
            Public Key Algorithm: rsaEncryption
                RSA Public-Key: (2048 bit)
                Modulus:
                    00:b3:d9:b0:39:c8:7f:03:8d:a6:92:f4:f2:ad:15:
                    f9:6d:93:c4:07:55:81:45:52:a3:e7:c5:82:c6:79:
                    3a:52:f5:16:64:ec:84:c2:8b:46:a7:9b:2c:ed:97:
                    c8:39:3e:32:62:c4:e6:06:41:8b:aa:9a:b9:49:53:
                    27:4c:de:8f:0b:1b:97:cd:43:7e:4a:91:cb:b6:3b:
                    6f:27:7d:e8:1e:c0:38:8d:63:a8:61:31:fb:65:3d:
                    ab:f6:05:c7:68:86:4c:8c:75:f6:d0:17:d2:4f:22:
                    5c:c5:ee:5d:40:e1:7f:1e:97:b4:92:dc:e4:81:39:
                    83:40:52:41:eb:35:be:5f:5c:f0:8f:d3:b0:77:22:
                    b0:93:46:eb:5e:0f:bb:c6:27:e8:2c:de:93:16:0d:
                    da:30:61:49:71:c4:ec:8b:de:d4:fe:a7:80:60:97:
                    14:f8:9c:2f:90:8a:da:ab:10:7f:27:2c:59:a6:27:
                    e0:42:3d:98:89:f5:35:1d:9d:9a:f1:17:8b:57:83:
                    54:50:73:70:a6:06:ab:3a:d9:96:6a:4c:7a:5d:72:
                    f7:45:a1:ca:19:c4:87:b8:5b:0e:52:c9:8c:b6:e5:
                    c9:3b:bc:3a:4c:81:aa:13:aa:b4:d9:31:b1:fe:3e:
                    23:b4:4f:5e:b0:06:07:fc:55:12:d6:00:5c:e5:89:
                    65:4d
                Exponent: 65537 (0x10001)
        X509v3 extensions:
            X509v3 Basic Constraints: 
                CA:FALSE
            X509v3 Subject Key Identifier: 
                4F:91:CF:33:7D:0E:36:D8:3C:19:E6:A9:2A:48:8A:15:38:00:56:A2
            X509v3 Authority Key Identifier: 
                keyid:04:6F:88:11:D1:41:EA:6A:76:7F:26:48:DF:A8:3A:64:58:D5:EA:7F
                DirName:/CN=team270-net
                serial:6A:FC:60:3B:75:CD:59:A2:AB:DF:C6:76:22:54:EE:8F:CF:CA:BF:2E

            X509v3 Extended Key Usage: 
                TLS Web Server Authentication
            X509v3 Key Usage: 
                Digital Signature, Key Encipherment
            X509v3 Subject Alternative Name: 
                DNS:team270-server
    Signature Algorithm: sha256WithRSAEncryption
         85:e9:a1:bc:e0:1d:d7:ae:8e:3a:a4:1d:98:34:e1:cd:9c:c0:
         96:23:e0:97:a6:d5:3d:e8:d3:85:a9:e2:b1:64:ad:71:83:32:
         7d:44:81:0f:0a:fc:6e:cf:c8:54:18:db:44:b9:b6:7b:ee:53:
         1c:b6:dd:4d:0b:7d:94:78:3c:6f:ed:67:e7:b8:19:8a:4e:3c:
         69:11:e0:8c:0a:21:0f:c5:a1:5c:94:6e:ca:2a:e5:e7:bb:61:
         03:e8:41:5f:51:79:ac:34:09:92:f1:c5:8b:de:40:64:34:64:
         1b:8a:de:d3:3f:4c:7e:a8:50:de:fe:af:4e:74:60:a2:7c:35:
         0a:61:60:4f:19:b6:99:89:29:4e:fc:ac:66:14:8b:7b:23:9d:
         cc:cb:d7:37:5b:28:64:31:cc:ab:9e:4e:a7:b8:64:cc:36:60:
         f3:2d:87:7b:8f:44:e9:d2:d1:ac:e5:79:7d:fe:24:c2:53:18:
         2e:dd:6c:8d:90:ef:a2:19:58:ca:c1:05:d3:de:a2:e8:0d:ae:
         2e:49:ea:16:c6:96:f4:46:72:ae:f4:9a:7f:18:f7:97:19:45:
         0c:03:3f:b0:57:3e:6e:ef:7b:20:3d:ad:c8:3d:b2:d7:7c:da:
         2d:1d:98:67:ca:76:16:bc:4d:20:08:97:12:88:fc:a2:74:0f:
         94:bf:c9:53
-----BEGIN CERTIFICATE-----
MIIDdzCCAl+gAwIBAgIQfYO2G3uNr8HC7kJUnEqf0TANBgkqhkiG9w0BAQsFADAW
MRQwEgYDVQQDDAt0ZWFtMjcwLW5ldDAeFw0yMjA1MTgxOTQ3MDNaFw0yNTA1MDIx
OTQ3MDNaMBkxFzAVBgNVBAMMDnRlYW0yNzAtc2VydmVyMIIBIjANBgkqhkiG9w0B
AQEFAAOCAQ8AMIIBCgKCAQEAs9mwOch/A42mkvTyrRX5bZPEB1WBRVKj58WCxnk6
UvUWZOyEwotGp5ss7ZfIOT4yYsTmBkGLqpq5SVMnTN6PCxuXzUN+SpHLtjtvJ33o
HsA4jWOoYTH7ZT2r9gXHaIZMjHX20BfSTyJcxe5dQOF/Hpe0ktzkgTmDQFJB6zW+
X1zwj9OwdyKwk0brXg+7xifoLN6TFg3aMGFJccTsi97U/qeAYJcU+JwvkIraqxB/
JyxZpifgQj2YifU1HZ2a8ReLV4NUUHNwpgarOtmWakx6XXL3RaHKGcSHuFsOUsmM
tuXJO7w6TIGqE6q02TGx/j4jtE9esAYH/FUS1gBc5YllTQIDAQABo4G9MIG6MAkG
A1UdEwQCMAAwHQYDVR0OBBYEFE+RzzN9DjbYPBnmqSpIihU4AFaiMFEGA1UdIwRK
MEiAFARviBHRQepqdn8mSN+oOmRY1ep/oRqkGDAWMRQwEgYDVQQDDAt0ZWFtMjcw
LW5ldIIUavxgO3XNWaKr38Z2IlTuj8/Kvy4wEwYDVR0lBAwwCgYIKwYBBQUHAwEw
CwYDVR0PBAQDAgWgMBkGA1UdEQQSMBCCDnRlYW0yNzAtc2VydmVyMA0GCSqGSIb3
DQEBCwUAA4IBAQCF6aG84B3Xro46pB2YNOHNnMCWI+CXptU96NOFqeKxZK1xgzJ9
RIEPCvxuz8hUGNtEubZ77lMctt1NC32UeDxv7WfnuBmKTjxpEeCMCiEPxaFclG7K
KuXnu2ED6EFfUXmsNAmS8cWL3kBkNGQbit7TP0x+qFDe/q9OdGCifDUKYWBPGbaZ
iSlO/KxmFIt7I53My9c3WyhkMcyrnk6nuGTMNmDzLYd7j0Tp0tGs5Xl9/iTCUxgu
3WyNkO+iGVjKwQXT3qLoDa4uSeoWxpb0RnKu9Jp/GPeXGUUMAz+wVz5u73sgPa3I
PbLXfNotHZhnynYWvE0gCJcSiPyidA+Uv8lT
-----END CERTIFICATE-----
