Certificate:
    Data:
        Version: 3 (0x2)
        Serial Number:
            b2:7b:04:c2:42:3f:4f:8b:3b:e7:7c:b4:e8:ab:04:f9
        Signature Algorithm: sha256WithRSAEncryption
        Issuer: CN=team462-net
        Validity
            Not Before: May 18 21:30:20 2022 GMT
            Not After : May  2 21:30:20 2025 GMT
        Subject: CN=team462-client
        Subject Public Key Info:
            Public Key Algorithm: rsaEncryption
                RSA Public-Key: (2048 bit)
                Modulus:
                    00:d2:04:b9:4e:65:75:ca:b7:e8:15:37:c6:1d:5f:
                    9c:9b:d7:58:46:6d:ec:f0:87:7b:5c:f6:5e:62:4d:
                    f8:5d:3d:2e:55:70:a6:bd:1b:a5:b2:f5:14:b4:8d:
                    4f:20:2b:1e:ee:60:4b:87:22:91:13:08:e3:a2:83:
                    7e:59:4b:80:cd:9d:35:51:40:43:c3:89:5d:41:70:
                    a2:b1:1c:69:be:50:8d:6a:e3:13:ee:9b:8e:eb:68:
                    5b:4e:33:2b:85:30:78:54:06:dd:36:41:8e:23:a9:
                    df:0f:77:59:a3:f2:c7:dc:80:f0:f7:53:91:bf:a2:
                    59:15:21:be:28:8e:a1:34:b0:36:54:0f:1f:fb:71:
                    07:3d:2a:c2:56:a6:f5:0f:42:f3:22:1f:f2:f1:73:
                    86:b2:97:5c:17:87:5d:15:c9:85:29:e7:9f:75:10:
                    51:b5:60:bb:2c:2d:e0:c7:cb:59:23:bf:eb:7d:f4:
                    45:01:9d:81:2b:d4:a7:12:ac:91:a2:ca:a5:65:cb:
                    56:10:64:b8:af:31:6e:07:bd:ee:12:18:72:84:ef:
                    4e:34:41:5e:5a:cf:f7:c9:ad:7b:9e:c4:70:15:fe:
                    b0:f8:f8:75:c5:ae:4d:02:71:09:64:bd:fa:5a:68:
                    d9:d4:35:dd:96:55:66:ac:0c:3b:1f:74:f1:5f:54:
                    8f:63
                Exponent: 65537 (0x10001)
        X509v3 extensions:
            X509v3 Basic Constraints: 
                CA:FALSE
            X509v3 Subject Key Identifier: 
                BB:EA:66:E3:15:05:BF:BC:D4:84:81:AB:95:74:D0:B7:7E:7A:C4:96
            X509v3 Authority Key Identifier: 
                keyid:0A:34:8C:1A:71:4F:A0:E6:95:24:3B:7C:94:7E:E1:3F:E0:72:59:6E
                DirName:/CN=team462-net
                serial:2E:90:74:73:74:28:87:9E:CC:5E:5F:4F:36:F6:97:08:9A:F7:8B:E0

            X509v3 Extended Key Usage: 
                TLS Web Client Authentication
            X509v3 Key Usage: 
                Digital Signature
    Signature Algorithm: sha256WithRSAEncryption
         6d:66:d6:7e:10:c2:d6:12:10:f1:b2:43:0c:57:7b:1c:73:8c:
         9c:37:ac:eb:30:54:af:cf:75:1f:52:4d:2d:f4:20:d4:ee:89:
         15:e4:0d:fa:fe:82:be:4c:11:d4:a0:74:33:e8:f1:60:bc:8d:
         8b:1e:ef:77:9a:2f:13:96:61:d3:68:d4:89:3c:c7:f8:ae:aa:
         bc:a5:be:cd:5a:47:5b:c7:19:3d:4e:41:10:82:88:1a:06:7d:
         a8:7b:33:5f:97:8a:22:85:9c:85:e4:5a:1e:5f:81:fe:28:6b:
         2c:d4:23:c6:7d:c2:e4:0c:5a:37:12:19:fe:e2:4b:2e:07:c8:
         ec:e8:64:ff:5b:0b:c1:a6:a7:fd:79:16:93:67:b9:f0:4e:33:
         6b:af:1c:f0:61:c7:32:a1:98:74:ef:40:22:7a:1f:b4:cb:8d:
         8e:ed:3e:6e:8c:50:7b:09:ed:f8:25:02:da:bb:e0:60:ac:f1:
         be:72:b0:94:c5:06:f3:02:d7:3b:0b:52:2d:27:8b:00:39:67:
         2b:17:4b:06:fd:03:63:32:28:ee:82:ba:32:d7:6a:1d:6d:bb:
         61:6e:e8:62:91:a7:6b:3f:0e:ef:90:b2:e4:06:b8:7f:6f:05:
         6c:b7:29:6c:b5:97:9a:f0:45:c1:af:e5:6e:12:ea:41:31:a5:
         57:fc:16:06
-----BEGIN CERTIFICATE-----
MIIDXTCCAkWgAwIBAgIRALJ7BMJCP0+LO+d8tOirBPkwDQYJKoZIhvcNAQELBQAw
FjEUMBIGA1UEAwwLdGVhbTQ2Mi1uZXQwHhcNMjIwNTE4MjEzMDIwWhcNMjUwNTAy
MjEzMDIwWjAZMRcwFQYDVQQDDA50ZWFtNDYyLWNsaWVudDCCASIwDQYJKoZIhvcN
AQEBBQADggEPADCCAQoCggEBANIEuU5ldcq36BU3xh1fnJvXWEZt7PCHe1z2XmJN
+F09LlVwpr0bpbL1FLSNTyArHu5gS4cikRMI46KDfllLgM2dNVFAQ8OJXUFworEc
ab5QjWrjE+6bjutoW04zK4UweFQG3TZBjiOp3w93WaPyx9yA8PdTkb+iWRUhviiO
oTSwNlQPH/txBz0qwlam9Q9C8yIf8vFzhrKXXBeHXRXJhSnnn3UQUbVguywt4MfL
WSO/6330RQGdgSvUpxKskaLKpWXLVhBkuK8xbge97hIYcoTvTjRBXlrP98mte57E
cBX+sPj4dcWuTQJxCWS9+lpo2dQ13ZZVZqwMOx908V9Uj2MCAwEAAaOBojCBnzAJ
BgNVHRMEAjAAMB0GA1UdDgQWBBS76mbjFQW/vNSEgauVdNC3fnrEljBRBgNVHSME
SjBIgBQKNIwacU+g5pUkO3yUfuE/4HJZbqEapBgwFjEUMBIGA1UEAwwLdGVhbTQ2
Mi1uZXSCFC6QdHN0KIeezF5fTzb2lwia94vgMBMGA1UdJQQMMAoGCCsGAQUFBwMC
MAsGA1UdDwQEAwIHgDANBgkqhkiG9w0BAQsFAAOCAQEAbWbWfhDC1hIQ8bJDDFd7
HHOMnDes6zBUr891H1JNLfQg1O6JFeQN+v6CvkwR1KB0M+jxYLyNix7vd5ovE5Zh
02jUiTzH+K6qvKW+zVpHW8cZPU5BEIKIGgZ9qHszX5eKIoWcheRaHl+B/ihrLNQj
xn3C5AxaNxIZ/uJLLgfI7Ohk/1sLwaan/XkWk2e58E4za68c8GHHMqGYdO9AInof
tMuNju0+boxQewnt+CUC2rvgYKzxvnKwlMUG8wLXOwtSLSeLADlnKxdLBv0DYzIo
7oK6MtdqHW27YW7oYpGnaz8O75Cy5Aa4f28FbLcpbLWXmvBFwa/lbhLqQTGlV/wW
Bg==
-----END CERTIFICATE-----
