Certificate:
    Data:
        Version: 3 (0x2)
        Serial Number:
            99:d4:4c:e1:7a:a4:85:24:28:31:e3:c3:c2:8e:a3:65
        Signature Algorithm: sha256WithRSAEncryption
        Issuer: CN=team572-net
        Validity
            Not Before: May 18 22:30:42 2022 GMT
            Not After : May  2 22:30:42 2025 GMT
        Subject: CN=team572-client
        Subject Public Key Info:
            Public Key Algorithm: rsaEncryption
                RSA Public-Key: (2048 bit)
                Modulus:
                    00:df:ba:77:6c:ff:e5:9d:42:88:99:44:66:49:7a:
                    e9:79:51:6e:4d:3f:bc:bf:70:02:fe:26:e3:51:d8:
                    b8:f2:ea:9c:c5:7b:2d:ae:9a:ee:1c:17:c1:29:2e:
                    76:38:da:75:62:ac:6b:cb:85:8d:34:f5:88:66:d3:
                    52:1a:dc:c8:b1:01:c3:84:1f:aa:7e:50:e6:db:0d:
                    b9:dc:64:8c:9d:9e:45:6f:de:8a:d7:3a:34:a6:6d:
                    16:28:7e:a5:ce:08:4c:4e:96:99:59:0d:12:7b:29:
                    78:0a:04:2b:21:e8:65:07:df:c3:f3:19:9c:5e:0c:
                    45:d3:9b:a8:49:01:cd:0f:ca:cb:da:21:b8:ac:52:
                    09:04:9a:80:9b:57:63:08:f7:a6:eb:99:bb:47:69:
                    e7:dc:ba:be:01:13:4f:0c:50:49:9e:ef:67:2e:d7:
                    4a:50:4a:7b:2d:06:b2:89:73:6f:fc:3d:67:76:74:
                    c7:ac:f5:01:10:3c:41:7a:73:d6:8a:cc:89:a7:0b:
                    6e:ef:fb:0b:3d:68:b4:9c:a4:f0:eb:97:9a:9e:b4:
                    46:e8:46:6d:25:c1:29:54:ea:54:37:a5:2a:ff:3e:
                    9b:c8:42:b3:7c:e3:eb:b4:64:ae:45:fc:c7:73:4b:
                    47:c2:3b:0f:d1:7c:f8:08:fa:43:ce:24:57:c0:23:
                    f8:95
                Exponent: 65537 (0x10001)
        X509v3 extensions:
            X509v3 Basic Constraints: 
                CA:FALSE
            X509v3 Subject Key Identifier: 
                06:59:3A:E4:6D:2F:02:7F:7B:BC:F3:1E:98:0D:29:06:80:10:8E:38
            X509v3 Authority Key Identifier: 
                keyid:38:B9:1A:2D:28:3B:22:A2:13:05:73:32:C2:CF:69:9D:FE:DD:F8:02
                DirName:/CN=team572-net
                serial:43:83:11:18:51:E6:12:70:EF:55:E8:11:F4:96:1E:1E:ED:F0:70:A2

            X509v3 Extended Key Usage: 
                TLS Web Client Authentication
            X509v3 Key Usage: 
                Digital Signature
    Signature Algorithm: sha256WithRSAEncryption
         1f:9c:30:1c:d8:99:e4:9c:aa:f6:0b:b6:1d:5b:7e:32:27:b3:
         3f:36:4f:72:d9:86:df:8f:8e:9d:09:03:5b:ea:3e:8a:ee:fd:
         f3:ab:30:b4:a1:f7:41:c0:ce:93:d9:4c:3b:cb:6a:07:17:57:
         cd:95:ca:49:c2:7d:bd:01:13:8d:8a:5f:4a:e9:9b:1f:be:c9:
         4d:0d:80:9e:46:99:05:25:55:50:f9:39:00:b4:7b:3e:43:bd:
         25:2f:44:6d:96:2a:11:6f:a7:bd:d0:77:a7:9c:7d:34:0c:db:
         3b:f5:24:23:ab:09:b2:4b:9f:87:58:35:f3:f4:90:15:3b:37:
         42:73:7f:9f:81:6a:2a:71:56:78:d3:3d:20:b9:4d:7d:ce:27:
         40:b0:d9:19:5f:4e:77:30:5e:23:02:dc:28:20:e9:0e:79:2c:
         66:06:01:15:a1:d7:16:fd:f1:62:b9:dc:5e:a6:9b:ab:c0:58:
         e5:b3:ae:d9:f1:f7:8f:71:af:81:a8:4b:4c:e6:4b:94:43:38:
         10:46:86:74:52:f9:4e:bc:a9:f8:21:8f:48:74:32:f7:b0:11:
         22:9a:86:8a:64:a0:0b:f4:fe:cc:07:2a:ee:12:1f:ea:b5:d2:
         c7:04:5d:76:4b:b6:60:df:11:f1:60:70:c5:67:b9:ef:5c:d9:
         65:e1:35:86
-----BEGIN CERTIFICATE-----
MIIDXTCCAkWgAwIBAgIRAJnUTOF6pIUkKDHjw8KOo2UwDQYJKoZIhvcNAQELBQAw
FjEUMBIGA1UEAwwLdGVhbTU3Mi1uZXQwHhcNMjIwNTE4MjIzMDQyWhcNMjUwNTAy
MjIzMDQyWjAZMRcwFQYDVQQDDA50ZWFtNTcyLWNsaWVudDCCASIwDQYJKoZIhvcN
AQEBBQADggEPADCCAQoCggEBAN+6d2z/5Z1CiJlEZkl66XlRbk0/vL9wAv4m41HY
uPLqnMV7La6a7hwXwSkudjjadWKsa8uFjTT1iGbTUhrcyLEBw4Qfqn5Q5tsNudxk
jJ2eRW/eitc6NKZtFih+pc4ITE6WmVkNEnspeAoEKyHoZQffw/MZnF4MRdObqEkB
zQ/Ky9ohuKxSCQSagJtXYwj3puuZu0dp59y6vgETTwxQSZ7vZy7XSlBKey0Gsolz
b/w9Z3Z0x6z1ARA8QXpz1orMiacLbu/7Cz1otJyk8OuXmp60RuhGbSXBKVTqVDel
Kv8+m8hCs3zj67RkrkX8x3NLR8I7D9F8+Aj6Q84kV8Aj+JUCAwEAAaOBojCBnzAJ
BgNVHRMEAjAAMB0GA1UdDgQWBBQGWTrkbS8Cf3u88x6YDSkGgBCOODBRBgNVHSME
SjBIgBQ4uRotKDsiohMFczLCz2md/t34AqEapBgwFjEUMBIGA1UEAwwLdGVhbTU3
Mi1uZXSCFEODERhR5hJw71XoEfSWHh7t8HCiMBMGA1UdJQQMMAoGCCsGAQUFBwMC
MAsGA1UdDwQEAwIHgDANBgkqhkiG9w0BAQsFAAOCAQEAH5wwHNiZ5Jyq9gu2HVt+
MiezPzZPctmG34+OnQkDW+o+iu7986swtKH3QcDOk9lMO8tqBxdXzZXKScJ9vQET
jYpfSumbH77JTQ2AnkaZBSVVUPk5ALR7PkO9JS9EbZYqEW+nvdB3p5x9NAzbO/Uk
I6sJskufh1g18/SQFTs3QnN/n4FqKnFWeNM9ILlNfc4nQLDZGV9OdzBeIwLcKCDp
DnksZgYBFaHXFv3xYrncXqabq8BY5bOu2fH3j3GvgahLTOZLlEM4EEaGdFL5Tryp
+CGPSHQy97ARIpqGimSgC/T+zAcq7hIf6rXSxwRddku2YN8R8WBwxWe571zZZeE1
hg==
-----END CERTIFICATE-----
