Certificate:
    Data:
        Version: 3 (0x2)
        Serial Number:
            b0:57:da:16:74:ae:43:0d:05:51:3b:04:61:f6:4e:9d
        Signature Algorithm: sha256WithRSAEncryption
        Issuer: CN=team572-net
        Validity
            Not Before: May 18 22:30:42 2022 GMT
            Not After : May  2 22:30:42 2025 GMT
        Subject: CN=team572-server
        Subject Public Key Info:
            Public Key Algorithm: rsaEncryption
                RSA Public-Key: (2048 bit)
                Modulus:
                    00:bd:ca:d2:29:05:d1:ac:a4:b2:b5:21:78:4f:cc:
                    a3:a7:03:cf:87:f7:54:da:90:c1:78:76:77:be:50:
                    12:04:83:be:6d:5b:69:ee:14:ee:91:3f:bc:4c:b8:
                    23:8e:b8:e9:83:f9:31:1f:b6:b2:fb:ee:61:c7:ea:
                    21:e7:66:c4:c7:ce:d0:62:e7:5c:b5:47:3c:c9:4f:
                    7b:e7:77:e0:06:90:b1:c6:ff:06:24:a4:57:ae:09:
                    5b:c1:9d:86:8f:dd:4c:7b:c4:45:bd:7c:2d:0c:a0:
                    00:ae:bc:45:5f:3a:95:c9:8d:04:22:47:60:76:78:
                    42:72:25:2c:bd:9e:fe:72:5a:b8:b5:db:9e:9f:da:
                    5e:0f:4c:da:71:eb:ee:06:57:04:5c:ee:00:13:ff:
                    8c:61:86:af:e3:d7:9c:a6:f6:82:c8:01:45:d5:35:
                    ee:8a:12:62:bd:7c:70:3e:70:1e:02:a2:b4:d7:96:
                    95:50:97:7b:39:10:31:b7:cb:48:1d:8e:4d:9f:c5:
                    41:e0:bf:d6:06:68:91:f1:79:4f:d3:30:dc:c1:da:
                    d1:e5:5b:86:2f:ec:99:07:91:a1:a4:9b:d8:97:b9:
                    f3:f2:bc:3e:5c:95:5a:e4:fc:61:07:90:fe:91:da:
                    f9:13:84:b5:ae:bc:55:44:76:f2:b6:18:63:2f:05:
                    a6:a5
                Exponent: 65537 (0x10001)
        X509v3 extensions:
            X509v3 Basic Constraints: 
                CA:FALSE
            X509v3 Subject Key Identifier: 
                F6:13:96:DA:55:17:2F:62:FF:25:C3:14:6B:2B:87:DB:A4:65:B5:10
            X509v3 Authority Key Identifier: 
                keyid:38:B9:1A:2D:28:3B:22:A2:13:05:73:32:C2:CF:69:9D:FE:DD:F8:02
                DirName:/CN=team572-net
                serial:43:83:11:18:51:E6:12:70:EF:55:E8:11:F4:96:1E:1E:ED:F0:70:A2

            X509v3 Extended Key Usage: 
                TLS Web Server Authentication
            X509v3 Key Usage: 
                Digital Signature, Key Encipherment
            X509v3 Subject Alternative Name: 
                DNS:team572-server
    Signature Algorithm: sha256WithRSAEncryption
         b2:b8:6a:3c:4f:ea:01:99:14:51:53:8a:25:19:70:3c:08:f1:
         2b:13:27:7a:af:9a:b7:46:e1:1b:50:77:91:63:79:b9:2c:88:
         5d:9e:f7:60:b8:37:17:a7:b0:c1:b7:16:50:5b:56:b7:27:06:
         63:d3:34:30:b3:4e:ac:5e:af:84:d3:36:1b:04:59:41:d5:4e:
         0e:dc:22:ed:7a:2b:f8:2b:a0:37:c8:e9:f9:6b:36:41:a3:da:
         ba:2d:ca:49:a4:e1:06:f9:9b:b6:1c:52:3c:68:37:3d:38:0e:
         0c:9b:ba:5a:d2:ec:0f:0b:1d:3a:fc:d5:27:31:94:1f:50:5a:
         13:d2:cb:cd:a2:ac:fe:00:58:0a:13:08:f9:bc:50:64:71:88:
         0e:70:5d:64:15:a9:b1:26:bb:56:1b:98:67:08:17:a1:dc:25:
         52:c9:a9:8b:82:fe:a7:c4:bd:5f:60:73:63:a8:4a:e2:53:15:
         0e:6b:97:ab:22:12:ab:08:aa:f5:bb:99:5e:9d:96:63:57:6c:
         e3:cf:f2:1e:b5:2b:33:24:6e:27:74:4c:68:fc:1d:c3:22:ef:
         5f:d6:4a:09:67:d7:6d:87:18:36:b1:d3:fa:af:70:8e:71:53:
         87:ab:59:8d:43:38:83:5e:dc:88:63:a9:f5:85:fc:83:5e:4f:
         31:4f:1e:c6
-----BEGIN CERTIFICATE-----
MIIDeDCCAmCgAwIBAgIRALBX2hZ0rkMNBVE7BGH2Tp0wDQYJKoZIhvcNAQELBQAw
FjEUMBIGA1UEAwwLdGVhbTU3Mi1uZXQwHhcNMjIwNTE4MjIzMDQyWhcNMjUwNTAy
MjIzMDQyWjAZMRcwFQYDVQQDDA50ZWFtNTcyLXNlcnZlcjCCASIwDQYJKoZIhvcN
AQEBBQADggEPADCCAQoCggEBAL3K0ikF0ayksrUheE/Mo6cDz4f3VNqQwXh2d75Q
EgSDvm1bae4U7pE/vEy4I4646YP5MR+2svvuYcfqIedmxMfO0GLnXLVHPMlPe+d3
4AaQscb/BiSkV64JW8Gdho/dTHvERb18LQygAK68RV86lcmNBCJHYHZ4QnIlLL2e
/nJauLXbnp/aXg9M2nHr7gZXBFzuABP/jGGGr+PXnKb2gsgBRdU17ooSYr18cD5w
HgKitNeWlVCXezkQMbfLSB2OTZ/FQeC/1gZokfF5T9Mw3MHa0eVbhi/smQeRoaSb
2Je58/K8PlyVWuT8YQeQ/pHa+ROEta68VUR28rYYYy8FpqUCAwEAAaOBvTCBujAJ
BgNVHRMEAjAAMB0GA1UdDgQWBBT2E5baVRcvYv8lwxRrK4fbpGW1EDBRBgNVHSME
SjBIgBQ4uRotKDsiohMFczLCz2md/t34AqEapBgwFjEUMBIGA1UEAwwLdGVhbTU3
Mi1uZXSCFEODERhR5hJw71XoEfSWHh7t8HCiMBMGA1UdJQQMMAoGCCsGAQUFBwMB
MAsGA1UdDwQEAwIFoDAZBgNVHREEEjAQgg50ZWFtNTcyLXNlcnZlcjANBgkqhkiG
9w0BAQsFAAOCAQEAsrhqPE/qAZkUUVOKJRlwPAjxKxMneq+at0bhG1B3kWN5uSyI
XZ73YLg3F6ewwbcWUFtWtycGY9M0MLNOrF6vhNM2GwRZQdVODtwi7Xor+CugN8jp
+Ws2QaPaui3KSaThBvmbthxSPGg3PTgODJu6WtLsDwsdOvzVJzGUH1BaE9LLzaKs
/gBYChMI+bxQZHGIDnBdZBWpsSa7VhuYZwgXodwlUsmpi4L+p8S9X2BzY6hK4lMV
DmuXqyISqwiq9buZXp2WY1ds48/yHrUrMyRuJ3RMaPwdwyLvX9ZKCWfXbYcYNrHT
+q9wjnFTh6tZjUM4g17ciGOp9YX8g15PMU8exg==
-----END CERTIFICATE-----
