Certificate:
    Data:
        Version: 3 (0x2)
        Serial Number:
            aa:3d:11:c8:f1:c1:db:ca:5e:c9:83:7b:b7:26:c5:3e
        Signature Algorithm: sha256WithRSAEncryption
        Issuer: CN=team752-net
        Validity
            Not Before: May 19 00:16:52 2022 GMT
            Not After : May  3 00:16:52 2025 GMT
        Subject: CN=team752-server
        Subject Public Key Info:
            Public Key Algorithm: rsaEncryption
                RSA Public-Key: (2048 bit)
                Modulus:
                    00:9d:d6:8d:12:e9:6e:e7:59:af:40:47:46:99:67:
                    f1:2b:a9:db:0b:fb:18:b1:fb:da:44:2d:0d:cf:a7:
                    37:ae:7a:cb:45:9d:65:68:76:ae:50:b9:89:90:dc:
                    4f:10:a2:86:d6:94:bb:3c:34:b3:0e:8d:3a:55:ce:
                    a0:75:ac:8f:fc:9c:3a:0f:53:55:31:b9:4f:54:c2:
                    1d:d3:14:2c:80:95:0a:c9:47:6d:d9:07:7c:7a:6e:
                    d2:3c:86:e7:a5:8b:94:a3:61:a0:cd:7b:cf:ed:75:
                    9b:d3:15:79:f0:9c:9a:ca:d6:26:7f:64:bf:d3:ec:
                    27:9a:80:fe:92:d3:49:ae:d7:ae:b0:c6:a3:07:52:
                    e0:97:bb:55:61:4f:7a:89:26:4c:9c:c5:ab:be:df:
                    a9:46:4e:d5:fe:30:80:c4:1c:b9:f6:2a:a4:62:33:
                    31:ef:42:3e:9b:76:44:74:4c:5c:ff:e4:39:99:24:
                    61:b8:cc:54:7b:89:37:84:59:02:c9:f7:2a:22:cb:
                    2c:52:d6:74:c6:62:6b:cb:ac:63:52:3b:05:2b:d4:
                    cb:e0:22:f0:b2:bb:36:89:ad:02:b8:09:65:d2:dd:
                    ef:c3:a5:78:43:09:89:35:33:4f:4d:56:76:2b:f5:
                    b9:fc:69:94:a0:85:92:6b:17:10:29:18:57:7f:81:
                    c4:37
                Exponent: 65537 (0x10001)
        X509v3 extensions:
            X509v3 Basic Constraints: 
                CA:FALSE
            X509v3 Subject Key Identifier: 
                FC:6C:5D:74:DD:DB:34:DE:6F:FD:B6:70:8A:B7:12:11:05:0A:2B:7C
            X509v3 Authority Key Identifier: 
                keyid:9F:67:80:93:04:09:34:19:04:D8:1D:4E:94:67:8E:61:2F:17:6C:0D
                DirName:/CN=team752-net
                serial:2B:AC:ED:0D:A8:FF:A7:68:30:FE:F2:17:6B:C0:2C:44:7D:B6:73:A6

            X509v3 Extended Key Usage: 
                TLS Web Server Authentication
            X509v3 Key Usage: 
                Digital Signature, Key Encipherment
            X509v3 Subject Alternative Name: 
                DNS:team752-server
    Signature Algorithm: sha256WithRSAEncryption
         ab:d3:ae:e0:f1:1e:a2:c4:42:5d:34:5a:0d:d4:63:27:22:21:
         12:e8:bb:bf:69:2b:be:c7:43:df:27:f0:3b:7f:c7:c1:0d:cb:
         2d:fd:ee:9d:81:ea:cf:62:10:cd:af:ce:c9:18:94:9c:6a:46:
         a8:18:ea:7b:2c:9a:76:4a:28:b8:a1:07:b6:ed:9a:01:64:26:
         cb:63:05:d6:a3:92:1d:11:01:76:9d:78:b1:e4:c1:57:aa:f0:
         17:38:aa:99:8f:01:ca:52:84:e2:8a:78:e0:e0:9f:d3:63:33:
         45:67:04:ca:e2:97:92:64:15:56:61:66:3c:ab:6c:99:e8:c5:
         d3:ca:fa:3d:44:e1:80:fb:55:49:02:44:f0:d2:52:a4:c4:d2:
         9a:ed:87:70:c8:19:78:ef:30:c5:57:b0:f9:1e:64:f4:13:e9:
         ea:11:7f:ba:63:82:4f:27:60:43:ca:62:ea:40:54:ea:6c:84:
         5c:5b:cb:37:09:b3:80:e0:85:08:46:1a:13:cf:2d:35:d3:db:
         3d:eb:16:11:e3:db:2a:34:29:f3:26:0c:1a:be:ef:73:98:20:
         c3:8f:3f:76:7c:e7:4a:f7:63:3c:42:a6:24:cc:9d:06:9c:31:
         cd:5c:c5:0d:f5:eb:ee:fa:11:94:68:d9:da:89:2b:7f:cf:cb:
         cf:87:4d:5f
-----BEGIN CERTIFICATE-----
MIIDeDCCAmCgAwIBAgIRAKo9EcjxwdvKXsmDe7cmxT4wDQYJKoZIhvcNAQELBQAw
FjEUMBIGA1UEAwwLdGVhbTc1Mi1uZXQwHhcNMjIwNTE5MDAxNjUyWhcNMjUwNTAz
MDAxNjUyWjAZMRcwFQYDVQQDDA50ZWFtNzUyLXNlcnZlcjCCASIwDQYJKoZIhvcN
AQEBBQADggEPADCCAQoCggEBAJ3WjRLpbudZr0BHRpln8Sup2wv7GLH72kQtDc+n
N656y0WdZWh2rlC5iZDcTxCihtaUuzw0sw6NOlXOoHWsj/ycOg9TVTG5T1TCHdMU
LICVCslHbdkHfHpu0jyG56WLlKNhoM17z+11m9MVefCcmsrWJn9kv9PsJ5qA/pLT
Sa7XrrDGowdS4Je7VWFPeokmTJzFq77fqUZO1f4wgMQcufYqpGIzMe9CPpt2RHRM
XP/kOZkkYbjMVHuJN4RZAsn3KiLLLFLWdMZia8usY1I7BSvUy+Ai8LK7NomtArgJ
ZdLd78OleEMJiTUzT01Wdiv1ufxplKCFkmsXECkYV3+BxDcCAwEAAaOBvTCBujAJ
BgNVHRMEAjAAMB0GA1UdDgQWBBT8bF103ds03m/9tnCKtxIRBQorfDBRBgNVHSME
SjBIgBSfZ4CTBAk0GQTYHU6UZ45hLxdsDaEapBgwFjEUMBIGA1UEAwwLdGVhbTc1
Mi1uZXSCFCus7Q2o/6doMP7yF2vALER9tnOmMBMGA1UdJQQMMAoGCCsGAQUFBwMB
MAsGA1UdDwQEAwIFoDAZBgNVHREEEjAQgg50ZWFtNzUyLXNlcnZlcjANBgkqhkiG
9w0BAQsFAAOCAQEAq9Ou4PEeosRCXTRaDdRjJyIhEui7v2krvsdD3yfwO3/HwQ3L
Lf3unYHqz2IQza/OyRiUnGpGqBjqeyyadkoouKEHtu2aAWQmy2MF1qOSHREBdp14
seTBV6rwFziqmY8BylKE4op44OCf02MzRWcEyuKXkmQVVmFmPKtsmejF08r6PUTh
gPtVSQJE8NJSpMTSmu2HcMgZeO8wxVew+R5k9BPp6hF/umOCTydgQ8pi6kBU6myE
XFvLNwmzgOCFCEYaE88tNdPbPesWEePbKjQp8yYMGr7vc5ggw48/dnznSvdjPEKm
JMydBpwxzVzFDfXr7voRlGjZ2okrf8/Lz4dNXw==
-----END CERTIFICATE-----
