Certificate:
    Data:
        Version: 3 (0x2)
        Serial Number:
            c6:06:37:a4:94:2f:73:52:1f:63:0b:b0:f5:cb:39:5f
        Signature Algorithm: sha256WithRSAEncryption
        Issuer: CN=team670-net
        Validity
            Not Before: May 18 23:15:45 2022 GMT
            Not After : May  2 23:15:45 2025 GMT
        Subject: CN=team670-client
        Subject Public Key Info:
            Public Key Algorithm: rsaEncryption
                RSA Public-Key: (2048 bit)
                Modulus:
                    00:c6:e4:e2:ce:1e:21:87:68:ca:7e:01:b9:2d:50:
                    2d:e2:ea:34:2b:a4:d5:1e:c5:ce:f8:b3:91:26:72:
                    dc:57:3f:15:98:a8:a8:6f:62:98:80:8a:49:49:f1:
                    82:90:6b:db:c9:af:82:fc:e2:36:e1:8c:a9:6c:99:
                    f1:74:b2:71:cb:f0:af:f3:7c:d8:57:1b:8c:d8:69:
                    6f:47:83:c4:20:58:e3:5d:d7:ec:3d:96:ef:5e:ac:
                    cc:ae:3c:68:59:aa:27:70:d4:4a:59:98:2f:d4:b5:
                    61:74:c7:3d:38:84:d7:52:39:ae:1d:eb:ee:87:47:
                    9b:20:7d:bb:1d:f6:7d:94:31:12:6c:84:f9:29:cf:
                    73:50:4e:b8:6b:36:57:06:8a:26:fc:7b:19:a5:83:
                    79:65:82:dc:b9:44:c2:5d:9e:e6:eb:15:03:7f:e3:
                    50:a7:bb:f8:19:e0:13:67:e9:9f:bc:47:a3:72:44:
                    3c:12:f4:f9:b2:73:16:f0:a0:09:9a:03:7f:ff:44:
                    92:91:8a:d6:d9:5a:9e:b6:f2:93:f9:6e:0c:00:49:
                    24:4e:17:9d:54:f1:6e:c3:f2:54:4e:2e:d3:19:11:
                    56:4c:6b:18:4f:04:29:72:ec:0d:82:98:78:fa:af:
                    77:a9:fd:21:00:b2:3e:a4:a9:64:cb:6b:99:53:7b:
                    5f:15
                Exponent: 65537 (0x10001)
        X509v3 extensions:
            X509v3 Basic Constraints: 
                CA:FALSE
            X509v3 Subject Key Identifier: 
                09:37:66:9D:C5:70:D6:CE:A8:57:71:6C:20:C0:14:C0:67:11:12:62
            X509v3 Authority Key Identifier: 
                keyid:48:A6:78:47:D7:63:EA:82:00:FA:6C:9A:24:EC:37:E2:1C:32:B0:63
                DirName:/CN=team670-net
                serial:4C:EF:93:DF:BC:31:F0:6B:29:A0:7F:09:AF:5B:E9:33:73:34:3C:AF

            X509v3 Extended Key Usage: 
                TLS Web Client Authentication
            X509v3 Key Usage: 
                Digital Signature
    Signature Algorithm: sha256WithRSAEncryption
         54:04:d4:6d:44:06:1e:df:96:23:c6:af:bb:4e:64:a9:9c:c8:
         55:e2:38:94:89:47:e1:65:51:8b:5f:dd:9c:67:f0:70:ce:8a:
         6e:9b:5f:50:8f:c5:88:c4:85:13:d4:37:49:5d:10:f6:84:df:
         0f:31:34:e8:40:21:24:d3:8f:b1:a1:c0:3c:b6:e5:45:a1:7e:
         55:44:97:d7:fe:95:08:90:8b:41:d5:e0:d0:b6:d1:c5:12:96:
         11:b5:8e:4b:52:cc:b2:b8:57:a6:72:95:5f:9c:e7:6c:1e:6d:
         5d:45:be:6e:57:77:80:ab:64:28:d0:fa:6c:18:a2:64:ec:cf:
         bd:2b:a5:a9:51:1a:c2:5e:06:64:40:74:18:75:15:ba:e2:a0:
         46:74:ce:df:53:ac:a0:fc:4b:66:67:2f:42:8f:59:e5:d3:58:
         68:86:0b:45:90:cc:c4:0e:3a:bb:65:a4:01:ac:c2:ee:6f:92:
         e6:d4:af:c5:88:dc:44:b6:2f:a9:60:5b:1f:29:c2:6e:de:49:
         83:8e:8e:9d:a9:91:5a:ad:fe:8e:0e:3e:84:25:c8:f9:26:62:
         d6:62:5d:72:23:62:62:8a:42:36:20:74:14:4d:28:c3:05:f1:
         70:66:f6:56:4c:df:7b:63:1f:ec:04:6c:bf:1e:33:75:69:e7:
         f3:87:39:ff
-----BEGIN CERTIFICATE-----
MIIDXTCCAkWgAwIBAgIRAMYGN6SUL3NSH2MLsPXLOV8wDQYJKoZIhvcNAQELBQAw
FjEUMBIGA1UEAwwLdGVhbTY3MC1uZXQwHhcNMjIwNTE4MjMxNTQ1WhcNMjUwNTAy
MjMxNTQ1WjAZMRcwFQYDVQQDDA50ZWFtNjcwLWNsaWVudDCCASIwDQYJKoZIhvcN
AQEBBQADggEPADCCAQoCggEBAMbk4s4eIYdoyn4BuS1QLeLqNCuk1R7FzvizkSZy
3Fc/FZioqG9imICKSUnxgpBr28mvgvziNuGMqWyZ8XSyccvwr/N82FcbjNhpb0eD
xCBY413X7D2W716szK48aFmqJ3DUSlmYL9S1YXTHPTiE11I5rh3r7odHmyB9ux32
fZQxEmyE+SnPc1BOuGs2VwaKJvx7GaWDeWWC3LlEwl2e5usVA3/jUKe7+BngE2fp
n7xHo3JEPBL0+bJzFvCgCZoDf/9EkpGK1tlanrbyk/luDABJJE4XnVTxbsPyVE4u
0xkRVkxrGE8EKXLsDYKYePqvd6n9IQCyPqSpZMtrmVN7XxUCAwEAAaOBojCBnzAJ
BgNVHRMEAjAAMB0GA1UdDgQWBBQJN2adxXDWzqhXcWwgwBTAZxESYjBRBgNVHSME
SjBIgBRIpnhH12PqggD6bJok7DfiHDKwY6EapBgwFjEUMBIGA1UEAwwLdGVhbTY3
MC1uZXSCFEzvk9+8MfBrKaB/Ca9b6TNzNDyvMBMGA1UdJQQMMAoGCCsGAQUFBwMC
MAsGA1UdDwQEAwIHgDANBgkqhkiG9w0BAQsFAAOCAQEAVATUbUQGHt+WI8avu05k
qZzIVeI4lIlH4WVRi1/dnGfwcM6KbptfUI/FiMSFE9Q3SV0Q9oTfDzE06EAhJNOP
saHAPLblRaF+VUSX1/6VCJCLQdXg0LbRxRKWEbWOS1LMsrhXpnKVX5znbB5tXUW+
bld3gKtkKND6bBiiZOzPvSulqVEawl4GZEB0GHUVuuKgRnTO31OsoPxLZmcvQo9Z
5dNYaIYLRZDMxA46u2WkAazC7m+S5tSvxYjcRLYvqWBbHynCbt5Jg46OnamRWq3+
jg4+hCXI+SZi1mJdciNiYopCNiB0FE0owwXxcGb2Vkzfe2Mf7ARsvx4zdWnn84c5
/w==
-----END CERTIFICATE-----
