Certificate:
    Data:
        Version: 3 (0x2)
        Serial Number:
            77:92:ff:07:54:ae:0d:91:2d:f9:3f:e5:2c:2b:43:67
        Signature Algorithm: sha256WithRSAEncryption
        Issuer: CN=team283-net
        Validity
            Not Before: May 18 19:49:14 2022 GMT
            Not After : May  2 19:49:14 2025 GMT
        Subject: CN=team283-client
        Subject Public Key Info:
            Public Key Algorithm: rsaEncryption
                RSA Public-Key: (2048 bit)
                Modulus:
                    00:9d:6e:7b:58:3b:5c:98:38:ba:7f:bd:cb:ed:7e:
                    e7:af:08:93:93:bc:60:2c:37:29:b8:bc:9f:3d:d3:
                    4f:60:4c:76:07:08:e2:5e:bb:46:ba:b4:ee:be:46:
                    99:13:ef:0b:87:08:4e:cc:a7:b8:49:31:1f:c1:a6:
                    d3:b7:b0:76:27:1c:00:12:b1:e9:20:46:f0:b7:fa:
                    fb:46:a3:0a:14:ab:ba:87:11:c4:17:72:44:c7:c8:
                    f6:e5:8e:4f:11:78:a7:28:51:57:96:a9:49:5e:c1:
                    de:4b:81:c1:63:11:d0:76:4f:1e:ff:66:65:ba:3f:
                    93:65:5d:d3:48:58:df:e1:6b:d5:b8:2c:b5:4b:2f:
                    90:95:2c:99:0f:06:01:98:92:69:c3:86:c5:74:57:
                    b2:07:62:b3:26:ec:63:7d:0f:e3:73:b2:73:d6:65:
                    7b:6b:9c:2a:84:08:d1:8e:cf:a9:d8:e2:3f:0a:f5:
                    37:55:5d:49:b1:73:68:75:65:c7:e6:b5:ef:73:22:
                    07:d5:e6:c8:cc:de:33:b6:b6:a3:52:16:57:bb:af:
                    7b:32:c7:36:2d:32:ac:69:c1:eb:64:a0:0b:b4:2b:
                    74:bb:a0:04:74:98:43:3a:18:79:bd:0b:a9:f5:59:
                    67:65:6f:b2:da:86:3b:b2:4c:59:0c:aa:fa:23:6a:
                    fb:cf
                Exponent: 65537 (0x10001)
        X509v3 extensions:
            X509v3 Basic Constraints: 
                CA:FALSE
            X509v3 Subject Key Identifier: 
                CD:01:19:17:F2:88:14:B0:7C:14:3F:C6:F2:F7:8E:C6:8E:20:AF:03
            X509v3 Authority Key Identifier: 
                keyid:B2:E8:3A:81:54:F8:82:AC:16:D7:1A:AC:A9:4F:C0:F2:A6:7C:7C:20
                DirName:/CN=team283-net
                serial:22:1B:1D:51:4B:A9:3D:73:F4:31:06:A2:A6:FE:D0:35:98:AB:C1:D0

            X509v3 Extended Key Usage: 
                TLS Web Client Authentication
            X509v3 Key Usage: 
                Digital Signature
    Signature Algorithm: sha256WithRSAEncryption
         c9:f5:9d:73:2d:93:04:e2:54:45:c4:5c:79:e5:9a:32:a1:ff:
         0a:8e:b0:22:f5:9e:f1:9e:ed:1f:fb:3d:80:22:61:ea:de:00:
         a8:40:6b:d8:fe:4c:89:da:e3:50:4e:7c:60:12:28:9d:65:2e:
         02:09:d1:9a:90:7d:0b:f4:43:24:53:58:17:1e:58:b3:fd:12:
         b5:95:64:7c:7a:c8:0e:3b:94:3a:c6:e9:55:40:86:8f:e5:8a:
         1a:9f:db:44:bb:0d:45:13:32:b2:24:85:c2:5f:80:fa:ac:6c:
         2d:d2:e4:c4:d3:a0:b6:51:d0:35:38:6b:61:9f:64:c8:e9:8e:
         74:3b:28:0a:a5:b3:c9:0a:c5:e2:ae:96:bf:1a:e9:78:8c:d0:
         1f:08:ef:ad:4d:d5:bd:ec:2c:74:ea:28:d1:66:56:03:fd:ad:
         54:3e:0a:fe:82:a6:05:aa:70:b2:54:d7:bf:88:9b:6b:dd:82:
         9c:90:9b:a0:08:b2:29:46:90:8b:30:f5:59:12:b8:1a:bd:39:
         5d:09:35:26:e5:aa:49:20:db:bc:a9:73:5b:98:b3:b0:e7:8a:
         ee:d4:32:6d:9b:5b:04:bf:f7:14:76:ec:10:26:48:0d:a1:be:
         55:dd:41:54:72:41:5b:3a:53:20:82:38:81:d6:52:87:09:ec:
         97:8a:10:00
-----BEGIN CERTIFICATE-----
MIIDXDCCAkSgAwIBAgIQd5L/B1SuDZEt+T/lLCtDZzANBgkqhkiG9w0BAQsFADAW
MRQwEgYDVQQDDAt0ZWFtMjgzLW5ldDAeFw0yMjA1MTgxOTQ5MTRaFw0yNTA1MDIx
OTQ5MTRaMBkxFzAVBgNVBAMMDnRlYW0yODMtY2xpZW50MIIBIjANBgkqhkiG9w0B
AQEFAAOCAQ8AMIIBCgKCAQEAnW57WDtcmDi6f73L7X7nrwiTk7xgLDcpuLyfPdNP
YEx2BwjiXrtGurTuvkaZE+8LhwhOzKe4STEfwabTt7B2JxwAErHpIEbwt/r7RqMK
FKu6hxHEF3JEx8j25Y5PEXinKFFXlqlJXsHeS4HBYxHQdk8e/2Zluj+TZV3TSFjf
4WvVuCy1Sy+QlSyZDwYBmJJpw4bFdFeyB2KzJuxjfQ/jc7Jz1mV7a5wqhAjRjs+p
2OI/CvU3VV1JsXNodWXH5rXvcyIH1ebIzN4ztrajUhZXu697Msc2LTKsacHrZKAL
tCt0u6AEdJhDOhh5vQup9VlnZW+y2oY7skxZDKr6I2r7zwIDAQABo4GiMIGfMAkG
A1UdEwQCMAAwHQYDVR0OBBYEFM0BGRfyiBSwfBQ/xvL3jsaOIK8DMFEGA1UdIwRK
MEiAFLLoOoFU+IKsFtcarKlPwPKmfHwgoRqkGDAWMRQwEgYDVQQDDAt0ZWFtMjgz
LW5ldIIUIhsdUUupPXP0MQaipv7QNZirwdAwEwYDVR0lBAwwCgYIKwYBBQUHAwIw
CwYDVR0PBAQDAgeAMA0GCSqGSIb3DQEBCwUAA4IBAQDJ9Z1zLZME4lRFxFx55Zoy
of8KjrAi9Z7xnu0f+z2AImHq3gCoQGvY/kyJ2uNQTnxgEiidZS4CCdGakH0L9EMk
U1gXHliz/RK1lWR8esgOO5Q6xulVQIaP5Yoan9tEuw1FEzKyJIXCX4D6rGwt0uTE
06C2UdA1OGthn2TI6Y50OygKpbPJCsXirpa/Gul4jNAfCO+tTdW97Cx06ijRZlYD
/a1UPgr+gqYFqnCyVNe/iJtr3YKckJugCLIpRpCLMPVZErgavTldCTUm5apJINu8
qXNbmLOw54ru1DJtm1sEv/cUduwQJkgNob5V3UFUckFbOlMggjiB1lKHCeyXihAA
-----END CERTIFICATE-----
