Certificate:
    Data:
        Version: 3 (0x2)
        Serial Number:
            e7:17:4b:fa:26:13:d1:39:e5:b7:68:41:73:1d:5e:e9
        Signature Algorithm: sha256WithRSAEncryption
        Issuer: CN=team527-net
        Validity
            Not Before: May 18 22:07:57 2022 GMT
            Not After : May  2 22:07:57 2025 GMT
        Subject: CN=team527-server
        Subject Public Key Info:
            Public Key Algorithm: rsaEncryption
                RSA Public-Key: (2048 bit)
                Modulus:
                    00:c8:58:ea:a3:87:3c:c3:b6:51:d6:86:b0:fe:4c:
                    6c:19:e2:c8:28:18:32:1d:8f:00:f0:c9:8e:2e:4b:
                    33:c3:59:73:1d:6b:98:0c:c4:79:f9:d4:f3:59:d4:
                    33:0a:5b:7f:72:1f:bd:9f:a8:43:4e:55:ce:56:9a:
                    ff:2c:0c:6b:df:48:e0:6e:64:20:a8:a2:81:c5:a1:
                    f6:d8:ac:1d:fd:0a:8a:d7:f4:a2:da:7e:18:a3:14:
                    04:57:b4:e4:c2:ee:57:e5:79:82:3a:a1:5c:05:28:
                    25:7b:c5:76:b8:b8:9d:8e:16:48:b6:8a:fe:15:db:
                    01:37:ff:bd:26:92:05:57:6a:5c:2a:5e:f3:cc:fd:
                    76:00:bc:4a:83:9a:8b:65:af:ed:33:8a:4a:37:6d:
                    5a:d6:3a:de:e5:c9:b2:7b:32:e1:5e:7f:44:6e:6d:
                    75:3a:02:2d:ef:d1:d3:03:ca:2b:ca:5e:99:07:dc:
                    50:42:23:60:78:dd:e6:ad:86:c3:cc:09:88:c0:a2:
                    50:51:83:16:7f:27:41:e1:17:f6:bb:67:0e:10:e1:
                    35:f2:49:6b:b4:f3:b7:90:77:6a:5e:cb:3a:96:ca:
                    ab:ba:13:ab:99:71:bd:4d:22:5e:63:50:06:61:b8:
                    b5:f3:48:99:4a:e1:9d:b2:f4:97:62:84:20:68:a4:
                    01:79
                Exponent: 65537 (0x10001)
        X509v3 extensions:
            X509v3 Basic Constraints: 
                CA:FALSE
            X509v3 Subject Key Identifier: 
                39:CB:7D:EF:6F:5A:8D:DC:03:E0:DA:F6:99:59:D7:BD:04:BA:8C:AF
            X509v3 Authority Key Identifier: 
                keyid:B7:4F:F8:D0:47:1B:A3:5D:03:23:57:81:65:D2:2F:A0:F4:F8:2C:9B
                DirName:/CN=team527-net
                serial:6A:BE:91:CC:82:63:EE:A5:8A:06:FB:48:8E:45:8F:A3:9C:59:70:13

            X509v3 Extended Key Usage: 
                TLS Web Server Authentication
            X509v3 Key Usage: 
                Digital Signature, Key Encipherment
            X509v3 Subject Alternative Name: 
                DNS:team527-server
    Signature Algorithm: sha256WithRSAEncryption
         80:4d:c3:d8:ad:a6:01:a0:71:31:a4:66:57:3d:34:1b:f0:fa:
         00:52:41:3a:76:06:12:3e:ee:5e:97:3d:cc:21:8d:cf:13:02:
         b7:1f:35:d2:48:aa:df:03:3a:6d:32:d6:cc:2f:b2:af:83:44:
         cb:b6:57:8f:e3:0a:c8:f2:c7:16:a3:8f:b1:8d:d1:73:5f:d9:
         24:d2:8b:75:f9:31:e0:7c:b9:a6:60:7a:08:cf:ae:4e:1a:cd:
         32:cd:59:e0:e4:b6:05:9b:dd:d8:06:34:9f:86:a5:bd:4a:21:
         ee:d7:8f:95:a2:fb:26:83:47:d2:25:d1:a7:eb:98:9e:7a:ef:
         61:44:4b:7f:4c:f5:ec:e2:0a:1e:d2:93:d3:ff:14:80:7d:51:
         18:f9:e3:f5:b3:5a:db:ba:df:73:b2:c9:04:f6:6e:70:6b:82:
         70:07:17:44:50:32:aa:e2:82:01:37:c7:b3:40:f0:2f:97:ab:
         28:b5:7f:83:71:c2:7b:16:cd:32:3a:42:ea:64:f8:a4:18:04:
         4a:bd:35:9e:db:8c:65:36:ac:63:9a:42:e7:1a:78:45:5a:25:
         0d:0b:8d:cc:40:a8:c0:8e:b9:54:2f:6d:a0:5a:75:30:9d:65:
         f7:7e:44:0a:34:e1:c7:7a:d2:a9:8f:2a:19:a5:24:7d:56:e9:
         cc:b9:78:bd
-----BEGIN CERTIFICATE-----
MIIDeDCCAmCgAwIBAgIRAOcXS/omE9E55bdoQXMdXukwDQYJKoZIhvcNAQELBQAw
FjEUMBIGA1UEAwwLdGVhbTUyNy1uZXQwHhcNMjIwNTE4MjIwNzU3WhcNMjUwNTAy
MjIwNzU3WjAZMRcwFQYDVQQDDA50ZWFtNTI3LXNlcnZlcjCCASIwDQYJKoZIhvcN
AQEBBQADggEPADCCAQoCggEBAMhY6qOHPMO2UdaGsP5MbBniyCgYMh2PAPDJji5L
M8NZcx1rmAzEefnU81nUMwpbf3IfvZ+oQ05Vzlaa/ywMa99I4G5kIKiigcWh9tis
Hf0Kitf0otp+GKMUBFe05MLuV+V5gjqhXAUoJXvFdri4nY4WSLaK/hXbATf/vSaS
BVdqXCpe88z9dgC8SoOai2Wv7TOKSjdtWtY63uXJsnsy4V5/RG5tdToCLe/R0wPK
K8pemQfcUEIjYHjd5q2Gw8wJiMCiUFGDFn8nQeEX9rtnDhDhNfJJa7Tzt5B3al7L
OpbKq7oTq5lxvU0iXmNQBmG4tfNImUrhnbL0l2KEIGikAXkCAwEAAaOBvTCBujAJ
BgNVHRMEAjAAMB0GA1UdDgQWBBQ5y33vb1qN3APg2vaZWde9BLqMrzBRBgNVHSME
SjBIgBS3T/jQRxujXQMjV4Fl0i+g9Pgsm6EapBgwFjEUMBIGA1UEAwwLdGVhbTUy
Ny1uZXSCFGq+kcyCY+6ligb7SI5Fj6OcWXATMBMGA1UdJQQMMAoGCCsGAQUFBwMB
MAsGA1UdDwQEAwIFoDAZBgNVHREEEjAQgg50ZWFtNTI3LXNlcnZlcjANBgkqhkiG
9w0BAQsFAAOCAQEAgE3D2K2mAaBxMaRmVz00G/D6AFJBOnYGEj7uXpc9zCGNzxMC
tx810kiq3wM6bTLWzC+yr4NEy7ZXj+MKyPLHFqOPsY3Rc1/ZJNKLdfkx4Hy5pmB6
CM+uThrNMs1Z4OS2BZvd2AY0n4alvUoh7tePlaL7JoNH0iXRp+uYnnrvYURLf0z1
7OIKHtKT0/8UgH1RGPnj9bNa27rfc7LJBPZucGuCcAcXRFAyquKCATfHs0DwL5er
KLV/g3HCexbNMjpC6mT4pBgESr01ntuMZTasY5pC5xp4RVolDQuNzECowI65VC9t
oFp1MJ1l935ECjThx3rSqY8qGaUkfVbpzLl4vQ==
-----END CERTIFICATE-----
