Certificate:
    Data:
        Version: 3 (0x2)
        Serial Number:
            fa:1e:8b:84:48:4c:54:9f:45:f9:80:99:fa:47:db:49
        Signature Algorithm: sha256WithRSAEncryption
        Issuer: CN=team527-net
        Validity
            Not Before: May 18 22:07:57 2022 GMT
            Not After : May  2 22:07:57 2025 GMT
        Subject: CN=team527-client
        Subject Public Key Info:
            Public Key Algorithm: rsaEncryption
                RSA Public-Key: (2048 bit)
                Modulus:
                    00:b9:a8:d9:89:95:4b:cf:a6:55:cc:00:b1:1a:c8:
                    e5:f4:6c:da:f9:d3:63:1d:a7:28:e8:f5:fe:c4:b7:
                    e6:fc:2b:14:71:6a:56:11:85:cb:79:c7:a6:85:8f:
                    34:ed:3c:21:47:33:96:ac:a0:58:ad:61:3f:5d:d6:
                    fb:23:cb:e2:e1:b1:08:eb:aa:c0:ba:2b:23:86:50:
                    5b:6c:6c:b1:f5:c3:cc:e9:f2:db:cf:51:e1:4f:68:
                    52:60:4e:0d:e5:be:8e:58:5c:08:a6:a5:c5:5c:d9:
                    f5:fc:32:73:ef:51:c2:17:3b:b0:6d:7d:b8:80:24:
                    2c:32:e0:dd:66:34:fd:16:b7:8c:a5:6a:66:5f:ee:
                    fc:81:39:71:c9:8f:d0:de:92:6a:aa:d4:a8:72:2c:
                    db:75:b7:f5:a8:ab:a0:ee:46:75:df:37:07:23:aa:
                    4e:0e:cd:55:87:fd:15:1d:14:77:1c:47:7d:38:bf:
                    ac:8c:ee:54:a3:1c:ca:27:2e:f3:6c:75:fe:34:cc:
                    c0:8d:2c:42:07:b1:8f:1f:62:fa:85:be:6c:15:ed:
                    e7:ae:e7:ea:4d:9a:55:98:7e:71:d2:d9:2f:21:a3:
                    9f:60:88:5a:62:00:2c:b3:08:96:ec:3e:bd:a7:1b:
                    2b:fa:36:49:08:63:69:2a:5c:2b:ff:31:53:95:f8:
                    b1:43
                Exponent: 65537 (0x10001)
        X509v3 extensions:
            X509v3 Basic Constraints: 
                CA:FALSE
            X509v3 Subject Key Identifier: 
                CC:59:C8:11:37:27:C6:1E:F5:2D:57:D6:96:F3:C8:97:04:3B:6A:C1
            X509v3 Authority Key Identifier: 
                keyid:B7:4F:F8:D0:47:1B:A3:5D:03:23:57:81:65:D2:2F:A0:F4:F8:2C:9B
                DirName:/CN=team527-net
                serial:6A:BE:91:CC:82:63:EE:A5:8A:06:FB:48:8E:45:8F:A3:9C:59:70:13

            X509v3 Extended Key Usage: 
                TLS Web Client Authentication
            X509v3 Key Usage: 
                Digital Signature
    Signature Algorithm: sha256WithRSAEncryption
         52:f8:80:d3:a2:1b:8f:b5:00:a8:b7:2a:54:06:8e:bf:91:34:
         47:19:b2:eb:25:ee:6c:54:30:98:9c:2d:6d:52:36:46:7a:f8:
         72:53:a7:91:0e:e6:91:3d:c2:15:18:d1:7d:d7:b8:12:b1:a7:
         25:be:87:55:b3:67:4e:6e:6a:8d:d4:cf:c3:75:03:61:7b:71:
         b1:4b:90:b0:01:42:a1:57:bc:1a:e5:95:10:b4:f1:12:d6:cc:
         70:57:30:83:15:df:95:40:4a:1c:68:90:93:f7:de:32:39:1a:
         c2:8d:26:24:94:6c:a3:11:ec:80:e8:7e:9f:a2:f4:fa:ac:13:
         a5:1b:41:71:9c:81:a9:be:85:17:a7:8c:b4:5d:25:02:4b:7f:
         5c:e0:07:d5:75:91:a7:b8:6c:05:77:4c:fc:0c:26:ee:15:20:
         db:62:ad:08:61:14:75:fa:b0:58:51:70:93:ab:50:27:30:a6:
         5a:86:b0:aa:c5:3a:72:bf:f4:29:1b:37:d1:00:d2:6c:ea:d7:
         21:67:71:b0:59:2e:a0:f1:4e:bf:95:bf:9b:6a:1d:43:ba:db:
         c9:50:88:ff:2a:fc:7e:7c:88:77:a8:20:f6:86:40:bd:e6:ab:
         ab:93:7e:17:89:87:92:99:3f:36:5f:94:00:1a:47:c3:d0:9e:
         3f:94:d5:33
-----BEGIN CERTIFICATE-----
MIIDXTCCAkWgAwIBAgIRAPoei4RITFSfRfmAmfpH20kwDQYJKoZIhvcNAQELBQAw
FjEUMBIGA1UEAwwLdGVhbTUyNy1uZXQwHhcNMjIwNTE4MjIwNzU3WhcNMjUwNTAy
MjIwNzU3WjAZMRcwFQYDVQQDDA50ZWFtNTI3LWNsaWVudDCCASIwDQYJKoZIhvcN
AQEBBQADggEPADCCAQoCggEBALmo2YmVS8+mVcwAsRrI5fRs2vnTYx2nKOj1/sS3
5vwrFHFqVhGFy3nHpoWPNO08IUczlqygWK1hP13W+yPL4uGxCOuqwLorI4ZQW2xs
sfXDzOny289R4U9oUmBODeW+jlhcCKalxVzZ9fwyc+9Rwhc7sG19uIAkLDLg3WY0
/Ra3jKVqZl/u/IE5ccmP0N6SaqrUqHIs23W39airoO5Gdd83ByOqTg7NVYf9FR0U
dxxHfTi/rIzuVKMcyicu82x1/jTMwI0sQgexjx9i+oW+bBXt567n6k2aVZh+cdLZ
LyGjn2CIWmIALLMIluw+vacbK/o2SQhjaSpcK/8xU5X4sUMCAwEAAaOBojCBnzAJ
BgNVHRMEAjAAMB0GA1UdDgQWBBTMWcgRNyfGHvUtV9aW88iXBDtqwTBRBgNVHSME
SjBIgBS3T/jQRxujXQMjV4Fl0i+g9Pgsm6EapBgwFjEUMBIGA1UEAwwLdGVhbTUy
Ny1uZXSCFGq+kcyCY+6ligb7SI5Fj6OcWXATMBMGA1UdJQQMMAoGCCsGAQUFBwMC
MAsGA1UdDwQEAwIHgDANBgkqhkiG9w0BAQsFAAOCAQEAUviA06Ibj7UAqLcqVAaO
v5E0Rxmy6yXubFQwmJwtbVI2Rnr4clOnkQ7mkT3CFRjRfde4ErGnJb6HVbNnTm5q
jdTPw3UDYXtxsUuQsAFCoVe8GuWVELTxEtbMcFcwgxXflUBKHGiQk/feMjkawo0m
JJRsoxHsgOh+n6L0+qwTpRtBcZyBqb6FF6eMtF0lAkt/XOAH1XWRp7hsBXdM/Awm
7hUg22KtCGEUdfqwWFFwk6tQJzCmWoawqsU6cr/0KRs30QDSbOrXIWdxsFkuoPFO
v5W/m2odQ7rbyVCI/yr8fnyId6gg9oZAvearq5N+F4mHkpk/Nl+UABpHw9CeP5TV
Mw==
-----END CERTIFICATE-----
