Certificate:
    Data:
        Version: 3 (0x2)
        Serial Number:
            ed:f5:ff:aa:83:68:7b:d7:7e:53:35:0c:a6:9a:7b:37
        Signature Algorithm: sha256WithRSAEncryption
        Issuer: CN=team568-net
        Validity
            Not Before: May 18 22:28:25 2022 GMT
            Not After : May  2 22:28:25 2025 GMT
        Subject: CN=team568-server
        Subject Public Key Info:
            Public Key Algorithm: rsaEncryption
                RSA Public-Key: (2048 bit)
                Modulus:
                    00:cd:b9:5c:b3:96:bc:94:24:39:e1:83:af:dd:68:
                    54:03:7e:93:02:0f:83:ef:a1:9d:5d:fa:f6:14:d8:
                    b8:e8:20:8a:34:c6:83:40:6e:f4:d1:40:3d:d3:07:
                    ee:0e:54:f0:2c:ee:72:92:dc:3e:9d:9a:dd:83:11:
                    25:67:fc:c6:5e:94:82:29:f5:79:c7:d7:09:be:f7:
                    e6:48:fb:15:4b:7c:33:9a:bf:30:f7:a5:bd:0f:65:
                    8a:2d:9e:4b:90:55:94:88:5d:07:31:9b:cc:e9:e7:
                    ab:71:b6:0b:21:5c:6c:b6:3b:2b:80:b9:1e:95:d9:
                    39:17:db:7c:c9:1c:85:e9:9b:da:5b:45:f6:10:3f:
                    39:f3:30:4d:f8:cf:52:71:ea:2a:93:5b:28:d1:7b:
                    25:41:9b:78:23:7c:57:f6:d7:ad:bc:57:b8:03:1c:
                    d0:c8:22:b7:5c:4a:b5:71:17:c0:8f:91:03:da:7d:
                    cb:d2:9d:3e:d6:9f:10:ca:c1:d4:1b:55:e1:c4:d9:
                    4a:d5:85:ee:9b:91:2e:f4:a0:89:55:7c:78:8c:28:
                    93:41:02:29:51:a9:ef:49:ad:2b:db:5a:23:60:7a:
                    41:35:0e:fc:1c:d4:68:c7:ca:96:ba:b6:8f:74:d8:
                    d5:67:39:fc:5d:00:93:26:b1:11:32:94:f9:e5:09:
                    46:31
                Exponent: 65537 (0x10001)
        X509v3 extensions:
            X509v3 Basic Constraints: 
                CA:FALSE
            X509v3 Subject Key Identifier: 
                9B:6E:4A:96:80:CD:4B:CF:56:1C:2C:48:DA:33:81:5E:99:14:EC:C9
            X509v3 Authority Key Identifier: 
                keyid:77:8B:DD:EB:4F:2C:59:80:CB:67:F8:29:AC:51:E3:09:34:D9:87:AE
                DirName:/CN=team568-net
                serial:41:6A:06:29:2D:A3:3D:5B:8D:83:18:32:C6:45:54:F8:89:C6:65:90

            X509v3 Extended Key Usage: 
                TLS Web Server Authentication
            X509v3 Key Usage: 
                Digital Signature, Key Encipherment
            X509v3 Subject Alternative Name: 
                DNS:team568-server
    Signature Algorithm: sha256WithRSAEncryption
         5d:c1:d9:b0:be:0c:a9:7b:79:e4:ba:ea:ea:78:b0:2b:ff:ab:
         41:1f:60:01:2f:8c:92:e5:d6:8f:93:7f:32:22:a0:87:6a:4d:
         25:45:65:2a:ec:73:d0:4c:ee:ec:b6:2e:27:80:25:db:7e:e9:
         e5:4f:37:db:0d:63:38:3a:73:99:bb:07:28:57:71:d7:d8:ce:
         3c:b2:b3:5a:f8:10:ab:66:16:7d:10:47:d0:9f:a3:f2:6c:75:
         95:06:99:28:6e:c4:63:06:28:57:ba:a2:75:78:ba:06:00:0d:
         56:0b:94:d3:b1:89:e9:91:1e:a2:5a:a9:39:bf:ea:bd:50:db:
         1f:4d:b6:75:78:2c:37:6f:53:ae:95:32:40:7a:c5:66:4b:d4:
         ec:9f:91:bf:71:ed:7c:1d:d7:74:18:37:dc:bb:91:9b:36:09:
         35:3c:26:23:bc:d3:2f:e6:ff:e8:b7:91:7d:e3:d7:70:26:42:
         44:21:fe:12:d3:21:b5:8f:27:5e:cb:9c:6a:61:00:f7:8a:2c:
         33:b9:76:3e:ee:04:0b:70:bc:6e:fc:3f:fb:fb:f6:f0:f8:e4:
         1f:21:91:24:08:b2:9b:7a:18:f3:9b:8c:2e:e3:c5:32:84:22:
         15:2d:bd:ab:6c:8b:1c:79:70:a5:b1:8b:fd:7e:e3:a2:81:d8:
         69:af:58:9d
-----BEGIN CERTIFICATE-----
MIIDeDCCAmCgAwIBAgIRAO31/6qDaHvXflM1DKaaezcwDQYJKoZIhvcNAQELBQAw
FjEUMBIGA1UEAwwLdGVhbTU2OC1uZXQwHhcNMjIwNTE4MjIyODI1WhcNMjUwNTAy
MjIyODI1WjAZMRcwFQYDVQQDDA50ZWFtNTY4LXNlcnZlcjCCASIwDQYJKoZIhvcN
AQEBBQADggEPADCCAQoCggEBAM25XLOWvJQkOeGDr91oVAN+kwIPg++hnV369hTY
uOggijTGg0Bu9NFAPdMH7g5U8CzucpLcPp2a3YMRJWf8xl6Ugin1ecfXCb735kj7
FUt8M5q/MPelvQ9lii2eS5BVlIhdBzGbzOnnq3G2CyFcbLY7K4C5HpXZORfbfMkc
hemb2ltF9hA/OfMwTfjPUnHqKpNbKNF7JUGbeCN8V/bXrbxXuAMc0Mgit1xKtXEX
wI+RA9p9y9KdPtafEMrB1BtV4cTZStWF7puRLvSgiVV8eIwok0ECKVGp70mtK9ta
I2B6QTUO/BzUaMfKlrq2j3TY1Wc5/F0AkyaxETKU+eUJRjECAwEAAaOBvTCBujAJ
BgNVHRMEAjAAMB0GA1UdDgQWBBSbbkqWgM1Lz1YcLEjaM4FemRTsyTBRBgNVHSME
SjBIgBR3i93rTyxZgMtn+CmsUeMJNNmHrqEapBgwFjEUMBIGA1UEAwwLdGVhbTU2
OC1uZXSCFEFqBiktoz1bjYMYMsZFVPiJxmWQMBMGA1UdJQQMMAoGCCsGAQUFBwMB
MAsGA1UdDwQEAwIFoDAZBgNVHREEEjAQgg50ZWFtNTY4LXNlcnZlcjANBgkqhkiG
9w0BAQsFAAOCAQEAXcHZsL4MqXt55Lrq6niwK/+rQR9gAS+MkuXWj5N/MiKgh2pN
JUVlKuxz0Ezu7LYuJ4Al237p5U832w1jODpzmbsHKFdx19jOPLKzWvgQq2YWfRBH
0J+j8mx1lQaZKG7EYwYoV7qidXi6BgANVguU07GJ6ZEeolqpOb/qvVDbH022dXgs
N29TrpUyQHrFZkvU7J+Rv3HtfB3XdBg33LuRmzYJNTwmI7zTL+b/6LeRfePXcCZC
RCH+EtMhtY8nXsucamEA94osM7l2Pu4EC3C8bvw/+/v28PjkHyGRJAiym3oY85uM
LuPFMoQiFS29q2yLHHlwpbGL/X7jooHYaa9YnQ==
-----END CERTIFICATE-----
