Certificate:
    Data:
        Version: 3 (0x2)
        Serial Number:
            90:a6:53:04:cb:5e:36:16:eb:3e:1f:a0:4d:8b:96:92
        Signature Algorithm: sha256WithRSAEncryption
        Issuer: CN=team702-net
        Validity
            Not Before: May 18 23:32:37 2022 GMT
            Not After : May  2 23:32:37 2025 GMT
        Subject: CN=team702-server
        Subject Public Key Info:
            Public Key Algorithm: rsaEncryption
                RSA Public-Key: (2048 bit)
                Modulus:
                    00:b6:de:e8:40:6d:96:24:9c:bf:97:f8:59:2c:b5:
                    55:6f:9c:63:a0:88:ae:9a:1c:65:ed:e9:46:2c:62:
                    62:4c:90:86:e0:4f:c7:bf:1a:8d:a1:0a:86:70:4e:
                    d3:f5:96:f3:fe:51:1e:f7:a6:ba:2c:08:ee:a2:e3:
                    f3:92:3a:f8:e2:21:30:6c:27:36:93:26:3a:44:ee:
                    96:1a:b7:1b:a6:f8:28:e5:86:e9:30:5a:b1:46:2b:
                    77:a3:b2:23:d4:b5:42:c2:b7:7f:88:60:cf:11:59:
                    18:84:25:5b:09:52:85:b7:a0:9a:e5:96:47:f4:5a:
                    68:3b:a2:90:6d:07:c0:88:6f:32:ce:65:e5:97:d7:
                    0e:14:ea:7a:cf:f3:ca:b9:e5:68:8f:8a:09:07:78:
                    b4:e4:ef:d2:84:66:8e:f4:63:43:2d:93:90:fa:b6:
                    c0:54:fa:27:a4:e9:0e:71:f7:35:f1:5f:6b:75:99:
                    99:96:76:67:e7:e3:c7:d6:bc:05:c0:0c:e8:55:8f:
                    12:7f:61:6d:84:31:b2:16:c2:22:17:d8:18:69:08:
                    9c:0f:a0:85:5d:16:e1:10:f7:ee:cb:41:bf:2f:b4:
                    3c:d5:a9:18:92:33:90:32:a6:4a:02:92:f6:fa:68:
                    c3:97:eb:df:1a:52:8a:20:87:45:7c:8a:ef:80:1c:
                    fd:f5
                Exponent: 65537 (0x10001)
        X509v3 extensions:
            X509v3 Basic Constraints: 
                CA:FALSE
            X509v3 Subject Key Identifier: 
                08:76:36:54:E4:93:77:C4:54:17:F2:81:FF:A0:78:C3:1D:DA:58:EC
            X509v3 Authority Key Identifier: 
                keyid:4A:8C:62:BF:E8:C0:80:3F:87:09:FA:E6:DD:67:46:FD:6F:C5:0D:FF
                DirName:/CN=team702-net
                serial:43:76:F0:34:A9:1E:48:BC:49:E7:BE:95:C4:EC:74:C3:2B:14:E2:F7

            X509v3 Extended Key Usage: 
                TLS Web Server Authentication
            X509v3 Key Usage: 
                Digital Signature, Key Encipherment
            X509v3 Subject Alternative Name: 
                DNS:team702-server
    Signature Algorithm: sha256WithRSAEncryption
         3d:d5:69:b9:a1:a7:93:81:b3:2c:6c:e4:22:08:70:55:eb:10:
         58:0e:69:be:6b:d8:87:67:29:c1:cc:54:ec:07:9a:66:9d:56:
         e8:c2:9a:74:a1:44:f2:b1:3a:86:2c:0f:e2:73:65:63:57:1d:
         82:6c:86:7f:3d:8b:56:62:f4:4e:21:51:69:59:66:54:5e:f7:
         ae:d2:4f:b9:67:57:b8:ad:a6:10:82:de:f5:9e:55:18:c6:71:
         5f:48:47:88:e0:8a:47:78:0f:d1:e0:e7:b6:fd:b7:5e:0d:22:
         82:00:cc:fe:50:cd:2b:a2:f6:36:96:fb:f1:8b:25:4e:c1:6a:
         e0:bf:c3:6e:80:9a:e8:d1:3d:b7:f5:e2:84:ba:32:98:11:23:
         fc:d1:2f:3c:3d:a7:8a:58:02:42:0e:83:b1:47:6a:cb:8b:d2:
         c5:26:78:62:32:ec:3d:f4:cf:e5:8c:43:90:4e:36:3e:8f:1b:
         b2:79:97:35:01:c0:d4:c8:ff:41:3d:9d:a2:c9:35:97:f8:e6:
         80:23:b2:d0:e2:df:11:e9:db:07:e5:aa:78:69:b2:92:44:a7:
         84:fa:12:8e:fc:64:c7:6c:ec:94:2d:55:d4:c7:ac:33:c5:01:
         80:fa:f0:83:7b:2e:88:f6:c9:20:aa:d6:0f:07:aa:bb:6d:a4:
         17:02:d3:d3
-----BEGIN CERTIFICATE-----
MIIDeDCCAmCgAwIBAgIRAJCmUwTLXjYW6z4foE2LlpIwDQYJKoZIhvcNAQELBQAw
FjEUMBIGA1UEAwwLdGVhbTcwMi1uZXQwHhcNMjIwNTE4MjMzMjM3WhcNMjUwNTAy
MjMzMjM3WjAZMRcwFQYDVQQDDA50ZWFtNzAyLXNlcnZlcjCCASIwDQYJKoZIhvcN
AQEBBQADggEPADCCAQoCggEBALbe6EBtliScv5f4WSy1VW+cY6CIrpocZe3pRixi
YkyQhuBPx78ajaEKhnBO0/WW8/5RHvemuiwI7qLj85I6+OIhMGwnNpMmOkTulhq3
G6b4KOWG6TBasUYrd6OyI9S1QsK3f4hgzxFZGIQlWwlShbegmuWWR/RaaDuikG0H
wIhvMs5l5ZfXDhTqes/zyrnlaI+KCQd4tOTv0oRmjvRjQy2TkPq2wFT6J6TpDnH3
NfFfa3WZmZZ2Z+fjx9a8BcAM6FWPEn9hbYQxshbCIhfYGGkInA+ghV0W4RD37stB
vy+0PNWpGJIzkDKmSgKS9vpow5fr3xpSiiCHRXyK74Ac/fUCAwEAAaOBvTCBujAJ
BgNVHRMEAjAAMB0GA1UdDgQWBBQIdjZU5JN3xFQX8oH/oHjDHdpY7DBRBgNVHSME
SjBIgBRKjGK/6MCAP4cJ+ubdZ0b9b8UN/6EapBgwFjEUMBIGA1UEAwwLdGVhbTcw
Mi1uZXSCFEN28DSpHki8See+lcTsdMMrFOL3MBMGA1UdJQQMMAoGCCsGAQUFBwMB
MAsGA1UdDwQEAwIFoDAZBgNVHREEEjAQgg50ZWFtNzAyLXNlcnZlcjANBgkqhkiG
9w0BAQsFAAOCAQEAPdVpuaGnk4GzLGzkIghwVesQWA5pvmvYh2cpwcxU7AeaZp1W
6MKadKFE8rE6hiwP4nNlY1cdgmyGfz2LVmL0TiFRaVlmVF73rtJPuWdXuK2mEILe
9Z5VGMZxX0hHiOCKR3gP0eDntv23Xg0iggDM/lDNK6L2Npb78YslTsFq4L/DboCa
6NE9t/XihLoymBEj/NEvPD2nilgCQg6DsUdqy4vSxSZ4YjLsPfTP5YxDkE42Po8b
snmXNQHA1Mj/QT2dosk1l/jmgCOy0OLfEenbB+WqeGmykkSnhPoSjvxkx2zslC1V
1MesM8UBgPrwg3suiPbJIKrWDwequ22kFwLT0w==
-----END CERTIFICATE-----
