Certificate:
    Data:
        Version: 3 (0x2)
        Serial Number:
            54:cc:4c:c5:91:fc:28:36:5d:86:fb:58:7d:6c:cd:2d
        Signature Algorithm: sha256WithRSAEncryption
        Issuer: CN=team448-net
        Validity
            Not Before: May 18 21:14:29 2022 GMT
            Not After : May  2 21:14:29 2025 GMT
        Subject: CN=team448-server
        Subject Public Key Info:
            Public Key Algorithm: rsaEncryption
                RSA Public-Key: (2048 bit)
                Modulus:
                    00:a2:e4:a1:bc:a7:7d:94:9c:ae:3e:62:67:db:db:
                    95:62:e3:75:30:8b:e3:3f:89:6e:14:49:26:c0:79:
                    d5:11:0c:b3:88:ec:fa:a1:56:b7:71:d4:36:2f:f3:
                    2b:cb:ff:09:bf:e5:0e:45:ee:9b:2a:67:02:f3:85:
                    fb:e2:3f:2c:09:16:21:cc:a0:c4:1d:13:7b:cf:87:
                    1c:a1:47:e6:42:00:10:27:c1:64:f3:f2:62:8a:79:
                    7e:00:67:be:a0:16:2f:7e:23:f3:50:20:cf:ac:82:
                    a4:23:bc:4e:8f:54:3f:b3:e2:82:0d:42:b5:91:28:
                    fa:b4:69:bc:3f:de:3e:24:a7:99:21:2d:e6:6c:fe:
                    71:fb:94:ee:d2:6b:97:14:7c:08:4b:14:28:c4:7c:
                    6b:de:58:21:c1:96:1b:bb:8c:6e:25:60:3b:ef:02:
                    ae:d8:c2:8d:22:92:d7:3a:71:79:73:4c:77:38:65:
                    5e:72:8b:83:e7:94:48:9a:c7:81:03:5b:00:ee:ff:
                    f3:33:f3:6e:0b:86:9d:0c:0c:0b:a5:cb:e8:e2:00:
                    ad:d9:6b:cd:36:f8:cd:1c:a0:d3:da:55:00:54:0e:
                    7f:57:d4:06:24:03:e2:6f:52:e6:ff:68:9e:35:25:
                    0e:4d:7b:aa:2f:b4:81:a2:5a:26:0c:40:96:d0:56:
                    c2:13
                Exponent: 65537 (0x10001)
        X509v3 extensions:
            X509v3 Basic Constraints: 
                CA:FALSE
            X509v3 Subject Key Identifier: 
                15:CC:1E:6C:60:EE:D9:16:65:29:F4:50:52:31:DD:46:6B:97:17:3E
            X509v3 Authority Key Identifier: 
                keyid:8C:1D:CC:C8:57:69:4E:FB:9B:29:18:E9:56:11:CF:EC:4E:C6:1C:C6
                DirName:/CN=team448-net
                serial:74:64:84:AC:C7:19:96:B4:E4:6C:8A:FD:75:B8:3D:5A:1B:AA:D4:6F

            X509v3 Extended Key Usage: 
                TLS Web Server Authentication
            X509v3 Key Usage: 
                Digital Signature, Key Encipherment
            X509v3 Subject Alternative Name: 
                DNS:team448-server
    Signature Algorithm: sha256WithRSAEncryption
         19:e9:cf:70:b7:c3:a1:ac:a5:02:13:47:93:53:ce:4d:67:22:
         1f:8a:0b:5a:97:cc:c3:7e:4b:db:ac:54:0e:24:c2:3b:4f:ee:
         0d:02:de:f1:ea:69:32:18:16:7a:05:7b:b7:c0:2e:fc:98:c4:
         aa:9a:98:3d:06:73:06:f4:a0:1c:5e:1b:d7:ad:1b:7c:4c:75:
         5f:d6:bb:1b:86:66:09:ee:88:11:26:f8:5f:70:c6:b9:f1:a1:
         71:3d:c1:c6:1b:99:cb:45:56:d8:1f:b5:a2:ff:e6:00:c2:c8:
         36:dd:b3:f1:69:34:63:02:f0:3d:b0:aa:e8:76:d0:75:17:fc:
         38:7f:15:60:40:da:07:6d:4d:f9:c8:42:d5:d1:38:e1:6d:c3:
         9a:ed:40:0e:d0:d8:a0:d9:78:c5:d4:00:c3:67:d7:85:8e:ea:
         95:d0:da:5e:f2:2a:a8:69:3c:ea:98:b6:22:16:e2:f6:89:54:
         e5:a8:e5:07:6c:3a:4b:22:5d:98:14:57:fc:85:a4:3f:09:61:
         c4:63:01:6b:b6:58:a6:79:f8:b7:26:c4:3b:c4:32:4f:05:95:
         d3:30:12:fb:4c:21:22:ae:de:3f:a9:c4:b3:43:f8:8b:6d:be:
         e8:31:d2:ac:b1:a8:ef:01:77:f4:d3:46:8b:e9:98:99:50:b8:
         9e:7b:b9:58
-----BEGIN CERTIFICATE-----
MIIDdzCCAl+gAwIBAgIQVMxMxZH8KDZdhvtYfWzNLTANBgkqhkiG9w0BAQsFADAW
MRQwEgYDVQQDDAt0ZWFtNDQ4LW5ldDAeFw0yMjA1MTgyMTE0MjlaFw0yNTA1MDIy
MTE0MjlaMBkxFzAVBgNVBAMMDnRlYW00NDgtc2VydmVyMIIBIjANBgkqhkiG9w0B
AQEFAAOCAQ8AMIIBCgKCAQEAouShvKd9lJyuPmJn29uVYuN1MIvjP4luFEkmwHnV
EQyziOz6oVa3cdQ2L/Mry/8Jv+UORe6bKmcC84X74j8sCRYhzKDEHRN7z4ccoUfm
QgAQJ8Fk8/Jiinl+AGe+oBYvfiPzUCDPrIKkI7xOj1Q/s+KCDUK1kSj6tGm8P94+
JKeZIS3mbP5x+5Tu0muXFHwISxQoxHxr3lghwZYbu4xuJWA77wKu2MKNIpLXOnF5
c0x3OGVecouD55RImseBA1sA7v/zM/NuC4adDAwLpcvo4gCt2WvNNvjNHKDT2lUA
VA5/V9QGJAPib1Lm/2ieNSUOTXuqL7SBolomDECW0FbCEwIDAQABo4G9MIG6MAkG
A1UdEwQCMAAwHQYDVR0OBBYEFBXMHmxg7tkWZSn0UFIx3UZrlxc+MFEGA1UdIwRK
MEiAFIwdzMhXaU77mykY6VYRz+xOxhzGoRqkGDAWMRQwEgYDVQQDDAt0ZWFtNDQ4
LW5ldIIUdGSErMcZlrTkbIr9dbg9Whuq1G8wEwYDVR0lBAwwCgYIKwYBBQUHAwEw
CwYDVR0PBAQDAgWgMBkGA1UdEQQSMBCCDnRlYW00NDgtc2VydmVyMA0GCSqGSIb3
DQEBCwUAA4IBAQAZ6c9wt8OhrKUCE0eTU85NZyIfigtal8zDfkvbrFQOJMI7T+4N
At7x6mkyGBZ6BXu3wC78mMSqmpg9BnMG9KAcXhvXrRt8THVf1rsbhmYJ7ogRJvhf
cMa58aFxPcHGG5nLRVbYH7Wi/+YAwsg23bPxaTRjAvA9sKrodtB1F/w4fxVgQNoH
bU35yELV0TjhbcOa7UAO0Nig2XjF1ADDZ9eFjuqV0Npe8iqoaTzqmLYiFuL2iVTl
qOUHbDpLIl2YFFf8haQ/CWHEYwFrtlimefi3JsQ7xDJPBZXTMBL7TCEirt4/qcSz
Q/iLbb7oMdKssajvAXf000aL6ZiZULiee7lY
-----END CERTIFICATE-----
