Certificate:
    Data:
        Version: 3 (0x2)
        Serial Number:
            d3:fb:20:40:c5:81:49:98:d9:48:ff:11:a8:30:8b:ed
        Signature Algorithm: sha256WithRSAEncryption
        Issuer: CN=team6-net
        Validity
            Not Before: May 18 13:58:50 2022 GMT
            Not After : May  2 13:58:50 2025 GMT
        Subject: CN=team6-server
        Subject Public Key Info:
            Public Key Algorithm: rsaEncryption
                RSA Public-Key: (2048 bit)
                Modulus:
                    00:b7:83:4f:05:3a:da:09:28:a4:5b:85:95:c8:61:
                    87:11:40:36:99:95:31:68:ca:82:7e:07:ab:b4:54:
                    b5:4a:ce:ba:72:b0:26:4d:fe:1a:ce:1c:2d:d3:bd:
                    c2:03:f7:f7:db:5c:12:9d:6a:93:86:3b:88:7e:45:
                    1a:f2:f3:69:48:67:c1:0d:76:4d:5f:07:13:03:a3:
                    65:57:1f:f8:1c:bc:ef:4e:24:05:76:8d:d3:7f:82:
                    9a:d9:cf:2a:60:68:cb:24:07:4b:01:ff:fc:6e:9e:
                    75:77:e6:5d:2c:7a:49:dd:12:a1:35:da:e1:62:f1:
                    ea:b4:3d:dc:3f:f1:f9:79:41:a5:88:c8:d3:01:91:
                    b8:65:da:ef:8b:42:2b:7c:39:df:6f:b0:f9:60:6b:
                    1f:d8:f7:39:aa:87:c5:5a:e8:b3:a6:54:c3:b2:f2:
                    95:f9:ff:81:ba:33:05:d1:61:f5:2f:68:0c:ab:e6:
                    52:f5:9a:5a:4b:de:10:d8:fe:01:07:af:8e:03:46:
                    73:fe:e2:ed:e0:fa:36:7c:42:1c:36:8a:dd:9e:e1:
                    56:25:18:38:36:94:d0:d9:ab:f4:40:60:47:d3:39:
                    e8:c3:99:b8:ac:50:6f:9a:b6:bf:0e:22:89:94:0d:
                    58:09:e4:cb:29:68:28:59:15:4c:3c:fa:89:fe:d2:
                    1d:ad
                Exponent: 65537 (0x10001)
        X509v3 extensions:
            X509v3 Basic Constraints: 
                CA:FALSE
            X509v3 Subject Key Identifier: 
                F3:00:9E:1A:7C:D7:52:8D:7B:DF:21:8C:5F:B2:F1:AB:53:AE:06:5B
            X509v3 Authority Key Identifier: 
                keyid:59:F2:70:8E:B6:39:11:92:50:3B:FE:7D:90:04:5E:23:76:AA:7C:74
                DirName:/CN=team6-net
                serial:21:21:C6:43:17:C5:EC:5E:45:6E:32:C6:DC:5A:4C:91:83:27:3E:09

            X509v3 Extended Key Usage: 
                TLS Web Server Authentication
            X509v3 Key Usage: 
                Digital Signature, Key Encipherment
            X509v3 Subject Alternative Name: 
                DNS:team6-server
    Signature Algorithm: sha256WithRSAEncryption
         08:e3:b0:eb:3a:52:ab:42:8c:0c:9d:96:9f:d0:6a:90:e0:61:
         c2:c9:fe:7b:35:0e:00:b9:71:b8:08:29:88:75:4a:c3:13:47:
         8c:bd:8e:1d:08:39:e2:58:22:33:21:af:14:f6:6e:e5:df:ba:
         96:e2:91:cb:26:54:db:1d:10:02:9c:6b:a3:1c:88:82:4a:0f:
         73:3c:b9:3e:ad:3e:63:35:b4:6c:21:26:7f:b4:99:25:00:d4:
         a7:67:3d:19:e7:27:06:56:53:18:99:bf:89:8f:72:46:d7:b2:
         d6:0a:2e:04:cf:96:58:cb:02:d5:6a:f2:41:70:58:4c:73:70:
         25:85:03:20:e5:e5:4a:1a:24:39:23:ae:a8:61:95:c3:68:03:
         40:b6:e4:ae:10:64:a4:7b:63:16:09:58:db:4d:8d:00:bb:ca:
         18:3d:3e:9e:b4:d0:f5:2d:8d:bb:35:00:b4:7b:5c:b4:c5:bb:
         57:8a:3a:3e:c8:35:16:58:4b:e7:7a:85:2e:93:42:c9:ba:6f:
         38:13:86:9b:d5:3a:35:41:bd:03:2d:ae:d6:44:ff:58:74:a2:
         0b:19:d9:32:6b:d5:d8:4d:b9:4f:4b:07:a9:98:fb:36:4a:75:
         44:3c:ab:e7:89:34:34:42:22:6e:87:ca:49:b8:02:59:a3:2c:
         f5:43:f1:ed
-----BEGIN CERTIFICATE-----
MIIDcDCCAligAwIBAgIRANP7IEDFgUmY2Uj/Eagwi+0wDQYJKoZIhvcNAQELBQAw
FDESMBAGA1UEAwwJdGVhbTYtbmV0MB4XDTIyMDUxODEzNTg1MFoXDTI1MDUwMjEz
NTg1MFowFzEVMBMGA1UEAwwMdGVhbTYtc2VydmVyMIIBIjANBgkqhkiG9w0BAQEF
AAOCAQ8AMIIBCgKCAQEAt4NPBTraCSikW4WVyGGHEUA2mZUxaMqCfgertFS1Ss66
crAmTf4azhwt073CA/f321wSnWqThjuIfkUa8vNpSGfBDXZNXwcTA6NlVx/4HLzv
TiQFdo3Tf4Ka2c8qYGjLJAdLAf/8bp51d+ZdLHpJ3RKhNdrhYvHqtD3cP/H5eUGl
iMjTAZG4Zdrvi0IrfDnfb7D5YGsf2Pc5qofFWuizplTDsvKV+f+BujMF0WH1L2gM
q+ZS9ZpaS94Q2P4BB6+OA0Zz/uLt4Po2fEIcNordnuFWJRg4NpTQ2av0QGBH0zno
w5m4rFBvmra/DiKJlA1YCeTLKWgoWRVMPPqJ/tIdrQIDAQABo4G5MIG2MAkGA1Ud
EwQCMAAwHQYDVR0OBBYEFPMAnhp811KNe98hjF+y8atTrgZbME8GA1UdIwRIMEaA
FFnycI62ORGSUDv+fZAEXiN2qnx0oRikFjAUMRIwEAYDVQQDDAl0ZWFtNi1uZXSC
FCEhxkMXxexeRW4yxtxaTJGDJz4JMBMGA1UdJQQMMAoGCCsGAQUFBwMBMAsGA1Ud
DwQEAwIFoDAXBgNVHREEEDAOggx0ZWFtNi1zZXJ2ZXIwDQYJKoZIhvcNAQELBQAD
ggEBAAjjsOs6UqtCjAydlp/QapDgYcLJ/ns1DgC5cbgIKYh1SsMTR4y9jh0IOeJY
IjMhrxT2buXfupbikcsmVNsdEAKca6MciIJKD3M8uT6tPmM1tGwhJn+0mSUA1Kdn
PRnnJwZWUxiZv4mPckbXstYKLgTPlljLAtVq8kFwWExzcCWFAyDl5UoaJDkjrqhh
lcNoA0C25K4QZKR7YxYJWNtNjQC7yhg9Pp600PUtjbs1ALR7XLTFu1eKOj7INRZY
S+d6hS6TQsm6bzgThpvVOjVBvQMtrtZE/1h0ogsZ2TJr1dhNuU9LB6mY+zZKdUQ8
q+eJNDRCIm6Hykm4AlmjLPVD8e0=
-----END CERTIFICATE-----
