Certificate:
    Data:
        Version: 3 (0x2)
        Serial Number:
            f8:30:e0:44:0e:92:3e:ac:91:06:30:fe:ec:7e:ea:1f
        Signature Algorithm: sha256WithRSAEncryption
        Issuer: CN=team73-net
        Validity
            Not Before: May 18 14:30:31 2022 GMT
            Not After : May  2 14:30:31 2025 GMT
        Subject: CN=team73-server
        Subject Public Key Info:
            Public Key Algorithm: rsaEncryption
                RSA Public-Key: (2048 bit)
                Modulus:
                    00:c5:ba:b5:f1:63:b9:65:28:a9:a6:59:29:4e:fa:
                    71:8d:29:37:41:be:41:ba:87:7b:03:7f:9f:6f:89:
                    ab:52:7b:c1:8c:fc:da:2f:b0:5c:eb:2f:39:10:78:
                    a2:5d:21:aa:a4:7d:3a:6b:85:32:c1:2c:38:60:53:
                    63:d2:3b:15:79:72:ee:a1:d6:08:e7:ac:f0:bf:dc:
                    b4:3f:34:7a:24:1b:27:f4:76:30:68:08:8c:0f:87:
                    6d:7a:3c:e1:23:05:e2:a4:72:aa:46:a4:82:0f:63:
                    ea:aa:80:81:48:39:63:c7:ef:68:45:20:8e:8c:d7:
                    0a:cf:53:cf:ec:79:27:72:e9:60:84:6f:27:26:c0:
                    bf:7b:1e:14:d3:25:8f:3e:0a:96:6a:6b:99:44:89:
                    e3:a9:4c:6e:a6:3e:b0:c9:02:fc:4a:b7:96:78:66:
                    a3:86:ba:74:89:89:83:5a:5f:4e:83:be:a4:05:9e:
                    49:88:1a:bf:8f:03:1c:52:dc:54:c7:cf:78:5a:c0:
                    4f:69:42:7b:a8:2f:63:ec:84:30:ae:0d:27:87:7d:
                    67:2e:dd:c2:b8:90:b0:fb:78:5d:42:36:c7:94:8d:
                    cb:99:5b:e4:d6:83:22:db:e8:ce:e9:fc:e8:cc:50:
                    ca:74:58:ef:db:14:85:b7:00:94:70:ca:3c:26:15:
                    65:13
                Exponent: 65537 (0x10001)
        X509v3 extensions:
            X509v3 Basic Constraints: 
                CA:FALSE
            X509v3 Subject Key Identifier: 
                54:64:06:B4:42:C3:01:EC:27:E1:72:9C:64:51:45:9F:55:48:C2:5D
            X509v3 Authority Key Identifier: 
                keyid:74:53:5F:98:5C:EC:6F:D7:2A:E6:C4:BF:02:6B:72:93:AF:DE:34:6D
                DirName:/CN=team73-net
                serial:6E:0A:36:49:F0:01:D5:02:54:A4:43:D3:33:27:96:ED:D3:33:4A:F3

            X509v3 Extended Key Usage: 
                TLS Web Server Authentication
            X509v3 Key Usage: 
                Digital Signature, Key Encipherment
            X509v3 Subject Alternative Name: 
                DNS:team73-server
    Signature Algorithm: sha256WithRSAEncryption
         2c:ab:66:97:92:a8:f9:5c:b5:13:70:32:3b:17:a8:ad:cd:0e:
         da:5e:8d:6c:7a:56:f1:cd:fb:89:73:cf:b0:2d:d4:11:d7:a4:
         9a:6f:5d:e0:ab:06:3f:28:b8:fb:bc:88:1d:39:cc:80:35:4d:
         c7:b1:31:ba:3c:50:89:3c:35:22:f8:f3:e0:db:5a:dd:aa:27:
         26:c3:05:1e:da:24:67:0b:a5:a6:89:43:3f:9c:c2:85:b0:49:
         c7:94:29:e0:61:76:37:b9:ba:e8:3b:8f:88:08:f2:0e:2a:0d:
         bd:39:5d:39:34:0d:91:81:a1:77:21:55:7e:91:6f:ca:dc:e9:
         c0:af:a9:76:6c:2c:3c:ab:4e:8b:e3:25:2b:67:6f:99:09:8d:
         3e:c2:ec:be:2c:32:01:a7:20:10:f6:fe:aa:c9:23:37:59:33:
         e2:ce:b6:bd:89:37:14:3c:fa:fa:24:65:d5:8e:6b:16:05:a7:
         8f:8d:8d:fc:8c:3c:3e:72:2b:c7:f8:27:a1:3b:4e:ed:e0:69:
         17:66:de:e2:10:04:1a:5a:c9:f5:68:4d:96:c2:9b:7f:e9:ca:
         b6:6c:41:65:02:67:27:12:a7:a4:ec:51:40:cf:ae:f1:ab:7e:
         49:cc:cd:63:76:02:b6:3f:ee:2b:b0:e8:4d:26:89:1f:9e:74:
         67:28:16:de
-----BEGIN CERTIFICATE-----
MIIDdDCCAlygAwIBAgIRAPgw4EQOkj6skQYw/ux+6h8wDQYJKoZIhvcNAQELBQAw
FTETMBEGA1UEAwwKdGVhbTczLW5ldDAeFw0yMjA1MTgxNDMwMzFaFw0yNTA1MDIx
NDMwMzFaMBgxFjAUBgNVBAMMDXRlYW03My1zZXJ2ZXIwggEiMA0GCSqGSIb3DQEB
AQUAA4IBDwAwggEKAoIBAQDFurXxY7llKKmmWSlO+nGNKTdBvkG6h3sDf59viatS
e8GM/NovsFzrLzkQeKJdIaqkfTprhTLBLDhgU2PSOxV5cu6h1gjnrPC/3LQ/NHok
Gyf0djBoCIwPh216POEjBeKkcqpGpIIPY+qqgIFIOWPH72hFII6M1wrPU8/seSdy
6WCEbycmwL97HhTTJY8+CpZqa5lEieOpTG6mPrDJAvxKt5Z4ZqOGunSJiYNaX06D
vqQFnkmIGr+PAxxS3FTHz3hawE9pQnuoL2PshDCuDSeHfWcu3cK4kLD7eF1CNseU
jcuZW+TWgyLb6M7p/OjMUMp0WO/bFIW3AJRwyjwmFWUTAgMBAAGjgbswgbgwCQYD
VR0TBAIwADAdBgNVHQ4EFgQUVGQGtELDAewn4XKcZFFFn1VIwl0wUAYDVR0jBEkw
R4AUdFNfmFzsb9cq5sS/Amtyk6/eNG2hGaQXMBUxEzARBgNVBAMMCnRlYW03My1u
ZXSCFG4KNknwAdUCVKRD0zMnlu3TM0rzMBMGA1UdJQQMMAoGCCsGAQUFBwMBMAsG
A1UdDwQEAwIFoDAYBgNVHREEETAPgg10ZWFtNzMtc2VydmVyMA0GCSqGSIb3DQEB
CwUAA4IBAQAsq2aXkqj5XLUTcDI7F6itzQ7aXo1selbxzfuJc8+wLdQR16Sab13g
qwY/KLj7vIgdOcyANU3HsTG6PFCJPDUi+PPg21rdqicmwwUe2iRnC6WmiUM/nMKF
sEnHlCngYXY3ubroO4+ICPIOKg29OV05NA2RgaF3IVV+kW/K3OnAr6l2bCw8q06L
4yUrZ2+ZCY0+wuy+LDIBpyAQ9v6qySM3WTPizra9iTcUPPr6JGXVjmsWBaePjY38
jDw+civH+CehO07t4GkXZt7iEAQaWsn1aE2Wwpt/6cq2bEFlAmcnEqek7FFAz67x
q35JzM1jdgK2P+4rsOhNJokfnnRnKBbe
-----END CERTIFICATE-----
