Certificate:
    Data:
        Version: 3 (0x2)
        Serial Number:
            19:95:af:64:a1:e1:1e:82:47:53:1b:79:ab:86:8d:fb
        Signature Algorithm: sha256WithRSAEncryption
        Issuer: CN=team737-net
        Validity
            Not Before: May 18 23:58:19 2022 GMT
            Not After : May  2 23:58:19 2025 GMT
        Subject: CN=team737-server
        Subject Public Key Info:
            Public Key Algorithm: rsaEncryption
                RSA Public-Key: (2048 bit)
                Modulus:
                    00:c1:c4:08:c6:ea:da:ea:54:f7:8a:b5:3f:6b:b2:
                    2d:bf:94:18:21:17:7b:cf:01:16:76:30:00:bf:7e:
                    46:70:69:31:9f:3c:e8:ac:6c:de:1b:78:a7:2f:de:
                    29:ab:21:9f:39:db:98:a2:fd:4f:46:7c:52:e3:de:
                    81:a9:8b:6f:9f:52:84:41:00:9e:c7:38:8c:53:53:
                    d1:cd:e6:b7:06:03:6d:70:9a:80:00:43:c5:7a:0b:
                    ca:e4:75:ee:4b:fa:e3:94:ca:ab:67:c1:e7:15:8c:
                    a7:9f:0a:41:84:42:a4:ad:fa:90:de:43:c7:30:d6:
                    ac:ef:9f:4c:86:c6:f3:c7:43:98:17:04:b2:14:a3:
                    29:4c:77:fd:9c:91:44:ee:89:94:a5:51:0e:de:c4:
                    1f:49:0d:a3:00:66:6b:8f:80:2d:6d:16:23:a4:a4:
                    2d:e8:5e:fc:f3:22:b1:ca:54:61:7e:19:ea:d1:8c:
                    46:4e:fe:de:ab:72:02:3a:55:44:b9:75:c0:10:c1:
                    40:ca:be:8d:c2:8b:4b:f8:db:f9:df:22:9e:69:b4:
                    5d:bd:e0:fb:e4:45:8c:00:e8:db:29:c2:b2:83:bd:
                    f7:d3:4b:c2:db:fa:ca:33:d5:f8:bc:f7:6a:22:a7:
                    4c:02:5d:17:b2:34:b3:84:ec:a2:37:a1:43:db:01:
                    6c:d3
                Exponent: 65537 (0x10001)
        X509v3 extensions:
            X509v3 Basic Constraints: 
                CA:FALSE
            X509v3 Subject Key Identifier: 
                40:CF:0C:59:BD:BC:30:86:69:0B:B5:B6:EE:DC:92:B6:5A:09:9B:72
            X509v3 Authority Key Identifier: 
                keyid:B3:10:19:24:C3:6E:63:8F:E3:F3:A2:EB:8B:A9:0B:79:56:5F:5D:E6
                DirName:/CN=team737-net
                serial:15:6A:1E:B2:BD:CE:8B:0B:61:5C:CC:1C:77:05:B5:43:3C:4F:3D:7C

            X509v3 Extended Key Usage: 
                TLS Web Server Authentication
            X509v3 Key Usage: 
                Digital Signature, Key Encipherment
            X509v3 Subject Alternative Name: 
                DNS:team737-server
    Signature Algorithm: sha256WithRSAEncryption
         35:05:13:98:d2:62:a6:76:00:4c:8c:70:14:ce:dd:e2:6f:12:
         2a:8b:38:6e:5c:76:f8:a0:b0:0d:ab:4b:9e:74:ba:45:d9:2f:
         a1:28:a4:a2:a8:74:a0:be:34:5d:f8:5c:e0:6d:52:2f:52:a0:
         c5:7f:74:0c:88:75:09:2a:6b:65:45:25:a0:e7:5a:8d:37:7a:
         97:77:b3:fa:1f:0c:5f:cd:54:ab:c2:b4:62:a0:27:bd:b1:34:
         b5:a5:41:20:50:c9:08:de:73:40:47:08:dd:63:27:86:fe:5e:
         b9:6c:44:0a:96:e5:c1:b6:c2:e4:92:68:b6:88:55:64:38:0a:
         59:2c:d0:d2:64:02:e6:26:6f:f9:ca:04:61:a4:49:88:6c:40:
         fc:e2:05:a8:81:55:74:33:d9:52:43:e6:b4:27:fc:89:16:13:
         4c:ef:36:81:a5:f9:5d:85:53:d5:5f:57:3a:9f:7f:eb:93:a6:
         77:06:f0:54:89:43:3f:19:4f:56:7d:2c:46:25:80:34:ad:c9:
         23:23:1c:e5:fb:a7:57:c0:23:ff:cd:c3:1d:42:3a:71:28:d6:
         3b:67:5a:ab:94:22:67:1b:20:c8:25:36:9b:36:5f:4b:2a:88:
         ce:93:53:13:5a:96:f0:c4:fb:0c:69:9d:23:a9:fe:70:80:46:
         fa:23:b8:31
-----BEGIN CERTIFICATE-----
MIIDdzCCAl+gAwIBAgIQGZWvZKHhHoJHUxt5q4aN+zANBgkqhkiG9w0BAQsFADAW
MRQwEgYDVQQDDAt0ZWFtNzM3LW5ldDAeFw0yMjA1MTgyMzU4MTlaFw0yNTA1MDIy
MzU4MTlaMBkxFzAVBgNVBAMMDnRlYW03Mzctc2VydmVyMIIBIjANBgkqhkiG9w0B
AQEFAAOCAQ8AMIIBCgKCAQEAwcQIxura6lT3irU/a7Itv5QYIRd7zwEWdjAAv35G
cGkxnzzorGzeG3inL94pqyGfOduYov1PRnxS496BqYtvn1KEQQCexziMU1PRzea3
BgNtcJqAAEPFegvK5HXuS/rjlMqrZ8HnFYynnwpBhEKkrfqQ3kPHMNas759Mhsbz
x0OYFwSyFKMpTHf9nJFE7omUpVEO3sQfSQ2jAGZrj4AtbRYjpKQt6F788yKxylRh
fhnq0YxGTv7eq3ICOlVEuXXAEMFAyr6NwotL+Nv53yKeabRdveD75EWMAOjbKcKy
g73300vC2/rKM9X4vPdqIqdMAl0XsjSzhOyiN6FD2wFs0wIDAQABo4G9MIG6MAkG
A1UdEwQCMAAwHQYDVR0OBBYEFEDPDFm9vDCGaQu1tu7ckrZaCZtyMFEGA1UdIwRK
MEiAFLMQGSTDbmOP4/Oi64upC3lWX13moRqkGDAWMRQwEgYDVQQDDAt0ZWFtNzM3
LW5ldIIUFWoesr3OiwthXMwcdwW1QzxPPXwwEwYDVR0lBAwwCgYIKwYBBQUHAwEw
CwYDVR0PBAQDAgWgMBkGA1UdEQQSMBCCDnRlYW03Mzctc2VydmVyMA0GCSqGSIb3
DQEBCwUAA4IBAQA1BROY0mKmdgBMjHAUzt3ibxIqizhuXHb4oLANq0uedLpF2S+h
KKSiqHSgvjRd+FzgbVIvUqDFf3QMiHUJKmtlRSWg51qNN3qXd7P6HwxfzVSrwrRi
oCe9sTS1pUEgUMkI3nNARwjdYyeG/l65bEQKluXBtsLkkmi2iFVkOApZLNDSZALm
Jm/5ygRhpEmIbED84gWogVV0M9lSQ+a0J/yJFhNM7zaBpfldhVPVX1c6n3/rk6Z3
BvBUiUM/GU9WfSxGJYA0rckjIxzl+6dXwCP/zcMdQjpxKNY7Z1qrlCJnGyDIJTab
Nl9LKojOk1MTWpbwxPsMaZ0jqf5wgEb6I7gx
-----END CERTIFICATE-----
