Certificate:
    Data:
        Version: 3 (0x2)
        Serial Number:
            3b:df:fe:aa:55:72:fd:df:07:29:90:cc:b2:4d:c8:29
        Signature Algorithm: sha256WithRSAEncryption
        Issuer: CN=team388-net
        Validity
            Not Before: May 18 20:45:19 2022 GMT
            Not After : May  2 20:45:19 2025 GMT
        Subject: CN=team388-client
        Subject Public Key Info:
            Public Key Algorithm: rsaEncryption
                RSA Public-Key: (2048 bit)
                Modulus:
                    00:b5:b6:94:e9:62:d9:3c:7c:a7:87:c6:f9:c8:77:
                    cb:5b:f2:c1:68:40:2a:3a:ca:34:d5:5f:3b:dc:1d:
                    df:ef:7a:ea:98:9d:2b:7a:b2:57:b4:47:2c:7e:5b:
                    a5:9a:7c:c1:8a:15:f8:47:4c:8d:20:f3:1e:1b:49:
                    2a:d8:b5:84:c0:f4:b5:07:c2:bd:31:d3:e3:4a:59:
                    df:61:b6:49:54:67:42:19:9e:cb:19:19:1c:84:fe:
                    07:db:b2:25:a1:b9:3d:12:72:be:80:14:4e:fb:d7:
                    21:e9:c2:bd:99:5d:fd:29:86:43:83:18:e0:e3:77:
                    a6:11:93:05:ff:72:31:62:14:63:62:3e:62:67:14:
                    4c:df:7a:c7:86:8f:12:fc:a4:e7:73:06:84:74:d5:
                    c8:09:b5:1f:90:00:c5:c1:f2:cf:0e:f5:94:6c:15:
                    45:bb:ac:1b:49:06:a9:f8:46:0b:de:b9:c6:92:47:
                    60:e7:e8:f9:39:6c:92:dc:01:46:80:ae:8b:a1:f8:
                    22:82:93:5d:b2:c7:f5:03:96:2f:22:49:7c:09:82:
                    c1:7e:46:1d:d8:f4:80:af:49:99:e5:c1:09:92:12:
                    9a:d2:c5:98:85:2e:5d:37:d4:bc:1d:46:7c:d1:96:
                    1c:02:3f:65:ac:6e:f9:a6:5b:ce:db:1e:e3:66:a0:
                    a0:3d
                Exponent: 65537 (0x10001)
        X509v3 extensions:
            X509v3 Basic Constraints: 
                CA:FALSE
            X509v3 Subject Key Identifier: 
                C4:58:B1:EF:9F:2E:4F:CD:0A:A4:4E:6E:D0:DE:E4:21:C2:79:E2:D4
            X509v3 Authority Key Identifier: 
                keyid:68:71:B6:BE:44:00:73:3D:9D:9D:28:A1:F3:AA:E6:03:D2:2B:10:A2
                DirName:/CN=team388-net
                serial:29:35:C6:DA:44:EA:C6:11:0D:FE:AB:ED:A8:01:2C:F2:67:82:C8:16

            X509v3 Extended Key Usage: 
                TLS Web Client Authentication
            X509v3 Key Usage: 
                Digital Signature
    Signature Algorithm: sha256WithRSAEncryption
         60:55:84:24:fa:6e:07:22:42:9c:52:79:b5:2d:bb:34:23:65:
         a8:54:16:a2:59:59:02:1f:d7:ee:17:1e:f8:b2:3a:b3:89:d2:
         f9:c0:67:6c:f3:82:77:99:71:1e:9a:00:7e:4b:c4:13:76:37:
         64:51:6b:d6:76:fd:b8:2f:14:26:93:7c:9a:c5:2f:58:3c:c4:
         82:2b:77:86:9b:c8:8d:be:5c:5a:23:61:23:5c:3e:39:c9:2e:
         6c:d1:6a:ef:a2:4f:c2:c5:cc:50:26:d9:3c:6e:2f:2a:67:80:
         90:b6:33:b4:54:10:59:cd:64:b9:9e:95:38:a7:fc:6b:b6:eb:
         b2:a5:f3:84:0a:77:0e:9d:fb:16:07:1d:35:f6:2b:d5:85:c7:
         3f:b6:6b:bd:b4:42:67:dc:23:2b:4d:b5:5b:0d:fb:b8:ca:81:
         6e:52:97:36:12:01:40:6e:fd:27:87:94:5e:b7:dd:ae:ed:bf:
         f9:bc:94:1c:1f:e7:f5:fa:1c:c8:68:2d:71:a5:54:98:e2:0d:
         e9:03:a7:6b:e7:9a:27:b2:76:c5:dc:97:80:ee:75:44:84:56:
         d8:34:5c:11:68:e4:24:17:17:74:62:dd:60:df:e7:2c:a0:e6:
         e4:00:54:61:2f:29:f7:6c:e2:d9:e5:90:51:66:7e:e3:80:6a:
         c1:97:b3:6c
-----BEGIN CERTIFICATE-----
MIIDXDCCAkSgAwIBAgIQO9/+qlVy/d8HKZDMsk3IKTANBgkqhkiG9w0BAQsFADAW
MRQwEgYDVQQDDAt0ZWFtMzg4LW5ldDAeFw0yMjA1MTgyMDQ1MTlaFw0yNTA1MDIy
MDQ1MTlaMBkxFzAVBgNVBAMMDnRlYW0zODgtY2xpZW50MIIBIjANBgkqhkiG9w0B
AQEFAAOCAQ8AMIIBCgKCAQEAtbaU6WLZPHynh8b5yHfLW/LBaEAqOso01V873B3f
73rqmJ0rerJXtEcsflulmnzBihX4R0yNIPMeG0kq2LWEwPS1B8K9MdPjSlnfYbZJ
VGdCGZ7LGRkchP4H27Ilobk9EnK+gBRO+9ch6cK9mV39KYZDgxjg43emEZMF/3Ix
YhRjYj5iZxRM33rHho8S/KTncwaEdNXICbUfkADFwfLPDvWUbBVFu6wbSQap+EYL
3rnGkkdg5+j5OWyS3AFGgK6LofgigpNdssf1A5YvIkl8CYLBfkYd2PSAr0mZ5cEJ
khKa0sWYhS5dN9S8HUZ80ZYcAj9lrG75plvO2x7jZqCgPQIDAQABo4GiMIGfMAkG
A1UdEwQCMAAwHQYDVR0OBBYEFMRYse+fLk/NCqRObtDe5CHCeeLUMFEGA1UdIwRK
MEiAFGhxtr5EAHM9nZ0oofOq5gPSKxCioRqkGDAWMRQwEgYDVQQDDAt0ZWFtMzg4
LW5ldIIUKTXG2kTqxhEN/qvtqAEs8meCyBYwEwYDVR0lBAwwCgYIKwYBBQUHAwIw
CwYDVR0PBAQDAgeAMA0GCSqGSIb3DQEBCwUAA4IBAQBgVYQk+m4HIkKcUnm1Lbs0
I2WoVBaiWVkCH9fuFx74sjqzidL5wGds84J3mXEemgB+S8QTdjdkUWvWdv24LxQm
k3yaxS9YPMSCK3eGm8iNvlxaI2EjXD45yS5s0Wrvok/CxcxQJtk8bi8qZ4CQtjO0
VBBZzWS5npU4p/xrtuuypfOECncOnfsWBx019ivVhcc/tmu9tEJn3CMrTbVbDfu4
yoFuUpc2EgFAbv0nh5Ret92u7b/5vJQcH+f1+hzIaC1xpVSY4g3pA6dr55onsnbF
3JeA7nVEhFbYNFwRaOQkFxd0Yt1g3+csoObkAFRhLyn3bOLZ5ZBRZn7jgGrBl7Ns
-----END CERTIFICATE-----
