Certificate:
    Data:
        Version: 3 (0x2)
        Serial Number:
            14:9c:fb:6b:55:a1:98:3e:3b:e3:71:d8:fa:db:5f:c5
        Signature Algorithm: sha256WithRSAEncryption
        Issuer: CN=team496-net
        Validity
            Not Before: May 18 21:39:40 2022 GMT
            Not After : May  2 21:39:40 2025 GMT
        Subject: CN=team496-server
        Subject Public Key Info:
            Public Key Algorithm: rsaEncryption
                RSA Public-Key: (2048 bit)
                Modulus:
                    00:cf:6e:f0:dd:d6:53:2d:3e:14:ab:36:72:f8:42:
                    49:f2:31:2b:82:2e:06:7a:ef:de:9b:01:ae:ff:98:
                    c5:e0:d0:e8:14:a7:f7:b7:c4:7a:5a:b5:62:76:c1:
                    43:35:97:f8:1d:46:53:eb:d2:e3:b3:b4:f0:0c:19:
                    7c:94:66:30:ba:b1:d5:ce:91:96:70:dd:cf:59:ee:
                    41:87:19:50:77:91:f2:43:c8:05:30:2a:5b:a6:94:
                    c8:33:f8:aa:60:ee:62:28:df:64:d7:48:7d:fe:70:
                    80:fe:c9:db:89:b8:8b:c9:e5:bf:be:94:32:db:50:
                    ee:5f:93:ae:ef:d1:11:21:95:6a:e8:73:a0:17:f0:
                    72:5f:23:3d:fc:42:f4:e0:e6:51:a4:b4:ad:e6:5f:
                    e6:8d:59:7d:aa:5e:42:47:20:aa:37:03:1e:37:e3:
                    55:46:52:c2:87:f3:1e:76:83:6d:f2:f1:28:27:80:
                    d8:1d:3c:4e:69:d1:bb:29:4c:07:bc:18:08:67:a5:
                    07:08:70:37:8e:c6:b4:46:07:19:db:36:31:2a:06:
                    8c:d2:35:21:89:00:3c:34:0e:44:61:3f:53:dd:ea:
                    4f:bf:4a:c3:84:40:ef:61:6c:4a:fc:b1:cd:74:d5:
                    69:f7:16:7b:cb:e2:42:b2:40:ee:16:7b:37:4a:d9:
                    74:91
                Exponent: 65537 (0x10001)
        X509v3 extensions:
            X509v3 Basic Constraints: 
                CA:FALSE
            X509v3 Subject Key Identifier: 
                62:62:D6:00:DC:00:3D:78:BA:24:5E:EF:B0:25:1E:53:12:62:B4:79
            X509v3 Authority Key Identifier: 
                keyid:07:06:8A:D4:29:D3:79:9B:E4:92:BA:52:7F:E8:F9:1B:FA:6F:9E:A8
                DirName:/CN=team496-net
                serial:7D:30:BD:DE:CC:9C:A5:41:16:85:17:D0:C4:35:43:30:DC:8A:26:85

            X509v3 Extended Key Usage: 
                TLS Web Server Authentication
            X509v3 Key Usage: 
                Digital Signature, Key Encipherment
            X509v3 Subject Alternative Name: 
                DNS:team496-server
    Signature Algorithm: sha256WithRSAEncryption
         71:3f:db:b0:e9:f0:1a:ee:c0:2d:fa:cc:bf:87:d4:71:0c:0a:
         f9:31:e6:5e:47:6a:53:5c:09:09:7d:12:4d:c2:31:ed:df:f8:
         31:84:43:9b:52:ae:bc:df:96:02:c1:81:6a:59:9f:15:44:fe:
         8b:c3:02:39:0f:22:cc:43:09:fe:b8:52:25:14:57:99:ec:9b:
         35:54:e7:af:75:01:1e:ac:0f:3a:77:00:06:0f:dc:19:9a:fe:
         bc:38:94:76:b0:23:35:6d:fa:48:50:7b:6d:ae:ab:36:c7:bc:
         1a:47:35:6a:4c:12:79:9a:ca:15:12:97:db:aa:a2:48:9a:66:
         af:b6:57:12:46:a4:91:fe:4e:81:5b:d3:c6:a1:9b:3c:12:93:
         7e:2c:e6:80:39:58:92:4b:42:7b:be:1a:c3:61:9a:55:b0:2b:
         19:98:b0:83:b5:08:dd:e6:61:85:f8:56:8f:63:ed:5f:78:81:
         8e:19:af:23:72:d1:0d:77:3f:77:b5:50:1e:0b:a9:ca:0c:77:
         eb:38:33:29:78:d4:2a:7a:4c:53:2c:56:6f:7f:b6:dc:6a:7e:
         a1:a1:ac:6b:ac:2a:ce:d6:41:c8:0b:e5:d1:32:f8:79:2c:ff:
         aa:1b:9e:48:5d:05:4a:7d:5a:f7:7c:3e:05:79:1c:d3:db:35:
         e8:62:27:49
-----BEGIN CERTIFICATE-----
MIIDdzCCAl+gAwIBAgIQFJz7a1WhmD4743HY+ttfxTANBgkqhkiG9w0BAQsFADAW
MRQwEgYDVQQDDAt0ZWFtNDk2LW5ldDAeFw0yMjA1MTgyMTM5NDBaFw0yNTA1MDIy
MTM5NDBaMBkxFzAVBgNVBAMMDnRlYW00OTYtc2VydmVyMIIBIjANBgkqhkiG9w0B
AQEFAAOCAQ8AMIIBCgKCAQEAz27w3dZTLT4UqzZy+EJJ8jErgi4Geu/emwGu/5jF
4NDoFKf3t8R6WrVidsFDNZf4HUZT69Ljs7TwDBl8lGYwurHVzpGWcN3PWe5BhxlQ
d5HyQ8gFMCpbppTIM/iqYO5iKN9k10h9/nCA/snbibiLyeW/vpQy21DuX5Ou79ER
IZVq6HOgF/ByXyM9/EL04OZRpLSt5l/mjVl9ql5CRyCqNwMeN+NVRlLCh/MedoNt
8vEoJ4DYHTxOadG7KUwHvBgIZ6UHCHA3jsa0RgcZ2zYxKgaM0jUhiQA8NA5EYT9T
3epPv0rDhEDvYWxK/LHNdNVp9xZ7y+JCskDuFns3Stl0kQIDAQABo4G9MIG6MAkG
A1UdEwQCMAAwHQYDVR0OBBYEFGJi1gDcAD14uiRe77AlHlMSYrR5MFEGA1UdIwRK
MEiAFAcGitQp03mb5JK6Un/o+Rv6b56ooRqkGDAWMRQwEgYDVQQDDAt0ZWFtNDk2
LW5ldIIUfTC93sycpUEWhRfQxDVDMNyKJoUwEwYDVR0lBAwwCgYIKwYBBQUHAwEw
CwYDVR0PBAQDAgWgMBkGA1UdEQQSMBCCDnRlYW00OTYtc2VydmVyMA0GCSqGSIb3
DQEBCwUAA4IBAQBxP9uw6fAa7sAt+sy/h9RxDAr5MeZeR2pTXAkJfRJNwjHt3/gx
hEObUq6835YCwYFqWZ8VRP6LwwI5DyLMQwn+uFIlFFeZ7Js1VOevdQEerA86dwAG
D9wZmv68OJR2sCM1bfpIUHttrqs2x7waRzVqTBJ5msoVEpfbqqJImmavtlcSRqSR
/k6BW9PGoZs8EpN+LOaAOViSS0J7vhrDYZpVsCsZmLCDtQjd5mGF+FaPY+1feIGO
Ga8jctENdz93tVAeC6nKDHfrODMpeNQqekxTLFZvf7bcan6hoaxrrCrO1kHIC+XR
Mvh5LP+qG55IXQVKfVr3fD4FeRzT2zXoYidJ
-----END CERTIFICATE-----
