Certificate:
    Data:
        Version: 3 (0x2)
        Serial Number:
            77:8a:2e:a3:9a:e0:58:19:56:f0:06:45:d7:ed:47:94
        Signature Algorithm: sha256WithRSAEncryption
        Issuer: CN=team496-net
        Validity
            Not Before: May 18 21:39:40 2022 GMT
            Not After : May  2 21:39:40 2025 GMT
        Subject: CN=team496-client
        Subject Public Key Info:
            Public Key Algorithm: rsaEncryption
                RSA Public-Key: (2048 bit)
                Modulus:
                    00:e6:36:e7:5f:58:ae:ad:6d:2e:d6:e2:89:cf:7e:
                    8e:3f:0f:83:e3:a1:29:5b:cb:a9:72:8f:ca:5e:53:
                    7a:c7:0a:71:d0:35:d7:2b:7f:f8:a4:70:1c:80:ba:
                    10:61:2c:da:96:1b:4a:10:45:32:c6:be:55:50:45:
                    fb:ff:0a:a4:fd:36:b5:ec:de:16:35:69:ba:b2:a5:
                    ae:32:e1:50:da:22:a8:8b:7e:16:a9:9f:08:cb:88:
                    d1:dd:19:31:7e:01:9b:01:65:8f:f3:b6:0c:2c:44:
                    39:d1:c8:94:d3:48:d3:c3:35:b0:5b:95:90:a5:3f:
                    55:36:e6:9e:a0:fc:53:c3:26:23:2e:18:42:53:5d:
                    54:2d:b5:e0:62:3b:29:df:2a:69:15:c9:04:12:a9:
                    89:dc:8a:c7:d5:70:6f:c0:f1:48:8c:33:44:a8:37:
                    7a:1d:7b:6e:db:63:6d:dd:e3:cb:1a:39:c7:fd:4d:
                    46:9c:88:f2:a2:67:89:5d:ee:ef:e0:55:8e:ae:66:
                    11:65:73:91:65:36:2c:95:03:18:6c:07:09:57:a6:
                    d0:e7:63:0a:4f:67:19:43:df:00:b0:43:d9:46:a4:
                    d9:39:a7:f0:60:37:0b:7d:00:7a:84:97:97:e2:a1:
                    1e:11:ae:3c:32:92:a0:1c:43:c9:36:60:a1:4f:4e:
                    e8:59
                Exponent: 65537 (0x10001)
        X509v3 extensions:
            X509v3 Basic Constraints: 
                CA:FALSE
            X509v3 Subject Key Identifier: 
                F3:05:2F:08:7E:F2:4C:8F:41:78:CD:26:24:01:85:DC:F6:F2:93:5B
            X509v3 Authority Key Identifier: 
                keyid:07:06:8A:D4:29:D3:79:9B:E4:92:BA:52:7F:E8:F9:1B:FA:6F:9E:A8
                DirName:/CN=team496-net
                serial:7D:30:BD:DE:CC:9C:A5:41:16:85:17:D0:C4:35:43:30:DC:8A:26:85

            X509v3 Extended Key Usage: 
                TLS Web Client Authentication
            X509v3 Key Usage: 
                Digital Signature
    Signature Algorithm: sha256WithRSAEncryption
         75:ad:93:10:38:85:e9:62:f6:9b:30:6d:b7:45:e7:47:85:1c:
         75:4f:ba:0f:b3:0e:df:43:a4:99:62:23:a0:39:28:b6:41:dd:
         71:85:18:09:21:99:ee:44:34:d8:32:c9:61:3a:b4:fb:95:1d:
         9f:bf:37:a4:d9:84:43:53:4a:6b:c5:42:15:5d:e3:a9:5b:d5:
         e3:d3:53:44:5f:b1:35:23:4b:68:e7:8e:08:e9:2d:7d:8a:6d:
         1c:9c:91:46:35:40:75:ff:44:b4:a0:6f:01:e0:fa:db:9f:83:
         c9:5a:66:32:d0:3f:f8:fc:f1:14:5b:32:b7:2f:2b:46:32:ee:
         a0:4a:e8:ac:fa:03:ec:de:d8:f8:30:38:4f:1c:68:ca:eb:7a:
         ae:ef:91:f6:a2:1a:94:c9:0b:fe:f2:fd:4c:23:44:c3:9e:92:
         b1:10:2c:c2:48:dd:ef:ef:0e:f9:7f:19:42:78:b9:1a:5d:28:
         db:2a:ac:b0:49:46:5f:3a:d4:29:06:ed:67:12:03:cb:3f:d5:
         2c:ae:28:64:f4:22:a1:e0:5b:8f:49:4a:70:c7:98:5d:a2:9b:
         c5:a4:46:00:ee:a5:26:a3:22:c6:48:74:72:3f:e8:16:32:35:
         de:a8:b2:47:ae:63:c5:8d:63:7a:c4:eb:fb:8b:15:4a:1e:75:
         46:cf:ce:a0
-----BEGIN CERTIFICATE-----
MIIDXDCCAkSgAwIBAgIQd4ouo5rgWBlW8AZF1+1HlDANBgkqhkiG9w0BAQsFADAW
MRQwEgYDVQQDDAt0ZWFtNDk2LW5ldDAeFw0yMjA1MTgyMTM5NDBaFw0yNTA1MDIy
MTM5NDBaMBkxFzAVBgNVBAMMDnRlYW00OTYtY2xpZW50MIIBIjANBgkqhkiG9w0B
AQEFAAOCAQ8AMIIBCgKCAQEA5jbnX1iurW0u1uKJz36OPw+D46EpW8upco/KXlN6
xwpx0DXXK3/4pHAcgLoQYSzalhtKEEUyxr5VUEX7/wqk/Ta17N4WNWm6sqWuMuFQ
2iKoi34WqZ8Iy4jR3RkxfgGbAWWP87YMLEQ50ciU00jTwzWwW5WQpT9VNuaeoPxT
wyYjLhhCU11ULbXgYjsp3yppFckEEqmJ3IrH1XBvwPFIjDNEqDd6HXtu22Nt3ePL
GjnH/U1GnIjyomeJXe7v4FWOrmYRZXORZTYslQMYbAcJV6bQ52MKT2cZQ98AsEPZ
RqTZOafwYDcLfQB6hJeX4qEeEa48MpKgHEPJNmChT07oWQIDAQABo4GiMIGfMAkG
A1UdEwQCMAAwHQYDVR0OBBYEFPMFLwh+8kyPQXjNJiQBhdz28pNbMFEGA1UdIwRK
MEiAFAcGitQp03mb5JK6Un/o+Rv6b56ooRqkGDAWMRQwEgYDVQQDDAt0ZWFtNDk2
LW5ldIIUfTC93sycpUEWhRfQxDVDMNyKJoUwEwYDVR0lBAwwCgYIKwYBBQUHAwIw
CwYDVR0PBAQDAgeAMA0GCSqGSIb3DQEBCwUAA4IBAQB1rZMQOIXpYvabMG23RedH
hRx1T7oPsw7fQ6SZYiOgOSi2Qd1xhRgJIZnuRDTYMslhOrT7lR2fvzek2YRDU0pr
xUIVXeOpW9Xj01NEX7E1I0to544I6S19im0cnJFGNUB1/0S0oG8B4Prbn4PJWmYy
0D/4/PEUWzK3LytGMu6gSuis+gPs3tj4MDhPHGjK63qu75H2ohqUyQv+8v1MI0TD
npKxECzCSN3v7w75fxlCeLkaXSjbKqywSUZfOtQpBu1nEgPLP9Usrihk9CKh4FuP
SUpwx5hdopvFpEYA7qUmoyLGSHRyP+gWMjXeqLJHrmPFjWN6xOv7ixVKHnVGz86g
-----END CERTIFICATE-----
