Certificate:
    Data:
        Version: 3 (0x2)
        Serial Number:
            ea:95:ad:ea:ef:94:46:65:a5:48:79:28:66:1a:87:0a
        Signature Algorithm: sha256WithRSAEncryption
        Issuer: CN=team706-net
        Validity
            Not Before: May 18 23:35:06 2022 GMT
            Not After : May  2 23:35:06 2025 GMT
        Subject: CN=team706-client
        Subject Public Key Info:
            Public Key Algorithm: rsaEncryption
                RSA Public-Key: (2048 bit)
                Modulus:
                    00:9e:a2:9c:6a:1b:a0:18:9b:ca:28:b3:98:64:e1:
                    b7:c5:36:c7:15:9b:ed:96:03:af:0e:f5:cb:25:c9:
                    93:39:70:d7:74:68:4e:42:d7:c8:4e:0c:ef:3f:36:
                    f6:25:1d:b2:77:26:f5:1a:e7:e5:91:29:41:4b:a9:
                    00:35:bd:e2:38:a4:72:5a:47:80:27:2b:db:f1:0b:
                    68:67:59:8e:69:43:81:69:5b:18:dd:f4:96:3c:45:
                    56:0b:5f:4e:19:51:25:de:ca:fe:bf:2c:24:a6:2d:
                    1e:32:92:f9:98:46:62:29:f5:af:23:3b:ff:c1:02:
                    49:7f:3f:6f:c3:5d:e0:49:3b:7b:82:88:f6:ca:28:
                    ee:2a:42:a3:f6:b4:ad:d5:9a:5e:71:da:19:d3:43:
                    a4:33:f4:25:ed:ca:f8:0c:0e:f3:f0:6a:d2:40:7a:
                    29:bd:7e:98:47:44:ac:0b:70:4e:c6:83:ac:88:21:
                    e5:98:1a:8a:7a:5c:b1:27:dd:66:0d:2c:5f:1d:04:
                    29:48:fb:43:6c:85:fb:56:b2:16:d0:1d:24:58:cc:
                    ef:1a:ce:4b:86:4a:3d:08:b1:ce:62:f2:27:11:49:
                    f7:7b:f9:4f:c8:66:e6:ec:b7:0c:df:4d:31:f5:6c:
                    82:15:45:db:ca:45:a1:fa:94:f6:e0:a8:d9:fc:44:
                    87:09
                Exponent: 65537 (0x10001)
        X509v3 extensions:
            X509v3 Basic Constraints: 
                CA:FALSE
            X509v3 Subject Key Identifier: 
                EA:67:0A:E7:23:48:53:A1:0F:96:EB:88:0E:41:AB:85:D0:5A:57:DB
            X509v3 Authority Key Identifier: 
                keyid:C0:61:A1:A5:08:15:75:E5:F8:AA:61:FE:9D:F8:23:46:F8:20:D0:3F
                DirName:/CN=team706-net
                serial:44:53:BA:C4:79:62:46:2D:E9:65:E7:71:7C:40:25:AD:82:2E:28:8B

            X509v3 Extended Key Usage: 
                TLS Web Client Authentication
            X509v3 Key Usage: 
                Digital Signature
    Signature Algorithm: sha256WithRSAEncryption
         6a:57:ef:77:f4:9d:47:fd:21:c0:0e:c9:e5:f8:94:b9:0b:07:
         39:28:7e:b7:79:03:d7:96:dd:37:66:30:f6:b9:e0:8b:57:d1:
         f4:c1:2c:3a:a0:73:2e:e4:41:f1:95:74:5d:33:df:d3:a4:43:
         d0:51:18:0e:1f:57:86:06:dc:1b:0d:bd:e7:be:7d:a4:35:7d:
         2b:b7:a3:fc:49:2d:f3:63:d5:ee:f4:23:b1:c6:93:8a:6d:7e:
         cf:e4:b7:d8:18:0c:6d:a8:0c:82:53:bc:1e:f4:71:ab:9e:c7:
         9f:88:34:ea:2a:15:47:7d:14:f6:a7:c1:ee:3f:a9:ca:d2:64:
         e9:92:49:10:c4:3f:27:2c:a2:4d:14:65:a8:e5:01:7b:50:32:
         f5:4c:c1:ea:80:aa:50:86:20:6a:3d:60:43:eb:6d:bc:02:32:
         9d:ae:57:97:9d:a0:32:b5:76:51:3b:51:44:ca:0b:79:91:c7:
         ff:a3:e6:93:b3:a0:9f:d4:49:5a:72:da:a0:74:a8:c0:52:49:
         cf:9d:74:b9:4f:58:be:ca:9b:6f:8a:4c:d7:0f:92:89:39:54:
         d8:2a:7e:2d:ba:82:3b:21:cc:56:dd:53:ab:04:69:e4:92:57:
         ee:97:10:9b:01:6c:97:45:ca:9e:f6:30:f7:74:fd:da:6a:38:
         83:6d:88:98
-----BEGIN CERTIFICATE-----
MIIDXTCCAkWgAwIBAgIRAOqVrervlEZlpUh5KGYahwowDQYJKoZIhvcNAQELBQAw
FjEUMBIGA1UEAwwLdGVhbTcwNi1uZXQwHhcNMjIwNTE4MjMzNTA2WhcNMjUwNTAy
MjMzNTA2WjAZMRcwFQYDVQQDDA50ZWFtNzA2LWNsaWVudDCCASIwDQYJKoZIhvcN
AQEBBQADggEPADCCAQoCggEBAJ6inGoboBibyiizmGTht8U2xxWb7ZYDrw71yyXJ
kzlw13RoTkLXyE4M7z829iUdsncm9Rrn5ZEpQUupADW94jikclpHgCcr2/ELaGdZ
jmlDgWlbGN30ljxFVgtfThlRJd7K/r8sJKYtHjKS+ZhGYin1ryM7/8ECSX8/b8Nd
4Ek7e4KI9soo7ipCo/a0rdWaXnHaGdNDpDP0Je3K+AwO8/Bq0kB6Kb1+mEdErAtw
TsaDrIgh5ZgainpcsSfdZg0sXx0EKUj7Q2yF+1ayFtAdJFjM7xrOS4ZKPQixzmLy
JxFJ93v5T8hm5uy3DN9NMfVsghVF28pFofqU9uCo2fxEhwkCAwEAAaOBojCBnzAJ
BgNVHRMEAjAAMB0GA1UdDgQWBBTqZwrnI0hToQ+W64gOQauF0FpX2zBRBgNVHSME
SjBIgBTAYaGlCBV15fiqYf6d+CNG+CDQP6EapBgwFjEUMBIGA1UEAwwLdGVhbTcw
Ni1uZXSCFERTusR5YkYt6WXncXxAJa2CLiiLMBMGA1UdJQQMMAoGCCsGAQUFBwMC
MAsGA1UdDwQEAwIHgDANBgkqhkiG9w0BAQsFAAOCAQEAalfvd/SdR/0hwA7J5fiU
uQsHOSh+t3kD15bdN2Yw9rngi1fR9MEsOqBzLuRB8ZV0XTPf06RD0FEYDh9Xhgbc
Gw295759pDV9K7ej/Ekt82PV7vQjscaTim1+z+S32BgMbagMglO8HvRxq57Hn4g0
6ioVR30U9qfB7j+pytJk6ZJJEMQ/JyyiTRRlqOUBe1Ay9UzB6oCqUIYgaj1gQ+tt
vAIyna5Xl52gMrV2UTtRRMoLeZHH/6Pmk7Ogn9RJWnLaoHSowFJJz510uU9Yvsqb
b4pM1w+SiTlU2Cp+LbqCOyHMVt1TqwRp5JJX7pcQmwFsl0XKnvYw93T92mo4g22I
mA==
-----END CERTIFICATE-----
