Certificate:
    Data:
        Version: 3 (0x2)
        Serial Number:
            ff:a8:81:f0:28:8a:a4:5e:43:4b:43:a7:dc:60:ee:0c
        Signature Algorithm: sha256WithRSAEncryption
        Issuer: CN=team139-net
        Validity
            Not Before: May 18 15:14:35 2022 GMT
            Not After : May  2 15:14:35 2025 GMT
        Subject: CN=team139-client
        Subject Public Key Info:
            Public Key Algorithm: rsaEncryption
                RSA Public-Key: (2048 bit)
                Modulus:
                    00:ce:05:36:f4:11:e6:77:1e:4c:29:a6:35:d0:e2:
                    8e:02:d5:ae:4f:aa:8d:bb:11:38:76:99:0b:fd:5a:
                    01:ba:a7:ef:d8:1e:03:1a:23:aa:b2:a9:f8:a2:51:
                    d5:01:ff:e6:d7:75:cf:00:82:c2:cf:1d:19:90:a4:
                    3e:4c:a2:8d:cf:33:0b:99:15:79:53:5d:72:19:f2:
                    1a:c8:61:01:83:6e:22:7a:fe:b7:83:2f:24:3b:1f:
                    f0:a7:4d:c2:65:e6:9c:16:83:21:56:aa:92:1a:f2:
                    79:02:7d:16:fe:a1:59:a0:b6:02:c9:87:6c:87:57:
                    64:e4:22:77:72:de:2a:aa:6c:81:4c:9a:19:52:6d:
                    76:f9:ce:59:03:38:55:0c:b2:da:0f:87:e0:8b:00:
                    5e:a9:e0:a0:76:1b:af:a7:79:b8:a0:a8:1c:6a:fb:
                    d1:eb:ac:fb:99:af:2d:b2:9c:4b:52:98:f2:d9:67:
                    73:cb:35:dc:7d:5f:e9:9f:b5:0d:f7:a7:9d:81:04:
                    2b:7d:84:45:41:37:7b:1a:1b:67:cd:25:df:ee:09:
                    22:93:5a:45:49:28:85:b0:6e:1b:39:f9:92:8c:64:
                    6e:aa:31:b9:5b:32:55:dd:f4:ed:a0:a7:fb:98:85:
                    9f:9d:21:c8:71:b6:00:cf:cb:57:42:b3:ee:a9:fe:
                    95:99
                Exponent: 65537 (0x10001)
        X509v3 extensions:
            X509v3 Basic Constraints: 
                CA:FALSE
            X509v3 Subject Key Identifier: 
                BC:34:42:65:F0:8C:8F:65:76:11:AA:45:24:E5:62:BA:0B:82:FF:13
            X509v3 Authority Key Identifier: 
                keyid:00:05:25:04:89:78:EB:AE:9A:3F:12:12:CB:F5:CE:F4:4C:8E:B2:59
                DirName:/CN=team139-net
                serial:7E:29:73:1B:24:98:8F:FB:8B:06:28:A1:87:0A:55:F0:FC:AC:C8:AA

            X509v3 Extended Key Usage: 
                TLS Web Client Authentication
            X509v3 Key Usage: 
                Digital Signature
    Signature Algorithm: sha256WithRSAEncryption
         1a:37:a9:67:17:7f:ee:3b:6a:62:74:ce:da:e7:9e:c9:34:28:
         ec:ee:ec:52:ab:2c:26:e4:f8:d0:44:08:74:9a:0b:15:54:fd:
         36:99:98:22:8b:9f:f9:af:e6:1d:47:b7:af:bf:c3:a8:c8:0a:
         10:e6:4d:82:87:18:02:3b:b5:c6:84:80:b1:0f:63:2b:43:23:
         f9:42:f2:33:07:61:9c:7a:36:a8:f9:aa:b7:e5:59:18:2f:0b:
         dd:d1:af:d3:4e:a6:77:04:d1:0f:44:0f:53:f5:9b:05:78:d0:
         6d:57:30:25:33:f8:5b:d6:be:10:5b:c8:30:71:30:ac:56:80:
         bb:1c:6b:72:86:97:34:d4:f3:d2:74:0d:69:7f:4d:2f:ba:83:
         fd:15:7e:7d:f4:61:93:ac:f8:bf:a7:a4:de:b6:56:fd:80:b2:
         30:ea:e7:c0:1f:2b:43:93:42:4c:24:cb:c1:ad:ea:7c:14:01:
         69:7c:7d:2e:34:85:66:e6:68:1c:c3:eb:f1:45:66:b3:34:83:
         1c:0f:0b:33:8e:0c:ed:08:31:dd:7b:49:40:fa:13:36:93:0b:
         61:50:28:c4:7a:2e:3d:7e:34:cf:e3:be:4f:5a:7f:04:d7:15:
         f9:f9:bf:6a:9a:a5:26:e0:93:ff:eb:78:98:9e:d8:43:bf:08:
         6a:53:92:3a
-----BEGIN CERTIFICATE-----
MIIDXTCCAkWgAwIBAgIRAP+ogfAoiqReQ0tDp9xg7gwwDQYJKoZIhvcNAQELBQAw
FjEUMBIGA1UEAwwLdGVhbTEzOS1uZXQwHhcNMjIwNTE4MTUxNDM1WhcNMjUwNTAy
MTUxNDM1WjAZMRcwFQYDVQQDDA50ZWFtMTM5LWNsaWVudDCCASIwDQYJKoZIhvcN
AQEBBQADggEPADCCAQoCggEBAM4FNvQR5nceTCmmNdDijgLVrk+qjbsROHaZC/1a
Abqn79geAxojqrKp+KJR1QH/5td1zwCCws8dGZCkPkyijc8zC5kVeVNdchnyGshh
AYNuInr+t4MvJDsf8KdNwmXmnBaDIVaqkhryeQJ9Fv6hWaC2AsmHbIdXZOQid3Le
KqpsgUyaGVJtdvnOWQM4VQyy2g+H4IsAXqngoHYbr6d5uKCoHGr70eus+5mvLbKc
S1KY8tlnc8s13H1f6Z+1DfennYEEK32ERUE3exobZ80l3+4JIpNaRUkohbBuGzn5
koxkbqoxuVsyVd307aCn+5iFn50hyHG2AM/LV0Kz7qn+lZkCAwEAAaOBojCBnzAJ
BgNVHRMEAjAAMB0GA1UdDgQWBBS8NEJl8IyPZXYRqkUk5WK6C4L/EzBRBgNVHSME
SjBIgBQABSUEiXjrrpo/EhLL9c70TI6yWaEapBgwFjEUMBIGA1UEAwwLdGVhbTEz
OS1uZXSCFH4pcxskmI/7iwYooYcKVfD8rMiqMBMGA1UdJQQMMAoGCCsGAQUFBwMC
MAsGA1UdDwQEAwIHgDANBgkqhkiG9w0BAQsFAAOCAQEAGjepZxd/7jtqYnTO2uee
yTQo7O7sUqssJuT40EQIdJoLFVT9NpmYIouf+a/mHUe3r7/DqMgKEOZNgocYAju1
xoSAsQ9jK0Mj+ULyMwdhnHo2qPmqt+VZGC8L3dGv006mdwTRD0QPU/WbBXjQbVcw
JTP4W9a+EFvIMHEwrFaAuxxrcoaXNNTz0nQNaX9NL7qD/RV+ffRhk6z4v6ek3rZW
/YCyMOrnwB8rQ5NCTCTLwa3qfBQBaXx9LjSFZuZoHMPr8UVmszSDHA8LM44M7Qgx
3XtJQPoTNpMLYVAoxHouPX40z+O+T1p/BNcV+fm/apqlJuCT/+t4mJ7YQ78IalOS
Og==
-----END CERTIFICATE-----
