Certificate:
    Data:
        Version: 3 (0x2)
        Serial Number:
            3a:8d:32:57:f3:73:8e:4b:47:7b:70:8e:e8:7f:a7:2f
        Signature Algorithm: sha256WithRSAEncryption
        Issuer: CN=team205-net
        Validity
            Not Before: May 18 19:03:45 2022 GMT
            Not After : May  2 19:03:45 2025 GMT
        Subject: CN=team205-client
        Subject Public Key Info:
            Public Key Algorithm: rsaEncryption
                RSA Public-Key: (2048 bit)
                Modulus:
                    00:a0:9d:23:91:95:58:64:4b:15:cb:57:4a:f3:ca:
                    01:68:a7:02:da:59:fc:d2:c7:c4:8b:38:f5:d7:eb:
                    5a:fc:a8:f6:0a:e3:99:35:4f:28:76:ee:6d:06:3c:
                    f0:75:cf:6c:cd:53:82:aa:68:1d:17:b2:2c:b7:b8:
                    92:7a:14:bb:45:e3:48:3c:24:5e:46:d0:cb:6a:db:
                    4a:d1:21:4a:ac:39:d5:23:48:8e:68:0e:bf:a2:62:
                    3c:96:24:c5:20:a4:15:56:46:20:3c:1a:c7:8c:0c:
                    64:69:9b:db:7f:97:1f:57:c4:f8:0a:40:76:6e:41:
                    f7:95:64:fd:b5:d2:a3:52:64:c2:94:2c:6b:82:3f:
                    e9:33:f8:67:86:33:1e:fe:39:3a:63:32:f6:32:ec:
                    88:92:8b:1b:ab:48:d5:e9:5c:52:cd:c2:cd:b1:83:
                    42:51:4c:79:6c:4d:b7:c3:e0:cb:7a:da:4c:59:44:
                    33:e3:1c:53:e4:d5:2c:ee:9f:07:48:1a:d5:a7:ed:
                    da:16:2f:d6:23:bc:04:d8:b4:8e:d8:f8:e4:2b:2f:
                    ca:da:cd:8c:9c:c3:3a:06:df:e0:fa:04:a8:84:b5:
                    66:16:29:3d:11:06:41:7f:3a:60:52:8d:cf:14:84:
                    85:dc:07:50:09:f4:eb:ae:a4:73:b7:31:3f:75:55:
                    aa:31
                Exponent: 65537 (0x10001)
        X509v3 extensions:
            X509v3 Basic Constraints: 
                CA:FALSE
            X509v3 Subject Key Identifier: 
                65:C9:55:89:D0:6B:91:40:4E:13:AB:08:17:51:60:6B:D1:F9:DB:AE
            X509v3 Authority Key Identifier: 
                keyid:19:E0:F5:B0:DC:EF:4C:D7:B9:76:88:22:DD:30:B3:89:96:71:1A:4E
                DirName:/CN=team205-net
                serial:6B:36:34:58:F4:B0:BB:50:6E:B6:07:D4:32:42:4F:62:CB:FC:A7:BD

            X509v3 Extended Key Usage: 
                TLS Web Client Authentication
            X509v3 Key Usage: 
                Digital Signature
    Signature Algorithm: sha256WithRSAEncryption
         bd:92:35:d9:c8:42:c0:34:0c:42:de:fd:48:ae:16:ba:65:a6:
         e9:82:d8:10:7c:26:48:17:4e:5b:93:89:1a:e0:b4:4d:be:00:
         36:86:ca:04:c6:43:8d:cd:05:fb:ce:d0:3f:da:51:8c:b1:20:
         31:6e:6a:9a:ae:b1:26:7d:c7:2f:b7:3e:3c:5f:f1:6e:d6:a3:
         5d:14:d5:3b:f6:a2:6c:61:c4:92:14:33:64:97:95:30:82:30:
         ef:6e:cb:dc:c2:4f:f9:ed:37:ae:bc:f0:72:10:41:9b:6d:99:
         49:41:4d:d9:d4:cc:19:6f:46:bd:47:d3:09:28:e7:6a:62:d4:
         bd:a9:42:d7:58:a9:33:4d:20:50:1a:bd:2c:10:f5:9a:1a:9d:
         57:2e:03:8d:81:ed:59:02:eb:2e:cd:27:4a:d7:e6:e3:1f:bb:
         32:5c:13:bc:b8:5a:e3:e6:9a:b8:b2:3c:d6:02:ec:c3:de:fd:
         f1:1d:c2:17:c7:86:d2:10:7c:cf:71:b0:2b:05:72:67:5e:8c:
         06:89:80:4d:d1:0a:25:d5:5b:f9:d8:52:1a:be:5e:ad:ec:11:
         62:97:f4:4c:55:ff:6d:0f:ba:17:7f:0a:c3:1d:36:68:af:8d:
         7f:6f:1f:e4:d6:75:a9:01:5c:d1:4e:35:5b:71:f1:70:0e:c1:
         92:60:9c:e5
-----BEGIN CERTIFICATE-----
MIIDXDCCAkSgAwIBAgIQOo0yV/NzjktHe3CO6H+nLzANBgkqhkiG9w0BAQsFADAW
MRQwEgYDVQQDDAt0ZWFtMjA1LW5ldDAeFw0yMjA1MTgxOTAzNDVaFw0yNTA1MDIx
OTAzNDVaMBkxFzAVBgNVBAMMDnRlYW0yMDUtY2xpZW50MIIBIjANBgkqhkiG9w0B
AQEFAAOCAQ8AMIIBCgKCAQEAoJ0jkZVYZEsVy1dK88oBaKcC2ln80sfEizj11+ta
/Kj2CuOZNU8odu5tBjzwdc9szVOCqmgdF7Ist7iSehS7ReNIPCReRtDLattK0SFK
rDnVI0iOaA6/omI8liTFIKQVVkYgPBrHjAxkaZvbf5cfV8T4CkB2bkH3lWT9tdKj
UmTClCxrgj/pM/hnhjMe/jk6YzL2MuyIkosbq0jV6VxSzcLNsYNCUUx5bE23w+DL
etpMWUQz4xxT5NUs7p8HSBrVp+3aFi/WI7wE2LSO2PjkKy/K2s2MnMM6Bt/g+gSo
hLVmFik9EQZBfzpgUo3PFISF3AdQCfTrrqRztzE/dVWqMQIDAQABo4GiMIGfMAkG
A1UdEwQCMAAwHQYDVR0OBBYEFGXJVYnQa5FAThOrCBdRYGvR+duuMFEGA1UdIwRK
MEiAFBng9bDc70zXuXaIIt0ws4mWcRpOoRqkGDAWMRQwEgYDVQQDDAt0ZWFtMjA1
LW5ldIIUazY0WPSwu1ButgfUMkJPYsv8p70wEwYDVR0lBAwwCgYIKwYBBQUHAwIw
CwYDVR0PBAQDAgeAMA0GCSqGSIb3DQEBCwUAA4IBAQC9kjXZyELANAxC3v1Irha6
ZabpgtgQfCZIF05bk4ka4LRNvgA2hsoExkONzQX7ztA/2lGMsSAxbmqarrEmfccv
tz48X/Fu1qNdFNU79qJsYcSSFDNkl5UwgjDvbsvcwk/57TeuvPByEEGbbZlJQU3Z
1MwZb0a9R9MJKOdqYtS9qULXWKkzTSBQGr0sEPWaGp1XLgONge1ZAusuzSdK1+bj
H7syXBO8uFrj5pq4sjzWAuzD3v3xHcIXx4bSEHzPcbArBXJnXowGiYBN0Qol1Vv5
2FIavl6t7BFil/RMVf9tD7oXfwrDHTZor41/bx/k1nWpAVzRTjVbcfFwDsGSYJzl
-----END CERTIFICATE-----
