Certificate:
    Data:
        Version: 3 (0x2)
        Serial Number:
            e6:9d:76:b2:7a:f1:c2:8b:24:cc:57:11:ee:a1:36:c6
        Signature Algorithm: sha256WithRSAEncryption
        Issuer: CN=team748-net
        Validity
            Not Before: May 19 00:03:06 2022 GMT
            Not After : May  3 00:03:06 2025 GMT
        Subject: CN=team748-server
        Subject Public Key Info:
            Public Key Algorithm: rsaEncryption
                RSA Public-Key: (2048 bit)
                Modulus:
                    00:cb:3b:7d:cd:ac:0c:10:35:1d:13:5c:20:b0:08:
                    cb:35:ed:fa:ff:37:99:e6:05:e1:60:f7:dc:d1:43:
                    ca:12:40:ce:f3:43:59:2c:24:03:34:98:2c:67:e2:
                    2b:33:bf:82:4c:17:b2:53:6c:27:21:21:8e:6b:7f:
                    8a:a5:ea:43:3f:16:33:d9:f8:1b:c3:7a:d5:9c:18:
                    90:ad:c6:0b:fa:ff:4d:0a:46:a7:36:3d:78:f6:1d:
                    84:5f:5c:58:fe:2f:9b:3f:e6:8e:b8:67:6e:fd:7a:
                    77:1f:47:ea:bb:9f:bb:ad:23:0b:6f:d5:82:67:a7:
                    43:55:09:b1:2e:23:1b:21:6d:b4:15:f8:5b:00:a3:
                    ff:2a:8d:74:50:52:c3:52:e2:99:d1:ec:ee:04:64:
                    57:e8:a9:25:28:37:a6:17:b2:0a:f8:2d:cf:e1:67:
                    d8:8e:a5:4b:22:73:8e:ba:50:1c:72:5f:ec:c2:12:
                    b0:0d:74:c1:23:b3:ec:3e:89:a4:95:5f:5d:a8:79:
                    e7:fe:94:d9:8b:c1:e7:06:94:b5:12:30:d0:7e:79:
                    db:f8:75:81:f9:22:25:94:8f:2b:52:7c:07:e4:af:
                    13:e4:54:1a:ca:60:55:29:ab:2f:a8:dd:4b:c5:fb:
                    c4:11:72:a3:7f:fe:1c:ea:b5:4d:af:49:e6:39:a2:
                    bd:09
                Exponent: 65537 (0x10001)
        X509v3 extensions:
            X509v3 Basic Constraints: 
                CA:FALSE
            X509v3 Subject Key Identifier: 
                CC:9D:99:40:C5:E9:BF:A6:DD:0E:35:F4:D6:C2:16:69:CB:41:A6:F6
            X509v3 Authority Key Identifier: 
                keyid:F5:FD:40:3E:CA:54:91:E4:B6:E9:4B:DD:C2:43:BB:1C:3D:B1:C3:04
                DirName:/CN=team748-net
                serial:4C:4C:17:91:A3:84:36:70:57:6A:DC:5C:1E:F2:5D:4C:F9:5F:4E:20

            X509v3 Extended Key Usage: 
                TLS Web Server Authentication
            X509v3 Key Usage: 
                Digital Signature, Key Encipherment
            X509v3 Subject Alternative Name: 
                DNS:team748-server
    Signature Algorithm: sha256WithRSAEncryption
         c0:a3:97:59:29:99:a1:47:49:45:d5:9d:fc:a2:af:56:97:37:
         6f:c5:ba:ea:26:60:a3:52:c9:b2:b5:cc:9b:fa:ce:e5:4b:fc:
         f6:4d:82:df:5e:88:d4:a1:30:ef:97:4a:4c:73:ad:6d:57:12:
         da:4a:22:48:02:69:66:34:da:68:af:5a:9c:9c:ef:f8:c4:6e:
         ee:26:d8:ea:6c:26:b8:f8:ee:38:b4:d9:08:6c:89:b7:0d:16:
         5b:c5:ee:66:5b:c1:05:c0:67:f7:8f:bb:43:71:a4:82:90:8c:
         c9:d5:b9:c9:45:50:75:75:da:8a:6f:f0:25:4b:9d:c5:4b:e9:
         25:48:15:ac:a6:4e:5a:8e:18:ae:f8:29:91:f1:a2:4e:35:7a:
         7c:f6:48:7c:48:15:cb:ef:b7:bb:42:b7:c9:82:54:03:44:58:
         07:23:60:8d:9c:01:4d:a7:07:02:62:74:6b:50:25:59:94:06:
         6e:a4:a7:4f:d8:ca:9e:73:6d:53:c3:0e:8c:bb:a9:ff:f7:a1:
         82:cc:ae:d2:33:b8:b7:65:a1:42:ff:70:cc:e4:70:e5:8a:17:
         81:2d:37:aa:bb:c3:e7:d2:f9:c6:96:0c:0f:7a:9a:a3:35:51:
         37:7e:dd:e1:a0:c1:4e:cd:b0:4e:e2:cb:61:28:da:60:ed:e9:
         1e:ff:be:2d
-----BEGIN CERTIFICATE-----
MIIDeDCCAmCgAwIBAgIRAOaddrJ68cKLJMxXEe6hNsYwDQYJKoZIhvcNAQELBQAw
FjEUMBIGA1UEAwwLdGVhbTc0OC1uZXQwHhcNMjIwNTE5MDAwMzA2WhcNMjUwNTAz
MDAwMzA2WjAZMRcwFQYDVQQDDA50ZWFtNzQ4LXNlcnZlcjCCASIwDQYJKoZIhvcN
AQEBBQADggEPADCCAQoCggEBAMs7fc2sDBA1HRNcILAIyzXt+v83meYF4WD33NFD
yhJAzvNDWSwkAzSYLGfiKzO/gkwXslNsJyEhjmt/iqXqQz8WM9n4G8N61ZwYkK3G
C/r/TQpGpzY9ePYdhF9cWP4vmz/mjrhnbv16dx9H6rufu60jC2/VgmenQ1UJsS4j
GyFttBX4WwCj/yqNdFBSw1LimdHs7gRkV+ipJSg3pheyCvgtz+Fn2I6lSyJzjrpQ
HHJf7MISsA10wSOz7D6JpJVfXah55/6U2YvB5waUtRIw0H552/h1gfkiJZSPK1J8
B+SvE+RUGspgVSmrL6jdS8X7xBFyo3/+HOq1Ta9J5jmivQkCAwEAAaOBvTCBujAJ
BgNVHRMEAjAAMB0GA1UdDgQWBBTMnZlAxem/pt0ONfTWwhZpy0Gm9jBRBgNVHSME
SjBIgBT1/UA+ylSR5LbpS93CQ7scPbHDBKEapBgwFjEUMBIGA1UEAwwLdGVhbTc0
OC1uZXSCFExMF5GjhDZwV2rcXB7yXUz5X04gMBMGA1UdJQQMMAoGCCsGAQUFBwMB
MAsGA1UdDwQEAwIFoDAZBgNVHREEEjAQgg50ZWFtNzQ4LXNlcnZlcjANBgkqhkiG
9w0BAQsFAAOCAQEAwKOXWSmZoUdJRdWd/KKvVpc3b8W66iZgo1LJsrXMm/rO5Uv8
9k2C316I1KEw75dKTHOtbVcS2koiSAJpZjTaaK9anJzv+MRu7ibY6mwmuPjuOLTZ
CGyJtw0WW8XuZlvBBcBn94+7Q3GkgpCMydW5yUVQdXXaim/wJUudxUvpJUgVrKZO
Wo4YrvgpkfGiTjV6fPZIfEgVy++3u0K3yYJUA0RYByNgjZwBTacHAmJ0a1AlWZQG
bqSnT9jKnnNtU8MOjLup//ehgsyu0jO4t2WhQv9wzORw5YoXgS03qrvD59L5xpYM
D3qaozVRN37d4aDBTs2wTuLLYSjaYO3pHv++LQ==
-----END CERTIFICATE-----
