Certificate:
    Data:
        Version: 3 (0x2)
        Serial Number:
            bf:1e:55:21:ad:97:7a:aa:cc:7d:63:f3:0b:4c:09:7f
        Signature Algorithm: sha256WithRSAEncryption
        Issuer: CN=team759-net
        Validity
            Not Before: May 19 00:09:44 2022 GMT
            Not After : May  3 00:09:44 2025 GMT
        Subject: CN=team759-client
        Subject Public Key Info:
            Public Key Algorithm: rsaEncryption
                RSA Public-Key: (2048 bit)
                Modulus:
                    00:b3:5b:4b:28:8a:37:90:45:93:e8:3c:51:d5:98:
                    09:db:5b:93:bc:28:3e:b4:43:d3:0d:52:b9:a0:cd:
                    0e:0b:49:c5:69:0c:91:1d:03:e0:ad:80:9e:0a:2c:
                    5f:3d:eb:43:0d:31:91:b8:56:1c:5f:4b:9b:aa:92:
                    0e:47:5c:2a:35:ca:c5:57:3f:e1:9f:57:b6:3a:cb:
                    17:ff:98:1e:87:bd:51:a9:44:cd:2e:96:71:79:49:
                    10:53:48:b5:9d:91:a6:f9:e4:15:c6:80:d2:01:e1:
                    fd:c3:d8:ba:d1:3b:a8:3e:07:f8:89:6e:b3:ce:e9:
                    60:27:c2:8f:ea:8e:da:21:60:9e:13:5c:70:4b:ba:
                    4a:18:03:d2:e1:f9:73:75:06:7d:b8:ea:f0:b3:96:
                    d4:22:88:b3:4f:fd:0e:0e:bd:24:19:c3:c3:51:39:
                    55:d7:4e:82:97:cb:5e:d9:aa:83:2d:5d:e1:30:28:
                    ca:5b:a7:b6:0a:3b:9c:90:0c:66:0a:f2:17:1e:42:
                    3e:a4:9d:0c:7c:42:d3:94:12:c2:67:75:e4:cf:83:
                    cf:62:99:68:06:b0:51:ef:fc:20:61:ba:e4:1c:9a:
                    d0:8d:47:d0:a6:8d:c5:5d:fb:77:50:9a:18:17:b6:
                    d8:40:19:b3:9d:be:47:57:be:6a:77:2f:5b:46:0a:
                    2e:61
                Exponent: 65537 (0x10001)
        X509v3 extensions:
            X509v3 Basic Constraints: 
                CA:FALSE
            X509v3 Subject Key Identifier: 
                14:14:64:7C:67:BD:13:21:8B:44:76:03:53:B3:19:9C:55:23:B8:E6
            X509v3 Authority Key Identifier: 
                keyid:4D:E1:86:79:3E:E8:64:E1:33:3E:4E:63:A4:B8:6C:4B:48:3F:39:5F
                DirName:/CN=team759-net
                serial:32:17:5B:63:79:59:77:32:F1:DE:60:89:DE:72:E0:75:BD:A1:B9:46

            X509v3 Extended Key Usage: 
                TLS Web Client Authentication
            X509v3 Key Usage: 
                Digital Signature
    Signature Algorithm: sha256WithRSAEncryption
         0b:75:2a:3a:22:7c:ef:d2:eb:77:2e:ca:88:a1:a0:81:2a:72:
         e0:5c:83:18:e0:6c:29:71:61:03:37:cc:fe:08:a1:05:97:69:
         3b:ae:4c:29:4f:7d:27:b5:1a:81:6f:5c:7d:81:3e:35:47:ac:
         ef:d8:5b:2f:10:a7:77:11:4a:6c:f6:6c:74:7f:cb:26:36:00:
         3f:61:b9:f8:4c:ec:86:5b:8b:07:4d:f1:77:87:70:fd:ce:06:
         5e:b3:6e:94:ed:34:9e:b3:38:81:b8:c7:56:ee:31:95:5b:3c:
         76:e8:d7:7b:07:21:83:19:ef:0d:8b:96:35:be:54:3a:8d:55:
         6e:23:58:98:14:15:5a:d8:40:92:9c:6b:92:0f:3b:fc:61:f3:
         b0:f1:61:41:20:47:0f:96:1c:56:e7:58:dc:b1:d8:b7:72:6f:
         89:22:fb:54:08:53:33:54:0b:5c:16:f2:d4:a1:ee:dc:cd:be:
         f5:97:d2:0a:96:b3:6f:14:64:19:64:a0:47:06:9a:3e:d3:78:
         66:63:df:5a:75:e4:a0:ca:6e:c3:1d:7a:43:9d:90:d3:aa:af:
         c1:70:f0:02:7a:70:57:25:08:68:a2:9a:5e:ec:9b:d2:2b:c6:
         1b:94:b2:36:5a:02:01:cc:ff:bd:07:24:82:37:43:a7:ba:ca:
         34:3f:b9:1f
-----BEGIN CERTIFICATE-----
MIIDXTCCAkWgAwIBAgIRAL8eVSGtl3qqzH1j8wtMCX8wDQYJKoZIhvcNAQELBQAw
FjEUMBIGA1UEAwwLdGVhbTc1OS1uZXQwHhcNMjIwNTE5MDAwOTQ0WhcNMjUwNTAz
MDAwOTQ0WjAZMRcwFQYDVQQDDA50ZWFtNzU5LWNsaWVudDCCASIwDQYJKoZIhvcN
AQEBBQADggEPADCCAQoCggEBALNbSyiKN5BFk+g8UdWYCdtbk7woPrRD0w1SuaDN
DgtJxWkMkR0D4K2AngosXz3rQw0xkbhWHF9Lm6qSDkdcKjXKxVc/4Z9XtjrLF/+Y
Hoe9UalEzS6WcXlJEFNItZ2RpvnkFcaA0gHh/cPYutE7qD4H+Ilus87pYCfCj+qO
2iFgnhNccEu6ShgD0uH5c3UGfbjq8LOW1CKIs0/9Dg69JBnDw1E5VddOgpfLXtmq
gy1d4TAoyluntgo7nJAMZgryFx5CPqSdDHxC05QSwmd15M+Dz2KZaAawUe/8IGG6
5Bya0I1H0KaNxV37d1CaGBe22EAZs52+R1e+ancvW0YKLmECAwEAAaOBojCBnzAJ
BgNVHRMEAjAAMB0GA1UdDgQWBBQUFGR8Z70TIYtEdgNTsxmcVSO45jBRBgNVHSME
SjBIgBRN4YZ5Puhk4TM+TmOkuGxLSD85X6EapBgwFjEUMBIGA1UEAwwLdGVhbTc1
OS1uZXSCFDIXW2N5WXcy8d5gid5y4HW9oblGMBMGA1UdJQQMMAoGCCsGAQUFBwMC
MAsGA1UdDwQEAwIHgDANBgkqhkiG9w0BAQsFAAOCAQEAC3UqOiJ879Lrdy7KiKGg
gSpy4FyDGOBsKXFhAzfM/gihBZdpO65MKU99J7UagW9cfYE+NUes79hbLxCndxFK
bPZsdH/LJjYAP2G5+EzshluLB03xd4dw/c4GXrNulO00nrM4gbjHVu4xlVs8dujX
ewchgxnvDYuWNb5UOo1VbiNYmBQVWthAkpxrkg87/GHzsPFhQSBHD5YcVudY3LHY
t3JviSL7VAhTM1QLXBby1KHu3M2+9ZfSCpazbxRkGWSgRwaaPtN4ZmPfWnXkoMpu
wx16Q52Q06qvwXDwAnpwVyUIaKKaXuyb0ivGG5SyNloCAcz/vQckgjdDp7rKND+5
Hw==
-----END CERTIFICATE-----
