Certificate:
    Data:
        Version: 3 (0x2)
        Serial Number:
            ed:f5:60:9c:cc:bf:ff:c6:52:73:9e:88:75:14:d5:95
        Signature Algorithm: sha256WithRSAEncryption
        Issuer: CN=team319-net
        Validity
            Not Before: May 18 20:19:44 2022 GMT
            Not After : May  2 20:19:44 2025 GMT
        Subject: CN=team319-client
        Subject Public Key Info:
            Public Key Algorithm: rsaEncryption
                RSA Public-Key: (2048 bit)
                Modulus:
                    00:bd:7f:3b:18:b7:09:5d:07:47:d8:86:2e:5f:c6:
                    73:cb:ac:aa:93:65:6e:fc:7d:d0:6a:c7:42:c5:68:
                    4f:e5:ab:85:6b:cf:af:1b:c1:3a:ca:1c:cc:cf:18:
                    2b:51:3f:09:0d:f8:c8:b6:51:cc:7e:e0:a6:ab:a6:
                    0d:b8:86:9a:1b:8e:01:d1:dd:89:88:81:2d:9e:7c:
                    4c:ad:23:3b:93:11:f6:0b:73:1b:2a:ee:f3:f4:eb:
                    2d:5a:3b:bb:b2:53:07:ce:b3:1e:b8:f3:a2:a7:ea:
                    87:13:71:09:97:9b:45:77:fb:bf:5b:25:75:a7:e4:
                    a3:b5:ee:0a:71:03:fa:c7:3c:f2:0c:5b:7c:5c:ac:
                    e6:cb:03:17:b8:12:11:94:bb:43:86:5e:50:5a:bf:
                    0e:91:5e:e3:18:35:db:bf:d3:98:7f:b1:08:6b:cd:
                    cd:f4:44:57:30:89:48:df:9a:c1:3f:9c:01:7c:4b:
                    cf:4a:4d:72:33:4a:f4:c4:c9:49:64:fd:45:4d:85:
                    43:67:aa:a6:52:55:57:ba:9f:ec:84:32:b1:9d:c3:
                    2f:44:98:4e:c3:ec:25:7b:60:95:0e:c6:8f:a0:58:
                    31:1d:d2:30:f3:d6:07:c5:9c:13:2a:83:90:b0:0e:
                    45:7d:9a:d1:ff:7e:cf:99:c9:ed:05:79:36:e3:20:
                    b2:e3
                Exponent: 65537 (0x10001)
        X509v3 extensions:
            X509v3 Basic Constraints: 
                CA:FALSE
            X509v3 Subject Key Identifier: 
                2E:E4:53:C1:D1:33:22:85:46:E7:70:F8:9A:AE:C1:AB:8B:E6:5C:29
            X509v3 Authority Key Identifier: 
                keyid:9C:6F:6C:11:B4:92:13:64:16:14:07:56:12:8F:26:C2:43:C7:78:42
                DirName:/CN=team319-net
                serial:58:98:02:4D:4E:29:FC:BC:94:EF:81:A8:C5:2F:04:DF:63:8E:AA:58

            X509v3 Extended Key Usage: 
                TLS Web Client Authentication
            X509v3 Key Usage: 
                Digital Signature
    Signature Algorithm: sha256WithRSAEncryption
         4b:4e:de:2f:2b:c5:81:d9:a2:96:93:6e:fc:1b:b7:2b:2d:00:
         a9:bb:ce:be:68:d7:12:ea:32:b5:17:8c:a3:6c:dc:68:07:84:
         d3:0a:a2:c4:37:f7:8a:95:36:ae:6e:ae:16:e2:04:23:5e:1a:
         eb:32:d9:9a:50:5d:c7:00:31:a1:c8:c1:69:5e:3c:95:a2:75:
         b0:e8:95:b3:19:2e:25:ee:ba:9d:30:0f:82:92:fa:1a:09:c6:
         1f:91:1e:51:27:8c:8b:40:bd:78:67:b9:88:23:5f:c4:7e:0a:
         db:40:57:68:92:7b:cb:f9:4b:f5:08:4d:ea:84:f8:dc:77:8d:
         35:e2:aa:16:10:33:ec:cc:58:5f:e0:34:f3:df:4d:66:62:ef:
         99:c8:26:87:65:fd:72:13:0d:e3:69:41:25:35:35:30:71:23:
         16:67:06:56:90:6c:1f:b4:16:90:3c:48:37:26:5d:e2:68:6c:
         11:53:94:52:ee:52:cc:bd:ff:2b:44:d5:32:da:0e:66:ca:59:
         4f:c2:eb:cd:af:a2:d3:e7:53:9c:3d:59:ca:f3:c7:ba:29:8f:
         7c:6d:59:87:d1:b1:5c:ee:33:7a:2c:9d:60:fb:4f:05:f1:0e:
         49:8f:64:ea:45:20:b9:71:4d:cd:f1:91:f1:5f:e8:58:6b:97:
         b0:f4:a3:ac
-----BEGIN CERTIFICATE-----
MIIDXTCCAkWgAwIBAgIRAO31YJzMv//GUnOeiHUU1ZUwDQYJKoZIhvcNAQELBQAw
FjEUMBIGA1UEAwwLdGVhbTMxOS1uZXQwHhcNMjIwNTE4MjAxOTQ0WhcNMjUwNTAy
MjAxOTQ0WjAZMRcwFQYDVQQDDA50ZWFtMzE5LWNsaWVudDCCASIwDQYJKoZIhvcN
AQEBBQADggEPADCCAQoCggEBAL1/Oxi3CV0HR9iGLl/Gc8usqpNlbvx90GrHQsVo
T+WrhWvPrxvBOsoczM8YK1E/CQ34yLZRzH7gpqumDbiGmhuOAdHdiYiBLZ58TK0j
O5MR9gtzGyru8/TrLVo7u7JTB86zHrjzoqfqhxNxCZebRXf7v1sldafko7XuCnED
+sc88gxbfFys5ssDF7gSEZS7Q4ZeUFq/DpFe4xg127/TmH+xCGvNzfREVzCJSN+a
wT+cAXxLz0pNcjNK9MTJSWT9RU2FQ2eqplJVV7qf7IQysZ3DL0SYTsPsJXtglQ7G
j6BYMR3SMPPWB8WcEyqDkLAORX2a0f9+z5nJ7QV5NuMgsuMCAwEAAaOBojCBnzAJ
BgNVHRMEAjAAMB0GA1UdDgQWBBQu5FPB0TMihUbncPiarsGri+ZcKTBRBgNVHSME
SjBIgBScb2wRtJITZBYUB1YSjybCQ8d4QqEapBgwFjEUMBIGA1UEAwwLdGVhbTMx
OS1uZXSCFFiYAk1OKfy8lO+BqMUvBN9jjqpYMBMGA1UdJQQMMAoGCCsGAQUFBwMC
MAsGA1UdDwQEAwIHgDANBgkqhkiG9w0BAQsFAAOCAQEAS07eLyvFgdmilpNu/Bu3
Ky0AqbvOvmjXEuoytReMo2zcaAeE0wqixDf3ipU2rm6uFuIEI14a6zLZmlBdxwAx
ocjBaV48laJ1sOiVsxkuJe66nTAPgpL6GgnGH5EeUSeMi0C9eGe5iCNfxH4K20BX
aJJ7y/lL9QhN6oT43HeNNeKqFhAz7MxYX+A0899NZmLvmcgmh2X9chMN42lBJTU1
MHEjFmcGVpBsH7QWkDxINyZd4mhsEVOUUu5SzL3/K0TVMtoOZspZT8Lrza+i0+dT
nD1ZyvPHuimPfG1Zh9GxXO4zeiydYPtPBfEOSY9k6kUguXFNzfGR8V/oWGuXsPSj
rA==
-----END CERTIFICATE-----
