Certificate:
    Data:
        Version: 3 (0x2)
        Serial Number:
            e2:7e:59:68:dd:34:bb:29:0a:8d:0a:f5:d0:5a:ec:e0
        Signature Algorithm: sha256WithRSAEncryption
        Issuer: CN=team224-net
        Validity
            Not Before: May 18 19:15:25 2022 GMT
            Not After : May  2 19:15:25 2025 GMT
        Subject: CN=team224-client
        Subject Public Key Info:
            Public Key Algorithm: rsaEncryption
                RSA Public-Key: (2048 bit)
                Modulus:
                    00:ea:d3:c7:4b:19:e2:a8:d4:99:00:8f:d4:cd:7b:
                    2b:b0:36:0e:ce:09:26:f8:23:38:9e:f7:74:5d:38:
                    30:91:23:42:a2:dd:48:f0:a7:23:6d:6d:d3:f6:bd:
                    6d:2d:bd:dd:b3:d9:b9:ce:93:d5:b4:77:24:5a:7a:
                    bc:f2:f3:0c:bd:b8:5f:b1:be:b6:0c:20:29:07:03:
                    fa:85:df:48:16:71:a4:64:42:ac:27:f0:2c:d9:9b:
                    ee:e4:a2:f9:77:5f:a2:14:c4:fa:21:d3:a4:f3:19:
                    12:90:21:4f:f1:6d:bb:a6:8b:2c:9a:13:88:7a:6c:
                    f9:c8:a7:8a:91:dd:f1:98:13:0e:bf:8d:24:ed:dc:
                    7f:6b:dd:5b:fe:23:4e:44:ca:89:9d:7f:0b:63:0a:
                    2f:ed:64:76:86:d2:2b:78:2e:c2:0c:d4:e5:c4:30:
                    c8:b6:e8:3b:04:72:44:46:6e:99:63:1c:ed:d1:a1:
                    ae:b6:51:91:06:4e:6e:96:ea:8d:32:1d:ab:74:53:
                    71:44:dd:f5:76:5e:4d:0c:67:a9:ef:8b:84:a0:aa:
                    8d:ec:66:74:6c:3e:6f:8c:cb:39:b2:5c:88:fa:b0:
                    66:e8:50:d0:c4:13:0e:11:83:cb:2b:0a:31:ab:19:
                    c9:33:e8:38:2a:ca:78:cc:da:57:42:a1:41:b6:53:
                    4e:b5
                Exponent: 65537 (0x10001)
        X509v3 extensions:
            X509v3 Basic Constraints: 
                CA:FALSE
            X509v3 Subject Key Identifier: 
                34:F0:43:F4:28:ED:37:BA:11:5F:93:3B:6A:9F:F7:7F:08:1C:4A:46
            X509v3 Authority Key Identifier: 
                keyid:F5:AE:49:E2:77:68:25:88:7D:CC:3E:E2:BE:9A:1C:40:D6:E6:5C:A9
                DirName:/CN=team224-net
                serial:4F:B9:B7:5B:19:C6:B4:30:24:E0:48:35:C2:94:10:06:95:94:C9:0A

            X509v3 Extended Key Usage: 
                TLS Web Client Authentication
            X509v3 Key Usage: 
                Digital Signature
    Signature Algorithm: sha256WithRSAEncryption
         aa:31:a6:90:47:af:1b:4b:6f:94:b3:fb:91:82:05:80:07:a0:
         9f:4d:72:71:b5:bc:c7:31:c7:54:a0:f9:48:96:2a:1e:c4:0e:
         f2:d8:7a:8e:9b:14:d4:f5:d3:9d:ec:11:24:c2:bc:a8:d1:e3:
         08:aa:e2:7a:7b:2f:13:1f:5d:ca:4d:a1:62:d3:95:82:1e:f7:
         41:d3:4f:d1:87:15:28:1b:07:da:81:5b:74:55:5e:f1:96:c7:
         28:57:88:f7:b6:2e:6d:e1:21:ee:6c:1d:6f:32:fb:fb:6a:23:
         8a:1a:d8:ab:2f:0b:c5:21:fd:b8:c9:e0:69:97:5a:66:51:dd:
         7a:e3:b8:c4:e4:a2:61:21:fe:f7:c5:e0:58:da:99:62:8f:da:
         37:07:f7:60:b4:7d:31:a7:55:df:b4:54:5c:c1:d5:43:0c:05:
         ae:6e:f0:af:d8:29:6b:97:ec:e5:83:89:00:b2:fb:00:3d:42:
         f8:eb:f1:a4:69:90:c7:81:11:b8:4b:fd:69:da:ef:16:34:40:
         5d:35:f4:e3:32:16:07:c2:d6:e9:73:92:8c:9e:ac:39:1c:3e:
         65:75:75:6c:7b:b1:0d:a7:dc:f6:19:9e:64:15:07:02:a8:08:
         c3:14:b2:4c:e6:6d:5e:cf:b7:0c:87:e1:e6:bb:9d:c0:69:d6:
         4e:9a:7d:f0
-----BEGIN CERTIFICATE-----
MIIDXTCCAkWgAwIBAgIRAOJ+WWjdNLspCo0K9dBa7OAwDQYJKoZIhvcNAQELBQAw
FjEUMBIGA1UEAwwLdGVhbTIyNC1uZXQwHhcNMjIwNTE4MTkxNTI1WhcNMjUwNTAy
MTkxNTI1WjAZMRcwFQYDVQQDDA50ZWFtMjI0LWNsaWVudDCCASIwDQYJKoZIhvcN
AQEBBQADggEPADCCAQoCggEBAOrTx0sZ4qjUmQCP1M17K7A2Ds4JJvgjOJ73dF04
MJEjQqLdSPCnI21t0/a9bS293bPZuc6T1bR3JFp6vPLzDL24X7G+tgwgKQcD+oXf
SBZxpGRCrCfwLNmb7uSi+XdfohTE+iHTpPMZEpAhT/Ftu6aLLJoTiHps+cinipHd
8ZgTDr+NJO3cf2vdW/4jTkTKiZ1/C2MKL+1kdobSK3guwgzU5cQwyLboOwRyREZu
mWMc7dGhrrZRkQZObpbqjTIdq3RTcUTd9XZeTQxnqe+LhKCqjexmdGw+b4zLObJc
iPqwZuhQ0MQTDhGDyysKMasZyTPoOCrKeMzaV0KhQbZTTrUCAwEAAaOBojCBnzAJ
BgNVHRMEAjAAMB0GA1UdDgQWBBQ08EP0KO03uhFfkztqn/d/CBxKRjBRBgNVHSME
SjBIgBT1rknid2gliH3MPuK+mhxA1uZcqaEapBgwFjEUMBIGA1UEAwwLdGVhbTIy
NC1uZXSCFE+5t1sZxrQwJOBINcKUEAaVlMkKMBMGA1UdJQQMMAoGCCsGAQUFBwMC
MAsGA1UdDwQEAwIHgDANBgkqhkiG9w0BAQsFAAOCAQEAqjGmkEevG0tvlLP7kYIF
gAegn01ycbW8xzHHVKD5SJYqHsQO8th6jpsU1PXTnewRJMK8qNHjCKriensvEx9d
yk2hYtOVgh73QdNP0YcVKBsH2oFbdFVe8ZbHKFeI97YubeEh7mwdbzL7+2ojihrY
qy8LxSH9uMngaZdaZlHdeuO4xOSiYSH+98XgWNqZYo/aNwf3YLR9MadV37RUXMHV
QwwFrm7wr9gpa5fs5YOJALL7AD1C+OvxpGmQx4ERuEv9adrvFjRAXTX04zIWB8LW
6XOSjJ6sORw+ZXV1bHuxDafc9hmeZBUHAqgIwxSyTOZtXs+3DIfh5rudwGnWTpp9
8A==
-----END CERTIFICATE-----
