Certificate:
    Data:
        Version: 3 (0x2)
        Serial Number:
            37:ef:42:04:9a:e9:38:2a:10:c1:d9:28:0f:1c:05:36
        Signature Algorithm: sha256WithRSAEncryption
        Issuer: CN=team57-net
        Validity
            Not Before: May 18 14:24:38 2022 GMT
            Not After : May  2 14:24:38 2025 GMT
        Subject: CN=team57-client
        Subject Public Key Info:
            Public Key Algorithm: rsaEncryption
                RSA Public-Key: (2048 bit)
                Modulus:
                    00:e0:6e:a1:b1:9a:45:bd:04:b5:60:61:74:cf:4b:
                    2b:8a:ba:8d:c6:94:0c:8e:6b:47:b8:d4:bc:d7:17:
                    59:6d:46:e3:10:8b:de:43:91:8c:93:03:9d:36:55:
                    d0:fb:99:75:ec:2f:29:af:fb:b7:6e:62:93:fb:70:
                    e8:70:00:b0:fa:6f:74:db:96:1b:fe:4d:7a:00:7b:
                    c4:62:d9:c1:c3:5e:9f:3f:e2:d2:58:72:e5:e8:1f:
                    e4:2d:47:55:b0:11:78:14:39:bd:87:31:41:4c:84:
                    f2:1b:f6:33:f7:9e:ad:f4:fd:a2:68:16:e0:ca:59:
                    75:5e:f4:ac:dd:cd:22:58:14:90:19:73:ef:61:01:
                    7f:34:e7:c2:84:9c:ee:f9:e7:75:7c:83:3f:f9:11:
                    a4:c1:61:4e:48:8b:e9:75:1f:37:9a:1b:18:c1:eb:
                    89:c1:95:c8:3c:75:d0:b8:10:ac:b9:63:e3:6c:de:
                    a1:0c:06:9f:ed:a6:20:8d:05:3f:a8:fc:77:86:64:
                    77:82:d0:e5:e8:b5:52:49:c5:0c:e0:3c:88:5e:bd:
                    d6:4c:cc:60:35:a4:6c:3c:1a:20:28:61:86:2a:08:
                    2b:43:c5:23:f0:be:9d:22:2f:7b:33:40:53:01:e7:
                    cb:85:f3:3b:b7:b2:43:18:92:e2:18:6a:27:aa:06:
                    99:a1
                Exponent: 65537 (0x10001)
        X509v3 extensions:
            X509v3 Basic Constraints: 
                CA:FALSE
            X509v3 Subject Key Identifier: 
                30:32:98:16:89:B9:BD:09:4E:8D:E8:B0:AE:85:89:D0:1E:80:15:AC
            X509v3 Authority Key Identifier: 
                keyid:28:88:5B:8A:F9:3A:F7:61:DF:A3:49:43:E4:C2:B5:0A:91:EE:3D:54
                DirName:/CN=team57-net
                serial:64:42:18:DB:66:A1:6F:9D:67:1D:46:73:62:3C:66:6F:E3:3B:5D:67

            X509v3 Extended Key Usage: 
                TLS Web Client Authentication
            X509v3 Key Usage: 
                Digital Signature
    Signature Algorithm: sha256WithRSAEncryption
         32:f0:33:03:95:3f:cb:c7:ff:23:fb:a0:d9:45:97:af:60:ae:
         fb:64:bb:9b:c0:bb:f7:f1:fe:3c:22:62:cf:57:b8:05:a3:17:
         44:fd:3c:eb:2a:b1:70:76:db:fc:74:82:e4:ea:61:ea:a6:01:
         d7:45:96:96:93:81:02:9f:68:ec:d4:a1:9a:1c:59:9e:47:f9:
         75:a5:ba:b6:c2:f3:e3:b4:d6:81:29:f4:4e:64:84:2b:74:2a:
         23:87:70:d6:80:a8:e3:e5:33:10:23:be:89:10:7f:21:ce:b6:
         a0:1f:c4:29:b8:f4:4c:8c:98:5c:52:cf:aa:22:ac:18:3e:c0:
         d0:6f:22:ad:5a:47:c3:8e:e0:21:4e:16:0c:ab:a8:ec:4b:eb:
         5d:6c:ef:d2:45:91:cc:2e:e1:e0:0a:6f:91:f4:28:9a:e2:3d:
         0f:85:4a:88:38:88:3d:c4:cd:4c:13:5d:58:07:df:15:17:de:
         19:57:e9:40:20:ee:5d:0b:95:0e:d7:7f:54:6e:83:64:60:12:
         ea:78:8f:ca:79:6a:d5:33:fe:0d:26:a9:ef:2c:19:c9:a7:7f:
         46:88:3f:e6:db:c1:a6:99:d6:41:75:f7:82:99:63:d7:f8:90:
         b4:c5:c5:32:fa:6d:0a:57:00:38:f6:cb:1f:74:9a:86:33:99:
         4f:ab:f8:84
-----BEGIN CERTIFICATE-----
MIIDWTCCAkGgAwIBAgIQN+9CBJrpOCoQwdkoDxwFNjANBgkqhkiG9w0BAQsFADAV
MRMwEQYDVQQDDAp0ZWFtNTctbmV0MB4XDTIyMDUxODE0MjQzOFoXDTI1MDUwMjE0
MjQzOFowGDEWMBQGA1UEAwwNdGVhbTU3LWNsaWVudDCCASIwDQYJKoZIhvcNAQEB
BQADggEPADCCAQoCggEBAOBuobGaRb0EtWBhdM9LK4q6jcaUDI5rR7jUvNcXWW1G
4xCL3kORjJMDnTZV0PuZdewvKa/7t25ik/tw6HAAsPpvdNuWG/5NegB7xGLZwcNe
nz/i0lhy5egf5C1HVbAReBQ5vYcxQUyE8hv2M/eerfT9omgW4MpZdV70rN3NIlgU
kBlz72EBfzTnwoSc7vnndXyDP/kRpMFhTkiL6XUfN5obGMHricGVyDx10LgQrLlj
42zeoQwGn+2mII0FP6j8d4Zkd4LQ5ei1UknFDOA8iF691kzMYDWkbDwaIChhhioI
K0PFI/C+nSIvezNAUwHny4XzO7eyQxiS4hhqJ6oGmaECAwEAAaOBoTCBnjAJBgNV
HRMEAjAAMB0GA1UdDgQWBBQwMpgWibm9CU6N6LCuhYnQHoAVrDBQBgNVHSMESTBH
gBQoiFuK+Tr3Yd+jSUPkwrUKke49VKEZpBcwFTETMBEGA1UEAwwKdGVhbTU3LW5l
dIIUZEIY22ahb51nHUZzYjxmb+M7XWcwEwYDVR0lBAwwCgYIKwYBBQUHAwIwCwYD
VR0PBAQDAgeAMA0GCSqGSIb3DQEBCwUAA4IBAQAy8DMDlT/Lx/8j+6DZRZevYK77
ZLubwLv38f48ImLPV7gFoxdE/TzrKrFwdtv8dILk6mHqpgHXRZaWk4ECn2js1KGa
HFmeR/l1pbq2wvPjtNaBKfROZIQrdCojh3DWgKjj5TMQI76JEH8hzragH8QpuPRM
jJhcUs+qIqwYPsDQbyKtWkfDjuAhThYMq6jsS+tdbO/SRZHMLuHgCm+R9Cia4j0P
hUqIOIg9xM1ME11YB98VF94ZV+lAIO5dC5UO139UboNkYBLqeI/KeWrVM/4NJqnv
LBnJp39GiD/m28GmmdZBdfeCmWPX+JC0xcUy+m0KVwA49ssfdJqGM5lPq/iE
-----END CERTIFICATE-----
