Certificate:
    Data:
        Version: 3 (0x2)
        Serial Number:
            47:ac:a9:b3:0d:e1:09:cf:45:ec:7f:6b:26:31:fd:28
        Signature Algorithm: sha256WithRSAEncryption
        Issuer: CN=team618-net
        Validity
            Not Before: May 18 23:00:31 2022 GMT
            Not After : May  2 23:00:31 2025 GMT
        Subject: CN=team618-server
        Subject Public Key Info:
            Public Key Algorithm: rsaEncryption
                RSA Public-Key: (2048 bit)
                Modulus:
                    00:a0:bc:5f:97:27:fd:91:50:76:d7:6e:07:9c:da:
                    d5:cb:be:05:69:34:0c:64:a8:20:0f:fd:79:8b:a5:
                    ad:99:9c:84:74:29:03:80:d4:a6:6d:01:c7:a3:0a:
                    c5:2d:e7:64:8f:a5:8a:1e:83:d2:b6:b6:8e:26:67:
                    cc:80:5d:cd:b3:ec:5c:ea:56:60:2e:8e:e6:39:0c:
                    e2:3b:81:79:4d:15:4e:d7:54:10:4d:76:9c:7a:85:
                    11:03:d2:e2:04:21:0e:f1:8d:18:30:ba:70:77:bc:
                    59:8a:f2:0c:a2:ec:d5:cd:79:f0:d7:be:be:28:a6:
                    f2:18:f5:1b:9c:5c:80:82:c5:09:6b:3d:e1:d1:a2:
                    10:83:bd:72:94:fe:d2:5b:a4:6f:4a:18:5c:21:86:
                    98:20:64:24:39:17:53:4b:46:3f:b3:33:21:57:b4:
                    7b:f2:87:28:f6:34:6e:6b:d1:32:37:f2:b6:c9:9b:
                    c1:4a:dd:52:4e:47:61:5f:ab:f7:56:f8:a6:f8:8d:
                    fb:33:d5:3e:22:d3:0a:43:27:8e:2c:40:c0:2d:8f:
                    c8:f7:7f:4d:ca:d2:22:3c:ab:1a:8b:5d:76:2c:97:
                    09:08:72:b1:12:6e:fa:98:76:30:a8:e1:18:a2:67:
                    e6:b2:ab:24:49:3e:e0:91:69:a9:ba:f7:c9:63:d7:
                    bd:6d
                Exponent: 65537 (0x10001)
        X509v3 extensions:
            X509v3 Basic Constraints: 
                CA:FALSE
            X509v3 Subject Key Identifier: 
                42:F4:73:60:29:AA:E2:15:CD:C6:2E:80:FD:50:23:63:30:D5:6B:5C
            X509v3 Authority Key Identifier: 
                keyid:50:DB:C4:0D:B5:C7:05:15:1C:EC:F4:0A:28:73:7E:9C:A1:3F:89:D0
                DirName:/CN=team618-net
                serial:1B:3A:8A:1E:77:81:21:73:A5:04:3B:73:6D:B0:ED:8A:61:95:99:1C

            X509v3 Extended Key Usage: 
                TLS Web Server Authentication
            X509v3 Key Usage: 
                Digital Signature, Key Encipherment
            X509v3 Subject Alternative Name: 
                DNS:team618-server
    Signature Algorithm: sha256WithRSAEncryption
         62:65:9b:5e:d9:bf:d6:fb:46:ec:69:45:94:cf:2e:23:c3:9a:
         b9:55:95:15:08:bf:91:d8:cc:eb:1b:d6:24:ee:ec:98:73:57:
         d9:ba:1e:93:02:be:65:fd:48:dc:4f:05:5a:9d:7a:6d:0a:92:
         e2:33:79:8b:7a:31:f3:3c:14:0a:dc:3d:d3:ea:85:ab:1f:af:
         75:d6:b5:4a:6b:80:ef:eb:5e:22:ba:bd:74:bd:7c:39:3b:fd:
         94:15:76:d1:28:f0:21:26:c2:ac:46:19:4d:0d:6a:10:23:a1:
         8a:ad:9d:10:2b:a1:ef:b2:60:b6:b2:1a:34:69:87:f4:e4:43:
         7f:02:22:f1:51:ee:1c:7e:3c:a7:44:82:0e:a3:d5:c1:42:86:
         d6:d8:b7:78:1e:87:6d:e7:b5:05:ed:6c:50:25:ba:88:a8:bd:
         c7:a5:8d:c6:e4:74:42:83:32:76:1e:ad:1c:bd:a1:02:c9:76:
         d2:ed:22:e9:55:26:26:cb:15:6d:90:89:8c:56:1c:7f:35:c9:
         b5:d5:58:7a:96:bf:84:42:6a:9e:b8:58:98:99:00:de:1d:17:
         ad:ea:4b:dc:d4:3b:a9:94:d6:71:60:44:98:7d:33:09:7c:dc:
         91:a5:83:12:10:cc:5e:9b:0c:26:13:95:90:e8:51:47:59:b6:
         1e:9e:24:8e
-----BEGIN CERTIFICATE-----
MIIDdzCCAl+gAwIBAgIQR6ypsw3hCc9F7H9rJjH9KDANBgkqhkiG9w0BAQsFADAW
MRQwEgYDVQQDDAt0ZWFtNjE4LW5ldDAeFw0yMjA1MTgyMzAwMzFaFw0yNTA1MDIy
MzAwMzFaMBkxFzAVBgNVBAMMDnRlYW02MTgtc2VydmVyMIIBIjANBgkqhkiG9w0B
AQEFAAOCAQ8AMIIBCgKCAQEAoLxflyf9kVB2124HnNrVy74FaTQMZKggD/15i6Wt
mZyEdCkDgNSmbQHHowrFLedkj6WKHoPStraOJmfMgF3Ns+xc6lZgLo7mOQziO4F5
TRVO11QQTXaceoURA9LiBCEO8Y0YMLpwd7xZivIMouzVzXnw176+KKbyGPUbnFyA
gsUJaz3h0aIQg71ylP7SW6RvShhcIYaYIGQkORdTS0Y/szMhV7R78oco9jRua9Ey
N/K2yZvBSt1STkdhX6v3Vvim+I37M9U+ItMKQyeOLEDALY/I939NytIiPKsai112
LJcJCHKxEm76mHYwqOEYomfmsqskST7gkWmpuvfJY9e9bQIDAQABo4G9MIG6MAkG
A1UdEwQCMAAwHQYDVR0OBBYEFEL0c2ApquIVzcYugP1QI2Mw1WtcMFEGA1UdIwRK
MEiAFFDbxA21xwUVHOz0CihzfpyhP4nQoRqkGDAWMRQwEgYDVQQDDAt0ZWFtNjE4
LW5ldIIUGzqKHneBIXOlBDtzbbDtimGVmRwwEwYDVR0lBAwwCgYIKwYBBQUHAwEw
CwYDVR0PBAQDAgWgMBkGA1UdEQQSMBCCDnRlYW02MTgtc2VydmVyMA0GCSqGSIb3
DQEBCwUAA4IBAQBiZZte2b/W+0bsaUWUzy4jw5q5VZUVCL+R2MzrG9Yk7uyYc1fZ
uh6TAr5l/UjcTwVanXptCpLiM3mLejHzPBQK3D3T6oWrH6911rVKa4Dv614iur10
vXw5O/2UFXbRKPAhJsKsRhlNDWoQI6GKrZ0QK6HvsmC2sho0aYf05EN/AiLxUe4c
fjynRIIOo9XBQobW2Ld4Hodt57UF7WxQJbqIqL3HpY3G5HRCgzJ2Hq0cvaECyXbS
7SLpVSYmyxVtkImMVhx/Ncm11Vh6lr+EQmqeuFiYmQDeHRet6kvc1DuplNZxYESY
fTMJfNyRpYMSEMxemwwmE5WQ6FFHWbYeniSO
-----END CERTIFICATE-----
