Certificate:
    Data:
        Version: 3 (0x2)
        Serial Number:
            63:49:33:34:4e:ad:7b:ec:15:c8:5f:90:75:40:d7:91
        Signature Algorithm: sha256WithRSAEncryption
        Issuer: CN=team213-net
        Validity
            Not Before: May 18 19:08:03 2022 GMT
            Not After : May  2 19:08:03 2025 GMT
        Subject: CN=team213-server
        Subject Public Key Info:
            Public Key Algorithm: rsaEncryption
                RSA Public-Key: (2048 bit)
                Modulus:
                    00:f3:8f:0c:a7:9b:f7:18:9d:8b:d8:b3:16:66:44:
                    e6:42:5e:c8:31:30:2c:57:1a:08:70:6d:b4:0c:99:
                    f5:e9:37:57:b4:2f:cd:51:44:50:98:f3:c5:24:9c:
                    fe:31:00:e9:16:40:fc:ad:4c:55:38:2f:75:e1:c1:
                    66:4c:c7:c2:01:91:b5:3a:40:6b:b9:0d:93:fd:b9:
                    d0:81:28:e1:41:88:6a:1a:f9:36:04:e7:f8:d1:f9:
                    8d:30:dd:78:6c:9d:c5:19:9b:4b:4f:05:e6:1a:3c:
                    af:38:c7:63:40:e6:df:bf:dd:7d:32:21:6b:89:94:
                    6f:c3:53:40:1d:03:0f:26:c7:9b:59:17:ab:6c:38:
                    f5:72:03:42:9d:61:04:2a:f7:57:b8:f0:4d:4b:f2:
                    40:5a:13:4b:4b:66:b4:0e:13:2f:3e:73:cf:7e:ea:
                    1e:21:a4:a2:56:dc:20:cc:e2:25:c5:d2:5d:b5:37:
                    74:1b:0c:e8:12:b3:c9:43:3f:3d:93:94:99:0b:41:
                    a6:76:f6:b4:d1:e4:61:fe:2d:83:8e:91:a9:e6:c7:
                    7c:5a:59:05:fb:09:47:8f:b5:89:23:a0:84:53:65:
                    1b:54:1f:e1:95:50:ca:84:d2:a4:a3:d3:19:9d:69:
                    ee:66:f3:e3:c5:05:8f:1e:b9:a5:27:01:cf:c6:01:
                    41:dd
                Exponent: 65537 (0x10001)
        X509v3 extensions:
            X509v3 Basic Constraints: 
                CA:FALSE
            X509v3 Subject Key Identifier: 
                B0:58:92:19:E6:AC:70:54:FE:86:2C:36:E4:5E:55:47:15:50:03:E7
            X509v3 Authority Key Identifier: 
                keyid:E3:35:E5:0B:75:FD:60:68:39:3C:A8:80:3A:A5:E9:64:A2:DC:D1:A8
                DirName:/CN=team213-net
                serial:22:DB:70:D7:F9:5D:AC:F2:B5:E2:DD:C3:24:FD:30:08:7D:A1:65:B7

            X509v3 Extended Key Usage: 
                TLS Web Server Authentication
            X509v3 Key Usage: 
                Digital Signature, Key Encipherment
            X509v3 Subject Alternative Name: 
                DNS:team213-server
    Signature Algorithm: sha256WithRSAEncryption
         be:51:bf:87:10:ae:e9:02:3d:09:43:2b:b9:2d:88:95:ab:08:
         e2:27:47:aa:92:a2:a3:0d:85:aa:8f:fe:e5:5d:da:b8:5a:0f:
         9c:62:43:fc:ed:21:8a:27:d4:07:b3:14:09:a9:91:67:5e:63:
         36:15:71:90:5c:ef:37:fe:ba:38:a2:12:44:1c:23:74:0f:ff:
         1d:dc:b8:4c:39:44:2a:43:d9:de:6b:1e:91:b8:8d:a9:02:65:
         3b:1a:1d:75:3e:57:2d:43:d9:42:b9:f2:4a:1f:4a:51:c6:ae:
         10:5e:12:9c:cb:59:cb:37:94:73:f1:0e:72:e0:93:51:c4:fe:
         2b:dd:69:6d:16:bd:6d:09:ba:88:71:ea:11:b8:25:e9:bb:55:
         4f:8c:ba:de:fd:4c:35:45:9c:1e:8c:fe:02:b9:36:a7:a7:9d:
         6e:27:c9:8e:94:0e:ef:53:24:16:ff:56:1e:12:48:69:fb:3d:
         87:ad:57:79:50:0d:b4:18:63:1f:3a:6a:bd:9b:82:d7:2c:92:
         46:5c:49:72:b0:d8:0c:17:2b:92:cf:27:a9:f3:a9:d3:5a:39:
         88:c3:7e:d6:32:1c:68:d5:be:f9:d5:95:2e:87:12:1f:cf:b4:
         1d:41:5f:68:db:cc:8f:ae:17:f7:86:ac:d3:7c:d1:2b:65:a2:
         7d:a7:52:ae
-----BEGIN CERTIFICATE-----
MIIDdzCCAl+gAwIBAgIQY0kzNE6te+wVyF+QdUDXkTANBgkqhkiG9w0BAQsFADAW
MRQwEgYDVQQDDAt0ZWFtMjEzLW5ldDAeFw0yMjA1MTgxOTA4MDNaFw0yNTA1MDIx
OTA4MDNaMBkxFzAVBgNVBAMMDnRlYW0yMTMtc2VydmVyMIIBIjANBgkqhkiG9w0B
AQEFAAOCAQ8AMIIBCgKCAQEA848Mp5v3GJ2L2LMWZkTmQl7IMTAsVxoIcG20DJn1
6TdXtC/NUURQmPPFJJz+MQDpFkD8rUxVOC914cFmTMfCAZG1OkBruQ2T/bnQgSjh
QYhqGvk2BOf40fmNMN14bJ3FGZtLTwXmGjyvOMdjQObfv919MiFriZRvw1NAHQMP
JsebWRerbDj1cgNCnWEEKvdXuPBNS/JAWhNLS2a0DhMvPnPPfuoeIaSiVtwgzOIl
xdJdtTd0GwzoErPJQz89k5SZC0Gmdva00eRh/i2DjpGp5sd8WlkF+wlHj7WJI6CE
U2UbVB/hlVDKhNKko9MZnWnuZvPjxQWPHrmlJwHPxgFB3QIDAQABo4G9MIG6MAkG
A1UdEwQCMAAwHQYDVR0OBBYEFLBYkhnmrHBU/oYsNuReVUcVUAPnMFEGA1UdIwRK
MEiAFOM15Qt1/WBoOTyogDql6WSi3NGooRqkGDAWMRQwEgYDVQQDDAt0ZWFtMjEz
LW5ldIIUIttw1/ldrPK14t3DJP0wCH2hZbcwEwYDVR0lBAwwCgYIKwYBBQUHAwEw
CwYDVR0PBAQDAgWgMBkGA1UdEQQSMBCCDnRlYW0yMTMtc2VydmVyMA0GCSqGSIb3
DQEBCwUAA4IBAQC+Ub+HEK7pAj0JQyu5LYiVqwjiJ0eqkqKjDYWqj/7lXdq4Wg+c
YkP87SGKJ9QHsxQJqZFnXmM2FXGQXO83/ro4ohJEHCN0D/8d3LhMOUQqQ9neax6R
uI2pAmU7Gh11PlctQ9lCufJKH0pRxq4QXhKcy1nLN5Rz8Q5y4JNRxP4r3WltFr1t
CbqIceoRuCXpu1VPjLre/Uw1RZwejP4CuTanp51uJ8mOlA7vUyQW/1YeEkhp+z2H
rVd5UA20GGMfOmq9m4LXLJJGXElysNgMFyuSzyep86nTWjmIw37WMhxo1b751ZUu
hxIfz7QdQV9o28yPrhf3hqzTfNErZaJ9p1Ku
-----END CERTIFICATE-----
