Certificate:
    Data:
        Version: 3 (0x2)
        Serial Number:
            ab:70:79:49:3c:84:5d:1d:76:1b:4a:f8:2c:b4:e9:76
        Signature Algorithm: sha256WithRSAEncryption
        Issuer: CN=team590-net
        Validity
            Not Before: May 18 22:36:50 2022 GMT
            Not After : May  2 22:36:50 2025 GMT
        Subject: CN=team590-server
        Subject Public Key Info:
            Public Key Algorithm: rsaEncryption
                RSA Public-Key: (2048 bit)
                Modulus:
                    00:eb:10:f9:b8:cc:34:23:07:2f:da:86:d5:99:53:
                    da:1c:85:e3:29:ca:fe:23:b7:ac:e6:32:ac:2c:73:
                    db:9f:a3:f3:db:4c:90:23:c3:1c:33:83:e9:b3:9b:
                    37:91:93:19:c3:f9:2a:31:90:46:86:46:c6:38:03:
                    0d:9f:8d:66:12:8f:a3:36:1a:89:e5:72:88:8d:32:
                    99:0a:89:22:26:c0:e2:66:60:81:3e:8d:db:51:3b:
                    e3:57:70:c1:80:7b:5b:fc:53:af:ce:35:e8:8f:7f:
                    3a:37:a4:cf:b7:32:c4:2b:07:94:47:5c:68:82:92:
                    20:53:85:dd:85:7c:6c:8b:64:c4:87:3d:58:8b:43:
                    01:8f:0f:6e:0e:77:5b:87:d7:03:d7:f5:a6:7b:bf:
                    8a:27:7f:c1:c5:2d:6b:d4:7b:02:03:c9:1f:ec:4d:
                    30:2f:d4:5c:f5:42:2d:94:9a:b9:58:e6:c3:66:a3:
                    22:cf:2d:1b:59:fd:98:4b:20:b3:5a:10:e3:90:78:
                    aa:ed:7f:ad:4d:33:72:7e:03:af:51:16:73:f4:10:
                    b1:a5:c4:19:0e:4b:e2:43:2f:9e:df:e6:09:ec:ea:
                    dd:df:0a:8c:11:1d:5a:fd:0c:9d:06:e9:17:62:d4:
                    2d:ee:d5:54:41:27:f0:89:cc:c6:87:81:bb:50:4e:
                    33:51
                Exponent: 65537 (0x10001)
        X509v3 extensions:
            X509v3 Basic Constraints: 
                CA:FALSE
            X509v3 Subject Key Identifier: 
                F1:FA:30:19:F2:F4:0B:04:DA:AC:C8:CB:81:81:F5:B1:D1:4C:83:6D
            X509v3 Authority Key Identifier: 
                keyid:E4:96:E4:48:95:56:B6:9D:AB:3A:41:9B:74:08:55:A5:ED:28:E3:D9
                DirName:/CN=team590-net
                serial:53:97:E3:6D:4F:7D:61:0B:C5:5C:E0:65:E3:FF:45:5B:F5:DD:10:94

            X509v3 Extended Key Usage: 
                TLS Web Server Authentication
            X509v3 Key Usage: 
                Digital Signature, Key Encipherment
            X509v3 Subject Alternative Name: 
                DNS:team590-server
    Signature Algorithm: sha256WithRSAEncryption
         2e:89:06:80:35:5e:f3:8f:cd:49:62:e5:3e:af:32:b5:00:82:
         f2:de:10:28:ad:38:63:6f:00:d8:0a:fd:23:01:c9:47:3d:66:
         d4:7a:80:05:f2:2a:c7:10:77:8a:01:32:07:24:88:95:49:b8:
         18:8b:fd:f8:7c:48:51:00:94:62:69:d3:5d:0a:fb:56:ae:db:
         8e:10:66:e9:4d:eb:fa:3a:e8:42:e6:28:7f:6e:31:20:47:6f:
         f8:39:5c:99:21:14:77:e9:f4:4e:5b:cf:a2:0b:28:a7:b6:eb:
         08:72:ee:4e:0d:bf:c3:01:78:a5:09:e1:fa:9e:25:34:7c:a2:
         d1:bd:ff:02:22:13:57:0f:1c:c4:42:7c:d1:3d:3e:e6:c2:de:
         a5:01:fd:62:6e:57:43:12:6d:0d:11:19:15:45:44:43:f3:b0:
         ce:82:74:aa:e8:db:c2:d5:6d:1c:76:3b:dd:95:98:39:19:fb:
         3d:83:69:9f:06:a7:e5:59:27:f5:77:db:0e:bb:c8:f0:2c:5d:
         36:fc:fd:5f:86:81:c4:e2:7e:e6:68:8d:81:08:35:41:14:4b:
         43:97:86:0c:17:db:08:5e:c2:2f:8e:2e:6b:8d:49:6c:0b:37:
         be:4c:95:c1:ea:3f:94:93:47:97:ea:c4:74:f0:a6:d7:f8:f8:
         22:37:58:69
-----BEGIN CERTIFICATE-----
MIIDeDCCAmCgAwIBAgIRAKtweUk8hF0ddhtK+Cy06XYwDQYJKoZIhvcNAQELBQAw
FjEUMBIGA1UEAwwLdGVhbTU5MC1uZXQwHhcNMjIwNTE4MjIzNjUwWhcNMjUwNTAy
MjIzNjUwWjAZMRcwFQYDVQQDDA50ZWFtNTkwLXNlcnZlcjCCASIwDQYJKoZIhvcN
AQEBBQADggEPADCCAQoCggEBAOsQ+bjMNCMHL9qG1ZlT2hyF4ynK/iO3rOYyrCxz
25+j89tMkCPDHDOD6bObN5GTGcP5KjGQRoZGxjgDDZ+NZhKPozYaieVyiI0ymQqJ
IibA4mZggT6N21E741dwwYB7W/xTr8416I9/Ojekz7cyxCsHlEdcaIKSIFOF3YV8
bItkxIc9WItDAY8Pbg53W4fXA9f1pnu/iid/wcUta9R7AgPJH+xNMC/UXPVCLZSa
uVjmw2ajIs8tG1n9mEsgs1oQ45B4qu1/rU0zcn4Dr1EWc/QQsaXEGQ5L4kMvnt/m
Cezq3d8KjBEdWv0MnQbpF2LULe7VVEEn8InMxoeBu1BOM1ECAwEAAaOBvTCBujAJ
BgNVHRMEAjAAMB0GA1UdDgQWBBTx+jAZ8vQLBNqsyMuBgfWx0UyDbTBRBgNVHSME
SjBIgBTkluRIlVa2nas6QZt0CFWl7Sjj2aEapBgwFjEUMBIGA1UEAwwLdGVhbTU5
MC1uZXSCFFOX421PfWELxVzgZeP/RVv13RCUMBMGA1UdJQQMMAoGCCsGAQUFBwMB
MAsGA1UdDwQEAwIFoDAZBgNVHREEEjAQgg50ZWFtNTkwLXNlcnZlcjANBgkqhkiG
9w0BAQsFAAOCAQEALokGgDVe84/NSWLlPq8ytQCC8t4QKK04Y28A2Ar9IwHJRz1m
1HqABfIqxxB3igEyBySIlUm4GIv9+HxIUQCUYmnTXQr7Vq7bjhBm6U3r+jroQuYo
f24xIEdv+DlcmSEUd+n0TlvPogsop7brCHLuTg2/wwF4pQnh+p4lNHyi0b3/AiIT
Vw8cxEJ80T0+5sLepQH9Ym5XQxJtDREZFUVEQ/OwzoJ0qujbwtVtHHY73ZWYORn7
PYNpnwan5Vkn9XfbDrvI8CxdNvz9X4aBxOJ+5miNgQg1QRRLQ5eGDBfbCF7CL44u
a41JbAs3vkyVweo/lJNHl+rEdPCm1/j4IjdYaQ==
-----END CERTIFICATE-----
