Certificate:
    Data:
        Version: 3 (0x2)
        Serial Number:
            7d:5e:2f:f3:df:0a:42:05:d8:15:0e:f2:c6:fd:e0:ca
        Signature Algorithm: sha256WithRSAEncryption
        Issuer: CN=team126-net
        Validity
            Not Before: May 18 15:06:12 2022 GMT
            Not After : May  2 15:06:12 2025 GMT
        Subject: CN=team126-server
        Subject Public Key Info:
            Public Key Algorithm: rsaEncryption
                RSA Public-Key: (2048 bit)
                Modulus:
                    00:ca:67:64:97:0b:a8:07:9e:76:d6:86:ab:66:ad:
                    fc:2b:62:7d:b5:d6:92:c5:cb:2f:79:0f:10:0d:eb:
                    4c:7d:58:7e:aa:54:03:d4:f9:68:87:86:f8:0e:f9:
                    d2:4d:21:85:3d:5e:8d:48:f1:c7:56:78:88:38:c4:
                    30:5e:5a:1b:e2:74:80:25:57:31:5a:5b:4c:20:06:
                    c5:e2:27:42:5d:af:b0:da:52:e2:3b:f2:d0:b3:3d:
                    90:17:07:62:a4:59:9d:75:e5:e6:55:82:fa:7e:7d:
                    06:52:c2:1c:24:6f:d3:60:42:f9:f2:09:4a:a3:9c:
                    21:75:5c:5c:62:aa:a8:3d:c2:2e:18:35:08:85:b3:
                    d4:56:36:7b:b0:a4:13:ad:fc:a0:9a:27:b8:cd:bb:
                    9a:a1:62:34:fb:ae:ed:f2:6a:c6:24:ab:63:a5:98:
                    1e:f7:9a:5e:2f:d6:06:1b:82:e7:40:9b:b6:d8:8f:
                    40:86:3e:7c:e9:a7:02:f6:d1:22:63:71:90:fb:d4:
                    44:82:42:6a:03:2c:81:13:dc:30:64:62:25:f4:a5:
                    7f:a8:54:eb:a8:ec:23:91:5d:ef:a4:a6:01:81:94:
                    1a:ed:62:31:42:83:30:6f:13:db:2b:45:e8:bc:57:
                    c7:01:f5:ed:70:29:f0:cf:4d:3d:19:a9:d0:84:e5:
                    62:57
                Exponent: 65537 (0x10001)
        X509v3 extensions:
            X509v3 Basic Constraints: 
                CA:FALSE
            X509v3 Subject Key Identifier: 
                38:20:B1:F0:75:DA:58:A4:4D:27:4E:0E:73:4B:B5:57:18:E0:00:C6
            X509v3 Authority Key Identifier: 
                keyid:75:CA:6F:21:70:1C:8A:B1:67:F7:88:9A:0C:22:C0:76:1F:3C:9D:CE
                DirName:/CN=team126-net
                serial:6A:AB:3C:03:2E:A7:51:D9:20:4F:67:02:68:A7:67:DD:71:10:94:52

            X509v3 Extended Key Usage: 
                TLS Web Server Authentication
            X509v3 Key Usage: 
                Digital Signature, Key Encipherment
            X509v3 Subject Alternative Name: 
                DNS:team126-server
    Signature Algorithm: sha256WithRSAEncryption
         cf:51:b8:21:d1:86:8d:ee:ca:04:c3:f5:0b:dd:d2:f0:e6:c2:
         95:24:b3:8b:9f:08:8b:7c:46:6b:43:1e:91:d8:8e:60:5e:70:
         18:4a:85:0e:c4:51:5c:dc:10:aa:54:66:df:39:36:e2:3b:a3:
         e5:a8:a8:b5:29:f1:85:2d:57:d3:9b:b7:9a:c3:00:06:8c:a0:
         75:f8:33:3b:c9:f8:a3:f2:8f:cb:a7:6d:06:46:9f:6b:50:d4:
         30:25:88:84:52:02:70:5b:0f:5e:5a:ec:4b:74:02:fa:74:e1:
         5a:4f:cd:07:2f:e0:97:30:e1:36:2c:40:d8:1a:40:f8:fd:8b:
         37:08:d5:18:0d:64:6c:0e:e6:9b:b7:4b:66:b2:1e:48:35:84:
         93:f7:51:b4:5c:16:15:0f:48:6a:89:c3:07:c4:ef:66:b3:c5:
         0a:99:a8:26:0f:8b:75:9c:5d:43:94:17:5e:cc:e2:d6:2c:82:
         5c:a0:6a:a4:07:92:88:54:6d:20:cb:a9:fb:a4:8a:1c:c2:f6:
         4b:52:1f:8b:da:e0:63:0c:49:2f:bc:1a:1e:bb:91:dd:49:dc:
         13:13:6c:6b:04:c5:70:55:66:01:66:27:5a:44:52:ac:54:97:
         c4:03:56:72:f9:76:ef:50:51:c0:9d:ef:56:60:ed:7e:d9:40:
         86:df:2b:2f
-----BEGIN CERTIFICATE-----
MIIDdzCCAl+gAwIBAgIQfV4v898KQgXYFQ7yxv3gyjANBgkqhkiG9w0BAQsFADAW
MRQwEgYDVQQDDAt0ZWFtMTI2LW5ldDAeFw0yMjA1MTgxNTA2MTJaFw0yNTA1MDIx
NTA2MTJaMBkxFzAVBgNVBAMMDnRlYW0xMjYtc2VydmVyMIIBIjANBgkqhkiG9w0B
AQEFAAOCAQ8AMIIBCgKCAQEAymdklwuoB5521oarZq38K2J9tdaSxcsveQ8QDetM
fVh+qlQD1Ploh4b4DvnSTSGFPV6NSPHHVniIOMQwXlob4nSAJVcxWltMIAbF4idC
Xa+w2lLiO/LQsz2QFwdipFmddeXmVYL6fn0GUsIcJG/TYEL58glKo5whdVxcYqqo
PcIuGDUIhbPUVjZ7sKQTrfygmie4zbuaoWI0+67t8mrGJKtjpZge95peL9YGG4Ln
QJu22I9Ahj586acC9tEiY3GQ+9REgkJqAyyBE9wwZGIl9KV/qFTrqOwjkV3vpKYB
gZQa7WIxQoMwbxPbK0XovFfHAfXtcCnwz009GanQhOViVwIDAQABo4G9MIG6MAkG
A1UdEwQCMAAwHQYDVR0OBBYEFDggsfB12likTSdODnNLtVcY4ADGMFEGA1UdIwRK
MEiAFHXKbyFwHIqxZ/eImgwiwHYfPJ3OoRqkGDAWMRQwEgYDVQQDDAt0ZWFtMTI2
LW5ldIIUaqs8Ay6nUdkgT2cCaKdn3XEQlFIwEwYDVR0lBAwwCgYIKwYBBQUHAwEw
CwYDVR0PBAQDAgWgMBkGA1UdEQQSMBCCDnRlYW0xMjYtc2VydmVyMA0GCSqGSIb3
DQEBCwUAA4IBAQDPUbgh0YaN7soEw/UL3dLw5sKVJLOLnwiLfEZrQx6R2I5gXnAY
SoUOxFFc3BCqVGbfOTbiO6PlqKi1KfGFLVfTm7eawwAGjKB1+DM7yfij8o/Lp20G
Rp9rUNQwJYiEUgJwWw9eWuxLdAL6dOFaT80HL+CXMOE2LEDYGkD4/Ys3CNUYDWRs
Duabt0tmsh5INYST91G0XBYVD0hqicMHxO9ms8UKmagmD4t1nF1DlBdezOLWLIJc
oGqkB5KIVG0gy6n7pIocwvZLUh+L2uBjDEkvvBoeu5HdSdwTE2xrBMVwVWYBZida
RFKsVJfEA1Zy+XbvUFHAne9WYO1+2UCG3ysv
-----END CERTIFICATE-----
