Certificate:
    Data:
        Version: 3 (0x2)
        Serial Number:
            88:36:02:ca:70:bd:f1:ae:82:5c:61:26:0a:0b:3a:2c
        Signature Algorithm: sha256WithRSAEncryption
        Issuer: CN=team126-net
        Validity
            Not Before: May 18 15:06:12 2022 GMT
            Not After : May  2 15:06:12 2025 GMT
        Subject: CN=team126-client
        Subject Public Key Info:
            Public Key Algorithm: rsaEncryption
                RSA Public-Key: (2048 bit)
                Modulus:
                    00:b5:b1:1f:8f:19:6e:4b:b7:79:9e:b4:63:e2:4e:
                    26:c1:1d:60:5f:23:d3:d0:9a:74:74:fa:fc:4d:ba:
                    75:e5:8d:d7:68:ed:b1:7a:8b:ab:13:94:98:53:03:
                    b9:bc:e2:b1:55:3f:5e:c5:01:00:ec:3a:b9:7f:fe:
                    ba:3f:39:25:5d:a3:02:bb:8b:03:56:ce:5a:ec:7f:
                    a5:c4:86:3a:7a:d9:d9:03:6f:fe:d4:6f:a2:3d:b0:
                    59:51:01:fb:58:4a:96:7c:dc:0b:dc:80:95:23:85:
                    e5:cd:83:08:2b:85:c7:3e:df:25:32:ea:3d:b2:7e:
                    09:8d:2a:11:47:29:17:69:01:30:3a:dd:72:b1:6b:
                    01:4a:e6:c9:03:50:30:66:d2:e3:95:67:0d:25:50:
                    3e:14:96:10:3d:c6:aa:ba:f4:9a:9e:23:e3:12:1a:
                    7c:36:65:e7:0d:8a:e7:26:24:7d:8d:6d:de:b0:d9:
                    f2:62:db:2b:ec:23:3b:94:ff:bd:d6:a8:db:c8:c3:
                    fe:c4:a7:f9:b4:b4:8c:52:53:1d:7d:ec:47:57:2a:
                    f2:9d:3c:50:0f:10:2b:82:8d:f9:74:8e:dc:1c:4e:
                    1b:e3:2c:c0:57:e7:e8:33:58:5b:ec:82:3d:f0:f7:
                    06:42:71:04:f3:d1:52:f8:dd:ce:51:93:10:30:ad:
                    76:4d
                Exponent: 65537 (0x10001)
        X509v3 extensions:
            X509v3 Basic Constraints: 
                CA:FALSE
            X509v3 Subject Key Identifier: 
                40:27:82:A9:1F:0D:B6:CF:CA:1A:52:01:4A:C5:FE:AA:DE:FE:DE:F0
            X509v3 Authority Key Identifier: 
                keyid:75:CA:6F:21:70:1C:8A:B1:67:F7:88:9A:0C:22:C0:76:1F:3C:9D:CE
                DirName:/CN=team126-net
                serial:6A:AB:3C:03:2E:A7:51:D9:20:4F:67:02:68:A7:67:DD:71:10:94:52

            X509v3 Extended Key Usage: 
                TLS Web Client Authentication
            X509v3 Key Usage: 
                Digital Signature
    Signature Algorithm: sha256WithRSAEncryption
         82:f9:fe:98:7a:47:0b:6e:f0:4d:f7:69:b2:2c:66:1d:f7:13:
         d2:3c:7f:67:04:4b:6d:7f:ee:82:bb:e3:2f:c4:4d:12:34:c9:
         3f:90:00:d5:51:c5:50:c8:47:7f:72:c4:60:9e:f6:92:90:39:
         cd:f8:39:cb:c5:de:b3:c3:70:55:c9:b9:db:74:08:c3:52:fa:
         8e:ca:90:35:61:eb:a6:7f:3d:68:57:57:29:ce:76:60:20:f4:
         24:dd:83:1c:06:9d:7e:44:e6:c2:12:e8:b4:64:cb:8f:ec:7f:
         1e:d3:76:e4:d3:54:a4:9d:f7:a5:27:3c:68:df:80:5d:ca:ad:
         77:89:cd:52:af:95:8e:c5:8b:59:cc:4a:a7:27:78:3a:a1:b4:
         b2:36:7a:a0:d8:d8:01:9c:e1:b5:07:9a:a0:74:89:41:cb:8f:
         dd:47:e2:a7:25:cd:4d:e3:90:fb:e6:f2:32:d1:72:1d:8b:22:
         35:00:e4:38:f0:f6:28:cf:b2:40:81:39:e1:95:65:e5:f2:96:
         f0:ed:5c:da:74:15:5e:f6:bc:67:dd:d0:53:16:97:e0:f4:94:
         3d:be:d5:a9:39:5b:23:75:b2:40:25:c9:c8:63:89:6c:c2:4c:
         8f:91:e1:5b:65:ce:41:3f:e8:49:a3:6a:57:b2:38:a7:ec:a8:
         79:c9:d6:fa
-----BEGIN CERTIFICATE-----
MIIDXTCCAkWgAwIBAgIRAIg2AspwvfGuglxhJgoLOiwwDQYJKoZIhvcNAQELBQAw
FjEUMBIGA1UEAwwLdGVhbTEyNi1uZXQwHhcNMjIwNTE4MTUwNjEyWhcNMjUwNTAy
MTUwNjEyWjAZMRcwFQYDVQQDDA50ZWFtMTI2LWNsaWVudDCCASIwDQYJKoZIhvcN
AQEBBQADggEPADCCAQoCggEBALWxH48Zbku3eZ60Y+JOJsEdYF8j09CadHT6/E26
deWN12jtsXqLqxOUmFMDubzisVU/XsUBAOw6uX/+uj85JV2jAruLA1bOWux/pcSG
OnrZ2QNv/tRvoj2wWVEB+1hKlnzcC9yAlSOF5c2DCCuFxz7fJTLqPbJ+CY0qEUcp
F2kBMDrdcrFrAUrmyQNQMGbS45VnDSVQPhSWED3Gqrr0mp4j4xIafDZl5w2K5yYk
fY1t3rDZ8mLbK+wjO5T/vdao28jD/sSn+bS0jFJTHX3sR1cq8p08UA8QK4KN+XSO
3BxOG+MswFfn6DNYW+yCPfD3BkJxBPPRUvjdzlGTEDCtdk0CAwEAAaOBojCBnzAJ
BgNVHRMEAjAAMB0GA1UdDgQWBBRAJ4KpHw22z8oaUgFKxf6q3v7e8DBRBgNVHSME
SjBIgBR1ym8hcByKsWf3iJoMIsB2HzydzqEapBgwFjEUMBIGA1UEAwwLdGVhbTEy
Ni1uZXSCFGqrPAMup1HZIE9nAminZ91xEJRSMBMGA1UdJQQMMAoGCCsGAQUFBwMC
MAsGA1UdDwQEAwIHgDANBgkqhkiG9w0BAQsFAAOCAQEAgvn+mHpHC27wTfdpsixm
HfcT0jx/ZwRLbX/ugrvjL8RNEjTJP5AA1VHFUMhHf3LEYJ72kpA5zfg5y8Xes8Nw
Vcm523QIw1L6jsqQNWHrpn89aFdXKc52YCD0JN2DHAadfkTmwhLotGTLj+x/HtN2
5NNUpJ33pSc8aN+AXcqtd4nNUq+VjsWLWcxKpyd4OqG0sjZ6oNjYAZzhtQeaoHSJ
QcuP3UfipyXNTeOQ++byMtFyHYsiNQDkOPD2KM+yQIE54ZVl5fKW8O1c2nQVXva8
Z93QUxaX4PSUPb7VqTlbI3WyQCXJyGOJbMJMj5HhW2XOQT/oSaNqV7I4p+yoecnW
+g==
-----END CERTIFICATE-----
