Certificate:
    Data:
        Version: 3 (0x2)
        Serial Number:
            0f:3a:f2:5f:ff:a1:99:0a:e4:d6:40:18:b6:45:0d:c5
        Signature Algorithm: sha256WithRSAEncryption
        Issuer: CN=team350-net
        Validity
            Not Before: May 18 20:35:03 2022 GMT
            Not After : May  2 20:35:03 2025 GMT
        Subject: CN=team350-client
        Subject Public Key Info:
            Public Key Algorithm: rsaEncryption
                RSA Public-Key: (2048 bit)
                Modulus:
                    00:d9:4f:07:34:d4:77:7b:2f:1c:12:c5:a0:b4:85:
                    93:10:f7:cd:c0:f5:dc:c6:5f:b8:22:50:de:30:57:
                    63:2f:e5:7c:89:4c:fc:dc:b6:1e:9f:55:7f:2a:9f:
                    12:48:56:22:27:1f:a9:ae:6b:3b:99:cc:3d:94:1a:
                    93:69:c6:98:f6:6d:ce:34:04:e3:35:8c:11:39:b9:
                    8e:0e:7d:f4:c2:c2:60:1a:8b:21:60:fa:85:b4:7f:
                    3b:f2:04:98:0b:d4:3c:a3:78:39:76:83:c3:68:79:
                    65:e7:24:32:9c:ee:c2:59:8b:8c:e1:c4:ab:e6:81:
                    38:1c:aa:ad:29:ca:14:be:f2:77:0a:b9:d4:eb:07:
                    85:96:84:63:2c:1a:db:d4:5d:04:0d:15:08:5f:a2:
                    2b:f1:07:2d:68:4a:76:38:2f:5d:4c:a9:8c:07:9e:
                    3d:f4:26:82:51:2d:8e:7e:65:f6:50:6e:ee:2c:82:
                    9b:f1:ed:07:bf:c3:ba:87:5d:bb:e6:82:df:44:88:
                    b5:00:50:73:18:6c:78:40:58:2e:02:e2:1f:21:a7:
                    b1:25:8d:46:37:15:13:a4:46:6a:69:a8:9c:a7:4c:
                    c8:66:74:60:ce:b9:43:8c:1e:d4:26:05:10:24:dd:
                    1a:7d:8e:d8:25:be:b0:1e:77:33:0f:75:06:24:62:
                    a5:b5
                Exponent: 65537 (0x10001)
        X509v3 extensions:
            X509v3 Basic Constraints: 
                CA:FALSE
            X509v3 Subject Key Identifier: 
                E8:B4:47:D9:D6:60:86:62:1F:73:1B:F9:A4:FA:34:C5:B8:92:F9:6F
            X509v3 Authority Key Identifier: 
                keyid:1A:0A:57:CC:30:92:50:E8:EB:F4:74:13:B5:53:13:84:B2:FA:6F:07
                DirName:/CN=team350-net
                serial:2D:1A:B0:77:90:70:7B:D6:E4:EF:8E:C0:37:F9:D3:39:59:46:B7:05

            X509v3 Extended Key Usage: 
                TLS Web Client Authentication
            X509v3 Key Usage: 
                Digital Signature
    Signature Algorithm: sha256WithRSAEncryption
         74:2e:d8:e7:65:2a:ab:83:c3:6d:c4:f5:f0:4f:83:5d:8f:97:
         45:55:df:77:ad:85:95:40:8d:dc:0c:b1:8c:37:4e:c9:73:38:
         81:e3:7d:9c:2a:e9:18:fa:40:d6:62:84:0d:3e:ea:a3:db:d0:
         36:98:aa:e2:41:ca:fb:06:8d:70:d6:32:00:f1:0a:de:a6:ab:
         a6:28:24:7f:23:d5:19:17:fa:18:30:5e:a7:83:87:ba:3c:18:
         7d:45:7b:46:68:2e:08:83:ef:07:a1:37:ee:a1:1f:7d:75:59:
         3f:8b:79:c8:5f:55:d8:84:7e:e3:da:42:c2:a4:a6:4f:da:2b:
         3a:46:02:fc:f5:b7:eb:c0:0a:fc:eb:6c:8f:88:18:de:95:3d:
         a0:5a:47:a1:e9:26:56:ab:09:e6:ed:2f:40:4d:02:1f:46:16:
         3f:7b:b0:2c:37:db:f8:83:f6:e3:a5:a0:86:dc:5d:71:ba:28:
         6f:a6:a3:98:5a:a8:31:29:2b:8f:1e:54:aa:5b:be:b1:f3:77:
         38:8c:8e:4a:e7:f1:41:11:fb:9a:7f:84:f8:8d:45:88:2b:0d:
         f3:1b:03:64:44:6c:e2:d4:94:64:66:1a:f5:2c:bb:71:85:c5:
         f4:cd:cc:9e:5a:b1:35:3a:1c:19:32:c4:97:74:58:63:98:dd:
         33:5e:4a:7b
-----BEGIN CERTIFICATE-----
MIIDXDCCAkSgAwIBAgIQDzryX/+hmQrk1kAYtkUNxTANBgkqhkiG9w0BAQsFADAW
MRQwEgYDVQQDDAt0ZWFtMzUwLW5ldDAeFw0yMjA1MTgyMDM1MDNaFw0yNTA1MDIy
MDM1MDNaMBkxFzAVBgNVBAMMDnRlYW0zNTAtY2xpZW50MIIBIjANBgkqhkiG9w0B
AQEFAAOCAQ8AMIIBCgKCAQEA2U8HNNR3ey8cEsWgtIWTEPfNwPXcxl+4IlDeMFdj
L+V8iUz83LYen1V/Kp8SSFYiJx+prms7mcw9lBqTacaY9m3ONATjNYwRObmODn30
wsJgGoshYPqFtH878gSYC9Q8o3g5doPDaHll5yQynO7CWYuM4cSr5oE4HKqtKcoU
vvJ3CrnU6weFloRjLBrb1F0EDRUIX6Ir8QctaEp2OC9dTKmMB5499CaCUS2OfmX2
UG7uLIKb8e0Hv8O6h1275oLfRIi1AFBzGGx4QFguAuIfIaexJY1GNxUTpEZqaaic
p0zIZnRgzrlDjB7UJgUQJN0afY7YJb6wHnczD3UGJGKltQIDAQABo4GiMIGfMAkG
A1UdEwQCMAAwHQYDVR0OBBYEFOi0R9nWYIZiH3Mb+aT6NMW4kvlvMFEGA1UdIwRK
MEiAFBoKV8wwklDo6/R0E7VTE4Sy+m8HoRqkGDAWMRQwEgYDVQQDDAt0ZWFtMzUw
LW5ldIIULRqwd5Bwe9bk747AN/nTOVlGtwUwEwYDVR0lBAwwCgYIKwYBBQUHAwIw
CwYDVR0PBAQDAgeAMA0GCSqGSIb3DQEBCwUAA4IBAQB0LtjnZSqrg8NtxPXwT4Nd
j5dFVd93rYWVQI3cDLGMN07JcziB432cKukY+kDWYoQNPuqj29A2mKriQcr7Bo1w
1jIA8QrepqumKCR/I9UZF/oYMF6ng4e6PBh9RXtGaC4Ig+8HoTfuoR99dVk/i3nI
X1XYhH7j2kLCpKZP2is6RgL89bfrwAr862yPiBjelT2gWkeh6SZWqwnm7S9ATQIf
RhY/e7AsN9v4g/bjpaCG3F1xuihvpqOYWqgxKSuPHlSqW76x83c4jI5K5/FBEfua
f4T4jUWIKw3zGwNkRGzi1JRkZhr1LLtxhcX0zcyeWrE1OhwZMsSXdFhjmN0zXkp7
-----END CERTIFICATE-----
