Certificate:
    Data:
        Version: 3 (0x2)
        Serial Number:
            17:14:31:98:8d:54:05:c4:c1:86:7d:d9:7c:21:c0:1f
        Signature Algorithm: sha256WithRSAEncryption
        Issuer: CN=team350-net
        Validity
            Not Before: May 18 20:35:03 2022 GMT
            Not After : May  2 20:35:03 2025 GMT
        Subject: CN=team350-server
        Subject Public Key Info:
            Public Key Algorithm: rsaEncryption
                RSA Public-Key: (2048 bit)
                Modulus:
                    00:d1:03:7d:5b:ef:47:41:a9:74:e7:84:32:6f:8b:
                    46:84:3e:8e:92:94:99:24:c5:74:0e:2a:6c:f4:9f:
                    fb:05:97:4a:cc:60:a5:dd:92:2e:9b:7b:33:13:ee:
                    b9:94:ce:e8:bc:c1:f5:1e:fe:4e:27:95:44:b8:99:
                    fd:cf:d3:13:1c:ee:bb:97:63:88:d0:d0:34:fc:e4:
                    c8:0b:ab:b1:a3:d7:5c:38:0c:98:20:51:b5:84:00:
                    90:5a:65:7c:16:68:5f:73:61:7a:28:1b:fd:97:1d:
                    50:3d:d6:6f:ac:ec:1d:66:cf:da:8f:b8:41:d5:19:
                    d9:23:30:fb:e2:b8:ed:d4:eb:18:98:0e:cf:cb:6e:
                    d5:c5:6a:a0:49:50:69:30:99:86:18:29:dc:7a:c1:
                    4f:5d:86:14:db:88:68:00:d5:5a:f5:e4:b0:d8:f6:
                    2f:04:b0:c0:b4:3e:1f:c9:c6:28:55:d8:36:67:22:
                    c0:6a:c9:c6:53:67:29:fd:3f:8e:bf:77:08:b3:7a:
                    16:2a:7d:b6:34:07:8a:82:6e:b8:bc:30:06:0f:28:
                    83:89:b0:d1:bb:62:6b:06:c5:9d:0c:30:ce:9b:cd:
                    38:6d:a2:91:f3:90:a4:2c:ca:6c:e7:00:c3:06:93:
                    15:c4:ee:0c:42:e4:b3:cc:43:1f:14:db:d9:2b:5d:
                    76:79
                Exponent: 65537 (0x10001)
        X509v3 extensions:
            X509v3 Basic Constraints: 
                CA:FALSE
            X509v3 Subject Key Identifier: 
                22:1D:45:26:71:E7:28:7F:95:E9:16:F1:A3:D7:B4:50:67:56:FD:85
            X509v3 Authority Key Identifier: 
                keyid:1A:0A:57:CC:30:92:50:E8:EB:F4:74:13:B5:53:13:84:B2:FA:6F:07
                DirName:/CN=team350-net
                serial:2D:1A:B0:77:90:70:7B:D6:E4:EF:8E:C0:37:F9:D3:39:59:46:B7:05

            X509v3 Extended Key Usage: 
                TLS Web Server Authentication
            X509v3 Key Usage: 
                Digital Signature, Key Encipherment
            X509v3 Subject Alternative Name: 
                DNS:team350-server
    Signature Algorithm: sha256WithRSAEncryption
         54:01:ce:c3:25:c4:b0:39:ec:11:85:fe:74:4b:75:f2:5e:ce:
         71:d2:9e:57:f8:b0:2d:6b:15:b9:55:cc:8f:34:3f:e0:b3:e0:
         25:36:0c:97:93:53:94:37:d2:b4:4a:68:0f:e0:b1:1a:2f:6e:
         a5:ae:2a:af:b8:fa:6e:77:a2:32:5f:be:31:67:3f:3d:04:8d:
         77:ff:e8:30:d6:8c:e7:b3:95:ed:d9:23:5a:54:c7:99:2a:90:
         69:65:e9:03:a5:63:9e:cc:c1:66:20:1a:e8:d1:e6:25:ee:e1:
         d2:b7:0c:88:a6:df:03:64:f6:0a:29:ba:09:e0:53:98:43:6b:
         76:67:bb:65:81:e0:28:97:d5:1d:c8:2f:d7:7b:d9:46:f5:12:
         cd:5e:ac:f8:f2:87:b8:1b:2e:20:a5:38:91:43:43:6d:79:03:
         ae:5f:b3:b7:01:44:e0:81:9a:ba:e1:2f:2d:cd:b3:85:0e:90:
         1d:dd:45:44:3e:2c:9c:43:0a:82:49:81:00:19:40:28:4e:ae:
         0f:3c:d2:91:28:95:07:81:ab:43:09:e9:2d:70:45:94:4d:c4:
         f1:52:53:7a:61:12:2b:1d:3d:c7:cd:21:8c:7f:f6:cf:b6:7e:
         5e:e6:54:d8:23:cf:77:5d:39:7a:ea:67:8e:5a:6c:30:fb:a2:
         c5:76:ba:d5
-----BEGIN CERTIFICATE-----
MIIDdzCCAl+gAwIBAgIQFxQxmI1UBcTBhn3ZfCHAHzANBgkqhkiG9w0BAQsFADAW
MRQwEgYDVQQDDAt0ZWFtMzUwLW5ldDAeFw0yMjA1MTgyMDM1MDNaFw0yNTA1MDIy
MDM1MDNaMBkxFzAVBgNVBAMMDnRlYW0zNTAtc2VydmVyMIIBIjANBgkqhkiG9w0B
AQEFAAOCAQ8AMIIBCgKCAQEA0QN9W+9HQal054Qyb4tGhD6OkpSZJMV0Dips9J/7
BZdKzGCl3ZIum3szE+65lM7ovMH1Hv5OJ5VEuJn9z9MTHO67l2OI0NA0/OTIC6ux
o9dcOAyYIFG1hACQWmV8Fmhfc2F6KBv9lx1QPdZvrOwdZs/aj7hB1RnZIzD74rjt
1OsYmA7Py27VxWqgSVBpMJmGGCncesFPXYYU24hoANVa9eSw2PYvBLDAtD4fycYo
Vdg2ZyLAasnGU2cp/T+Ov3cIs3oWKn22NAeKgm64vDAGDyiDibDRu2JrBsWdDDDO
m804baKR85CkLMps5wDDBpMVxO4MQuSzzEMfFNvZK112eQIDAQABo4G9MIG6MAkG
A1UdEwQCMAAwHQYDVR0OBBYEFCIdRSZx5yh/lekW8aPXtFBnVv2FMFEGA1UdIwRK
MEiAFBoKV8wwklDo6/R0E7VTE4Sy+m8HoRqkGDAWMRQwEgYDVQQDDAt0ZWFtMzUw
LW5ldIIULRqwd5Bwe9bk747AN/nTOVlGtwUwEwYDVR0lBAwwCgYIKwYBBQUHAwEw
CwYDVR0PBAQDAgWgMBkGA1UdEQQSMBCCDnRlYW0zNTAtc2VydmVyMA0GCSqGSIb3
DQEBCwUAA4IBAQBUAc7DJcSwOewRhf50S3XyXs5x0p5X+LAtaxW5VcyPND/gs+Al
NgyXk1OUN9K0SmgP4LEaL26lriqvuPpud6IyX74xZz89BI13/+gw1ozns5Xt2SNa
VMeZKpBpZekDpWOezMFmIBro0eYl7uHStwyIpt8DZPYKKboJ4FOYQ2t2Z7tlgeAo
l9UdyC/Xe9lG9RLNXqz48oe4Gy4gpTiRQ0NteQOuX7O3AUTggZq64S8tzbOFDpAd
3UVEPiycQwqCSYEAGUAoTq4PPNKRKJUHgatDCektcEWUTcTxUlN6YRIrHT3HzSGM
f/bPtn5e5lTYI893XTl66meOWmww+6LFdrrV
-----END CERTIFICATE-----
