Certificate:
    Data:
        Version: 3 (0x2)
        Serial Number:
            c8:a3:5b:87:d7:de:75:fc:9b:cb:fb:a9:93:29:ae:7e
        Signature Algorithm: sha256WithRSAEncryption
        Issuer: CN=team256-net
        Validity
            Not Before: May 18 19:41:32 2022 GMT
            Not After : May  2 19:41:32 2025 GMT
        Subject: CN=team256-client
        Subject Public Key Info:
            Public Key Algorithm: rsaEncryption
                RSA Public-Key: (2048 bit)
                Modulus:
                    00:d6:5e:4f:76:60:94:80:53:d2:72:3d:04:52:ff:
                    35:13:5f:ef:ff:65:9a:02:3b:b5:95:81:51:2e:98:
                    2d:3a:94:51:eb:ca:6a:01:3c:b1:39:4a:b1:e9:cd:
                    6c:67:fe:7f:9b:34:2c:a0:87:d8:7b:02:e1:8d:9a:
                    7c:02:1f:7b:66:48:90:4f:29:38:12:d0:9f:e9:fc:
                    77:1e:e8:5d:7d:9e:d1:44:20:4a:4a:22:8b:fd:88:
                    bb:d9:60:6e:30:da:19:81:e2:16:81:05:7b:b7:07:
                    ab:3e:0d:17:7a:6e:86:35:c1:d4:33:5a:ce:c7:d4:
                    c3:b8:2f:62:d0:24:fc:19:3f:84:8c:69:9b:9e:bc:
                    57:f7:25:df:28:e0:13:09:a1:92:d1:fd:e9:12:5a:
                    6e:01:77:63:07:d4:cb:cf:75:34:b3:02:27:96:dc:
                    91:a2:61:f1:77:77:40:6e:1b:ef:e5:8a:cb:8c:74:
                    8b:40:84:88:38:2d:cd:5c:b4:79:48:16:0d:77:d6:
                    b6:6d:66:2c:29:68:a5:d3:91:24:e5:3c:33:16:76:
                    3e:df:32:1d:e4:f3:2d:18:51:f0:de:aa:b0:f2:a7:
                    de:cc:9f:a1:7a:60:48:b2:a7:38:8d:13:a3:12:86:
                    58:33:a4:06:c7:a2:40:ce:c2:db:c3:f4:9a:73:5d:
                    f4:69
                Exponent: 65537 (0x10001)
        X509v3 extensions:
            X509v3 Basic Constraints: 
                CA:FALSE
            X509v3 Subject Key Identifier: 
                FF:17:37:53:51:AE:55:C4:DF:D8:40:86:76:1B:B8:F0:09:0B:06:55
            X509v3 Authority Key Identifier: 
                keyid:01:59:02:C8:55:7A:ED:54:C0:E8:95:5E:07:4A:91:33:A2:30:0E:2D
                DirName:/CN=team256-net
                serial:51:3F:98:98:D8:1A:4D:10:E1:24:DA:EF:98:E7:95:25:A7:E8:EF:EA

            X509v3 Extended Key Usage: 
                TLS Web Client Authentication
            X509v3 Key Usage: 
                Digital Signature
    Signature Algorithm: sha256WithRSAEncryption
         cb:95:4b:d0:c5:6a:fe:4f:39:b3:18:8f:92:42:2a:44:1f:9b:
         d5:91:01:d0:28:79:02:8e:90:39:e1:aa:2b:94:90:ad:df:54:
         81:73:4c:8e:58:9b:9c:20:2a:2f:af:d5:86:f2:39:74:4c:58:
         11:70:d6:ad:fd:76:23:33:8f:e2:3e:de:0f:05:48:3a:44:48:
         c9:a4:44:4d:5f:7f:ad:4f:6f:c7:cf:d2:f0:6a:4c:1c:c8:3b:
         55:06:cc:82:d8:79:d6:7a:2c:ac:8c:a0:86:f4:70:a5:a4:29:
         3c:bc:be:ca:ce:52:4c:e6:b4:e6:76:1c:12:1e:6b:ef:f5:e1:
         1e:fa:a5:45:02:01:53:a7:78:1c:78:34:16:95:48:4d:bd:83:
         e7:51:a8:fe:01:2c:0e:be:a1:10:90:0b:18:56:bb:af:a9:e4:
         00:d6:f1:95:26:d6:55:d7:6c:62:5f:89:f6:4d:84:f5:01:42:
         fd:99:df:9e:fa:06:38:2b:45:6f:23:7c:6b:b5:a7:8d:89:85:
         69:ee:1a:d4:a5:af:78:8f:ce:02:89:cc:ee:d4:0f:83:e3:ef:
         7c:b7:3c:16:c0:7f:66:58:21:18:81:7d:41:54:f5:47:74:a8:
         6d:4f:f0:95:49:6a:18:39:5d:7f:ac:34:6d:ec:f5:c8:d2:53:
         33:9e:06:ba
-----BEGIN CERTIFICATE-----
MIIDXTCCAkWgAwIBAgIRAMijW4fX3nX8m8v7qZMprn4wDQYJKoZIhvcNAQELBQAw
FjEUMBIGA1UEAwwLdGVhbTI1Ni1uZXQwHhcNMjIwNTE4MTk0MTMyWhcNMjUwNTAy
MTk0MTMyWjAZMRcwFQYDVQQDDA50ZWFtMjU2LWNsaWVudDCCASIwDQYJKoZIhvcN
AQEBBQADggEPADCCAQoCggEBANZeT3ZglIBT0nI9BFL/NRNf7/9lmgI7tZWBUS6Y
LTqUUevKagE8sTlKsenNbGf+f5s0LKCH2HsC4Y2afAIfe2ZIkE8pOBLQn+n8dx7o
XX2e0UQgSkoii/2Iu9lgbjDaGYHiFoEFe7cHqz4NF3puhjXB1DNazsfUw7gvYtAk
/Bk/hIxpm568V/cl3yjgEwmhktH96RJabgF3YwfUy891NLMCJ5bckaJh8Xd3QG4b
7+WKy4x0i0CEiDgtzVy0eUgWDXfWtm1mLClopdORJOU8MxZ2Pt8yHeTzLRhR8N6q
sPKn3syfoXpgSLKnOI0ToxKGWDOkBseiQM7C28P0mnNd9GkCAwEAAaOBojCBnzAJ
BgNVHRMEAjAAMB0GA1UdDgQWBBT/FzdTUa5VxN/YQIZ2G7jwCQsGVTBRBgNVHSME
SjBIgBQBWQLIVXrtVMDolV4HSpEzojAOLaEapBgwFjEUMBIGA1UEAwwLdGVhbTI1
Ni1uZXSCFFE/mJjYGk0Q4STa75jnlSWn6O/qMBMGA1UdJQQMMAoGCCsGAQUFBwMC
MAsGA1UdDwQEAwIHgDANBgkqhkiG9w0BAQsFAAOCAQEAy5VL0MVq/k85sxiPkkIq
RB+b1ZEB0Ch5Ao6QOeGqK5SQrd9UgXNMjlibnCAqL6/VhvI5dExYEXDWrf12IzOP
4j7eDwVIOkRIyaRETV9/rU9vx8/S8GpMHMg7VQbMgth51nosrIyghvRwpaQpPLy+
ys5STOa05nYcEh5r7/XhHvqlRQIBU6d4HHg0FpVITb2D51Go/gEsDr6hEJALGFa7
r6nkANbxlSbWVddsYl+J9k2E9QFC/ZnfnvoGOCtFbyN8a7WnjYmFae4a1KWveI/O
AonM7tQPg+PvfLc8FsB/ZlghGIF9QVT1R3SobU/wlUlqGDldf6w0bez1yNJTM54G
ug==
-----END CERTIFICATE-----
