Certificate:
    Data:
        Version: 3 (0x2)
        Serial Number:
            27:0e:48:35:72:d2:5a:1b:55:bc:ca:af:c5:52:38:1f
        Signature Algorithm: sha256WithRSAEncryption
        Issuer: CN=team738-net
        Validity
            Not Before: May 18 23:58:41 2022 GMT
            Not After : May  2 23:58:41 2025 GMT
        Subject: CN=team738-server
        Subject Public Key Info:
            Public Key Algorithm: rsaEncryption
                RSA Public-Key: (2048 bit)
                Modulus:
                    00:c2:12:81:6b:7b:d9:e8:84:f4:a7:61:3f:8d:d0:
                    e3:57:6a:44:cf:1a:dc:c9:b1:f6:9c:53:a9:0c:47:
                    7e:e1:89:60:47:63:c5:43:ac:58:65:55:00:40:af:
                    48:3c:1d:61:d9:1b:16:c2:f3:85:fd:3c:ba:5f:ca:
                    b1:d7:ef:dd:8f:20:75:a5:07:1e:5c:0c:ce:40:2a:
                    d1:10:ad:99:ab:24:a4:74:cd:a3:86:15:13:d3:f3:
                    4f:52:5b:d7:a2:da:a2:22:c3:59:50:ad:d8:39:4f:
                    b6:d0:b8:f1:e1:ba:70:60:92:27:06:02:61:83:1c:
                    ce:ac:2b:d1:67:70:64:f3:9c:ee:e0:5c:cc:19:69:
                    3d:b8:fc:04:a5:b8:11:e4:37:3c:af:a8:b7:0b:07:
                    b8:86:b4:55:76:ba:16:32:f9:90:fc:00:d9:5a:7a:
                    f5:d0:34:d6:df:28:cb:54:ee:53:ab:ca:14:23:ef:
                    fc:dc:ed:fb:ce:30:92:f6:3e:1e:2e:f6:f6:35:9a:
                    18:48:a0:a6:23:45:43:0d:5f:79:4c:e2:49:51:91:
                    76:ab:c7:d4:5c:0b:ff:e2:85:68:11:60:32:37:ac:
                    e6:49:1c:b9:fd:f6:69:32:86:70:31:82:7a:d7:ba:
                    d8:4a:4a:69:36:77:70:89:9d:c3:03:5a:93:f8:d7:
                    99:6b
                Exponent: 65537 (0x10001)
        X509v3 extensions:
            X509v3 Basic Constraints: 
                CA:FALSE
            X509v3 Subject Key Identifier: 
                CE:74:DC:C1:49:BD:D3:EA:A1:41:0C:56:DC:A7:C4:CA:AC:00:F2:37
            X509v3 Authority Key Identifier: 
                keyid:6A:0A:B7:23:4E:05:D8:55:AB:27:36:89:29:04:9D:EF:9F:B1:0A:9B
                DirName:/CN=team738-net
                serial:1A:AB:6E:1D:98:D5:27:38:79:23:52:0C:7A:9A:87:5C:5B:0F:5E:25

            X509v3 Extended Key Usage: 
                TLS Web Server Authentication
            X509v3 Key Usage: 
                Digital Signature, Key Encipherment
            X509v3 Subject Alternative Name: 
                DNS:team738-server
    Signature Algorithm: sha256WithRSAEncryption
         60:d8:05:31:74:59:ab:f0:ce:da:ae:22:3b:86:59:1c:63:a8:
         73:ea:b3:fb:9d:9a:b8:a1:22:75:5a:41:d6:df:32:56:61:e6:
         b0:0d:31:ce:24:cc:a4:4e:af:69:8c:1d:51:33:e9:49:93:0f:
         e8:67:ed:80:59:0b:ab:95:ea:db:6c:32:b6:0a:23:9e:75:0e:
         fe:b9:bc:b1:54:96:51:82:19:0e:62:4d:65:d5:fd:0e:68:0b:
         ff:fc:4a:d6:bd:28:b1:fe:35:20:85:62:13:42:a8:dc:28:94:
         63:c7:30:46:a8:20:74:d9:e9:aa:c1:37:00:4e:14:51:da:32:
         f2:3c:9f:c0:36:33:ea:57:5a:5f:eb:f6:36:d2:9d:5a:6c:87:
         cf:cf:ac:db:5c:c3:fc:cb:f8:22:36:09:4a:c9:37:d0:5b:0e:
         ac:a9:db:a4:aa:cf:03:89:a2:f9:ac:1b:ed:4a:f5:c4:ce:45:
         0b:98:01:85:16:b4:11:5d:c2:c7:a9:cc:4d:ca:7a:7b:4e:d0:
         d1:ad:1e:5f:d1:87:2d:8d:f3:28:b6:ed:f2:07:43:29:29:cf:
         cf:01:55:c9:24:87:b5:65:34:7b:3f:f3:a9:1d:15:5b:9f:04:
         1e:08:cb:75:03:85:6c:5b:56:75:6d:52:80:3d:54:31:3e:28:
         61:cc:85:43
-----BEGIN CERTIFICATE-----
MIIDdzCCAl+gAwIBAgIQJw5INXLSWhtVvMqvxVI4HzANBgkqhkiG9w0BAQsFADAW
MRQwEgYDVQQDDAt0ZWFtNzM4LW5ldDAeFw0yMjA1MTgyMzU4NDFaFw0yNTA1MDIy
MzU4NDFaMBkxFzAVBgNVBAMMDnRlYW03Mzgtc2VydmVyMIIBIjANBgkqhkiG9w0B
AQEFAAOCAQ8AMIIBCgKCAQEAwhKBa3vZ6IT0p2E/jdDjV2pEzxrcybH2nFOpDEd+
4YlgR2PFQ6xYZVUAQK9IPB1h2RsWwvOF/Ty6X8qx1+/djyB1pQceXAzOQCrREK2Z
qySkdM2jhhUT0/NPUlvXotqiIsNZUK3YOU+20Ljx4bpwYJInBgJhgxzOrCvRZ3Bk
85zu4FzMGWk9uPwEpbgR5Dc8r6i3Cwe4hrRVdroWMvmQ/ADZWnr10DTW3yjLVO5T
q8oUI+/83O37zjCS9j4eLvb2NZoYSKCmI0VDDV95TOJJUZF2q8fUXAv/4oVoEWAy
N6zmSRy5/fZpMoZwMYJ617rYSkppNndwiZ3DA1qT+NeZawIDAQABo4G9MIG6MAkG
A1UdEwQCMAAwHQYDVR0OBBYEFM503MFJvdPqoUEMVtynxMqsAPI3MFEGA1UdIwRK
MEiAFGoKtyNOBdhVqyc2iSkEne+fsQqboRqkGDAWMRQwEgYDVQQDDAt0ZWFtNzM4
LW5ldIIUGqtuHZjVJzh5I1IMepqHXFsPXiUwEwYDVR0lBAwwCgYIKwYBBQUHAwEw
CwYDVR0PBAQDAgWgMBkGA1UdEQQSMBCCDnRlYW03Mzgtc2VydmVyMA0GCSqGSIb3
DQEBCwUAA4IBAQBg2AUxdFmr8M7ariI7hlkcY6hz6rP7nZq4oSJ1WkHW3zJWYeaw
DTHOJMykTq9pjB1RM+lJkw/oZ+2AWQurlerbbDK2CiOedQ7+ubyxVJZRghkOYk1l
1f0OaAv//ErWvSix/jUghWITQqjcKJRjxzBGqCB02emqwTcAThRR2jLyPJ/ANjPq
V1pf6/Y20p1abIfPz6zbXMP8y/giNglKyTfQWw6sqdukqs8DiaL5rBvtSvXEzkUL
mAGFFrQRXcLHqcxNynp7TtDRrR5f0YctjfMotu3yB0MpKc/PAVXJJIe1ZTR7P/Op
HRVbnwQeCMt1A4VsW1Z1bVKAPVQxPihhzIVD
-----END CERTIFICATE-----
