Certificate:
    Data:
        Version: 3 (0x2)
        Serial Number:
            8a:2f:d5:f4:24:38:0d:39:14:f3:53:42:79:77:2d:ae
        Signature Algorithm: sha256WithRSAEncryption
        Issuer: CN=team85-net
        Validity
            Not Before: May 18 14:39:03 2022 GMT
            Not After : May  2 14:39:03 2025 GMT
        Subject: CN=team85-client
        Subject Public Key Info:
            Public Key Algorithm: rsaEncryption
                RSA Public-Key: (2048 bit)
                Modulus:
                    00:b9:39:3c:49:4b:76:17:63:1f:b8:d0:f1:f1:e5:
                    f5:af:a3:47:7a:e9:e8:85:52:49:70:c9:14:51:b7:
                    7e:12:80:29:37:53:71:e6:66:91:80:2a:d8:87:a1:
                    7e:8d:10:83:32:4e:5e:ec:c3:53:b2:4a:cd:ba:a1:
                    06:b6:f6:a7:b5:12:6f:d5:ee:5b:13:0a:b4:0f:14:
                    55:73:fe:6d:5b:c5:db:0d:1f:05:72:ba:d3:1f:90:
                    9d:43:75:7f:20:2d:e6:84:89:9d:76:3a:00:0b:d6:
                    4e:05:f6:c6:61:7d:1a:b1:7f:17:12:4a:9b:bc:a7:
                    60:cc:3f:46:17:8d:4f:c1:fd:b1:26:a9:7b:0b:02:
                    b5:14:d8:3a:d8:b1:8d:90:73:ed:86:05:ff:ff:50:
                    80:45:92:01:bf:51:4b:c0:2a:8e:ec:91:e6:8d:ab:
                    ca:da:5e:08:1b:ca:75:3c:e0:35:c0:32:2b:f0:93:
                    e5:40:6c:13:9e:3a:16:c2:2d:96:1c:d1:84:8d:24:
                    a9:69:38:7c:0e:ef:bf:67:3a:a6:a5:5e:fa:f3:42:
                    f9:67:11:89:c4:9d:3c:23:25:62:50:b3:96:8f:da:
                    80:e1:fe:6f:a2:e7:a9:47:0b:37:0e:f1:94:18:99:
                    02:27:b9:96:9a:1f:56:a3:01:40:a3:d8:06:18:86:
                    1e:7d
                Exponent: 65537 (0x10001)
        X509v3 extensions:
            X509v3 Basic Constraints: 
                CA:FALSE
            X509v3 Subject Key Identifier: 
                CB:DC:51:14:AA:D5:06:24:B0:E3:A4:89:A4:33:34:72:8D:E1:B2:AD
            X509v3 Authority Key Identifier: 
                keyid:E0:4D:C6:A3:FC:30:BD:97:B2:9D:51:D5:88:2E:D5:4A:53:95:88:EF
                DirName:/CN=team85-net
                serial:16:67:A9:27:66:13:BA:A0:AD:48:D3:45:C5:62:DC:B5:36:BB:53:AA

            X509v3 Extended Key Usage: 
                TLS Web Client Authentication
            X509v3 Key Usage: 
                Digital Signature
    Signature Algorithm: sha256WithRSAEncryption
         bb:73:ac:20:d7:c6:58:3a:15:7b:24:93:3f:ba:af:78:c3:4a:
         06:96:be:9f:b6:fa:79:17:3b:73:0c:1e:63:b7:43:6f:5a:31:
         dd:78:d6:f2:b0:28:5d:4e:53:08:f0:63:63:f9:4e:34:33:97:
         ca:81:f1:4f:34:4d:06:1e:66:db:8b:ab:53:c3:3a:50:3d:e9:
         76:d1:2d:6a:07:6d:81:9f:10:45:73:53:de:30:20:e9:a0:08:
         8b:c4:33:f5:b8:59:3d:c3:d4:7b:23:57:a1:11:40:c8:97:73:
         1e:b9:93:45:0a:8a:4e:1c:83:e9:b4:13:da:11:66:6a:4f:94:
         59:b2:10:6d:2f:27:a4:ea:5d:20:0b:89:66:c1:d6:8f:59:e8:
         d9:87:2f:47:a9:f4:5b:46:69:c4:67:78:a4:f9:23:4a:ab:0f:
         d8:0c:bd:f6:ec:cc:cd:76:17:ff:3e:35:05:0e:cd:55:ef:15:
         a8:ae:d2:8a:a9:60:e2:f4:b8:e5:c6:5e:4e:1a:e7:83:64:ea:
         9d:6c:55:ae:71:c1:6b:c0:dd:ef:2f:c4:4a:f2:0b:da:43:d9:
         41:9d:c5:f7:65:2a:b3:27:ba:4d:c5:2b:a6:a9:15:e1:f0:8f:
         77:08:33:ff:66:57:0c:e8:06:7c:50:51:e8:9c:2c:35:0d:f9:
         7a:49:61:1a
-----BEGIN CERTIFICATE-----
MIIDWjCCAkKgAwIBAgIRAIov1fQkOA05FPNTQnl3La4wDQYJKoZIhvcNAQELBQAw
FTETMBEGA1UEAwwKdGVhbTg1LW5ldDAeFw0yMjA1MTgxNDM5MDNaFw0yNTA1MDIx
NDM5MDNaMBgxFjAUBgNVBAMMDXRlYW04NS1jbGllbnQwggEiMA0GCSqGSIb3DQEB
AQUAA4IBDwAwggEKAoIBAQC5OTxJS3YXYx+40PHx5fWvo0d66eiFUklwyRRRt34S
gCk3U3HmZpGAKtiHoX6NEIMyTl7sw1OySs26oQa29qe1Em/V7lsTCrQPFFVz/m1b
xdsNHwVyutMfkJ1DdX8gLeaEiZ12OgAL1k4F9sZhfRqxfxcSSpu8p2DMP0YXjU/B
/bEmqXsLArUU2DrYsY2Qc+2GBf//UIBFkgG/UUvAKo7skeaNq8raXggbynU84DXA
Mivwk+VAbBOeOhbCLZYc0YSNJKlpOHwO779nOqalXvrzQvlnEYnEnTwjJWJQs5aP
2oDh/m+i56lHCzcO8ZQYmQInuZaaH1ajAUCj2AYYhh59AgMBAAGjgaEwgZ4wCQYD
VR0TBAIwADAdBgNVHQ4EFgQUy9xRFKrVBiSw46SJpDM0co3hsq0wUAYDVR0jBEkw
R4AU4E3Go/wwvZeynVHViC7VSlOViO+hGaQXMBUxEzARBgNVBAMMCnRlYW04NS1u
ZXSCFBZnqSdmE7qgrUjTRcVi3LU2u1OqMBMGA1UdJQQMMAoGCCsGAQUFBwMCMAsG
A1UdDwQEAwIHgDANBgkqhkiG9w0BAQsFAAOCAQEAu3OsINfGWDoVeySTP7qveMNK
Bpa+n7b6eRc7cwweY7dDb1ox3XjW8rAoXU5TCPBjY/lONDOXyoHxTzRNBh5m24ur
U8M6UD3pdtEtagdtgZ8QRXNT3jAg6aAIi8Qz9bhZPcPUeyNXoRFAyJdzHrmTRQqK
ThyD6bQT2hFmak+UWbIQbS8npOpdIAuJZsHWj1no2YcvR6n0W0ZpxGd4pPkjSqsP
2Ay99uzMzXYX/z41BQ7NVe8VqK7Siqlg4vS45cZeThrng2TqnWxVrnHBa8Dd7y/E
SvIL2kPZQZ3F92Uqsye6TcUrpqkV4fCPdwgz/2ZXDOgGfFBR6JwsNQ35eklhGg==
-----END CERTIFICATE-----
