Certificate:
    Data:
        Version: 3 (0x2)
        Serial Number:
            e1:0e:5e:83:3a:fa:e3:46:45:5b:cd:4d:50:e0:0f:72
        Signature Algorithm: sha256WithRSAEncryption
        Issuer: CN=team6-net
        Validity
            Not Before: May 18 13:58:50 2022 GMT
            Not After : May  2 13:58:50 2025 GMT
        Subject: CN=team6-client
        Subject Public Key Info:
            Public Key Algorithm: rsaEncryption
                RSA Public-Key: (2048 bit)
                Modulus:
                    00:de:f3:53:89:e3:a0:16:ae:87:bc:2f:73:d4:ae:
                    74:a7:66:30:dd:d9:24:5e:69:ea:a9:ab:82:55:2e:
                    84:81:17:30:77:7d:6d:7e:58:a7:02:37:3a:74:99:
                    dd:78:ed:13:96:12:41:30:e9:4e:36:22:37:04:e4:
                    e6:c5:5f:82:59:ab:c3:c3:5f:42:b1:af:d1:3b:93:
                    5e:5e:3c:cf:4f:69:25:9d:3f:7b:6e:a2:5d:93:2b:
                    56:ff:17:3e:7e:7f:42:63:00:90:7a:da:d9:6e:d8:
                    65:1a:61:25:66:d2:04:81:ea:cd:2d:1e:15:5e:b4:
                    37:51:25:f6:42:b1:d5:a6:46:8a:39:61:78:e1:61:
                    fa:75:5f:b1:5a:fc:3c:8a:98:38:fc:f4:59:de:96:
                    f2:4c:6e:d4:ef:62:0b:86:4d:40:1a:20:39:d7:9d:
                    df:30:b6:0c:46:01:32:a0:59:dc:c8:08:80:74:d2:
                    65:00:cd:08:3b:0e:1f:b1:0a:3e:2e:48:84:34:94:
                    b1:d4:3a:79:be:0c:90:01:5f:34:6f:51:ed:72:00:
                    78:d1:34:3e:7f:76:2e:d5:d7:7b:79:7f:fb:8c:0c:
                    32:98:9a:52:a9:e4:66:ad:e7:3b:70:a2:93:30:b7:
                    3f:e0:06:87:65:18:ff:3a:9a:81:7f:e1:bd:08:51:
                    44:c9
                Exponent: 65537 (0x10001)
        X509v3 extensions:
            X509v3 Basic Constraints: 
                CA:FALSE
            X509v3 Subject Key Identifier: 
                67:A8:4C:72:7E:C8:EB:1A:4E:08:24:62:EE:3D:0A:50:55:85:A2:52
            X509v3 Authority Key Identifier: 
                keyid:59:F2:70:8E:B6:39:11:92:50:3B:FE:7D:90:04:5E:23:76:AA:7C:74
                DirName:/CN=team6-net
                serial:21:21:C6:43:17:C5:EC:5E:45:6E:32:C6:DC:5A:4C:91:83:27:3E:09

            X509v3 Extended Key Usage: 
                TLS Web Client Authentication
            X509v3 Key Usage: 
                Digital Signature
    Signature Algorithm: sha256WithRSAEncryption
         2b:5b:8b:63:9b:22:80:f5:45:5c:56:a8:0e:85:da:31:f5:34:
         9a:40:28:32:be:c9:b0:d8:81:0d:f5:e7:f6:ac:98:76:1f:91:
         c6:8a:1f:a6:36:e4:d8:ad:f5:28:ba:f4:d1:6f:bd:00:a1:d7:
         2c:8f:b7:b2:d5:d2:d3:a2:ec:84:6b:e2:d3:e3:4a:07:eb:7d:
         c7:c6:63:95:c1:37:7c:04:16:bc:04:02:5c:b6:5e:7e:f2:0e:
         73:30:7c:f8:22:a9:aa:16:e0:37:03:b2:9e:31:7d:3b:78:dd:
         2a:e7:83:9f:76:60:2b:89:04:aa:b3:a8:9a:02:64:2a:67:5e:
         a7:99:f9:fa:76:8d:d0:6b:92:3b:4e:bf:13:fb:06:b5:d2:14:
         c4:25:54:a4:cc:a6:8a:a1:93:01:93:95:6a:30:74:85:91:ad:
         50:8e:f7:8b:f4:31:cd:bd:78:4d:51:74:ed:2f:ad:d7:8d:4c:
         df:a0:8e:7f:d0:32:02:f0:99:22:33:2e:e6:2e:fa:55:7f:2d:
         b0:38:a9:d5:a8:7f:27:83:99:ed:83:af:2b:b8:24:ad:37:c8:
         e2:f5:51:7f:3a:14:44:7a:40:af:cb:0c:33:1f:34:ba:f1:f9:
         05:9b:7e:08:c1:66:5b:54:34:cf:94:6b:dc:a8:2a:62:d4:b8:
         97:16:16:16
-----BEGIN CERTIFICATE-----
MIIDVzCCAj+gAwIBAgIRAOEOXoM6+uNGRVvNTVDgD3IwDQYJKoZIhvcNAQELBQAw
FDESMBAGA1UEAwwJdGVhbTYtbmV0MB4XDTIyMDUxODEzNTg1MFoXDTI1MDUwMjEz
NTg1MFowFzEVMBMGA1UEAwwMdGVhbTYtY2xpZW50MIIBIjANBgkqhkiG9w0BAQEF
AAOCAQ8AMIIBCgKCAQEA3vNTieOgFq6HvC9z1K50p2Yw3dkkXmnqqauCVS6EgRcw
d31tflinAjc6dJndeO0TlhJBMOlONiI3BOTmxV+CWavDw19Csa/RO5NeXjzPT2kl
nT97bqJdkytW/xc+fn9CYwCQetrZbthlGmElZtIEgerNLR4VXrQ3USX2QrHVpkaK
OWF44WH6dV+xWvw8ipg4/PRZ3pbyTG7U72ILhk1AGiA5153fMLYMRgEyoFncyAiA
dNJlAM0IOw4fsQo+LkiENJSx1Dp5vgyQAV80b1HtcgB40TQ+f3Yu1dd7eX/7jAwy
mJpSqeRmrec7cKKTMLc/4AaHZRj/OpqBf+G9CFFEyQIDAQABo4GgMIGdMAkGA1Ud
EwQCMAAwHQYDVR0OBBYEFGeoTHJ+yOsaTggkYu49ClBVhaJSME8GA1UdIwRIMEaA
FFnycI62ORGSUDv+fZAEXiN2qnx0oRikFjAUMRIwEAYDVQQDDAl0ZWFtNi1uZXSC
FCEhxkMXxexeRW4yxtxaTJGDJz4JMBMGA1UdJQQMMAoGCCsGAQUFBwMCMAsGA1Ud
DwQEAwIHgDANBgkqhkiG9w0BAQsFAAOCAQEAK1uLY5sigPVFXFaoDoXaMfU0mkAo
Mr7JsNiBDfXn9qyYdh+Rxoofpjbk2K31KLr00W+9AKHXLI+3stXS06LshGvi0+NK
B+t9x8ZjlcE3fAQWvAQCXLZefvIOczB8+CKpqhbgNwOynjF9O3jdKueDn3ZgK4kE
qrOomgJkKmdep5n5+naN0GuSO06/E/sGtdIUxCVUpMymiqGTAZOVajB0hZGtUI73
i/Qxzb14TVF07S+t141M36COf9AyAvCZIjMu5i76VX8tsDip1ah/J4OZ7YOvK7gk
rTfI4vVRfzoURHpAr8sMMx80uvH5BZt+CMFmW1Q0z5Rr3KgqYtS4lxYWFg==
-----END CERTIFICATE-----
