Certificate:
    Data:
        Version: 3 (0x2)
        Serial Number:
            54:8c:1d:84:94:4f:d4:f6:89:cc:f8:5e:ef:29:46:64
        Signature Algorithm: sha256WithRSAEncryption
        Issuer: CN=team650-net
        Validity
            Not Before: May 18 23:02:54 2022 GMT
            Not After : May  2 23:02:54 2025 GMT
        Subject: CN=team650-server
        Subject Public Key Info:
            Public Key Algorithm: rsaEncryption
                RSA Public-Key: (2048 bit)
                Modulus:
                    00:b7:ea:ca:07:08:0c:e6:52:c1:35:f0:ea:19:f9:
                    ea:ee:01:5e:b1:c7:6b:ea:19:c7:b1:e4:9c:46:d2:
                    fa:9c:7f:fd:f5:27:94:61:89:74:15:09:4d:89:b9:
                    07:32:28:7e:78:d1:47:df:53:3e:33:64:5f:4d:2f:
                    46:30:e4:ea:ed:2c:2b:d1:5e:95:ec:01:8e:f0:64:
                    43:57:97:a4:0d:60:28:32:ef:d1:71:2b:97:b6:86:
                    74:5c:fc:56:e5:ee:f6:53:5c:aa:c5:8a:93:ad:67:
                    83:d5:f6:e8:37:88:55:69:8b:a5:8d:ff:2a:79:db:
                    8e:51:64:1e:8a:35:e6:b7:8f:7b:27:e5:c4:ac:5a:
                    d3:ba:6c:0b:21:18:e7:f8:dd:77:93:46:27:d1:fb:
                    20:4a:15:da:0f:59:1a:50:bf:3e:b3:67:b7:c6:79:
                    7b:01:5b:25:65:ef:ef:57:8d:24:67:37:65:3c:14:
                    8a:2c:19:c4:c8:24:77:2a:3f:e3:99:80:ed:f2:d5:
                    a8:bf:be:ac:55:9b:e3:83:6b:a4:2c:85:6b:fc:f8:
                    58:7b:fe:a6:ca:f5:1f:2b:32:12:7f:63:d0:69:66:
                    88:75:7a:78:1d:c7:b8:bd:6f:2f:78:a3:85:3a:4e:
                    ab:16:c2:0a:cf:1d:39:e5:a6:8f:23:f2:a5:bd:a5:
                    0c:a5
                Exponent: 65537 (0x10001)
        X509v3 extensions:
            X509v3 Basic Constraints: 
                CA:FALSE
            X509v3 Subject Key Identifier: 
                4D:61:EC:54:F2:0F:6B:47:3D:79:3E:8B:8A:13:CF:2E:62:6E:F1:E0
            X509v3 Authority Key Identifier: 
                keyid:B5:DF:BF:6D:0D:53:F4:BE:FC:69:CC:9B:13:EA:40:6D:1B:A4:86:81
                DirName:/CN=team650-net
                serial:5A:AC:9A:C0:32:03:8F:42:97:74:36:8A:51:EF:2B:DF:97:F3:8C:E4

            X509v3 Extended Key Usage: 
                TLS Web Server Authentication
            X509v3 Key Usage: 
                Digital Signature, Key Encipherment
            X509v3 Subject Alternative Name: 
                DNS:team650-server
    Signature Algorithm: sha256WithRSAEncryption
         62:44:99:e2:5e:d9:fe:37:0d:a7:a1:e0:e0:9b:67:ed:50:7c:
         35:f2:9e:6d:46:16:c1:4b:79:e7:cf:6a:e6:de:d3:f9:78:1f:
         ac:3e:da:8a:09:03:a1:a6:fb:34:ac:90:b4:66:4c:b7:ca:0d:
         3d:59:4e:f9:76:b2:b8:71:34:ca:bc:f2:51:a0:68:79:9f:90:
         eb:4b:99:57:36:dd:5b:5b:2c:0a:e9:47:fd:0f:35:e0:07:95:
         84:45:1d:d3:0b:95:3f:d6:e9:4e:90:d9:9f:2f:2c:97:7a:ed:
         d8:43:2f:16:5a:30:c7:d6:cb:e8:dd:a3:82:0d:ea:42:38:a3:
         29:43:89:04:a8:e9:1b:62:40:b7:b7:c9:e2:bf:02:a9:fc:b0:
         fc:ff:94:4a:38:ad:27:16:26:e4:25:86:78:66:fb:4e:8b:ad:
         14:11:e5:50:1d:98:bc:3c:14:1f:80:4c:28:42:52:84:bd:a4:
         65:5f:34:32:5f:ad:5e:9c:76:0a:e1:bd:98:b1:4a:a7:f9:e8:
         82:52:63:57:21:2f:a8:8f:93:cf:14:d2:7d:ee:b2:e4:42:43:
         9d:61:f7:75:af:5f:fb:df:38:66:35:4e:d0:9f:ed:dc:64:96:
         47:cf:b6:2e:4b:83:b3:f4:0a:c5:b5:1f:90:98:2a:6d:92:a0:
         90:bf:3b:c6
-----BEGIN CERTIFICATE-----
MIIDdzCCAl+gAwIBAgIQVIwdhJRP1PaJzPhe7ylGZDANBgkqhkiG9w0BAQsFADAW
MRQwEgYDVQQDDAt0ZWFtNjUwLW5ldDAeFw0yMjA1MTgyMzAyNTRaFw0yNTA1MDIy
MzAyNTRaMBkxFzAVBgNVBAMMDnRlYW02NTAtc2VydmVyMIIBIjANBgkqhkiG9w0B
AQEFAAOCAQ8AMIIBCgKCAQEAt+rKBwgM5lLBNfDqGfnq7gFescdr6hnHseScRtL6
nH/99SeUYYl0FQlNibkHMih+eNFH31M+M2RfTS9GMOTq7Swr0V6V7AGO8GRDV5ek
DWAoMu/RcSuXtoZ0XPxW5e72U1yqxYqTrWeD1fboN4hVaYuljf8qeduOUWQeijXm
t497J+XErFrTumwLIRjn+N13k0Yn0fsgShXaD1kaUL8+s2e3xnl7AVslZe/vV40k
ZzdlPBSKLBnEyCR3Kj/jmYDt8tWov76sVZvjg2ukLIVr/PhYe/6myvUfKzISf2PQ
aWaIdXp4Hce4vW8veKOFOk6rFsIKzx055aaPI/KlvaUMpQIDAQABo4G9MIG6MAkG
A1UdEwQCMAAwHQYDVR0OBBYEFE1h7FTyD2tHPXk+i4oTzy5ibvHgMFEGA1UdIwRK
MEiAFLXfv20NU/S+/GnMmxPqQG0bpIaBoRqkGDAWMRQwEgYDVQQDDAt0ZWFtNjUw
LW5ldIIUWqyawDIDj0KXdDaKUe8r35fzjOQwEwYDVR0lBAwwCgYIKwYBBQUHAwEw
CwYDVR0PBAQDAgWgMBkGA1UdEQQSMBCCDnRlYW02NTAtc2VydmVyMA0GCSqGSIb3
DQEBCwUAA4IBAQBiRJniXtn+Nw2noeDgm2ftUHw18p5tRhbBS3nnz2rm3tP5eB+s
PtqKCQOhpvs0rJC0Zky3yg09WU75drK4cTTKvPJRoGh5n5DrS5lXNt1bWywK6Uf9
DzXgB5WERR3TC5U/1ulOkNmfLyyXeu3YQy8WWjDH1svo3aOCDepCOKMpQ4kEqOkb
YkC3t8nivwKp/LD8/5RKOK0nFibkJYZ4ZvtOi60UEeVQHZi8PBQfgEwoQlKEvaRl
XzQyX61enHYK4b2YsUqn+eiCUmNXIS+oj5PPFNJ97rLkQkOdYfd1r1/73zhmNU7Q
n+3cZJZHz7YuS4Oz9ArFtR+QmCptkqCQvzvG
-----END CERTIFICATE-----
