Certificate:
    Data:
        Version: 3 (0x2)
        Serial Number:
            ec:6f:ee:7c:fe:fe:f5:60:e5:28:ce:de:61:bf:11:48
        Signature Algorithm: sha256WithRSAEncryption
        Issuer: CN=team521-net
        Validity
            Not Before: May 18 22:04:12 2022 GMT
            Not After : May  2 22:04:12 2025 GMT
        Subject: CN=team521-server
        Subject Public Key Info:
            Public Key Algorithm: rsaEncryption
                RSA Public-Key: (2048 bit)
                Modulus:
                    00:f1:43:e3:a6:c7:2d:03:f5:7d:d3:6d:40:ec:84:
                    0f:07:1e:37:64:4c:1c:4d:67:08:a0:46:78:82:cc:
                    e1:46:de:20:13:9d:09:6a:7b:96:f2:72:00:4f:95:
                    03:ce:f3:e8:1d:2c:6d:fd:72:03:bc:03:76:34:8d:
                    5a:e6:22:40:7f:cf:ba:99:01:cb:6b:55:e3:10:07:
                    65:d9:03:fa:ee:4d:d9:1c:23:be:2c:af:bf:de:68:
                    b8:8c:30:59:89:3f:81:1c:37:a6:e3:72:99:07:24:
                    07:12:b8:9d:c4:af:3f:d5:84:f7:af:b1:e4:61:c5:
                    ba:2d:f8:31:41:69:8d:08:69:c2:f7:e4:9b:74:6f:
                    d6:3a:6a:2a:1f:bf:c1:a4:f3:99:a7:88:0d:bd:bf:
                    39:93:4a:a8:10:80:46:67:9a:84:34:9f:5b:8d:33:
                    fa:36:64:dd:ac:d6:a9:f1:3d:02:5e:54:db:80:03:
                    73:8d:b1:dd:25:07:49:40:8f:05:48:a8:3d:1a:84:
                    4e:19:48:3b:74:22:08:b5:c3:b7:8c:5a:d6:89:0b:
                    f1:f6:62:0d:a2:61:0a:3b:e9:16:a3:e9:6a:ce:e4:
                    ca:23:74:80:8d:8e:f2:ab:54:88:59:13:14:bd:d2:
                    a4:85:dc:7a:14:62:de:dd:90:7b:80:0c:77:62:43:
                    91:51
                Exponent: 65537 (0x10001)
        X509v3 extensions:
            X509v3 Basic Constraints: 
                CA:FALSE
            X509v3 Subject Key Identifier: 
                EA:E8:BC:A7:91:C7:A3:98:C4:15:B8:26:DB:E4:39:22:FB:1E:C9:14
            X509v3 Authority Key Identifier: 
                keyid:62:19:39:16:9D:07:38:1B:AC:AC:61:F8:54:E7:79:5B:04:E1:1E:75
                DirName:/CN=team521-net
                serial:6E:49:49:11:C9:D2:3A:EE:F4:97:8B:81:EF:AB:08:A6:1D:93:41:5A

            X509v3 Extended Key Usage: 
                TLS Web Server Authentication
            X509v3 Key Usage: 
                Digital Signature, Key Encipherment
            X509v3 Subject Alternative Name: 
                DNS:team521-server
    Signature Algorithm: sha256WithRSAEncryption
         03:de:64:13:d9:91:58:40:60:4c:4d:c7:3a:b4:d2:f8:78:56:
         0e:6d:f1:4e:55:29:8f:ed:cb:42:e3:e5:75:a7:6f:fc:c4:fc:
         1a:bf:c7:c1:be:e5:39:31:7b:8d:ca:36:55:39:d1:86:12:24:
         b8:de:3a:d0:b0:27:ad:79:6c:98:8a:9b:1d:e9:2d:5d:54:c9:
         69:93:55:41:36:76:d2:41:59:7c:8d:15:ea:e0:23:27:3b:ca:
         48:f0:45:f9:eb:c1:d2:25:3e:84:aa:49:2e:87:81:9d:4f:2f:
         2e:66:4c:9e:68:65:5f:f6:b9:23:3b:f9:e7:7b:f3:1b:9f:c4:
         dd:9c:5a:33:df:f6:d5:1f:38:2a:c6:9b:7e:ce:7b:95:c8:74:
         74:69:1f:0c:5c:92:ca:fd:a4:22:67:6c:bb:5b:51:13:2f:0c:
         46:42:32:8a:c3:37:fd:0a:13:bb:da:fb:b7:d9:f2:e4:06:b1:
         e4:4b:31:ba:c3:31:e6:e1:6c:c3:0d:db:09:ad:60:86:ad:b2:
         7b:42:b5:d1:b8:89:0d:fa:c9:23:3e:c6:e4:90:54:df:74:64:
         4b:36:1d:bb:6f:fb:ec:1d:f9:bd:25:61:ec:32:a8:9c:d6:d7:
         2c:84:59:42:51:88:87:c8:00:20:6d:38:fe:e6:b4:15:41:de:
         75:28:f2:c0
-----BEGIN CERTIFICATE-----
MIIDeDCCAmCgAwIBAgIRAOxv7nz+/vVg5SjO3mG/EUgwDQYJKoZIhvcNAQELBQAw
FjEUMBIGA1UEAwwLdGVhbTUyMS1uZXQwHhcNMjIwNTE4MjIwNDEyWhcNMjUwNTAy
MjIwNDEyWjAZMRcwFQYDVQQDDA50ZWFtNTIxLXNlcnZlcjCCASIwDQYJKoZIhvcN
AQEBBQADggEPADCCAQoCggEBAPFD46bHLQP1fdNtQOyEDwceN2RMHE1nCKBGeILM
4UbeIBOdCWp7lvJyAE+VA87z6B0sbf1yA7wDdjSNWuYiQH/PupkBy2tV4xAHZdkD
+u5N2Rwjviyvv95ouIwwWYk/gRw3puNymQckBxK4ncSvP9WE96+x5GHFui34MUFp
jQhpwvfkm3Rv1jpqKh+/waTzmaeIDb2/OZNKqBCARmeahDSfW40z+jZk3azWqfE9
Al5U24ADc42x3SUHSUCPBUioPRqEThlIO3QiCLXDt4xa1okL8fZiDaJhCjvpFqPp
as7kyiN0gI2O8qtUiFkTFL3SpIXcehRi3t2Qe4AMd2JDkVECAwEAAaOBvTCBujAJ
BgNVHRMEAjAAMB0GA1UdDgQWBBTq6LynkcejmMQVuCbb5Dki+x7JFDBRBgNVHSME
SjBIgBRiGTkWnQc4G6ysYfhU53lbBOEedaEapBgwFjEUMBIGA1UEAwwLdGVhbTUy
MS1uZXSCFG5JSRHJ0jru9JeLge+rCKYdk0FaMBMGA1UdJQQMMAoGCCsGAQUFBwMB
MAsGA1UdDwQEAwIFoDAZBgNVHREEEjAQgg50ZWFtNTIxLXNlcnZlcjANBgkqhkiG
9w0BAQsFAAOCAQEAA95kE9mRWEBgTE3HOrTS+HhWDm3xTlUpj+3LQuPldadv/MT8
Gr/Hwb7lOTF7jco2VTnRhhIkuN460LAnrXlsmIqbHektXVTJaZNVQTZ20kFZfI0V
6uAjJzvKSPBF+evB0iU+hKpJLoeBnU8vLmZMnmhlX/a5Izv553vzG5/E3ZxaM9/2
1R84Ksabfs57lch0dGkfDFySyv2kImdsu1tREy8MRkIyisM3/QoTu9r7t9ny5Aax
5EsxusMx5uFsww3bCa1ghq2ye0K10biJDfrJIz7G5JBU33RkSzYdu2/77B35vSVh
7DKonNbXLIRZQlGIh8gAIG04/ua0FUHedSjywA==
-----END CERTIFICATE-----
