Certificate:
    Data:
        Version: 3 (0x2)
        Serial Number:
            91:f0:1b:18:b0:ec:4f:90:63:dc:34:e9:d2:8c:47:6d
        Signature Algorithm: sha256WithRSAEncryption
        Issuer: CN=team240-net
        Validity
            Not Before: May 18 19:24:40 2022 GMT
            Not After : May  2 19:24:40 2025 GMT
        Subject: CN=team240-server
        Subject Public Key Info:
            Public Key Algorithm: rsaEncryption
                RSA Public-Key: (2048 bit)
                Modulus:
                    00:f4:f1:7d:cb:c8:25:24:e2:1d:1a:8b:78:28:c9:
                    78:4d:da:93:23:b6:d0:21:c2:4b:89:ff:56:51:9d:
                    02:ef:a6:87:c9:7f:8b:00:70:44:1b:04:e4:92:97:
                    3c:91:1e:84:42:af:b6:f2:f6:3e:af:5d:d5:49:da:
                    f3:ab:5d:cf:58:0e:7e:0f:e2:0c:bb:2d:6a:75:ab:
                    ce:39:14:1a:4b:91:3d:6e:ee:69:fa:9b:8d:55:58:
                    29:5c:cd:53:0c:59:28:f5:ab:1a:dc:66:d2:82:dd:
                    bd:13:aa:8a:9b:09:84:14:66:22:55:56:b4:10:e1:
                    12:fc:e2:13:b6:8c:ac:72:30:71:18:a8:8e:27:a9:
                    41:fa:34:ae:43:39:51:de:4d:30:d0:e3:ce:62:10:
                    ca:b3:1a:a3:7c:52:b5:0c:fb:3c:f2:55:c7:75:58:
                    be:11:1e:64:05:f7:ef:a8:93:47:0a:7e:29:2e:e7:
                    54:8b:93:7b:11:05:fd:d3:31:c1:1c:cc:d2:7a:c4:
                    04:e3:2c:97:ea:ee:a4:69:88:45:51:27:45:22:7d:
                    c6:36:a9:4c:9a:84:4b:fa:cc:a7:47:99:46:15:f3:
                    36:8b:d1:55:77:bb:54:6b:db:5e:2c:b5:e3:c6:d0:
                    13:53:3a:f0:05:a2:f1:69:04:4b:35:74:0d:c6:d8:
                    ae:97
                Exponent: 65537 (0x10001)
        X509v3 extensions:
            X509v3 Basic Constraints: 
                CA:FALSE
            X509v3 Subject Key Identifier: 
                17:6E:92:00:34:7A:8E:E3:4D:62:02:81:7D:D3:C2:5A:FD:A3:34:10
            X509v3 Authority Key Identifier: 
                keyid:6B:EB:26:D1:31:E2:BE:B9:03:44:9D:97:EE:CB:CB:1B:41:AF:63:75
                DirName:/CN=team240-net
                serial:7C:9C:A7:85:AB:BE:E7:58:36:98:0C:95:BF:78:1A:CC:0F:25:C6:5D

            X509v3 Extended Key Usage: 
                TLS Web Server Authentication
            X509v3 Key Usage: 
                Digital Signature, Key Encipherment
            X509v3 Subject Alternative Name: 
                DNS:team240-server
    Signature Algorithm: sha256WithRSAEncryption
         b2:4c:aa:17:b1:3d:64:90:c8:e2:c3:9a:ba:f3:c2:9e:26:46:
         aa:d4:45:cc:ee:68:88:ad:ca:54:24:43:fe:7a:0c:eb:23:cb:
         67:ce:25:3d:c5:aa:40:99:38:56:8d:13:d7:88:6c:82:2d:ae:
         a7:78:22:39:59:d0:50:4f:fb:fb:7f:54:fe:a9:38:d4:6d:31:
         e4:55:c7:c2:2c:c6:3c:3d:05:05:e8:78:6e:88:50:47:73:82:
         e8:80:c2:54:f2:2a:57:ef:9b:fd:99:8a:fc:f9:3f:be:63:31:
         fb:90:d3:50:ea:73:99:ad:28:60:95:bc:fc:68:af:3e:2b:56:
         d0:1d:53:03:79:c0:1c:fd:07:06:26:21:9d:34:6f:bc:fd:46:
         ba:0e:16:13:d8:ec:1a:a6:99:c4:92:c8:9c:7c:3f:a1:42:4a:
         c9:50:99:de:1d:5f:c7:68:fa:07:b9:9e:b2:ef:d3:68:cc:ef:
         3b:37:c1:45:26:e7:ac:33:58:48:82:a5:e5:df:2d:24:04:2a:
         de:46:9f:3b:5a:44:3c:27:51:00:2e:d1:40:a5:6f:18:6f:51:
         7c:d1:a3:e5:f0:64:23:9f:b7:6f:ae:09:b5:3f:f3:3a:60:f7:
         b4:b7:52:e8:ef:8b:21:1b:b0:b9:0a:a8:86:db:eb:b4:5d:19:
         5a:e2:15:e2
-----BEGIN CERTIFICATE-----
MIIDeDCCAmCgAwIBAgIRAJHwGxiw7E+QY9w06dKMR20wDQYJKoZIhvcNAQELBQAw
FjEUMBIGA1UEAwwLdGVhbTI0MC1uZXQwHhcNMjIwNTE4MTkyNDQwWhcNMjUwNTAy
MTkyNDQwWjAZMRcwFQYDVQQDDA50ZWFtMjQwLXNlcnZlcjCCASIwDQYJKoZIhvcN
AQEBBQADggEPADCCAQoCggEBAPTxfcvIJSTiHRqLeCjJeE3akyO20CHCS4n/VlGd
Au+mh8l/iwBwRBsE5JKXPJEehEKvtvL2Pq9d1Una86tdz1gOfg/iDLstanWrzjkU
GkuRPW7uafqbjVVYKVzNUwxZKPWrGtxm0oLdvROqipsJhBRmIlVWtBDhEvziE7aM
rHIwcRiojiepQfo0rkM5Ud5NMNDjzmIQyrMao3xStQz7PPJVx3VYvhEeZAX376iT
Rwp+KS7nVIuTexEF/dMxwRzM0nrEBOMsl+rupGmIRVEnRSJ9xjapTJqES/rMp0eZ
RhXzNovRVXe7VGvbXiy148bQE1M68AWi8WkESzV0DcbYrpcCAwEAAaOBvTCBujAJ
BgNVHRMEAjAAMB0GA1UdDgQWBBQXbpIANHqO401iAoF908Ja/aM0EDBRBgNVHSME
SjBIgBRr6ybRMeK+uQNEnZfuy8sbQa9jdaEapBgwFjEUMBIGA1UEAwwLdGVhbTI0
MC1uZXSCFHycp4WrvudYNpgMlb94GswPJcZdMBMGA1UdJQQMMAoGCCsGAQUFBwMB
MAsGA1UdDwQEAwIFoDAZBgNVHREEEjAQgg50ZWFtMjQwLXNlcnZlcjANBgkqhkiG
9w0BAQsFAAOCAQEAskyqF7E9ZJDI4sOauvPCniZGqtRFzO5oiK3KVCRD/noM6yPL
Z84lPcWqQJk4Vo0T14hsgi2up3giOVnQUE/7+39U/qk41G0x5FXHwizGPD0FBeh4
bohQR3OC6IDCVPIqV++b/ZmK/Pk/vmMx+5DTUOpzma0oYJW8/GivPitW0B1TA3nA
HP0HBiYhnTRvvP1Gug4WE9jsGqaZxJLInHw/oUJKyVCZ3h1fx2j6B7mesu/TaMzv
OzfBRSbnrDNYSIKl5d8tJAQq3kafO1pEPCdRAC7RQKVvGG9RfNGj5fBkI5+3b64J
tT/zOmD3tLdS6O+LIRuwuQqohtvrtF0ZWuIV4g==
-----END CERTIFICATE-----
