Certificate:
    Data:
        Version: 3 (0x2)
        Serial Number:
            14:ff:02:6c:55:e6:d6:28:6f:29:9d:bb:a7:10:99:3d
        Signature Algorithm: sha256WithRSAEncryption
        Issuer: CN=team445-net
        Validity
            Not Before: May 18 21:18:33 2022 GMT
            Not After : May  2 21:18:33 2025 GMT
        Subject: CN=team445-client
        Subject Public Key Info:
            Public Key Algorithm: rsaEncryption
                RSA Public-Key: (2048 bit)
                Modulus:
                    00:f7:c9:9c:51:b9:cf:c2:ac:f6:14:2f:33:08:5c:
                    47:9c:fd:a6:b8:8d:f6:9e:01:d1:33:68:d8:cc:f2:
                    03:2f:11:21:85:4a:82:cd:04:ff:42:75:a9:f2:c5:
                    d9:4e:22:31:f2:be:97:6f:b5:f4:93:2f:30:8f:75:
                    ec:49:b6:c1:20:97:48:f4:f8:b1:90:92:7a:f1:d5:
                    8b:95:14:67:26:37:33:32:9a:79:d4:5a:ea:12:6f:
                    da:0b:6a:b9:e8:30:27:2a:e3:ab:45:33:09:e1:ef:
                    ab:74:3d:1f:43:d0:9f:59:ac:54:16:dd:37:0b:01:
                    e9:e8:88:97:c3:42:75:3a:a1:09:cb:a0:9c:85:98:
                    af:a6:b5:72:ad:8b:ff:17:a5:bf:e0:6b:fa:c0:ce:
                    66:71:d2:7d:e1:ad:08:a9:6d:82:9c:6c:8e:eb:b4:
                    31:68:b1:06:d6:3a:0c:f5:c7:f9:15:97:31:1f:88:
                    55:6a:10:b6:7b:8c:57:73:f4:95:e6:be:11:78:60:
                    04:6d:27:f8:b3:6d:17:ad:45:51:68:e8:24:40:c3:
                    ba:4d:d9:c3:18:58:97:2b:9e:b6:e7:0f:16:8d:59:
                    2e:d8:bc:91:fc:30:c6:fb:ea:a4:ea:65:24:30:19:
                    9a:e2:23:95:a8:6d:13:23:ce:49:98:00:cf:61:61:
                    48:31
                Exponent: 65537 (0x10001)
        X509v3 extensions:
            X509v3 Basic Constraints: 
                CA:FALSE
            X509v3 Subject Key Identifier: 
                7E:59:D6:19:2C:9E:74:F1:98:18:96:B7:AA:BE:33:02:E7:79:4A:10
            X509v3 Authority Key Identifier: 
                keyid:11:67:23:F0:03:54:DC:81:23:41:CB:32:5D:80:9C:3B:FE:E5:A6:73
                DirName:/CN=team445-net
                serial:55:68:E8:6D:1B:CB:33:B6:20:54:BE:06:66:47:D7:45:80:29:BF:C7

            X509v3 Extended Key Usage: 
                TLS Web Client Authentication
            X509v3 Key Usage: 
                Digital Signature
    Signature Algorithm: sha256WithRSAEncryption
         c6:81:2a:5f:13:4a:72:a0:e6:a1:87:1c:b3:aa:b5:4e:f8:d3:
         98:d5:7e:7b:fe:3e:47:62:7d:3c:db:d7:12:fa:9f:92:fb:6b:
         0b:66:fa:86:4b:4a:c7:2a:c1:a5:65:0f:e5:a3:79:c3:2b:ab:
         96:32:f7:ae:60:ff:e7:30:45:05:83:34:02:d3:22:c2:32:9c:
         bc:30:c1:84:30:4d:88:f0:3e:ff:a9:a4:f1:47:27:77:f6:f9:
         ef:ca:fb:0d:e7:01:d3:4d:83:71:13:99:3c:a3:4a:be:ff:93:
         29:8e:a3:e9:9d:18:ff:54:44:66:c7:3a:21:82:44:22:8e:cb:
         0a:83:b4:b8:98:d5:07:c5:3b:a1:16:56:da:ad:44:b8:28:13:
         5e:34:d0:c7:75:b3:84:5a:2d:20:a4:88:d2:62:34:64:11:09:
         51:31:fc:b1:7d:51:da:84:07:80:b1:00:e6:fc:f4:7b:7e:d6:
         90:90:19:2e:15:5e:4e:12:8f:2b:eb:30:28:3c:d5:ee:47:5e:
         9c:6e:9e:39:a4:15:1e:37:6f:0c:fe:12:6c:82:40:8e:5b:d7:
         00:54:bd:3f:fd:0f:3f:6f:70:dd:46:79:3f:f4:78:ef:83:63:
         f2:5e:35:d7:8d:3c:25:9a:70:03:e4:47:c1:37:d3:4c:7b:f0:
         66:e9:66:20
-----BEGIN CERTIFICATE-----
MIIDXDCCAkSgAwIBAgIQFP8CbFXm1ihvKZ27pxCZPTANBgkqhkiG9w0BAQsFADAW
MRQwEgYDVQQDDAt0ZWFtNDQ1LW5ldDAeFw0yMjA1MTgyMTE4MzNaFw0yNTA1MDIy
MTE4MzNaMBkxFzAVBgNVBAMMDnRlYW00NDUtY2xpZW50MIIBIjANBgkqhkiG9w0B
AQEFAAOCAQ8AMIIBCgKCAQEA98mcUbnPwqz2FC8zCFxHnP2muI32ngHRM2jYzPID
LxEhhUqCzQT/QnWp8sXZTiIx8r6Xb7X0ky8wj3XsSbbBIJdI9PixkJJ68dWLlRRn
JjczMpp51FrqEm/aC2q56DAnKuOrRTMJ4e+rdD0fQ9CfWaxUFt03CwHp6IiXw0J1
OqEJy6CchZivprVyrYv/F6W/4Gv6wM5mcdJ94a0IqW2CnGyO67QxaLEG1joM9cf5
FZcxH4hVahC2e4xXc/SV5r4ReGAEbSf4s20XrUVRaOgkQMO6TdnDGFiXK5625w8W
jVku2LyR/DDG++qk6mUkMBma4iOVqG0TI85JmADPYWFIMQIDAQABo4GiMIGfMAkG
A1UdEwQCMAAwHQYDVR0OBBYEFH5Z1hksnnTxmBiWt6q+MwLneUoQMFEGA1UdIwRK
MEiAFBFnI/ADVNyBI0HLMl2AnDv+5aZzoRqkGDAWMRQwEgYDVQQDDAt0ZWFtNDQ1
LW5ldIIUVWjobRvLM7YgVL4GZkfXRYApv8cwEwYDVR0lBAwwCgYIKwYBBQUHAwIw
CwYDVR0PBAQDAgeAMA0GCSqGSIb3DQEBCwUAA4IBAQDGgSpfE0pyoOahhxyzqrVO
+NOY1X57/j5HYn0829cS+p+S+2sLZvqGS0rHKsGlZQ/lo3nDK6uWMveuYP/nMEUF
gzQC0yLCMpy8MMGEME2I8D7/qaTxRyd39vnvyvsN5wHTTYNxE5k8o0q+/5MpjqPp
nRj/VERmxzohgkQijssKg7S4mNUHxTuhFlbarUS4KBNeNNDHdbOEWi0gpIjSYjRk
EQlRMfyxfVHahAeAsQDm/PR7ftaQkBkuFV5OEo8r6zAoPNXuR16cbp45pBUeN28M
/hJsgkCOW9cAVL0//Q8/b3DdRnk/9Hjvg2PyXjXXjTwlmnAD5EfBN9NMe/Bm6WYg
-----END CERTIFICATE-----
