Certificate:
    Data:
        Version: 3 (0x2)
        Serial Number:
            8c:a8:cf:c2:25:45:0f:3e:d3:5d:8e:f6:2b:59:bc:54
        Signature Algorithm: sha256WithRSAEncryption
        Issuer: CN=team213-net
        Validity
            Not Before: May 18 19:16:57 2022 GMT
            Not After : May  2 19:16:57 2025 GMT
        Subject: CN=team213-client
        Subject Public Key Info:
            Public Key Algorithm: rsaEncryption
                RSA Public-Key: (2048 bit)
                Modulus:
                    00:b6:e6:8d:47:fc:51:ed:ca:2e:2a:b6:bb:c4:52:
                    7b:d4:c1:d1:7f:87:42:8f:02:e0:14:01:69:f6:a0:
                    aa:82:58:3a:d2:77:26:c6:4c:cf:1b:76:df:5b:e9:
                    c8:07:af:db:e1:2f:91:a4:0d:47:06:fc:89:42:eb:
                    63:1e:80:0a:ed:09:47:e2:4e:21:0f:4d:8e:5f:ac:
                    26:56:6e:25:08:9e:83:02:ee:23:44:80:8c:34:e2:
                    1e:6b:42:98:e0:76:fb:b8:c4:6a:d8:18:8d:43:c1:
                    c4:a8:0d:31:7b:40:4f:da:1b:3f:0a:d1:08:25:33:
                    a3:f5:94:29:90:2a:cf:37:46:5f:ec:07:de:e6:ea:
                    73:5a:0d:97:41:30:5b:91:46:28:58:3c:a6:16:6d:
                    98:55:2a:34:e3:05:f5:05:d9:83:39:93:e4:ef:d8:
                    44:24:4f:fb:fc:49:4b:d4:87:e9:86:e4:c1:37:48:
                    eb:2d:52:85:1a:e5:0c:09:78:2c:e5:e0:7c:87:1e:
                    90:43:86:c9:78:e5:ae:41:e3:43:22:a5:cd:c4:53:
                    db:c6:aa:db:04:d9:14:a7:ca:f4:fc:7c:6c:c1:c6:
                    21:73:9c:7f:67:6e:9b:ea:6a:f3:4c:b9:4b:65:a9:
                    21:4c:d1:d7:a9:5d:e1:08:32:1d:fb:8c:d2:44:65:
                    35:6f
                Exponent: 65537 (0x10001)
        X509v3 extensions:
            X509v3 Basic Constraints: 
                CA:FALSE
            X509v3 Subject Key Identifier: 
                BC:33:2B:FD:E4:4E:24:05:BF:7C:EB:F8:E4:A3:90:46:EF:E4:23:3F
            X509v3 Authority Key Identifier: 
                keyid:35:62:11:CA:96:32:B2:83:40:09:6F:F8:F9:63:21:3A:48:F8:6F:73
                DirName:/CN=team213-net
                serial:08:AA:44:D2:64:09:09:19:E9:63:C3:57:E1:C3:0F:5D:B0:4D:81:27

            X509v3 Extended Key Usage: 
                TLS Web Client Authentication
            X509v3 Key Usage: 
                Digital Signature
    Signature Algorithm: sha256WithRSAEncryption
         31:4d:88:c5:a0:a1:c9:83:b5:3a:9f:f6:4d:21:ee:fa:5a:3c:
         3e:8f:57:42:21:bf:3b:9c:73:ac:8d:5b:3d:79:4f:f2:b4:5d:
         7f:c3:7d:c5:3a:6e:69:65:0c:b0:ff:ba:3b:33:24:59:fc:c7:
         8f:2f:43:85:5d:be:56:47:c7:7f:48:a2:f5:31:cf:45:71:5c:
         df:35:6f:0c:f6:52:72:84:2d:d0:34:03:28:5e:98:8d:a1:93:
         12:4f:85:1b:33:6f:ff:1c:f9:ae:b1:5e:cf:ed:2a:04:97:c7:
         39:8e:3b:cb:ab:ad:f8:e4:19:4e:a2:d2:74:d4:b0:3f:f8:4d:
         88:7d:c7:41:ba:a4:d4:08:5c:9a:39:a9:1e:dc:c4:a9:a1:d0:
         82:6a:11:7a:17:b0:53:2a:f4:e4:77:83:ca:ad:f6:81:58:51:
         84:22:4d:fd:47:57:7e:4e:e6:0b:38:f2:ca:a8:61:e9:67:43:
         f6:28:b2:f5:42:bd:a5:0f:53:f2:5e:06:e8:79:15:a0:49:db:
         43:39:be:91:14:00:5d:81:50:fd:69:17:b7:43:12:d8:35:e9:
         b4:5c:fc:f6:7f:40:ce:d2:c1:ce:3b:4c:e4:6a:08:8f:42:10:
         4f:13:ab:71:a7:58:52:08:41:12:37:d6:f0:36:da:b1:c5:a9:
         9d:81:ea:ba
-----BEGIN CERTIFICATE-----
MIIDXTCCAkWgAwIBAgIRAIyoz8IlRQ8+012O9itZvFQwDQYJKoZIhvcNAQELBQAw
FjEUMBIGA1UEAwwLdGVhbTIxMy1uZXQwHhcNMjIwNTE4MTkxNjU3WhcNMjUwNTAy
MTkxNjU3WjAZMRcwFQYDVQQDDA50ZWFtMjEzLWNsaWVudDCCASIwDQYJKoZIhvcN
AQEBBQADggEPADCCAQoCggEBALbmjUf8Ue3KLiq2u8RSe9TB0X+HQo8C4BQBafag
qoJYOtJ3JsZMzxt231vpyAev2+EvkaQNRwb8iULrYx6ACu0JR+JOIQ9Njl+sJlZu
JQiegwLuI0SAjDTiHmtCmOB2+7jEatgYjUPBxKgNMXtAT9obPwrRCCUzo/WUKZAq
zzdGX+wH3ubqc1oNl0EwW5FGKFg8phZtmFUqNOMF9QXZgzmT5O/YRCRP+/xJS9SH
6YbkwTdI6y1ShRrlDAl4LOXgfIcekEOGyXjlrkHjQyKlzcRT28aq2wTZFKfK9Px8
bMHGIXOcf2dum+pq80y5S2WpIUzR16ld4QgyHfuM0kRlNW8CAwEAAaOBojCBnzAJ
BgNVHRMEAjAAMB0GA1UdDgQWBBS8Myv95E4kBb986/jko5BG7+QjPzBRBgNVHSME
SjBIgBQ1YhHKljKyg0AJb/j5YyE6SPhvc6EapBgwFjEUMBIGA1UEAwwLdGVhbTIx
My1uZXSCFAiqRNJkCQkZ6WPDV+HDD12wTYEnMBMGA1UdJQQMMAoGCCsGAQUFBwMC
MAsGA1UdDwQEAwIHgDANBgkqhkiG9w0BAQsFAAOCAQEAMU2IxaChyYO1Op/2TSHu
+lo8Po9XQiG/O5xzrI1bPXlP8rRdf8N9xTpuaWUMsP+6OzMkWfzHjy9DhV2+VkfH
f0ii9THPRXFc3zVvDPZScoQt0DQDKF6YjaGTEk+FGzNv/xz5rrFez+0qBJfHOY47
y6ut+OQZTqLSdNSwP/hNiH3HQbqk1AhcmjmpHtzEqaHQgmoRehewUyr05HeDyq32
gVhRhCJN/UdXfk7mCzjyyqhh6WdD9iiy9UK9pQ9T8l4G6HkVoEnbQzm+kRQAXYFQ
/WkXt0MS2DXptFz89n9AztLBzjtM5GoIj0IQTxOrcadYUghBEjfW8DbascWpnYHq
ug==
-----END CERTIFICATE-----
