Certificate:
    Data:
        Version: 3 (0x2)
        Serial Number:
            1a:76:51:53:92:71:32:6b:28:74:b6:a0:49:d6:cd:1a
        Signature Algorithm: sha256WithRSAEncryption
        Issuer: CN=team213-net
        Validity
            Not Before: May 18 19:16:57 2022 GMT
            Not After : May  2 19:16:57 2025 GMT
        Subject: CN=team213-server
        Subject Public Key Info:
            Public Key Algorithm: rsaEncryption
                RSA Public-Key: (2048 bit)
                Modulus:
                    00:cc:e5:9f:9e:fc:03:19:f5:1d:3d:2e:2f:b3:ae:
                    df:76:67:85:2d:46:4a:e6:5d:4d:70:47:bb:88:68:
                    7e:f4:6b:a6:33:3d:ab:f4:b6:e4:ff:63:92:86:04:
                    44:f9:3f:b9:cf:54:d7:40:4e:7e:6c:08:47:6d:5b:
                    71:42:1a:ac:ac:d5:1d:af:b8:f9:c3:11:5d:9c:b3:
                    c5:30:61:f9:04:38:c1:23:20:22:7f:60:e4:aa:1a:
                    db:7b:d3:47:82:f9:94:88:70:e3:a3:1b:f6:3f:c3:
                    f5:96:9b:a7:42:b8:7c:98:48:f6:9f:5f:2e:07:98:
                    a8:01:42:1a:26:cb:f9:e3:98:7d:8f:ad:f5:45:d0:
                    61:fb:3d:c2:f7:b3:c6:a9:06:8a:7b:fb:66:1b:dd:
                    5c:72:eb:dc:29:04:1a:7e:85:47:eb:af:6e:3d:10:
                    47:e0:32:81:d5:b1:51:0f:63:83:fa:fd:df:76:5a:
                    41:d1:a8:aa:d1:cd:3a:53:e5:1f:12:e6:d1:36:38:
                    e0:1b:2b:89:ac:8a:13:c5:ee:93:05:e5:9f:66:f0:
                    43:8f:25:96:a0:ea:88:b9:2c:d5:b9:1a:23:9e:42:
                    17:74:c2:03:c6:86:16:1d:ba:49:50:7e:df:ae:b8:
                    0a:ec:92:a5:a9:1d:a1:85:79:96:14:f0:dd:50:56:
                    41:4f
                Exponent: 65537 (0x10001)
        X509v3 extensions:
            X509v3 Basic Constraints: 
                CA:FALSE
            X509v3 Subject Key Identifier: 
                4F:72:9E:5B:12:76:FA:DA:C7:B3:E5:36:E6:4F:D3:73:B7:BC:A3:62
            X509v3 Authority Key Identifier: 
                keyid:35:62:11:CA:96:32:B2:83:40:09:6F:F8:F9:63:21:3A:48:F8:6F:73
                DirName:/CN=team213-net
                serial:08:AA:44:D2:64:09:09:19:E9:63:C3:57:E1:C3:0F:5D:B0:4D:81:27

            X509v3 Extended Key Usage: 
                TLS Web Server Authentication
            X509v3 Key Usage: 
                Digital Signature, Key Encipherment
            X509v3 Subject Alternative Name: 
                DNS:team213-server
    Signature Algorithm: sha256WithRSAEncryption
         bd:2d:f3:7d:2d:0a:dd:18:ce:10:9e:57:43:53:d9:ed:08:f9:
         15:da:03:6b:f9:32:4e:7b:d3:29:fa:ff:33:4b:3e:79:1a:34:
         1b:73:04:68:41:01:ce:aa:7b:be:7b:ea:c6:cd:c5:37:b5:24:
         84:d7:83:bf:b6:32:3f:47:ac:82:e1:a8:2a:c4:88:17:54:35:
         7c:1d:ea:37:b4:24:b9:18:fa:b2:58:71:34:2f:01:44:55:1a:
         9e:ac:02:e4:28:68:ca:9f:bb:08:0e:93:c2:63:78:08:45:f4:
         6e:74:28:e8:17:2d:49:0e:d8:ee:7d:0f:8e:3a:5d:89:57:1b:
         98:ff:51:eb:2a:07:e4:56:cd:e6:1f:14:b8:a9:a0:84:d6:36:
         30:78:e2:13:2e:36:00:93:73:f2:ed:e9:f6:01:f8:eb:49:7c:
         67:b6:2c:00:83:d1:95:94:82:6f:72:a6:6a:70:1f:d4:d3:8e:
         9c:b4:d9:db:b3:07:74:86:e3:43:bb:41:41:0b:d1:b6:67:2c:
         10:bd:62:1e:56:d3:36:36:1c:47:08:40:63:a7:ca:df:0a:f1:
         73:09:2d:90:a6:7d:e8:97:e2:c2:fd:69:a6:dd:a6:4c:24:3c:
         12:d5:7f:90:53:42:55:7a:f2:98:d1:e5:d4:d8:16:a6:95:20:
         1c:62:1b:00
-----BEGIN CERTIFICATE-----
MIIDdzCCAl+gAwIBAgIQGnZRU5JxMmsodLagSdbNGjANBgkqhkiG9w0BAQsFADAW
MRQwEgYDVQQDDAt0ZWFtMjEzLW5ldDAeFw0yMjA1MTgxOTE2NTdaFw0yNTA1MDIx
OTE2NTdaMBkxFzAVBgNVBAMMDnRlYW0yMTMtc2VydmVyMIIBIjANBgkqhkiG9w0B
AQEFAAOCAQ8AMIIBCgKCAQEAzOWfnvwDGfUdPS4vs67fdmeFLUZK5l1NcEe7iGh+
9GumMz2r9Lbk/2OShgRE+T+5z1TXQE5+bAhHbVtxQhqsrNUdr7j5wxFdnLPFMGH5
BDjBIyAif2Dkqhrbe9NHgvmUiHDjoxv2P8P1lpunQrh8mEj2n18uB5ioAUIaJsv5
45h9j631RdBh+z3C97PGqQaKe/tmG91ccuvcKQQafoVH669uPRBH4DKB1bFRD2OD
+v3fdlpB0aiq0c06U+UfEubRNjjgGyuJrIoTxe6TBeWfZvBDjyWWoOqIuSzVuRoj
nkIXdMIDxoYWHbpJUH7frrgK7JKlqR2hhXmWFPDdUFZBTwIDAQABo4G9MIG6MAkG
A1UdEwQCMAAwHQYDVR0OBBYEFE9ynlsSdvrax7PlNuZP03O3vKNiMFEGA1UdIwRK
MEiAFDViEcqWMrKDQAlv+PljITpI+G9zoRqkGDAWMRQwEgYDVQQDDAt0ZWFtMjEz
LW5ldIIUCKpE0mQJCRnpY8NX4cMPXbBNgScwEwYDVR0lBAwwCgYIKwYBBQUHAwEw
CwYDVR0PBAQDAgWgMBkGA1UdEQQSMBCCDnRlYW0yMTMtc2VydmVyMA0GCSqGSIb3
DQEBCwUAA4IBAQC9LfN9LQrdGM4QnldDU9ntCPkV2gNr+TJOe9Mp+v8zSz55GjQb
cwRoQQHOqnu+e+rGzcU3tSSE14O/tjI/R6yC4agqxIgXVDV8Heo3tCS5GPqyWHE0
LwFEVRqerALkKGjKn7sIDpPCY3gIRfRudCjoFy1JDtjufQ+OOl2JVxuY/1HrKgfk
Vs3mHxS4qaCE1jYweOITLjYAk3Py7en2AfjrSXxntiwAg9GVlIJvcqZqcB/U046c
tNnbswd0huNDu0FBC9G2ZywQvWIeVtM2NhxHCEBjp8rfCvFzCS2Qpn3ol+LC/Wmm
3aZMJDwS1X+QU0JVevKY0eXU2BamlSAcYhsA
-----END CERTIFICATE-----
