Certificate:
    Data:
        Version: 3 (0x2)
        Serial Number:
            cd:c6:99:4e:aa:95:b8:30:43:12:3c:09:c7:d7:30:dc
        Signature Algorithm: sha256WithRSAEncryption
        Issuer: CN=team538-net
        Validity
            Not Before: May 18 22:08:34 2022 GMT
            Not After : May  2 22:08:34 2025 GMT
        Subject: CN=team538-server
        Subject Public Key Info:
            Public Key Algorithm: rsaEncryption
                RSA Public-Key: (2048 bit)
                Modulus:
                    00:f6:3d:c8:5d:67:1f:0c:81:14:73:f2:6e:ff:ec:
                    26:dc:72:bb:57:a0:31:e9:fb:65:41:6a:3b:4a:cd:
                    30:c5:16:df:3d:30:27:ee:6b:96:43:dd:3b:f0:43:
                    eb:a3:66:a8:c7:ea:cf:e0:7c:16:69:31:ef:54:2d:
                    fe:9e:3d:d0:7d:e7:b5:9c:da:e7:c1:0e:08:b2:1d:
                    ec:ad:12:c8:11:d0:07:93:04:af:86:f0:ab:49:f2:
                    98:5b:0b:65:bd:f1:32:97:70:a7:ae:9d:2d:52:6e:
                    ea:0f:41:d2:38:9f:1d:44:9d:01:b0:b2:a6:4b:90:
                    17:45:17:54:d9:ea:cc:57:48:4c:f5:09:47:4a:7d:
                    90:40:6d:3d:f1:54:78:7f:12:bb:16:02:59:a0:21:
                    1f:88:44:d4:90:80:cf:fe:4b:91:e0:86:fe:bc:be:
                    9b:b2:6f:66:f7:7c:7b:5d:ef:e2:0f:d9:b9:f2:b4:
                    23:9d:90:2c:ae:bb:70:8b:c0:44:ef:23:11:48:63:
                    a9:98:82:49:bd:93:6f:c9:de:b2:4b:43:99:17:e8:
                    91:03:f5:eb:74:14:54:a5:06:b0:70:1b:df:0c:f5:
                    4a:c1:74:6c:83:ac:9d:4e:6e:95:f3:93:f6:1f:61:
                    02:0c:fe:0c:55:af:44:a6:6c:81:8d:18:5e:b2:ac:
                    e5:39
                Exponent: 65537 (0x10001)
        X509v3 extensions:
            X509v3 Basic Constraints: 
                CA:FALSE
            X509v3 Subject Key Identifier: 
                2A:E3:BB:D9:6A:75:B3:C7:80:AC:80:DF:F8:B5:A4:A9:3D:3B:07:61
            X509v3 Authority Key Identifier: 
                keyid:78:AC:B5:DE:44:05:EF:3C:A7:98:99:61:5B:F0:76:24:E3:AF:6A:DC
                DirName:/CN=team538-net
                serial:4A:91:69:DF:84:A1:6C:C4:32:B0:04:D9:4C:78:CB:74:2F:34:12:16

            X509v3 Extended Key Usage: 
                TLS Web Server Authentication
            X509v3 Key Usage: 
                Digital Signature, Key Encipherment
            X509v3 Subject Alternative Name: 
                DNS:team538-server
    Signature Algorithm: sha256WithRSAEncryption
         a8:e9:a9:b1:5a:74:96:0a:c1:69:4e:86:50:c0:81:a0:5a:4e:
         63:e4:78:d3:b7:bd:ca:43:ba:26:96:59:c6:f0:8e:b1:ba:8e:
         7f:9d:64:18:96:08:ac:a8:9f:d0:d3:66:2d:33:4e:fe:b3:a9:
         ad:f3:8c:88:58:a8:02:01:64:f2:27:03:a4:6e:bc:90:12:c8:
         28:d1:11:82:7f:f7:8e:be:ea:40:26:13:6f:91:3a:64:f8:1b:
         f0:45:8a:37:01:60:6d:b9:74:2e:89:9c:c7:ed:93:91:7c:68:
         21:85:01:6d:af:d7:e0:2f:2b:ad:39:80:dd:ef:09:f5:db:58:
         d7:e4:f9:4a:b7:d6:22:34:aa:07:3a:f5:40:71:6a:9a:59:40:
         f3:12:cd:d1:f8:fd:3e:ee:39:1e:ae:85:6d:b9:f4:1e:84:b2:
         33:84:44:07:bf:e9:81:e5:01:8c:9c:84:64:9b:11:ab:e0:2a:
         e1:50:be:40:4d:77:73:d9:c8:cf:be:3c:ba:15:26:c8:40:63:
         71:3d:a9:d6:f2:94:6f:a0:6b:40:65:db:d4:bb:8e:0d:cb:bb:
         cd:9e:ac:7e:42:c7:2c:4c:cd:1b:bc:be:a6:3d:fc:fd:63:a5:
         8b:9c:81:95:4b:f6:88:f4:85:4d:02:a0:4e:34:7c:ae:b7:ed:
         f4:d9:58:f1
-----BEGIN CERTIFICATE-----
MIIDeDCCAmCgAwIBAgIRAM3GmU6qlbgwQxI8CcfXMNwwDQYJKoZIhvcNAQELBQAw
FjEUMBIGA1UEAwwLdGVhbTUzOC1uZXQwHhcNMjIwNTE4MjIwODM0WhcNMjUwNTAy
MjIwODM0WjAZMRcwFQYDVQQDDA50ZWFtNTM4LXNlcnZlcjCCASIwDQYJKoZIhvcN
AQEBBQADggEPADCCAQoCggEBAPY9yF1nHwyBFHPybv/sJtxyu1egMen7ZUFqO0rN
MMUW3z0wJ+5rlkPdO/BD66NmqMfqz+B8Fmkx71Qt/p490H3ntZza58EOCLId7K0S
yBHQB5MEr4bwq0nymFsLZb3xMpdwp66dLVJu6g9B0jifHUSdAbCypkuQF0UXVNnq
zFdITPUJR0p9kEBtPfFUeH8SuxYCWaAhH4hE1JCAz/5LkeCG/ry+m7JvZvd8e13v
4g/ZufK0I52QLK67cIvARO8jEUhjqZiCSb2Tb8nesktDmRfokQP163QUVKUGsHAb
3wz1SsF0bIOsnU5ulfOT9h9hAgz+DFWvRKZsgY0YXrKs5TkCAwEAAaOBvTCBujAJ
BgNVHRMEAjAAMB0GA1UdDgQWBBQq47vZanWzx4CsgN/4taSpPTsHYTBRBgNVHSME
SjBIgBR4rLXeRAXvPKeYmWFb8HYk469q3KEapBgwFjEUMBIGA1UEAwwLdGVhbTUz
OC1uZXSCFEqRad+EoWzEMrAE2Ux4y3QvNBIWMBMGA1UdJQQMMAoGCCsGAQUFBwMB
MAsGA1UdDwQEAwIFoDAZBgNVHREEEjAQgg50ZWFtNTM4LXNlcnZlcjANBgkqhkiG
9w0BAQsFAAOCAQEAqOmpsVp0lgrBaU6GUMCBoFpOY+R407e9ykO6JpZZxvCOsbqO
f51kGJYIrKif0NNmLTNO/rOprfOMiFioAgFk8icDpG68kBLIKNERgn/3jr7qQCYT
b5E6ZPgb8EWKNwFgbbl0Lomcx+2TkXxoIYUBba/X4C8rrTmA3e8J9dtY1+T5SrfW
IjSqBzr1QHFqmllA8xLN0fj9Pu45Hq6Fbbn0HoSyM4REB7/pgeUBjJyEZJsRq+Aq
4VC+QE13c9nIz748uhUmyEBjcT2p1vKUb6BrQGXb1LuODcu7zZ6sfkLHLEzNG7y+
pj38/WOli5yBlUv2iPSFTQKgTjR8rrft9NlY8Q==
-----END CERTIFICATE-----
