Certificate:
    Data:
        Version: 3 (0x2)
        Serial Number:
            c9:d5:b9:a1:6b:66:b2:84:76:db:e0:5f:7a:10:34:e9
        Signature Algorithm: sha256WithRSAEncryption
        Issuer: CN=team292-net
        Validity
            Not Before: May 18 19:55:19 2022 GMT
            Not After : May  2 19:55:19 2025 GMT
        Subject: CN=team292-server
        Subject Public Key Info:
            Public Key Algorithm: rsaEncryption
                RSA Public-Key: (2048 bit)
                Modulus:
                    00:c3:28:ff:7b:e1:2b:25:94:2b:98:6e:f8:32:6a:
                    1e:3b:cc:80:62:34:81:64:2e:95:1c:1c:71:03:ab:
                    a1:d5:b9:61:9c:1e:25:6f:f0:94:68:91:fb:b1:98:
                    d4:e2:7b:8b:36:49:52:ec:72:70:59:69:d5:9f:f7:
                    25:e3:67:df:dd:d4:a8:29:93:04:38:a4:a4:13:3e:
                    4c:aa:f8:9e:60:b1:e2:37:93:5f:c4:17:39:dd:8a:
                    39:c4:41:28:81:36:96:96:75:be:6e:d3:97:a7:9d:
                    3c:23:ae:c5:31:3c:d0:b9:18:03:d6:b8:b5:8e:49:
                    0f:59:87:a0:a8:62:e9:9f:9e:fb:0e:c8:b1:1d:a6:
                    43:13:a6:06:f6:f3:ce:04:5b:c5:bb:8f:79:2f:22:
                    61:d3:84:61:4b:ce:f4:02:00:49:7b:d3:38:f0:c4:
                    ce:76:97:3a:06:57:5e:21:f9:c7:cd:47:cb:c1:39:
                    90:2f:c1:45:8a:fb:b3:d8:14:1a:b2:6d:d0:2d:6e:
                    f2:a3:4c:aa:62:78:9b:b4:5d:57:e4:01:05:4b:5d:
                    de:09:dc:93:a8:65:1f:3c:35:c2:97:79:ff:ff:61:
                    d6:66:7f:0d:28:98:6b:2c:b4:1f:a8:b0:df:85:de:
                    8b:49:39:34:55:34:06:87:3d:88:15:24:38:0d:6f:
                    8a:75
                Exponent: 65537 (0x10001)
        X509v3 extensions:
            X509v3 Basic Constraints: 
                CA:FALSE
            X509v3 Subject Key Identifier: 
                B2:84:27:07:84:B2:E0:6F:42:25:72:BC:61:53:BB:04:E9:0F:03:51
            X509v3 Authority Key Identifier: 
                keyid:79:47:D2:55:22:EC:5D:E6:4E:2B:DE:10:73:FA:37:E6:65:C1:FC:27
                DirName:/CN=team292-net
                serial:4C:26:F5:9E:8E:7D:4B:B3:28:FF:7A:CA:6F:7B:A1:25:AD:AA:87:CC

            X509v3 Extended Key Usage: 
                TLS Web Server Authentication
            X509v3 Key Usage: 
                Digital Signature, Key Encipherment
            X509v3 Subject Alternative Name: 
                DNS:team292-server
    Signature Algorithm: sha256WithRSAEncryption
         b8:a4:8b:53:c4:36:24:43:17:73:3f:60:79:34:35:4d:68:a6:
         db:52:f5:63:9d:c4:84:5e:83:34:2c:7b:39:66:71:6a:f8:8c:
         a7:49:4f:4d:12:3a:9f:ba:57:cf:87:46:d3:19:5e:3f:fb:c8:
         da:47:17:22:b9:6e:90:38:27:3a:f3:aa:7e:85:a5:bb:54:86:
         4f:09:a5:4e:97:7f:a7:25:66:1e:d1:0b:85:97:8b:67:b8:6c:
         d0:96:92:2f:7d:89:99:7e:b1:df:04:e2:ac:f6:64:10:e8:f5:
         62:a7:31:fc:c0:cf:33:b1:1a:6a:7a:d4:d2:76:04:2a:08:3f:
         00:aa:7e:cb:fd:7a:fb:b5:40:16:3c:15:fb:e5:e7:b0:47:29:
         70:14:c5:81:73:03:2f:94:67:04:9f:bb:2f:94:b9:84:1a:6a:
         47:f2:c6:cd:cc:06:53:3a:74:66:e6:c4:30:8d:29:e1:43:d2:
         2a:f7:0b:4b:d7:9c:5a:03:90:64:aa:33:b4:44:2b:8c:47:b9:
         fe:0d:93:63:fb:1e:77:10:92:92:a1:4e:b1:75:ec:ed:91:64:
         42:e3:e0:43:41:7c:d5:44:18:e0:ef:87:7a:16:64:da:a4:d2:
         86:27:13:6b:91:4d:d3:f6:79:b6:b0:39:94:9c:f6:4c:7b:4a:
         58:61:e4:f4
-----BEGIN CERTIFICATE-----
MIIDeDCCAmCgAwIBAgIRAMnVuaFrZrKEdtvgX3oQNOkwDQYJKoZIhvcNAQELBQAw
FjEUMBIGA1UEAwwLdGVhbTI5Mi1uZXQwHhcNMjIwNTE4MTk1NTE5WhcNMjUwNTAy
MTk1NTE5WjAZMRcwFQYDVQQDDA50ZWFtMjkyLXNlcnZlcjCCASIwDQYJKoZIhvcN
AQEBBQADggEPADCCAQoCggEBAMMo/3vhKyWUK5hu+DJqHjvMgGI0gWQulRwccQOr
odW5YZweJW/wlGiR+7GY1OJ7izZJUuxycFlp1Z/3JeNn393UqCmTBDikpBM+TKr4
nmCx4jeTX8QXOd2KOcRBKIE2lpZ1vm7Tl6edPCOuxTE80LkYA9a4tY5JD1mHoKhi
6Z+e+w7IsR2mQxOmBvbzzgRbxbuPeS8iYdOEYUvO9AIASXvTOPDEznaXOgZXXiH5
x81Hy8E5kC/BRYr7s9gUGrJt0C1u8qNMqmJ4m7RdV+QBBUtd3gnck6hlHzw1wpd5
//9h1mZ/DSiYayy0H6iw34Xei0k5NFU0Boc9iBUkOA1vinUCAwEAAaOBvTCBujAJ
BgNVHRMEAjAAMB0GA1UdDgQWBBSyhCcHhLLgb0IlcrxhU7sE6Q8DUTBRBgNVHSME
SjBIgBR5R9JVIuxd5k4r3hBz+jfmZcH8J6EapBgwFjEUMBIGA1UEAwwLdGVhbTI5
Mi1uZXSCFEwm9Z6OfUuzKP96ym97oSWtqofMMBMGA1UdJQQMMAoGCCsGAQUFBwMB
MAsGA1UdDwQEAwIFoDAZBgNVHREEEjAQgg50ZWFtMjkyLXNlcnZlcjANBgkqhkiG
9w0BAQsFAAOCAQEAuKSLU8Q2JEMXcz9geTQ1TWim21L1Y53EhF6DNCx7OWZxaviM
p0lPTRI6n7pXz4dG0xleP/vI2kcXIrlukDgnOvOqfoWlu1SGTwmlTpd/pyVmHtEL
hZeLZ7hs0JaSL32JmX6x3wTirPZkEOj1Yqcx/MDPM7EaanrU0nYEKgg/AKp+y/16
+7VAFjwV++XnsEcpcBTFgXMDL5RnBJ+7L5S5hBpqR/LGzcwGUzp0ZubEMI0p4UPS
KvcLS9ecWgOQZKoztEQrjEe5/g2TY/sedxCSkqFOsXXs7ZFkQuPgQ0F81UQY4O+H
ehZk2qTShicTa5FN0/Z5trA5lJz2THtKWGHk9A==
-----END CERTIFICATE-----
