Certificate:
    Data:
        Version: 3 (0x2)
        Serial Number:
            bb:35:3d:bd:24:62:cc:79:b4:66:66:a5:34:45:66:44
        Signature Algorithm: sha256WithRSAEncryption
        Issuer: CN=team376-net
        Validity
            Not Before: May 18 20:51:06 2022 GMT
            Not After : May  2 20:51:06 2025 GMT
        Subject: CN=team376-client
        Subject Public Key Info:
            Public Key Algorithm: rsaEncryption
                RSA Public-Key: (2048 bit)
                Modulus:
                    00:cb:0d:ed:88:67:e0:93:40:f4:83:1c:8b:f0:2f:
                    f0:45:66:f2:c3:60:17:31:8d:a8:b4:af:74:4f:3a:
                    30:cc:f1:e8:e3:6b:3f:19:3d:92:17:ab:0b:2e:91:
                    15:15:38:36:4d:97:5b:33:33:41:1a:39:37:01:17:
                    91:48:e6:69:b5:65:f8:63:3e:4c:0a:c0:19:dc:83:
                    4b:5f:c8:43:b1:21:a9:20:09:14:f3:a1:46:1c:5a:
                    26:0f:b7:09:ea:4d:a3:c3:29:cb:fd:ca:19:9d:67:
                    50:ee:f9:62:88:cb:9a:2a:e6:87:84:e8:f6:e0:35:
                    3d:6f:7d:62:7f:03:e6:a4:00:07:28:43:6c:bb:b4:
                    a8:50:b9:df:80:b7:c8:87:08:8f:5f:a8:4f:c1:ee:
                    b9:06:8f:e5:ad:d4:ed:bc:00:07:5d:31:70:af:1e:
                    61:0d:37:7f:f7:72:42:79:03:8e:aa:ad:54:1c:04:
                    8f:f3:cb:e4:6d:fe:25:8b:38:f8:d5:c4:ea:10:5c:
                    36:eb:c6:d7:46:68:de:35:3d:b7:89:f8:ae:87:28:
                    ad:b6:92:16:1f:71:39:e5:9b:71:03:78:68:be:a8:
                    ed:c9:b3:9e:3c:25:aa:f7:8d:b2:49:f5:da:c5:de:
                    bc:88:16:b3:27:a0:7e:0f:7e:92:dd:77:7b:46:66:
                    e4:29
                Exponent: 65537 (0x10001)
        X509v3 extensions:
            X509v3 Basic Constraints: 
                CA:FALSE
            X509v3 Subject Key Identifier: 
                9A:25:01:97:41:E6:47:96:B2:B9:CE:59:A4:5F:7F:38:90:7A:3E:F5
            X509v3 Authority Key Identifier: 
                keyid:F4:70:93:58:F4:53:B7:63:D4:62:F2:8E:3C:53:2E:5D:F1:9E:8B:7E
                DirName:/CN=team376-net
                serial:0F:4B:44:4B:41:BD:28:24:6A:A8:05:FF:FE:9C:48:13:3C:E3:BE:81

            X509v3 Extended Key Usage: 
                TLS Web Client Authentication
            X509v3 Key Usage: 
                Digital Signature
    Signature Algorithm: sha256WithRSAEncryption
         18:f9:56:98:4b:f7:27:57:71:0e:be:d6:c9:6f:ed:a8:b8:e4:
         cf:bf:7a:5e:f8:f4:1d:bc:dc:99:67:2b:e7:55:db:95:36:a3:
         e7:f8:88:5a:5a:08:bd:a3:a4:cd:cb:a5:05:1c:0e:c3:8e:5d:
         71:65:5b:53:c7:62:98:61:fe:b0:97:8d:ea:3f:69:f1:6b:d5:
         99:39:a3:9e:ad:66:79:b3:f5:80:81:27:0e:0f:75:23:8e:57:
         49:d7:2d:12:5f:3b:f0:5d:5a:10:da:e4:95:12:a1:20:2a:63:
         d8:4f:ee:e4:58:92:7f:1a:85:77:db:d0:d2:1e:80:8c:70:cc:
         92:5a:46:a2:a5:9b:c8:ca:46:f6:a2:45:ab:d2:a7:20:e6:33:
         c7:2b:1b:af:45:70:a2:38:7f:ac:dd:31:01:c8:6c:8e:37:b2:
         c1:a7:34:46:b0:27:eb:ea:58:0b:f2:92:85:e6:f1:96:f0:5a:
         29:eb:8f:a3:a3:34:5c:65:34:d0:40:cb:f5:9e:c9:6d:d1:5d:
         bf:d2:e4:19:aa:7d:71:d6:ab:44:d4:2a:61:b2:4c:a7:94:1a:
         be:8f:ef:25:8e:46:bd:ce:4d:2f:fd:cd:f8:df:d5:cb:fa:0a:
         34:7b:01:56:9c:04:13:db:ac:22:e0:72:d9:52:c4:38:de:14:
         0c:79:d7:9f
-----BEGIN CERTIFICATE-----
MIIDXTCCAkWgAwIBAgIRALs1Pb0kYsx5tGZmpTRFZkQwDQYJKoZIhvcNAQELBQAw
FjEUMBIGA1UEAwwLdGVhbTM3Ni1uZXQwHhcNMjIwNTE4MjA1MTA2WhcNMjUwNTAy
MjA1MTA2WjAZMRcwFQYDVQQDDA50ZWFtMzc2LWNsaWVudDCCASIwDQYJKoZIhvcN
AQEBBQADggEPADCCAQoCggEBAMsN7Yhn4JNA9IMci/Av8EVm8sNgFzGNqLSvdE86
MMzx6ONrPxk9kherCy6RFRU4Nk2XWzMzQRo5NwEXkUjmabVl+GM+TArAGdyDS1/I
Q7EhqSAJFPOhRhxaJg+3CepNo8Mpy/3KGZ1nUO75YojLmirmh4To9uA1PW99Yn8D
5qQAByhDbLu0qFC534C3yIcIj1+oT8HuuQaP5a3U7bwAB10xcK8eYQ03f/dyQnkD
jqqtVBwEj/PL5G3+JYs4+NXE6hBcNuvG10Zo3jU9t4n4rocorbaSFh9xOeWbcQN4
aL6o7cmznjwlqveNskn12sXevIgWsyegfg9+kt13e0Zm5CkCAwEAAaOBojCBnzAJ
BgNVHRMEAjAAMB0GA1UdDgQWBBSaJQGXQeZHlrK5zlmkX384kHo+9TBRBgNVHSME
SjBIgBT0cJNY9FO3Y9Ri8o48Uy5d8Z6LfqEapBgwFjEUMBIGA1UEAwwLdGVhbTM3
Ni1uZXSCFA9LREtBvSgkaqgF//6cSBM8476BMBMGA1UdJQQMMAoGCCsGAQUFBwMC
MAsGA1UdDwQEAwIHgDANBgkqhkiG9w0BAQsFAAOCAQEAGPlWmEv3J1dxDr7WyW/t
qLjkz796Xvj0HbzcmWcr51XblTaj5/iIWloIvaOkzculBRwOw45dcWVbU8dimGH+
sJeN6j9p8WvVmTmjnq1mebP1gIEnDg91I45XSdctEl878F1aENrklRKhICpj2E/u
5FiSfxqFd9vQ0h6AjHDMklpGoqWbyMpG9qJFq9KnIOYzxysbr0Vwojh/rN0xAchs
jjeywac0RrAn6+pYC/KShebxlvBaKeuPo6M0XGU00EDL9Z7JbdFdv9LkGap9cdar
RNQqYbJMp5Qavo/vJY5Gvc5NL/3N+N/Vy/oKNHsBVpwEE9usIuBy2VLEON4UDHnX
nw==
-----END CERTIFICATE-----
