Certificate:
    Data:
        Version: 3 (0x2)
        Serial Number:
            ad:ef:d3:e2:28:fd:a7:4c:e8:78:3a:22:ee:1f:53:a1
        Signature Algorithm: sha256WithRSAEncryption
        Issuer: CN=team514-net
        Validity
            Not Before: May 18 22:00:58 2022 GMT
            Not After : May  2 22:00:58 2025 GMT
        Subject: CN=team514-client
        Subject Public Key Info:
            Public Key Algorithm: rsaEncryption
                RSA Public-Key: (2048 bit)
                Modulus:
                    00:ee:2b:c8:ec:8a:04:61:f3:19:db:e6:02:6f:e4:
                    9b:f2:a2:19:ad:42:58:90:4d:ba:89:19:97:1b:eb:
                    d4:aa:db:de:d0:e7:54:26:d7:e7:f5:5a:ae:17:aa:
                    8a:49:b1:2e:5b:eb:5c:ae:3d:a9:a6:3b:d4:a1:75:
                    6c:65:80:7a:1c:78:ec:b7:82:ba:92:93:6a:15:a6:
                    03:f4:11:93:b8:88:c8:6a:26:3b:ee:0d:01:5e:80:
                    24:af:2f:b6:5e:11:d1:04:6b:31:25:2b:92:09:03:
                    d8:4a:88:cd:d8:09:b2:b0:5e:9a:99:6b:f8:9f:4a:
                    34:b4:fe:6f:57:5d:e9:06:a2:0e:b1:37:90:0d:d4:
                    8b:00:6f:4a:83:f7:81:c8:b8:3c:68:c1:3f:8b:61:
                    6b:19:49:09:cd:11:79:77:b4:f7:5a:83:5b:63:e5:
                    35:10:f6:1d:38:12:c5:ae:75:78:e4:f3:20:b7:97:
                    3f:fa:85:c0:4a:fa:15:c3:16:9a:44:47:83:80:d4:
                    fa:42:5b:4c:c1:a1:9b:5f:16:6e:88:c5:77:f2:11:
                    a0:2f:9f:50:d7:56:80:23:b3:65:f5:cc:99:e1:91:
                    96:f4:80:1b:78:25:c2:c6:fd:d6:67:0e:95:f1:f5:
                    ce:79:a5:ee:3b:b9:8d:b4:8b:69:12:8c:4a:ea:da:
                    e1:a5
                Exponent: 65537 (0x10001)
        X509v3 extensions:
            X509v3 Basic Constraints: 
                CA:FALSE
            X509v3 Subject Key Identifier: 
                6F:64:9A:5B:93:05:D8:77:64:B0:DA:14:1A:EA:1C:FF:F5:20:58:79
            X509v3 Authority Key Identifier: 
                keyid:5B:9E:BA:7E:FA:74:70:B9:97:14:94:AA:38:A5:95:CC:6A:32:61:7D
                DirName:/CN=team514-net
                serial:7D:64:77:DB:71:15:F0:A2:EF:16:AF:07:E0:F3:AB:C0:FA:D7:E9:32

            X509v3 Extended Key Usage: 
                TLS Web Client Authentication
            X509v3 Key Usage: 
                Digital Signature
    Signature Algorithm: sha256WithRSAEncryption
         02:ce:ef:77:de:b5:87:47:c9:4d:68:3b:2b:f0:cf:97:e8:37:
         f0:fb:fc:31:84:f0:ad:73:04:cd:68:27:8e:a6:4e:4e:33:c6:
         01:9f:29:6f:04:e2:a3:80:2e:11:05:ca:7f:fe:43:63:c9:4e:
         9b:24:54:82:a8:41:80:7a:e3:3b:3e:88:63:e9:b3:35:3b:64:
         8a:37:fa:60:df:70:74:0b:d7:17:e4:34:fc:ad:45:de:92:12:
         d8:7b:5e:78:4a:9d:b8:71:78:43:3f:e9:91:36:1c:3a:be:58:
         4d:68:c5:a3:03:a9:11:ee:56:e5:be:11:90:ab:67:68:c6:68:
         ed:96:17:46:11:48:14:b9:4b:97:73:7b:75:ab:8a:34:5f:7c:
         ee:7d:69:05:3a:73:d3:27:3d:9d:3b:3b:8f:72:e7:40:59:c4:
         46:35:c1:70:2d:95:60:b5:d5:a7:9d:40:d1:50:9a:46:4f:f2:
         79:ba:91:f2:d9:7b:1b:07:d6:68:cf:27:dd:72:b3:e2:72:ee:
         9f:33:91:14:2f:f2:69:2c:15:ba:74:89:69:21:07:86:0b:a6:
         ab:33:e0:f4:ca:88:cb:f6:3d:96:d3:0c:30:a1:8b:9e:61:69:
         d7:cc:b1:ca:fc:0f:ff:2e:34:c5:ab:03:54:a4:cb:d5:6b:46:
         54:2f:c7:14
-----BEGIN CERTIFICATE-----
MIIDXTCCAkWgAwIBAgIRAK3v0+Io/adM6Hg6Iu4fU6EwDQYJKoZIhvcNAQELBQAw
FjEUMBIGA1UEAwwLdGVhbTUxNC1uZXQwHhcNMjIwNTE4MjIwMDU4WhcNMjUwNTAy
MjIwMDU4WjAZMRcwFQYDVQQDDA50ZWFtNTE0LWNsaWVudDCCASIwDQYJKoZIhvcN
AQEBBQADggEPADCCAQoCggEBAO4ryOyKBGHzGdvmAm/km/KiGa1CWJBNuokZlxvr
1Krb3tDnVCbX5/VarheqikmxLlvrXK49qaY71KF1bGWAehx47LeCupKTahWmA/QR
k7iIyGomO+4NAV6AJK8vtl4R0QRrMSUrkgkD2EqIzdgJsrBemplr+J9KNLT+b1dd
6QaiDrE3kA3UiwBvSoP3gci4PGjBP4thaxlJCc0ReXe091qDW2PlNRD2HTgSxa51
eOTzILeXP/qFwEr6FcMWmkRHg4DU+kJbTMGhm18WbojFd/IRoC+fUNdWgCOzZfXM
meGRlvSAG3glwsb91mcOlfH1znml7ju5jbSLaRKMSura4aUCAwEAAaOBojCBnzAJ
BgNVHRMEAjAAMB0GA1UdDgQWBBRvZJpbkwXYd2Sw2hQa6hz/9SBYeTBRBgNVHSME
SjBIgBRbnrp++nRwuZcUlKo4pZXMajJhfaEapBgwFjEUMBIGA1UEAwwLdGVhbTUx
NC1uZXSCFH1kd9txFfCi7xavB+Dzq8D61+kyMBMGA1UdJQQMMAoGCCsGAQUFBwMC
MAsGA1UdDwQEAwIHgDANBgkqhkiG9w0BAQsFAAOCAQEAAs7vd961h0fJTWg7K/DP
l+g38Pv8MYTwrXMEzWgnjqZOTjPGAZ8pbwTio4AuEQXKf/5DY8lOmyRUgqhBgHrj
Oz6IY+mzNTtkijf6YN9wdAvXF+Q0/K1F3pIS2HteeEqduHF4Qz/pkTYcOr5YTWjF
owOpEe5W5b4RkKtnaMZo7ZYXRhFIFLlLl3N7dauKNF987n1pBTpz0yc9nTs7j3Ln
QFnERjXBcC2VYLXVp51A0VCaRk/yebqR8tl7GwfWaM8n3XKz4nLunzORFC/yaSwV
unSJaSEHhgumqzPg9MqIy/Y9ltMMMKGLnmFp18yxyvwP/y40xasDVKTL1WtGVC/H
FA==
-----END CERTIFICATE-----
