Certificate:
    Data:
        Version: 3 (0x2)
        Serial Number:
            4a:be:5f:65:77:0a:50:e8:c8:d8:fc:a1:a5:c2:7b:13
        Signature Algorithm: sha256WithRSAEncryption
        Issuer: CN=team693-net
        Validity
            Not Before: May 18 23:42:46 2022 GMT
            Not After : May  2 23:42:46 2025 GMT
        Subject: CN=team693-client
        Subject Public Key Info:
            Public Key Algorithm: rsaEncryption
                RSA Public-Key: (2048 bit)
                Modulus:
                    00:cf:59:4c:05:33:d3:7c:d3:8d:13:5b:78:6c:0d:
                    d9:10:3d:0a:2b:5c:dc:31:d8:94:76:03:90:be:36:
                    3a:ec:6e:41:83:ba:28:c7:17:3f:35:fd:90:33:4c:
                    f2:ba:6d:0a:d6:ff:3e:ef:07:ef:fa:2d:b2:79:9d:
                    5c:99:1e:dc:57:35:37:14:44:bf:09:13:87:b6:8f:
                    b3:3e:51:f7:ae:63:6a:93:af:c7:49:b3:55:48:89:
                    1c:aa:44:c8:00:da:06:20:cc:e1:e3:ad:01:47:ac:
                    0f:22:fe:c4:c6:a0:c4:3f:9f:32:ee:f2:52:95:2c:
                    35:6b:77:c8:be:a3:21:aa:5a:2e:11:d3:92:81:1c:
                    0e:a2:50:d2:5c:7a:f0:eb:10:28:b6:81:bb:9c:ed:
                    1c:26:81:39:27:33:fc:1a:4f:db:e2:fd:9b:c2:37:
                    b1:44:30:70:42:c4:1c:f0:7c:f5:af:da:2a:e5:bc:
                    2e:3e:0e:68:9c:25:93:3e:1d:9a:a6:fe:1a:e8:3e:
                    e2:a6:a8:f8:5d:1d:2b:cb:17:e6:c8:aa:d1:cd:cc:
                    53:99:ef:96:65:04:f2:d9:de:34:da:a9:d8:2d:04:
                    a7:42:bb:94:7d:f0:55:3d:f3:c8:1a:be:a9:95:13:
                    dd:26:f5:9c:e9:17:41:38:ac:88:84:76:6d:1f:98:
                    1a:f9
                Exponent: 65537 (0x10001)
        X509v3 extensions:
            X509v3 Basic Constraints: 
                CA:FALSE
            X509v3 Subject Key Identifier: 
                5B:DB:2D:52:35:73:05:9E:D6:6C:FD:2B:17:42:2C:8E:3A:C6:2B:2E
            X509v3 Authority Key Identifier: 
                keyid:17:72:C9:18:32:EA:D7:6E:73:55:A1:4D:C4:99:28:CA:79:78:F1:6B
                DirName:/CN=team693-net
                serial:71:9D:29:26:FA:E7:3F:2C:A2:39:9A:A5:82:70:CF:66:F7:95:68:01

            X509v3 Extended Key Usage: 
                TLS Web Client Authentication
            X509v3 Key Usage: 
                Digital Signature
    Signature Algorithm: sha256WithRSAEncryption
         97:fd:d2:66:34:36:1c:2a:bf:0b:b6:ca:95:9f:e3:36:1b:8d:
         47:43:91:97:08:4b:5a:a2:9a:51:12:73:c6:4c:1e:de:f3:94:
         31:e3:9a:f2:3e:82:d5:31:d9:b3:0d:ae:8d:be:84:d3:08:7f:
         bb:9d:aa:08:7e:da:33:af:e1:10:ae:d8:5b:6c:3c:16:fe:e7:
         80:92:40:20:4d:3d:52:44:d1:99:d5:c7:c9:78:6f:fd:d2:17:
         1c:13:1c:35:9c:99:37:fa:b7:20:f9:ce:c3:51:d7:3c:cd:cd:
         f0:df:ec:d6:36:e9:f8:62:13:bb:aa:24:0b:ba:ab:2b:5a:0d:
         29:ff:cb:a3:6e:2d:aa:2a:4b:bb:c9:e4:44:fe:67:ed:72:2c:
         65:cc:e4:34:f1:e1:19:78:43:8b:05:fa:2b:41:80:42:ea:a3:
         69:a5:e7:99:9d:90:a2:f6:c0:ae:82:a3:cc:b4:27:6f:e9:be:
         d2:60:94:55:01:10:d8:cb:a9:c9:58:4f:f6:10:1c:ad:30:ed:
         62:cf:db:b0:5d:db:a8:42:f0:e8:10:86:23:2e:3d:ed:6e:71:
         45:08:9c:e1:aa:ce:49:2f:ad:17:10:fc:79:b4:2b:8a:5b:2b:
         f0:5f:dc:ee:ce:ba:0c:1f:64:a8:b1:e8:64:60:a0:c7:d5:ab:
         a3:d6:f6:48
-----BEGIN CERTIFICATE-----
MIIDXDCCAkSgAwIBAgIQSr5fZXcKUOjI2PyhpcJ7EzANBgkqhkiG9w0BAQsFADAW
MRQwEgYDVQQDDAt0ZWFtNjkzLW5ldDAeFw0yMjA1MTgyMzQyNDZaFw0yNTA1MDIy
MzQyNDZaMBkxFzAVBgNVBAMMDnRlYW02OTMtY2xpZW50MIIBIjANBgkqhkiG9w0B
AQEFAAOCAQ8AMIIBCgKCAQEAz1lMBTPTfNONE1t4bA3ZED0KK1zcMdiUdgOQvjY6
7G5Bg7ooxxc/Nf2QM0zyum0K1v8+7wfv+i2yeZ1cmR7cVzU3FES/CROHto+zPlH3
rmNqk6/HSbNVSIkcqkTIANoGIMzh460BR6wPIv7ExqDEP58y7vJSlSw1a3fIvqMh
qlouEdOSgRwOolDSXHrw6xAotoG7nO0cJoE5JzP8Gk/b4v2bwjexRDBwQsQc8Hz1
r9oq5bwuPg5onCWTPh2apv4a6D7ipqj4XR0ryxfmyKrRzcxTme+WZQTy2d402qnY
LQSnQruUffBVPfPIGr6plRPdJvWc6RdBOKyIhHZtH5ga+QIDAQABo4GiMIGfMAkG
A1UdEwQCMAAwHQYDVR0OBBYEFFvbLVI1cwWe1mz9KxdCLI46xisuMFEGA1UdIwRK
MEiAFBdyyRgy6tduc1WhTcSZKMp5ePFroRqkGDAWMRQwEgYDVQQDDAt0ZWFtNjkz
LW5ldIIUcZ0pJvrnPyyiOZqlgnDPZveVaAEwEwYDVR0lBAwwCgYIKwYBBQUHAwIw
CwYDVR0PBAQDAgeAMA0GCSqGSIb3DQEBCwUAA4IBAQCX/dJmNDYcKr8LtsqVn+M2
G41HQ5GXCEtaoppREnPGTB7e85Qx45ryPoLVMdmzDa6NvoTTCH+7naoIftozr+EQ
rthbbDwW/ueAkkAgTT1SRNGZ1cfJeG/90hccExw1nJk3+rcg+c7DUdc8zc3w3+zW
Nun4YhO7qiQLuqsrWg0p/8ujbi2qKku7yeRE/mftcixlzOQ08eEZeEOLBforQYBC
6qNppeeZnZCi9sCugqPMtCdv6b7SYJRVARDYy6nJWE/2EBytMO1iz9uwXduoQvDo
EIYjLj3tbnFFCJzhqs5JL60XEPx5tCuKWyvwX9zuzroMH2SosehkYKDH1auj1vZI
-----END CERTIFICATE-----
