Certificate:
    Data:
        Version: 3 (0x2)
        Serial Number:
            c8:b5:f8:5a:d9:9a:21:65:f9:00:3a:1c:34:05:11:fb
        Signature Algorithm: sha256WithRSAEncryption
        Issuer: CN=team158-net
        Validity
            Not Before: May 18 18:45:53 2022 GMT
            Not After : May  2 18:45:53 2025 GMT
        Subject: CN=team158-server
        Subject Public Key Info:
            Public Key Algorithm: rsaEncryption
                RSA Public-Key: (2048 bit)
                Modulus:
                    00:bd:72:6c:d8:6f:23:ce:40:c1:10:c6:a1:09:31:
                    8d:84:5c:35:55:73:5d:77:c1:30:46:ab:ef:8a:98:
                    e0:21:9c:d3:aa:d9:03:be:d6:a5:93:0b:cb:ed:70:
                    0b:4f:0a:91:ba:ee:57:74:a5:c4:d6:e9:83:c0:a1:
                    1c:bf:9f:62:73:f3:14:25:7e:4b:d8:e9:28:9c:62:
                    9b:16:6b:ad:28:9d:e7:4a:ca:98:ed:01:a8:6b:16:
                    cc:94:ec:59:0d:46:8d:9c:df:fb:7c:22:6d:31:7f:
                    56:9f:ec:3d:99:80:9d:23:da:09:fd:5e:1a:ac:cd:
                    1c:4f:2f:43:5d:09:87:06:c2:72:2f:13:cf:d6:b3:
                    89:ac:8e:98:2b:0b:75:a5:10:5f:e5:fa:80:97:c9:
                    69:c3:9e:7d:e2:01:2e:ca:57:7c:ca:55:22:ba:d3:
                    60:19:f7:1b:c6:77:3b:d5:64:90:ed:bb:85:74:9f:
                    67:dc:d8:21:58:29:44:bc:38:39:4b:42:2d:aa:9f:
                    83:fa:59:3f:ab:ac:09:c6:b5:1f:3c:6c:61:97:d5:
                    5d:d5:ca:48:23:19:58:3a:dc:34:c1:27:c1:5b:4e:
                    00:31:1c:a1:bf:8e:7a:ff:fc:4c:17:1b:01:d0:22:
                    78:d9:53:68:57:a7:fa:10:3d:aa:08:0d:41:72:57:
                    a7:05
                Exponent: 65537 (0x10001)
        X509v3 extensions:
            X509v3 Basic Constraints: 
                CA:FALSE
            X509v3 Subject Key Identifier: 
                96:F1:B6:04:9D:4D:D5:8A:2A:0E:BC:8F:60:80:D5:9D:FA:28:E5:15
            X509v3 Authority Key Identifier: 
                keyid:54:14:41:65:9E:2B:41:05:DD:33:F4:76:EA:99:07:A6:08:D1:BD:84
                DirName:/CN=team158-net
                serial:1B:F6:3B:15:E7:D4:FB:5E:04:E5:4F:C6:D4:33:E6:A4:25:54:37:66

            X509v3 Extended Key Usage: 
                TLS Web Server Authentication
            X509v3 Key Usage: 
                Digital Signature, Key Encipherment
            X509v3 Subject Alternative Name: 
                DNS:team158-server
    Signature Algorithm: sha256WithRSAEncryption
         13:2d:09:18:d6:88:fb:4d:4e:41:c9:09:87:12:2c:9b:6c:f6:
         29:4f:f0:14:19:dc:72:6b:54:46:c2:e1:fb:99:6f:3a:ff:26:
         b2:17:c4:6f:e2:7d:42:53:2d:9d:da:3f:fc:33:12:26:3a:46:
         5a:b2:21:7d:4d:95:c1:e8:2c:42:03:27:57:98:2e:cf:6a:74:
         b7:ff:e3:d1:52:cd:e0:f1:d2:3e:81:6a:4c:a5:c8:4f:19:9f:
         3d:17:70:55:d8:35:c9:fc:79:78:e5:0f:d5:bd:cc:3d:3e:9b:
         20:c4:ac:a6:34:6a:ce:e0:d4:64:b0:6b:eb:b7:38:01:e6:a3:
         3f:dd:bc:94:fb:ae:d5:02:bc:ca:9f:94:e6:50:f4:68:77:a8:
         7d:f0:b2:62:75:a0:c1:0c:90:dc:94:5a:da:64:65:12:95:f1:
         74:d2:f4:bf:c6:7a:5e:03:b9:19:95:ba:51:bc:30:9d:64:e3:
         32:ad:59:17:16:f6:22:b9:87:ac:9e:0c:ee:35:9f:4a:eb:f3:
         13:47:a3:8f:c2:19:b6:9f:8f:dd:ad:ba:b7:98:85:bd:dc:76:
         72:b6:6f:24:a5:1d:75:42:55:01:0c:0d:4c:1a:19:37:91:26:
         74:16:85:2e:34:fc:ca:03:30:70:b1:03:36:3a:c0:81:d3:d9:
         25:a8:cb:45
-----BEGIN CERTIFICATE-----
MIIDeDCCAmCgAwIBAgIRAMi1+FrZmiFl+QA6HDQFEfswDQYJKoZIhvcNAQELBQAw
FjEUMBIGA1UEAwwLdGVhbTE1OC1uZXQwHhcNMjIwNTE4MTg0NTUzWhcNMjUwNTAy
MTg0NTUzWjAZMRcwFQYDVQQDDA50ZWFtMTU4LXNlcnZlcjCCASIwDQYJKoZIhvcN
AQEBBQADggEPADCCAQoCggEBAL1ybNhvI85AwRDGoQkxjYRcNVVzXXfBMEar74qY
4CGc06rZA77WpZMLy+1wC08KkbruV3SlxNbpg8ChHL+fYnPzFCV+S9jpKJximxZr
rSid50rKmO0BqGsWzJTsWQ1GjZzf+3wibTF/Vp/sPZmAnSPaCf1eGqzNHE8vQ10J
hwbCci8Tz9aziayOmCsLdaUQX+X6gJfJacOefeIBLspXfMpVIrrTYBn3G8Z3O9Vk
kO27hXSfZ9zYIVgpRLw4OUtCLaqfg/pZP6usCca1HzxsYZfVXdXKSCMZWDrcNMEn
wVtOADEcob+Oev/8TBcbAdAieNlTaFen+hA9qggNQXJXpwUCAwEAAaOBvTCBujAJ
BgNVHRMEAjAAMB0GA1UdDgQWBBSW8bYEnU3ViioOvI9ggNWd+ijlFTBRBgNVHSME
SjBIgBRUFEFlnitBBd0z9HbqmQemCNG9hKEapBgwFjEUMBIGA1UEAwwLdGVhbTE1
OC1uZXSCFBv2OxXn1PteBOVPxtQz5qQlVDdmMBMGA1UdJQQMMAoGCCsGAQUFBwMB
MAsGA1UdDwQEAwIFoDAZBgNVHREEEjAQgg50ZWFtMTU4LXNlcnZlcjANBgkqhkiG
9w0BAQsFAAOCAQEAEy0JGNaI+01OQckJhxIsm2z2KU/wFBnccmtURsLh+5lvOv8m
shfEb+J9QlMtndo//DMSJjpGWrIhfU2VwegsQgMnV5guz2p0t//j0VLN4PHSPoFq
TKXITxmfPRdwVdg1yfx5eOUP1b3MPT6bIMSspjRqzuDUZLBr67c4AeajP928lPuu
1QK8yp+U5lD0aHeoffCyYnWgwQyQ3JRa2mRlEpXxdNL0v8Z6XgO5GZW6UbwwnWTj
Mq1ZFxb2IrmHrJ4M7jWfSuvzE0ejj8IZtp+P3a26t5iFvdx2crZvJKUddUJVAQwN
TBoZN5EmdBaFLjT8ygMwcLEDNjrAgdPZJajLRQ==
-----END CERTIFICATE-----
