Certificate:
    Data:
        Version: 3 (0x2)
        Serial Number:
            7e:c0:5b:f2:f3:39:e6:83:13:5d:95:f5:05:39:cf:31
        Signature Algorithm: sha256WithRSAEncryption
        Issuer: CN=team489-net
        Validity
            Not Before: May 18 21:44:53 2022 GMT
            Not After : May  2 21:44:53 2025 GMT
        Subject: CN=team489-client
        Subject Public Key Info:
            Public Key Algorithm: rsaEncryption
                RSA Public-Key: (2048 bit)
                Modulus:
                    00:a7:23:b7:68:a0:5b:09:0b:9f:7b:5e:e8:c2:aa:
                    98:13:a5:ac:b3:17:9f:13:db:44:1d:9e:e3:25:a5:
                    2f:d6:4d:40:66:f6:6c:59:ba:2b:55:2b:78:47:74:
                    27:7e:de:c8:b3:19:e5:16:ba:ac:4f:d5:08:02:78:
                    20:f1:83:47:5b:31:94:6f:30:1d:1f:db:b9:76:b2:
                    2d:91:b1:5e:6d:13:17:f5:8d:6b:7e:6a:d3:47:77:
                    06:95:d2:6a:32:d6:d4:d8:a9:1c:b7:7d:c4:94:24:
                    ae:33:af:6d:12:de:cc:f9:73:a3:93:ac:72:cf:95:
                    15:6b:a6:bc:09:18:f2:6f:c0:3d:8b:8b:e5:18:f2:
                    dc:88:42:2e:73:eb:af:21:e5:21:79:a4:67:b8:2c:
                    04:6a:24:f9:15:d0:16:32:61:d0:f4:d3:89:42:74:
                    a0:2b:23:d6:97:28:96:00:81:b6:61:f4:b6:62:31:
                    1b:f6:7a:7d:43:b4:d3:e0:05:59:f1:0e:a9:42:6a:
                    c9:ca:92:af:81:03:05:6a:d5:dd:20:f4:f1:d2:73:
                    e3:c9:f7:36:3d:75:20:53:96:18:68:87:2b:89:05:
                    be:e0:54:30:db:aa:20:b9:7b:28:d8:a2:65:c0:d5:
                    a2:34:1d:ea:98:7a:72:06:89:99:32:d7:eb:aa:8f:
                    e2:f7
                Exponent: 65537 (0x10001)
        X509v3 extensions:
            X509v3 Basic Constraints: 
                CA:FALSE
            X509v3 Subject Key Identifier: 
                3E:C8:3A:7B:05:28:42:2D:CD:58:0E:06:24:07:BB:9E:3C:B1:15:A5
            X509v3 Authority Key Identifier: 
                keyid:D6:98:89:BA:42:C8:7D:22:67:4A:2F:DE:CF:E8:FB:95:AB:1C:39:83
                DirName:/CN=team489-net
                serial:04:C1:61:11:6F:93:F1:4F:7E:B6:93:B8:E0:78:39:2E:B9:F5:06:BE

            X509v3 Extended Key Usage: 
                TLS Web Client Authentication
            X509v3 Key Usage: 
                Digital Signature
    Signature Algorithm: sha256WithRSAEncryption
         54:fb:73:34:2b:c9:b3:f5:0a:61:32:0a:4b:99:f6:13:14:15:
         6d:51:4d:b1:fc:2d:7f:89:4f:a1:9e:09:64:f8:1f:67:19:46:
         ec:c3:5c:f7:17:16:d8:5a:c0:35:6e:5b:84:c2:fc:8b:0f:c2:
         d4:bd:4d:c0:20:99:71:ee:35:b1:a1:6c:6a:b0:10:a8:4a:e4:
         16:93:01:31:30:5f:ee:9b:1c:5b:ac:f5:bc:a7:ba:cc:c5:c7:
         aa:b6:75:6d:cf:61:9c:a3:3f:b6:f9:39:ea:10:a1:e6:6d:c4:
         2c:b1:7e:8f:a2:b5:f1:ab:11:ee:ab:09:fc:8d:c0:e5:f6:84:
         d8:4f:ea:44:1a:1f:f0:03:58:44:ba:5c:64:a4:de:68:44:0e:
         cb:2c:d8:c8:d9:1b:10:2b:c1:90:de:f8:61:25:01:08:d6:70:
         9d:b2:f1:8c:c8:2c:5b:df:52:11:bf:01:a6:34:c4:91:e0:be:
         64:9b:b2:2f:8a:15:50:56:3d:9f:c6:9d:7e:56:79:03:a8:5a:
         20:6d:26:7b:f2:ee:50:78:ee:f8:a8:02:af:34:79:fe:2e:99:
         74:53:8f:6d:bb:d9:d5:4d:1a:11:b0:c8:96:6f:2a:71:b9:b6:
         ad:22:23:bc:99:22:13:d9:0d:da:2c:8e:1d:55:ba:06:39:22:
         e1:0a:bc:7e
-----BEGIN CERTIFICATE-----
MIIDXDCCAkSgAwIBAgIQfsBb8vM55oMTXZX1BTnPMTANBgkqhkiG9w0BAQsFADAW
MRQwEgYDVQQDDAt0ZWFtNDg5LW5ldDAeFw0yMjA1MTgyMTQ0NTNaFw0yNTA1MDIy
MTQ0NTNaMBkxFzAVBgNVBAMMDnRlYW00ODktY2xpZW50MIIBIjANBgkqhkiG9w0B
AQEFAAOCAQ8AMIIBCgKCAQEApyO3aKBbCQufe17owqqYE6WssxefE9tEHZ7jJaUv
1k1AZvZsWborVSt4R3Qnft7IsxnlFrqsT9UIAngg8YNHWzGUbzAdH9u5drItkbFe
bRMX9Y1rfmrTR3cGldJqMtbU2Kkct33ElCSuM69tEt7M+XOjk6xyz5UVa6a8CRjy
b8A9i4vlGPLciEIuc+uvIeUheaRnuCwEaiT5FdAWMmHQ9NOJQnSgKyPWlyiWAIG2
YfS2YjEb9np9Q7TT4AVZ8Q6pQmrJypKvgQMFatXdIPTx0nPjyfc2PXUgU5YYaIcr
iQW+4FQw26oguXso2KJlwNWiNB3qmHpyBomZMtfrqo/i9wIDAQABo4GiMIGfMAkG
A1UdEwQCMAAwHQYDVR0OBBYEFD7IOnsFKEItzVgOBiQHu548sRWlMFEGA1UdIwRK
MEiAFNaYibpCyH0iZ0ov3s/o+5WrHDmDoRqkGDAWMRQwEgYDVQQDDAt0ZWFtNDg5
LW5ldIIUBMFhEW+T8U9+tpO44Hg5Lrn1Br4wEwYDVR0lBAwwCgYIKwYBBQUHAwIw
CwYDVR0PBAQDAgeAMA0GCSqGSIb3DQEBCwUAA4IBAQBU+3M0K8mz9QphMgpLmfYT
FBVtUU2x/C1/iU+hnglk+B9nGUbsw1z3FxbYWsA1bluEwvyLD8LUvU3AIJlx7jWx
oWxqsBCoSuQWkwExMF/umxxbrPW8p7rMxceqtnVtz2Gcoz+2+TnqEKHmbcQssX6P
orXxqxHuqwn8jcDl9oTYT+pEGh/wA1hEulxkpN5oRA7LLNjI2RsQK8GQ3vhhJQEI
1nCdsvGMyCxb31IRvwGmNMSR4L5km7IvihVQVj2fxp1+VnkDqFogbSZ78u5QeO74
qAKvNHn+Lpl0U49tu9nVTRoRsMiWbypxubatIiO8mSIT2Q3aLI4dVboGOSLhCrx+
-----END CERTIFICATE-----
