Certificate:
    Data:
        Version: 3 (0x2)
        Serial Number:
            96:8f:ae:bc:78:ca:04:1b:45:bc:96:23:1b:e8:07:03
        Signature Algorithm: sha256WithRSAEncryption
        Issuer: CN=team570-net
        Validity
            Not Before: May 18 22:29:21 2022 GMT
            Not After : May  2 22:29:21 2025 GMT
        Subject: CN=team570-client
        Subject Public Key Info:
            Public Key Algorithm: rsaEncryption
                RSA Public-Key: (2048 bit)
                Modulus:
                    00:ca:30:90:b6:fa:bf:70:1c:c0:9d:8a:f2:d4:25:
                    85:15:8c:6f:23:71:26:2b:2c:9a:10:89:3e:8b:fb:
                    30:26:d2:11:ec:66:35:c2:b0:7c:3d:56:35:4b:46:
                    32:a8:b0:41:bb:e2:73:53:da:69:5a:36:d2:8d:9f:
                    e2:92:60:2a:24:cd:08:2d:e8:31:10:a3:5a:fc:d4:
                    6b:a1:17:ad:1a:d8:36:c4:a8:c1:54:85:0c:07:f0:
                    7d:09:44:3b:9f:f1:2e:4c:cc:5b:dd:9c:c8:a4:9c:
                    5d:51:63:40:f6:82:95:cb:98:a7:07:e3:9d:56:64:
                    c4:ce:a6:cd:82:d1:bf:e3:3d:8a:cf:83:d9:61:c8:
                    a0:bf:7e:51:a4:e6:92:48:5b:d0:39:0d:0f:b0:0a:
                    df:84:45:ea:04:64:06:74:61:db:5a:ef:2f:e3:c5:
                    04:9f:d3:b8:1f:05:c2:9f:4e:68:b4:c2:f1:c6:fb:
                    1e:69:f0:30:17:2b:c7:cd:29:67:5f:44:48:c5:d4:
                    02:a5:3f:7f:bb:19:96:96:e4:42:c3:07:16:ec:22:
                    04:54:62:31:9d:f8:1b:69:f5:b1:9b:ff:f4:b7:da:
                    a2:30:37:d4:2f:9b:cd:52:26:01:4b:18:88:7d:d2:
                    f3:79:36:70:4f:2b:c6:97:0e:8e:1e:ca:cc:a0:76:
                    28:01
                Exponent: 65537 (0x10001)
        X509v3 extensions:
            X509v3 Basic Constraints: 
                CA:FALSE
            X509v3 Subject Key Identifier: 
                2F:4E:92:B5:1D:62:DC:F8:92:2E:2E:93:88:DF:21:F0:EF:FC:94:C2
            X509v3 Authority Key Identifier: 
                keyid:EE:A1:40:AF:63:15:70:54:B6:0D:47:81:C0:DF:8B:E4:85:7A:00:19
                DirName:/CN=team570-net
                serial:78:62:D7:22:13:62:DB:54:94:B9:D5:D1:A7:3B:26:7A:1C:B7:6E:3F

            X509v3 Extended Key Usage: 
                TLS Web Client Authentication
            X509v3 Key Usage: 
                Digital Signature
    Signature Algorithm: sha256WithRSAEncryption
         bc:1b:a8:9b:cc:39:f3:70:2a:b6:7f:ae:0f:fb:d6:ad:be:0d:
         b9:64:c0:67:1c:15:df:4a:b0:4d:76:9e:50:8e:7c:38:a6:8f:
         66:20:dc:a1:a2:64:e1:00:5e:7f:a9:ab:3a:93:3e:56:f8:96:
         75:89:57:ac:0e:79:a1:f0:8a:f7:89:d0:c8:ab:cd:91:2d:d9:
         7d:e8:84:a1:e4:6d:1f:b8:a9:41:a4:5b:65:30:6e:98:28:6c:
         63:48:56:c3:7f:79:e0:5c:26:60:cc:02:95:41:ee:79:e8:1f:
         bf:63:6e:67:5f:b0:9e:b8:b0:c4:11:c9:bd:21:47:d9:77:a7:
         c7:65:5f:9a:99:f0:9b:51:fb:6c:fd:d0:eb:0f:11:1a:89:74:
         4a:f0:74:bb:2f:c8:45:66:68:ea:21:53:e2:ab:a2:b6:74:c0:
         8b:f1:7e:75:5f:72:a2:d0:80:eb:79:97:be:95:39:3e:1f:b7:
         85:f7:ab:db:8a:de:3c:2a:8d:f5:3e:2a:f8:22:9c:ce:71:6d:
         3f:12:4b:cd:11:c5:88:8a:a2:65:7c:86:a6:2c:32:4a:ab:f3:
         2d:95:53:cb:40:31:70:20:22:6b:b2:98:2b:5e:5f:62:80:7c:
         a5:1a:63:a4:cd:22:b9:0a:2f:1f:90:5a:14:03:c3:56:7d:fa:
         90:3a:0f:e0
-----BEGIN CERTIFICATE-----
MIIDXTCCAkWgAwIBAgIRAJaPrrx4ygQbRbyWIxvoBwMwDQYJKoZIhvcNAQELBQAw
FjEUMBIGA1UEAwwLdGVhbTU3MC1uZXQwHhcNMjIwNTE4MjIyOTIxWhcNMjUwNTAy
MjIyOTIxWjAZMRcwFQYDVQQDDA50ZWFtNTcwLWNsaWVudDCCASIwDQYJKoZIhvcN
AQEBBQADggEPADCCAQoCggEBAMowkLb6v3AcwJ2K8tQlhRWMbyNxJissmhCJPov7
MCbSEexmNcKwfD1WNUtGMqiwQbvic1PaaVo20o2f4pJgKiTNCC3oMRCjWvzUa6EX
rRrYNsSowVSFDAfwfQlEO5/xLkzMW92cyKScXVFjQPaClcuYpwfjnVZkxM6mzYLR
v+M9is+D2WHIoL9+UaTmkkhb0DkND7AK34RF6gRkBnRh21rvL+PFBJ/TuB8Fwp9O
aLTC8cb7HmnwMBcrx80pZ19ESMXUAqU/f7sZlpbkQsMHFuwiBFRiMZ34G2n1sZv/
9LfaojA31C+bzVImAUsYiH3S83k2cE8rxpcOjh7KzKB2KAECAwEAAaOBojCBnzAJ
BgNVHRMEAjAAMB0GA1UdDgQWBBQvTpK1HWLc+JIuLpOI3yHw7/yUwjBRBgNVHSME
SjBIgBTuoUCvYxVwVLYNR4HA34vkhXoAGaEapBgwFjEUMBIGA1UEAwwLdGVhbTU3
MC1uZXSCFHhi1yITYttUlLnV0ac7Jnoct24/MBMGA1UdJQQMMAoGCCsGAQUFBwMC
MAsGA1UdDwQEAwIHgDANBgkqhkiG9w0BAQsFAAOCAQEAvBuom8w583Aqtn+uD/vW
rb4NuWTAZxwV30qwTXaeUI58OKaPZiDcoaJk4QBef6mrOpM+VviWdYlXrA55ofCK
94nQyKvNkS3ZfeiEoeRtH7ipQaRbZTBumChsY0hWw3954FwmYMwClUHueegfv2Nu
Z1+wnriwxBHJvSFH2Xenx2Vfmpnwm1H7bP3Q6w8RGol0SvB0uy/IRWZo6iFT4qui
tnTAi/F+dV9yotCA63mXvpU5Ph+3hfer24rePCqN9T4q+CKcznFtPxJLzRHFiIqi
ZXyGpiwySqvzLZVTy0AxcCAia7KYK15fYoB8pRpjpM0iuQovH5BaFAPDVn36kDoP
4A==
-----END CERTIFICATE-----
