Certificate:
    Data:
        Version: 3 (0x2)
        Serial Number:
            93:2b:2f:76:da:5c:6b:ed:7a:5c:a1:ce:9a:df:5f:d4
        Signature Algorithm: sha256WithRSAEncryption
        Issuer: CN=team582-net
        Validity
            Not Before: May 18 22:32:59 2022 GMT
            Not After : May  2 22:32:59 2025 GMT
        Subject: CN=team582-client
        Subject Public Key Info:
            Public Key Algorithm: rsaEncryption
                RSA Public-Key: (2048 bit)
                Modulus:
                    00:d1:50:03:00:97:96:c0:97:12:e8:5f:87:6a:a8:
                    db:22:be:2c:6c:bd:52:32:fc:46:be:0e:45:6e:48:
                    ec:08:99:a0:ad:1c:79:96:d6:57:16:5d:a5:a8:87:
                    f3:5f:44:0f:8b:5a:4e:d3:ad:be:66:fb:23:0e:ba:
                    59:3b:71:d9:04:ad:77:1f:06:d8:c5:19:2a:ef:93:
                    95:36:2c:e6:4a:bf:1e:7d:27:be:e2:b0:c1:a8:80:
                    ee:5c:a9:df:d2:6b:87:10:d8:64:7e:b4:45:47:f0:
                    a9:7e:55:08:e0:92:1a:47:69:81:23:b5:60:f3:d6:
                    21:09:d9:62:d2:6d:46:67:95:3d:90:83:54:9b:6b:
                    92:0a:46:90:f6:cb:96:aa:41:6a:92:d0:29:19:12:
                    fe:c3:b2:30:f1:99:44:38:50:d7:0f:e0:14:71:0d:
                    af:bc:9a:a7:44:38:6f:2e:64:9b:9c:f0:f2:9a:12:
                    6d:52:b1:f5:66:5f:75:b7:6b:9b:00:98:62:df:b3:
                    d9:d4:77:4f:29:73:7f:b7:e3:d2:6a:c8:a9:27:f0:
                    48:58:e8:a9:f6:2f:f2:77:b2:a4:e1:c2:4f:08:ec:
                    0d:63:5c:db:15:1b:56:d8:17:9e:b2:63:f2:2a:d9:
                    30:1f:c0:ab:41:79:ac:75:73:1c:81:65:81:79:3e:
                    bc:f9
                Exponent: 65537 (0x10001)
        X509v3 extensions:
            X509v3 Basic Constraints: 
                CA:FALSE
            X509v3 Subject Key Identifier: 
                CB:C6:97:84:1A:B4:A4:17:82:9A:B9:7A:F7:11:B4:31:1F:13:90:EA
            X509v3 Authority Key Identifier: 
                keyid:DC:D4:CA:7C:B5:77:C8:23:09:91:CC:73:50:8D:FF:0C:68:1F:FA:C7
                DirName:/CN=team582-net
                serial:7F:98:AD:C8:0C:6E:98:78:12:6A:84:96:68:F5:48:BA:88:11:F1:34

            X509v3 Extended Key Usage: 
                TLS Web Client Authentication
            X509v3 Key Usage: 
                Digital Signature
    Signature Algorithm: sha256WithRSAEncryption
         70:11:24:bb:53:a3:ef:e8:b5:9b:9f:4d:53:97:e6:b4:e2:1c:
         3d:c9:da:4f:ab:c4:5f:81:d5:21:d8:40:55:18:e5:93:8c:5e:
         b9:8b:9e:7f:62:29:81:6c:00:8f:b3:64:0f:06:1b:d2:8b:40:
         e4:e4:9f:47:75:e3:14:ef:68:76:ed:c2:84:db:ea:01:06:94:
         31:58:80:ed:c4:c2:b9:bd:af:af:34:7f:e2:8f:16:62:20:21:
         5c:ae:f0:37:45:d7:0f:74:d1:7f:ec:b9:8e:53:89:87:16:50:
         8d:ea:c3:3d:3d:60:29:6a:3c:12:97:4b:4a:a7:b9:a1:16:87:
         04:e3:6f:6a:f1:14:d2:52:07:e2:31:34:2e:47:92:45:7e:28:
         d6:e8:b4:e0:91:5a:6f:db:9f:49:b3:60:69:71:7e:21:30:74:
         77:9e:a6:67:48:52:18:d4:49:a6:d4:49:50:ba:c7:22:5a:31:
         27:f6:e6:d9:6b:4e:64:28:cd:14:fd:c7:57:26:a1:74:0d:cf:
         e4:3e:3c:87:c1:ea:89:be:a2:e3:a4:90:0a:6e:1e:05:0f:03:
         b5:d3:46:28:61:86:40:3b:a2:9d:cc:31:ac:cf:14:94:71:b2:
         82:1f:28:e8:62:18:82:8d:56:7d:71:e4:e0:14:9d:45:0f:59:
         50:6a:7b:8f
-----BEGIN CERTIFICATE-----
MIIDXTCCAkWgAwIBAgIRAJMrL3baXGvtelyhzprfX9QwDQYJKoZIhvcNAQELBQAw
FjEUMBIGA1UEAwwLdGVhbTU4Mi1uZXQwHhcNMjIwNTE4MjIzMjU5WhcNMjUwNTAy
MjIzMjU5WjAZMRcwFQYDVQQDDA50ZWFtNTgyLWNsaWVudDCCASIwDQYJKoZIhvcN
AQEBBQADggEPADCCAQoCggEBANFQAwCXlsCXEuhfh2qo2yK+LGy9UjL8Rr4ORW5I
7AiZoK0ceZbWVxZdpaiH819ED4taTtOtvmb7Iw66WTtx2QStdx8G2MUZKu+TlTYs
5kq/Hn0nvuKwwaiA7lyp39JrhxDYZH60RUfwqX5VCOCSGkdpgSO1YPPWIQnZYtJt
RmeVPZCDVJtrkgpGkPbLlqpBapLQKRkS/sOyMPGZRDhQ1w/gFHENr7yap0Q4by5k
m5zw8poSbVKx9WZfdbdrmwCYYt+z2dR3Tylzf7fj0mrIqSfwSFjoqfYv8neypOHC
TwjsDWNc2xUbVtgXnrJj8irZMB/Aq0F5rHVzHIFlgXk+vPkCAwEAAaOBojCBnzAJ
BgNVHRMEAjAAMB0GA1UdDgQWBBTLxpeEGrSkF4KauXr3EbQxHxOQ6jBRBgNVHSME
SjBIgBTc1Mp8tXfIIwmRzHNQjf8MaB/6x6EapBgwFjEUMBIGA1UEAwwLdGVhbTU4
Mi1uZXSCFH+YrcgMbph4EmqElmj1SLqIEfE0MBMGA1UdJQQMMAoGCCsGAQUFBwMC
MAsGA1UdDwQEAwIHgDANBgkqhkiG9w0BAQsFAAOCAQEAcBEku1Oj7+i1m59NU5fm
tOIcPcnaT6vEX4HVIdhAVRjlk4xeuYuef2IpgWwAj7NkDwYb0otA5OSfR3XjFO9o
du3ChNvqAQaUMViA7cTCub2vrzR/4o8WYiAhXK7wN0XXD3TRf+y5jlOJhxZQjerD
PT1gKWo8EpdLSqe5oRaHBONvavEU0lIH4jE0LkeSRX4o1ui04JFab9ufSbNgaXF+
ITB0d56mZ0hSGNRJptRJULrHIloxJ/bm2WtOZCjNFP3HVyahdA3P5D48h8Hqib6i
46SQCm4eBQ8DtdNGKGGGQDuincwxrM8UlHGygh8o6GIYgo1WfXHk4BSdRQ9ZUGp7
jw==
-----END CERTIFICATE-----
