Certificate:
    Data:
        Version: 3 (0x2)
        Serial Number:
            38:cf:3f:9e:b4:79:46:06:0a:2d:d1:ef:dd:69:5a:03
        Signature Algorithm: sha256WithRSAEncryption
        Issuer: CN=team741-net
        Validity
            Not Before: May 19 00:07:40 2022 GMT
            Not After : May  3 00:07:40 2025 GMT
        Subject: CN=team741-server
        Subject Public Key Info:
            Public Key Algorithm: rsaEncryption
                RSA Public-Key: (2048 bit)
                Modulus:
                    00:c4:15:0e:a0:45:cd:08:87:00:33:e3:f3:93:eb:
                    fd:8b:10:60:cc:81:ec:34:7e:84:19:b8:bc:ff:f4:
                    fa:41:11:0b:c9:65:0e:50:b0:b8:49:3b:8d:c9:98:
                    74:5f:cb:8f:d3:ae:a0:37:a4:c6:39:0f:a1:55:22:
                    d0:7d:fe:ab:b0:bb:1f:a7:e6:64:8e:a5:5d:ad:e7:
                    2d:fe:3a:fa:fc:ec:9a:a9:23:0f:66:84:df:8b:e7:
                    c6:87:d8:d8:a6:aa:bd:48:90:eb:14:ce:87:40:80:
                    68:46:b8:9b:50:66:09:fc:86:eb:e9:6c:72:d6:88:
                    b4:94:fa:e0:5e:a9:21:84:78:ec:08:81:d1:56:e7:
                    24:2c:1b:25:86:37:ec:77:9e:ad:ee:c1:95:ab:1e:
                    74:bd:13:d0:73:b6:d0:51:13:ca:c1:f5:72:63:77:
                    35:7b:4f:21:60:a4:17:ce:b3:5a:07:fa:97:0e:18:
                    67:51:1b:e4:62:a4:71:46:2d:b6:5d:80:89:76:f4:
                    5e:fb:9b:ef:95:87:49:a0:bb:e8:f4:96:45:57:f7:
                    68:f3:9e:89:73:bd:fc:15:c9:cf:2a:c6:ad:90:a2:
                    4c:47:7d:77:cc:fb:56:6c:2c:03:87:ab:30:c7:0a:
                    61:fb:10:5b:c9:3b:b0:2a:4b:1f:9d:43:7c:b8:94:
                    a5:c3
                Exponent: 65537 (0x10001)
        X509v3 extensions:
            X509v3 Basic Constraints: 
                CA:FALSE
            X509v3 Subject Key Identifier: 
                9A:1D:07:8E:74:FC:1A:C5:34:1D:E8:A6:FF:F0:74:EE:EE:42:64:7B
            X509v3 Authority Key Identifier: 
                keyid:9C:5A:11:A9:F8:10:5B:88:38:C8:EF:AF:ED:1B:EE:A6:51:84:DC:CD
                DirName:/CN=team741-net
                serial:2A:17:A6:85:97:4A:3D:97:20:D4:80:2B:0F:B0:75:38:FC:CA:7F:B7

            X509v3 Extended Key Usage: 
                TLS Web Server Authentication
            X509v3 Key Usage: 
                Digital Signature, Key Encipherment
            X509v3 Subject Alternative Name: 
                DNS:team741-server
    Signature Algorithm: sha256WithRSAEncryption
         45:d5:92:86:df:73:10:23:b7:05:ec:2d:67:ac:5c:30:6e:e8:
         5c:a6:45:eb:31:cf:d5:0f:43:56:d4:b3:54:75:ea:fc:77:d0:
         ed:8e:16:ee:79:5f:e9:72:60:5d:fd:8f:8f:c2:4c:b5:f8:ab:
         03:36:fa:fc:a1:4d:b3:9b:1f:7f:19:52:2d:1b:26:44:6d:ca:
         fc:f1:18:f1:75:b9:a0:d3:80:22:40:91:c9:12:49:77:f4:5e:
         4c:82:e2:90:c7:bb:3d:95:c5:ef:6f:98:a8:dc:50:bd:9e:ae:
         05:6a:0e:b3:66:c8:94:be:d2:d0:d8:ec:9b:f2:20:55:fc:47:
         31:d2:e0:eb:41:67:d3:8c:bc:43:4f:19:ac:33:46:92:76:35:
         e7:32:7f:bc:7c:25:76:97:e9:b2:c8:28:28:c8:21:c9:28:be:
         a2:ea:8e:f8:68:9c:dc:bf:79:58:b4:67:4d:c4:67:17:a9:3c:
         6a:3b:96:e1:ab:b3:0f:28:f7:98:90:14:81:c3:57:61:cf:ee:
         ad:33:fc:95:d5:50:85:2d:e2:f9:ab:6f:da:9e:0b:65:74:b6:
         0b:a5:ab:c6:65:44:d3:ad:ec:40:ba:a6:e3:b3:ef:be:ce:22:
         4e:7c:31:18:5e:ee:ec:be:a7:0f:33:36:48:51:43:03:9d:bf:
         10:bb:c0:e6
-----BEGIN CERTIFICATE-----
MIIDdzCCAl+gAwIBAgIQOM8/nrR5RgYKLdHv3WlaAzANBgkqhkiG9w0BAQsFADAW
MRQwEgYDVQQDDAt0ZWFtNzQxLW5ldDAeFw0yMjA1MTkwMDA3NDBaFw0yNTA1MDMw
MDA3NDBaMBkxFzAVBgNVBAMMDnRlYW03NDEtc2VydmVyMIIBIjANBgkqhkiG9w0B
AQEFAAOCAQ8AMIIBCgKCAQEAxBUOoEXNCIcAM+Pzk+v9ixBgzIHsNH6EGbi8//T6
QRELyWUOULC4STuNyZh0X8uP066gN6TGOQ+hVSLQff6rsLsfp+ZkjqVdrect/jr6
/OyaqSMPZoTfi+fGh9jYpqq9SJDrFM6HQIBoRribUGYJ/Ibr6Wxy1oi0lPrgXqkh
hHjsCIHRVuckLBslhjfsd56t7sGVqx50vRPQc7bQURPKwfVyY3c1e08hYKQXzrNa
B/qXDhhnURvkYqRxRi22XYCJdvRe+5vvlYdJoLvo9JZFV/do856Jc738FcnPKsat
kKJMR313zPtWbCwDh6swxwph+xBbyTuwKksfnUN8uJSlwwIDAQABo4G9MIG6MAkG
A1UdEwQCMAAwHQYDVR0OBBYEFJodB450/BrFNB3opv/wdO7uQmR7MFEGA1UdIwRK
MEiAFJxaEan4EFuIOMjvr+0b7qZRhNzNoRqkGDAWMRQwEgYDVQQDDAt0ZWFtNzQx
LW5ldIIUKhemhZdKPZcg1IArD7B1OPzKf7cwEwYDVR0lBAwwCgYIKwYBBQUHAwEw
CwYDVR0PBAQDAgWgMBkGA1UdEQQSMBCCDnRlYW03NDEtc2VydmVyMA0GCSqGSIb3
DQEBCwUAA4IBAQBF1ZKG33MQI7cF7C1nrFwwbuhcpkXrMc/VD0NW1LNUder8d9Dt
jhbueV/pcmBd/Y+Pwky1+KsDNvr8oU2zmx9/GVItGyZEbcr88Rjxdbmg04AiQJHJ
Ekl39F5MguKQx7s9lcXvb5io3FC9nq4Fag6zZsiUvtLQ2Oyb8iBV/Ecx0uDrQWfT
jLxDTxmsM0aSdjXnMn+8fCV2l+myyCgoyCHJKL6i6o74aJzcv3lYtGdNxGcXqTxq
O5bhq7MPKPeYkBSBw1dhz+6tM/yV1VCFLeL5q2/angtldLYLpavGZUTTrexAuqbj
s+++ziJOfDEYXu7svqcPMzZIUUMDnb8Qu8Dm
-----END CERTIFICATE-----
