Certificate:
    Data:
        Version: 3 (0x2)
        Serial Number:
            e6:51:60:e2:ec:7e:6a:93:df:cc:cf:1b:e9:b6:4f:ee
        Signature Algorithm: sha256WithRSAEncryption
        Issuer: CN=team250-net
        Validity
            Not Before: May 18 19:29:08 2022 GMT
            Not After : May  2 19:29:08 2025 GMT
        Subject: CN=team250-server
        Subject Public Key Info:
            Public Key Algorithm: rsaEncryption
                RSA Public-Key: (2048 bit)
                Modulus:
                    00:ae:38:8e:e8:20:f7:14:ba:1c:2b:68:6c:37:d8:
                    89:10:f2:94:a5:54:52:08:1f:e9:c5:b0:99:51:4a:
                    b2:6f:a2:ef:df:3b:a0:bd:e4:d5:da:12:d3:0a:21:
                    f4:df:9c:2c:31:94:da:c8:89:5c:bf:fe:c4:7a:b0:
                    5a:21:41:50:07:e9:c2:b2:c6:61:4e:46:04:05:91:
                    d2:ae:6c:bb:73:37:c9:85:3a:cc:3b:5a:5f:b7:3e:
                    84:79:2c:44:5f:e8:8d:92:cf:a6:3e:8b:e1:52:91:
                    58:6f:13:f1:22:73:14:e8:91:75:dc:fd:9a:5b:4c:
                    d7:00:fa:72:27:bd:8b:59:95:0d:bd:24:0e:e6:d8:
                    c2:0e:94:ad:4a:12:a5:6a:2f:d1:67:05:fe:09:cf:
                    b1:1d:2e:cd:ce:93:30:b2:79:c7:97:a7:5b:14:95:
                    fc:2d:06:81:5b:f7:ea:a0:3b:af:36:42:13:cb:b0:
                    e6:40:c1:ce:27:1c:ce:ac:f9:fc:7c:8a:24:66:52:
                    20:b8:04:0f:5c:8a:1d:61:71:28:08:4c:37:99:ea:
                    ca:03:db:ba:95:a8:82:ee:ff:48:8e:84:52:b5:c2:
                    45:44:43:7b:04:3e:d7:cd:47:b1:71:1f:e1:ff:19:
                    28:22:56:4a:7d:2a:c5:07:43:fe:ca:31:13:c0:29:
                    aa:d1
                Exponent: 65537 (0x10001)
        X509v3 extensions:
            X509v3 Basic Constraints: 
                CA:FALSE
            X509v3 Subject Key Identifier: 
                FF:1D:EA:6C:4C:F5:0A:D2:00:4B:B0:AD:B1:25:AA:B7:52:E3:62:E9
            X509v3 Authority Key Identifier: 
                keyid:63:35:20:BB:35:17:6A:24:9E:FC:B2:F9:A3:18:C3:64:05:AC:06:04
                DirName:/CN=team250-net
                serial:4A:BB:1F:A1:A8:51:D5:8D:13:85:05:AA:40:31:CE:36:8B:9A:4D:0A

            X509v3 Extended Key Usage: 
                TLS Web Server Authentication
            X509v3 Key Usage: 
                Digital Signature, Key Encipherment
            X509v3 Subject Alternative Name: 
                DNS:team250-server
    Signature Algorithm: sha256WithRSAEncryption
         05:87:aa:44:b7:d1:00:e6:e4:2e:e8:24:9d:b6:38:8b:d8:67:
         5f:ab:c4:c7:4c:a5:69:42:8c:ff:c9:17:14:51:7f:03:42:ff:
         44:a9:8d:97:69:4e:7d:dd:87:56:ba:ac:af:b7:4d:3e:16:1e:
         7b:19:e5:07:13:b7:f8:a6:2e:62:82:41:7f:52:66:e6:c7:7c:
         73:1c:0d:9b:87:6e:d3:40:93:ca:6d:1c:90:3e:8d:ac:8f:43:
         32:75:63:cd:c7:fd:d7:6c:f8:62:c7:be:71:bb:fa:15:82:b1:
         0a:c2:aa:ea:85:de:e7:53:56:6c:64:c3:46:dc:d6:b7:dc:8a:
         11:da:ce:db:5b:f5:09:49:86:17:78:27:34:53:b5:4b:91:27:
         af:16:61:69:c9:b0:bf:8e:df:a8:63:3a:3d:a2:83:ef:84:31:
         1a:4d:e1:1b:31:e5:49:c3:2d:cb:8a:a6:d9:f3:78:33:57:26:
         43:bc:dc:b2:e6:c3:a3:f3:1b:2f:09:26:de:ad:2b:42:be:ee:
         ec:72:67:d2:32:f9:9a:12:35:35:cd:bb:b7:70:0d:45:98:e7:
         38:79:cf:26:31:7e:3e:af:48:51:22:8c:c2:ca:a3:09:7a:1f:
         fd:f4:aa:32:6d:03:65:ff:71:c4:b1:26:bf:0d:cd:b2:1d:64:
         00:f0:cc:f0
-----BEGIN CERTIFICATE-----
MIIDeDCCAmCgAwIBAgIRAOZRYOLsfmqT38zPG+m2T+4wDQYJKoZIhvcNAQELBQAw
FjEUMBIGA1UEAwwLdGVhbTI1MC1uZXQwHhcNMjIwNTE4MTkyOTA4WhcNMjUwNTAy
MTkyOTA4WjAZMRcwFQYDVQQDDA50ZWFtMjUwLXNlcnZlcjCCASIwDQYJKoZIhvcN
AQEBBQADggEPADCCAQoCggEBAK44jugg9xS6HCtobDfYiRDylKVUUggf6cWwmVFK
sm+i7987oL3k1doS0woh9N+cLDGU2siJXL/+xHqwWiFBUAfpwrLGYU5GBAWR0q5s
u3M3yYU6zDtaX7c+hHksRF/ojZLPpj6L4VKRWG8T8SJzFOiRddz9mltM1wD6cie9
i1mVDb0kDubYwg6UrUoSpWov0WcF/gnPsR0uzc6TMLJ5x5enWxSV/C0GgVv36qA7
rzZCE8uw5kDBzicczqz5/HyKJGZSILgED1yKHWFxKAhMN5nqygPbupWogu7/SI6E
UrXCRURDewQ+181HsXEf4f8ZKCJWSn0qxQdD/soxE8ApqtECAwEAAaOBvTCBujAJ
BgNVHRMEAjAAMB0GA1UdDgQWBBT/HepsTPUK0gBLsK2xJaq3UuNi6TBRBgNVHSME
SjBIgBRjNSC7NRdqJJ78svmjGMNkBawGBKEapBgwFjEUMBIGA1UEAwwLdGVhbTI1
MC1uZXSCFEq7H6GoUdWNE4UFqkAxzjaLmk0KMBMGA1UdJQQMMAoGCCsGAQUFBwMB
MAsGA1UdDwQEAwIFoDAZBgNVHREEEjAQgg50ZWFtMjUwLXNlcnZlcjANBgkqhkiG
9w0BAQsFAAOCAQEABYeqRLfRAObkLugknbY4i9hnX6vEx0ylaUKM/8kXFFF/A0L/
RKmNl2lOfd2HVrqsr7dNPhYeexnlBxO3+KYuYoJBf1Jm5sd8cxwNm4du00CTym0c
kD6NrI9DMnVjzcf912z4Yse+cbv6FYKxCsKq6oXe51NWbGTDRtzWt9yKEdrO21v1
CUmGF3gnNFO1S5EnrxZhacmwv47fqGM6PaKD74QxGk3hGzHlScMty4qm2fN4M1cm
Q7zcsubDo/MbLwkm3q0rQr7u7HJn0jL5mhI1Nc27t3ANRZjnOHnPJjF+Pq9IUSKM
wsqjCXof/fSqMm0DZf9xxLEmvw3Nsh1kAPDM8A==
-----END CERTIFICATE-----
