Certificate:
    Data:
        Version: 3 (0x2)
        Serial Number:
            e9:95:84:82:99:11:93:61:29:e2:18:dd:3a:89:f1:51
        Signature Algorithm: sha256WithRSAEncryption
        Issuer: CN=team70-net
        Validity
            Not Before: May 18 14:29:44 2022 GMT
            Not After : May  2 14:29:44 2025 GMT
        Subject: CN=team70-server
        Subject Public Key Info:
            Public Key Algorithm: rsaEncryption
                RSA Public-Key: (2048 bit)
                Modulus:
                    00:d2:9e:c0:42:2f:35:99:08:d5:2a:ed:a5:c8:71:
                    d5:52:02:28:8c:e0:03:71:6d:46:58:80:70:ad:0b:
                    f6:7b:6f:36:09:2e:ec:0a:9f:b2:95:29:ad:11:79:
                    b1:4f:72:4f:70:95:0d:54:8b:91:f1:68:b1:05:9e:
                    9f:95:bc:28:7c:96:60:50:c7:b5:f1:88:27:16:77:
                    3e:b4:f8:68:98:fd:68:9c:21:75:20:d6:77:94:39:
                    01:99:0c:83:fb:ab:81:2f:55:95:3a:ca:76:19:02:
                    6b:39:9e:95:b6:dc:84:52:9c:ee:4c:c5:2f:09:3d:
                    ef:36:01:29:a2:77:ab:e1:59:95:8c:32:f1:ae:91:
                    c3:3e:c1:27:b2:20:9a:a5:b1:12:7f:c6:8e:93:cc:
                    70:41:48:35:34:54:2e:95:43:6c:7f:3d:3c:ad:13:
                    74:3d:1f:c2:18:ce:de:ed:1f:d2:84:e9:4d:28:85:
                    d5:86:46:c2:94:e3:45:8f:94:0e:9c:94:83:7d:c9:
                    e5:e8:d3:63:f8:82:5e:a2:21:f9:e9:ec:b0:2f:59:
                    85:b5:49:6c:ce:55:d1:5e:d3:0f:f7:70:22:b8:96:
                    48:4b:84:76:75:7e:d1:64:40:3c:83:24:85:5a:01:
                    06:0a:53:f0:e3:9c:61:73:b8:d2:89:6c:fa:d8:2c:
                    fa:dd
                Exponent: 65537 (0x10001)
        X509v3 extensions:
            X509v3 Basic Constraints: 
                CA:FALSE
            X509v3 Subject Key Identifier: 
                80:56:4D:61:2A:5C:5A:3C:BB:86:94:F5:E6:3A:FA:DB:2D:DF:32:FC
            X509v3 Authority Key Identifier: 
                keyid:6A:D6:26:AF:DF:7B:7D:01:C9:8F:CC:2A:8F:F9:F2:F8:E3:5D:E9:99
                DirName:/CN=team70-net
                serial:3C:C9:8E:CC:54:B5:63:FE:E0:12:3E:37:E3:95:26:20:10:33:C6:33

            X509v3 Extended Key Usage: 
                TLS Web Server Authentication
            X509v3 Key Usage: 
                Digital Signature, Key Encipherment
            X509v3 Subject Alternative Name: 
                DNS:team70-server
    Signature Algorithm: sha256WithRSAEncryption
         81:1e:6e:d5:64:0f:b5:db:83:55:a0:fd:ad:da:53:b4:87:0a:
         44:43:c0:53:5a:63:5b:92:61:b6:08:40:86:b5:50:ca:e7:58:
         34:8c:c4:8c:00:41:fc:36:8f:a9:61:b0:d4:bd:04:af:e3:bc:
         9e:76:ed:00:b5:98:2f:94:2d:c9:f7:35:08:18:9b:e5:15:91:
         95:0d:1a:d6:3b:4d:41:5c:05:47:32:79:a8:4d:bd:8c:7c:38:
         39:0c:c8:c8:5f:4a:2e:49:3b:86:9e:8d:5f:8f:84:08:33:17:
         95:fc:72:97:eb:00:6c:a0:de:0a:cc:c3:49:d4:fc:3f:95:2e:
         89:d1:1d:c4:36:e1:91:41:f8:35:1d:76:b0:dd:a8:89:03:23:
         42:c3:66:f4:4d:70:18:80:3d:7d:fa:c9:8c:4a:ca:a5:46:57:
         00:71:03:0d:43:21:d3:7e:97:b6:78:51:08:af:b4:96:d6:07:
         98:eb:30:5b:b1:8f:8f:2b:dd:88:b5:3b:64:2b:ac:7a:c2:70:
         48:ac:b5:36:52:8e:5e:e1:94:ff:91:9f:82:e3:5e:02:3d:33:
         7b:24:02:49:0e:f0:1b:c7:71:dd:a7:1d:61:71:4b:db:1e:e0:
         c1:c3:d7:e1:e0:23:ff:88:a6:e7:dd:87:56:04:ec:40:72:47:
         d6:5c:11:63
-----BEGIN CERTIFICATE-----
MIIDdDCCAlygAwIBAgIRAOmVhIKZEZNhKeIY3TqJ8VEwDQYJKoZIhvcNAQELBQAw
FTETMBEGA1UEAwwKdGVhbTcwLW5ldDAeFw0yMjA1MTgxNDI5NDRaFw0yNTA1MDIx
NDI5NDRaMBgxFjAUBgNVBAMMDXRlYW03MC1zZXJ2ZXIwggEiMA0GCSqGSIb3DQEB
AQUAA4IBDwAwggEKAoIBAQDSnsBCLzWZCNUq7aXIcdVSAiiM4ANxbUZYgHCtC/Z7
bzYJLuwKn7KVKa0RebFPck9wlQ1Ui5HxaLEFnp+VvCh8lmBQx7XxiCcWdz60+GiY
/WicIXUg1neUOQGZDIP7q4EvVZU6ynYZAms5npW23IRSnO5MxS8JPe82ASmid6vh
WZWMMvGukcM+wSeyIJqlsRJ/xo6TzHBBSDU0VC6VQ2x/PTytE3Q9H8IYzt7tH9KE
6U0ohdWGRsKU40WPlA6clIN9yeXo02P4gl6iIfnp7LAvWYW1SWzOVdFe0w/3cCK4
lkhLhHZ1ftFkQDyDJIVaAQYKU/DjnGFzuNKJbPrYLPrdAgMBAAGjgbswgbgwCQYD
VR0TBAIwADAdBgNVHQ4EFgQUgFZNYSpcWjy7hpT15jr62y3fMvwwUAYDVR0jBEkw
R4AUatYmr997fQHJj8wqj/ny+ONd6ZmhGaQXMBUxEzARBgNVBAMMCnRlYW03MC1u
ZXSCFDzJjsxUtWP+4BI+N+OVJiAQM8YzMBMGA1UdJQQMMAoGCCsGAQUFBwMBMAsG
A1UdDwQEAwIFoDAYBgNVHREEETAPgg10ZWFtNzAtc2VydmVyMA0GCSqGSIb3DQEB
CwUAA4IBAQCBHm7VZA+124NVoP2t2lO0hwpEQ8BTWmNbkmG2CECGtVDK51g0jMSM
AEH8No+pYbDUvQSv47yedu0AtZgvlC3J9zUIGJvlFZGVDRrWO01BXAVHMnmoTb2M
fDg5DMjIX0ouSTuGno1fj4QIMxeV/HKX6wBsoN4KzMNJ1Pw/lS6J0R3ENuGRQfg1
HXaw3aiJAyNCw2b0TXAYgD19+smMSsqlRlcAcQMNQyHTfpe2eFEIr7SW1geY6zBb
sY+PK92ItTtkK6x6wnBIrLU2Uo5e4ZT/kZ+C414CPTN7JAJJDvAbx3Hdpx1hcUvb
HuDBw9fh4CP/iKbn3YdWBOxAckfWXBFj
-----END CERTIFICATE-----
