Certificate:
    Data:
        Version: 3 (0x2)
        Serial Number:
            d8:81:62:3d:68:1c:59:d1:6e:13:3c:7e:78:bb:6d:aa
        Signature Algorithm: sha256WithRSAEncryption
        Issuer: CN=team732-net
        Validity
            Not Before: May 18 23:51:42 2022 GMT
            Not After : May  2 23:51:42 2025 GMT
        Subject: CN=team732-client
        Subject Public Key Info:
            Public Key Algorithm: rsaEncryption
                RSA Public-Key: (2048 bit)
                Modulus:
                    00:dd:c8:b2:48:fc:d6:c2:6e:43:91:cb:1a:c8:bf:
                    ae:00:0b:e8:91:5f:32:fb:ed:d5:93:89:9a:a2:49:
                    05:11:cd:15:de:51:8b:88:5d:5a:80:e2:1f:e0:4b:
                    35:11:16:ad:24:c3:54:e2:84:fb:c1:3f:66:70:96:
                    24:6c:a0:d5:5e:61:6f:83:31:ee:5a:4d:21:7c:7c:
                    0d:c3:e8:be:04:21:b8:fe:a3:1d:41:03:e5:e7:75:
                    b4:a8:16:5b:01:5e:39:3c:ea:01:07:5c:05:6f:11:
                    0f:22:9e:47:11:3c:c3:f8:45:76:a5:b3:93:23:c2:
                    83:73:13:c2:30:bb:30:44:10:22:aa:36:78:1d:14:
                    3e:d2:72:2d:de:95:c1:7a:0f:01:69:6d:4e:8f:78:
                    7f:04:96:76:7a:b9:8b:e4:94:5f:d3:30:50:60:7e:
                    2a:1f:7d:f2:16:72:60:f9:43:83:d6:8d:69:e9:af:
                    26:b7:6b:0a:90:9f:96:94:02:9b:fa:19:fe:c1:4b:
                    1d:28:f6:d6:df:9b:e6:dd:12:b9:7c:c8:81:f2:d6:
                    00:99:17:f5:38:20:a5:1b:09:03:58:cf:9b:43:c8:
                    fb:6f:df:ce:43:74:de:09:6b:3c:56:a8:d9:c0:11:
                    8d:77:45:fd:03:84:1e:2c:c6:21:3b:6e:eb:dc:d9:
                    fd:e1
                Exponent: 65537 (0x10001)
        X509v3 extensions:
            X509v3 Basic Constraints: 
                CA:FALSE
            X509v3 Subject Key Identifier: 
                E9:F7:B0:31:5B:DC:B0:F2:B2:78:16:82:3E:61:80:97:1F:11:67:85
            X509v3 Authority Key Identifier: 
                keyid:27:48:63:EE:8A:AE:20:A7:6A:C4:18:AE:35:07:3B:05:60:17:0D:C3
                DirName:/CN=team732-net
                serial:5D:04:4B:9B:69:F7:EB:98:66:7C:77:03:DD:8B:19:A1:57:B7:4E:6D

            X509v3 Extended Key Usage: 
                TLS Web Client Authentication
            X509v3 Key Usage: 
                Digital Signature
    Signature Algorithm: sha256WithRSAEncryption
         8f:b7:0c:4e:66:ac:52:fe:c8:66:22:e3:e3:c3:87:bd:8b:89:
         d9:4b:96:13:fa:17:31:fa:ea:85:b7:0b:a4:b0:73:18:08:ab:
         e6:a8:ef:82:8a:75:58:57:ac:3e:41:c2:4f:4c:fb:c3:dc:8b:
         29:28:ee:70:47:2d:05:9f:09:f7:23:be:11:67:30:a6:21:dc:
         28:b4:2c:7a:82:22:8f:7d:9c:b2:54:8b:4a:90:69:46:9a:7b:
         13:44:cc:05:17:cf:8f:47:eb:cc:47:fe:f3:26:88:47:cf:be:
         98:a4:be:7c:da:49:52:37:ce:a8:c2:65:cf:f5:58:cc:56:97:
         50:d3:5b:b2:78:3c:77:e1:b5:8b:6d:81:2c:46:1a:1a:ea:62:
         c1:d9:49:46:9a:79:30:35:1e:56:5d:9a:e1:39:d6:27:c4:a6:
         6f:7e:bf:81:9b:37:d7:a5:9d:8a:66:a6:e6:10:a2:7d:d8:15:
         b7:c2:29:5c:d8:74:5d:1d:ba:70:c6:12:fc:5b:33:51:22:fe:
         fe:f7:01:ad:53:fe:14:82:75:ba:ce:23:4c:4f:4f:2c:89:dc:
         7c:c4:be:c0:3d:1f:ae:5b:07:37:93:3f:b6:8e:ad:e7:74:d4:
         ac:ed:33:09:f4:0e:e9:f1:1d:23:f1:e6:df:41:f6:28:21:02:
         5d:e7:70:21
-----BEGIN CERTIFICATE-----
MIIDXTCCAkWgAwIBAgIRANiBYj1oHFnRbhM8fni7baowDQYJKoZIhvcNAQELBQAw
FjEUMBIGA1UEAwwLdGVhbTczMi1uZXQwHhcNMjIwNTE4MjM1MTQyWhcNMjUwNTAy
MjM1MTQyWjAZMRcwFQYDVQQDDA50ZWFtNzMyLWNsaWVudDCCASIwDQYJKoZIhvcN
AQEBBQADggEPADCCAQoCggEBAN3Iskj81sJuQ5HLGsi/rgAL6JFfMvvt1ZOJmqJJ
BRHNFd5Ri4hdWoDiH+BLNREWrSTDVOKE+8E/ZnCWJGyg1V5hb4Mx7lpNIXx8DcPo
vgQhuP6jHUED5ed1tKgWWwFeOTzqAQdcBW8RDyKeRxE8w/hFdqWzkyPCg3MTwjC7
MEQQIqo2eB0UPtJyLd6VwXoPAWltTo94fwSWdnq5i+SUX9MwUGB+Kh998hZyYPlD
g9aNaemvJrdrCpCflpQCm/oZ/sFLHSj21t+b5t0SuXzIgfLWAJkX9TggpRsJA1jP
m0PI+2/fzkN03glrPFao2cARjXdF/QOEHizGITtu69zZ/eECAwEAAaOBojCBnzAJ
BgNVHRMEAjAAMB0GA1UdDgQWBBTp97AxW9yw8rJ4FoI+YYCXHxFnhTBRBgNVHSME
SjBIgBQnSGPuiq4gp2rEGK41BzsFYBcNw6EapBgwFjEUMBIGA1UEAwwLdGVhbTcz
Mi1uZXSCFF0ES5tp9+uYZnx3A92LGaFXt05tMBMGA1UdJQQMMAoGCCsGAQUFBwMC
MAsGA1UdDwQEAwIHgDANBgkqhkiG9w0BAQsFAAOCAQEAj7cMTmasUv7IZiLj48OH
vYuJ2UuWE/oXMfrqhbcLpLBzGAir5qjvgop1WFesPkHCT0z7w9yLKSjucEctBZ8J
9yO+EWcwpiHcKLQseoIij32cslSLSpBpRpp7E0TMBRfPj0frzEf+8yaIR8++mKS+
fNpJUjfOqMJlz/VYzFaXUNNbsng8d+G1i22BLEYaGupiwdlJRpp5MDUeVl2a4TnW
J8Smb36/gZs316Wdimam5hCifdgVt8IpXNh0XR26cMYS/FszUSL+/vcBrVP+FIJ1
us4jTE9PLIncfMS+wD0frlsHN5M/to6t53TUrO0zCfQO6fEdI/Hm30H2KCECXedw
IQ==
-----END CERTIFICATE-----
