Certificate:
    Data:
        Version: 3 (0x2)
        Serial Number:
            e7:bd:68:8f:40:ae:8a:86:34:27:40:b6:3b:cd:3e:86
        Signature Algorithm: sha256WithRSAEncryption
        Issuer: CN=team732-net
        Validity
            Not Before: May 18 23:51:42 2022 GMT
            Not After : May  2 23:51:42 2025 GMT
        Subject: CN=team732-server
        Subject Public Key Info:
            Public Key Algorithm: rsaEncryption
                RSA Public-Key: (2048 bit)
                Modulus:
                    00:ab:ba:2f:65:08:c7:7f:62:4c:f0:37:71:8a:ed:
                    61:10:b0:62:ab:9e:4f:56:a5:a3:0e:10:fc:1e:f2:
                    42:32:20:7a:cc:84:e4:c0:40:0c:37:42:89:0f:29:
                    aa:7a:a0:2b:42:05:3d:f7:84:73:29:1d:7d:fc:5c:
                    ed:f9:9e:01:da:2e:76:f1:29:62:a9:4c:89:a6:59:
                    df:74:be:4b:5b:ae:46:72:90:31:4b:c7:e3:b6:03:
                    95:b8:a4:39:00:90:d9:d8:be:b9:98:27:b7:d8:5f:
                    00:34:0d:86:86:0f:33:90:16:2a:c1:ad:e5:dd:29:
                    2a:58:9a:7a:1c:5a:67:36:3e:62:e3:43:2e:39:3c:
                    c5:cd:1d:ba:b3:c1:c2:04:87:28:84:a6:85:df:7b:
                    05:18:58:2a:18:93:4e:42:c7:3c:83:92:58:2c:80:
                    df:13:27:c6:33:92:d7:fd:fd:01:2f:e6:1f:22:10:
                    68:d2:9f:ac:6c:33:bb:2e:35:41:59:fb:8c:bd:48:
                    c2:47:2a:ea:d9:c1:37:90:2f:50:34:d7:e2:4c:59:
                    95:43:58:e8:32:ae:63:bf:f7:7c:21:01:8e:c5:23:
                    a2:d1:af:86:8e:05:f0:3b:e6:9d:aa:cf:58:ea:bd:
                    49:06:b4:81:1c:bc:e9:26:61:74:fb:f2:10:22:1f:
                    43:49
                Exponent: 65537 (0x10001)
        X509v3 extensions:
            X509v3 Basic Constraints: 
                CA:FALSE
            X509v3 Subject Key Identifier: 
                AE:E4:5F:A5:E1:B5:F1:E9:4A:41:C1:85:2C:08:5A:D8:73:6A:7E:A6
            X509v3 Authority Key Identifier: 
                keyid:27:48:63:EE:8A:AE:20:A7:6A:C4:18:AE:35:07:3B:05:60:17:0D:C3
                DirName:/CN=team732-net
                serial:5D:04:4B:9B:69:F7:EB:98:66:7C:77:03:DD:8B:19:A1:57:B7:4E:6D

            X509v3 Extended Key Usage: 
                TLS Web Server Authentication
            X509v3 Key Usage: 
                Digital Signature, Key Encipherment
            X509v3 Subject Alternative Name: 
                DNS:team732-server
    Signature Algorithm: sha256WithRSAEncryption
         4b:03:63:47:92:13:a2:dd:0c:29:e5:d5:72:5a:7f:ed:93:6f:
         4b:c5:e6:39:7a:ca:ed:85:e8:36:a3:bf:48:67:ae:1c:48:73:
         ff:3e:29:cb:7e:7a:a4:23:fd:4a:6e:93:20:51:a9:9d:da:d5:
         72:22:87:10:ae:d9:bd:2e:4d:4e:e2:8d:57:a2:4f:b2:d6:43:
         d1:03:10:82:d5:ef:de:fa:e0:35:2a:83:2c:6a:4b:05:3f:39:
         cb:b1:58:70:66:20:50:7e:42:da:fd:62:34:e4:70:46:1d:78:
         25:22:40:0b:5d:aa:5d:2f:64:da:fc:ab:87:92:08:82:5c:f0:
         a6:e3:d0:aa:eb:4e:ec:10:30:6b:7e:15:fb:a1:50:56:29:51:
         f8:7f:5e:37:f6:ed:89:2e:87:1d:f3:d7:0e:3e:5c:5d:8b:72:
         f9:89:83:36:93:cd:95:81:18:60:2f:78:80:b4:e5:55:07:92:
         08:bb:0e:69:b7:26:ca:6c:ad:b7:af:96:2f:b1:9b:6e:d6:99:
         ce:d1:04:e0:3b:8e:b4:15:89:2b:25:e2:7d:5a:b3:1a:de:a2:
         b2:f6:17:8b:3c:f3:36:b9:99:ef:b8:bd:55:86:53:f9:ca:56:
         35:4a:60:a2:b4:89:00:a2:c2:8d:90:c9:38:e8:ac:eb:b0:02:
         de:2c:26:a3
-----BEGIN CERTIFICATE-----
MIIDeDCCAmCgAwIBAgIRAOe9aI9AroqGNCdAtjvNPoYwDQYJKoZIhvcNAQELBQAw
FjEUMBIGA1UEAwwLdGVhbTczMi1uZXQwHhcNMjIwNTE4MjM1MTQyWhcNMjUwNTAy
MjM1MTQyWjAZMRcwFQYDVQQDDA50ZWFtNzMyLXNlcnZlcjCCASIwDQYJKoZIhvcN
AQEBBQADggEPADCCAQoCggEBAKu6L2UIx39iTPA3cYrtYRCwYqueT1alow4Q/B7y
QjIgesyE5MBADDdCiQ8pqnqgK0IFPfeEcykdffxc7fmeAdoudvEpYqlMiaZZ33S+
S1uuRnKQMUvH47YDlbikOQCQ2di+uZgnt9hfADQNhoYPM5AWKsGt5d0pKliaehxa
ZzY+YuNDLjk8xc0durPBwgSHKISmhd97BRhYKhiTTkLHPIOSWCyA3xMnxjOS1/39
AS/mHyIQaNKfrGwzuy41QVn7jL1Iwkcq6tnBN5AvUDTX4kxZlUNY6DKuY7/3fCEB
jsUjotGvho4F8DvmnarPWOq9SQa0gRy86SZhdPvyECIfQ0kCAwEAAaOBvTCBujAJ
BgNVHRMEAjAAMB0GA1UdDgQWBBSu5F+l4bXx6UpBwYUsCFrYc2p+pjBRBgNVHSME
SjBIgBQnSGPuiq4gp2rEGK41BzsFYBcNw6EapBgwFjEUMBIGA1UEAwwLdGVhbTcz
Mi1uZXSCFF0ES5tp9+uYZnx3A92LGaFXt05tMBMGA1UdJQQMMAoGCCsGAQUFBwMB
MAsGA1UdDwQEAwIFoDAZBgNVHREEEjAQgg50ZWFtNzMyLXNlcnZlcjANBgkqhkiG
9w0BAQsFAAOCAQEASwNjR5ITot0MKeXVclp/7ZNvS8XmOXrK7YXoNqO/SGeuHEhz
/z4py356pCP9Sm6TIFGpndrVciKHEK7ZvS5NTuKNV6JPstZD0QMQgtXv3vrgNSqD
LGpLBT85y7FYcGYgUH5C2v1iNORwRh14JSJAC12qXS9k2vyrh5IIglzwpuPQqutO
7BAwa34V+6FQVilR+H9eN/btiS6HHfPXDj5cXYty+YmDNpPNlYEYYC94gLTlVQeS
CLsOabcmymytt6+WL7GbbtaZztEE4DuOtBWJKyXifVqzGt6isvYXizzzNrmZ77i9
VYZT+cpWNUpgorSJAKLCjZDJOOis67AC3iwmow==
-----END CERTIFICATE-----
