Certificate:
    Data:
        Version: 3 (0x2)
        Serial Number:
            3a:c0:d7:3c:e4:f9:3b:ca:14:b1:1c:1f:55:e9:6c:c5
        Signature Algorithm: sha256WithRSAEncryption
        Issuer: CN=team120-net
        Validity
            Not Before: May 18 15:01:35 2022 GMT
            Not After : May  2 15:01:35 2025 GMT
        Subject: CN=team120-client
        Subject Public Key Info:
            Public Key Algorithm: rsaEncryption
                RSA Public-Key: (2048 bit)
                Modulus:
                    00:d0:95:83:d8:a5:b6:34:e1:fd:c4:cf:1f:40:28:
                    10:03:75:c0:f5:66:b4:c4:f4:b2:73:d3:26:be:ea:
                    80:6c:43:40:60:e2:0e:47:5a:e1:22:e2:bb:cd:31:
                    17:f6:1a:6c:c6:c9:b7:c9:08:5e:d4:10:bd:10:ce:
                    77:09:fa:20:da:2e:96:4a:e9:32:55:e2:5e:04:cd:
                    b5:d5:27:74:28:36:97:11:7d:27:0d:71:a7:6a:9f:
                    67:e4:66:49:7a:76:37:e9:7a:43:87:74:1a:9b:24:
                    6f:bb:a3:83:ed:40:99:80:14:e2:8d:b1:e0:78:df:
                    d4:66:61:72:5b:25:80:e6:55:05:85:95:83:6d:f7:
                    71:d5:6e:1c:f5:89:6d:8d:ca:ed:0e:63:ff:da:d0:
                    22:75:2c:b8:e2:81:39:72:e8:b5:5a:55:fc:81:05:
                    98:d8:e4:ba:19:43:c8:40:f9:d9:4e:89:27:c9:d3:
                    74:3d:7b:29:05:16:ee:93:54:44:34:b0:a9:1e:e9:
                    0c:35:46:3d:64:c1:c6:fa:5f:4d:d1:3c:9a:5d:f6:
                    ec:21:7e:8a:82:ad:67:70:12:db:14:b3:59:60:97:
                    42:75:44:e3:5b:0b:a3:9f:c4:a8:4a:a8:e0:8c:11:
                    2e:9e:e3:b6:c8:7d:7f:7b:e6:b1:a9:3e:ae:e2:5c:
                    5c:d1
                Exponent: 65537 (0x10001)
        X509v3 extensions:
            X509v3 Basic Constraints: 
                CA:FALSE
            X509v3 Subject Key Identifier: 
                B8:A3:2F:40:59:A1:DE:76:2F:84:F9:A3:D8:79:8B:8F:50:76:AC:C1
            X509v3 Authority Key Identifier: 
                keyid:46:22:EB:0D:AA:05:7F:83:4D:A2:2C:A3:0B:15:FD:59:58:83:13:EF
                DirName:/CN=team120-net
                serial:41:93:AD:BA:66:0B:A0:DA:E1:65:13:A3:58:BB:25:7C:57:AF:19:9E

            X509v3 Extended Key Usage: 
                TLS Web Client Authentication
            X509v3 Key Usage: 
                Digital Signature
    Signature Algorithm: sha256WithRSAEncryption
         17:6b:17:c0:c5:41:19:93:28:a1:a9:b1:01:7d:4a:f0:81:63:
         15:51:b2:3c:b4:0a:38:c8:c1:04:05:3d:36:7c:9b:61:04:e4:
         10:51:5d:41:72:ac:05:e9:1e:d2:d9:c5:eb:94:93:76:a6:39:
         82:b0:16:a6:a9:34:50:67:bd:f9:dd:80:99:fc:23:e8:10:a0:
         a1:f4:1f:58:47:7f:4f:f0:f3:5c:5a:ea:e7:7c:20:f3:58:ce:
         6e:36:0c:e5:62:cd:d5:9b:ce:61:50:0e:4e:1f:8b:dd:49:4f:
         37:23:ce:eb:c9:42:60:90:09:40:75:4c:b2:b6:63:76:a9:f0:
         2d:ae:7b:24:c9:86:25:cf:a8:10:ea:f1:cd:7c:b0:1c:f3:f7:
         00:cc:21:02:87:14:be:66:82:fb:46:dd:01:7c:2d:d9:c5:34:
         76:af:b9:46:fc:af:43:44:10:3d:ad:03:f0:80:44:05:fb:ee:
         1b:2e:52:9d:d8:0f:41:9a:d2:a7:ec:27:33:ba:98:7d:6a:1d:
         74:ff:bd:1a:30:f4:a4:2f:19:c0:b4:34:1a:02:c5:5a:84:be:
         e7:e9:39:a4:0f:91:d5:66:36:70:ba:35:fc:bb:75:7c:6e:89:
         16:42:d6:f8:db:dc:fa:39:61:35:91:02:d0:35:3a:73:42:c8:
         d2:47:0a:cf
-----BEGIN CERTIFICATE-----
MIIDXDCCAkSgAwIBAgIQOsDXPOT5O8oUsRwfVelsxTANBgkqhkiG9w0BAQsFADAW
MRQwEgYDVQQDDAt0ZWFtMTIwLW5ldDAeFw0yMjA1MTgxNTAxMzVaFw0yNTA1MDIx
NTAxMzVaMBkxFzAVBgNVBAMMDnRlYW0xMjAtY2xpZW50MIIBIjANBgkqhkiG9w0B
AQEFAAOCAQ8AMIIBCgKCAQEA0JWD2KW2NOH9xM8fQCgQA3XA9Wa0xPSyc9MmvuqA
bENAYOIOR1rhIuK7zTEX9hpsxsm3yQhe1BC9EM53Cfog2i6WSukyVeJeBM211Sd0
KDaXEX0nDXGnap9n5GZJenY36XpDh3QamyRvu6OD7UCZgBTijbHgeN/UZmFyWyWA
5lUFhZWDbfdx1W4c9YltjcrtDmP/2tAidSy44oE5cui1WlX8gQWY2OS6GUPIQPnZ
ToknydN0PXspBRbuk1RENLCpHukMNUY9ZMHG+l9N0TyaXfbsIX6Kgq1ncBLbFLNZ
YJdCdUTjWwujn8SoSqjgjBEunuO2yH1/e+axqT6u4lxc0QIDAQABo4GiMIGfMAkG
A1UdEwQCMAAwHQYDVR0OBBYEFLijL0BZod52L4T5o9h5i49QdqzBMFEGA1UdIwRK
MEiAFEYi6w2qBX+DTaIsowsV/VlYgxPvoRqkGDAWMRQwEgYDVQQDDAt0ZWFtMTIw
LW5ldIIUQZOtumYLoNrhZROjWLslfFevGZ4wEwYDVR0lBAwwCgYIKwYBBQUHAwIw
CwYDVR0PBAQDAgeAMA0GCSqGSIb3DQEBCwUAA4IBAQAXaxfAxUEZkyihqbEBfUrw
gWMVUbI8tAo4yMEEBT02fJthBOQQUV1BcqwF6R7S2cXrlJN2pjmCsBamqTRQZ735
3YCZ/CPoEKCh9B9YR39P8PNcWurnfCDzWM5uNgzlYs3Vm85hUA5OH4vdSU83I87r
yUJgkAlAdUyytmN2qfAtrnskyYYlz6gQ6vHNfLAc8/cAzCEChxS+ZoL7Rt0BfC3Z
xTR2r7lG/K9DRBA9rQPwgEQF++4bLlKd2A9BmtKn7Cczuph9ah10/70aMPSkLxnA
tDQaAsVahL7n6TmkD5HVZjZwujX8u3V8bokWQtb429z6OWE1kQLQNTpzQsjSRwrP
-----END CERTIFICATE-----
