Certificate:
    Data:
        Version: 3 (0x2)
        Serial Number:
            e3:28:f9:a3:ea:7c:7d:e2:d6:94:41:54:2f:d6:e5:a3
        Signature Algorithm: sha256WithRSAEncryption
        Issuer: CN=team397-net
        Validity
            Not Before: May 18 21:00:10 2022 GMT
            Not After : May  2 21:00:10 2025 GMT
        Subject: CN=team397-client
        Subject Public Key Info:
            Public Key Algorithm: rsaEncryption
                RSA Public-Key: (2048 bit)
                Modulus:
                    00:eb:4f:bd:5e:65:9e:f9:de:7d:88:8a:06:08:82:
                    ab:d8:47:2e:87:6a:3e:95:5a:5c:0c:15:27:04:b3:
                    74:8b:98:ec:e1:1a:48:07:7d:e6:5e:41:5a:16:1c:
                    c5:b1:73:a1:bf:3f:ad:b8:ce:ef:43:bf:b0:c6:65:
                    5b:fa:5e:0a:65:1f:0f:16:a9:c8:df:47:a7:72:b4:
                    85:ba:b9:4b:9b:ba:8c:d4:a1:b8:8e:84:b1:58:18:
                    e0:b1:fb:b2:b6:5e:e1:ab:4b:6f:7a:ad:31:72:e5:
                    b8:71:df:2c:46:f6:55:93:6b:a8:48:ef:60:43:8b:
                    01:76:5a:ce:d8:a8:9c:bb:a6:7e:d5:b8:61:76:10:
                    b4:54:8a:81:53:3e:00:77:4b:91:ad:cb:01:66:f7:
                    2b:e3:12:2a:6a:31:08:51:81:a9:8a:f2:88:7e:c3:
                    43:9a:81:c5:08:ab:9e:71:00:9a:4f:f6:a9:15:0f:
                    95:98:89:6a:9b:29:4a:cb:58:23:ed:8e:5d:17:a3:
                    56:ce:ff:36:e2:e5:dc:e0:04:c8:e5:11:5d:a4:15:
                    63:2f:bd:fc:c2:dd:51:fb:b9:e0:52:c6:26:cb:e4:
                    3e:99:dc:45:54:0b:4c:5e:5d:a6:e5:36:d8:8a:22:
                    e5:fb:86:e0:ba:71:59:97:d2:98:37:bb:7a:d9:cb:
                    73:49
                Exponent: 65537 (0x10001)
        X509v3 extensions:
            X509v3 Basic Constraints: 
                CA:FALSE
            X509v3 Subject Key Identifier: 
                92:96:43:21:D0:F0:30:C8:B8:25:AC:9D:DB:BD:5C:4B:3A:CA:3F:8B
            X509v3 Authority Key Identifier: 
                keyid:3B:15:E8:9D:CB:EF:4D:C5:FE:C5:D0:5E:BB:CD:19:55:C9:F1:61:3D
                DirName:/CN=team397-net
                serial:58:09:85:81:45:60:53:72:7F:B4:52:E0:F8:B3:5A:1B:AB:88:B5:B6

            X509v3 Extended Key Usage: 
                TLS Web Client Authentication
            X509v3 Key Usage: 
                Digital Signature
    Signature Algorithm: sha256WithRSAEncryption
         08:d5:b8:10:c0:47:4f:4a:42:75:1c:fc:8d:d5:03:3a:fb:d8:
         2c:f3:b8:32:56:85:80:93:30:57:68:2a:10:48:85:c3:22:d3:
         d0:7e:5d:61:fb:fe:8c:19:7b:5d:c8:40:26:8a:40:77:7a:f4:
         8e:00:6a:98:bf:96:5b:89:b3:cd:8e:da:01:c4:a0:67:af:a9:
         32:3b:f8:c6:cd:79:fb:00:78:eb:1a:72:94:bf:74:27:93:9d:
         d8:33:c7:82:84:1b:21:44:97:7b:3b:39:c1:7c:0a:07:44:15:
         e7:4f:95:48:66:4c:08:ad:1c:bc:00:4c:5d:f1:fb:8d:97:39:
         a8:2b:8e:e2:00:54:13:73:9e:a3:70:58:a0:fc:5a:2b:15:9c:
         58:d7:7c:43:a2:d1:13:0f:85:4c:51:93:6e:97:31:64:87:e6:
         29:a5:54:42:e3:66:c1:41:85:48:94:30:42:16:1b:80:97:1f:
         28:ed:03:d0:68:53:cd:04:a4:c7:b2:24:e6:93:e5:a4:aa:dd:
         58:36:ce:cb:fe:0f:83:25:8f:2a:ee:08:3a:a7:e0:d1:86:62:
         42:bf:c8:d6:32:e6:5a:90:2a:1f:ec:08:a0:99:ff:5c:5e:2f:
         a3:c0:90:9f:2d:da:ef:b5:51:68:43:37:e7:c1:8c:9e:04:35:
         d0:73:ec:20
-----BEGIN CERTIFICATE-----
MIIDXTCCAkWgAwIBAgIRAOMo+aPqfH3i1pRBVC/W5aMwDQYJKoZIhvcNAQELBQAw
FjEUMBIGA1UEAwwLdGVhbTM5Ny1uZXQwHhcNMjIwNTE4MjEwMDEwWhcNMjUwNTAy
MjEwMDEwWjAZMRcwFQYDVQQDDA50ZWFtMzk3LWNsaWVudDCCASIwDQYJKoZIhvcN
AQEBBQADggEPADCCAQoCggEBAOtPvV5lnvnefYiKBgiCq9hHLodqPpVaXAwVJwSz
dIuY7OEaSAd95l5BWhYcxbFzob8/rbjO70O/sMZlW/peCmUfDxapyN9Hp3K0hbq5
S5u6jNShuI6EsVgY4LH7srZe4atLb3qtMXLluHHfLEb2VZNrqEjvYEOLAXZaztio
nLumftW4YXYQtFSKgVM+AHdLka3LAWb3K+MSKmoxCFGBqYryiH7DQ5qBxQirnnEA
mk/2qRUPlZiJapspSstYI+2OXRejVs7/NuLl3OAEyOURXaQVYy+9/MLdUfu54FLG
JsvkPpncRVQLTF5dpuU22Ioi5fuG4LpxWZfSmDe7etnLc0kCAwEAAaOBojCBnzAJ
BgNVHRMEAjAAMB0GA1UdDgQWBBSSlkMh0PAwyLglrJ3bvVxLOso/izBRBgNVHSME
SjBIgBQ7Feidy+9Nxf7F0F67zRlVyfFhPaEapBgwFjEUMBIGA1UEAwwLdGVhbTM5
Ny1uZXSCFFgJhYFFYFNyf7RS4PizWhuriLW2MBMGA1UdJQQMMAoGCCsGAQUFBwMC
MAsGA1UdDwQEAwIHgDANBgkqhkiG9w0BAQsFAAOCAQEACNW4EMBHT0pCdRz8jdUD
OvvYLPO4MlaFgJMwV2gqEEiFwyLT0H5dYfv+jBl7XchAJopAd3r0jgBqmL+WW4mz
zY7aAcSgZ6+pMjv4xs15+wB46xpylL90J5Od2DPHgoQbIUSXezs5wXwKB0QV50+V
SGZMCK0cvABMXfH7jZc5qCuO4gBUE3Oeo3BYoPxaKxWcWNd8Q6LREw+FTFGTbpcx
ZIfmKaVUQuNmwUGFSJQwQhYbgJcfKO0D0GhTzQSkx7Ik5pPlpKrdWDbOy/4PgyWP
Ku4IOqfg0YZiQr/I1jLmWpAqH+wIoJn/XF4vo8CQny3a77VRaEM358GMngQ10HPs
IA==
-----END CERTIFICATE-----
