Certificate:
    Data:
        Version: 3 (0x2)
        Serial Number:
            66:ee:f1:25:e1:a5:f1:62:33:97:7e:0a:92:e0:13:8c
        Signature Algorithm: sha256WithRSAEncryption
        Issuer: CN=team352-net
        Validity
            Not Before: May 18 20:31:19 2022 GMT
            Not After : May  2 20:31:19 2025 GMT
        Subject: CN=team352-client
        Subject Public Key Info:
            Public Key Algorithm: rsaEncryption
                RSA Public-Key: (2048 bit)
                Modulus:
                    00:ec:cb:df:03:40:8a:fa:d0:53:a9:be:18:ba:4e:
                    d1:a9:f4:07:ed:3a:9a:9e:c4:11:81:a7:44:0a:62:
                    b6:52:28:de:83:28:f4:d4:29:c8:fc:aa:17:61:de:
                    c7:9f:35:ee:32:64:87:09:67:8e:4f:b9:01:bb:1f:
                    65:a8:29:07:3e:41:b4:45:07:0d:fd:8a:af:d7:7f:
                    2e:53:e8:ad:6e:1a:9a:9f:ea:be:97:80:bf:cf:75:
                    98:5c:d2:dd:37:b2:2b:1f:2c:be:0b:7d:40:fa:86:
                    c3:6f:24:22:47:7b:7d:fa:b8:d5:ae:93:48:0b:22:
                    4b:fa:bc:a5:7b:07:48:2d:67:77:cf:c8:2f:7e:17:
                    d0:67:69:71:f4:ab:78:3d:1c:55:6f:93:37:57:92:
                    38:91:d6:00:98:50:86:58:5b:9a:62:44:44:18:ef:
                    e7:b8:e7:fc:1e:4f:dd:1a:16:f9:2f:f9:14:6b:34:
                    8a:c7:1f:03:25:00:15:45:cc:10:df:57:4c:90:91:
                    50:a8:6e:32:22:79:78:2a:fd:50:ac:56:8b:24:e2:
                    5b:45:5c:3b:3e:5c:f9:72:d6:d9:39:2f:e1:8e:ca:
                    19:e2:0c:16:b5:4b:fb:dd:18:1d:78:25:8d:fd:9f:
                    25:55:4d:6f:c3:e1:89:76:64:c3:e0:25:fa:21:86:
                    bb:8b
                Exponent: 65537 (0x10001)
        X509v3 extensions:
            X509v3 Basic Constraints: 
                CA:FALSE
            X509v3 Subject Key Identifier: 
                CF:99:AD:FC:0C:DB:F6:6A:90:C2:24:2F:C7:5E:74:15:4F:8E:CB:FF
            X509v3 Authority Key Identifier: 
                keyid:C1:3B:94:C1:46:E0:37:9F:40:C7:9B:98:25:35:18:1F:9E:FF:52:87
                DirName:/CN=team352-net
                serial:6C:6A:66:73:4E:F4:29:CC:EE:05:65:BD:3F:3F:74:4D:83:53:33:DA

            X509v3 Extended Key Usage: 
                TLS Web Client Authentication
            X509v3 Key Usage: 
                Digital Signature
    Signature Algorithm: sha256WithRSAEncryption
         9c:08:05:7e:65:e1:92:e9:f6:60:e1:80:2c:c7:24:33:14:13:
         fb:9c:32:b5:db:0f:c4:86:14:a9:10:31:0e:aa:ef:2b:5d:9b:
         31:1f:35:fd:38:d0:18:fc:cc:85:c5:b8:0b:6e:db:96:3e:21:
         87:2d:29:a8:b7:d0:5c:da:e2:b3:78:8f:4e:8c:04:a1:e2:65:
         02:48:1e:0e:84:f5:8e:18:48:82:41:23:e1:b6:c7:ea:bd:e6:
         97:cd:9f:0a:31:ed:54:aa:ab:2f:e0:b6:38:ac:3a:93:a7:66:
         96:8f:11:fc:de:ca:d7:02:6a:df:d9:ef:95:37:11:4f:66:78:
         37:74:c1:c3:21:f8:b6:0b:37:0b:a6:a3:f9:8b:f8:fc:a3:6d:
         63:71:7e:58:df:dc:ae:1c:7a:8e:5b:5e:ec:7a:c6:d6:fe:7d:
         cf:66:8c:8d:91:cc:be:d7:81:b2:37:12:6d:5f:97:45:06:61:
         c9:19:c3:e7:f8:05:87:56:c8:32:bc:6b:a3:53:a5:e0:c3:67:
         2c:49:8a:ac:58:99:62:fd:40:bc:26:44:20:d1:5f:bb:5d:d3:
         fe:13:f8:8a:21:a7:97:b5:61:ac:4b:a0:36:80:64:72:f1:28:
         21:d4:60:95:45:3f:e7:f7:39:df:aa:13:ec:b0:51:be:0e:34:
         7b:84:c0:9e
-----BEGIN CERTIFICATE-----
MIIDXDCCAkSgAwIBAgIQZu7xJeGl8WIzl34KkuATjDANBgkqhkiG9w0BAQsFADAW
MRQwEgYDVQQDDAt0ZWFtMzUyLW5ldDAeFw0yMjA1MTgyMDMxMTlaFw0yNTA1MDIy
MDMxMTlaMBkxFzAVBgNVBAMMDnRlYW0zNTItY2xpZW50MIIBIjANBgkqhkiG9w0B
AQEFAAOCAQ8AMIIBCgKCAQEA7MvfA0CK+tBTqb4Yuk7RqfQH7TqansQRgadECmK2
Uijegyj01CnI/KoXYd7HnzXuMmSHCWeOT7kBux9lqCkHPkG0RQcN/Yqv138uU+it
bhqan+q+l4C/z3WYXNLdN7IrHyy+C31A+obDbyQiR3t9+rjVrpNICyJL+rylewdI
LWd3z8gvfhfQZ2lx9Kt4PRxVb5M3V5I4kdYAmFCGWFuaYkREGO/nuOf8Hk/dGhb5
L/kUazSKxx8DJQAVRcwQ31dMkJFQqG4yInl4Kv1QrFaLJOJbRVw7Plz5ctbZOS/h
jsoZ4gwWtUv73RgdeCWN/Z8lVU1vw+GJdmTD4CX6IYa7iwIDAQABo4GiMIGfMAkG
A1UdEwQCMAAwHQYDVR0OBBYEFM+ZrfwM2/ZqkMIkL8dedBVPjsv/MFEGA1UdIwRK
MEiAFME7lMFG4DefQMebmCU1GB+e/1KHoRqkGDAWMRQwEgYDVQQDDAt0ZWFtMzUy
LW5ldIIUbGpmc070KczuBWW9Pz90TYNTM9owEwYDVR0lBAwwCgYIKwYBBQUHAwIw
CwYDVR0PBAQDAgeAMA0GCSqGSIb3DQEBCwUAA4IBAQCcCAV+ZeGS6fZg4YAsxyQz
FBP7nDK12w/EhhSpEDEOqu8rXZsxHzX9ONAY/MyFxbgLbtuWPiGHLSmot9Bc2uKz
eI9OjASh4mUCSB4OhPWOGEiCQSPhtsfqveaXzZ8KMe1Uqqsv4LY4rDqTp2aWjxH8
3srXAmrf2e+VNxFPZng3dMHDIfi2CzcLpqP5i/j8o21jcX5Y39yuHHqOW17sesbW
/n3PZoyNkcy+14GyNxJtX5dFBmHJGcPn+AWHVsgyvGujU6Xgw2csSYqsWJli/UC8
JkQg0V+7XdP+E/iKIaeXtWGsS6A2gGRy8Sgh1GCVRT/n9znfqhPssFG+DjR7hMCe
-----END CERTIFICATE-----
