Certificate:
    Data:
        Version: 3 (0x2)
        Serial Number:
            d6:39:20:d7:bb:c1:ae:22:2c:60:50:20:00:bc:26:14
        Signature Algorithm: sha256WithRSAEncryption
        Issuer: CN=team181-net
        Validity
            Not Before: May 18 18:57:52 2022 GMT
            Not After : May  2 18:57:52 2025 GMT
        Subject: CN=team181-client
        Subject Public Key Info:
            Public Key Algorithm: rsaEncryption
                RSA Public-Key: (2048 bit)
                Modulus:
                    00:d4:b9:cc:53:5c:24:14:96:cd:1a:91:cb:6e:11:
                    dc:77:0a:e5:ca:ab:a6:f8:4a:4a:bc:a0:3b:61:52:
                    00:46:8d:e8:80:f4:52:df:5f:f4:3f:b7:ff:e1:73:
                    40:76:7e:0b:71:80:2c:1c:ed:8d:42:ee:1a:c8:59:
                    bc:98:7d:05:9e:0a:85:79:23:e9:8f:ab:4a:5a:bf:
                    29:0f:5e:9b:83:57:39:85:6c:00:e1:64:3c:f2:e0:
                    20:23:72:c5:4f:fd:d2:da:98:52:94:bb:2a:06:9c:
                    d6:d3:ed:d3:50:d5:38:c0:b5:cd:dd:02:a0:34:c4:
                    c8:23:c2:d2:c2:51:41:70:f8:85:78:53:c0:97:09:
                    7b:1e:39:f4:97:b4:fe:35:9a:dd:75:a8:da:47:9b:
                    5e:a8:73:2f:08:59:de:82:bf:7e:03:24:00:91:02:
                    1d:f1:8f:c1:e1:52:40:24:e7:a9:bc:a0:ec:1c:9b:
                    da:77:43:3d:af:2e:bf:54:a2:0f:66:8f:b3:76:e3:
                    e5:af:ba:e4:13:c1:1e:cb:57:3a:65:be:f9:26:98:
                    ff:c4:ef:b2:c0:48:77:2f:ab:20:80:52:ed:40:db:
                    f8:2e:96:64:fb:90:48:88:38:ef:84:36:c7:6a:70:
                    df:3c:38:17:54:29:79:e1:89:a0:bd:be:da:21:35:
                    73:1b
                Exponent: 65537 (0x10001)
        X509v3 extensions:
            X509v3 Basic Constraints: 
                CA:FALSE
            X509v3 Subject Key Identifier: 
                FA:87:AF:5C:9D:5B:15:33:89:4B:EC:79:4B:7F:0B:6E:AF:6A:60:87
            X509v3 Authority Key Identifier: 
                keyid:CB:7F:55:22:12:E4:3D:70:9D:98:C7:E8:41:74:27:DA:51:88:45:69
                DirName:/CN=team181-net
                serial:30:8A:94:DD:4F:1F:06:B3:72:F9:E1:32:D7:F4:C5:68:17:52:37:41

            X509v3 Extended Key Usage: 
                TLS Web Client Authentication
            X509v3 Key Usage: 
                Digital Signature
    Signature Algorithm: sha256WithRSAEncryption
         bd:b5:94:e4:9a:92:14:a6:5c:a9:c2:21:b8:2b:ea:ae:3d:ef:
         a6:aa:0d:4c:a9:5b:7d:49:30:ec:01:6b:ad:98:67:c1:87:74:
         12:32:2c:71:da:d7:ba:89:64:a2:07:d5:fe:18:3c:65:7a:6e:
         78:19:ba:d6:15:c9:68:4b:22:6c:da:af:94:a7:44:87:3f:c8:
         46:80:44:c7:ec:bc:0c:f9:98:77:ae:61:8b:b1:96:e1:f1:e1:
         69:41:ef:90:c3:83:96:4b:57:f6:5a:33:c2:af:f3:8f:51:f0:
         61:7b:8f:e3:d2:2d:4b:16:b4:dd:af:4b:5b:b4:5b:4a:13:48:
         cf:fa:cf:f9:01:cb:f7:c5:76:48:50:cb:6d:7f:7d:57:f8:52:
         be:84:30:a0:9d:d1:de:67:55:99:9e:eb:b7:89:d0:33:47:47:
         cd:d7:73:97:83:f5:5c:b5:f3:72:68:b8:1a:19:da:38:6d:45:
         6c:69:f2:20:05:7d:8f:5d:8c:27:85:2a:bf:77:a3:59:ff:54:
         5e:68:76:90:c7:1b:25:44:8e:89:c6:21:5f:25:4f:54:bd:6a:
         fe:47:d9:0e:15:2b:ee:c1:87:ff:13:b3:64:4c:32:25:94:d7:
         23:15:28:61:05:47:74:94:b1:1e:f5:3f:09:cd:41:65:dc:df:
         7e:b8:98:bf
-----BEGIN CERTIFICATE-----
MIIDXTCCAkWgAwIBAgIRANY5INe7wa4iLGBQIAC8JhQwDQYJKoZIhvcNAQELBQAw
FjEUMBIGA1UEAwwLdGVhbTE4MS1uZXQwHhcNMjIwNTE4MTg1NzUyWhcNMjUwNTAy
MTg1NzUyWjAZMRcwFQYDVQQDDA50ZWFtMTgxLWNsaWVudDCCASIwDQYJKoZIhvcN
AQEBBQADggEPADCCAQoCggEBANS5zFNcJBSWzRqRy24R3HcK5cqrpvhKSrygO2FS
AEaN6ID0Ut9f9D+3/+FzQHZ+C3GALBztjULuGshZvJh9BZ4KhXkj6Y+rSlq/KQ9e
m4NXOYVsAOFkPPLgICNyxU/90tqYUpS7Kgac1tPt01DVOMC1zd0CoDTEyCPC0sJR
QXD4hXhTwJcJex459Je0/jWa3XWo2kebXqhzLwhZ3oK/fgMkAJECHfGPweFSQCTn
qbyg7Byb2ndDPa8uv1SiD2aPs3bj5a+65BPBHstXOmW++SaY/8TvssBIdy+rIIBS
7UDb+C6WZPuQSIg474Q2x2pw3zw4F1QpeeGJoL2+2iE1cxsCAwEAAaOBojCBnzAJ
BgNVHRMEAjAAMB0GA1UdDgQWBBT6h69cnVsVM4lL7HlLfwtur2pghzBRBgNVHSME
SjBIgBTLf1UiEuQ9cJ2Yx+hBdCfaUYhFaaEapBgwFjEUMBIGA1UEAwwLdGVhbTE4
MS1uZXSCFDCKlN1PHwazcvnhMtf0xWgXUjdBMBMGA1UdJQQMMAoGCCsGAQUFBwMC
MAsGA1UdDwQEAwIHgDANBgkqhkiG9w0BAQsFAAOCAQEAvbWU5JqSFKZcqcIhuCvq
rj3vpqoNTKlbfUkw7AFrrZhnwYd0EjIscdrXuolkogfV/hg8ZXpueBm61hXJaEsi
bNqvlKdEhz/IRoBEx+y8DPmYd65hi7GW4fHhaUHvkMODlktX9lozwq/zj1HwYXuP
49ItSxa03a9LW7RbShNIz/rP+QHL98V2SFDLbX99V/hSvoQwoJ3R3mdVmZ7rt4nQ
M0dHzddzl4P1XLXzcmi4GhnaOG1FbGnyIAV9j12MJ4Uqv3ejWf9UXmh2kMcbJUSO
icYhXyVPVL1q/kfZDhUr7sGH/xOzZEwyJZTXIxUoYQVHdJSxHvU/Cc1BZdzffriY
vw==
-----END CERTIFICATE-----
