Certificate:
    Data:
        Version: 3 (0x2)
        Serial Number:
            8f:88:b3:52:6b:86:04:8c:72:32:36:18:ad:c9:f0:6a
        Signature Algorithm: sha256WithRSAEncryption
        Issuer: CN=team176-net
        Validity
            Not Before: May 18 18:54:55 2022 GMT
            Not After : May  2 18:54:55 2025 GMT
        Subject: CN=team176-server
        Subject Public Key Info:
            Public Key Algorithm: rsaEncryption
                RSA Public-Key: (2048 bit)
                Modulus:
                    00:e2:8b:d6:d6:9f:97:95:65:b8:d9:56:ff:81:db:
                    30:4a:fb:3a:d8:0f:2f:f5:b6:37:ff:10:af:1d:37:
                    e0:3e:14:78:fc:f7:c6:b7:4b:a5:03:00:8c:56:b6:
                    1a:9b:c8:30:7b:68:52:00:c2:a6:58:c4:a3:ed:aa:
                    15:44:31:32:b2:0b:48:2f:2e:58:3f:22:3a:a6:34:
                    00:28:99:12:a6:0f:dc:1b:e4:88:d7:3f:e6:eb:32:
                    cc:8d:a8:f4:cb:4a:bc:bb:96:4d:df:78:d3:07:45:
                    79:51:71:7d:8c:8b:21:3a:6d:59:58:ad:17:64:51:
                    64:78:99:e0:e0:2b:89:a6:b1:0d:13:b6:0f:c5:d0:
                    d4:61:64:42:11:21:58:19:e8:d2:d8:51:59:c2:66:
                    19:06:15:19:55:b0:2b:5b:24:a6:80:a0:74:66:a4:
                    8c:2b:0f:e7:78:6d:33:1e:cd:50:75:6f:9d:7f:a3:
                    72:94:b8:1b:21:45:5e:71:6c:2e:93:93:e0:2e:7d:
                    75:a4:99:94:2b:99:d0:f9:d6:57:92:37:fd:2e:da:
                    ae:04:42:15:8a:a1:15:94:7d:03:87:9f:20:b1:84:
                    02:15:60:89:45:43:25:9b:b0:35:58:f9:f6:bb:63:
                    fd:9d:0c:3f:6d:71:50:5c:1e:1d:49:8b:f9:88:55:
                    be:df
                Exponent: 65537 (0x10001)
        X509v3 extensions:
            X509v3 Basic Constraints: 
                CA:FALSE
            X509v3 Subject Key Identifier: 
                22:7F:5A:2E:B9:C0:45:6B:34:BB:04:ED:F2:53:B0:86:F1:59:9A:00
            X509v3 Authority Key Identifier: 
                keyid:3D:FD:E0:47:11:00:19:D6:7C:D5:27:34:E7:0D:92:FB:E3:73:C1:E5
                DirName:/CN=team176-net
                serial:68:95:24:5D:D1:E1:5A:70:28:1F:9D:66:02:8B:82:1A:3A:78:2B:FE

            X509v3 Extended Key Usage: 
                TLS Web Server Authentication
            X509v3 Key Usage: 
                Digital Signature, Key Encipherment
            X509v3 Subject Alternative Name: 
                DNS:team176-server
    Signature Algorithm: sha256WithRSAEncryption
         59:02:5c:2d:fc:d4:fb:83:9f:07:57:5e:64:0e:e7:2a:4d:d6:
         c8:87:18:d4:8a:a2:19:7e:66:53:77:16:15:80:fa:bb:55:c5:
         87:ad:c7:be:7b:c3:23:33:7f:c8:3c:34:e6:f3:bc:71:7d:21:
         dd:43:52:2d:90:5e:60:55:69:16:39:5a:fd:c4:2e:71:c8:f0:
         03:91:f7:ca:0b:61:6e:ac:c6:0b:99:d7:e9:02:57:a6:36:3c:
         22:7b:19:c5:d6:8d:dc:00:eb:a0:9b:de:20:b5:0f:34:79:7f:
         ad:63:a4:e1:68:b8:d1:23:e0:12:6f:54:5f:1d:70:18:0c:b1:
         3d:1c:c0:17:f7:d4:b2:17:08:15:8c:ad:84:9c:71:b7:29:c0:
         b0:b0:13:bb:e9:8e:73:ee:52:75:4e:5e:0d:b4:f8:54:ed:41:
         54:18:79:36:a2:66:a9:10:d5:aa:ab:0b:ee:5d:94:4b:a4:03:
         d1:32:21:55:54:43:27:13:1a:cd:67:10:2c:38:92:42:5d:3a:
         cd:e1:e5:d4:18:c7:d9:3c:d3:44:75:6f:26:60:b6:38:66:94:
         f2:82:ca:91:a8:eb:3a:07:0b:e8:7d:40:71:53:8e:e6:15:1d:
         53:9c:3b:bc:98:f8:58:fe:b7:8c:e7:0c:ef:81:7c:02:fa:8e:
         23:c3:46:8c
-----BEGIN CERTIFICATE-----
MIIDeDCCAmCgAwIBAgIRAI+Is1JrhgSMcjI2GK3J8GowDQYJKoZIhvcNAQELBQAw
FjEUMBIGA1UEAwwLdGVhbTE3Ni1uZXQwHhcNMjIwNTE4MTg1NDU1WhcNMjUwNTAy
MTg1NDU1WjAZMRcwFQYDVQQDDA50ZWFtMTc2LXNlcnZlcjCCASIwDQYJKoZIhvcN
AQEBBQADggEPADCCAQoCggEBAOKL1tafl5VluNlW/4HbMEr7OtgPL/W2N/8Qrx03
4D4UePz3xrdLpQMAjFa2GpvIMHtoUgDCpljEo+2qFUQxMrILSC8uWD8iOqY0ACiZ
EqYP3BvkiNc/5usyzI2o9MtKvLuWTd940wdFeVFxfYyLITptWVitF2RRZHiZ4OAr
iaaxDRO2D8XQ1GFkQhEhWBno0thRWcJmGQYVGVWwK1skpoCgdGakjCsP53htMx7N
UHVvnX+jcpS4GyFFXnFsLpOT4C59daSZlCuZ0PnWV5I3/S7argRCFYqhFZR9A4ef
ILGEAhVgiUVDJZuwNVj59rtj/Z0MP21xUFweHUmL+YhVvt8CAwEAAaOBvTCBujAJ
BgNVHRMEAjAAMB0GA1UdDgQWBBQif1ouucBFazS7BO3yU7CG8VmaADBRBgNVHSME
SjBIgBQ9/eBHEQAZ1nzVJzTnDZL743PB5aEapBgwFjEUMBIGA1UEAwwLdGVhbTE3
Ni1uZXSCFGiVJF3R4VpwKB+dZgKLgho6eCv+MBMGA1UdJQQMMAoGCCsGAQUFBwMB
MAsGA1UdDwQEAwIFoDAZBgNVHREEEjAQgg50ZWFtMTc2LXNlcnZlcjANBgkqhkiG
9w0BAQsFAAOCAQEAWQJcLfzU+4OfB1deZA7nKk3WyIcY1IqiGX5mU3cWFYD6u1XF
h63HvnvDIzN/yDw05vO8cX0h3UNSLZBeYFVpFjla/cQuccjwA5H3ygthbqzGC5nX
6QJXpjY8InsZxdaN3ADroJveILUPNHl/rWOk4Wi40SPgEm9UXx1wGAyxPRzAF/fU
shcIFYythJxxtynAsLATu+mOc+5SdU5eDbT4VO1BVBh5NqJmqRDVqqsL7l2US6QD
0TIhVVRDJxMazWcQLDiSQl06zeHl1BjH2TzTRHVvJmC2OGaU8oLKkajrOgcL6H1A
cVOO5hUdU5w7vJj4WP63jOcM74F8AvqOI8NGjA==
-----END CERTIFICATE-----
