Certificate:
    Data:
        Version: 3 (0x2)
        Serial Number:
            85:07:86:69:d9:e3:96:a4:ca:43:07:90:9b:7c:3c:13
        Signature Algorithm: sha256WithRSAEncryption
        Issuer: CN=team748-net
        Validity
            Not Before: May 19 00:03:06 2022 GMT
            Not After : May  3 00:03:06 2025 GMT
        Subject: CN=team748-client
        Subject Public Key Info:
            Public Key Algorithm: rsaEncryption
                RSA Public-Key: (2048 bit)
                Modulus:
                    00:c0:8c:68:2d:6e:fc:cd:75:d5:fc:33:40:79:ad:
                    6a:da:7e:41:9e:25:df:dd:7d:04:46:e9:c1:83:8a:
                    40:ec:b9:4c:df:1a:6a:ca:d5:5a:20:6d:05:e9:36:
                    22:82:27:8f:02:1e:24:82:b8:03:d1:1d:95:d1:c1:
                    64:00:a4:be:8d:fc:71:73:5b:c7:52:0d:04:82:ae:
                    a4:fc:3c:ff:4e:b6:d5:8f:56:40:68:a4:9c:a5:4f:
                    bb:a1:e4:67:9c:a1:5d:92:aa:ea:fe:8b:34:6f:5b:
                    48:69:e9:57:54:d5:54:0b:05:37:64:ee:07:f4:52:
                    c9:ef:fe:b2:11:d1:1f:74:ea:ec:41:4f:5b:95:65:
                    1c:fa:b6:c5:9c:cd:c6:8e:44:a5:9e:f4:dd:82:f4:
                    68:8c:06:14:15:b7:d0:ed:79:5c:28:36:7e:eb:a5:
                    18:4d:7e:86:dd:47:be:d8:5e:d2:4f:64:c8:b3:98:
                    54:b6:52:26:7c:c7:5c:4b:d3:e3:76:c9:74:e1:25:
                    29:2e:60:15:a6:5f:1b:37:81:40:a0:e8:79:1a:10:
                    ee:61:ca:a2:1c:a2:8e:02:c5:97:3d:65:27:c3:42:
                    95:d0:ef:52:e7:75:08:c9:65:2a:53:33:c3:a4:c1:
                    14:e8:0a:bc:b6:62:d0:24:3f:c3:1d:9f:39:a0:1b:
                    3b:63
                Exponent: 65537 (0x10001)
        X509v3 extensions:
            X509v3 Basic Constraints: 
                CA:FALSE
            X509v3 Subject Key Identifier: 
                16:B3:AD:E1:2B:A8:F0:A6:62:E1:68:59:E7:C2:D8:8C:D6:C9:52:A8
            X509v3 Authority Key Identifier: 
                keyid:F5:FD:40:3E:CA:54:91:E4:B6:E9:4B:DD:C2:43:BB:1C:3D:B1:C3:04
                DirName:/CN=team748-net
                serial:4C:4C:17:91:A3:84:36:70:57:6A:DC:5C:1E:F2:5D:4C:F9:5F:4E:20

            X509v3 Extended Key Usage: 
                TLS Web Client Authentication
            X509v3 Key Usage: 
                Digital Signature
    Signature Algorithm: sha256WithRSAEncryption
         0d:72:50:c7:3f:17:88:00:ae:14:0f:e0:97:4c:e2:04:85:2d:
         dd:01:81:d1:b2:cb:48:a9:85:a9:55:f3:7e:fa:81:e5:43:a1:
         89:26:ed:30:45:6c:97:06:0b:6e:6c:44:8a:ec:f4:3f:f8:11:
         0f:1f:60:38:41:37:29:6e:4b:19:97:7b:f3:68:ef:b2:e8:29:
         47:ba:c0:df:ab:ff:e3:aa:d9:a0:f5:bd:88:24:29:87:3b:9a:
         1c:15:eb:c9:e7:b7:70:bc:0d:c7:d1:d2:09:20:68:28:40:50:
         f6:7d:54:29:96:1a:af:1a:0d:43:b8:71:52:8c:96:55:e8:fe:
         c1:e8:42:ec:6f:a3:6a:ad:b2:46:7e:d6:75:f7:00:31:70:e3:
         13:b6:63:49:21:6b:79:af:44:01:d3:6f:26:66:3d:52:07:b7:
         50:82:e4:08:d5:97:ba:b2:60:d0:1e:c5:38:ba:25:1b:ec:c5:
         0e:68:19:02:be:91:56:a6:30:e7:4e:61:c2:80:db:5c:3f:b0:
         68:f1:1e:23:d0:66:96:fa:a1:a6:0d:66:9f:ae:25:1c:51:35:
         75:b8:a6:02:b3:bd:83:ab:55:fd:c0:c6:70:d6:ac:37:43:cc:
         41:1d:58:45:17:82:6b:b9:25:44:5a:d8:f7:7e:69:14:ab:c4:
         c8:b0:38:70
-----BEGIN CERTIFICATE-----
MIIDXTCCAkWgAwIBAgIRAIUHhmnZ45akykMHkJt8PBMwDQYJKoZIhvcNAQELBQAw
FjEUMBIGA1UEAwwLdGVhbTc0OC1uZXQwHhcNMjIwNTE5MDAwMzA2WhcNMjUwNTAz
MDAwMzA2WjAZMRcwFQYDVQQDDA50ZWFtNzQ4LWNsaWVudDCCASIwDQYJKoZIhvcN
AQEBBQADggEPADCCAQoCggEBAMCMaC1u/M111fwzQHmtatp+QZ4l3919BEbpwYOK
QOy5TN8aasrVWiBtBek2IoInjwIeJIK4A9EdldHBZACkvo38cXNbx1INBIKupPw8
/0621Y9WQGiknKVPu6HkZ5yhXZKq6v6LNG9bSGnpV1TVVAsFN2TuB/RSye/+shHR
H3Tq7EFPW5VlHPq2xZzNxo5EpZ703YL0aIwGFBW30O15XCg2fuulGE1+ht1Hvthe
0k9kyLOYVLZSJnzHXEvT43bJdOElKS5gFaZfGzeBQKDoeRoQ7mHKohyijgLFlz1l
J8NCldDvUud1CMllKlMzw6TBFOgKvLZi0CQ/wx2fOaAbO2MCAwEAAaOBojCBnzAJ
BgNVHRMEAjAAMB0GA1UdDgQWBBQWs63hK6jwpmLhaFnnwtiM1slSqDBRBgNVHSME
SjBIgBT1/UA+ylSR5LbpS93CQ7scPbHDBKEapBgwFjEUMBIGA1UEAwwLdGVhbTc0
OC1uZXSCFExMF5GjhDZwV2rcXB7yXUz5X04gMBMGA1UdJQQMMAoGCCsGAQUFBwMC
MAsGA1UdDwQEAwIHgDANBgkqhkiG9w0BAQsFAAOCAQEADXJQxz8XiACuFA/gl0zi
BIUt3QGB0bLLSKmFqVXzfvqB5UOhiSbtMEVslwYLbmxEiuz0P/gRDx9gOEE3KW5L
GZd782jvsugpR7rA36v/46rZoPW9iCQphzuaHBXryee3cLwNx9HSCSBoKEBQ9n1U
KZYarxoNQ7hxUoyWVej+wehC7G+jaq2yRn7WdfcAMXDjE7ZjSSFrea9EAdNvJmY9
Uge3UILkCNWXurJg0B7FOLolG+zFDmgZAr6RVqYw505hwoDbXD+waPEeI9Bmlvqh
pg1mn64lHFE1dbimArO9g6tV/cDGcNasN0PMQR1YRReCa7klRFrY935pFKvEyLA4
cA==
-----END CERTIFICATE-----
