Certificate:
    Data:
        Version: 3 (0x2)
        Serial Number:
            e1:2d:13:a5:84:71:d4:d3:aa:3f:6a:10:13:bf:bd:7d
        Signature Algorithm: sha256WithRSAEncryption
        Issuer: CN=team360-net
        Validity
            Not Before: May 18 20:41:39 2022 GMT
            Not After : May  2 20:41:39 2025 GMT
        Subject: CN=team360-server
        Subject Public Key Info:
            Public Key Algorithm: rsaEncryption
                RSA Public-Key: (2048 bit)
                Modulus:
                    00:cb:ba:e8:f5:8a:79:9b:d2:2d:c9:02:38:e4:46:
                    f7:82:0c:ec:dd:9c:45:a9:a7:97:65:f4:46:91:26:
                    d8:51:6a:7d:da:a0:17:ca:5d:00:1e:ec:26:87:ae:
                    d6:40:be:3b:e1:c3:80:9b:0d:19:e8:6e:3b:d4:b7:
                    65:9e:65:b3:ed:a1:a4:f4:4b:07:77:2e:ba:ae:67:
                    48:fc:2f:ab:05:fe:e7:21:01:e5:b0:3f:a7:d2:43:
                    4c:b2:cd:75:77:ae:76:7e:32:e1:30:46:d5:03:11:
                    e9:2c:08:a6:02:04:58:33:ee:b0:ef:ea:8e:14:1b:
                    7a:13:db:17:a4:9f:26:97:d2:6c:7a:4f:79:a1:06:
                    05:36:6b:ff:46:2c:ee:2b:02:5f:be:17:29:21:6b:
                    5c:4d:d4:f3:1a:c9:40:a8:1d:b3:ef:85:8c:42:92:
                    68:5b:95:23:ab:8e:6b:6e:07:0a:65:4b:b7:3a:b1:
                    1b:3e:b8:46:c2:f8:2f:f2:c8:21:0f:f0:22:a9:65:
                    57:11:e5:c9:b9:43:c5:57:1a:17:22:c9:55:76:b9:
                    f8:6f:31:84:50:fa:1b:8f:aa:ef:ba:32:81:dc:fd:
                    e1:40:7f:47:f1:b6:9a:9a:dc:3b:ac:1f:27:e3:4a:
                    43:51:f6:23:04:3e:f2:01:4c:c2:e1:bb:7d:d8:48:
                    f4:73
                Exponent: 65537 (0x10001)
        X509v3 extensions:
            X509v3 Basic Constraints: 
                CA:FALSE
            X509v3 Subject Key Identifier: 
                4D:11:E6:E9:E4:48:60:18:8D:09:44:95:9C:3A:23:0B:BB:41:11:7F
            X509v3 Authority Key Identifier: 
                keyid:A3:1A:E9:E6:C7:94:A4:0F:75:14:48:F1:43:E7:F1:22:27:AA:3B:BA
                DirName:/CN=team360-net
                serial:71:52:D9:BE:65:A4:4D:B8:0A:2F:91:B5:27:E1:5F:D3:E7:84:CC:78

            X509v3 Extended Key Usage: 
                TLS Web Server Authentication
            X509v3 Key Usage: 
                Digital Signature, Key Encipherment
            X509v3 Subject Alternative Name: 
                DNS:team360-server
    Signature Algorithm: sha256WithRSAEncryption
         31:67:43:73:20:40:f6:6c:f5:0e:8c:66:02:57:f8:e1:51:53:
         2f:af:89:c9:1d:3d:81:3c:94:c6:23:c4:84:21:9b:bd:3d:95:
         fe:6c:4c:46:cd:f9:42:8b:80:38:72:f0:fe:2d:17:30:c5:b1:
         fd:9b:9f:45:f0:0e:fd:14:5a:0f:ae:b0:d1:8f:48:db:66:bb:
         ef:7e:38:13:29:8d:68:cf:d9:75:55:3b:e7:fa:ee:be:41:03:
         a2:85:56:98:82:45:ae:1c:8c:11:c5:62:30:0a:a6:87:41:6a:
         44:23:c9:21:e7:18:02:17:7d:44:fc:59:c6:40:e6:a6:05:4c:
         1a:f1:18:7c:8d:37:0f:1b:8a:c8:0b:94:20:90:99:bb:5b:81:
         28:a2:89:c5:41:6a:50:9f:75:11:b2:0f:58:c7:df:f6:c5:db:
         6a:a2:ab:ad:1a:de:09:d7:c5:b4:6f:93:d3:51:4c:c7:e0:be:
         dd:d4:96:39:29:55:35:22:60:28:94:a5:7f:05:2d:fe:3e:ee:
         bd:77:ac:b9:e1:4d:b0:0a:22:0f:48:fb:ef:24:b8:cf:a0:a6:
         d1:0e:0c:96:c6:f5:e5:28:56:3b:36:4d:cc:b6:8e:98:8f:e8:
         84:29:91:9f:6b:85:6d:f0:af:62:5f:15:09:a8:b1:e4:47:46:
         12:8c:df:bb
-----BEGIN CERTIFICATE-----
MIIDeDCCAmCgAwIBAgIRAOEtE6WEcdTTqj9qEBO/vX0wDQYJKoZIhvcNAQELBQAw
FjEUMBIGA1UEAwwLdGVhbTM2MC1uZXQwHhcNMjIwNTE4MjA0MTM5WhcNMjUwNTAy
MjA0MTM5WjAZMRcwFQYDVQQDDA50ZWFtMzYwLXNlcnZlcjCCASIwDQYJKoZIhvcN
AQEBBQADggEPADCCAQoCggEBAMu66PWKeZvSLckCOORG94IM7N2cRamnl2X0RpEm
2FFqfdqgF8pdAB7sJoeu1kC+O+HDgJsNGehuO9S3ZZ5ls+2hpPRLB3cuuq5nSPwv
qwX+5yEB5bA/p9JDTLLNdXeudn4y4TBG1QMR6SwIpgIEWDPusO/qjhQbehPbF6Sf
JpfSbHpPeaEGBTZr/0Ys7isCX74XKSFrXE3U8xrJQKgds++FjEKSaFuVI6uOa24H
CmVLtzqxGz64RsL4L/LIIQ/wIqllVxHlyblDxVcaFyLJVXa5+G8xhFD6G4+q77oy
gdz94UB/R/G2mprcO6wfJ+NKQ1H2IwQ+8gFMwuG7fdhI9HMCAwEAAaOBvTCBujAJ
BgNVHRMEAjAAMB0GA1UdDgQWBBRNEebp5EhgGI0JRJWcOiMLu0ERfzBRBgNVHSME
SjBIgBSjGunmx5SkD3UUSPFD5/EiJ6o7uqEapBgwFjEUMBIGA1UEAwwLdGVhbTM2
MC1uZXSCFHFS2b5lpE24Ci+RtSfhX9PnhMx4MBMGA1UdJQQMMAoGCCsGAQUFBwMB
MAsGA1UdDwQEAwIFoDAZBgNVHREEEjAQgg50ZWFtMzYwLXNlcnZlcjANBgkqhkiG
9w0BAQsFAAOCAQEAMWdDcyBA9mz1DoxmAlf44VFTL6+JyR09gTyUxiPEhCGbvT2V
/mxMRs35QouAOHLw/i0XMMWx/ZufRfAO/RRaD66w0Y9I22a77344EymNaM/ZdVU7
5/ruvkEDooVWmIJFrhyMEcViMAqmh0FqRCPJIecYAhd9RPxZxkDmpgVMGvEYfI03
DxuKyAuUIJCZu1uBKKKJxUFqUJ91EbIPWMff9sXbaqKrrRreCdfFtG+T01FMx+C+
3dSWOSlVNSJgKJSlfwUt/j7uvXesueFNsAoiD0j77yS4z6Cm0Q4Mlsb15ShWOzZN
zLaOmI/ohCmRn2uFbfCvYl8VCaix5EdGEozfuw==
-----END CERTIFICATE-----
