Certificate:
    Data:
        Version: 3 (0x2)
        Serial Number:
            43:d3:cd:7a:2e:d1:9e:3c:c4:4a:21:be:69:12:88:94
        Signature Algorithm: sha256WithRSAEncryption
        Issuer: CN=team503-net
        Validity
            Not Before: May 18 21:53:43 2022 GMT
            Not After : May  2 21:53:43 2025 GMT
        Subject: CN=team503-client
        Subject Public Key Info:
            Public Key Algorithm: rsaEncryption
                RSA Public-Key: (2048 bit)
                Modulus:
                    00:b5:02:87:be:1b:68:b2:92:1a:d1:53:ea:92:92:
                    45:11:38:c4:5d:2f:94:e4:46:0e:65:73:23:4d:c8:
                    9d:11:30:50:f8:11:ac:7a:2b:61:47:f1:67:51:20:
                    91:93:e0:e9:39:33:98:b4:66:a7:18:c3:75:7f:54:
                    bc:bb:a8:41:5c:e1:f6:63:3f:1b:f8:b3:26:9d:d1:
                    ef:f4:56:73:ae:31:4c:48:b5:4c:bb:59:84:f6:e3:
                    a1:81:3e:b5:75:f9:59:30:99:19:49:2d:28:cd:9e:
                    fe:e7:70:5c:05:0d:84:c2:d5:5b:1c:f0:25:34:04:
                    fc:55:5f:0c:62:b1:03:0d:28:f5:08:0a:58:ec:dc:
                    a6:2f:96:1e:78:e4:b5:51:36:d8:00:45:50:12:8c:
                    70:91:b4:da:9a:b3:91:64:b9:c9:9d:d9:26:1a:18:
                    c3:94:4b:58:b5:bb:b6:77:36:bb:4d:df:f2:49:4c:
                    6a:4c:f5:c6:cc:61:a7:b9:2a:51:78:37:5a:43:34:
                    af:b5:fa:8c:b2:01:3e:c8:b2:81:ae:36:6d:08:1a:
                    bd:46:c7:1b:54:66:2d:ee:20:79:19:99:63:6f:4c:
                    86:4e:f3:20:ec:35:fa:30:26:9e:48:3f:65:17:09:
                    f0:c1:13:0e:df:22:19:ea:5d:d3:65:69:04:cf:45:
                    f0:3f
                Exponent: 65537 (0x10001)
        X509v3 extensions:
            X509v3 Basic Constraints: 
                CA:FALSE
            X509v3 Subject Key Identifier: 
                EC:40:AD:26:22:21:FF:A1:C9:F0:71:EF:7F:88:BE:BB:78:EA:A0:1F
            X509v3 Authority Key Identifier: 
                keyid:A4:2E:D1:71:11:BD:79:59:B9:7F:C6:76:ED:8A:5E:B8:35:20:7D:64
                DirName:/CN=team503-net
                serial:37:A3:58:B5:1B:E3:8C:6B:89:EE:86:24:4C:85:56:B4:7E:80:CF:98

            X509v3 Extended Key Usage: 
                TLS Web Client Authentication
            X509v3 Key Usage: 
                Digital Signature
    Signature Algorithm: sha256WithRSAEncryption
         0e:69:9f:26:53:ea:c2:e7:17:20:21:a5:59:7f:1d:04:41:7e:
         95:8f:20:9f:4a:8a:d4:9e:0a:5f:12:d2:f3:d4:0c:a6:2e:1a:
         22:73:af:be:72:c8:92:91:e9:a3:ad:cf:72:f6:95:26:01:9a:
         d3:48:f2:06:1d:55:d3:2b:0e:e2:a5:2f:48:26:eb:c4:92:8e:
         c3:19:07:06:f0:6d:c6:cd:f7:14:05:80:20:9d:19:49:94:a0:
         e0:70:91:8b:ea:70:50:c2:2c:8e:f4:38:8b:33:a3:13:7f:54:
         e5:db:00:6f:00:65:81:5f:79:ea:0a:fc:c8:f6:ef:df:9b:1f:
         f7:1e:e6:6e:94:9e:be:f8:ac:b7:d6:f6:41:64:f8:6c:24:cb:
         02:7f:0c:da:6e:7c:be:3b:b3:68:fc:2d:4c:5e:be:9e:c7:fa:
         e6:65:6c:ce:4f:c2:8c:79:6d:1f:03:b2:1f:59:91:20:fe:68:
         7a:18:37:4f:7f:45:44:3b:c9:53:2f:4e:32:ad:bf:12:fc:94:
         8d:82:be:1d:d9:54:2d:1f:a1:67:dc:fe:01:fd:cd:75:29:42:
         17:28:a8:ff:2e:9d:cc:89:e3:90:d5:2c:da:12:ec:be:14:f4:
         cb:46:6b:0a:38:7b:0b:9f:8b:fe:53:f7:75:94:9d:2d:d6:7a:
         d7:97:2b:dd
-----BEGIN CERTIFICATE-----
MIIDXDCCAkSgAwIBAgIQQ9PNei7RnjzESiG+aRKIlDANBgkqhkiG9w0BAQsFADAW
MRQwEgYDVQQDDAt0ZWFtNTAzLW5ldDAeFw0yMjA1MTgyMTUzNDNaFw0yNTA1MDIy
MTUzNDNaMBkxFzAVBgNVBAMMDnRlYW01MDMtY2xpZW50MIIBIjANBgkqhkiG9w0B
AQEFAAOCAQ8AMIIBCgKCAQEAtQKHvhtospIa0VPqkpJFETjEXS+U5EYOZXMjTcid
ETBQ+BGseithR/FnUSCRk+DpOTOYtGanGMN1f1S8u6hBXOH2Yz8b+LMmndHv9FZz
rjFMSLVMu1mE9uOhgT61dflZMJkZSS0ozZ7+53BcBQ2EwtVbHPAlNAT8VV8MYrED
DSj1CApY7NymL5YeeOS1UTbYAEVQEoxwkbTamrORZLnJndkmGhjDlEtYtbu2dza7
Td/ySUxqTPXGzGGnuSpReDdaQzSvtfqMsgE+yLKBrjZtCBq9RscbVGYt7iB5GZlj
b0yGTvMg7DX6MCaeSD9lFwnwwRMO3yIZ6l3TZWkEz0XwPwIDAQABo4GiMIGfMAkG
A1UdEwQCMAAwHQYDVR0OBBYEFOxArSYiIf+hyfBx73+Ivrt46qAfMFEGA1UdIwRK
MEiAFKQu0XERvXlZuX/Gdu2KXrg1IH1koRqkGDAWMRQwEgYDVQQDDAt0ZWFtNTAz
LW5ldIIUN6NYtRvjjGuJ7oYkTIVWtH6Az5gwEwYDVR0lBAwwCgYIKwYBBQUHAwIw
CwYDVR0PBAQDAgeAMA0GCSqGSIb3DQEBCwUAA4IBAQAOaZ8mU+rC5xcgIaVZfx0E
QX6VjyCfSorUngpfEtLz1AymLhoic6++csiSkemjrc9y9pUmAZrTSPIGHVXTKw7i
pS9IJuvEko7DGQcG8G3GzfcUBYAgnRlJlKDgcJGL6nBQwiyO9DiLM6MTf1Tl2wBv
AGWBX3nqCvzI9u/fmx/3HuZulJ6++Ky31vZBZPhsJMsCfwzabny+O7No/C1MXr6e
x/rmZWzOT8KMeW0fA7IfWZEg/mh6GDdPf0VEO8lTL04yrb8S/JSNgr4d2VQtH6Fn
3P4B/c11KUIXKKj/Lp3MieOQ1SzaEuy+FPTLRmsKOHsLn4v+U/d1lJ0t1nrXlyvd
-----END CERTIFICATE-----
