Certificate:
    Data:
        Version: 3 (0x2)
        Serial Number:
            3e:7c:f0:b6:15:95:23:6b:70:bc:a9:aa:bf:9a:29:66
        Signature Algorithm: sha256WithRSAEncryption
        Issuer: CN=team305-net
        Validity
            Not Before: May 18 20:00:21 2022 GMT
            Not After : May  2 20:00:21 2025 GMT
        Subject: CN=team305-client
        Subject Public Key Info:
            Public Key Algorithm: rsaEncryption
                RSA Public-Key: (2048 bit)
                Modulus:
                    00:c7:df:5c:82:c6:b1:bf:7e:8c:b7:d7:4a:6a:86:
                    ed:b7:e2:ff:f7:00:e2:fc:6a:c3:b0:2d:ea:48:bc:
                    98:b6:2f:e8:92:59:c9:11:2f:7c:f8:e2:cd:64:de:
                    4b:a6:3f:30:e7:c2:d5:16:9b:79:78:9c:f5:29:2f:
                    18:5a:3b:ec:ff:40:b7:56:56:0d:14:21:62:91:7f:
                    04:fe:aa:62:31:8f:83:ee:42:ba:a4:99:2c:5f:02:
                    cb:ee:83:c4:d1:ce:5e:ee:5a:d0:3a:cf:ca:f3:c8:
                    80:0d:68:0b:9a:14:eb:57:94:96:17:3f:d7:69:aa:
                    7c:77:ee:c4:1e:e2:27:7e:16:90:a5:51:09:b0:7a:
                    9f:3c:f4:6c:bc:92:a6:54:08:db:3c:85:33:ea:4c:
                    7d:3e:88:d4:b8:6f:c3:92:82:a3:a2:0f:7a:93:2c:
                    f8:23:a6:da:c5:e8:fc:cb:ab:7d:5a:c1:f2:10:bb:
                    19:82:51:d8:0a:cd:7e:1f:28:6b:8a:b9:8e:ef:00:
                    1f:da:f3:8b:3a:5f:2b:4e:99:d0:fc:ef:dc:8d:d2:
                    0c:ab:41:73:c5:44:42:dd:72:75:3b:dd:28:bb:8c:
                    0d:88:2c:e2:0d:b5:38:73:35:8c:65:90:a1:b8:56:
                    84:ea:07:61:38:9d:93:4e:e8:79:ae:fc:e0:ad:8b:
                    28:09
                Exponent: 65537 (0x10001)
        X509v3 extensions:
            X509v3 Basic Constraints: 
                CA:FALSE
            X509v3 Subject Key Identifier: 
                F5:9E:EB:06:49:05:52:22:69:E2:B1:14:8E:0E:C5:EE:5B:5E:C8:0F
            X509v3 Authority Key Identifier: 
                keyid:37:CA:F7:14:CA:E3:07:50:F5:31:BF:E9:4E:03:D1:53:E8:82:86:D3
                DirName:/CN=team305-net
                serial:4A:BF:B4:F0:ED:02:CD:32:A6:22:07:B3:4C:63:73:6D:9E:1C:C9:4E

            X509v3 Extended Key Usage: 
                TLS Web Client Authentication
            X509v3 Key Usage: 
                Digital Signature
    Signature Algorithm: sha256WithRSAEncryption
         81:0a:01:94:14:29:b7:49:a9:2b:40:f4:53:5c:da:04:9f:73:
         df:f4:5f:69:ce:fc:63:b5:7c:7f:53:3e:47:b9:bd:d8:ef:51:
         fa:ff:20:1f:77:88:7b:f8:04:1d:f7:ad:32:d0:28:87:83:52:
         14:5f:c7:4c:d6:c3:ad:41:a2:18:0e:c9:6e:f5:a5:a3:1e:f5:
         18:26:fd:43:78:63:9e:24:fd:e9:0e:c4:20:e0:4f:b2:4c:72:
         7c:82:ec:e0:23:14:c2:ac:8b:cb:51:d5:7a:f5:aa:1f:cc:1c:
         ba:a1:22:0d:0f:79:cf:d6:13:37:dc:c9:1c:ae:5d:2c:5c:0e:
         2b:92:a8:ca:6f:2f:df:44:bc:8f:06:e5:03:68:89:7f:9f:cf:
         40:68:55:f6:b3:5a:3d:46:7c:e8:9c:b8:0b:ac:72:b6:a7:5d:
         2c:dc:99:55:be:ae:13:45:3d:4b:79:ab:40:eb:b8:25:31:59:
         10:aa:d7:fe:77:5a:ae:b4:7f:db:5c:15:8d:6e:a6:8c:5c:b0:
         d4:89:07:9e:49:9b:34:56:80:8d:8b:24:92:9e:ce:be:53:10:
         3f:fa:01:ec:e1:c7:82:8b:24:46:de:7c:ab:ac:fb:72:ae:53:
         86:72:8e:4f:83:cd:65:b9:39:b9:44:b5:3b:cd:91:68:15:10:
         00:6e:13:9e
-----BEGIN CERTIFICATE-----
MIIDXDCCAkSgAwIBAgIQPnzwthWVI2twvKmqv5opZjANBgkqhkiG9w0BAQsFADAW
MRQwEgYDVQQDDAt0ZWFtMzA1LW5ldDAeFw0yMjA1MTgyMDAwMjFaFw0yNTA1MDIy
MDAwMjFaMBkxFzAVBgNVBAMMDnRlYW0zMDUtY2xpZW50MIIBIjANBgkqhkiG9w0B
AQEFAAOCAQ8AMIIBCgKCAQEAx99cgsaxv36Mt9dKaobtt+L/9wDi/GrDsC3qSLyY
ti/oklnJES98+OLNZN5Lpj8w58LVFpt5eJz1KS8YWjvs/0C3VlYNFCFikX8E/qpi
MY+D7kK6pJksXwLL7oPE0c5e7lrQOs/K88iADWgLmhTrV5SWFz/Xaap8d+7EHuIn
fhaQpVEJsHqfPPRsvJKmVAjbPIUz6kx9PojUuG/DkoKjog96kyz4I6baxej8y6t9
WsHyELsZglHYCs1+HyhrirmO7wAf2vOLOl8rTpnQ/O/cjdIMq0FzxURC3XJ1O90o
u4wNiCziDbU4czWMZZChuFaE6gdhOJ2TTuh5rvzgrYsoCQIDAQABo4GiMIGfMAkG
A1UdEwQCMAAwHQYDVR0OBBYEFPWe6wZJBVIiaeKxFI4Oxe5bXsgPMFEGA1UdIwRK
MEiAFDfK9xTK4wdQ9TG/6U4D0VPogobToRqkGDAWMRQwEgYDVQQDDAt0ZWFtMzA1
LW5ldIIUSr+08O0CzTKmIgezTGNzbZ4cyU4wEwYDVR0lBAwwCgYIKwYBBQUHAwIw
CwYDVR0PBAQDAgeAMA0GCSqGSIb3DQEBCwUAA4IBAQCBCgGUFCm3SakrQPRTXNoE
n3Pf9F9pzvxjtXx/Uz5Hub3Y71H6/yAfd4h7+AQd960y0CiHg1IUX8dM1sOtQaIY
Dslu9aWjHvUYJv1DeGOeJP3pDsQg4E+yTHJ8guzgIxTCrIvLUdV69aofzBy6oSIN
D3nP1hM33Mkcrl0sXA4rkqjKby/fRLyPBuUDaIl/n89AaFX2s1o9RnzonLgLrHK2
p10s3JlVvq4TRT1LeatA67glMVkQqtf+d1qutH/bXBWNbqaMXLDUiQeeSZs0VoCN
iySSns6+UxA/+gHs4ceCiyRG3nyrrPtyrlOGco5Pg81luTm5RLU7zZFoFRAAbhOe
-----END CERTIFICATE-----
