Certificate:
    Data:
        Version: 3 (0x2)
        Serial Number:
            c9:c9:51:31:90:77:5d:bf:20:85:b7:8b:60:60:7a:01
        Signature Algorithm: sha256WithRSAEncryption
        Issuer: CN=team281-net
        Validity
            Not Before: May 18 19:47:52 2022 GMT
            Not After : May  2 19:47:52 2025 GMT
        Subject: CN=team281-client
        Subject Public Key Info:
            Public Key Algorithm: rsaEncryption
                RSA Public-Key: (2048 bit)
                Modulus:
                    00:cc:a4:22:91:5b:d8:79:3b:29:7a:be:33:b3:de:
                    0f:fb:cd:5a:c5:a3:35:c0:da:56:b0:1e:c4:bd:b0:
                    b9:4a:90:d7:2f:b1:af:12:5c:a5:52:34:ea:34:3c:
                    39:8f:c9:38:a6:f6:2d:1d:f5:76:ee:88:e2:44:55:
                    0b:01:e6:2a:05:d0:94:d2:1d:9b:ae:8a:73:34:6c:
                    0a:74:f5:0f:c4:f7:79:6b:22:19:15:16:e0:d4:45:
                    6a:5c:18:85:b7:ed:8a:36:10:e7:d4:6f:f9:71:13:
                    aa:b4:db:45:22:7f:21:be:b7:f9:31:e9:8e:b0:5e:
                    89:18:14:9a:82:4d:b0:40:c8:18:11:b7:0e:67:95:
                    11:28:51:c4:a0:70:75:53:bd:1d:c3:e9:15:fc:bb:
                    aa:5a:7f:71:85:81:3c:73:b4:74:07:6e:46:4c:cb:
                    fe:bb:94:e8:13:9e:77:3a:35:bc:88:9c:76:f2:9d:
                    2c:02:06:c5:04:4a:5a:6a:45:7f:0a:57:d7:30:a2:
                    ae:d3:93:3d:42:a0:b7:cd:e9:d1:e2:f8:06:ac:a5:
                    2a:d2:7b:ab:e8:50:db:3b:26:a1:a6:19:d1:dd:e6:
                    2f:82:1c:e3:6e:8f:37:0f:45:bc:4a:d7:f0:6b:d6:
                    2d:15:c1:30:02:3e:a1:f6:d5:fd:39:93:d9:d4:75:
                    5a:b5
                Exponent: 65537 (0x10001)
        X509v3 extensions:
            X509v3 Basic Constraints: 
                CA:FALSE
            X509v3 Subject Key Identifier: 
                6C:AA:A7:26:A8:A0:33:6E:AA:09:0F:6C:97:D6:58:48:2A:74:03:A7
            X509v3 Authority Key Identifier: 
                keyid:ED:6C:AB:66:10:1D:5F:28:3F:DD:28:17:E2:DE:AC:F8:E1:AF:C9:FE
                DirName:/CN=team281-net
                serial:5E:35:4C:29:1A:FA:88:99:A7:AF:C8:46:D6:4E:28:2E:F0:E9:5E:58

            X509v3 Extended Key Usage: 
                TLS Web Client Authentication
            X509v3 Key Usage: 
                Digital Signature
    Signature Algorithm: sha256WithRSAEncryption
         2d:b9:c3:27:8a:e3:bc:7c:c0:11:f5:d1:6f:e6:ae:b6:55:7e:
         cd:75:e3:3f:25:28:a6:79:ce:07:8a:ae:9a:43:19:04:fb:eb:
         06:80:2f:d1:6a:33:90:bf:8c:c0:b4:62:b4:b7:6b:41:25:fa:
         d5:17:f6:b1:54:dc:b9:34:ad:76:d5:dd:90:c2:95:15:c7:de:
         dc:77:28:61:e9:0e:af:47:8e:15:f7:8b:b5:8e:e3:90:84:39:
         8c:7d:d7:b1:9d:80:7b:7e:cd:e5:f3:e9:d1:65:42:c7:bf:85:
         38:0a:81:b3:11:1d:cc:b6:28:8f:4d:03:a6:fe:55:84:a9:52:
         33:f5:35:8a:79:8c:97:c8:37:20:dd:98:5d:95:0b:07:df:c7:
         e8:aa:65:05:d3:5d:d6:c6:ea:da:bf:f5:fc:3d:ac:e8:1d:c4:
         2d:19:5e:a9:ec:8e:e9:1e:8e:75:f6:64:7f:a5:2a:72:db:14:
         f1:f1:ea:80:85:b3:a5:56:5f:08:1b:54:dd:e5:02:73:6d:05:
         03:d7:87:6b:d4:16:30:6f:66:5d:3c:27:0c:b6:5b:48:82:bc:
         f0:f7:e2:1c:e9:45:6c:47:e7:61:ce:f7:13:e2:f9:f1:76:49:
         c3:40:08:a4:6f:00:4e:ee:2b:c5:9e:d6:8e:c7:88:81:0b:5e:
         03:d9:8b:eb
-----BEGIN CERTIFICATE-----
MIIDXTCCAkWgAwIBAgIRAMnJUTGQd12/IIW3i2BgegEwDQYJKoZIhvcNAQELBQAw
FjEUMBIGA1UEAwwLdGVhbTI4MS1uZXQwHhcNMjIwNTE4MTk0NzUyWhcNMjUwNTAy
MTk0NzUyWjAZMRcwFQYDVQQDDA50ZWFtMjgxLWNsaWVudDCCASIwDQYJKoZIhvcN
AQEBBQADggEPADCCAQoCggEBAMykIpFb2Hk7KXq+M7PeD/vNWsWjNcDaVrAexL2w
uUqQ1y+xrxJcpVI06jQ8OY/JOKb2LR31du6I4kRVCwHmKgXQlNIdm66KczRsCnT1
D8T3eWsiGRUW4NRFalwYhbftijYQ59Rv+XETqrTbRSJ/Ib63+THpjrBeiRgUmoJN
sEDIGBG3DmeVEShRxKBwdVO9HcPpFfy7qlp/cYWBPHO0dAduRkzL/ruU6BOedzo1
vIicdvKdLAIGxQRKWmpFfwpX1zCirtOTPUKgt83p0eL4BqylKtJ7q+hQ2zsmoaYZ
0d3mL4Ic426PNw9FvErX8GvWLRXBMAI+ofbV/TmT2dR1WrUCAwEAAaOBojCBnzAJ
BgNVHRMEAjAAMB0GA1UdDgQWBBRsqqcmqKAzbqoJD2yX1lhIKnQDpzBRBgNVHSME
SjBIgBTtbKtmEB1fKD/dKBfi3qz44a/J/qEapBgwFjEUMBIGA1UEAwwLdGVhbTI4
MS1uZXSCFF41TCka+oiZp6/IRtZOKC7w6V5YMBMGA1UdJQQMMAoGCCsGAQUFBwMC
MAsGA1UdDwQEAwIHgDANBgkqhkiG9w0BAQsFAAOCAQEALbnDJ4rjvHzAEfXRb+au
tlV+zXXjPyUopnnOB4qumkMZBPvrBoAv0WozkL+MwLRitLdrQSX61Rf2sVTcuTSt
dtXdkMKVFcfe3HcoYekOr0eOFfeLtY7jkIQ5jH3XsZ2Ae37N5fPp0WVCx7+FOAqB
sxEdzLYoj00Dpv5VhKlSM/U1inmMl8g3IN2YXZULB9/H6KplBdNd1sbq2r/1/D2s
6B3ELRleqeyO6R6OdfZkf6UqctsU8fHqgIWzpVZfCBtU3eUCc20FA9eHa9QWMG9m
XTwnDLZbSIK88PfiHOlFbEfnYc73E+L58XZJw0AIpG8ATu4rxZ7WjseIgQteA9mL
6w==
-----END CERTIFICATE-----
