Certificate:
    Data:
        Version: 3 (0x2)
        Serial Number:
            4b:ba:b4:34:1e:24:c1:75:32:53:cb:f0:3c:a1:a0:a0
        Signature Algorithm: sha256WithRSAEncryption
        Issuer: CN=team492-net
        Validity
            Not Before: May 18 21:37:56 2022 GMT
            Not After : May  2 21:37:56 2025 GMT
        Subject: CN=team492-server
        Subject Public Key Info:
            Public Key Algorithm: rsaEncryption
                RSA Public-Key: (2048 bit)
                Modulus:
                    00:b5:fc:1e:7f:fd:4a:0c:e1:3a:d0:76:a0:20:41:
                    77:c9:62:99:3c:56:ef:34:e1:e7:e9:8c:59:6e:3e:
                    ee:7c:d3:b3:96:d6:bb:07:a7:9c:4a:5f:ee:a4:c9:
                    dd:58:92:db:10:7a:79:c3:b6:85:26:ab:67:0c:bf:
                    2e:f4:9b:c0:6a:9d:bf:48:c2:36:96:94:9c:53:61:
                    1c:ae:ad:27:a9:08:a3:3e:80:57:cd:08:88:03:32:
                    d2:d6:8d:ca:69:ee:b2:08:df:80:b4:fa:fe:e1:98:
                    60:87:8a:77:ad:52:30:74:f3:2b:26:99:cf:c2:b7:
                    9d:e3:26:bf:24:7f:b0:9d:f1:4e:ee:d5:59:ad:8a:
                    ab:20:ff:38:53:6a:5d:4c:8e:db:9c:7f:38:fb:01:
                    fb:b8:fb:23:4c:c3:54:e4:91:29:c6:e2:89:8b:a7:
                    ca:6a:a9:2e:33:a1:82:0b:88:7c:bc:01:ce:52:54:
                    6f:88:b7:e7:f2:f8:91:1c:fc:ea:cf:b9:63:4e:2a:
                    06:67:23:c6:ae:59:5b:d9:12:70:17:15:94:93:a2:
                    9d:73:49:e1:00:b3:7d:a8:ba:06:eb:1c:00:62:f2:
                    00:15:06:c3:20:c7:a0:87:ef:f4:83:19:4e:16:9d:
                    19:bc:84:66:55:04:08:51:54:cd:7b:f2:98:0b:d6:
                    3e:75
                Exponent: 65537 (0x10001)
        X509v3 extensions:
            X509v3 Basic Constraints: 
                CA:FALSE
            X509v3 Subject Key Identifier: 
                22:2D:98:C9:01:5D:A3:8F:7B:A0:F5:8F:56:6A:B3:76:66:30:F8:AC
            X509v3 Authority Key Identifier: 
                keyid:2E:46:BF:0B:91:8C:F3:57:C9:67:8E:0F:36:09:36:92:9D:BD:C0:50
                DirName:/CN=team492-net
                serial:80:60:2F:C9:F0:86:C7:5A:44:6E:2F:2D:41:81:E6:34:A1:77:6F

            X509v3 Extended Key Usage: 
                TLS Web Server Authentication
            X509v3 Key Usage: 
                Digital Signature, Key Encipherment
            X509v3 Subject Alternative Name: 
                DNS:team492-server
    Signature Algorithm: sha256WithRSAEncryption
         32:01:6f:1a:1a:e7:83:c9:ec:03:21:03:15:c1:5b:e4:82:e0:
         10:83:bc:9e:e7:0d:8d:02:6a:29:81:c8:69:38:7f:50:88:58:
         c1:a2:e5:1a:f7:cf:ed:a2:88:68:56:5b:b4:f9:35:fe:e1:9c:
         e4:23:b1:4f:21:67:6d:f1:07:15:d0:ca:0d:22:31:ea:e4:27:
         03:87:cf:42:37:1f:1e:94:f6:f3:27:1b:ec:92:eb:19:09:c2:
         7c:01:b1:80:dd:bd:7c:e7:41:28:8c:e7:5f:1b:81:e2:74:42:
         b5:2f:c9:d1:48:90:28:a7:35:a5:c9:46:2f:bd:6f:9e:52:32:
         bf:9e:91:f6:5d:76:3f:1c:a2:1c:82:06:cb:eb:1f:b5:1e:64:
         56:a3:64:7b:93:85:ce:08:61:6a:0e:75:e1:8c:1c:3c:ce:54:
         6d:90:dd:33:a4:e5:1b:a3:b7:cc:75:8a:ce:72:e7:42:fb:94:
         51:a6:a6:04:ed:bf:96:3c:07:3e:b4:e9:2d:6f:10:1a:35:79:
         1f:00:b4:c6:77:33:09:ec:cb:12:2b:f7:fb:e4:9b:71:f6:9f:
         24:7e:ca:d4:27:17:aa:ca:46:22:23:db:87:8f:b6:48:0d:3e:
         99:23:4e:a9:46:a3:30:38:3b:c7:ac:60:86:7e:8b:68:ee:f7:
         22:1a:55:97
-----BEGIN CERTIFICATE-----
MIIDdzCCAl+gAwIBAgIQS7q0NB4kwXUyU8vwPKGgoDANBgkqhkiG9w0BAQsFADAW
MRQwEgYDVQQDDAt0ZWFtNDkyLW5ldDAeFw0yMjA1MTgyMTM3NTZaFw0yNTA1MDIy
MTM3NTZaMBkxFzAVBgNVBAMMDnRlYW00OTItc2VydmVyMIIBIjANBgkqhkiG9w0B
AQEFAAOCAQ8AMIIBCgKCAQEAtfwef/1KDOE60HagIEF3yWKZPFbvNOHn6YxZbj7u
fNOzlta7B6ecSl/upMndWJLbEHp5w7aFJqtnDL8u9JvAap2/SMI2lpScU2Ecrq0n
qQijPoBXzQiIAzLS1o3Kae6yCN+AtPr+4Zhgh4p3rVIwdPMrJpnPwred4ya/JH+w
nfFO7tVZrYqrIP84U2pdTI7bnH84+wH7uPsjTMNU5JEpxuKJi6fKaqkuM6GCC4h8
vAHOUlRviLfn8viRHPzqz7ljTioGZyPGrllb2RJwFxWUk6Kdc0nhALN9qLoG6xwA
YvIAFQbDIMegh+/0gxlOFp0ZvIRmVQQIUVTNe/KYC9Y+dQIDAQABo4G9MIG6MAkG
A1UdEwQCMAAwHQYDVR0OBBYEFCItmMkBXaOPe6D1j1Zqs3ZmMPisMFEGA1UdIwRK
MEiAFC5GvwuRjPNXyWeODzYJNpKdvcBQoRqkGDAWMRQwEgYDVQQDDAt0ZWFtNDky
LW5ldIIUAIBgL8nwhsdaRG4vLUGB5jShd28wEwYDVR0lBAwwCgYIKwYBBQUHAwEw
CwYDVR0PBAQDAgWgMBkGA1UdEQQSMBCCDnRlYW00OTItc2VydmVyMA0GCSqGSIb3
DQEBCwUAA4IBAQAyAW8aGueDyewDIQMVwVvkguAQg7ye5w2NAmopgchpOH9QiFjB
ouUa98/toohoVlu0+TX+4ZzkI7FPIWdt8QcV0MoNIjHq5CcDh89CNx8elPbzJxvs
kusZCcJ8AbGA3b1850EojOdfG4HidEK1L8nRSJAopzWlyUYvvW+eUjK/npH2XXY/
HKIcggbL6x+1HmRWo2R7k4XOCGFqDnXhjBw8zlRtkN0zpOUbo7fMdYrOcudC+5RR
pqYE7b+WPAc+tOktbxAaNXkfALTGdzMJ7MsSK/f75Jtx9p8kfsrUJxeqykYiI9uH
j7ZIDT6ZI06pRqMwODvHrGCGfoto7vciGlWX
-----END CERTIFICATE-----
