Certificate:
    Data:
        Version: 3 (0x2)
        Serial Number:
            b1:3d:c6:68:f7:51:26:1d:f6:c0:28:67:55:ee:87:17
        Signature Algorithm: sha256WithRSAEncryption
        Issuer: CN=team492-net
        Validity
            Not Before: May 18 21:37:55 2022 GMT
            Not After : May  2 21:37:55 2025 GMT
        Subject: CN=team492-client
        Subject Public Key Info:
            Public Key Algorithm: rsaEncryption
                RSA Public-Key: (2048 bit)
                Modulus:
                    00:da:a8:51:a7:e9:0f:fe:ea:0b:2a:ea:77:7c:87:
                    35:82:bc:90:1e:bc:56:7f:bb:7c:69:85:fc:0c:c4:
                    eb:f7:71:1c:70:ed:d6:46:79:89:05:fc:87:f0:62:
                    f8:77:45:84:83:4a:b4:8a:ca:cd:99:c5:f8:d8:df:
                    0e:4b:86:2e:9c:7a:92:4e:f8:a0:67:c5:b5:86:c6:
                    bd:82:34:fc:db:ff:42:4a:44:11:06:bb:6a:ca:27:
                    8a:74:03:04:51:1b:a2:06:5a:df:be:f8:bb:68:97:
                    06:bf:38:88:8c:55:47:d7:63:1a:60:3b:3e:66:6e:
                    9a:dc:9e:0c:c5:8f:a0:81:32:97:0f:15:1b:35:41:
                    94:cd:0d:16:39:0b:e4:da:51:16:91:b8:fd:eb:4f:
                    97:a3:5c:58:d8:ac:9b:56:ab:bb:60:db:4f:a2:f9:
                    b4:9d:49:1b:0c:28:cb:60:2d:76:0b:92:5e:88:9d:
                    cc:8f:e6:bb:b6:98:7e:68:73:c5:2b:c2:f3:b4:17:
                    51:64:c4:89:fb:c9:4e:ed:e9:ad:98:6c:ed:5f:29:
                    50:86:e5:82:07:92:51:07:4b:51:86:78:d0:ff:db:
                    97:99:3e:34:42:d2:94:75:a5:34:b2:f0:c2:c3:ba:
                    77:c5:77:65:f8:50:37:15:d0:2f:ee:f2:0b:aa:cd:
                    82:f3
                Exponent: 65537 (0x10001)
        X509v3 extensions:
            X509v3 Basic Constraints: 
                CA:FALSE
            X509v3 Subject Key Identifier: 
                1E:95:D2:C9:F7:28:87:42:7A:55:5C:69:0E:83:7A:3F:7A:1C:D2:C9
            X509v3 Authority Key Identifier: 
                keyid:2E:46:BF:0B:91:8C:F3:57:C9:67:8E:0F:36:09:36:92:9D:BD:C0:50
                DirName:/CN=team492-net
                serial:80:60:2F:C9:F0:86:C7:5A:44:6E:2F:2D:41:81:E6:34:A1:77:6F

            X509v3 Extended Key Usage: 
                TLS Web Client Authentication
            X509v3 Key Usage: 
                Digital Signature
    Signature Algorithm: sha256WithRSAEncryption
         84:c0:66:1e:bf:1e:c9:c4:f8:36:eb:4d:37:8a:33:dd:50:08:
         11:19:f7:8c:42:fd:b7:1d:56:1d:24:ed:c0:65:2f:9f:96:f2:
         21:cc:96:bd:db:55:c1:eb:9d:b2:c8:55:28:5c:7d:a2:e3:4c:
         64:7c:a9:33:2b:9a:91:e6:4c:f3:b5:52:e5:dc:eb:a6:d1:07:
         76:86:ec:dc:3c:9c:26:2b:dc:be:33:c4:fe:6a:2a:cb:60:82:
         a1:3c:ee:36:ef:cb:40:01:26:00:b1:08:2f:cb:6c:78:a5:46:
         40:7a:88:73:78:85:f6:76:80:82:84:67:64:cf:b4:1f:c2:19:
         4b:5b:f3:06:60:c3:f5:f0:0f:66:c0:ac:2a:58:ba:8e:d0:64:
         49:90:48:1d:6a:b9:41:2c:5a:0e:c9:4c:1b:01:77:bf:5f:14:
         11:de:1d:d4:ed:ef:13:22:99:5c:e7:f6:20:5f:15:3e:50:21:
         95:5e:b3:c1:48:15:f5:60:07:fd:39:cb:5d:ae:c4:d7:28:fa:
         df:04:a3:52:93:97:a0:30:e0:6a:d1:ef:bd:60:be:20:ba:7a:
         ee:e7:e5:13:10:01:4d:46:d1:72:ed:e5:de:f1:0c:a5:79:68:
         06:16:b8:de:e8:7a:16:19:72:b5:cf:40:c2:91:9b:05:3b:2a:
         05:9b:e3:3c
-----BEGIN CERTIFICATE-----
MIIDXTCCAkWgAwIBAgIRALE9xmj3USYd9sAoZ1XuhxcwDQYJKoZIhvcNAQELBQAw
FjEUMBIGA1UEAwwLdGVhbTQ5Mi1uZXQwHhcNMjIwNTE4MjEzNzU1WhcNMjUwNTAy
MjEzNzU1WjAZMRcwFQYDVQQDDA50ZWFtNDkyLWNsaWVudDCCASIwDQYJKoZIhvcN
AQEBBQADggEPADCCAQoCggEBANqoUafpD/7qCyrqd3yHNYK8kB68Vn+7fGmF/AzE
6/dxHHDt1kZ5iQX8h/Bi+HdFhINKtIrKzZnF+NjfDkuGLpx6kk74oGfFtYbGvYI0
/Nv/QkpEEQa7asoninQDBFEbogZa3774u2iXBr84iIxVR9djGmA7PmZumtyeDMWP
oIEylw8VGzVBlM0NFjkL5NpRFpG4/etPl6NcWNism1aru2DbT6L5tJ1JGwwoy2At
dguSXoidzI/mu7aYfmhzxSvC87QXUWTEifvJTu3prZhs7V8pUIblggeSUQdLUYZ4
0P/bl5k+NELSlHWlNLLwwsO6d8V3ZfhQNxXQL+7yC6rNgvMCAwEAAaOBojCBnzAJ
BgNVHRMEAjAAMB0GA1UdDgQWBBQeldLJ9yiHQnpVXGkOg3o/ehzSyTBRBgNVHSME
SjBIgBQuRr8LkYzzV8lnjg82CTaSnb3AUKEapBgwFjEUMBIGA1UEAwwLdGVhbTQ5
Mi1uZXSCFACAYC/J8IbHWkRuLy1BgeY0oXdvMBMGA1UdJQQMMAoGCCsGAQUFBwMC
MAsGA1UdDwQEAwIHgDANBgkqhkiG9w0BAQsFAAOCAQEAhMBmHr8eycT4NutNN4oz
3VAIERn3jEL9tx1WHSTtwGUvn5byIcyWvdtVweudsshVKFx9ouNMZHypMyuakeZM
87VS5dzrptEHdobs3DycJivcvjPE/moqy2CCoTzuNu/LQAEmALEIL8tseKVGQHqI
c3iF9naAgoRnZM+0H8IZS1vzBmDD9fAPZsCsKli6jtBkSZBIHWq5QSxaDslMGwF3
v18UEd4d1O3vEyKZXOf2IF8VPlAhlV6zwUgV9WAH/TnLXa7E1yj63wSjUpOXoDDg
atHvvWC+ILp67uflExABTUbRcu3l3vEMpXloBha43uh6Fhlytc9AwpGbBTsqBZvj
PA==
-----END CERTIFICATE-----
