Certificate:
    Data:
        Version: 3 (0x2)
        Serial Number:
            2e:e8:2c:9f:78:53:a2:fc:20:92:a9:27:79:e4:a5:b5
        Signature Algorithm: sha256WithRSAEncryption
        Issuer: CN=team295-net
        Validity
            Not Before: May 18 19:57:34 2022 GMT
            Not After : May  2 19:57:34 2025 GMT
        Subject: CN=team295-client
        Subject Public Key Info:
            Public Key Algorithm: rsaEncryption
                RSA Public-Key: (2048 bit)
                Modulus:
                    00:cb:a3:90:fe:f6:01:8e:be:c3:85:e7:ab:c2:31:
                    2e:a4:40:45:d8:20:e5:69:8e:45:da:2d:d8:9a:f2:
                    c8:41:f7:41:87:8d:35:43:ed:f1:5b:bb:7d:07:0c:
                    d7:b4:53:5d:88:92:84:d2:0c:93:55:b8:11:30:de:
                    b4:9f:62:9d:36:fc:fe:c8:67:f1:83:58:ee:61:15:
                    ba:03:36:bd:4b:8a:65:46:14:3a:ae:c0:2e:e7:4c:
                    fd:97:db:2e:9c:ac:a3:33:d0:5d:92:41:d5:c0:3c:
                    f6:bb:72:86:56:88:07:7e:e3:93:56:ea:ae:ef:08:
                    e8:68:c0:a7:e5:b8:6a:4a:48:e9:78:60:e0:ad:1c:
                    18:8b:c0:df:2a:00:56:65:43:bb:1f:06:67:5e:4e:
                    d7:c6:12:9e:79:13:8c:f9:42:1a:04:15:17:53:16:
                    90:98:f2:f7:f4:c1:6f:86:16:96:d9:63:70:47:03:
                    46:a6:ae:a9:cb:9a:5d:ad:bc:0e:9d:2f:57:b2:c6:
                    69:3d:5b:45:a4:05:80:6a:91:d9:99:77:02:6f:75:
                    ca:fd:1e:c7:e0:dd:95:d8:23:78:07:80:2a:09:2d:
                    7e:6a:54:49:ad:c5:ce:c7:83:29:0b:7e:fe:fc:53:
                    d9:72:d1:d5:bb:80:d5:7a:80:df:57:b0:8f:0d:a6:
                    1b:d3
                Exponent: 65537 (0x10001)
        X509v3 extensions:
            X509v3 Basic Constraints: 
                CA:FALSE
            X509v3 Subject Key Identifier: 
                DA:9B:C0:F0:67:2C:07:3A:3F:A3:C5:B4:63:BF:04:01:7B:2F:CF:93
            X509v3 Authority Key Identifier: 
                keyid:19:E4:86:2D:2F:4F:D0:17:DB:D6:66:47:D2:D1:D1:B1:64:3E:3F:86
                DirName:/CN=team295-net
                serial:26:CD:73:92:8B:07:A7:FF:1F:2F:69:BC:CA:EC:07:5C:1F:8B:91:3C

            X509v3 Extended Key Usage: 
                TLS Web Client Authentication
            X509v3 Key Usage: 
                Digital Signature
    Signature Algorithm: sha256WithRSAEncryption
         92:10:cb:33:de:0a:2f:e9:90:40:97:94:bc:13:4b:b0:32:40:
         78:c1:ac:32:f5:c1:c0:1f:a5:6a:10:99:7e:79:53:af:a5:22:
         5f:f8:a9:60:eb:a3:31:8c:a2:79:90:6c:6a:90:99:e3:f7:d1:
         d5:a9:47:4c:7e:73:b3:a7:dc:47:fc:43:91:54:df:ee:d0:b9:
         33:7f:27:f9:49:3b:8c:da:cf:3e:a2:61:6e:43:c3:2a:13:6b:
         c8:07:43:7c:37:eb:59:99:d0:13:b8:42:b4:f1:3b:3c:4b:e8:
         3a:ca:4d:dc:1d:2e:a1:28:c7:29:1d:34:a9:d7:3c:03:79:e4:
         21:c2:e6:a7:3d:c1:00:7d:1a:07:38:7b:6e:14:05:7d:41:d6:
         62:93:38:5f:9f:50:a0:05:c2:48:77:67:0f:7d:87:52:9a:c4:
         63:d4:63:d3:72:73:e4:47:07:9b:63:f7:be:50:a8:da:fa:a0:
         23:4c:9c:62:0a:ab:44:9e:f6:13:d9:30:76:07:f1:9d:8c:77:
         b0:9c:1b:c4:f6:8f:63:16:9f:b2:3a:2d:dd:c3:e4:99:82:ed:
         ae:4e:45:df:c6:d7:14:31:51:50:ea:cb:3c:cc:cf:e3:a2:48:
         f8:66:b0:7c:76:d9:9e:89:31:37:a4:93:f5:25:2c:7e:0d:e3:
         fb:d6:41:b7
-----BEGIN CERTIFICATE-----
MIIDXDCCAkSgAwIBAgIQLugsn3hTovwgkqkneeSltTANBgkqhkiG9w0BAQsFADAW
MRQwEgYDVQQDDAt0ZWFtMjk1LW5ldDAeFw0yMjA1MTgxOTU3MzRaFw0yNTA1MDIx
OTU3MzRaMBkxFzAVBgNVBAMMDnRlYW0yOTUtY2xpZW50MIIBIjANBgkqhkiG9w0B
AQEFAAOCAQ8AMIIBCgKCAQEAy6OQ/vYBjr7DheerwjEupEBF2CDlaY5F2i3YmvLI
QfdBh401Q+3xW7t9BwzXtFNdiJKE0gyTVbgRMN60n2KdNvz+yGfxg1juYRW6Aza9
S4plRhQ6rsAu50z9l9sunKyjM9BdkkHVwDz2u3KGVogHfuOTVuqu7wjoaMCn5bhq
SkjpeGDgrRwYi8DfKgBWZUO7HwZnXk7XxhKeeROM+UIaBBUXUxaQmPL39MFvhhaW
2WNwRwNGpq6py5pdrbwOnS9XssZpPVtFpAWAapHZmXcCb3XK/R7H4N2V2CN4B4Aq
CS1+alRJrcXOx4MpC37+/FPZctHVu4DVeoDfV7CPDaYb0wIDAQABo4GiMIGfMAkG
A1UdEwQCMAAwHQYDVR0OBBYEFNqbwPBnLAc6P6PFtGO/BAF7L8+TMFEGA1UdIwRK
MEiAFBnkhi0vT9AX29ZmR9LR0bFkPj+GoRqkGDAWMRQwEgYDVQQDDAt0ZWFtMjk1
LW5ldIIUJs1zkosHp/8fL2m8yuwHXB+LkTwwEwYDVR0lBAwwCgYIKwYBBQUHAwIw
CwYDVR0PBAQDAgeAMA0GCSqGSIb3DQEBCwUAA4IBAQCSEMsz3gov6ZBAl5S8E0uw
MkB4wawy9cHAH6VqEJl+eVOvpSJf+Klg66MxjKJ5kGxqkJnj99HVqUdMfnOzp9xH
/EORVN/u0Lkzfyf5STuM2s8+omFuQ8MqE2vIB0N8N+tZmdATuEK08Ts8S+g6yk3c
HS6hKMcpHTSp1zwDeeQhwuanPcEAfRoHOHtuFAV9QdZikzhfn1CgBcJId2cPfYdS
msRj1GPTcnPkRwebY/e+UKja+qAjTJxiCqtEnvYT2TB2B/GdjHewnBvE9o9jFp+y
Oi3dw+SZgu2uTkXfxtcUMVFQ6ss8zM/jokj4ZrB8dtmeiTE3pJP1JSx+DeP71kG3
-----END CERTIFICATE-----
