Certificate:
    Data:
        Version: 3 (0x2)
        Serial Number:
            48:da:f9:33:ca:f3:5b:38:8e:3c:f2:84:4e:fd:ed:d5
        Signature Algorithm: sha256WithRSAEncryption
        Issuer: CN=team136-net
        Validity
            Not Before: May 18 18:30:44 2022 GMT
            Not After : May  2 18:30:44 2025 GMT
        Subject: CN=team136-client
        Subject Public Key Info:
            Public Key Algorithm: rsaEncryption
                RSA Public-Key: (2048 bit)
                Modulus:
                    00:9f:12:73:ee:a5:aa:2b:16:af:0a:a5:31:7b:1f:
                    a4:5d:03:c4:bb:34:23:2d:c6:fe:ea:1a:14:b3:13:
                    f8:d9:60:16:ee:04:f0:00:5e:eb:39:cf:d6:d3:24:
                    e9:f7:32:be:93:77:0f:4b:36:37:41:cb:65:e2:51:
                    3b:13:2c:76:48:25:5d:be:8f:20:ce:80:e5:29:c2:
                    a5:90:5c:d7:4d:ba:8f:3b:ca:ec:45:05:26:6e:33:
                    c3:90:95:0a:27:b2:22:13:d7:33:1d:63:e5:78:5b:
                    55:4d:68:1b:e9:9d:27:8e:90:95:16:8c:7c:00:49:
                    61:cf:d0:f0:97:4a:12:08:16:96:e0:cd:b5:c9:fc:
                    6a:9f:88:1a:74:05:84:5f:46:d9:47:d2:58:d7:8a:
                    08:97:97:3c:c0:2d:15:a6:1f:42:87:6c:e3:94:33:
                    ab:b9:31:59:8c:25:f4:43:7b:73:33:9a:25:83:1a:
                    06:70:b0:4f:2b:05:a1:6f:fd:44:a9:e0:c2:6d:f8:
                    96:94:35:c5:22:21:a9:f0:b1:53:42:68:38:dc:67:
                    01:26:68:2a:57:5a:df:80:86:b6:fe:9e:65:d6:b7:
                    fc:c7:2d:d0:68:91:77:55:ea:f9:e2:10:26:b8:db:
                    ef:54:2c:bb:57:1a:59:27:7a:43:6d:a5:79:de:9c:
                    fb:43
                Exponent: 65537 (0x10001)
        X509v3 extensions:
            X509v3 Basic Constraints: 
                CA:FALSE
            X509v3 Subject Key Identifier: 
                3A:B2:40:F2:04:2F:A3:CE:92:54:C7:67:84:62:B4:84:DF:C1:F9:34
            X509v3 Authority Key Identifier: 
                keyid:A9:7A:C6:4D:21:31:FD:B5:EC:AA:93:04:DF:A2:E9:1A:16:73:1A:49
                DirName:/CN=team136-net
                serial:04:BA:37:21:6D:F7:FA:2F:BB:52:D8:7C:8A:6A:01:05:01:D6:5D:0D

            X509v3 Extended Key Usage: 
                TLS Web Client Authentication
            X509v3 Key Usage: 
                Digital Signature
    Signature Algorithm: sha256WithRSAEncryption
         20:91:f7:b4:84:d3:85:42:75:2d:00:5f:77:5e:97:e7:15:41:
         b2:b2:3c:41:97:5c:fd:a0:1c:0e:a1:37:b7:59:7f:a8:7d:04:
         7f:a5:cd:19:ed:3e:00:77:0b:23:48:c2:b2:10:45:6e:35:05:
         55:96:13:2b:96:be:b9:d9:fb:2f:bb:7d:3c:6d:59:3c:a3:13:
         2e:ac:12:40:bc:45:6d:7e:42:2b:92:b9:27:a4:25:38:ff:ab:
         92:5f:66:41:8b:a7:46:82:83:48:85:20:f2:e7:f6:81:93:3d:
         03:18:eb:cf:3d:74:91:43:bc:a3:1c:1e:ef:18:a2:3b:ef:2a:
         ed:52:17:08:4e:9e:20:79:8f:49:10:a7:88:55:d2:ea:fe:55:
         51:10:cd:1b:9d:71:ea:af:33:b0:4f:f0:24:b0:9c:db:e5:f9:
         5b:c4:47:a9:13:b5:ec:e2:b0:67:51:52:bc:3e:2e:53:83:74:
         e5:c3:38:e6:e2:88:76:c7:36:2a:45:cd:16:e9:db:8e:7b:80:
         60:b5:cd:7b:22:d9:cb:7b:b0:ea:f7:be:f0:b3:7c:72:2e:75:
         4a:8c:62:7f:e5:b6:03:46:2e:4c:fc:84:48:b3:43:b6:de:7d:
         38:31:3e:30:f3:67:0c:83:29:6a:49:21:d0:b3:a9:35:36:48:
         83:d5:03:25
-----BEGIN CERTIFICATE-----
MIIDXDCCAkSgAwIBAgIQSNr5M8rzWziOPPKETv3t1TANBgkqhkiG9w0BAQsFADAW
MRQwEgYDVQQDDAt0ZWFtMTM2LW5ldDAeFw0yMjA1MTgxODMwNDRaFw0yNTA1MDIx
ODMwNDRaMBkxFzAVBgNVBAMMDnRlYW0xMzYtY2xpZW50MIIBIjANBgkqhkiG9w0B
AQEFAAOCAQ8AMIIBCgKCAQEAnxJz7qWqKxavCqUxex+kXQPEuzQjLcb+6hoUsxP4
2WAW7gTwAF7rOc/W0yTp9zK+k3cPSzY3Qctl4lE7Eyx2SCVdvo8gzoDlKcKlkFzX
TbqPO8rsRQUmbjPDkJUKJ7IiE9czHWPleFtVTWgb6Z0njpCVFox8AElhz9Dwl0oS
CBaW4M21yfxqn4gadAWEX0bZR9JY14oIl5c8wC0Vph9Ch2zjlDOruTFZjCX0Q3tz
M5olgxoGcLBPKwWhb/1EqeDCbfiWlDXFIiGp8LFTQmg43GcBJmgqV1rfgIa2/p5l
1rf8xy3QaJF3Ver54hAmuNvvVCy7VxpZJ3pDbaV53pz7QwIDAQABo4GiMIGfMAkG
A1UdEwQCMAAwHQYDVR0OBBYEFDqyQPIEL6POklTHZ4RitITfwfk0MFEGA1UdIwRK
MEiAFKl6xk0hMf217KqTBN+i6RoWcxpJoRqkGDAWMRQwEgYDVQQDDAt0ZWFtMTM2
LW5ldIIUBLo3IW33+i+7Uth8imoBBQHWXQ0wEwYDVR0lBAwwCgYIKwYBBQUHAwIw
CwYDVR0PBAQDAgeAMA0GCSqGSIb3DQEBCwUAA4IBAQAgkfe0hNOFQnUtAF93Xpfn
FUGysjxBl1z9oBwOoTe3WX+ofQR/pc0Z7T4AdwsjSMKyEEVuNQVVlhMrlr652fsv
u308bVk8oxMurBJAvEVtfkIrkrknpCU4/6uSX2ZBi6dGgoNIhSDy5/aBkz0DGOvP
PXSRQ7yjHB7vGKI77yrtUhcITp4geY9JEKeIVdLq/lVREM0bnXHqrzOwT/AksJzb
5flbxEepE7Xs4rBnUVK8Pi5Tg3Tlwzjm4oh2xzYqRc0W6duOe4Bgtc17ItnLe7Dq
977ws3xyLnVKjGJ/5bYDRi5M/IRIs0O23n04MT4w82cMgylqSSHQs6k1NkiD1QMl
-----END CERTIFICATE-----
