Certificate:
    Data:
        Version: 3 (0x2)
        Serial Number:
            6a:7b:87:c9:2c:be:c6:cd:2a:f1:25:0d:e8:ac:18:dc
        Signature Algorithm: sha256WithRSAEncryption
        Issuer: CN=team136-net
        Validity
            Not Before: May 18 18:30:44 2022 GMT
            Not After : May  2 18:30:44 2025 GMT
        Subject: CN=team136-server
        Subject Public Key Info:
            Public Key Algorithm: rsaEncryption
                RSA Public-Key: (2048 bit)
                Modulus:
                    00:e1:3c:03:0d:07:a3:c9:7c:51:da:fb:a5:b6:83:
                    15:ba:2c:75:12:9d:4b:13:82:34:84:6c:26:f4:82:
                    ca:86:42:31:fb:a5:f3:21:a0:c9:c4:8b:1b:4d:e6:
                    b1:83:49:9c:05:ac:30:46:2e:33:75:0a:89:79:4b:
                    69:00:41:53:12:34:2e:01:b0:72:a1:53:a4:80:7d:
                    90:b2:e7:56:11:6c:8d:c4:a0:60:b1:f2:7a:d2:b6:
                    8f:7f:2f:2b:7a:df:21:81:37:4b:00:02:17:30:d5:
                    d5:94:13:35:b6:a2:47:15:4f:cd:b9:7e:ea:48:85:
                    76:2e:0d:5b:55:86:f6:cb:58:10:e1:57:5c:e3:e6:
                    e9:ef:45:c1:11:6b:14:bb:f7:41:6b:7c:02:30:0f:
                    68:72:19:0a:f0:d4:b8:d9:6c:fc:12:47:3e:74:2d:
                    80:f7:a0:71:b4:7c:35:4d:45:e9:6b:33:1b:36:45:
                    e5:e9:10:e6:22:4b:53:ae:f9:f0:7c:94:fd:62:05:
                    2f:6e:12:99:cd:a5:cc:e0:90:3c:86:aa:14:c0:24:
                    bc:1a:0d:e0:f8:ae:f6:1e:e9:52:5c:d4:ae:09:0f:
                    a6:55:af:e3:45:cf:b8:6c:1d:64:ef:ec:c0:fb:1a:
                    ba:51:ff:60:34:ed:e3:a8:ea:3d:f6:09:40:5e:e5:
                    08:83
                Exponent: 65537 (0x10001)
        X509v3 extensions:
            X509v3 Basic Constraints: 
                CA:FALSE
            X509v3 Subject Key Identifier: 
                0A:90:6E:0F:20:88:55:61:25:1E:C7:17:30:E4:22:65:95:97:12:08
            X509v3 Authority Key Identifier: 
                keyid:A9:7A:C6:4D:21:31:FD:B5:EC:AA:93:04:DF:A2:E9:1A:16:73:1A:49
                DirName:/CN=team136-net
                serial:04:BA:37:21:6D:F7:FA:2F:BB:52:D8:7C:8A:6A:01:05:01:D6:5D:0D

            X509v3 Extended Key Usage: 
                TLS Web Server Authentication
            X509v3 Key Usage: 
                Digital Signature, Key Encipherment
            X509v3 Subject Alternative Name: 
                DNS:team136-server
    Signature Algorithm: sha256WithRSAEncryption
         3a:fc:0d:d7:94:d9:e3:d6:36:ed:1e:b9:c9:4f:06:27:b6:1c:
         55:a2:af:04:70:73:d1:a6:79:fc:c9:93:4a:e4:65:6b:ae:cd:
         e0:6c:9c:2b:0b:e1:0f:3a:ab:29:ab:a1:50:7a:fe:01:71:4f:
         9a:2d:7d:72:be:65:06:d0:b2:de:6c:bc:63:99:45:a2:13:d7:
         85:ad:59:86:3a:e2:c6:63:3f:6e:76:fd:4a:9a:46:9d:91:6e:
         dc:ec:98:d5:29:36:12:dc:dd:da:77:f7:41:9e:b7:f1:aa:0f:
         6c:f0:57:ff:c2:30:4e:67:52:bd:33:5d:91:81:b2:cb:fe:6f:
         49:99:90:d3:df:82:dd:25:50:ff:3e:c5:2b:6d:59:aa:ac:5f:
         21:73:7d:fa:ff:0c:22:c7:75:08:89:18:a8:51:a2:bd:da:98:
         f1:ef:17:67:0a:94:85:e3:ea:ab:66:83:47:7f:45:92:f7:21:
         df:19:bf:63:a4:f7:79:7e:dc:21:41:39:56:29:e0:1a:44:1b:
         69:b3:25:be:e8:c1:18:49:48:f2:82:ed:82:01:3f:7d:af:73:
         eb:34:37:23:98:be:31:85:38:ff:75:b7:81:2d:8a:64:fd:51:
         bf:4d:76:dd:06:c2:67:6d:70:dd:92:18:4d:0c:87:21:19:14:
         a0:74:fe:0e
-----BEGIN CERTIFICATE-----
MIIDdzCCAl+gAwIBAgIQanuHySy+xs0q8SUN6KwY3DANBgkqhkiG9w0BAQsFADAW
MRQwEgYDVQQDDAt0ZWFtMTM2LW5ldDAeFw0yMjA1MTgxODMwNDRaFw0yNTA1MDIx
ODMwNDRaMBkxFzAVBgNVBAMMDnRlYW0xMzYtc2VydmVyMIIBIjANBgkqhkiG9w0B
AQEFAAOCAQ8AMIIBCgKCAQEA4TwDDQejyXxR2vultoMVuix1Ep1LE4I0hGwm9ILK
hkIx+6XzIaDJxIsbTeaxg0mcBawwRi4zdQqJeUtpAEFTEjQuAbByoVOkgH2QsudW
EWyNxKBgsfJ60raPfy8ret8hgTdLAAIXMNXVlBM1tqJHFU/NuX7qSIV2Lg1bVYb2
y1gQ4Vdc4+bp70XBEWsUu/dBa3wCMA9ochkK8NS42Wz8Ekc+dC2A96BxtHw1TUXp
azMbNkXl6RDmIktTrvnwfJT9YgUvbhKZzaXM4JA8hqoUwCS8Gg3g+K72HulSXNSu
CQ+mVa/jRc+4bB1k7+zA+xq6Uf9gNO3jqOo99glAXuUIgwIDAQABo4G9MIG6MAkG
A1UdEwQCMAAwHQYDVR0OBBYEFAqQbg8giFVhJR7HFzDkImWVlxIIMFEGA1UdIwRK
MEiAFKl6xk0hMf217KqTBN+i6RoWcxpJoRqkGDAWMRQwEgYDVQQDDAt0ZWFtMTM2
LW5ldIIUBLo3IW33+i+7Uth8imoBBQHWXQ0wEwYDVR0lBAwwCgYIKwYBBQUHAwEw
CwYDVR0PBAQDAgWgMBkGA1UdEQQSMBCCDnRlYW0xMzYtc2VydmVyMA0GCSqGSIb3
DQEBCwUAA4IBAQA6/A3XlNnj1jbtHrnJTwYnthxVoq8EcHPRpnn8yZNK5GVrrs3g
bJwrC+EPOqspq6FQev4BcU+aLX1yvmUG0LLebLxjmUWiE9eFrVmGOuLGYz9udv1K
mkadkW7c7JjVKTYS3N3ad/dBnrfxqg9s8Ff/wjBOZ1K9M12RgbLL/m9JmZDT34Ld
JVD/PsUrbVmqrF8hc336/wwix3UIiRioUaK92pjx7xdnCpSF4+qrZoNHf0WS9yHf
Gb9jpPd5ftwhQTlWKeAaRBtpsyW+6MEYSUjygu2CAT99r3PrNDcjmL4xhTj/dbeB
LYpk/VG/TXbdBsJnbXDdkhhNDIchGRSgdP4O
-----END CERTIFICATE-----
