Certificate:
    Data:
        Version: 3 (0x2)
        Serial Number:
            e2:d1:cc:66:17:a6:2a:6a:82:c1:32:2f:79:bc:9f:10
        Signature Algorithm: sha256WithRSAEncryption
        Issuer: CN=team214-net
        Validity
            Not Before: May 18 19:17:40 2022 GMT
            Not After : May  2 19:17:40 2025 GMT
        Subject: CN=team214-client
        Subject Public Key Info:
            Public Key Algorithm: rsaEncryption
                RSA Public-Key: (2048 bit)
                Modulus:
                    00:c9:88:f8:6b:41:49:00:6e:d1:91:43:48:d2:a7:
                    67:6a:54:d0:29:ec:27:ef:7c:cb:42:d2:74:0f:ea:
                    1e:b1:7c:36:5f:e6:7d:6a:43:e4:94:8f:1f:6e:cb:
                    e3:e7:9b:20:64:85:62:d4:1a:51:f7:85:99:d3:78:
                    07:77:2d:4a:1a:f3:27:af:d3:16:b0:92:3a:39:1f:
                    81:c4:b4:0d:43:53:49:53:2d:6f:7e:ad:a3:04:05:
                    59:87:61:f0:d1:2e:fb:c8:f8:12:d6:13:9a:93:72:
                    74:06:3e:c1:2d:09:8f:07:7a:80:0f:fa:5c:1c:58:
                    5d:e8:bb:76:7c:e7:ec:49:c7:73:cf:2f:0b:16:b3:
                    10:6a:41:3d:28:a3:be:0e:11:67:01:29:83:bf:f0:
                    f6:b9:8a:d7:95:f8:4b:6c:e1:e0:2b:77:ce:90:2e:
                    4c:dd:7b:99:d2:38:7a:f1:3f:9c:61:01:3a:58:21:
                    54:f2:b3:23:0f:4f:6d:b2:74:29:a5:1b:60:1b:f6:
                    94:ae:b3:74:17:39:92:29:d5:09:a0:f6:15:5a:68:
                    f5:50:02:d1:65:8c:da:2b:33:f5:82:3a:10:10:8d:
                    8c:fc:8f:94:68:14:c8:30:f2:6c:84:97:a0:07:70:
                    3b:47:ff:9c:f9:55:15:c9:8f:55:1f:d0:29:2c:75:
                    44:e7
                Exponent: 65537 (0x10001)
        X509v3 extensions:
            X509v3 Basic Constraints: 
                CA:FALSE
            X509v3 Subject Key Identifier: 
                6F:DD:62:AD:37:30:A9:41:4D:32:0C:E7:71:86:5C:7D:68:D2:7A:C7
            X509v3 Authority Key Identifier: 
                keyid:64:49:BE:81:6F:ED:3B:B7:79:22:9C:F1:AA:D4:F8:A8:8A:E8:88:D1
                DirName:/CN=team214-net
                serial:7D:5D:08:AA:22:F4:E9:12:67:B6:69:A7:22:6D:EB:5A:1C:AA:AE:62

            X509v3 Extended Key Usage: 
                TLS Web Client Authentication
            X509v3 Key Usage: 
                Digital Signature
    Signature Algorithm: sha256WithRSAEncryption
         6f:4b:cf:d8:ca:12:fe:25:7e:03:87:9d:fd:62:5e:2c:84:d5:
         fe:42:cb:69:63:09:81:a4:cf:40:fd:9c:8e:ac:fa:a9:e0:9c:
         52:ff:8b:e9:13:9c:c4:76:b7:d9:49:a8:e3:07:82:e7:08:f6:
         4e:c2:2b:f1:b3:93:d4:b7:06:e0:34:1e:12:d0:c7:8f:30:cd:
         79:8d:08:6e:e1:f3:85:22:58:75:91:c9:85:12:c0:b4:e4:d3:
         b0:32:6e:3a:b4:72:cc:16:20:70:83:c8:55:9f:ce:7e:c5:1e:
         f9:ad:17:d6:20:e8:3e:fa:9e:72:a1:e7:61:0d:b7:4d:74:da:
         41:1a:77:a7:12:1b:62:06:2c:4a:c1:23:e1:aa:03:05:42:57:
         e6:a1:76:3c:6b:22:8f:52:65:7b:7f:fa:23:45:71:bb:ec:ed:
         06:48:4b:fc:a5:1a:d6:e3:2e:81:b8:27:65:b1:cd:b7:13:c6:
         50:ce:65:30:92:cc:13:30:6d:80:24:e7:2e:3e:5c:d8:37:04:
         76:3c:e8:8a:c3:a4:23:ed:95:b0:c4:29:52:84:9d:30:9b:c0:
         d4:4a:9c:c0:f5:60:97:d9:c5:6c:96:75:96:b2:30:c5:6c:07:
         f5:a2:18:88:a0:3a:42:f3:37:ca:88:5a:16:0d:55:63:e2:e8:
         7e:47:e0:79
-----BEGIN CERTIFICATE-----
MIIDXTCCAkWgAwIBAgIRAOLRzGYXpipqgsEyL3m8nxAwDQYJKoZIhvcNAQELBQAw
FjEUMBIGA1UEAwwLdGVhbTIxNC1uZXQwHhcNMjIwNTE4MTkxNzQwWhcNMjUwNTAy
MTkxNzQwWjAZMRcwFQYDVQQDDA50ZWFtMjE0LWNsaWVudDCCASIwDQYJKoZIhvcN
AQEBBQADggEPADCCAQoCggEBAMmI+GtBSQBu0ZFDSNKnZ2pU0CnsJ+98y0LSdA/q
HrF8Nl/mfWpD5JSPH27L4+ebIGSFYtQaUfeFmdN4B3ctShrzJ6/TFrCSOjkfgcS0
DUNTSVMtb36towQFWYdh8NEu+8j4EtYTmpNydAY+wS0Jjwd6gA/6XBxYXei7dnzn
7EnHc88vCxazEGpBPSijvg4RZwEpg7/w9rmK15X4S2zh4Ct3zpAuTN17mdI4evE/
nGEBOlghVPKzIw9PbbJ0KaUbYBv2lK6zdBc5kinVCaD2FVpo9VAC0WWM2isz9YI6
EBCNjPyPlGgUyDDybISXoAdwO0f/nPlVFcmPVR/QKSx1ROcCAwEAAaOBojCBnzAJ
BgNVHRMEAjAAMB0GA1UdDgQWBBRv3WKtNzCpQU0yDOdxhlx9aNJ6xzBRBgNVHSME
SjBIgBRkSb6Bb+07t3kinPGq1PioiuiI0aEapBgwFjEUMBIGA1UEAwwLdGVhbTIx
NC1uZXSCFH1dCKoi9OkSZ7ZppyJt61ocqq5iMBMGA1UdJQQMMAoGCCsGAQUFBwMC
MAsGA1UdDwQEAwIHgDANBgkqhkiG9w0BAQsFAAOCAQEAb0vP2MoS/iV+A4ed/WJe
LITV/kLLaWMJgaTPQP2cjqz6qeCcUv+L6ROcxHa32Umo4weC5wj2TsIr8bOT1LcG
4DQeEtDHjzDNeY0IbuHzhSJYdZHJhRLAtOTTsDJuOrRyzBYgcIPIVZ/OfsUe+a0X
1iDoPvqecqHnYQ23TXTaQRp3pxIbYgYsSsEj4aoDBUJX5qF2PGsij1Jle3/6I0Vx
u+ztBkhL/KUa1uMugbgnZbHNtxPGUM5lMJLMEzBtgCTnLj5c2DcEdjzoisOkI+2V
sMQpUoSdMJvA1EqcwPVgl9nFbJZ1lrIwxWwH9aIYiKA6QvM3yohaFg1VY+Lofkfg
eQ==
-----END CERTIFICATE-----
