Certificate:
    Data:
        Version: 3 (0x2)
        Serial Number:
            fc:fd:a6:6a:aa:d5:d4:cc:03:3d:bd:ac:fc:21:62:d8
        Signature Algorithm: sha256WithRSAEncryption
        Issuer: CN=team285-net
        Validity
            Not Before: May 18 19:58:08 2022 GMT
            Not After : May  2 19:58:08 2025 GMT
        Subject: CN=team285-server
        Subject Public Key Info:
            Public Key Algorithm: rsaEncryption
                RSA Public-Key: (2048 bit)
                Modulus:
                    00:d5:2a:eb:1e:9e:e1:99:8e:21:72:ad:a4:43:17:
                    0a:c9:9e:7e:0d:a3:60:fc:c0:9b:fe:7c:56:ce:e2:
                    5f:0e:29:72:9e:e2:5d:a1:5c:1b:01:0d:18:f6:26:
                    b8:bf:91:f3:e9:ca:8c:15:3e:43:e4:48:bb:ff:ce:
                    cc:66:eb:91:13:3f:bf:b9:0d:31:7c:15:40:4e:58:
                    15:69:de:e5:1f:7c:ab:0a:36:f7:65:b3:f9:c8:ed:
                    8c:ed:6a:70:c6:f4:94:75:f3:33:c5:4e:ef:06:11:
                    5b:55:bd:18:f6:48:d6:51:e2:b0:2e:32:f4:84:f7:
                    16:c7:2a:76:83:59:4a:28:be:1c:07:8b:2e:c7:97:
                    0f:93:84:fc:0f:65:8a:4d:35:29:13:fb:3a:6b:a8:
                    02:25:fb:e9:60:a0:5f:50:bf:44:5b:88:c6:0d:2b:
                    9a:9c:e7:28:85:74:ae:84:69:5c:04:8b:fc:5b:41:
                    c5:5c:98:39:44:a1:5f:72:3c:e3:4a:6c:8c:4a:3c:
                    b5:e3:6c:58:87:a0:1b:45:b6:ec:e6:2b:26:d1:43:
                    4b:be:86:8e:a3:70:24:c8:10:5d:4a:46:0a:03:b8:
                    a2:2a:24:d0:42:bd:51:bd:aa:20:80:4e:fa:60:52:
                    72:96:f4:24:7c:d2:43:62:e9:3f:1c:dd:57:41:a7:
                    e6:e9
                Exponent: 65537 (0x10001)
        X509v3 extensions:
            X509v3 Basic Constraints: 
                CA:FALSE
            X509v3 Subject Key Identifier: 
                11:C3:78:16:05:22:43:C6:EA:85:D8:72:F0:B8:AF:F2:75:D7:0A:11
            X509v3 Authority Key Identifier: 
                keyid:2C:AC:5A:64:CD:DA:07:D2:81:F6:29:DB:28:84:5C:04:9B:BE:1F:ED
                DirName:/CN=team285-net
                serial:67:5B:4E:01:27:82:9C:6F:60:B1:64:FC:63:4B:89:38:94:D0:EC:3D

            X509v3 Extended Key Usage: 
                TLS Web Server Authentication
            X509v3 Key Usage: 
                Digital Signature, Key Encipherment
            X509v3 Subject Alternative Name: 
                DNS:team285-server
    Signature Algorithm: sha256WithRSAEncryption
         39:a3:af:4e:19:c1:e0:39:58:40:0f:c2:d0:b6:3b:a8:94:51:
         79:b6:07:a5:4b:37:0a:ab:00:aa:56:b2:92:9b:d5:60:32:a8:
         08:8d:1b:d6:21:46:c6:07:bd:d0:82:55:e0:c6:25:c9:b4:5e:
         2e:c0:e8:ca:23:44:af:ad:c7:97:75:13:8f:be:ca:d1:1c:13:
         ec:63:7d:46:cf:06:22:38:60:ff:3e:28:4f:2d:93:e1:15:d0:
         09:ca:5d:c2:b0:af:83:95:59:90:4a:f9:e8:76:a8:b9:21:0c:
         a9:17:bd:80:bd:16:6a:6d:a9:fe:d2:ad:95:78:a6:c7:5e:c7:
         2c:00:4d:56:ff:11:f1:e1:32:dd:2c:8f:90:c9:8d:8b:28:48:
         83:38:53:ff:ed:2f:ce:80:b4:0b:b3:65:ac:18:b9:0e:cb:cf:
         54:38:5e:a8:f8:f6:3f:5c:9b:8b:84:e4:54:ec:15:08:e6:ed:
         85:8c:3e:ba:54:9a:bb:20:8a:dc:1a:4a:f2:59:c6:b4:3f:83:
         a9:a9:c3:4e:94:65:26:e2:29:50:9a:7b:a9:5b:70:7c:65:54:
         ec:55:17:80:b5:3b:b5:50:24:e9:b9:7f:68:64:b8:54:38:24:
         c7:6a:62:a5:b9:25:f0:bd:90:e7:c1:6f:fc:84:62:d1:79:03:
         2e:0a:c8:c6
-----BEGIN CERTIFICATE-----
MIIDeDCCAmCgAwIBAgIRAPz9pmqq1dTMAz29rPwhYtgwDQYJKoZIhvcNAQELBQAw
FjEUMBIGA1UEAwwLdGVhbTI4NS1uZXQwHhcNMjIwNTE4MTk1ODA4WhcNMjUwNTAy
MTk1ODA4WjAZMRcwFQYDVQQDDA50ZWFtMjg1LXNlcnZlcjCCASIwDQYJKoZIhvcN
AQEBBQADggEPADCCAQoCggEBANUq6x6e4ZmOIXKtpEMXCsmefg2jYPzAm/58Vs7i
Xw4pcp7iXaFcGwENGPYmuL+R8+nKjBU+Q+RIu//OzGbrkRM/v7kNMXwVQE5YFWne
5R98qwo292Wz+cjtjO1qcMb0lHXzM8VO7wYRW1W9GPZI1lHisC4y9IT3FscqdoNZ
Sii+HAeLLseXD5OE/A9lik01KRP7OmuoAiX76WCgX1C/RFuIxg0rmpznKIV0roRp
XASL/FtBxVyYOUShX3I840psjEo8teNsWIegG0W27OYrJtFDS76GjqNwJMgQXUpG
CgO4oiok0EK9Ub2qIIBO+mBScpb0JHzSQ2LpPxzdV0Gn5ukCAwEAAaOBvTCBujAJ
BgNVHRMEAjAAMB0GA1UdDgQWBBQRw3gWBSJDxuqF2HLwuK/yddcKETBRBgNVHSME
SjBIgBQsrFpkzdoH0oH2KdsohFwEm74f7aEapBgwFjEUMBIGA1UEAwwLdGVhbTI4
NS1uZXSCFGdbTgEngpxvYLFk/GNLiTiU0Ow9MBMGA1UdJQQMMAoGCCsGAQUFBwMB
MAsGA1UdDwQEAwIFoDAZBgNVHREEEjAQgg50ZWFtMjg1LXNlcnZlcjANBgkqhkiG
9w0BAQsFAAOCAQEAOaOvThnB4DlYQA/C0LY7qJRRebYHpUs3CqsAqlaykpvVYDKo
CI0b1iFGxge90IJV4MYlybReLsDoyiNEr63Hl3UTj77K0RwT7GN9Rs8GIjhg/z4o
Ty2T4RXQCcpdwrCvg5VZkEr56HaouSEMqRe9gL0Wam2p/tKtlXimx17HLABNVv8R
8eEy3SyPkMmNiyhIgzhT/+0vzoC0C7NlrBi5DsvPVDheqPj2P1ybi4TkVOwVCObt
hYw+ulSauyCK3BpK8lnGtD+DqanDTpRlJuIpUJp7qVtwfGVU7FUXgLU7tVAk6bl/
aGS4VDgkx2pipbkl8L2Q58Fv/IRi0XkDLgrIxg==
-----END CERTIFICATE-----
