Certificate:
    Data:
        Version: 3 (0x2)
        Serial Number:
            13:ed:07:86:36:ea:bf:d4:36:cd:7d:20:2f:c5:4d:9a
        Signature Algorithm: sha256WithRSAEncryption
        Issuer: CN=team135-net
        Validity
            Not Before: May 18 15:15:42 2022 GMT
            Not After : May  2 15:15:42 2025 GMT
        Subject: CN=team135-server
        Subject Public Key Info:
            Public Key Algorithm: rsaEncryption
                RSA Public-Key: (2048 bit)
                Modulus:
                    00:bf:93:fa:96:b0:d9:7d:ed:83:7a:09:c2:5f:56:
                    55:a3:6e:f6:75:5e:6b:92:e0:ca:84:65:99:47:da:
                    01:68:ef:ea:bd:35:d0:c6:e4:16:38:31:e8:11:98:
                    3d:f8:d6:06:4a:93:d3:15:db:1c:ad:c6:1a:b8:84:
                    53:c8:2d:b6:4a:c4:a6:6d:cc:ae:5c:04:29:73:46:
                    d0:1f:8a:0c:34:ab:85:53:13:20:fd:66:7b:07:fe:
                    1c:eb:35:41:99:4b:3f:54:6d:9e:8c:42:46:5b:9c:
                    c9:9c:93:4e:c4:2e:80:27:1a:6d:cc:c1:45:ee:3b:
                    4c:db:8a:8e:a2:d7:6b:33:6a:10:c7:ff:e0:22:8f:
                    6b:f4:9f:e9:25:d8:2b:81:31:15:67:93:18:07:e2:
                    49:bc:55:9f:c4:d7:79:ae:85:24:4d:b9:a5:89:c3:
                    55:77:76:6b:9b:e9:d0:22:eb:a1:14:13:0a:9c:79:
                    52:0d:f9:d1:7a:63:52:c4:1a:86:79:e1:a7:cb:d1:
                    62:50:0e:9a:9d:aa:5a:5e:79:34:33:4e:2e:ec:5b:
                    09:d9:21:cb:0f:30:7f:86:8b:72:a0:99:55:09:73:
                    ac:cc:45:da:6a:bb:f5:ef:9e:8e:0e:84:9b:b6:4e:
                    08:31:55:a7:54:fd:3a:80:78:47:16:5f:6a:fc:b7:
                    7e:2f
                Exponent: 65537 (0x10001)
        X509v3 extensions:
            X509v3 Basic Constraints: 
                CA:FALSE
            X509v3 Subject Key Identifier: 
                82:2E:CB:D4:54:06:30:B3:AD:53:27:53:9B:BA:78:2E:51:42:06:10
            X509v3 Authority Key Identifier: 
                keyid:C8:C9:B4:DF:A4:60:A1:13:2E:2F:E6:CD:C4:85:D5:08:AF:07:33:41
                DirName:/CN=team135-net
                serial:74:72:57:0E:5D:8C:1D:C3:2A:15:4A:5C:12:80:86:5F:00:2E:5C:3D

            X509v3 Extended Key Usage: 
                TLS Web Server Authentication
            X509v3 Key Usage: 
                Digital Signature, Key Encipherment
            X509v3 Subject Alternative Name: 
                DNS:team135-server
    Signature Algorithm: sha256WithRSAEncryption
         00:21:cd:cd:76:77:7c:40:63:cd:7c:08:0a:ba:80:2d:1a:ef:
         00:9d:75:17:35:8a:83:00:06:36:66:9a:db:6e:bd:3a:86:88:
         dc:5f:2b:ae:cb:ff:82:a2:20:0b:74:7a:28:0b:78:b0:9f:16:
         0f:58:2c:f4:bd:28:10:03:0d:8c:58:ae:e6:d3:e7:1b:8f:d9:
         d0:97:f6:5a:6f:5a:65:d9:63:af:0c:12:81:23:13:e2:c2:41:
         4a:d0:d2:fa:71:f0:42:a5:8e:73:16:76:6a:4a:56:32:18:e7:
         6a:8c:f0:a9:8d:59:38:8e:d8:6c:eb:ef:db:83:9d:a7:dd:cc:
         e4:c7:13:cd:b7:bc:42:8f:14:3b:c5:b0:e9:16:de:c3:72:47:
         aa:df:6d:11:40:aa:7c:e6:18:f1:d3:7e:0d:ba:04:30:87:52:
         bb:50:0c:41:da:d6:f8:40:76:d6:47:1f:2c:8a:c1:b0:0a:54:
         c3:5b:ab:cc:e8:73:5f:1b:1a:61:3e:a1:4d:b3:c3:2c:39:da:
         be:72:36:e9:52:6e:a1:19:f3:b6:59:5e:e2:e0:bf:6c:d4:cb:
         68:c2:6f:cb:07:8b:32:f1:18:06:5c:48:62:2b:1c:33:28:38:
         32:1a:e1:cd:bc:e6:c8:c0:e6:92:48:82:c7:e3:0f:3a:75:c7:
         67:b5:0d:6f
-----BEGIN CERTIFICATE-----
MIIDdzCCAl+gAwIBAgIQE+0Hhjbqv9Q2zX0gL8VNmjANBgkqhkiG9w0BAQsFADAW
MRQwEgYDVQQDDAt0ZWFtMTM1LW5ldDAeFw0yMjA1MTgxNTE1NDJaFw0yNTA1MDIx
NTE1NDJaMBkxFzAVBgNVBAMMDnRlYW0xMzUtc2VydmVyMIIBIjANBgkqhkiG9w0B
AQEFAAOCAQ8AMIIBCgKCAQEAv5P6lrDZfe2DegnCX1ZVo272dV5rkuDKhGWZR9oB
aO/qvTXQxuQWODHoEZg9+NYGSpPTFdscrcYauIRTyC22SsSmbcyuXAQpc0bQH4oM
NKuFUxMg/WZ7B/4c6zVBmUs/VG2ejEJGW5zJnJNOxC6AJxptzMFF7jtM24qOotdr
M2oQx//gIo9r9J/pJdgrgTEVZ5MYB+JJvFWfxNd5roUkTbmlicNVd3Zrm+nQIuuh
FBMKnHlSDfnRemNSxBqGeeGny9FiUA6anapaXnk0M04u7FsJ2SHLDzB/hotyoJlV
CXOszEXaarv1756ODoSbtk4IMVWnVP06gHhHFl9q/Ld+LwIDAQABo4G9MIG6MAkG
A1UdEwQCMAAwHQYDVR0OBBYEFIIuy9RUBjCzrVMnU5u6eC5RQgYQMFEGA1UdIwRK
MEiAFMjJtN+kYKETLi/mzcSF1QivBzNBoRqkGDAWMRQwEgYDVQQDDAt0ZWFtMTM1
LW5ldIIUdHJXDl2MHcMqFUpcEoCGXwAuXD0wEwYDVR0lBAwwCgYIKwYBBQUHAwEw
CwYDVR0PBAQDAgWgMBkGA1UdEQQSMBCCDnRlYW0xMzUtc2VydmVyMA0GCSqGSIb3
DQEBCwUAA4IBAQAAIc3Ndnd8QGPNfAgKuoAtGu8AnXUXNYqDAAY2Zprbbr06hojc
Xyuuy/+CoiALdHooC3iwnxYPWCz0vSgQAw2MWK7m0+cbj9nQl/Zab1pl2WOvDBKB
IxPiwkFK0NL6cfBCpY5zFnZqSlYyGOdqjPCpjVk4jths6+/bg52n3czkxxPNt7xC
jxQ7xbDpFt7Dckeq320RQKp85hjx034NugQwh1K7UAxB2tb4QHbWRx8sisGwClTD
W6vM6HNfGxphPqFNs8MsOdq+cjbpUm6hGfO2WV7i4L9s1Mtowm/LB4sy8RgGXEhi
KxwzKDgyGuHNvObIwOaSSILH4w86dcdntQ1v
-----END CERTIFICATE-----
