Certificate:
    Data:
        Version: 3 (0x2)
        Serial Number:
            b3:db:8e:be:11:fa:1c:0b:e2:c3:20:5f:d4:9c:d1:25
        Signature Algorithm: sha256WithRSAEncryption
        Issuer: CN=team54-net
        Validity
            Not Before: May 18 14:23:08 2022 GMT
            Not After : May  2 14:23:08 2025 GMT
        Subject: CN=team54-client
        Subject Public Key Info:
            Public Key Algorithm: rsaEncryption
                RSA Public-Key: (2048 bit)
                Modulus:
                    00:de:50:2a:1b:38:15:34:39:08:6c:8f:e5:9a:60:
                    da:3d:5c:d5:1c:e7:14:de:96:df:99:68:a7:36:b9:
                    4e:bd:ba:41:48:e2:33:7e:14:1f:b8:98:f2:c8:f7:
                    84:a9:2f:76:2e:ee:99:05:f2:3b:fb:d6:4a:be:c6:
                    b2:39:e2:62:80:83:9f:e8:00:8a:4e:1d:47:2e:55:
                    fd:5b:2d:62:6c:49:d4:8a:49:71:aa:fd:19:63:39:
                    dc:7e:81:69:cb:07:14:67:de:7e:cb:b7:39:c1:41:
                    fd:59:98:ca:5c:90:c3:a1:03:ff:11:ae:2c:ef:06:
                    57:16:84:6c:74:31:71:ae:a3:48:b9:ec:53:bb:b0:
                    06:b1:91:5e:55:2b:93:1f:28:b8:fc:1c:43:9f:b0:
                    74:2c:5a:3a:b4:2c:a2:20:29:f5:72:82:53:96:3b:
                    08:8c:2b:b2:fe:23:df:88:44:59:61:54:00:cb:22:
                    dc:9c:5d:69:18:cf:90:82:97:fd:58:5a:7a:d6:87:
                    9d:81:fa:84:fd:d9:cb:b6:27:4f:07:97:8b:8e:6f:
                    a4:de:7e:4b:35:eb:62:94:2c:92:42:bf:7c:3e:77:
                    cd:8b:09:32:20:aa:ee:40:43:79:2c:5c:98:66:a3:
                    79:41:8d:f1:26:29:72:34:80:55:68:fc:42:59:19:
                    2e:09
                Exponent: 65537 (0x10001)
        X509v3 extensions:
            X509v3 Basic Constraints: 
                CA:FALSE
            X509v3 Subject Key Identifier: 
                28:26:17:F0:8E:00:7E:32:A1:ED:3C:20:8A:68:30:62:CC:3E:6C:A3
            X509v3 Authority Key Identifier: 
                keyid:9D:BD:00:2D:3F:CE:0E:B0:4C:80:FB:D4:8E:64:8D:15:39:33:68:B6
                DirName:/CN=team54-net
                serial:0D:BE:7B:BD:CE:8D:48:26:EB:93:7F:26:A5:6A:C8:6B:B9:51:E2:8E

            X509v3 Extended Key Usage: 
                TLS Web Client Authentication
            X509v3 Key Usage: 
                Digital Signature
    Signature Algorithm: sha256WithRSAEncryption
         d6:f5:e2:9a:fa:b8:60:e3:b2:01:af:b2:56:ef:bc:92:53:6f:
         7d:87:dd:2c:92:3a:dc:12:da:19:ae:4f:c0:f5:37:90:f6:08:
         37:18:28:fa:eb:a2:1f:35:12:d5:76:f0:a9:47:db:a7:a1:38:
         d5:d5:f0:16:2a:26:80:61:13:67:0d:ac:75:7f:18:f3:fb:32:
         ce:7c:70:d0:47:e3:8d:e4:15:a2:39:b6:44:04:0a:69:bc:1c:
         0e:c2:b3:d5:58:31:18:15:30:51:2f:6b:2d:35:91:db:30:79:
         d3:93:ae:3a:93:2d:7c:25:b5:4a:37:6c:ab:a9:7a:e2:95:3a:
         4e:74:63:eb:b3:1a:be:c6:c4:1e:8a:3d:35:0e:98:4a:d5:53:
         a5:a9:97:83:7f:50:c1:85:fa:a2:7b:d1:b1:df:a4:39:4f:17:
         75:ad:55:5d:63:b4:23:17:ea:60:94:5e:73:0f:0a:86:6e:26:
         f5:21:d7:fa:78:97:9f:7e:09:d5:3c:95:7d:dc:8b:dc:37:99:
         ba:61:af:11:b6:bb:9c:69:b8:13:44:54:85:f4:6f:ba:a9:6c:
         44:c3:a5:28:db:5b:c4:f7:7e:0d:ea:8d:07:9a:7e:58:2f:05:
         12:48:0c:fb:c9:54:bd:a1:c5:7e:9e:fa:3b:35:c7:b9:bb:9d:
         5b:a5:01:61
-----BEGIN CERTIFICATE-----
MIIDWjCCAkKgAwIBAgIRALPbjr4R+hwL4sMgX9Sc0SUwDQYJKoZIhvcNAQELBQAw
FTETMBEGA1UEAwwKdGVhbTU0LW5ldDAeFw0yMjA1MTgxNDIzMDhaFw0yNTA1MDIx
NDIzMDhaMBgxFjAUBgNVBAMMDXRlYW01NC1jbGllbnQwggEiMA0GCSqGSIb3DQEB
AQUAA4IBDwAwggEKAoIBAQDeUCobOBU0OQhsj+WaYNo9XNUc5xTelt+ZaKc2uU69
ukFI4jN+FB+4mPLI94SpL3Yu7pkF8jv71kq+xrI54mKAg5/oAIpOHUcuVf1bLWJs
SdSKSXGq/RljOdx+gWnLBxRn3n7LtznBQf1ZmMpckMOhA/8RrizvBlcWhGx0MXGu
o0i57FO7sAaxkV5VK5MfKLj8HEOfsHQsWjq0LKIgKfVyglOWOwiMK7L+I9+IRFlh
VADLItycXWkYz5CCl/1YWnrWh52B+oT92cu2J08Hl4uOb6Tefks162KULJJCv3w+
d82LCTIgqu5AQ3ksXJhmo3lBjfEmKXI0gFVo/EJZGS4JAgMBAAGjgaEwgZ4wCQYD
VR0TBAIwADAdBgNVHQ4EFgQUKCYX8I4AfjKh7TwgimgwYsw+bKMwUAYDVR0jBEkw
R4AUnb0ALT/ODrBMgPvUjmSNFTkzaLahGaQXMBUxEzARBgNVBAMMCnRlYW01NC1u
ZXSCFA2+e73OjUgm65N/JqVqyGu5UeKOMBMGA1UdJQQMMAoGCCsGAQUFBwMCMAsG
A1UdDwQEAwIHgDANBgkqhkiG9w0BAQsFAAOCAQEA1vXimvq4YOOyAa+yVu+8klNv
fYfdLJI63BLaGa5PwPU3kPYINxgo+uuiHzUS1XbwqUfbp6E41dXwFiomgGETZw2s
dX8Y8/syznxw0EfjjeQVojm2RAQKabwcDsKz1VgxGBUwUS9rLTWR2zB505OuOpMt
fCW1Sjdsq6l64pU6TnRj67MavsbEHoo9NQ6YStVTpamXg39QwYX6onvRsd+kOU8X
da1VXWO0IxfqYJRecw8Khm4m9SHX+niXn34J1TyVfdyL3DeZumGvEba7nGm4E0RU
hfRvuqlsRMOlKNtbxPd+DeqNB5p+WC8FEkgM+8lUvaHFfp76OzXHubudW6UBYQ==
-----END CERTIFICATE-----
