Certificate:
    Data:
        Version: 3 (0x2)
        Serial Number:
            b5:b9:54:69:de:e4:6a:9d:f1:b8:85:ed:dd:ce:79:5d
        Signature Algorithm: sha256WithRSAEncryption
        Issuer: CN=team54-net
        Validity
            Not Before: May 18 14:23:08 2022 GMT
            Not After : May  2 14:23:08 2025 GMT
        Subject: CN=team54-server
        Subject Public Key Info:
            Public Key Algorithm: rsaEncryption
                RSA Public-Key: (2048 bit)
                Modulus:
                    00:a2:89:24:59:05:d1:e7:7d:a8:d1:97:63:bf:51:
                    76:c0:5e:e8:77:5f:9a:81:40:44:d5:a6:a8:b2:09:
                    e5:c9:bf:54:ec:11:43:4e:ed:ee:ff:e9:85:5a:5d:
                    f3:c9:1d:37:b5:06:6e:4a:4a:54:95:ad:c7:fd:f0:
                    76:05:27:ec:06:ed:9f:4f:1a:61:18:7f:96:5d:fa:
                    e7:16:e4:81:3f:b4:fc:bc:ce:b7:14:f3:f3:4d:2a:
                    80:6a:2d:8d:37:29:b6:4a:38:65:32:40:02:41:20:
                    0b:4a:ed:33:ee:a4:ac:05:4a:07:e2:f2:4a:c0:ce:
                    a3:cb:54:de:7e:eb:47:fd:8d:01:f2:ee:54:46:6f:
                    77:db:f7:a2:72:c2:c2:cf:74:81:33:2e:8e:8e:66:
                    f0:3b:3c:ee:a0:e3:96:59:b4:e2:fe:d9:57:4e:17:
                    9d:7d:4e:97:61:85:d6:70:72:13:77:cf:74:0a:06:
                    d2:cc:7d:a5:10:c2:ca:c7:5a:a0:52:4b:9e:cd:36:
                    16:22:8b:c2:f9:4e:92:f8:36:3e:1c:55:e0:7f:97:
                    e5:04:10:04:4b:ef:bf:a8:90:88:9d:19:88:ce:3b:
                    77:cb:ce:4e:86:e7:70:e0:12:3d:c5:b8:b7:49:13:
                    af:31:82:dd:b0:a0:58:20:06:b4:60:2d:a5:33:8b:
                    cf:bf
                Exponent: 65537 (0x10001)
        X509v3 extensions:
            X509v3 Basic Constraints: 
                CA:FALSE
            X509v3 Subject Key Identifier: 
                F6:77:38:3B:F5:32:CA:16:50:09:EC:70:C8:85:DD:44:19:64:F9:5B
            X509v3 Authority Key Identifier: 
                keyid:9D:BD:00:2D:3F:CE:0E:B0:4C:80:FB:D4:8E:64:8D:15:39:33:68:B6
                DirName:/CN=team54-net
                serial:0D:BE:7B:BD:CE:8D:48:26:EB:93:7F:26:A5:6A:C8:6B:B9:51:E2:8E

            X509v3 Extended Key Usage: 
                TLS Web Server Authentication
            X509v3 Key Usage: 
                Digital Signature, Key Encipherment
            X509v3 Subject Alternative Name: 
                DNS:team54-server
    Signature Algorithm: sha256WithRSAEncryption
         36:0b:7a:1a:4f:bf:ca:bb:88:30:63:4e:ee:a5:6d:d6:b1:6e:
         59:58:d9:73:6a:7c:0f:49:40:12:e8:df:df:81:20:37:db:f7:
         0a:9b:43:a9:6a:61:4a:d8:ed:fd:19:59:cd:f8:a4:f7:90:87:
         f8:ab:3d:48:6d:7d:a1:78:55:82:e2:e0:35:00:5c:a4:3b:71:
         c9:32:ba:0a:74:2b:5c:ed:70:42:21:6b:2e:4c:d4:12:36:b0:
         4b:c6:48:76:1c:09:95:f6:04:f5:2c:57:d9:cc:a8:c6:87:02:
         b7:b6:70:77:60:fd:63:0a:82:9f:e7:07:6a:0a:34:d0:c0:9b:
         92:30:79:73:83:fb:ed:5a:03:eb:be:8d:0b:56:bb:0c:27:96:
         2f:22:d5:42:d7:7d:5c:f6:35:c6:4c:2b:f6:17:a2:d7:58:f0:
         ed:2d:3c:46:ba:c2:f4:d9:52:e8:c9:4b:23:c7:14:a2:86:d3:
         51:e2:c7:eb:b1:46:fa:41:9c:ea:92:b2:4e:a1:c2:a3:af:af:
         99:49:bd:ff:56:38:2c:94:d4:60:5f:9b:47:bd:0a:d2:0b:a3:
         c8:d2:4c:04:6a:90:7a:59:72:b8:c1:11:11:ae:9e:cd:01:91:
         e2:d4:71:c4:b9:0f:ac:76:6a:c5:38:9e:35:6c:de:cb:77:af:
         4b:11:0a:3b
-----BEGIN CERTIFICATE-----
MIIDdDCCAlygAwIBAgIRALW5VGne5Gqd8biF7d3OeV0wDQYJKoZIhvcNAQELBQAw
FTETMBEGA1UEAwwKdGVhbTU0LW5ldDAeFw0yMjA1MTgxNDIzMDhaFw0yNTA1MDIx
NDIzMDhaMBgxFjAUBgNVBAMMDXRlYW01NC1zZXJ2ZXIwggEiMA0GCSqGSIb3DQEB
AQUAA4IBDwAwggEKAoIBAQCiiSRZBdHnfajRl2O/UXbAXuh3X5qBQETVpqiyCeXJ
v1TsEUNO7e7/6YVaXfPJHTe1Bm5KSlSVrcf98HYFJ+wG7Z9PGmEYf5Zd+ucW5IE/
tPy8zrcU8/NNKoBqLY03KbZKOGUyQAJBIAtK7TPupKwFSgfi8krAzqPLVN5+60f9
jQHy7lRGb3fb96JywsLPdIEzLo6OZvA7PO6g45ZZtOL+2VdOF519TpdhhdZwchN3
z3QKBtLMfaUQwsrHWqBSS57NNhYii8L5TpL4Nj4cVeB/l+UEEARL77+okIidGYjO
O3fLzk6G53DgEj3FuLdJE68xgt2woFggBrRgLaUzi8+/AgMBAAGjgbswgbgwCQYD
VR0TBAIwADAdBgNVHQ4EFgQU9nc4O/UyyhZQCexwyIXdRBlk+VswUAYDVR0jBEkw
R4AUnb0ALT/ODrBMgPvUjmSNFTkzaLahGaQXMBUxEzARBgNVBAMMCnRlYW01NC1u
ZXSCFA2+e73OjUgm65N/JqVqyGu5UeKOMBMGA1UdJQQMMAoGCCsGAQUFBwMBMAsG
A1UdDwQEAwIFoDAYBgNVHREEETAPgg10ZWFtNTQtc2VydmVyMA0GCSqGSIb3DQEB
CwUAA4IBAQA2C3oaT7/Ku4gwY07upW3WsW5ZWNlzanwPSUAS6N/fgSA32/cKm0Op
amFK2O39GVnN+KT3kIf4qz1IbX2heFWC4uA1AFykO3HJMroKdCtc7XBCIWsuTNQS
NrBLxkh2HAmV9gT1LFfZzKjGhwK3tnB3YP1jCoKf5wdqCjTQwJuSMHlzg/vtWgPr
vo0LVrsMJ5YvItVC131c9jXGTCv2F6LXWPDtLTxGusL02VLoyUsjxxSihtNR4sfr
sUb6QZzqkrJOocKjr6+ZSb3/VjgslNRgX5tHvQrSC6PI0kwEapB6WXK4wRERrp7N
AZHi1HHEuQ+sdmrFOJ41bN7Ld69LEQo7
-----END CERTIFICATE-----
