Certificate:
    Data:
        Version: 3 (0x2)
        Serial Number:
            9f:60:2b:44:9f:e9:d4:3e:6d:12:1e:cc:35:96:a5:55
        Signature Algorithm: sha256WithRSAEncryption
        Issuer: CN=team526-net
        Validity
            Not Before: May 18 22:07:31 2022 GMT
            Not After : May  2 22:07:31 2025 GMT
        Subject: CN=team526-server
        Subject Public Key Info:
            Public Key Algorithm: rsaEncryption
                RSA Public-Key: (2048 bit)
                Modulus:
                    00:e8:df:a2:74:f4:50:ec:39:a6:8b:08:14:c2:bc:
                    0b:eb:e3:b5:77:82:7d:e3:b9:d9:bd:ed:2b:e2:05:
                    07:08:da:bc:bc:94:59:1b:78:f7:a4:d9:81:2a:a2:
                    fb:0f:17:06:b2:27:2f:d2:72:ef:8d:a7:bc:8a:a3:
                    52:e3:34:9d:70:00:5f:bc:0b:73:68:94:e3:4a:c2:
                    60:cb:01:63:73:aa:6b:a4:e0:6a:95:e8:2a:71:20:
                    1c:dc:41:30:82:d6:f9:c2:de:e4:b5:a9:e4:0c:65:
                    d4:98:4b:4e:24:48:44:6d:39:de:79:4e:4e:7d:b1:
                    f8:e6:59:fb:ba:be:7f:2f:e6:b9:eb:1d:25:dc:b6:
                    7e:66:13:b8:0a:f5:87:0b:ad:29:39:f3:55:5f:7d:
                    b8:05:f5:b3:fe:91:f4:12:f4:3a:13:9e:d2:5f:61:
                    2d:22:b8:84:ff:bd:78:07:6a:5d:c1:ed:ff:ba:db:
                    eb:59:5c:72:78:cf:bf:24:b1:96:14:78:24:9a:44:
                    00:fb:89:8e:ec:87:ad:39:57:0c:ba:07:61:11:22:
                    cc:de:14:65:aa:fa:ca:81:95:66:e2:24:76:c3:97:
                    c9:a1:16:2d:98:a0:84:ef:b7:81:31:9d:80:57:06:
                    59:36:a2:6e:4e:20:57:9d:75:58:88:e4:eb:00:77:
                    c7:bf
                Exponent: 65537 (0x10001)
        X509v3 extensions:
            X509v3 Basic Constraints: 
                CA:FALSE
            X509v3 Subject Key Identifier: 
                E3:48:DB:78:07:9C:4D:21:29:B0:B3:0A:44:FD:A1:15:9C:7C:14:5A
            X509v3 Authority Key Identifier: 
                keyid:A2:4B:66:7A:51:97:46:93:D4:1A:7C:E9:90:CD:E1:40:DB:4D:42:CA
                DirName:/CN=team526-net
                serial:09:4A:2D:18:A6:10:54:46:FA:E0:69:2A:7B:2A:05:F6:F5:63:E7:D3

            X509v3 Extended Key Usage: 
                TLS Web Server Authentication
            X509v3 Key Usage: 
                Digital Signature, Key Encipherment
            X509v3 Subject Alternative Name: 
                DNS:team526-server
    Signature Algorithm: sha256WithRSAEncryption
         b9:08:f9:05:15:64:e0:b1:67:76:b3:8d:0d:b5:19:67:b8:b4:
         af:70:ca:d3:1e:51:93:79:e1:e8:64:03:9c:3c:f0:fe:ac:90:
         a4:e9:b8:db:8f:11:7e:40:c4:06:c8:d3:ec:14:e3:d3:d9:46:
         9a:b2:ca:c7:ab:cd:30:95:10:9a:fe:f5:55:d0:0a:f3:7d:32:
         e9:22:4e:39:30:bb:be:95:ff:81:07:d3:ef:59:2a:75:fb:1f:
         bf:da:51:93:72:fa:b1:af:64:df:6c:03:c3:82:0b:da:f8:aa:
         e0:df:ee:10:2d:6c:b9:35:81:55:6c:97:38:d3:88:da:60:96:
         9b:bc:35:f8:05:0b:84:be:ac:a0:1b:8d:21:1a:90:2e:b2:29:
         94:e8:e5:1a:88:62:31:a9:34:29:5e:25:67:bc:30:90:2b:bb:
         27:49:49:29:40:68:9f:4f:9d:2a:57:80:d5:40:cc:84:97:a9:
         ea:dd:a5:91:f3:9d:4e:50:97:83:97:fb:40:86:ad:6a:dd:67:
         f4:69:9a:bc:0e:9f:55:c0:08:7c:b3:48:41:61:7c:4d:d1:66:
         e4:86:e6:de:75:b5:ad:2e:fc:f6:2c:c5:03:75:cf:95:98:64:
         1e:a4:4e:45:9e:52:c3:48:31:60:cf:7f:1f:a1:71:1f:ce:59:
         99:76:f3:61
-----BEGIN CERTIFICATE-----
MIIDeDCCAmCgAwIBAgIRAJ9gK0Sf6dQ+bRIezDWWpVUwDQYJKoZIhvcNAQELBQAw
FjEUMBIGA1UEAwwLdGVhbTUyNi1uZXQwHhcNMjIwNTE4MjIwNzMxWhcNMjUwNTAy
MjIwNzMxWjAZMRcwFQYDVQQDDA50ZWFtNTI2LXNlcnZlcjCCASIwDQYJKoZIhvcN
AQEBBQADggEPADCCAQoCggEBAOjfonT0UOw5posIFMK8C+vjtXeCfeO52b3tK+IF
BwjavLyUWRt496TZgSqi+w8XBrInL9Jy742nvIqjUuM0nXAAX7wLc2iU40rCYMsB
Y3Oqa6TgapXoKnEgHNxBMILW+cLe5LWp5Axl1JhLTiRIRG053nlOTn2x+OZZ+7q+
fy/muesdJdy2fmYTuAr1hwutKTnzVV99uAX1s/6R9BL0OhOe0l9hLSK4hP+9eAdq
XcHt/7rb61lccnjPvySxlhR4JJpEAPuJjuyHrTlXDLoHYREizN4UZar6yoGVZuIk
dsOXyaEWLZighO+3gTGdgFcGWTaibk4gV511WIjk6wB3x78CAwEAAaOBvTCBujAJ
BgNVHRMEAjAAMB0GA1UdDgQWBBTjSNt4B5xNISmwswpE/aEVnHwUWjBRBgNVHSME
SjBIgBSiS2Z6UZdGk9QafOmQzeFA201CyqEapBgwFjEUMBIGA1UEAwwLdGVhbTUy
Ni1uZXSCFAlKLRimEFRG+uBpKnsqBfb1Y+fTMBMGA1UdJQQMMAoGCCsGAQUFBwMB
MAsGA1UdDwQEAwIFoDAZBgNVHREEEjAQgg50ZWFtNTI2LXNlcnZlcjANBgkqhkiG
9w0BAQsFAAOCAQEAuQj5BRVk4LFndrONDbUZZ7i0r3DK0x5Rk3nh6GQDnDzw/qyQ
pOm4248RfkDEBsjT7BTj09lGmrLKx6vNMJUQmv71VdAK830y6SJOOTC7vpX/gQfT
71kqdfsfv9pRk3L6sa9k32wDw4IL2viq4N/uEC1suTWBVWyXONOI2mCWm7w1+AUL
hL6soBuNIRqQLrIplOjlGohiMak0KV4lZ7wwkCu7J0lJKUBon0+dKleA1UDMhJep
6t2lkfOdTlCXg5f7QIatat1n9GmavA6fVcAIfLNIQWF8TdFm5Ibm3nW1rS789izF
A3XPlZhkHqRORZ5Sw0gxYM9/H6FxH85ZmXbzYQ==
-----END CERTIFICATE-----
