Certificate:
    Data:
        Version: 3 (0x2)
        Serial Number:
            65:1b:a3:a7:fb:02:09:31:4c:f7:2e:66:a1:c5:88:68
        Signature Algorithm: sha256WithRSAEncryption
        Issuer: CN=team562-net
        Validity
            Not Before: May 18 22:25:50 2022 GMT
            Not After : May  2 22:25:50 2025 GMT
        Subject: CN=team562-client
        Subject Public Key Info:
            Public Key Algorithm: rsaEncryption
                RSA Public-Key: (2048 bit)
                Modulus:
                    00:c4:01:c7:e2:73:10:2f:95:7a:8a:79:43:43:8d:
                    51:10:74:f0:f8:5e:32:88:a2:72:d7:a7:62:bf:4e:
                    a7:ac:9b:c7:32:d0:b3:5b:80:0b:51:6f:96:1d:0b:
                    2c:25:73:9a:be:bf:8c:44:73:95:22:29:2c:81:b1:
                    74:b2:5e:87:a8:fd:17:ac:4c:2e:67:58:5b:38:6e:
                    2e:ad:da:24:c2:99:83:7d:ae:a9:74:4b:88:f9:cf:
                    9a:91:45:9c:a6:5c:30:42:55:03:33:45:ad:b4:99:
                    dc:4e:70:12:49:4d:b6:15:24:e8:51:2d:f2:86:e1:
                    3a:c1:3f:05:9f:3c:3e:24:58:40:3a:8a:97:ff:d2:
                    94:a0:ef:45:3c:92:7a:ea:0a:a7:d9:82:42:26:9b:
                    61:71:8b:36:89:0e:73:fc:1c:bc:d5:4b:7f:bd:50:
                    12:29:52:22:6d:8a:83:68:2e:3d:38:b3:59:9b:39:
                    79:f1:5d:43:c5:1e:7b:e9:bf:96:ee:3f:6c:a0:38:
                    6c:6d:5f:70:84:ca:d3:ae:24:c6:23:78:7c:62:d7:
                    70:20:09:83:12:55:0d:80:98:62:01:44:5c:a6:32:
                    d9:0a:f6:67:93:9f:b1:0f:4a:02:4b:c4:d0:81:ec:
                    0a:1c:62:12:2c:0f:fb:bd:bb:20:12:93:9e:34:e3:
                    0a:d5
                Exponent: 65537 (0x10001)
        X509v3 extensions:
            X509v3 Basic Constraints: 
                CA:FALSE
            X509v3 Subject Key Identifier: 
                F4:BD:84:4F:3A:3E:E9:69:26:FE:AD:7E:3E:5C:B7:B6:9C:1E:E5:65
            X509v3 Authority Key Identifier: 
                keyid:B2:E6:E2:14:A0:B2:B5:40:FA:8F:2B:40:51:FF:7D:F6:E2:BA:B1:8A
                DirName:/CN=team562-net
                serial:26:48:A0:D7:D8:2E:22:36:89:E0:EC:66:22:4B:EF:B1:48:41:8E:BE

            X509v3 Extended Key Usage: 
                TLS Web Client Authentication
            X509v3 Key Usage: 
                Digital Signature
    Signature Algorithm: sha256WithRSAEncryption
         5b:8d:c3:26:de:d3:ee:b8:a1:19:bc:0b:d4:7b:ae:13:11:ff:
         6c:77:e1:b1:51:e3:6e:21:ef:a4:4e:43:2a:9b:ee:e9:51:9a:
         85:61:08:52:05:0e:e3:70:aa:be:2a:45:c5:2c:00:fc:e5:07:
         55:c5:4b:5b:18:60:6a:9b:05:f4:fd:d1:b8:9d:07:e2:c5:49:
         dc:ca:65:9c:1b:d6:f1:05:69:ea:cf:1d:48:d8:d8:7b:34:ad:
         45:75:7d:50:3b:0c:a7:d0:13:78:46:0a:3e:d6:eb:5c:1e:49:
         af:fa:01:93:a4:95:25:f4:1c:13:13:0d:0b:00:5f:18:44:bc:
         12:53:15:38:4b:cf:7a:dd:69:32:6a:cd:d6:b7:70:d8:91:e2:
         e0:1c:6b:a1:1d:49:22:21:42:20:c4:17:c8:6c:79:07:0c:2b:
         ce:ef:13:6f:48:35:f0:a3:95:0b:98:a1:a1:d0:0b:1c:f7:46:
         67:99:d0:88:f1:6e:22:de:d8:69:47:a3:8e:1c:17:e8:89:49:
         5b:12:f2:aa:ad:09:79:1c:ad:a8:fc:89:c1:88:e2:45:81:75:
         8b:23:cb:53:4b:e1:1e:c8:11:f8:87:df:00:3a:eb:bf:91:10:
         76:7b:6d:76:2e:e2:09:ab:4a:0c:b3:9f:f7:8a:dd:b5:a8:84:
         6e:5c:8d:e3
-----BEGIN CERTIFICATE-----
MIIDXDCCAkSgAwIBAgIQZRujp/sCCTFM9y5mocWIaDANBgkqhkiG9w0BAQsFADAW
MRQwEgYDVQQDDAt0ZWFtNTYyLW5ldDAeFw0yMjA1MTgyMjI1NTBaFw0yNTA1MDIy
MjI1NTBaMBkxFzAVBgNVBAMMDnRlYW01NjItY2xpZW50MIIBIjANBgkqhkiG9w0B
AQEFAAOCAQ8AMIIBCgKCAQEAxAHH4nMQL5V6inlDQ41REHTw+F4yiKJy16div06n
rJvHMtCzW4ALUW+WHQssJXOavr+MRHOVIiksgbF0sl6HqP0XrEwuZ1hbOG4urdok
wpmDfa6pdEuI+c+akUWcplwwQlUDM0WttJncTnASSU22FSToUS3yhuE6wT8Fnzw+
JFhAOoqX/9KUoO9FPJJ66gqn2YJCJpthcYs2iQ5z/By81Ut/vVASKVIibYqDaC49
OLNZmzl58V1DxR576b+W7j9soDhsbV9whMrTriTGI3h8YtdwIAmDElUNgJhiAURc
pjLZCvZnk5+xD0oCS8TQgewKHGISLA/7vbsgEpOeNOMK1QIDAQABo4GiMIGfMAkG
A1UdEwQCMAAwHQYDVR0OBBYEFPS9hE86PulpJv6tfj5ct7acHuVlMFEGA1UdIwRK
MEiAFLLm4hSgsrVA+o8rQFH/ffbiurGKoRqkGDAWMRQwEgYDVQQDDAt0ZWFtNTYy
LW5ldIIUJkig19guIjaJ4OxmIkvvsUhBjr4wEwYDVR0lBAwwCgYIKwYBBQUHAwIw
CwYDVR0PBAQDAgeAMA0GCSqGSIb3DQEBCwUAA4IBAQBbjcMm3tPuuKEZvAvUe64T
Ef9sd+GxUeNuIe+kTkMqm+7pUZqFYQhSBQ7jcKq+KkXFLAD85QdVxUtbGGBqmwX0
/dG4nQfixUncymWcG9bxBWnqzx1I2Nh7NK1FdX1QOwyn0BN4Rgo+1utcHkmv+gGT
pJUl9BwTEw0LAF8YRLwSUxU4S8963Wkyas3Wt3DYkeLgHGuhHUkiIUIgxBfIbHkH
DCvO7xNvSDXwo5ULmKGh0Asc90ZnmdCI8W4i3thpR6OOHBfoiUlbEvKqrQl5HK2o
/InBiOJFgXWLI8tTS+EeyBH4h98AOuu/kRB2e212LuIJq0oMs5/3it21qIRuXI3j
-----END CERTIFICATE-----
