Certificate:
    Data:
        Version: 3 (0x2)
        Serial Number:
            ce:7a:cb:4d:b1:b8:99:53:da:87:ad:ff:bb:06:79:4d
        Signature Algorithm: sha256WithRSAEncryption
        Issuer: CN=team562-net
        Validity
            Not Before: May 18 22:25:50 2022 GMT
            Not After : May  2 22:25:50 2025 GMT
        Subject: CN=team562-server
        Subject Public Key Info:
            Public Key Algorithm: rsaEncryption
                RSA Public-Key: (2048 bit)
                Modulus:
                    00:de:f7:49:40:5a:15:b3:68:20:ee:57:62:0b:84:
                    ee:89:e4:68:a0:df:4f:a8:73:d8:17:2a:1e:c9:f0:
                    44:68:02:83:fc:ff:3d:b0:03:33:f6:16:3b:bc:ca:
                    a7:73:ac:9d:f8:b3:5d:b6:10:73:a5:03:7a:98:49:
                    3b:6a:f6:e0:5f:74:c9:3f:2b:a8:37:cc:2e:0b:81:
                    2d:b7:85:98:48:a0:32:c1:db:1c:21:a6:b5:a5:e5:
                    92:3c:a8:a5:d6:84:f5:fe:cc:59:fa:01:bb:c2:40:
                    16:32:64:0d:68:4c:69:bb:b2:90:20:0b:fc:d1:92:
                    41:db:62:41:a8:88:28:7e:09:18:b4:25:80:39:3e:
                    65:2a:ed:3f:99:9b:41:bf:a4:91:fb:1b:b1:a1:4e:
                    39:93:33:ee:49:2c:4a:22:df:11:e1:4a:ab:e4:ca:
                    90:c6:f2:dc:bf:56:a5:ce:91:87:04:8f:61:d6:c4:
                    48:62:f8:1f:91:37:79:86:68:9c:48:2e:5c:d3:07:
                    4a:bb:7a:4b:69:ff:b2:e9:e6:f6:28:c9:7c:21:7d:
                    86:dc:25:f7:70:bf:70:e5:aa:4c:1a:84:10:69:da:
                    5e:d8:e3:cf:94:92:07:90:45:d2:03:94:ae:37:f9:
                    db:11:0b:e8:0c:cf:f7:d1:0b:ff:63:6f:74:87:74:
                    f1:23
                Exponent: 65537 (0x10001)
        X509v3 extensions:
            X509v3 Basic Constraints: 
                CA:FALSE
            X509v3 Subject Key Identifier: 
                57:BA:0C:02:F6:55:42:A7:FF:66:32:8F:4B:1B:8F:C5:E7:77:9B:81
            X509v3 Authority Key Identifier: 
                keyid:B2:E6:E2:14:A0:B2:B5:40:FA:8F:2B:40:51:FF:7D:F6:E2:BA:B1:8A
                DirName:/CN=team562-net
                serial:26:48:A0:D7:D8:2E:22:36:89:E0:EC:66:22:4B:EF:B1:48:41:8E:BE

            X509v3 Extended Key Usage: 
                TLS Web Server Authentication
            X509v3 Key Usage: 
                Digital Signature, Key Encipherment
            X509v3 Subject Alternative Name: 
                DNS:team562-server
    Signature Algorithm: sha256WithRSAEncryption
         bb:23:d7:3b:bc:b4:0a:70:db:be:6d:0b:03:5a:a8:62:dd:ef:
         70:e8:c7:08:05:80:1d:ab:cf:f5:cb:a4:75:e9:e8:e7:7a:b8:
         f6:dc:30:28:fd:78:ba:72:dd:07:88:ef:53:cd:a7:c7:2b:e7:
         a2:e2:6a:fa:ad:f2:c3:d2:03:e1:82:f8:cc:6e:2c:9e:cf:f9:
         b7:ae:bd:9b:98:5b:f6:0f:cf:3f:15:5e:b6:59:34:bb:95:f7:
         c4:38:17:a9:38:21:49:70:62:cf:68:36:24:6e:da:de:56:6c:
         d6:4d:c6:01:cd:78:41:cd:3d:cd:3f:67:5b:81:49:04:cd:43:
         43:38:04:09:8d:e6:d4:90:34:e3:57:84:4f:fe:c8:4c:9e:99:
         ad:27:92:04:2d:5e:bc:b1:20:a7:39:67:a7:b5:e4:cf:4c:24:
         34:0d:ae:66:e6:eb:36:32:3f:ca:8f:a0:76:8b:5e:86:45:bb:
         57:5a:49:85:3f:58:e1:3f:a6:3d:7e:42:f5:b0:fd:94:0a:6e:
         32:42:89:2c:b9:31:66:5d:69:21:d4:95:46:57:81:2d:84:43:
         25:10:15:4d:28:56:11:7a:b8:f1:0a:9e:af:9f:95:6a:f2:a7:
         fd:c0:97:7a:f2:f1:45:5a:89:f1:fc:27:ee:46:cf:56:81:ec:
         30:79:9a:5c
-----BEGIN CERTIFICATE-----
MIIDeDCCAmCgAwIBAgIRAM56y02xuJlT2oet/7sGeU0wDQYJKoZIhvcNAQELBQAw
FjEUMBIGA1UEAwwLdGVhbTU2Mi1uZXQwHhcNMjIwNTE4MjIyNTUwWhcNMjUwNTAy
MjIyNTUwWjAZMRcwFQYDVQQDDA50ZWFtNTYyLXNlcnZlcjCCASIwDQYJKoZIhvcN
AQEBBQADggEPADCCAQoCggEBAN73SUBaFbNoIO5XYguE7onkaKDfT6hz2BcqHsnw
RGgCg/z/PbADM/YWO7zKp3OsnfizXbYQc6UDephJO2r24F90yT8rqDfMLguBLbeF
mEigMsHbHCGmtaXlkjyopdaE9f7MWfoBu8JAFjJkDWhMabuykCAL/NGSQdtiQaiI
KH4JGLQlgDk+ZSrtP5mbQb+kkfsbsaFOOZMz7kksSiLfEeFKq+TKkMby3L9Wpc6R
hwSPYdbESGL4H5E3eYZonEguXNMHSrt6S2n/sunm9ijJfCF9htwl93C/cOWqTBqE
EGnaXtjjz5SSB5BF0gOUrjf52xEL6AzP99EL/2NvdId08SMCAwEAAaOBvTCBujAJ
BgNVHRMEAjAAMB0GA1UdDgQWBBRXugwC9lVCp/9mMo9LG4/F53ebgTBRBgNVHSME
SjBIgBSy5uIUoLK1QPqPK0BR/3324rqxiqEapBgwFjEUMBIGA1UEAwwLdGVhbTU2
Mi1uZXSCFCZIoNfYLiI2ieDsZiJL77FIQY6+MBMGA1UdJQQMMAoGCCsGAQUFBwMB
MAsGA1UdDwQEAwIFoDAZBgNVHREEEjAQgg50ZWFtNTYyLXNlcnZlcjANBgkqhkiG
9w0BAQsFAAOCAQEAuyPXO7y0CnDbvm0LA1qoYt3vcOjHCAWAHavP9cukdeno53q4
9twwKP14unLdB4jvU82nxyvnouJq+q3yw9ID4YL4zG4sns/5t669m5hb9g/PPxVe
tlk0u5X3xDgXqTghSXBiz2g2JG7a3lZs1k3GAc14Qc09zT9nW4FJBM1DQzgECY3m
1JA041eET/7ITJ6ZrSeSBC1evLEgpzlnp7Xkz0wkNA2uZubrNjI/yo+gdotehkW7
V1pJhT9Y4T+mPX5C9bD9lApuMkKJLLkxZl1pIdSVRleBLYRDJRAVTShWEXq48Qqe
r5+VavKn/cCXevLxRVqJ8fwn7kbPVoHsMHmaXA==
-----END CERTIFICATE-----
