Certificate:
    Data:
        Version: 3 (0x2)
        Serial Number:
            8c:7e:5e:ee:e5:c0:5c:93:09:b4:47:fb:49:33:62:5b
        Signature Algorithm: sha256WithRSAEncryption
        Issuer: CN=team516-net
        Validity
            Not Before: May 18 22:01:11 2022 GMT
            Not After : May  2 22:01:11 2025 GMT
        Subject: CN=team516-client
        Subject Public Key Info:
            Public Key Algorithm: rsaEncryption
                RSA Public-Key: (2048 bit)
                Modulus:
                    00:a2:2f:c3:2d:9e:7f:c6:a1:0a:ac:0b:53:b4:43:
                    f9:de:ef:ee:c7:56:70:47:ee:84:ab:18:c0:a4:93:
                    46:36:10:66:4b:30:87:83:6d:88:0e:df:77:62:a1:
                    19:70:58:ac:31:43:7e:9d:6c:5c:10:cc:e0:23:83:
                    be:a3:e3:bb:70:3d:6d:a4:3b:d3:16:4d:e9:67:95:
                    37:09:53:61:37:02:bc:fa:7c:22:c5:6b:89:47:b2:
                    02:06:b3:06:72:df:22:e8:3b:fe:e0:49:04:5f:8b:
                    06:bd:b4:9e:75:ce:3b:32:86:14:f1:33:1e:b4:1f:
                    34:6f:a0:ce:4d:25:4a:21:7a:bc:75:fe:1d:81:56:
                    49:c8:28:19:28:da:20:88:5a:cd:46:67:e4:20:98:
                    8a:66:13:6d:90:00:31:d2:44:b7:5f:56:b2:df:d5:
                    42:02:af:2c:15:37:38:78:52:27:19:3a:3e:2b:13:
                    86:c0:32:08:f2:3c:eb:68:0f:28:67:3f:1e:c7:c3:
                    ea:e3:5a:94:19:d4:03:fe:78:00:b9:97:69:bf:02:
                    47:da:35:58:3f:b6:ba:88:b4:8c:91:6b:2c:a6:e0:
                    77:c3:f3:cb:81:2c:47:f8:be:87:9b:52:23:81:78:
                    1b:a8:68:b6:a6:17:ad:58:a3:39:6c:85:6f:44:69:
                    2c:83
                Exponent: 65537 (0x10001)
        X509v3 extensions:
            X509v3 Basic Constraints: 
                CA:FALSE
            X509v3 Subject Key Identifier: 
                45:49:80:A4:0C:B7:99:C3:78:0A:1A:D1:77:68:37:1A:40:63:80:86
            X509v3 Authority Key Identifier: 
                keyid:4D:EB:03:85:7E:DE:CB:4F:DF:88:49:04:83:FD:DA:33:E3:1C:90:C7
                DirName:/CN=team516-net
                serial:53:15:BE:B6:3E:8A:27:D5:28:D4:CF:CD:6F:54:F9:CA:1B:62:F9:CA

            X509v3 Extended Key Usage: 
                TLS Web Client Authentication
            X509v3 Key Usage: 
                Digital Signature
    Signature Algorithm: sha256WithRSAEncryption
         6c:0d:19:45:7f:72:ce:f3:04:86:b2:f7:5e:95:07:a7:4e:c9:
         29:00:68:1e:e9:7d:7f:6a:03:c1:e1:3b:ad:dd:3f:76:69:13:
         cc:2a:7e:52:70:ed:68:7c:b3:29:91:74:2c:b2:60:a6:5f:26:
         5f:83:0d:e5:fb:aa:3a:48:b7:f6:2a:bc:45:de:fe:f7:d2:9d:
         7c:c4:e6:bc:29:e2:85:79:9f:00:94:3c:8d:93:4c:8c:d4:64:
         bc:59:0b:a1:af:32:4e:c1:c3:50:56:5d:64:b0:b0:18:34:42:
         c8:05:68:0c:fb:dd:3a:24:c4:68:63:64:0f:98:25:bb:03:b2:
         50:35:eb:8e:d0:d9:4a:1a:c3:37:c3:76:74:40:18:e9:ba:7e:
         ce:10:63:7e:10:84:5a:de:1c:88:62:3d:dc:79:de:ab:16:07:
         b3:ce:2c:71:49:a6:dd:66:4d:c5:c3:ba:4c:1f:dd:54:35:4c:
         e3:b0:f6:57:0b:aa:c1:6d:5f:cb:a9:ba:13:9c:82:39:a7:14:
         7b:14:a4:f7:99:62:69:d2:49:60:26:35:24:8f:29:b8:65:90:
         ac:59:62:2c:a3:36:18:86:de:c0:7f:2d:62:08:de:02:72:a7:
         24:a4:32:f6:00:c8:a8:6b:f9:b3:f1:e6:14:78:e1:c1:9b:36:
         85:6c:30:d3
-----BEGIN CERTIFICATE-----
MIIDXTCCAkWgAwIBAgIRAIx+Xu7lwFyTCbRH+0kzYlswDQYJKoZIhvcNAQELBQAw
FjEUMBIGA1UEAwwLdGVhbTUxNi1uZXQwHhcNMjIwNTE4MjIwMTExWhcNMjUwNTAy
MjIwMTExWjAZMRcwFQYDVQQDDA50ZWFtNTE2LWNsaWVudDCCASIwDQYJKoZIhvcN
AQEBBQADggEPADCCAQoCggEBAKIvwy2ef8ahCqwLU7RD+d7v7sdWcEfuhKsYwKST
RjYQZkswh4NtiA7fd2KhGXBYrDFDfp1sXBDM4CODvqPju3A9baQ70xZN6WeVNwlT
YTcCvPp8IsVriUeyAgazBnLfIug7/uBJBF+LBr20nnXOOzKGFPEzHrQfNG+gzk0l
SiF6vHX+HYFWScgoGSjaIIhazUZn5CCYimYTbZAAMdJEt19Wst/VQgKvLBU3OHhS
Jxk6PisThsAyCPI862gPKGc/HsfD6uNalBnUA/54ALmXab8CR9o1WD+2uoi0jJFr
LKbgd8Pzy4EsR/i+h5tSI4F4G6hotqYXrVijOWyFb0RpLIMCAwEAAaOBojCBnzAJ
BgNVHRMEAjAAMB0GA1UdDgQWBBRFSYCkDLeZw3gKGtF3aDcaQGOAhjBRBgNVHSME
SjBIgBRN6wOFft7LT9+ISQSD/doz4xyQx6EapBgwFjEUMBIGA1UEAwwLdGVhbTUx
Ni1uZXSCFFMVvrY+iifVKNTPzW9U+cobYvnKMBMGA1UdJQQMMAoGCCsGAQUFBwMC
MAsGA1UdDwQEAwIHgDANBgkqhkiG9w0BAQsFAAOCAQEAbA0ZRX9yzvMEhrL3XpUH
p07JKQBoHul9f2oDweE7rd0/dmkTzCp+UnDtaHyzKZF0LLJgpl8mX4MN5fuqOki3
9iq8Rd7+99KdfMTmvCnihXmfAJQ8jZNMjNRkvFkLoa8yTsHDUFZdZLCwGDRCyAVo
DPvdOiTEaGNkD5gluwOyUDXrjtDZShrDN8N2dEAY6bp+zhBjfhCEWt4ciGI93Hne
qxYHs84scUmm3WZNxcO6TB/dVDVM47D2VwuqwW1fy6m6E5yCOacUexSk95liadJJ
YCY1JI8puGWQrFliLKM2GIbewH8tYgjeAnKnJKQy9gDIqGv5s/HmFHjhwZs2hWww
0w==
-----END CERTIFICATE-----
