Certificate:
    Data:
        Version: 3 (0x2)
        Serial Number:
            3b:b1:08:63:a3:c5:cd:3b:f6:c7:bc:eb:28:ee:63:0b
        Signature Algorithm: sha256WithRSAEncryption
        Issuer: CN=team530-net
        Validity
            Not Before: May 18 22:09:11 2022 GMT
            Not After : May  2 22:09:11 2025 GMT
        Subject: CN=team530-client
        Subject Public Key Info:
            Public Key Algorithm: rsaEncryption
                RSA Public-Key: (2048 bit)
                Modulus:
                    00:a3:3e:68:85:cd:f1:1a:d4:f7:7b:3b:4c:4b:47:
                    d5:21:2d:3c:5e:63:08:e4:7f:c2:18:77:cb:ce:43:
                    39:ed:b0:93:2a:d4:ee:d8:7a:6e:33:16:88:cb:71:
                    71:62:94:a8:05:40:10:53:cd:be:29:a9:70:56:7d:
                    a5:b9:90:b6:81:5d:af:c3:33:f6:f1:7b:79:3d:70:
                    48:ee:ac:cc:fa:e8:7f:80:7a:1e:a3:55:cc:47:e4:
                    6e:70:4b:f1:b8:1a:97:53:ed:b9:06:87:00:b1:d0:
                    50:8d:81:b9:82:49:aa:d8:b4:0f:95:3d:85:07:c7:
                    0f:76:e6:37:a7:8d:9a:24:b2:a3:33:82:dd:87:93:
                    4f:06:4d:56:35:51:e2:6a:25:29:de:ba:83:db:46:
                    7b:55:6f:85:23:62:e8:9c:a5:06:dc:f7:33:ca:05:
                    8a:d6:60:36:8e:37:eb:fc:16:3b:66:f2:d0:b1:6d:
                    64:a8:13:bb:34:a3:c9:1b:36:6d:8a:ab:31:6b:34:
                    d8:54:47:34:55:83:ff:c6:a2:63:6b:2d:c6:f4:1a:
                    ae:de:df:ce:9d:ea:58:6b:3d:db:b3:2e:62:e7:cf:
                    9a:88:64:21:e9:99:44:10:2d:d9:31:8a:3f:29:62:
                    6a:40:7c:1b:9c:34:36:45:3c:74:41:8e:5b:85:fa:
                    ed:ab
                Exponent: 65537 (0x10001)
        X509v3 extensions:
            X509v3 Basic Constraints: 
                CA:FALSE
            X509v3 Subject Key Identifier: 
                CA:44:87:DF:74:D3:F1:59:F3:17:87:7F:6C:CD:E5:D9:CD:1C:87:93
            X509v3 Authority Key Identifier: 
                keyid:BE:97:EB:DE:A9:D7:A7:97:47:0B:DF:02:D7:82:62:DE:A5:4C:24:E0
                DirName:/CN=team530-net
                serial:54:5B:E3:D6:D1:7B:35:75:5D:AA:3C:3F:50:23:E1:50:BA:9F:0E:5F

            X509v3 Extended Key Usage: 
                TLS Web Client Authentication
            X509v3 Key Usage: 
                Digital Signature
    Signature Algorithm: sha256WithRSAEncryption
         09:00:32:96:c9:7c:38:67:f0:0e:a9:c3:7a:77:f8:65:df:03:
         cf:bc:a6:6f:64:f5:ac:60:95:91:b9:f3:97:2e:47:be:fa:b0:
         3f:c5:7d:87:cd:8a:59:96:3a:75:5e:85:9e:07:dc:06:58:4f:
         5a:40:33:75:0e:4c:54:f8:1f:db:f0:3b:81:c6:bf:81:20:bf:
         f9:e4:e1:47:d9:06:d1:65:25:19:ea:3d:5b:ce:8a:e5:e2:8a:
         a2:c0:82:cd:a6:09:5d:37:22:de:ac:19:9d:d1:e9:39:4b:fe:
         5b:e6:fd:3c:f6:84:7f:a0:c6:d8:bd:a3:8c:01:ae:fd:27:e9:
         11:4d:19:ba:59:2c:0d:33:b9:fa:b5:44:cf:dc:fb:5a:fa:be:
         bc:66:4c:10:8e:a9:27:65:07:84:f4:0d:68:d8:f0:a0:11:b5:
         72:02:6d:cb:a8:3d:2b:7d:7a:34:0d:7b:fb:97:0d:84:9a:fc:
         66:fb:5e:4a:a0:d6:27:e7:54:e1:43:29:66:29:54:1f:4d:cf:
         2f:55:d5:4c:24:c0:d2:4a:01:d4:84:fc:0a:25:13:28:8f:aa:
         af:48:ed:b3:6e:49:b4:7a:a8:d4:5a:7f:c9:46:6c:6e:f6:e2:
         c8:73:cd:c3:6e:11:73:9e:ba:ee:c8:f6:be:9a:6a:cb:f4:4e:
         82:1b:ae:ae
-----BEGIN CERTIFICATE-----
MIIDXDCCAkSgAwIBAgIQO7EIY6PFzTv2x7zrKO5jCzANBgkqhkiG9w0BAQsFADAW
MRQwEgYDVQQDDAt0ZWFtNTMwLW5ldDAeFw0yMjA1MTgyMjA5MTFaFw0yNTA1MDIy
MjA5MTFaMBkxFzAVBgNVBAMMDnRlYW01MzAtY2xpZW50MIIBIjANBgkqhkiG9w0B
AQEFAAOCAQ8AMIIBCgKCAQEAoz5ohc3xGtT3eztMS0fVIS08XmMI5H/CGHfLzkM5
7bCTKtTu2HpuMxaIy3FxYpSoBUAQU82+KalwVn2luZC2gV2vwzP28Xt5PXBI7qzM
+uh/gHoeo1XMR+RucEvxuBqXU+25BocAsdBQjYG5gkmq2LQPlT2FB8cPduY3p42a
JLKjM4Ldh5NPBk1WNVHiaiUp3rqD20Z7VW+FI2LonKUG3PczygWK1mA2jjfr/BY7
ZvLQsW1kqBO7NKPJGzZtiqsxazTYVEc0VYP/xqJjay3G9Bqu3t/OnepYaz3bsy5i
58+aiGQh6ZlEEC3ZMYo/KWJqQHwbnDQ2RTx0QY5bhfrtqwIDAQABo4GiMIGfMAkG
A1UdEwQCMAAwHQYDVR0OBBYEFMpEh9900/FZ8xeHf2zN5dnNHIeTMFEGA1UdIwRK
MEiAFL6X696p16eXRwvfAteCYt6lTCTgoRqkGDAWMRQwEgYDVQQDDAt0ZWFtNTMw
LW5ldIIUVFvj1tF7NXVdqjw/UCPhULqfDl8wEwYDVR0lBAwwCgYIKwYBBQUHAwIw
CwYDVR0PBAQDAgeAMA0GCSqGSIb3DQEBCwUAA4IBAQAJADKWyXw4Z/AOqcN6d/hl
3wPPvKZvZPWsYJWRufOXLke++rA/xX2HzYpZljp1XoWeB9wGWE9aQDN1DkxU+B/b
8DuBxr+BIL/55OFH2QbRZSUZ6j1bzorl4oqiwILNpgldNyLerBmd0ek5S/5b5v08
9oR/oMbYvaOMAa79J+kRTRm6WSwNM7n6tUTP3Pta+r68ZkwQjqknZQeE9A1o2PCg
EbVyAm3LqD0rfXo0DXv7lw2Emvxm+15KoNYn51ThQylmKVQfTc8vVdVMJMDSSgHU
hPwKJRMoj6qvSO2zbkm0eqjUWn/JRmxu9uLIc83DbhFznrruyPa+mmrL9E6CG66u
-----END CERTIFICATE-----
