Certificate:
    Data:
        Version: 3 (0x2)
        Serial Number:
            a2:41:0c:fa:5e:0a:b1:1b:4f:42:e7:23:29:3e:bd:3d
        Signature Algorithm: sha256WithRSAEncryption
        Issuer: CN=team746-net
        Validity
            Not Before: May 19 00:02:11 2022 GMT
            Not After : May  3 00:02:11 2025 GMT
        Subject: CN=team746-client
        Subject Public Key Info:
            Public Key Algorithm: rsaEncryption
                RSA Public-Key: (2048 bit)
                Modulus:
                    00:c6:eb:bf:3c:45:65:23:ed:da:32:4d:8f:cf:d3:
                    de:39:4f:14:55:7c:1e:34:e1:12:07:80:10:82:87:
                    87:17:38:0b:bf:29:dc:2a:c5:bf:b1:f3:dc:dc:8b:
                    34:49:4f:79:08:15:76:fc:c8:0d:3e:02:4c:94:4e:
                    f8:f0:3a:0a:98:e1:89:0a:57:0a:7a:1c:a4:79:5e:
                    e8:ad:d9:94:86:0e:c2:09:0c:19:4d:58:80:f4:19:
                    18:76:2b:35:b0:4d:c2:41:cf:dd:1f:96:91:2b:79:
                    c0:1b:1a:aa:a9:e6:14:51:34:7d:a3:1c:bc:72:63:
                    96:98:17:6c:ea:ce:5a:a9:c2:85:8c:7f:ed:39:80:
                    85:47:ad:a9:db:5c:74:c6:7a:1a:a0:87:0e:db:26:
                    78:d7:f6:85:42:b1:ee:aa:f0:40:3a:3d:bc:b2:87:
                    b6:d3:39:af:ed:8f:86:bb:6b:7c:b6:07:9a:d8:1f:
                    65:7a:19:ee:20:2b:5b:1b:a1:a9:b8:00:5e:8e:94:
                    e4:99:67:3f:eb:9e:46:cf:46:d8:13:ab:05:41:0e:
                    fb:8a:99:a3:c3:21:f2:ef:95:c7:15:93:9c:bb:bc:
                    9d:29:47:ee:d3:b5:77:98:7a:20:5f:c1:22:c4:b0:
                    d3:95:f6:87:ed:a5:cf:bb:93:72:d6:71:51:76:86:
                    4e:3d
                Exponent: 65537 (0x10001)
        X509v3 extensions:
            X509v3 Basic Constraints: 
                CA:FALSE
            X509v3 Subject Key Identifier: 
                F9:F2:DA:D5:B1:78:A6:DC:43:70:C4:0A:96:49:E9:7C:19:F5:9C:F5
            X509v3 Authority Key Identifier: 
                keyid:81:0F:13:92:D8:91:32:07:42:7A:2E:41:08:B6:54:D7:A2:63:79:D7
                DirName:/CN=team746-net
                serial:04:4C:77:52:C7:E6:E7:B5:7B:B1:8B:21:1A:C0:20:5C:C3:3E:E8:8F

            X509v3 Extended Key Usage: 
                TLS Web Client Authentication
            X509v3 Key Usage: 
                Digital Signature
    Signature Algorithm: sha256WithRSAEncryption
         66:7d:1f:6c:f4:e1:92:6d:9b:05:8f:46:74:bb:b8:41:31:66:
         0e:a5:ac:96:eb:89:97:81:c4:cf:a1:08:60:ee:a5:11:fc:b4:
         20:d1:2d:8a:da:c8:29:73:f4:4f:ac:38:15:0d:ad:bc:c7:dd:
         43:d6:ec:5b:0a:bd:9f:3a:5b:24:47:0f:12:a3:38:1f:8c:d1:
         ce:08:5b:eb:5e:78:52:49:67:81:5a:22:d9:c3:ef:b2:31:f6:
         6c:d8:2e:b6:9f:be:fd:77:3c:47:2d:a5:82:2b:28:19:3f:c5:
         e1:6c:7e:72:6a:f1:9a:0c:16:3b:98:64:e6:58:91:65:97:f9:
         0a:99:b0:31:c3:97:dd:93:a0:de:72:26:88:e8:bc:ff:3f:2c:
         ad:c9:da:e1:3a:72:32:93:37:60:6a:02:98:45:59:2a:31:91:
         fc:8b:49:27:e6:70:7e:32:41:91:47:43:57:08:c0:b0:c7:0e:
         35:48:71:b4:fe:86:5a:1f:e9:26:bb:b9:6d:0c:9a:7f:74:32:
         5f:7d:33:19:01:54:38:14:2b:93:da:c1:85:64:2a:5b:2b:f8:
         76:cd:df:f3:bd:03:e0:a8:82:61:39:d4:45:4a:8f:9c:88:27:
         98:64:90:ca:ed:e2:a1:aa:31:05:7d:98:1b:76:cb:ab:bd:fd:
         39:ff:41:91
-----BEGIN CERTIFICATE-----
MIIDXTCCAkWgAwIBAgIRAKJBDPpeCrEbT0LnIyk+vT0wDQYJKoZIhvcNAQELBQAw
FjEUMBIGA1UEAwwLdGVhbTc0Ni1uZXQwHhcNMjIwNTE5MDAwMjExWhcNMjUwNTAz
MDAwMjExWjAZMRcwFQYDVQQDDA50ZWFtNzQ2LWNsaWVudDCCASIwDQYJKoZIhvcN
AQEBBQADggEPADCCAQoCggEBAMbrvzxFZSPt2jJNj8/T3jlPFFV8HjThEgeAEIKH
hxc4C78p3CrFv7Hz3NyLNElPeQgVdvzIDT4CTJRO+PA6CpjhiQpXCnocpHle6K3Z
lIYOwgkMGU1YgPQZGHYrNbBNwkHP3R+WkSt5wBsaqqnmFFE0faMcvHJjlpgXbOrO
WqnChYx/7TmAhUetqdtcdMZ6GqCHDtsmeNf2hUKx7qrwQDo9vLKHttM5r+2Phrtr
fLYHmtgfZXoZ7iArWxuhqbgAXo6U5JlnP+ueRs9G2BOrBUEO+4qZo8Mh8u+VxxWT
nLu8nSlH7tO1d5h6IF/BIsSw05X2h+2lz7uTctZxUXaGTj0CAwEAAaOBojCBnzAJ
BgNVHRMEAjAAMB0GA1UdDgQWBBT58trVsXim3ENwxAqWSel8GfWc9TBRBgNVHSME
SjBIgBSBDxOS2JEyB0J6LkEItlTXomN516EapBgwFjEUMBIGA1UEAwwLdGVhbTc0
Ni1uZXSCFARMd1LH5ue1e7GLIRrAIFzDPuiPMBMGA1UdJQQMMAoGCCsGAQUFBwMC
MAsGA1UdDwQEAwIHgDANBgkqhkiG9w0BAQsFAAOCAQEAZn0fbPThkm2bBY9GdLu4
QTFmDqWsluuJl4HEz6EIYO6lEfy0INEtitrIKXP0T6w4FQ2tvMfdQ9bsWwq9nzpb
JEcPEqM4H4zRzghb6154UklngVoi2cPvsjH2bNgutp++/Xc8Ry2lgisoGT/F4Wx+
cmrxmgwWO5hk5liRZZf5CpmwMcOX3ZOg3nImiOi8/z8srcna4TpyMpM3YGoCmEVZ
KjGR/ItJJ+ZwfjJBkUdDVwjAsMcONUhxtP6GWh/pJru5bQyaf3QyX30zGQFUOBQr
k9rBhWQqWyv4ds3f870D4KiCYTnURUqPnIgnmGSQyu3ioaoxBX2YG3bLq739Of9B
kQ==
-----END CERTIFICATE-----
