Certificate:
    Data:
        Version: 3 (0x2)
        Serial Number:
            96:a2:aa:7f:c0:26:a5:c9:9c:05:01:27:f9:83:f2:78
        Signature Algorithm: sha256WithRSAEncryption
        Issuer: CN=team64-net
        Validity
            Not Before: May 18 14:27:57 2022 GMT
            Not After : May  2 14:27:57 2025 GMT
        Subject: CN=team64-client
        Subject Public Key Info:
            Public Key Algorithm: rsaEncryption
                RSA Public-Key: (2048 bit)
                Modulus:
                    00:e2:b1:a9:c6:fa:63:41:d9:78:46:73:f9:85:b7:
                    26:98:56:27:07:5f:12:fb:23:8d:77:cf:49:0a:b1:
                    90:07:ae:b2:a8:98:a4:61:05:a0:6f:65:8b:51:bb:
                    18:7d:f1:f2:07:55:b3:e1:13:df:35:21:0a:71:49:
                    45:10:89:44:8d:50:f8:17:e8:fb:ae:34:53:19:70:
                    33:6a:b8:8c:f2:5d:2d:2a:60:3a:cb:8b:d2:8e:5d:
                    13:62:8e:6c:93:09:bc:f7:31:80:33:de:8c:70:5a:
                    a4:4c:8d:8a:f6:da:9a:eb:e9:7d:8e:b1:0e:97:0d:
                    03:bc:a2:e9:0f:bd:f1:5f:d0:db:bf:1a:08:1e:0c:
                    86:2a:45:1d:53:0f:58:68:34:31:94:50:0f:e2:72:
                    ff:3f:a7:70:30:64:64:b9:0b:9a:6a:ee:7c:16:c2:
                    87:25:16:62:7d:3b:47:e4:77:ef:9b:47:87:de:9b:
                    5b:f8:a7:58:e8:03:12:3c:d6:00:1c:bc:7c:df:25:
                    54:ac:d0:dd:f6:a0:95:fa:67:0f:54:ce:8b:40:15:
                    3b:73:4c:4e:c4:cd:c8:75:3b:35:80:66:70:20:e1:
                    78:05:e0:2f:23:ec:eb:4a:c0:26:0e:5a:dd:e0:88:
                    b4:29:2b:47:2c:16:db:6e:eb:08:4e:4a:a3:9b:1d:
                    38:f9
                Exponent: 65537 (0x10001)
        X509v3 extensions:
            X509v3 Basic Constraints: 
                CA:FALSE
            X509v3 Subject Key Identifier: 
                FA:5A:25:96:44:4C:84:E6:66:BD:2A:44:96:8A:EA:F3:6E:10:CA:8E
            X509v3 Authority Key Identifier: 
                keyid:7B:84:58:8A:C7:AD:EC:1D:46:42:3D:7F:6A:F3:DE:9F:AB:38:3C:67
                DirName:/CN=team64-net
                serial:7A:CA:C1:D2:B9:C8:7C:CD:62:7D:B1:05:FB:41:37:88:55:E7:8E:DD

            X509v3 Extended Key Usage: 
                TLS Web Client Authentication
            X509v3 Key Usage: 
                Digital Signature
    Signature Algorithm: sha256WithRSAEncryption
         22:0c:1f:e1:f4:c4:9e:2c:48:33:94:8f:d4:1f:b7:0b:e9:f9:
         3d:1c:2d:b8:5a:d4:65:19:43:13:ce:f8:7f:b6:e0:d0:12:2a:
         35:99:5e:c0:96:c7:bf:c3:ad:f4:d5:39:ac:80:80:9b:d4:02:
         cd:ed:14:b3:ae:34:5b:33:18:18:7e:46:e0:49:9a:3e:8b:19:
         5c:aa:b5:c5:53:39:3c:e1:2b:cc:a4:2e:ad:0b:75:ce:05:eb:
         2a:90:29:6c:b0:fa:2f:89:49:04:01:19:df:53:f8:f4:95:9a:
         3d:24:6b:92:f4:ec:1e:ac:7e:b1:b9:65:90:65:56:33:48:1d:
         de:34:76:12:72:7c:d0:94:08:25:ca:e5:a0:6f:7f:a5:ae:bf:
         a0:36:13:b1:7d:85:dc:73:8f:b7:f6:5c:91:0f:0e:fa:b0:4c:
         94:a1:44:a9:67:44:82:20:ea:73:9e:7b:a7:11:2d:9a:73:f3:
         98:5f:65:32:89:c0:b6:91:3e:25:0d:1c:0c:e2:ed:3e:90:8e:
         27:6f:aa:39:a9:cc:d2:d8:9b:49:0a:ab:04:19:5e:18:79:97:
         68:cc:b7:f7:8b:37:d3:d4:a1:97:df:2e:94:ef:fc:6c:b2:98:
         0c:28:12:6a:8e:ff:cd:74:1f:6a:af:2e:e1:3b:e3:3d:3b:d5:
         75:ad:5b:49
-----BEGIN CERTIFICATE-----
MIIDWjCCAkKgAwIBAgIRAJaiqn/AJqXJnAUBJ/mD8ngwDQYJKoZIhvcNAQELBQAw
FTETMBEGA1UEAwwKdGVhbTY0LW5ldDAeFw0yMjA1MTgxNDI3NTdaFw0yNTA1MDIx
NDI3NTdaMBgxFjAUBgNVBAMMDXRlYW02NC1jbGllbnQwggEiMA0GCSqGSIb3DQEB
AQUAA4IBDwAwggEKAoIBAQDisanG+mNB2XhGc/mFtyaYVicHXxL7I413z0kKsZAH
rrKomKRhBaBvZYtRuxh98fIHVbPhE981IQpxSUUQiUSNUPgX6PuuNFMZcDNquIzy
XS0qYDrLi9KOXRNijmyTCbz3MYAz3oxwWqRMjYr22prr6X2OsQ6XDQO8oukPvfFf
0Nu/GggeDIYqRR1TD1hoNDGUUA/icv8/p3AwZGS5C5pq7nwWwoclFmJ9O0fkd++b
R4fem1v4p1joAxI81gAcvHzfJVSs0N32oJX6Zw9UzotAFTtzTE7Ezch1OzWAZnAg
4XgF4C8j7OtKwCYOWt3giLQpK0csFttu6whOSqObHTj5AgMBAAGjgaEwgZ4wCQYD
VR0TBAIwADAdBgNVHQ4EFgQU+lollkRMhOZmvSpElorq824Qyo4wUAYDVR0jBEkw
R4AUe4RYiset7B1GQj1/avPen6s4PGehGaQXMBUxEzARBgNVBAMMCnRlYW02NC1u
ZXSCFHrKwdK5yHzNYn2xBftBN4hV547dMBMGA1UdJQQMMAoGCCsGAQUFBwMCMAsG
A1UdDwQEAwIHgDANBgkqhkiG9w0BAQsFAAOCAQEAIgwf4fTEnixIM5SP1B+3C+n5
PRwtuFrUZRlDE874f7bg0BIqNZlewJbHv8Ot9NU5rICAm9QCze0Us640WzMYGH5G
4EmaPosZXKq1xVM5POErzKQurQt1zgXrKpApbLD6L4lJBAEZ31P49JWaPSRrkvTs
Hqx+sbllkGVWM0gd3jR2EnJ80JQIJcrloG9/pa6/oDYTsX2F3HOPt/ZckQ8O+rBM
lKFEqWdEgiDqc557pxEtmnPzmF9lMonAtpE+JQ0cDOLtPpCOJ2+qOanM0tibSQqr
BBleGHmXaMy394s309Shl98ulO/8bLKYDCgSao7/zXQfaq8u4TvjPTvVda1bSQ==
-----END CERTIFICATE-----
