Certificate:
    Data:
        Version: 3 (0x2)
        Serial Number:
            e1:e0:65:8b:18:23:6a:5e:bb:31:d6:ee:b1:28:5a:dc
        Signature Algorithm: sha256WithRSAEncryption
        Issuer: CN=team354-net
        Validity
            Not Before: May 18 20:32:31 2022 GMT
            Not After : May  2 20:32:31 2025 GMT
        Subject: CN=team354-server
        Subject Public Key Info:
            Public Key Algorithm: rsaEncryption
                RSA Public-Key: (2048 bit)
                Modulus:
                    00:b7:28:6c:b2:1d:3b:23:d5:a3:d7:c1:a0:a4:b9:
                    75:ca:93:1c:dd:4e:07:ef:55:92:87:1c:52:f5:c2:
                    2e:32:32:d2:3c:ea:10:11:03:1d:64:93:c5:e1:94:
                    e8:0f:d9:1c:33:14:0d:3f:56:0c:a5:9c:5a:c9:9f:
                    a0:86:72:12:12:36:c0:89:ac:26:12:60:01:a3:80:
                    78:7e:69:ab:3f:8d:d1:a1:19:3f:a3:e4:fb:8a:2f:
                    75:8d:c8:96:33:2d:ec:31:43:12:07:f7:cf:5c:a8:
                    c5:c8:12:b5:2a:e7:71:5d:76:9d:dd:0c:3e:06:5d:
                    74:9d:b3:c2:a9:39:4a:01:e1:6d:e8:ae:9f:d3:f6:
                    95:80:5c:38:46:49:50:0c:92:81:6a:c8:fe:c6:f3:
                    d7:dc:28:29:1e:03:70:30:95:9d:e9:f1:d5:19:95:
                    0a:4a:b6:43:9a:d6:45:e1:f6:4c:6e:db:2a:df:e6:
                    c1:05:cb:ce:3d:9f:80:b1:5a:e4:bd:12:2c:e7:10:
                    8d:ea:0a:73:0f:eb:8e:d8:48:b2:02:cb:be:87:98:
                    17:8d:96:16:3d:56:8c:78:cd:cb:32:37:46:38:1f:
                    80:fd:78:f9:b7:6f:4a:90:b3:86:bd:54:01:5e:88:
                    ab:dc:8c:66:40:0d:8a:ed:81:71:fd:d3:54:85:72:
                    f3:bf
                Exponent: 65537 (0x10001)
        X509v3 extensions:
            X509v3 Basic Constraints: 
                CA:FALSE
            X509v3 Subject Key Identifier: 
                9D:29:7F:4D:06:C0:D3:B2:DC:57:91:83:1D:63:D8:1D:65:9B:38:E0
            X509v3 Authority Key Identifier: 
                keyid:96:CF:58:8F:F7:A5:26:7D:41:95:69:21:9B:26:8B:90:99:DE:35:20
                DirName:/CN=team354-net
                serial:7F:4E:DB:31:03:FB:E2:42:EB:41:64:A9:92:4C:F6:3B:F6:8C:75:B1

            X509v3 Extended Key Usage: 
                TLS Web Server Authentication
            X509v3 Key Usage: 
                Digital Signature, Key Encipherment
            X509v3 Subject Alternative Name: 
                DNS:team354-server
    Signature Algorithm: sha256WithRSAEncryption
         87:ec:23:08:61:1e:ce:18:14:0e:86:7d:28:4a:58:02:c2:4e:
         9b:55:07:23:7f:13:ae:bc:c6:20:b9:e2:bf:76:00:b7:d5:51:
         30:2c:67:97:d6:9c:41:43:d5:d4:a4:92:ef:2b:d8:61:e2:ab:
         34:a5:1e:18:ab:1e:6d:9f:c3:9c:75:db:7a:e5:81:d7:33:84:
         6d:e5:b6:59:f1:33:8e:64:a2:e2:2f:ca:c7:b3:37:0e:e8:23:
         b7:d1:fe:b0:ee:32:fa:7f:30:f0:ea:57:19:18:22:38:31:df:
         7a:22:63:77:0c:40:22:d5:f0:1b:5c:d7:f6:a4:52:26:62:f2:
         cf:59:1b:74:53:73:a3:34:67:11:13:26:f2:8d:86:85:80:64:
         da:72:6f:16:6c:37:5e:4f:51:4f:52:0e:62:19:bb:a8:2b:74:
         37:27:75:7a:15:c8:a4:89:e7:9b:2f:3e:f0:50:76:84:ff:53:
         2c:b3:ae:ad:32:83:a8:1c:4e:02:da:1f:ce:9a:e0:dd:48:7a:
         22:5b:49:fc:a0:31:ff:fb:5a:f5:70:53:40:f7:9b:6d:31:bc:
         6d:7d:39:f4:04:42:10:bb:45:e1:d8:fa:fb:9d:d4:47:67:8c:
         76:83:3a:b5:32:b7:61:41:e7:46:ab:24:ae:ae:1f:8f:e2:cf:
         a0:a6:30:1c
-----BEGIN CERTIFICATE-----
MIIDeDCCAmCgAwIBAgIRAOHgZYsYI2peuzHW7rEoWtwwDQYJKoZIhvcNAQELBQAw
FjEUMBIGA1UEAwwLdGVhbTM1NC1uZXQwHhcNMjIwNTE4MjAzMjMxWhcNMjUwNTAy
MjAzMjMxWjAZMRcwFQYDVQQDDA50ZWFtMzU0LXNlcnZlcjCCASIwDQYJKoZIhvcN
AQEBBQADggEPADCCAQoCggEBALcobLIdOyPVo9fBoKS5dcqTHN1OB+9VkoccUvXC
LjIy0jzqEBEDHWSTxeGU6A/ZHDMUDT9WDKWcWsmfoIZyEhI2wImsJhJgAaOAeH5p
qz+N0aEZP6Pk+4ovdY3IljMt7DFDEgf3z1yoxcgStSrncV12nd0MPgZddJ2zwqk5
SgHhbeiun9P2lYBcOEZJUAySgWrI/sbz19woKR4DcDCVnenx1RmVCkq2Q5rWReH2
TG7bKt/mwQXLzj2fgLFa5L0SLOcQjeoKcw/rjthIsgLLvoeYF42WFj1WjHjNyzI3
RjgfgP14+bdvSpCzhr1UAV6Iq9yMZkANiu2Bcf3TVIVy878CAwEAAaOBvTCBujAJ
BgNVHRMEAjAAMB0GA1UdDgQWBBSdKX9NBsDTstxXkYMdY9gdZZs44DBRBgNVHSME
SjBIgBSWz1iP96UmfUGVaSGbJouQmd41IKEapBgwFjEUMBIGA1UEAwwLdGVhbTM1
NC1uZXSCFH9O2zED++JC60FkqZJM9jv2jHWxMBMGA1UdJQQMMAoGCCsGAQUFBwMB
MAsGA1UdDwQEAwIFoDAZBgNVHREEEjAQgg50ZWFtMzU0LXNlcnZlcjANBgkqhkiG
9w0BAQsFAAOCAQEAh+wjCGEezhgUDoZ9KEpYAsJOm1UHI38TrrzGILniv3YAt9VR
MCxnl9acQUPV1KSS7yvYYeKrNKUeGKsebZ/DnHXbeuWB1zOEbeW2WfEzjmSi4i/K
x7M3Dugjt9H+sO4y+n8w8OpXGRgiODHfeiJjdwxAItXwG1zX9qRSJmLyz1kbdFNz
ozRnERMm8o2GhYBk2nJvFmw3Xk9RT1IOYhm7qCt0Nyd1ehXIpInnmy8+8FB2hP9T
LLOurTKDqBxOAtofzprg3Uh6IltJ/KAx//ta9XBTQPebbTG8bX059ARCELtF4dj6
+53UR2eMdoM6tTK3YUHnRqskrq4fj+LPoKYwHA==
-----END CERTIFICATE-----
