Certificate:
    Data:
        Version: 3 (0x2)
        Serial Number:
            82:a4:21:d1:fc:18:93:70:ae:bc:79:c0:62:e4:e3:29
        Signature Algorithm: sha256WithRSAEncryption
        Issuer: CN=team609-net
        Validity
            Not Before: May 18 22:44:46 2022 GMT
            Not After : May  2 22:44:46 2025 GMT
        Subject: CN=team609-server
        Subject Public Key Info:
            Public Key Algorithm: rsaEncryption
                RSA Public-Key: (2048 bit)
                Modulus:
                    00:a1:20:4b:d8:4a:11:00:d2:21:3b:58:48:de:84:
                    41:95:55:cb:26:e0:d4:5e:ad:39:bf:d6:f4:b6:59:
                    5f:1d:6a:bf:a0:b6:1c:3e:97:e9:25:48:b6:09:6b:
                    5d:2c:f2:c5:3e:3c:79:bc:c5:36:92:c4:30:eb:bc:
                    bf:59:31:bf:71:27:04:2e:c2:39:14:d3:bd:70:0e:
                    c4:53:9b:a9:71:71:8d:79:17:44:37:c2:e7:58:40:
                    12:5d:41:84:8a:70:68:0d:96:e3:7f:06:f0:59:86:
                    14:26:ad:6e:11:9c:6b:6c:fb:ea:42:ed:74:0d:ba:
                    26:a6:49:a5:08:ca:cd:4d:ea:54:06:74:d0:87:d5:
                    3f:25:47:9a:16:52:6b:dc:4f:4a:b5:b0:4d:16:31:
                    ac:e7:9d:81:0c:04:e3:cd:f5:31:6a:e5:84:12:14:
                    d8:5b:4b:e5:d1:83:b8:8c:09:40:10:f2:30:96:2d:
                    5b:11:d7:ae:41:e7:75:c5:76:9a:c7:95:13:e2:b5:
                    3c:29:24:9c:84:ac:de:5f:0e:2a:37:12:26:4b:a8:
                    31:11:81:12:e1:5d:0c:49:82:69:ef:a0:f9:3e:a2:
                    45:ef:c8:62:95:2d:18:5e:ba:e4:9c:67:69:65:a9:
                    b4:67:2d:92:65:5e:cb:cd:0c:13:57:7e:75:9a:11:
                    ad:e9
                Exponent: 65537 (0x10001)
        X509v3 extensions:
            X509v3 Basic Constraints: 
                CA:FALSE
            X509v3 Subject Key Identifier: 
                F3:F5:2D:96:88:51:2F:0C:B0:8C:5B:FB:7F:63:5F:23:D3:0F:51:65
            X509v3 Authority Key Identifier: 
                keyid:CB:CC:60:9F:6C:68:A9:40:35:35:30:D7:54:3E:CA:34:44:1C:3A:63
                DirName:/CN=team609-net
                serial:2C:A4:16:6C:64:06:2E:53:19:85:40:13:DB:04:2E:19:B1:59:11:C7

            X509v3 Extended Key Usage: 
                TLS Web Server Authentication
            X509v3 Key Usage: 
                Digital Signature, Key Encipherment
            X509v3 Subject Alternative Name: 
                DNS:team609-server
    Signature Algorithm: sha256WithRSAEncryption
         ca:0c:47:0d:2d:12:75:33:e8:d2:75:be:3b:f6:3a:70:53:a8:
         bc:4d:d5:70:18:8f:66:b8:83:fd:47:49:c6:55:db:b2:c2:4c:
         9c:2c:b1:b5:78:4f:ff:dd:74:37:fd:32:be:f8:f9:da:78:0d:
         43:21:5c:5d:06:2d:f4:2c:25:db:8e:ee:58:b1:f4:94:6f:59:
         56:de:7c:2c:7b:36:d8:b7:17:84:7b:45:9b:1a:74:db:10:7a:
         1d:3e:96:c2:d8:53:21:a8:91:6b:59:f6:a4:7b:fa:58:2d:33:
         54:13:00:74:89:a6:38:b1:66:27:0a:14:03:c3:86:64:5f:1f:
         bb:b9:27:91:92:58:14:ae:60:22:77:8a:e2:f3:af:a1:56:bc:
         86:9d:ac:17:78:32:6b:ec:42:d0:10:b5:5b:9b:4a:b2:42:1f:
         23:eb:71:39:3f:5f:20:7c:d6:94:d4:7a:dc:0d:fc:bc:61:32:
         ef:2f:17:fc:c3:9d:94:6b:4b:b6:d7:b0:b4:62:a4:c7:c9:88:
         78:fb:71:d7:a3:42:43:c8:71:3d:cd:79:b7:1f:f4:21:02:14:
         42:89:3d:5c:62:c7:45:66:a0:37:3f:15:5d:43:b3:59:d9:24:
         ce:63:bb:18:9b:90:1a:12:d2:23:f2:0d:be:35:11:9f:c0:42:
         d6:81:76:26
-----BEGIN CERTIFICATE-----
MIIDeDCCAmCgAwIBAgIRAIKkIdH8GJNwrrx5wGLk4ykwDQYJKoZIhvcNAQELBQAw
FjEUMBIGA1UEAwwLdGVhbTYwOS1uZXQwHhcNMjIwNTE4MjI0NDQ2WhcNMjUwNTAy
MjI0NDQ2WjAZMRcwFQYDVQQDDA50ZWFtNjA5LXNlcnZlcjCCASIwDQYJKoZIhvcN
AQEBBQADggEPADCCAQoCggEBAKEgS9hKEQDSITtYSN6EQZVVyybg1F6tOb/W9LZZ
Xx1qv6C2HD6X6SVItglrXSzyxT48ebzFNpLEMOu8v1kxv3EnBC7CORTTvXAOxFOb
qXFxjXkXRDfC51hAEl1BhIpwaA2W438G8FmGFCatbhGca2z76kLtdA26JqZJpQjK
zU3qVAZ00IfVPyVHmhZSa9xPSrWwTRYxrOedgQwE4831MWrlhBIU2FtL5dGDuIwJ
QBDyMJYtWxHXrkHndcV2mseVE+K1PCkknISs3l8OKjcSJkuoMRGBEuFdDEmCae+g
+T6iRe/IYpUtGF665JxnaWWptGctkmVey80ME1d+dZoRrekCAwEAAaOBvTCBujAJ
BgNVHRMEAjAAMB0GA1UdDgQWBBTz9S2WiFEvDLCMW/t/Y18j0w9RZTBRBgNVHSME
SjBIgBTLzGCfbGipQDU1MNdUPso0RBw6Y6EapBgwFjEUMBIGA1UEAwwLdGVhbTYw
OS1uZXSCFCykFmxkBi5TGYVAE9sELhmxWRHHMBMGA1UdJQQMMAoGCCsGAQUFBwMB
MAsGA1UdDwQEAwIFoDAZBgNVHREEEjAQgg50ZWFtNjA5LXNlcnZlcjANBgkqhkiG
9w0BAQsFAAOCAQEAygxHDS0SdTPo0nW+O/Y6cFOovE3VcBiPZriD/UdJxlXbssJM
nCyxtXhP/910N/0yvvj52ngNQyFcXQYt9Cwl247uWLH0lG9ZVt58LHs22LcXhHtF
mxp02xB6HT6WwthTIaiRa1n2pHv6WC0zVBMAdImmOLFmJwoUA8OGZF8fu7knkZJY
FK5gIneK4vOvoVa8hp2sF3gya+xC0BC1W5tKskIfI+txOT9fIHzWlNR63A38vGEy
7y8X/MOdlGtLttewtGKkx8mIePtx16NCQ8hxPc15tx/0IQIUQok9XGLHRWagNz8V
XUOzWdkkzmO7GJuQGhLSI/INvjURn8BC1oF2Jg==
-----END CERTIFICATE-----
