Certificate:
    Data:
        Version: 3 (0x2)
        Serial Number:
            26:05:df:b0:41:fe:e0:59:f1:b2:e0:81:e6:b0:13:a5
        Signature Algorithm: sha256WithRSAEncryption
        Issuer: CN=team146-net
        Validity
            Not Before: May 18 18:35:47 2022 GMT
            Not After : May  2 18:35:47 2025 GMT
        Subject: CN=team146-server
        Subject Public Key Info:
            Public Key Algorithm: rsaEncryption
                RSA Public-Key: (2048 bit)
                Modulus:
                    00:95:b1:fe:a4:e0:d4:7f:5f:d1:fa:9d:5d:c9:8f:
                    e3:3a:a7:78:37:93:a9:5a:d7:93:bc:02:4a:cc:a3:
                    2b:b5:db:9c:c2:a2:bb:6a:13:40:54:9b:a7:c4:86:
                    61:9b:e7:13:19:8f:42:8e:c2:80:5c:71:e9:7a:c2:
                    09:ac:55:9a:a4:00:0c:d4:1f:95:1d:00:c6:20:83:
                    91:65:0f:82:9e:63:4a:ea:8a:96:20:8d:fd:de:91:
                    8d:db:84:75:1f:d4:99:98:ca:e6:d8:3c:f1:fe:c2:
                    ee:58:62:87:38:2f:c7:d3:fe:8f:0d:7c:58:e1:d3:
                    3c:dd:57:c9:3d:a6:66:78:73:67:e0:a6:62:54:52:
                    d2:2e:dd:63:b0:3d:8a:d1:2a:3b:22:ac:3c:aa:1a:
                    1d:98:e2:98:e9:cb:c9:53:1f:16:73:ae:45:35:0d:
                    41:ee:11:da:ff:6b:0f:5f:c5:49:fb:28:e8:bb:f5:
                    91:dd:a4:77:50:06:fe:ec:b5:81:ca:13:22:eb:f7:
                    8d:e8:62:57:14:5c:7a:69:f0:00:d1:c8:eb:1e:20:
                    53:70:73:49:7f:f0:4e:82:7e:06:3a:ce:93:2a:7b:
                    22:7c:aa:ff:01:8f:07:9b:61:85:6d:8c:1d:bb:64:
                    e3:68:47:17:16:48:e5:5b:95:aa:41:3a:79:27:fb:
                    47:8b
                Exponent: 65537 (0x10001)
        X509v3 extensions:
            X509v3 Basic Constraints: 
                CA:FALSE
            X509v3 Subject Key Identifier: 
                67:10:CC:90:4A:BC:93:E1:2D:08:5D:91:7E:82:D7:11:8F:01:4B:4E
            X509v3 Authority Key Identifier: 
                keyid:E5:4D:02:CA:D2:2D:8C:D1:AB:62:FF:B9:39:7C:D4:A8:F3:0A:63:55
                DirName:/CN=team146-net
                serial:7A:B7:52:9A:4A:E8:1D:95:34:F8:86:DA:94:3E:51:75:F3:E4:9F:D8

            X509v3 Extended Key Usage: 
                TLS Web Server Authentication
            X509v3 Key Usage: 
                Digital Signature, Key Encipherment
            X509v3 Subject Alternative Name: 
                DNS:team146-server
    Signature Algorithm: sha256WithRSAEncryption
         b5:15:ec:66:be:d1:eb:97:62:3b:ba:9c:e5:8b:e3:d7:a7:ee:
         54:a3:12:ac:a3:2a:c1:16:c4:7c:5f:be:6b:65:2b:d0:62:f8:
         ba:f7:55:20:d3:8e:b4:5e:12:56:44:c8:b3:9d:87:93:b5:7a:
         87:12:ce:7f:3a:ee:9e:53:74:a7:81:f6:5b:a8:7c:2b:bd:e8:
         0e:09:d9:d5:77:81:4e:19:5c:4d:b8:d2:a1:78:43:63:11:d0:
         06:d6:32:6d:82:fc:33:01:9a:19:eb:9d:14:54:29:14:8c:10:
         56:d5:cf:36:ed:c9:e4:1f:4d:67:be:55:44:17:e9:0a:69:e3:
         05:6f:ef:28:df:f1:80:f2:d0:18:59:bc:6d:cc:de:96:48:f4:
         1b:0a:bf:88:a3:77:e0:50:24:e0:96:e6:49:fe:a0:14:3c:83:
         c9:c5:68:3c:82:21:20:62:59:68:52:80:f7:6a:60:bf:c6:1e:
         37:ad:cd:e1:31:18:82:bc:22:76:20:5b:50:fc:29:4f:ea:1e:
         c9:bb:99:71:e2:57:ea:85:60:3a:cc:33:e1:a1:3d:14:c4:89:
         ef:c4:ad:b8:f7:32:f5:3e:a4:86:61:35:31:9d:e3:c5:77:96:
         14:c2:3f:5b:32:90:74:1f:36:af:57:33:b5:e5:d9:2d:b2:c8:
         3f:f0:85:79
-----BEGIN CERTIFICATE-----
MIIDdzCCAl+gAwIBAgIQJgXfsEH+4FnxsuCB5rATpTANBgkqhkiG9w0BAQsFADAW
MRQwEgYDVQQDDAt0ZWFtMTQ2LW5ldDAeFw0yMjA1MTgxODM1NDdaFw0yNTA1MDIx
ODM1NDdaMBkxFzAVBgNVBAMMDnRlYW0xNDYtc2VydmVyMIIBIjANBgkqhkiG9w0B
AQEFAAOCAQ8AMIIBCgKCAQEAlbH+pODUf1/R+p1dyY/jOqd4N5OpWteTvAJKzKMr
tducwqK7ahNAVJunxIZhm+cTGY9CjsKAXHHpesIJrFWapAAM1B+VHQDGIIORZQ+C
nmNK6oqWII393pGN24R1H9SZmMrm2Dzx/sLuWGKHOC/H0/6PDXxY4dM83VfJPaZm
eHNn4KZiVFLSLt1jsD2K0So7Iqw8qhodmOKY6cvJUx8Wc65FNQ1B7hHa/2sPX8VJ
+yjou/WR3aR3UAb+7LWByhMi6/eN6GJXFFx6afAA0cjrHiBTcHNJf/BOgn4GOs6T
KnsifKr/AY8Hm2GFbYwdu2TjaEcXFkjlW5WqQTp5J/tHiwIDAQABo4G9MIG6MAkG
A1UdEwQCMAAwHQYDVR0OBBYEFGcQzJBKvJPhLQhdkX6C1xGPAUtOMFEGA1UdIwRK
MEiAFOVNAsrSLYzRq2L/uTl81KjzCmNVoRqkGDAWMRQwEgYDVQQDDAt0ZWFtMTQ2
LW5ldIIUerdSmkroHZU0+IbalD5RdfPkn9gwEwYDVR0lBAwwCgYIKwYBBQUHAwEw
CwYDVR0PBAQDAgWgMBkGA1UdEQQSMBCCDnRlYW0xNDYtc2VydmVyMA0GCSqGSIb3
DQEBCwUAA4IBAQC1FexmvtHrl2I7upzli+PXp+5UoxKsoyrBFsR8X75rZSvQYvi6
91Ug0460XhJWRMiznYeTtXqHEs5/Ou6eU3SngfZbqHwrvegOCdnVd4FOGVxNuNKh
eENjEdAG1jJtgvwzAZoZ650UVCkUjBBW1c827cnkH01nvlVEF+kKaeMFb+8o3/GA
8tAYWbxtzN6WSPQbCr+Io3fgUCTgluZJ/qAUPIPJxWg8giEgYlloUoD3amC/xh43
rc3hMRiCvCJ2IFtQ/ClP6h7Ju5lx4lfqhWA6zDPhoT0UxInvxK249zL1PqSGYTUx
nePFd5YUwj9bMpB0HzavVzO15dktssg/8IV5
-----END CERTIFICATE-----
