Certificate:
    Data:
        Version: 3 (0x2)
        Serial Number:
            e7:09:09:68:00:c8:60:4d:7e:e9:f2:55:cc:22:60:0d
        Signature Algorithm: sha256WithRSAEncryption
        Issuer: CN=team412-net
        Validity
            Not Before: May 18 20:57:11 2022 GMT
            Not After : May  2 20:57:11 2025 GMT
        Subject: CN=team412-client
        Subject Public Key Info:
            Public Key Algorithm: rsaEncryption
                RSA Public-Key: (2048 bit)
                Modulus:
                    00:d5:d6:80:a7:b5:45:1c:55:ac:d8:54:16:ce:a9:
                    02:b9:6b:aa:a1:30:cf:96:16:50:6d:71:a8:d0:13:
                    1d:c2:d1:3b:24:ba:97:75:f6:d6:ad:17:13:9a:91:
                    7f:ca:be:13:11:a3:ae:af:bf:4b:c8:7d:1b:13:29:
                    35:17:f2:0f:fd:c3:b0:b9:56:4d:79:81:60:69:c9:
                    b7:42:bc:5a:23:65:28:75:a0:91:10:45:90:a5:90:
                    97:e9:d3:8d:56:e7:b2:6e:82:d2:d7:f2:0b:49:4f:
                    d7:c3:e3:0e:73:9e:7e:17:d5:7d:7a:96:ed:22:5d:
                    e4:a8:f5:cc:a1:30:7e:c4:2d:8c:af:70:7f:60:59:
                    11:44:84:c7:51:97:b3:46:b5:9f:42:a0:01:83:18:
                    4c:af:3a:bd:41:87:19:88:c9:0b:ab:70:82:69:60:
                    5f:ee:0a:92:3b:d1:91:76:54:d3:c2:cb:f3:df:ef:
                    ee:e2:77:5b:32:d1:17:c6:d3:f6:90:17:e2:71:ba:
                    16:f2:4d:4b:01:10:d8:58:3a:b8:f2:12:bb:90:e9:
                    d8:a0:f7:31:34:83:cd:48:7d:f3:3f:23:1c:2e:0e:
                    06:70:5b:b1:7b:a0:8e:f1:68:f3:9d:56:a2:a4:08:
                    54:88:ac:c0:df:a9:52:bd:55:87:de:e3:b2:cc:0e:
                    94:dd
                Exponent: 65537 (0x10001)
        X509v3 extensions:
            X509v3 Basic Constraints: 
                CA:FALSE
            X509v3 Subject Key Identifier: 
                C2:B4:F6:25:2C:4E:B5:6E:8E:FC:42:85:01:AC:0A:EA:AD:9F:E1:DA
            X509v3 Authority Key Identifier: 
                keyid:4E:94:87:73:91:13:33:76:01:0C:C2:95:10:52:75:7F:19:29:F2:46
                DirName:/CN=team412-net
                serial:5B:33:A8:CF:20:0B:DF:76:7A:E4:2E:D6:0D:EE:86:E2:AF:0D:E7:8E

            X509v3 Extended Key Usage: 
                TLS Web Client Authentication
            X509v3 Key Usage: 
                Digital Signature
    Signature Algorithm: sha256WithRSAEncryption
         68:66:b0:ed:36:72:cb:1b:71:00:cc:cf:eb:da:99:98:ea:08:
         44:c5:c7:d4:7e:3a:a3:8a:d4:01:7d:06:dc:00:64:0a:65:e2:
         4f:00:95:54:6e:7c:0b:48:91:2e:61:13:7d:81:29:df:62:5c:
         6d:4e:28:c4:e0:dc:22:9c:20:82:6d:dc:fd:d4:b2:2a:ee:f7:
         15:77:29:df:d6:b8:bd:82:49:e9:af:64:ff:5d:6e:0a:63:fd:
         be:fa:8b:08:6e:b8:e8:f6:04:5d:c8:ee:88:e4:87:1d:fc:cd:
         64:de:3c:6d:7c:7b:db:65:d6:71:c8:f9:ce:49:2b:c6:b7:3a:
         b7:7e:ba:06:42:81:73:81:48:20:12:19:5d:c8:93:cf:82:0b:
         cf:19:ec:49:f8:c0:31:9c:b1:9d:07:3a:a4:75:eb:3e:8e:b5:
         e9:7a:2b:58:41:4b:ae:18:fc:e9:ed:c8:c4:48:ca:d9:09:5d:
         a6:6e:d8:9e:6d:40:18:65:b3:1f:9f:4f:bc:4d:4c:66:bd:8e:
         59:a3:36:3c:4a:38:2f:e0:19:9e:01:54:7b:d5:e1:ae:06:40:
         3b:c5:fb:8a:00:67:c4:d8:da:c2:8b:78:46:66:16:e5:25:48:
         d7:a6:ba:f7:08:a1:e8:66:48:fc:ac:96:08:cf:be:bb:13:82:
         7d:c5:51:41
-----BEGIN CERTIFICATE-----
MIIDXTCCAkWgAwIBAgIRAOcJCWgAyGBNfunyVcwiYA0wDQYJKoZIhvcNAQELBQAw
FjEUMBIGA1UEAwwLdGVhbTQxMi1uZXQwHhcNMjIwNTE4MjA1NzExWhcNMjUwNTAy
MjA1NzExWjAZMRcwFQYDVQQDDA50ZWFtNDEyLWNsaWVudDCCASIwDQYJKoZIhvcN
AQEBBQADggEPADCCAQoCggEBANXWgKe1RRxVrNhUFs6pArlrqqEwz5YWUG1xqNAT
HcLROyS6l3X21q0XE5qRf8q+ExGjrq+/S8h9GxMpNRfyD/3DsLlWTXmBYGnJt0K8
WiNlKHWgkRBFkKWQl+nTjVbnsm6C0tfyC0lP18PjDnOefhfVfXqW7SJd5Kj1zKEw
fsQtjK9wf2BZEUSEx1GXs0a1n0KgAYMYTK86vUGHGYjJC6twgmlgX+4KkjvRkXZU
08LL89/v7uJ3WzLRF8bT9pAX4nG6FvJNSwEQ2Fg6uPISu5Dp2KD3MTSDzUh98z8j
HC4OBnBbsXugjvFo851WoqQIVIiswN+pUr1Vh97jsswOlN0CAwEAAaOBojCBnzAJ
BgNVHRMEAjAAMB0GA1UdDgQWBBTCtPYlLE61bo78QoUBrArqrZ/h2jBRBgNVHSME
SjBIgBROlIdzkRMzdgEMwpUQUnV/GSnyRqEapBgwFjEUMBIGA1UEAwwLdGVhbTQx
Mi1uZXSCFFszqM8gC992euQu1g3uhuKvDeeOMBMGA1UdJQQMMAoGCCsGAQUFBwMC
MAsGA1UdDwQEAwIHgDANBgkqhkiG9w0BAQsFAAOCAQEAaGaw7TZyyxtxAMzP69qZ
mOoIRMXH1H46o4rUAX0G3ABkCmXiTwCVVG58C0iRLmETfYEp32JcbU4oxODcIpwg
gm3c/dSyKu73FXcp39a4vYJJ6a9k/11uCmP9vvqLCG646PYEXcjuiOSHHfzNZN48
bXx722XWccj5zkkrxrc6t366BkKBc4FIIBIZXciTz4ILzxnsSfjAMZyxnQc6pHXr
Po616XorWEFLrhj86e3IxEjK2Qldpm7Ynm1AGGWzH59PvE1MZr2OWaM2PEo4L+AZ
ngFUe9XhrgZAO8X7igBnxNjawot4RmYW5SVI16a69wih6GZI/KyWCM++uxOCfcVR
QQ==
-----END CERTIFICATE-----
