Certificate:
    Data:
        Version: 3 (0x2)
        Serial Number:
            2a:35:bf:82:51:57:57:88:c7:39:ff:a8:89:1d:42:7a
        Signature Algorithm: sha256WithRSAEncryption
        Issuer: CN=team89-net
        Validity
            Not Before: May 18 14:42:05 2022 GMT
            Not After : May  2 14:42:05 2025 GMT
        Subject: CN=team89-client
        Subject Public Key Info:
            Public Key Algorithm: rsaEncryption
                RSA Public-Key: (2048 bit)
                Modulus:
                    00:c5:1a:01:90:80:6c:c7:3a:de:55:65:e7:17:d0:
                    08:c4:f1:80:d4:3d:58:bf:62:e4:d4:30:a8:48:87:
                    72:44:70:c4:0d:f2:9b:2a:a1:1f:45:87:1e:70:70:
                    50:e6:82:4c:ea:54:43:24:66:43:0c:7c:90:ef:94:
                    f5:d4:b2:a6:d8:3c:84:82:f3:98:cf:2f:1a:49:48:
                    2b:0c:9f:8d:04:fd:a8:b9:f6:38:4e:8e:56:e5:fa:
                    8e:a0:0a:e1:7b:62:89:54:82:fd:19:dd:5b:aa:ee:
                    56:7c:f6:0a:68:8a:3b:36:83:c0:e2:c4:36:32:f0:
                    8a:2d:f4:7c:6c:a8:86:fd:2e:84:5b:c5:b9:8c:47:
                    73:51:b6:90:75:6a:56:40:1c:f0:e3:99:80:7e:b5:
                    97:08:c3:2f:51:34:5d:17:5c:6b:9c:e7:41:9d:6b:
                    9c:bd:7a:da:2b:ca:58:c4:2b:d7:d8:a9:0f:f2:f7:
                    d2:fa:fd:c9:69:49:a0:03:81:78:70:cc:1e:91:13:
                    08:3a:0e:3c:38:23:00:0a:f4:cc:bc:1f:49:61:7f:
                    2a:dc:da:ae:96:8e:cf:45:1d:58:aa:67:6a:fe:66:
                    73:bb:ae:c2:40:4f:35:36:30:e3:3d:f8:66:f7:21:
                    7a:26:f6:4e:3f:64:2e:b3:c5:65:90:d6:54:2f:f8:
                    7a:01
                Exponent: 65537 (0x10001)
        X509v3 extensions:
            X509v3 Basic Constraints: 
                CA:FALSE
            X509v3 Subject Key Identifier: 
                56:20:73:DC:D9:8D:26:C5:EB:51:3B:F1:F7:58:2F:DB:4B:CF:56:95
            X509v3 Authority Key Identifier: 
                keyid:1E:BF:0F:24:48:3B:91:53:F3:7F:88:C5:BB:46:6C:D0:CF:09:39:5F
                DirName:/CN=team89-net
                serial:63:9E:5D:D4:61:31:69:DB:61:AB:DB:E9:BB:F0:24:34:7A:8D:95:DC

            X509v3 Extended Key Usage: 
                TLS Web Client Authentication
            X509v3 Key Usage: 
                Digital Signature
    Signature Algorithm: sha256WithRSAEncryption
         02:bb:e6:d4:79:69:a6:d6:90:0a:66:c3:d4:fe:a2:9b:af:e7:
         28:36:13:91:f0:ef:2b:ae:7c:ef:7c:a6:d6:cc:d0:01:53:e0:
         ff:bb:15:52:43:21:3d:65:fa:43:e9:e1:d9:3d:c2:32:49:8a:
         9d:8e:c4:ec:50:95:a0:d3:4b:0d:46:80:f8:71:4f:9f:ca:6c:
         14:62:cc:b9:39:32:56:de:5f:34:dc:2c:76:a0:07:22:da:5e:
         a4:7b:2a:25:0b:80:a5:87:89:84:4e:b6:20:56:40:06:d1:7d:
         e2:0d:68:22:e9:f8:cd:9a:b6:7a:85:b8:28:d8:14:e8:01:45:
         3c:04:58:84:53:c1:a3:d1:e9:48:fe:8d:4e:09:ab:57:00:21:
         12:4f:e5:5e:9c:61:1f:d7:c1:cd:06:af:3a:e8:ab:ee:aa:02:
         d2:f0:5d:db:de:27:97:f2:4f:0d:a8:1b:fe:54:21:12:11:ef:
         4e:24:64:53:65:9c:bc:9f:9e:d1:2b:a8:db:d5:73:c0:ab:21:
         3a:5b:c3:71:79:a2:16:fe:9e:b7:ab:7a:f8:21:21:9c:d7:b1:
         c4:66:1a:83:8b:aa:bc:ca:6c:98:b7:74:d9:4b:b9:6f:b1:b7:
         36:67:6f:99:5f:6b:09:eb:58:0a:a1:8d:cc:c4:2b:71:64:0d:
         81:b9:25:16
-----BEGIN CERTIFICATE-----
MIIDWTCCAkGgAwIBAgIQKjW/glFXV4jHOf+oiR1CejANBgkqhkiG9w0BAQsFADAV
MRMwEQYDVQQDDAp0ZWFtODktbmV0MB4XDTIyMDUxODE0NDIwNVoXDTI1MDUwMjE0
NDIwNVowGDEWMBQGA1UEAwwNdGVhbTg5LWNsaWVudDCCASIwDQYJKoZIhvcNAQEB
BQADggEPADCCAQoCggEBAMUaAZCAbMc63lVl5xfQCMTxgNQ9WL9i5NQwqEiHckRw
xA3ymyqhH0WHHnBwUOaCTOpUQyRmQwx8kO+U9dSyptg8hILzmM8vGklIKwyfjQT9
qLn2OE6OVuX6jqAK4XtiiVSC/RndW6ruVnz2CmiKOzaDwOLENjLwii30fGyohv0u
hFvFuYxHc1G2kHVqVkAc8OOZgH61lwjDL1E0XRdca5znQZ1rnL162ivKWMQr19ip
D/L30vr9yWlJoAOBeHDMHpETCDoOPDgjAAr0zLwfSWF/KtzarpaOz0UdWKpnav5m
c7uuwkBPNTYw4z34Zvcheib2Tj9kLrPFZZDWVC/4egECAwEAAaOBoTCBnjAJBgNV
HRMEAjAAMB0GA1UdDgQWBBRWIHPc2Y0mxetRO/H3WC/bS89WlTBQBgNVHSMESTBH
gBQevw8kSDuRU/N/iMW7RmzQzwk5X6EZpBcwFTETMBEGA1UEAwwKdGVhbTg5LW5l
dIIUY55d1GExadthq9vpu/AkNHqNldwwEwYDVR0lBAwwCgYIKwYBBQUHAwIwCwYD
VR0PBAQDAgeAMA0GCSqGSIb3DQEBCwUAA4IBAQACu+bUeWmm1pAKZsPU/qKbr+co
NhOR8O8rrnzvfKbWzNABU+D/uxVSQyE9ZfpD6eHZPcIySYqdjsTsUJWg00sNRoD4
cU+fymwUYsy5OTJW3l803Cx2oAci2l6keyolC4Clh4mETrYgVkAG0X3iDWgi6fjN
mrZ6hbgo2BToAUU8BFiEU8Gj0elI/o1OCatXACEST+VenGEf18HNBq866KvuqgLS
8F3b3ieX8k8NqBv+VCESEe9OJGRTZZy8n57RK6jb1XPAqyE6W8NxeaIW/p63q3r4
ISGc17HEZhqDi6q8ymyYt3TZS7lvsbc2Z2+ZX2sJ61gKoY3MxCtxZA2BuSUW
-----END CERTIFICATE-----
