Certificate:
    Data:
        Version: 3 (0x2)
        Serial Number:
            7a:34:a0:55:d4:86:05:5a:a4:e8:22:3e:da:73:f8:af
        Signature Algorithm: sha256WithRSAEncryption
        Issuer: CN=team338-net
        Validity
            Not Before: May 18 20:21:51 2022 GMT
            Not After : May  2 20:21:51 2025 GMT
        Subject: CN=team338-server
        Subject Public Key Info:
            Public Key Algorithm: rsaEncryption
                RSA Public-Key: (2048 bit)
                Modulus:
                    00:b5:3d:fa:69:fa:2a:72:65:6c:3f:9b:c7:4f:56:
                    ff:d2:39:63:a2:41:4d:8d:5c:23:bd:3f:fa:c2:27:
                    d9:24:85:58:1b:b7:00:4a:1d:aa:3d:da:db:a5:b1:
                    6a:0c:ed:35:06:be:71:42:be:5d:ba:4e:57:f0:4f:
                    43:6f:20:14:82:96:5e:5f:34:2b:50:f4:52:00:f4:
                    1e:63:86:30:7b:69:bb:1a:b4:d1:4c:dd:76:c9:7c:
                    9d:97:10:b9:bb:b5:4b:1c:56:fb:b5:56:ac:56:6f:
                    94:3d:ed:04:db:6a:f6:e9:63:9b:08:e1:ff:d6:ec:
                    18:df:13:8b:a4:40:a1:16:ef:ed:9b:e0:ab:f2:e3:
                    ad:69:95:de:3c:02:4e:0d:1b:d9:ab:b3:6d:75:68:
                    4d:02:05:62:f3:96:6a:1d:ff:e5:9e:75:77:cb:0f:
                    e9:d3:4a:84:b2:de:7c:c9:74:62:9b:3e:67:09:37:
                    c4:a7:46:d7:fc:b4:c8:99:d2:32:4a:67:c5:14:c3:
                    f1:7e:ed:81:42:48:6b:50:84:a4:8f:ee:99:70:f7:
                    cb:dd:4b:d7:0f:d7:5f:b1:08:9d:e9:75:14:36:a9:
                    7c:d3:5a:30:64:30:d9:26:46:61:be:06:5a:9b:2d:
                    95:b0:8e:c8:3a:d9:b3:0d:14:5d:30:d5:64:16:e6:
                    02:1b
                Exponent: 65537 (0x10001)
        X509v3 extensions:
            X509v3 Basic Constraints: 
                CA:FALSE
            X509v3 Subject Key Identifier: 
                F1:FC:E4:FA:B4:CD:BF:93:65:F3:5D:6D:56:82:90:7E:A8:A5:A2:B0
            X509v3 Authority Key Identifier: 
                keyid:91:D5:88:0E:01:89:27:40:94:3A:00:E3:FA:29:D8:30:AA:BB:3D:61
                DirName:/CN=team338-net
                serial:16:50:44:E3:5E:49:48:BA:B7:DA:09:29:66:96:94:1E:9D:AB:7A:C5

            X509v3 Extended Key Usage: 
                TLS Web Server Authentication
            X509v3 Key Usage: 
                Digital Signature, Key Encipherment
            X509v3 Subject Alternative Name: 
                DNS:team338-server
    Signature Algorithm: sha256WithRSAEncryption
         4a:57:2a:83:a0:56:08:c6:d4:58:28:49:35:8a:cf:77:79:af:
         36:01:ee:e9:f5:31:63:73:60:27:07:16:fe:f2:e0:8d:52:14:
         f5:c3:8c:88:e9:8f:7c:8c:0c:fe:b3:34:43:7d:13:e5:43:b0:
         30:4b:a5:e8:59:4f:ef:f1:27:c0:9f:75:38:cd:89:c3:f3:b8:
         5e:60:71:d3:e3:89:a0:76:d8:31:5f:78:a5:91:33:c6:9f:13:
         79:e2:34:8d:34:f6:f8:13:64:22:26:60:79:ca:f3:d4:10:06:
         3a:9f:b3:60:eb:3e:58:ea:24:78:fd:18:dd:cd:12:73:ad:8d:
         7c:b8:3a:6e:95:ed:65:09:88:c0:0b:7f:c5:98:40:d9:94:0a:
         f3:a3:f2:21:ba:a9:3c:23:b4:80:06:d6:96:bb:85:78:a1:0a:
         a0:21:73:8f:35:41:21:b6:5a:da:e1:6e:42:47:00:54:c4:cd:
         04:2e:42:9e:5a:4b:77:af:19:4c:02:9e:eb:03:a7:6d:79:09:
         d4:aa:9b:ad:c5:45:11:52:dc:b4:20:c5:38:40:cb:57:bd:ca:
         b0:67:12:1c:81:e2:ca:76:35:4c:83:47:4c:da:f8:fc:f8:02:
         45:ee:92:72:b4:02:93:f4:3a:d2:b8:9e:97:fe:a9:90:05:87:
         e6:72:5c:8f
-----BEGIN CERTIFICATE-----
MIIDdzCCAl+gAwIBAgIQejSgVdSGBVqk6CI+2nP4rzANBgkqhkiG9w0BAQsFADAW
MRQwEgYDVQQDDAt0ZWFtMzM4LW5ldDAeFw0yMjA1MTgyMDIxNTFaFw0yNTA1MDIy
MDIxNTFaMBkxFzAVBgNVBAMMDnRlYW0zMzgtc2VydmVyMIIBIjANBgkqhkiG9w0B
AQEFAAOCAQ8AMIIBCgKCAQEAtT36afoqcmVsP5vHT1b/0jljokFNjVwjvT/6wifZ
JIVYG7cASh2qPdrbpbFqDO01Br5xQr5duk5X8E9DbyAUgpZeXzQrUPRSAPQeY4Yw
e2m7GrTRTN12yXydlxC5u7VLHFb7tVasVm+UPe0E22r26WObCOH/1uwY3xOLpECh
Fu/tm+Cr8uOtaZXePAJODRvZq7NtdWhNAgVi85ZqHf/lnnV3yw/p00qEst58yXRi
mz5nCTfEp0bX/LTImdIySmfFFMPxfu2BQkhrUISkj+6ZcPfL3UvXD9dfsQid6XUU
Nql801owZDDZJkZhvgZamy2VsI7IOtmzDRRdMNVkFuYCGwIDAQABo4G9MIG6MAkG
A1UdEwQCMAAwHQYDVR0OBBYEFPH85Pq0zb+TZfNdbVaCkH6opaKwMFEGA1UdIwRK
MEiAFJHViA4BiSdAlDoA4/op2DCquz1hoRqkGDAWMRQwEgYDVQQDDAt0ZWFtMzM4
LW5ldIIUFlBE415JSLq32gkpZpaUHp2resUwEwYDVR0lBAwwCgYIKwYBBQUHAwEw
CwYDVR0PBAQDAgWgMBkGA1UdEQQSMBCCDnRlYW0zMzgtc2VydmVyMA0GCSqGSIb3
DQEBCwUAA4IBAQBKVyqDoFYIxtRYKEk1is93ea82Ae7p9TFjc2AnBxb+8uCNUhT1
w4yI6Y98jAz+szRDfRPlQ7AwS6XoWU/v8SfAn3U4zYnD87heYHHT44mgdtgxX3il
kTPGnxN54jSNNPb4E2QiJmB5yvPUEAY6n7Ng6z5Y6iR4/RjdzRJzrY18uDpule1l
CYjAC3/FmEDZlArzo/Ihuqk8I7SABtaWu4V4oQqgIXOPNUEhtlra4W5CRwBUxM0E
LkKeWkt3rxlMAp7rA6dteQnUqputxUURUty0IMU4QMtXvcqwZxIcgeLKdjVMg0dM
2vj8+AJF7pJytAKT9DrSuJ6X/qmQBYfmclyP
-----END CERTIFICATE-----
