Certificate:
    Data:
        Version: 3 (0x2)
        Serial Number:
            39:78:8c:cc:13:8a:c9:09:f0:2f:70:70:8f:16:c7:dc
        Signature Algorithm: sha256WithRSAEncryption
        Issuer: CN=team680-net
        Validity
            Not Before: May 18 23:37:09 2022 GMT
            Not After : May  2 23:37:09 2025 GMT
        Subject: CN=team680-server
        Subject Public Key Info:
            Public Key Algorithm: rsaEncryption
                RSA Public-Key: (2048 bit)
                Modulus:
                    00:c8:56:01:27:26:cf:44:c4:96:4b:9a:59:26:b4:
                    bc:0a:ef:9b:ac:4f:83:d3:b3:b5:4c:97:c7:c0:8c:
                    f6:a8:56:d5:e0:8c:ee:3c:6c:46:c4:75:99:a3:47:
                    75:d6:0a:08:19:17:07:ee:1e:f9:ec:69:34:59:e7:
                    b3:5d:e5:21:69:8c:17:9d:86:4a:e6:8d:da:5e:18:
                    3a:4e:16:77:5e:95:99:10:a2:cd:2d:42:25:76:4b:
                    0e:bf:35:a8:58:90:97:c0:3d:77:19:58:89:87:f2:
                    28:8a:e6:a0:95:7b:ff:78:00:7f:5f:df:f1:b3:2b:
                    2d:ab:18:f6:8e:b6:28:ba:80:fa:56:52:53:36:a0:
                    ab:ea:26:d7:f7:08:f2:0e:c3:02:16:92:b2:f0:6a:
                    14:85:5e:73:6c:40:fa:54:94:fe:54:5c:d1:cc:de:
                    26:f6:55:1a:ed:30:b4:11:24:ac:ce:48:dd:19:38:
                    29:4d:bb:cc:44:02:62:30:92:48:6a:ed:d7:c8:23:
                    ad:da:5e:22:0f:44:df:66:d6:98:df:80:12:37:1c:
                    3b:f1:73:91:60:13:32:f9:5a:4b:89:b3:65:c1:2b:
                    14:d2:ee:e0:ca:27:b8:ca:2f:58:07:c9:7f:79:7c:
                    30:8a:5e:6b:a5:9f:1f:ad:d1:ec:a5:fc:f4:f6:f9:
                    46:bd
                Exponent: 65537 (0x10001)
        X509v3 extensions:
            X509v3 Basic Constraints: 
                CA:FALSE
            X509v3 Subject Key Identifier: 
                E4:74:F6:78:6F:28:49:36:A6:8F:70:B2:2F:14:2D:29:37:6A:FF:B4
            X509v3 Authority Key Identifier: 
                keyid:E5:28:4B:48:E2:81:29:D9:64:44:5A:FD:A6:0C:01:C7:14:ED:D0:8A
                DirName:/CN=team680-net
                serial:06:C7:88:4F:02:DE:82:DA:C4:79:89:86:26:8F:02:01:B7:67:25:CE

            X509v3 Extended Key Usage: 
                TLS Web Server Authentication
            X509v3 Key Usage: 
                Digital Signature, Key Encipherment
            X509v3 Subject Alternative Name: 
                DNS:team680-server
    Signature Algorithm: sha256WithRSAEncryption
         8f:cd:71:1f:13:92:6c:0b:b8:75:d5:f8:85:98:50:66:8a:ce:
         c6:3b:55:89:67:2f:7d:77:c7:70:40:cf:7b:41:3f:e9:14:a9:
         f1:5b:05:f6:09:1e:56:88:f9:50:da:b2:4d:7a:e6:a6:16:96:
         03:9e:60:84:1f:ba:e8:50:1f:87:9f:b5:51:b0:6a:90:d0:3e:
         e8:32:4a:a6:ff:2e:1b:08:4b:44:ab:f8:f3:b8:79:f6:f9:8d:
         9e:d3:b9:54:07:a7:f1:73:b7:28:05:fd:d8:f4:65:09:77:df:
         6b:f8:c1:15:e8:95:9a:a8:03:93:d2:20:c3:c1:f3:40:7d:2e:
         b2:46:c4:fa:bf:b9:80:fb:3b:7a:61:8e:f3:8b:57:4b:4c:11:
         e8:51:6e:4c:02:d8:2b:b2:cb:01:74:8e:56:23:66:1b:99:fe:
         9a:13:a4:41:64:5d:90:84:bf:5d:9c:9d:fc:4c:11:fe:b9:a4:
         ea:12:6d:9f:7f:5e:ec:58:e5:8e:18:f5:5d:2e:35:4a:05:4b:
         ad:cc:b1:a3:82:92:cd:5b:2c:89:59:a9:c4:ce:4e:ff:3c:00:
         a2:eb:5d:d6:08:ec:cb:27:1c:bc:ea:8f:a7:0e:de:fb:82:d7:
         ef:14:74:6c:42:e9:97:64:07:37:97:c5:ed:55:2f:85:08:34:
         9c:c9:e1:76
-----BEGIN CERTIFICATE-----
MIIDdzCCAl+gAwIBAgIQOXiMzBOKyQnwL3BwjxbH3DANBgkqhkiG9w0BAQsFADAW
MRQwEgYDVQQDDAt0ZWFtNjgwLW5ldDAeFw0yMjA1MTgyMzM3MDlaFw0yNTA1MDIy
MzM3MDlaMBkxFzAVBgNVBAMMDnRlYW02ODAtc2VydmVyMIIBIjANBgkqhkiG9w0B
AQEFAAOCAQ8AMIIBCgKCAQEAyFYBJybPRMSWS5pZJrS8Cu+brE+D07O1TJfHwIz2
qFbV4IzuPGxGxHWZo0d11goIGRcH7h757Gk0WeezXeUhaYwXnYZK5o3aXhg6ThZ3
XpWZEKLNLUIldksOvzWoWJCXwD13GViJh/IoiuaglXv/eAB/X9/xsystqxj2jrYo
uoD6VlJTNqCr6ibX9wjyDsMCFpKy8GoUhV5zbED6VJT+VFzRzN4m9lUa7TC0ESSs
zkjdGTgpTbvMRAJiMJJIau3XyCOt2l4iD0TfZtaY34ASNxw78XORYBMy+VpLibNl
wSsU0u7gyie4yi9YB8l/eXwwil5rpZ8frdHspfz09vlGvQIDAQABo4G9MIG6MAkG
A1UdEwQCMAAwHQYDVR0OBBYEFOR09nhvKEk2po9wsi8ULSk3av+0MFEGA1UdIwRK
MEiAFOUoS0jigSnZZERa/aYMAccU7dCKoRqkGDAWMRQwEgYDVQQDDAt0ZWFtNjgw
LW5ldIIUBseITwLegtrEeYmGJo8CAbdnJc4wEwYDVR0lBAwwCgYIKwYBBQUHAwEw
CwYDVR0PBAQDAgWgMBkGA1UdEQQSMBCCDnRlYW02ODAtc2VydmVyMA0GCSqGSIb3
DQEBCwUAA4IBAQCPzXEfE5JsC7h11fiFmFBmis7GO1WJZy99d8dwQM97QT/pFKnx
WwX2CR5WiPlQ2rJNeuamFpYDnmCEH7roUB+Hn7VRsGqQ0D7oMkqm/y4bCEtEq/jz
uHn2+Y2e07lUB6fxc7coBf3Y9GUJd99r+MEV6JWaqAOT0iDDwfNAfS6yRsT6v7mA
+zt6YY7zi1dLTBHoUW5MAtgrsssBdI5WI2Ybmf6aE6RBZF2QhL9dnJ38TBH+uaTq
Em2ff17sWOWOGPVdLjVKBUutzLGjgpLNWyyJWanEzk7/PACi613WCOzLJxy86o+n
Dt77gtfvFHRsQumXZAc3l8XtVS+FCDScyeF2
-----END CERTIFICATE-----
