Certificate:
    Data:
        Version: 3 (0x2)
        Serial Number:
            e1:72:be:56:f2:e3:f9:61:36:0c:c4:e6:86:0a:fe:36
        Signature Algorithm: sha256WithRSAEncryption
        Issuer: CN=team680-net
        Validity
            Not Before: May 18 23:37:08 2022 GMT
            Not After : May  2 23:37:08 2025 GMT
        Subject: CN=team680-client
        Subject Public Key Info:
            Public Key Algorithm: rsaEncryption
                RSA Public-Key: (2048 bit)
                Modulus:
                    00:d4:a1:1a:cd:b3:1e:f1:9f:26:ab:ee:5d:2b:37:
                    e9:5d:3b:d9:0f:e5:a1:ea:a4:aa:f1:b3:a0:7f:16:
                    a6:e1:07:cf:ad:ce:4a:34:25:ba:ae:ef:44:2d:1c:
                    12:90:38:c0:09:f6:62:3c:f5:9f:a1:28:f1:64:1a:
                    ee:dd:2a:55:c2:fa:18:bc:c7:92:25:9c:48:bf:87:
                    91:29:d4:3d:83:90:5d:3f:11:54:cc:6c:d8:c3:a9:
                    87:d3:3a:54:1b:57:81:3e:f5:c3:bc:90:af:e0:bf:
                    a5:ac:d4:c4:9e:62:63:28:ed:a9:f7:7c:db:70:81:
                    70:0d:70:60:53:db:43:76:0c:b2:c0:63:be:8f:3e:
                    04:de:90:c7:e8:69:4b:93:39:15:3e:8f:f3:f9:e5:
                    80:06:05:ce:6e:2f:06:28:f1:3e:3b:39:1d:d7:57:
                    8d:47:aa:9b:f5:9d:78:87:cb:98:c5:a7:16:de:ab:
                    5e:f8:7b:8e:33:21:04:6d:de:98:4c:f6:16:15:6a:
                    fc:61:17:c6:9d:98:54:43:eb:57:c9:dd:05:47:26:
                    7c:7f:48:82:6e:c1:e2:a2:e9:1e:f0:53:fb:ec:5e:
                    29:d9:11:7a:2d:72:eb:b5:8c:e4:18:df:57:29:94:
                    da:db:5a:6d:28:11:3d:2e:0e:a1:0f:65:f9:02:e6:
                    bc:33
                Exponent: 65537 (0x10001)
        X509v3 extensions:
            X509v3 Basic Constraints: 
                CA:FALSE
            X509v3 Subject Key Identifier: 
                AB:86:9D:F8:2A:8F:94:58:B4:12:97:AE:5B:D2:F6:8D:F7:04:39:3A
            X509v3 Authority Key Identifier: 
                keyid:E5:28:4B:48:E2:81:29:D9:64:44:5A:FD:A6:0C:01:C7:14:ED:D0:8A
                DirName:/CN=team680-net
                serial:06:C7:88:4F:02:DE:82:DA:C4:79:89:86:26:8F:02:01:B7:67:25:CE

            X509v3 Extended Key Usage: 
                TLS Web Client Authentication
            X509v3 Key Usage: 
                Digital Signature
    Signature Algorithm: sha256WithRSAEncryption
         07:20:85:81:2e:03:c5:30:0d:0f:43:1e:f1:13:5a:9c:18:44:
         3d:6d:d2:f7:88:25:36:90:8e:79:9e:be:62:13:97:8a:7f:f4:
         cd:b8:e9:ee:98:01:e6:78:20:05:cf:52:1c:c5:81:8d:48:6e:
         33:76:f9:46:9e:40:3d:73:a5:4a:53:81:8e:2e:18:01:95:e5:
         32:0b:a7:16:c0:8c:c5:de:4a:3c:6f:13:ae:1e:a4:f3:20:d1:
         99:8b:54:db:3d:fc:8e:59:f1:e2:d9:4e:bd:b5:5a:2a:c6:f9:
         07:51:f1:c7:3f:db:4e:9f:a4:a5:6f:44:3a:07:af:e2:f8:bd:
         c0:0b:ab:02:0f:1c:7f:d5:06:73:e2:01:41:ea:eb:df:dc:55:
         53:c0:22:45:2f:82:a8:b4:93:5a:da:28:01:c7:86:9a:e3:06:
         20:89:c8:13:80:41:49:71:ac:d6:2f:c6:8d:72:46:bb:f8:cc:
         dc:45:33:cf:be:67:5f:ba:28:1b:c5:41:10:1c:11:f0:49:ec:
         3d:11:df:56:21:41:a5:28:01:ae:6f:3b:38:4d:31:c0:5d:40:
         38:7d:5d:d7:ac:f2:95:ad:8f:91:33:8c:75:68:a0:63:f9:7a:
         d7:52:39:7c:0e:54:58:df:93:ac:9b:f1:13:13:17:fc:52:b5:
         55:f5:fb:d3
-----BEGIN CERTIFICATE-----
MIIDXTCCAkWgAwIBAgIRAOFyvlby4/lhNgzE5oYK/jYwDQYJKoZIhvcNAQELBQAw
FjEUMBIGA1UEAwwLdGVhbTY4MC1uZXQwHhcNMjIwNTE4MjMzNzA4WhcNMjUwNTAy
MjMzNzA4WjAZMRcwFQYDVQQDDA50ZWFtNjgwLWNsaWVudDCCASIwDQYJKoZIhvcN
AQEBBQADggEPADCCAQoCggEBANShGs2zHvGfJqvuXSs36V072Q/loeqkqvGzoH8W
puEHz63OSjQluq7vRC0cEpA4wAn2Yjz1n6Eo8WQa7t0qVcL6GLzHkiWcSL+HkSnU
PYOQXT8RVMxs2MOph9M6VBtXgT71w7yQr+C/pazUxJ5iYyjtqfd823CBcA1wYFPb
Q3YMssBjvo8+BN6Qx+hpS5M5FT6P8/nlgAYFzm4vBijxPjs5HddXjUeqm/WdeIfL
mMWnFt6rXvh7jjMhBG3emEz2FhVq/GEXxp2YVEPrV8ndBUcmfH9Igm7B4qLpHvBT
++xeKdkRei1y67WM5BjfVymU2ttabSgRPS4OoQ9l+QLmvDMCAwEAAaOBojCBnzAJ
BgNVHRMEAjAAMB0GA1UdDgQWBBSrhp34Ko+UWLQSl65b0vaN9wQ5OjBRBgNVHSME
SjBIgBTlKEtI4oEp2WREWv2mDAHHFO3QiqEapBgwFjEUMBIGA1UEAwwLdGVhbTY4
MC1uZXSCFAbHiE8C3oLaxHmJhiaPAgG3ZyXOMBMGA1UdJQQMMAoGCCsGAQUFBwMC
MAsGA1UdDwQEAwIHgDANBgkqhkiG9w0BAQsFAAOCAQEAByCFgS4DxTAND0Me8RNa
nBhEPW3S94glNpCOeZ6+YhOXin/0zbjp7pgB5nggBc9SHMWBjUhuM3b5Rp5APXOl
SlOBji4YAZXlMgunFsCMxd5KPG8Trh6k8yDRmYtU2z38jlnx4tlOvbVaKsb5B1Hx
xz/bTp+kpW9EOgev4vi9wAurAg8cf9UGc+IBQerr39xVU8AiRS+CqLSTWtooAceG
muMGIInIE4BBSXGs1i/GjXJGu/jM3EUzz75nX7ooG8VBEBwR8EnsPRHfViFBpSgB
rm87OE0xwF1AOH1d16zyla2PkTOMdWigY/l611I5fA5UWN+TrJvxExMX/FK1VfX7
0w==
-----END CERTIFICATE-----
