Certificate:
    Data:
        Version: 3 (0x2)
        Serial Number:
            2d:73:c1:08:9c:29:1f:ce:5d:a6:36:75:d8:ff:3f:aa
        Signature Algorithm: sha256WithRSAEncryption
        Issuer: CN=team165-net
        Validity
            Not Before: May 18 18:49:47 2022 GMT
            Not After : May  2 18:49:47 2025 GMT
        Subject: CN=team165-server
        Subject Public Key Info:
            Public Key Algorithm: rsaEncryption
                RSA Public-Key: (2048 bit)
                Modulus:
                    00:ab:da:3e:5f:0c:a2:f9:3c:5e:99:30:1f:fe:c7:
                    0a:47:5d:cd:cd:9d:66:3c:24:5d:cb:08:67:93:ad:
                    5c:24:35:ee:58:30:8d:b6:a5:ea:29:ce:72:ed:61:
                    f1:ef:7d:79:7b:fa:dc:fa:68:c2:e0:2b:6b:39:e0:
                    a3:16:0e:a8:76:a1:94:85:0f:c0:56:58:29:bd:bb:
                    40:df:d1:da:ef:f9:17:93:26:6b:6a:c8:79:ec:9f:
                    cf:c9:b4:35:f2:56:79:0e:7a:63:be:5a:8a:b4:f4:
                    d3:c2:37:f6:25:52:f7:c5:5a:ab:b0:fe:74:4c:7d:
                    a3:7e:0c:30:15:c3:6e:bc:7c:44:88:f3:cc:9f:c0:
                    46:4b:f9:7e:77:7c:d0:dc:65:93:8d:5c:01:b3:b4:
                    e0:59:65:5d:2a:63:4a:41:25:38:d2:5b:ed:46:f9:
                    21:2d:f3:3c:fe:41:62:fd:c9:96:8d:9b:07:13:68:
                    d8:48:bc:d6:15:8b:5c:89:95:27:a7:6f:e3:6c:50:
                    42:18:51:51:6e:4e:1a:5a:b1:61:c7:62:4a:0d:47:
                    0b:94:f0:15:8d:c5:8c:d4:7c:0b:bf:e8:3c:3d:fa:
                    3c:b6:3a:c0:de:24:f6:a5:37:2f:26:6d:a8:0b:a5:
                    8e:e0:6d:6e:32:25:af:04:70:b9:b8:81:a5:10:ec:
                    da:87
                Exponent: 65537 (0x10001)
        X509v3 extensions:
            X509v3 Basic Constraints: 
                CA:FALSE
            X509v3 Subject Key Identifier: 
                E0:15:7C:54:7C:15:AD:6C:28:CB:DA:D8:DA:6B:30:4E:F1:C9:3C:5A
            X509v3 Authority Key Identifier: 
                keyid:5B:48:7F:42:E6:78:02:D1:95:3A:21:46:8B:41:94:DB:96:92:15:75
                DirName:/CN=team165-net
                serial:25:EE:7D:60:3F:D4:66:48:16:31:B7:2E:F0:78:72:51:3F:10:B5:37

            X509v3 Extended Key Usage: 
                TLS Web Server Authentication
            X509v3 Key Usage: 
                Digital Signature, Key Encipherment
            X509v3 Subject Alternative Name: 
                DNS:team165-server
    Signature Algorithm: sha256WithRSAEncryption
         4f:91:e0:94:5e:aa:5c:83:85:aa:40:60:b5:0c:4e:d7:2a:02:
         be:22:7a:23:7e:0a:c2:94:a4:ac:44:dc:c8:fa:e2:96:de:16:
         7e:c8:a8:d2:08:8e:0e:f9:f1:6a:15:d0:5d:c6:1b:20:77:1f:
         cb:87:ea:30:b7:df:8b:1a:a0:54:c5:aa:b8:ea:38:42:b7:a7:
         08:fb:b6:ea:e7:49:84:da:d4:00:b1:e8:b8:05:f0:a8:27:c9:
         b4:c9:34:f1:42:9f:4b:c6:1e:28:77:d1:29:34:39:44:20:80:
         dd:db:25:c1:de:bf:39:e3:ec:fe:12:5b:bb:7a:78:51:4a:84:
         c2:70:5c:8b:b3:54:27:a2:c0:f8:05:a9:95:61:4d:a5:ea:07:
         4b:fe:42:3b:ee:0b:86:8b:a3:08:44:65:67:e6:ec:46:25:66:
         0d:a6:36:f9:23:93:95:f1:a6:13:fa:9b:85:b7:49:a5:64:ea:
         1a:1b:65:55:fe:28:c5:7e:f3:ce:11:28:16:ae:73:96:48:81:
         3d:a3:4c:78:a4:03:94:0f:1f:c6:70:6d:64:fc:06:53:ea:d3:
         df:98:81:fa:5d:35:75:68:43:d8:f4:fb:6b:37:22:46:f3:d9:
         2a:70:a0:d3:74:e1:0c:47:7e:66:1c:ad:8a:54:b5:66:2a:a5:
         f9:aa:1c:67
-----BEGIN CERTIFICATE-----
MIIDdzCCAl+gAwIBAgIQLXPBCJwpH85dpjZ12P8/qjANBgkqhkiG9w0BAQsFADAW
MRQwEgYDVQQDDAt0ZWFtMTY1LW5ldDAeFw0yMjA1MTgxODQ5NDdaFw0yNTA1MDIx
ODQ5NDdaMBkxFzAVBgNVBAMMDnRlYW0xNjUtc2VydmVyMIIBIjANBgkqhkiG9w0B
AQEFAAOCAQ8AMIIBCgKCAQEAq9o+Xwyi+TxemTAf/scKR13NzZ1mPCRdywhnk61c
JDXuWDCNtqXqKc5y7WHx7315e/rc+mjC4CtrOeCjFg6odqGUhQ/AVlgpvbtA39Ha
7/kXkyZrash57J/PybQ18lZ5DnpjvlqKtPTTwjf2JVL3xVqrsP50TH2jfgwwFcNu
vHxEiPPMn8BGS/l+d3zQ3GWTjVwBs7TgWWVdKmNKQSU40lvtRvkhLfM8/kFi/cmW
jZsHE2jYSLzWFYtciZUnp2/jbFBCGFFRbk4aWrFhx2JKDUcLlPAVjcWM1HwLv+g8
Pfo8tjrA3iT2pTcvJm2oC6WO4G1uMiWvBHC5uIGlEOzahwIDAQABo4G9MIG6MAkG
A1UdEwQCMAAwHQYDVR0OBBYEFOAVfFR8Fa1sKMva2NprME7xyTxaMFEGA1UdIwRK
MEiAFFtIf0LmeALRlTohRotBlNuWkhV1oRqkGDAWMRQwEgYDVQQDDAt0ZWFtMTY1
LW5ldIIUJe59YD/UZkgWMbcu8HhyUT8QtTcwEwYDVR0lBAwwCgYIKwYBBQUHAwEw
CwYDVR0PBAQDAgWgMBkGA1UdEQQSMBCCDnRlYW0xNjUtc2VydmVyMA0GCSqGSIb3
DQEBCwUAA4IBAQBPkeCUXqpcg4WqQGC1DE7XKgK+InojfgrClKSsRNzI+uKW3hZ+
yKjSCI4O+fFqFdBdxhsgdx/Lh+owt9+LGqBUxaq46jhCt6cI+7bq50mE2tQAsei4
BfCoJ8m0yTTxQp9Lxh4od9EpNDlEIIDd2yXB3r854+z+Elu7enhRSoTCcFyLs1Qn
osD4BamVYU2l6gdL/kI77guGi6MIRGVn5uxGJWYNpjb5I5OV8aYT+puFt0mlZOoa
G2VV/ijFfvPOESgWrnOWSIE9o0x4pAOUDx/GcG1k/AZT6tPfmIH6XTV1aEPY9Ptr
NyJG89kqcKDTdOEMR35mHK2KVLVmKqX5qhxn
-----END CERTIFICATE-----
