Certificate:
    Data:
        Version: 3 (0x2)
        Serial Number:
            63:19:40:ad:ba:ad:a9:fe:b2:a3:ec:d9:dd:90:36:9b
        Signature Algorithm: sha256WithRSAEncryption
        Issuer: CN=team588-net
        Validity
            Not Before: May 18 22:40:36 2022 GMT
            Not After : May  2 22:40:36 2025 GMT
        Subject: CN=team588-client
        Subject Public Key Info:
            Public Key Algorithm: rsaEncryption
                RSA Public-Key: (2048 bit)
                Modulus:
                    00:ea:00:6f:fb:8c:14:62:0c:06:a4:6b:57:55:2d:
                    a9:c0:ac:26:21:bf:66:2f:f2:2a:6b:34:6d:ce:f1:
                    d1:39:18:12:60:b2:26:78:c7:36:2c:f9:a9:9b:36:
                    8d:ce:af:9e:a0:86:f0:7b:96:5d:4b:bf:16:23:26:
                    ea:51:b1:41:dd:ef:fd:c8:0a:05:1f:5b:6d:85:02:
                    53:e6:93:d1:bd:44:2a:b4:0c:27:09:6b:6a:b5:01:
                    8d:3c:94:fc:94:be:b7:2e:e4:c1:99:b8:74:14:25:
                    19:04:73:52:66:0a:de:30:05:18:f5:00:9a:39:0c:
                    87:c0:a0:7f:e6:90:15:3e:28:cc:84:c5:e7:e4:c0:
                    ff:69:e5:4a:eb:02:dd:f4:34:b7:5c:d1:77:2e:0e:
                    28:d2:98:81:58:0d:86:4c:81:77:58:dc:3d:5f:2e:
                    73:a5:74:b4:c8:88:f8:d5:bb:12:45:79:7e:90:b3:
                    e5:20:7c:a2:08:97:cd:24:8f:f1:64:da:a9:13:c5:
                    b2:3a:53:9f:4c:23:ac:81:26:4b:e3:34:67:80:eb:
                    a0:22:3c:92:1a:1a:e1:86:ff:b1:75:f8:5b:8a:98:
                    64:05:97:a1:6e:dc:43:85:72:4d:1b:2d:1b:bd:2d:
                    c3:04:44:0c:3b:d4:2c:10:b5:24:5e:c4:0e:93:67:
                    07:c1
                Exponent: 65537 (0x10001)
        X509v3 extensions:
            X509v3 Basic Constraints: 
                CA:FALSE
            X509v3 Subject Key Identifier: 
                3E:00:E1:D0:C1:CA:8A:62:89:CA:BB:A8:B0:53:78:0B:05:9F:08:64
            X509v3 Authority Key Identifier: 
                keyid:14:6A:B9:21:FE:0C:5A:35:4F:41:22:2A:69:35:48:74:24:98:E2:DF
                DirName:/CN=team588-net
                serial:17:C0:03:E0:D0:6F:FC:91:3B:53:BD:F7:7F:76:35:8D:49:E4:A5:3D

            X509v3 Extended Key Usage: 
                TLS Web Client Authentication
            X509v3 Key Usage: 
                Digital Signature
    Signature Algorithm: sha256WithRSAEncryption
         c8:c3:47:d3:d8:ed:f7:60:1d:b0:c2:18:cb:56:54:e0:ed:90:
         42:d5:6b:39:dd:ee:71:50:e0:80:80:da:24:1a:26:77:65:bd:
         a5:7f:75:00:12:a2:7a:3c:b1:d9:93:90:9b:83:fc:41:3d:8f:
         9a:d9:15:0d:2c:1a:e8:33:72:e0:76:13:1c:12:42:df:2f:9e:
         f7:72:88:b6:3a:33:95:a0:08:7f:43:3d:5a:c7:2b:80:94:6d:
         9e:64:e2:e5:b2:2b:cb:5e:58:3f:f6:8a:b5:fb:58:1b:b3:81:
         53:1d:8e:d1:26:69:a4:91:f3:1a:1c:80:38:d6:01:da:e2:df:
         72:46:64:8c:e2:60:63:6a:42:b9:d8:f2:ba:6f:eb:93:17:32:
         12:b0:41:04:54:9f:5a:28:6f:d0:03:ab:f5:bf:d1:17:dd:68:
         56:e4:04:69:3a:bb:33:92:2c:04:73:6d:ea:9f:bf:fb:5c:6d:
         29:43:f8:9d:b1:db:db:60:36:53:60:f5:91:ff:ac:a8:13:fa:
         8c:b0:3d:d0:77:ea:75:e9:bd:18:7a:05:e0:30:0e:ac:11:7a:
         b9:ed:bd:f5:0c:af:05:1b:dd:0d:43:7d:3b:1d:ca:98:d6:b6:
         f1:2e:fe:14:13:6d:cd:95:b8:3f:27:d9:69:d7:e2:c2:74:0c:
         ad:c3:c2:0f
-----BEGIN CERTIFICATE-----
MIIDXDCCAkSgAwIBAgIQYxlArbqtqf6yo+zZ3ZA2mzANBgkqhkiG9w0BAQsFADAW
MRQwEgYDVQQDDAt0ZWFtNTg4LW5ldDAeFw0yMjA1MTgyMjQwMzZaFw0yNTA1MDIy
MjQwMzZaMBkxFzAVBgNVBAMMDnRlYW01ODgtY2xpZW50MIIBIjANBgkqhkiG9w0B
AQEFAAOCAQ8AMIIBCgKCAQEA6gBv+4wUYgwGpGtXVS2pwKwmIb9mL/IqazRtzvHR
ORgSYLImeMc2LPmpmzaNzq+eoIbwe5ZdS78WIybqUbFB3e/9yAoFH1tthQJT5pPR
vUQqtAwnCWtqtQGNPJT8lL63LuTBmbh0FCUZBHNSZgreMAUY9QCaOQyHwKB/5pAV
PijMhMXn5MD/aeVK6wLd9DS3XNF3Lg4o0piBWA2GTIF3WNw9Xy5zpXS0yIj41bsS
RXl+kLPlIHyiCJfNJI/xZNqpE8WyOlOfTCOsgSZL4zRngOugIjySGhrhhv+xdfhb
iphkBZehbtxDhXJNGy0bvS3DBEQMO9QsELUkXsQOk2cHwQIDAQABo4GiMIGfMAkG
A1UdEwQCMAAwHQYDVR0OBBYEFD4A4dDByopiicq7qLBTeAsFnwhkMFEGA1UdIwRK
MEiAFBRquSH+DFo1T0EiKmk1SHQkmOLfoRqkGDAWMRQwEgYDVQQDDAt0ZWFtNTg4
LW5ldIIUF8AD4NBv/JE7U733f3Y1jUnkpT0wEwYDVR0lBAwwCgYIKwYBBQUHAwIw
CwYDVR0PBAQDAgeAMA0GCSqGSIb3DQEBCwUAA4IBAQDIw0fT2O33YB2wwhjLVlTg
7ZBC1Ws53e5xUOCAgNokGiZ3Zb2lf3UAEqJ6PLHZk5Cbg/xBPY+a2RUNLBroM3Lg
dhMcEkLfL573coi2OjOVoAh/Qz1axyuAlG2eZOLlsivLXlg/9oq1+1gbs4FTHY7R
JmmkkfMaHIA41gHa4t9yRmSM4mBjakK52PK6b+uTFzISsEEEVJ9aKG/QA6v1v9EX
3WhW5ARpOrszkiwEc23qn7/7XG0pQ/idsdvbYDZTYPWR/6yoE/qMsD3Qd+p16b0Y
egXgMA6sEXq57b31DK8FG90NQ307HcqY1rbxLv4UE23Nlbg/J9lp1+LCdAytw8IP
-----END CERTIFICATE-----
