Certificate:
    Data:
        Version: 3 (0x2)
        Serial Number:
            a1:10:61:e7:f7:1a:f1:77:09:63:14:ee:c7:4a:29:11
        Signature Algorithm: sha256WithRSAEncryption
        Issuer: CN=team3-net
        Validity
            Not Before: May 18 13:57:15 2022 GMT
            Not After : May  2 13:57:15 2025 GMT
        Subject: CN=team3-server
        Subject Public Key Info:
            Public Key Algorithm: rsaEncryption
                RSA Public-Key: (2048 bit)
                Modulus:
                    00:dd:6b:3d:ee:c9:a1:78:6e:9a:1a:f6:99:79:d8:
                    57:1e:1e:a4:15:0f:60:cc:37:28:ae:56:3d:f7:6d:
                    ef:6c:76:d9:7b:7a:79:b3:84:fb:ac:52:3c:27:47:
                    3c:73:3e:2b:5c:ab:e2:8b:e4:2f:eb:c7:22:4d:30:
                    72:e3:5d:e8:be:ce:36:db:52:b2:a3:40:ea:c7:f0:
                    c3:db:08:67:e0:6f:c1:19:04:1a:ae:e6:8f:70:5a:
                    fb:c3:85:a3:55:38:04:3a:e9:2f:a9:e8:9c:38:70:
                    ba:5c:ed:36:74:20:6a:18:13:05:e4:7a:ed:80:0a:
                    75:96:d1:49:0a:74:eb:25:23:6e:9f:aa:29:f0:54:
                    37:9b:75:e6:03:8a:4d:07:18:b4:92:15:d6:41:84:
                    fe:fd:a8:93:8e:48:6d:1c:55:ed:06:9b:ff:33:ca:
                    7c:05:d7:ee:62:24:f1:5c:d5:f2:48:a9:6e:bf:bb:
                    df:fd:8c:30:51:15:16:a1:aa:6a:ed:56:99:47:58:
                    e6:81:85:08:0e:24:f9:40:f1:a9:0a:34:85:f2:cd:
                    d5:3c:51:d4:de:1d:23:ae:09:d4:7f:c4:1b:97:7a:
                    33:4c:75:26:77:e5:0d:6c:75:ab:4c:3a:81:c3:89:
                    d7:d9:7d:61:5e:da:5a:52:7d:19:05:88:2f:f3:1b:
                    b7:d3
                Exponent: 65537 (0x10001)
        X509v3 extensions:
            X509v3 Basic Constraints: 
                CA:FALSE
            X509v3 Subject Key Identifier: 
                49:CB:3A:98:4C:25:F4:AA:0F:B1:33:EA:C3:3B:7A:D3:DD:53:F1:63
            X509v3 Authority Key Identifier: 
                keyid:2C:A1:6D:F8:03:DF:F0:4F:11:DE:99:C0:79:E4:9F:5C:52:45:24:46
                DirName:/CN=team3-net
                serial:17:E1:15:1E:3A:B4:FA:90:89:D6:D9:D6:B0:1D:FA:EA:64:83:D2:A3

            X509v3 Extended Key Usage: 
                TLS Web Server Authentication
            X509v3 Key Usage: 
                Digital Signature, Key Encipherment
            X509v3 Subject Alternative Name: 
                DNS:team3-server
    Signature Algorithm: sha256WithRSAEncryption
         28:28:51:12:32:ab:d5:6c:f8:c2:7d:58:b4:22:a1:86:61:ea:
         0f:cc:59:23:32:0a:18:9e:4d:6a:5b:ea:04:50:bd:49:b7:7b:
         2b:69:61:7b:4e:53:e2:e5:0d:16:f8:cf:43:7d:2e:88:72:9f:
         27:14:0d:25:df:4b:5f:5f:26:d6:61:b4:d7:3b:d8:dc:df:8d:
         22:fe:f8:70:72:b9:a5:f8:b6:30:0d:ae:55:a8:25:ae:c7:df:
         18:ce:6e:23:7f:9d:3f:f2:78:0a:ac:f7:79:ea:f6:11:04:09:
         7a:71:81:c7:83:9b:22:77:18:f8:d2:1c:4c:5f:2a:c8:24:ba:
         3a:e8:1d:ad:e6:aa:09:c0:17:6b:c5:fe:15:c1:65:7e:f6:c4:
         56:3e:1e:31:99:8b:d1:66:3d:68:d3:43:ba:b3:62:16:f6:35:
         fd:77:eb:2e:df:9c:a8:20:7e:0c:fc:08:4d:eb:43:e3:2d:c2:
         07:50:bc:f3:62:5d:7c:14:35:2f:e6:4b:42:3c:01:b7:07:ef:
         d5:80:b8:d7:02:88:c9:74:eb:c5:69:f6:07:a3:6c:cf:10:07:
         eb:ce:61:aa:a5:85:3f:56:0d:a4:46:6a:40:9e:5b:58:6b:72:
         7d:69:c9:2a:37:c7:9a:cb:09:b5:f9:5b:e6:79:7f:6c:1e:59:
         8c:8e:b2:23
-----BEGIN CERTIFICATE-----
MIIDcDCCAligAwIBAgIRAKEQYef3GvF3CWMU7sdKKREwDQYJKoZIhvcNAQELBQAw
FDESMBAGA1UEAwwJdGVhbTMtbmV0MB4XDTIyMDUxODEzNTcxNVoXDTI1MDUwMjEz
NTcxNVowFzEVMBMGA1UEAwwMdGVhbTMtc2VydmVyMIIBIjANBgkqhkiG9w0BAQEF
AAOCAQ8AMIIBCgKCAQEA3Ws97smheG6aGvaZedhXHh6kFQ9gzDcorlY9923vbHbZ
e3p5s4T7rFI8J0c8cz4rXKvii+Qv68ciTTBy413ovs4221Kyo0Dqx/DD2whn4G/B
GQQaruaPcFr7w4WjVTgEOukvqeicOHC6XO02dCBqGBMF5HrtgAp1ltFJCnTrJSNu
n6op8FQ3m3XmA4pNBxi0khXWQYT+/aiTjkhtHFXtBpv/M8p8BdfuYiTxXNXySKlu
v7vf/YwwURUWoapq7VaZR1jmgYUIDiT5QPGpCjSF8s3VPFHU3h0jrgnUf8Qbl3oz
THUmd+UNbHWrTDqBw4nX2X1hXtpaUn0ZBYgv8xu30wIDAQABo4G5MIG2MAkGA1Ud
EwQCMAAwHQYDVR0OBBYEFEnLOphMJfSqD7Ez6sM7etPdU/FjME8GA1UdIwRIMEaA
FCyhbfgD3/BPEd6ZwHnkn1xSRSRGoRikFjAUMRIwEAYDVQQDDAl0ZWFtMy1uZXSC
FBfhFR46tPqQidbZ1rAd+upkg9KjMBMGA1UdJQQMMAoGCCsGAQUFBwMBMAsGA1Ud
DwQEAwIFoDAXBgNVHREEEDAOggx0ZWFtMy1zZXJ2ZXIwDQYJKoZIhvcNAQELBQAD
ggEBACgoURIyq9Vs+MJ9WLQioYZh6g/MWSMyChieTWpb6gRQvUm3eytpYXtOU+Ll
DRb4z0N9LohynycUDSXfS19fJtZhtNc72NzfjSL++HByuaX4tjANrlWoJa7H3xjO
biN/nT/yeAqs93nq9hEECXpxgceDmyJ3GPjSHExfKsgkujroHa3mqgnAF2vF/hXB
ZX72xFY+HjGZi9FmPWjTQ7qzYhb2Nf136y7fnKggfgz8CE3rQ+MtwgdQvPNiXXwU
NS/mS0I8AbcH79WAuNcCiMl068Vp9gejbM8QB+vOYaqlhT9WDaRGakCeW1hrcn1p
ySo3x5rLCbX5W+Z5f2weWYyOsiM=
-----END CERTIFICATE-----
