Certificate:
    Data:
        Version: 3 (0x2)
        Serial Number:
            11:61:46:26:bf:a9:0a:6a:ef:b6:5a:ca:2f:2c:32:7f
        Signature Algorithm: sha256WithRSAEncryption
        Issuer: CN=team377-net
        Validity
            Not Before: May 18 20:51:08 2022 GMT
            Not After : May  2 20:51:08 2025 GMT
        Subject: CN=team377-server
        Subject Public Key Info:
            Public Key Algorithm: rsaEncryption
                RSA Public-Key: (2048 bit)
                Modulus:
                    00:bb:44:f8:a0:44:c4:0f:14:4d:b4:01:a4:fc:41:
                    95:f3:00:03:2d:9c:35:eb:54:4e:7c:84:f1:8a:09:
                    22:d4:eb:90:d8:a3:08:5a:0b:3a:45:9e:ae:4d:e5:
                    5b:77:9f:91:41:8d:da:1c:44:bc:a5:cb:8a:53:9b:
                    e7:72:5a:47:7b:a6:5a:b6:0d:99:7a:57:01:70:53:
                    d6:fc:6d:70:a0:81:da:fc:43:12:0f:3a:6b:34:71:
                    6b:cf:63:17:4b:5a:31:11:dd:06:b7:ed:25:cc:d8:
                    41:97:b9:3e:8b:a0:c3:89:77:96:8e:9f:17:f4:57:
                    6b:27:7d:06:44:d6:fb:fc:08:41:a0:4f:1b:bf:6a:
                    58:49:6d:57:6c:93:fe:e7:39:d8:f3:d8:62:4f:3a:
                    89:b1:36:7f:f0:26:91:c4:28:fd:d7:d9:d4:2d:0a:
                    98:b2:5e:69:34:25:eb:b7:04:be:3a:54:11:9f:de:
                    20:c8:98:81:6c:d3:5b:81:6b:43:4f:0e:eb:d3:7e:
                    d7:2e:f3:4a:7d:13:16:65:c3:c1:65:b4:23:c7:24:
                    2b:83:6d:7e:9b:e6:b8:da:df:7e:ef:16:b5:f8:b2:
                    0c:91:71:38:ae:63:39:7b:2a:fa:0a:18:f4:c5:3c:
                    6e:ef:e8:a9:26:0e:b2:b8:9d:13:95:5c:37:7f:d1:
                    45:5b
                Exponent: 65537 (0x10001)
        X509v3 extensions:
            X509v3 Basic Constraints: 
                CA:FALSE
            X509v3 Subject Key Identifier: 
                8D:DE:D1:65:40:3E:C1:6F:71:9E:C6:F4:4A:AD:7F:D5:75:DC:29:D4
            X509v3 Authority Key Identifier: 
                keyid:EE:30:7F:46:B7:D3:06:29:49:DE:CB:04:D1:3D:80:54:89:38:A9:D6
                DirName:/CN=team377-net
                serial:48:1F:5D:0C:A8:03:9F:D1:20:02:7F:FA:D6:F3:49:DB:4C:B5:AB:79

            X509v3 Extended Key Usage: 
                TLS Web Server Authentication
            X509v3 Key Usage: 
                Digital Signature, Key Encipherment
            X509v3 Subject Alternative Name: 
                DNS:team377-server
    Signature Algorithm: sha256WithRSAEncryption
         39:13:4b:a2:34:f0:09:05:85:e3:8c:b3:28:70:ac:b8:17:18:
         d5:c7:7f:f7:fc:6a:05:23:d1:2c:73:f7:78:c2:83:ff:5f:c7:
         57:14:ad:88:f0:3f:f7:55:c2:53:4d:7c:29:85:c8:85:7d:95:
         d4:26:67:5a:b4:34:dd:1e:b4:21:99:d1:55:09:ac:a5:fb:07:
         1e:ad:ff:bd:9d:22:1e:1a:23:59:90:ce:9f:6b:3f:ed:c9:44:
         55:a2:e9:a1:04:ad:cf:0d:f2:c5:5f:0a:74:7d:60:bb:0e:92:
         a0:d3:d6:ac:35:24:0c:1a:32:2a:18:c6:1c:2c:8d:32:a7:d5:
         57:c8:2f:61:e9:ac:fa:ac:1b:f1:9a:7f:00:4d:53:c3:6e:f3:
         16:ec:a6:84:c7:76:94:f1:e2:b6:d3:d3:16:36:ee:95:3c:5d:
         72:bc:42:91:d4:af:30:ed:ff:bc:45:82:a6:b7:b0:73:36:22:
         35:e5:64:cc:e4:4b:c6:10:72:d9:5e:8b:ce:cc:70:3a:0a:c7:
         81:ee:b2:5a:46:e9:d0:ea:9f:1d:55:27:df:12:5d:25:a5:6e:
         e0:b9:80:04:36:78:b5:05:29:1b:0a:5f:48:90:5c:93:76:93:
         67:a6:48:36:86:82:1b:50:69:51:91:4e:70:e9:54:22:b2:cd:
         94:fc:a8:6b
-----BEGIN CERTIFICATE-----
MIIDdzCCAl+gAwIBAgIQEWFGJr+pCmrvtlrKLywyfzANBgkqhkiG9w0BAQsFADAW
MRQwEgYDVQQDDAt0ZWFtMzc3LW5ldDAeFw0yMjA1MTgyMDUxMDhaFw0yNTA1MDIy
MDUxMDhaMBkxFzAVBgNVBAMMDnRlYW0zNzctc2VydmVyMIIBIjANBgkqhkiG9w0B
AQEFAAOCAQ8AMIIBCgKCAQEAu0T4oETEDxRNtAGk/EGV8wADLZw161ROfITxigki
1OuQ2KMIWgs6RZ6uTeVbd5+RQY3aHES8pcuKU5vnclpHe6Zatg2ZelcBcFPW/G1w
oIHa/EMSDzprNHFrz2MXS1oxEd0Gt+0lzNhBl7k+i6DDiXeWjp8X9FdrJ30GRNb7
/AhBoE8bv2pYSW1XbJP+5znY89hiTzqJsTZ/8CaRxCj919nULQqYsl5pNCXrtwS+
OlQRn94gyJiBbNNbgWtDTw7r037XLvNKfRMWZcPBZbQjxyQrg21+m+a42t9+7xa1
+LIMkXE4rmM5eyr6Chj0xTxu7+ipJg6yuJ0TlVw3f9FFWwIDAQABo4G9MIG6MAkG
A1UdEwQCMAAwHQYDVR0OBBYEFI3e0WVAPsFvcZ7G9Eqtf9V13CnUMFEGA1UdIwRK
MEiAFO4wf0a30wYpSd7LBNE9gFSJOKnWoRqkGDAWMRQwEgYDVQQDDAt0ZWFtMzc3
LW5ldIIUSB9dDKgDn9EgAn/61vNJ20y1q3kwEwYDVR0lBAwwCgYIKwYBBQUHAwEw
CwYDVR0PBAQDAgWgMBkGA1UdEQQSMBCCDnRlYW0zNzctc2VydmVyMA0GCSqGSIb3
DQEBCwUAA4IBAQA5E0uiNPAJBYXjjLMocKy4FxjVx3/3/GoFI9Esc/d4woP/X8dX
FK2I8D/3VcJTTXwphciFfZXUJmdatDTdHrQhmdFVCayl+wcerf+9nSIeGiNZkM6f
az/tyURVoumhBK3PDfLFXwp0fWC7DpKg09asNSQMGjIqGMYcLI0yp9VXyC9h6az6
rBvxmn8ATVPDbvMW7KaEx3aU8eK209MWNu6VPF1yvEKR1K8w7f+8RYKmt7BzNiI1
5WTM5EvGEHLZXovOzHA6CseB7rJaRunQ6p8dVSffEl0lpW7guYAENni1BSkbCl9I
kFyTdpNnpkg2hoIbUGlRkU5w6VQiss2U/Khr
-----END CERTIFICATE-----
