Certificate:
    Data:
        Version: 3 (0x2)
        Serial Number:
            e4:4b:42:65:82:8f:8d:5d:60:2b:34:5d:b9:22:a8:78
        Signature Algorithm: sha256WithRSAEncryption
        Issuer: CN=team313-net
        Validity
            Not Before: May 18 20:14:50 2022 GMT
            Not After : May  2 20:14:50 2025 GMT
        Subject: CN=team313-client
        Subject Public Key Info:
            Public Key Algorithm: rsaEncryption
                RSA Public-Key: (2048 bit)
                Modulus:
                    00:b0:c0:ff:81:fc:5e:55:97:c7:f1:61:ff:f5:be:
                    73:14:62:99:22:a8:7c:65:18:89:31:ae:ab:2e:5e:
                    f3:88:37:dc:d9:b4:43:62:05:80:85:3c:67:7c:bd:
                    28:85:cc:78:55:c0:a0:bb:90:e2:1f:a9:53:45:6d:
                    21:95:40:a1:31:45:83:71:84:77:40:84:9e:20:4e:
                    96:96:2a:8b:17:0b:00:c9:1c:0f:6a:96:fd:77:10:
                    6c:b7:98:83:65:c5:3e:64:2d:d7:75:c7:58:e7:48:
                    92:5c:c7:03:98:0b:a8:30:05:75:fe:b4:34:d2:34:
                    83:bf:01:ad:05:1d:0b:88:51:81:b5:00:d1:0c:ff:
                    10:a5:b7:c4:d3:02:ff:e4:6b:ea:1c:c6:c4:5e:b1:
                    d1:17:1b:65:26:ec:79:b7:8b:b3:ff:1c:b7:2a:59:
                    ee:02:a2:70:b1:82:7b:d1:d6:4e:ef:1f:8b:f1:1c:
                    ca:ed:7a:a6:47:07:5d:4d:da:04:f9:5a:a2:c9:64:
                    3a:20:6e:e4:a8:d5:ac:70:83:b2:dd:ca:17:b9:5c:
                    03:98:51:3b:71:67:a0:fc:f5:0e:b2:78:1e:81:10:
                    7a:29:1c:1d:30:ce:0e:93:82:b9:d1:36:9d:4f:0f:
                    04:a6:06:c2:b6:7d:ea:f6:51:90:4d:b8:6e:46:f6:
                    42:91
                Exponent: 65537 (0x10001)
        X509v3 extensions:
            X509v3 Basic Constraints: 
                CA:FALSE
            X509v3 Subject Key Identifier: 
                73:5A:BD:05:75:42:34:52:C6:E4:DF:35:0D:BF:64:87:B9:B7:CC:9E
            X509v3 Authority Key Identifier: 
                keyid:EE:09:34:75:40:32:00:99:15:4E:45:E6:51:16:4A:98:B2:FC:47:E1
                DirName:/CN=team313-net
                serial:0A:03:4D:D6:76:3F:E5:4C:18:1E:26:F2:96:D9:84:CA:5F:B9:00:FE

            X509v3 Extended Key Usage: 
                TLS Web Client Authentication
            X509v3 Key Usage: 
                Digital Signature
    Signature Algorithm: sha256WithRSAEncryption
         4d:a6:43:fa:df:b1:2c:75:e5:40:5e:90:64:fc:aa:e5:b8:42:
         cf:44:35:67:db:41:d2:cf:92:ae:4a:79:d9:94:0c:35:58:e1:
         b6:46:80:ec:07:7d:22:aa:9c:3a:05:8e:d5:9f:ac:f5:7d:fa:
         fc:b6:73:90:7d:07:d6:c4:24:1f:ec:b9:1f:4a:1d:6d:e2:c2:
         f4:8c:68:75:45:88:b1:7a:15:77:79:e9:10:4f:21:93:c9:a0:
         e1:03:af:d5:56:12:0a:1b:e9:1f:4d:c8:31:61:29:7b:1b:17:
         ff:b2:bc:44:5c:81:9a:65:04:af:21:a3:c6:25:83:8d:c5:a5:
         ea:43:3c:38:8f:ec:d9:f7:2b:3a:6b:67:fd:d0:c3:85:aa:71:
         1d:9e:b0:41:1e:6f:84:ca:63:6a:19:f4:4e:f7:c2:1f:32:10:
         10:48:11:1e:c0:a6:c4:44:9c:d0:c2:a4:28:80:7d:e9:a0:f0:
         f3:bf:e6:3c:b4:a9:af:10:83:b2:14:cb:dc:60:f4:d4:fa:33:
         3f:86:1c:09:82:d3:4f:2c:b7:13:3c:f5:b6:62:13:fd:e8:d1:
         06:6d:58:29:87:46:21:64:46:17:8f:99:9c:46:69:f7:90:88:
         74:bd:37:38:c3:19:ab:41:b1:7f:79:9c:6e:45:9e:37:fa:95:
         57:3c:63:b2
-----BEGIN CERTIFICATE-----
MIIDXTCCAkWgAwIBAgIRAORLQmWCj41dYCs0XbkiqHgwDQYJKoZIhvcNAQELBQAw
FjEUMBIGA1UEAwwLdGVhbTMxMy1uZXQwHhcNMjIwNTE4MjAxNDUwWhcNMjUwNTAy
MjAxNDUwWjAZMRcwFQYDVQQDDA50ZWFtMzEzLWNsaWVudDCCASIwDQYJKoZIhvcN
AQEBBQADggEPADCCAQoCggEBALDA/4H8XlWXx/Fh//W+cxRimSKofGUYiTGuqy5e
84g33Nm0Q2IFgIU8Z3y9KIXMeFXAoLuQ4h+pU0VtIZVAoTFFg3GEd0CEniBOlpYq
ixcLAMkcD2qW/XcQbLeYg2XFPmQt13XHWOdIklzHA5gLqDAFdf60NNI0g78BrQUd
C4hRgbUA0Qz/EKW3xNMC/+Rr6hzGxF6x0RcbZSbsebeLs/8ctypZ7gKicLGCe9HW
Tu8fi/Ecyu16pkcHXU3aBPlaoslkOiBu5KjVrHCDst3KF7lcA5hRO3FnoPz1DrJ4
HoEQeikcHTDODpOCudE2nU8PBKYGwrZ96vZRkE24bkb2QpECAwEAAaOBojCBnzAJ
BgNVHRMEAjAAMB0GA1UdDgQWBBRzWr0FdUI0Usbk3zUNv2SHubfMnjBRBgNVHSME
SjBIgBTuCTR1QDIAmRVOReZRFkqYsvxH4aEapBgwFjEUMBIGA1UEAwwLdGVhbTMx
My1uZXSCFAoDTdZ2P+VMGB4m8pbZhMpfuQD+MBMGA1UdJQQMMAoGCCsGAQUFBwMC
MAsGA1UdDwQEAwIHgDANBgkqhkiG9w0BAQsFAAOCAQEATaZD+t+xLHXlQF6QZPyq
5bhCz0Q1Z9tB0s+Srkp52ZQMNVjhtkaA7Ad9IqqcOgWO1Z+s9X36/LZzkH0H1sQk
H+y5H0odbeLC9IxodUWIsXoVd3npEE8hk8mg4QOv1VYSChvpH03IMWEpexsX/7K8
RFyBmmUEryGjxiWDjcWl6kM8OI/s2fcrOmtn/dDDhapxHZ6wQR5vhMpjahn0TvfC
HzIQEEgRHsCmxESc0MKkKIB96aDw87/mPLSprxCDshTL3GD01PozP4YcCYLTTyy3
Ezz1tmIT/ejRBm1YKYdGIWRGF4+ZnEZp95CIdL03OMMZq0Gxf3mcbkWeN/qVVzxj
sg==
-----END CERTIFICATE-----
