Certificate:
    Data:
        Version: 3 (0x2)
        Serial Number:
            31:10:95:0e:91:ff:6e:8e:30:9f:7f:84:b9:c2:df:48
        Signature Algorithm: sha256WithRSAEncryption
        Issuer: CN=team34-net
        Validity
            Not Before: May 18 14:13:05 2022 GMT
            Not After : May  2 14:13:05 2025 GMT
        Subject: CN=team34-server
        Subject Public Key Info:
            Public Key Algorithm: rsaEncryption
                RSA Public-Key: (2048 bit)
                Modulus:
                    00:9f:63:3a:02:a4:bf:51:48:b8:12:45:4f:76:ac:
                    44:42:34:48:1b:93:32:95:a7:2b:82:7a:48:73:67:
                    2c:ba:0a:d6:9e:e5:1f:91:0c:ca:d1:9e:1d:9c:b9:
                    e9:f1:18:b7:2c:df:c9:9f:cf:6c:1d:c4:9c:22:36:
                    97:9b:a3:b7:16:5a:22:e8:b2:2e:e1:64:21:20:eb:
                    95:cf:57:ee:a4:de:6a:7c:f9:c5:e2:35:be:f1:86:
                    d9:0d:7c:d6:2f:f2:09:c9:0b:eb:a8:ae:60:bc:69:
                    29:32:8d:59:56:4f:7e:11:5a:8a:07:42:53:20:9a:
                    da:de:5b:0f:82:1e:77:37:f9:11:45:d8:8d:7d:9a:
                    60:0b:da:6b:69:c6:95:60:9d:de:6f:da:9e:1d:9c:
                    66:ad:3e:30:17:ce:2f:ad:a0:7a:f2:31:65:17:3c:
                    5a:fa:33:a7:be:3f:7b:eb:f0:cd:dd:25:73:69:d0:
                    10:c8:a8:7f:57:79:54:cb:74:02:87:fd:0e:6e:a1:
                    76:ff:45:16:15:29:a8:53:0e:88:dc:96:88:bd:a4:
                    5e:00:0a:df:c7:72:81:4e:07:c1:45:b5:ed:5f:0e:
                    0e:11:b0:48:0c:1d:24:7f:95:b4:bb:58:5e:07:b0:
                    86:71:54:90:94:8d:52:16:15:dc:b1:a1:a2:60:92:
                    ca:db
                Exponent: 65537 (0x10001)
        X509v3 extensions:
            X509v3 Basic Constraints: 
                CA:FALSE
            X509v3 Subject Key Identifier: 
                37:06:7D:7A:09:85:10:00:27:1D:5D:A9:01:A1:D8:A4:FB:CB:4B:0D
            X509v3 Authority Key Identifier: 
                keyid:B5:C9:84:D3:E6:96:80:59:94:DC:2C:08:FE:5B:ED:28:B7:36:2C:1C
                DirName:/CN=team34-net
                serial:54:CF:01:06:C7:30:82:DD:27:77:B7:11:69:34:D3:67:1C:83:0A:2B

            X509v3 Extended Key Usage: 
                TLS Web Server Authentication
            X509v3 Key Usage: 
                Digital Signature, Key Encipherment
            X509v3 Subject Alternative Name: 
                DNS:team34-server
    Signature Algorithm: sha256WithRSAEncryption
         31:ec:3d:2b:c6:28:94:97:02:1a:00:60:2a:75:75:b3:10:ba:
         15:f8:71:aa:a8:7e:ba:d0:be:0e:fb:0c:2b:94:8f:27:2d:cd:
         d8:08:42:28:4c:6f:9d:36:a2:1b:0e:31:1d:5a:f4:7f:bd:45:
         3c:b4:57:7f:aa:a1:aa:47:97:39:fc:a8:30:bf:43:99:c1:49:
         fd:09:24:66:ec:fe:b3:0d:55:dc:00:92:87:cb:bf:2b:91:ef:
         22:7d:22:19:b4:fa:5e:38:77:75:6c:ff:1c:f3:fa:02:0b:e8:
         a7:82:93:b1:4a:01:33:59:de:5b:3c:59:7e:52:28:72:b6:0b:
         5d:50:ee:ff:6b:92:dd:41:c1:45:b2:f5:a3:06:bf:90:c8:1d:
         b0:69:c5:a3:1f:98:b9:88:60:4d:04:f1:d1:3a:95:e2:5c:f4:
         a8:de:6a:05:ac:e0:a1:7d:10:48:2b:f8:93:e2:c1:a7:96:a7:
         97:67:9e:b9:8f:2c:cb:bf:ca:00:a8:d1:32:b4:c7:38:b1:b1:
         b3:da:36:cd:18:60:5b:e0:61:7b:94:93:b0:b1:eb:c5:ed:56:
         4e:f5:17:28:7a:64:91:a3:c6:b6:6f:1e:fa:02:25:f5:4d:76:
         7e:13:f4:4b:46:d8:36:1c:bc:93:2a:78:3e:52:33:2b:35:14:
         20:db:f2:ec
-----BEGIN CERTIFICATE-----
MIIDczCCAlugAwIBAgIQMRCVDpH/bo4wn3+EucLfSDANBgkqhkiG9w0BAQsFADAV
MRMwEQYDVQQDDAp0ZWFtMzQtbmV0MB4XDTIyMDUxODE0MTMwNVoXDTI1MDUwMjE0
MTMwNVowGDEWMBQGA1UEAwwNdGVhbTM0LXNlcnZlcjCCASIwDQYJKoZIhvcNAQEB
BQADggEPADCCAQoCggEBAJ9jOgKkv1FIuBJFT3asREI0SBuTMpWnK4J6SHNnLLoK
1p7lH5EMytGeHZy56fEYtyzfyZ/PbB3EnCI2l5ujtxZaIuiyLuFkISDrlc9X7qTe
anz5xeI1vvGG2Q181i/yCckL66iuYLxpKTKNWVZPfhFaigdCUyCa2t5bD4Iedzf5
EUXYjX2aYAvaa2nGlWCd3m/anh2cZq0+MBfOL62gevIxZRc8Wvozp74/e+vwzd0l
c2nQEMiof1d5VMt0Aof9Dm6hdv9FFhUpqFMOiNyWiL2kXgAK38dygU4HwUW17V8O
DhGwSAwdJH+VtLtYXgewhnFUkJSNUhYV3LGhomCSytsCAwEAAaOBuzCBuDAJBgNV
HRMEAjAAMB0GA1UdDgQWBBQ3Bn16CYUQACcdXakBodik+8tLDTBQBgNVHSMESTBH
gBS1yYTT5paAWZTcLAj+W+0otzYsHKEZpBcwFTETMBEGA1UEAwwKdGVhbTM0LW5l
dIIUVM8BBscwgt0nd7cRaTTTZxyDCiswEwYDVR0lBAwwCgYIKwYBBQUHAwEwCwYD
VR0PBAQDAgWgMBgGA1UdEQQRMA+CDXRlYW0zNC1zZXJ2ZXIwDQYJKoZIhvcNAQEL
BQADggEBADHsPSvGKJSXAhoAYCp1dbMQuhX4caqofrrQvg77DCuUjyctzdgIQihM
b502ohsOMR1a9H+9RTy0V3+qoapHlzn8qDC/Q5nBSf0JJGbs/rMNVdwAkofLvyuR
7yJ9Ihm0+l44d3Vs/xzz+gIL6KeCk7FKATNZ3ls8WX5SKHK2C11Q7v9rkt1BwUWy
9aMGv5DIHbBpxaMfmLmIYE0E8dE6leJc9KjeagWs4KF9EEgr+JPiwaeWp5dnnrmP
LMu/ygCo0TK0xzixsbPaNs0YYFvgYXuUk7Cx68XtVk71Fyh6ZJGjxrZvHvoCJfVN
dn4T9EtG2DYcvJMqeD5SMys1FCDb8uw=
-----END CERTIFICATE-----
