Certificate:
    Data:
        Version: 3 (0x2)
        Serial Number:
            69:2a:4e:5d:90:51:5c:dc:84:08:cf:14:44:96:ac:dd
        Signature Algorithm: sha256WithRSAEncryption
        Issuer: CN=team269-net
        Validity
            Not Before: May 18 19:39:58 2022 GMT
            Not After : May  2 19:39:58 2025 GMT
        Subject: CN=team269-client
        Subject Public Key Info:
            Public Key Algorithm: rsaEncryption
                RSA Public-Key: (2048 bit)
                Modulus:
                    00:bc:a8:81:e7:1b:1a:a8:c7:a4:92:e0:b8:2e:ae:
                    39:a9:fd:65:70:84:2a:51:e4:e2:7e:57:cb:d6:1c:
                    3e:71:d4:69:40:22:16:57:69:5a:d0:95:d3:33:01:
                    99:43:a8:22:43:af:4e:1a:5f:ed:e3:62:08:e4:cb:
                    3d:a2:9d:87:73:b6:b0:16:89:26:44:2c:99:d6:f9:
                    f2:bc:18:e8:4c:1c:12:e6:fa:39:37:f6:b3:5a:e8:
                    e9:9c:ca:0a:5b:b7:9f:a8:4f:f7:18:73:bc:4c:34:
                    a6:9f:24:3a:52:ae:ed:c1:86:36:d1:3a:20:4e:3f:
                    44:ec:da:bc:e0:17:f3:54:bf:e5:4f:14:e2:69:6c:
                    b2:3f:ed:a2:23:c1:61:cf:41:df:9f:57:5c:56:f3:
                    5d:db:86:33:23:b2:57:3c:82:1d:5d:93:e1:fa:ed:
                    50:b2:58:8b:48:ec:9b:49:42:7c:4f:ff:f7:3d:8b:
                    2b:3c:a5:f3:3a:a5:db:c2:f1:66:c8:fc:5c:db:73:
                    0b:e1:d1:0a:c0:57:07:3b:93:fd:49:f5:f0:97:07:
                    1f:1b:07:99:5f:7c:3c:e4:6b:1f:4a:74:58:92:54:
                    6e:40:5d:61:2c:21:93:d7:76:ab:12:58:56:ee:ce:
                    60:69:2c:45:7a:fc:9d:d4:df:41:20:8b:02:13:bc:
                    a7:47
                Exponent: 65537 (0x10001)
        X509v3 extensions:
            X509v3 Basic Constraints: 
                CA:FALSE
            X509v3 Subject Key Identifier: 
                97:F4:E4:F8:1B:E8:7F:8D:88:05:9C:5F:73:17:DA:0F:E0:01:7F:F6
            X509v3 Authority Key Identifier: 
                keyid:7F:05:05:63:AA:C4:8F:18:BA:FB:C0:DC:F8:B0:74:66:24:EB:FF:0B
                DirName:/CN=team269-net
                serial:4B:9E:BF:01:E3:6E:14:2D:BA:90:65:16:AC:F9:22:59:22:6B:5D:CC

            X509v3 Extended Key Usage: 
                TLS Web Client Authentication
            X509v3 Key Usage: 
                Digital Signature
    Signature Algorithm: sha256WithRSAEncryption
         9a:61:bd:b1:08:86:c7:0e:36:78:40:c3:8b:48:a5:f9:1f:cb:
         58:27:67:61:5d:a7:40:1d:fb:7b:03:76:bc:13:03:b4:38:cd:
         0b:8c:7f:21:62:69:e4:f9:90:d0:7c:bc:90:e3:1d:42:d4:96:
         21:59:c8:ed:1d:6a:73:6e:e9:4e:d9:0f:fa:55:5b:6f:79:42:
         f0:86:4b:0d:02:bb:2b:c5:a8:9b:e1:4b:4a:8b:05:c8:7e:b4:
         6c:e1:84:0b:04:c8:ca:ab:ab:94:b7:92:a6:ee:b9:01:d3:85:
         d1:6c:16:5b:89:a2:40:87:c1:0f:52:60:f6:72:13:5f:81:50:
         26:1a:82:71:b0:21:63:92:e8:c8:34:e7:4c:7b:69:ea:f6:ce:
         a3:60:c9:ff:8d:51:1a:b9:e0:f6:a6:1d:e8:76:46:66:e7:55:
         d0:ff:19:d6:d6:57:b9:05:c2:17:2b:df:71:3b:38:e8:73:e0:
         3e:a8:be:3f:7c:f1:e0:d1:c1:71:4c:38:6f:b1:80:16:05:31:
         c9:85:20:75:e0:c5:79:d2:1b:aa:32:76:e2:dd:d0:78:f0:c1:
         ee:1d:a7:56:4b:99:8f:e4:74:f4:de:17:55:97:56:37:89:a3:
         15:a6:8b:07:53:2e:2e:5a:c5:98:62:48:75:4b:68:1a:d6:16:
         96:75:25:ec
-----BEGIN CERTIFICATE-----
MIIDXDCCAkSgAwIBAgIQaSpOXZBRXNyECM8URJas3TANBgkqhkiG9w0BAQsFADAW
MRQwEgYDVQQDDAt0ZWFtMjY5LW5ldDAeFw0yMjA1MTgxOTM5NThaFw0yNTA1MDIx
OTM5NThaMBkxFzAVBgNVBAMMDnRlYW0yNjktY2xpZW50MIIBIjANBgkqhkiG9w0B
AQEFAAOCAQ8AMIIBCgKCAQEAvKiB5xsaqMekkuC4Lq45qf1lcIQqUeTiflfL1hw+
cdRpQCIWV2la0JXTMwGZQ6giQ69OGl/t42II5Ms9op2Hc7awFokmRCyZ1vnyvBjo
TBwS5vo5N/azWujpnMoKW7efqE/3GHO8TDSmnyQ6Uq7twYY20TogTj9E7Nq84Bfz
VL/lTxTiaWyyP+2iI8Fhz0Hfn1dcVvNd24YzI7JXPIIdXZPh+u1QsliLSOybSUJ8
T//3PYsrPKXzOqXbwvFmyPxc23ML4dEKwFcHO5P9SfXwlwcfGweZX3w85GsfSnRY
klRuQF1hLCGT13arElhW7s5gaSxFevyd1N9BIIsCE7ynRwIDAQABo4GiMIGfMAkG
A1UdEwQCMAAwHQYDVR0OBBYEFJf05Pgb6H+NiAWcX3MX2g/gAX/2MFEGA1UdIwRK
MEiAFH8FBWOqxI8YuvvA3PiwdGYk6/8LoRqkGDAWMRQwEgYDVQQDDAt0ZWFtMjY5
LW5ldIIUS56/AeNuFC26kGUWrPkiWSJrXcwwEwYDVR0lBAwwCgYIKwYBBQUHAwIw
CwYDVR0PBAQDAgeAMA0GCSqGSIb3DQEBCwUAA4IBAQCaYb2xCIbHDjZ4QMOLSKX5
H8tYJ2dhXadAHft7A3a8EwO0OM0LjH8hYmnk+ZDQfLyQ4x1C1JYhWcjtHWpzbulO
2Q/6VVtveULwhksNArsrxaib4UtKiwXIfrRs4YQLBMjKq6uUt5Km7rkB04XRbBZb
iaJAh8EPUmD2chNfgVAmGoJxsCFjkujINOdMe2nq9s6jYMn/jVEaueD2ph3odkZm
51XQ/xnW1le5BcIXK99xOzjoc+A+qL4/fPHg0cFxTDhvsYAWBTHJhSB14MV50huq
Mnbi3dB48MHuHadWS5mP5HT03hdVl1Y3iaMVposHUy4uWsWYYkh1S2ga1haWdSXs
-----END CERTIFICATE-----
