Certificate:
    Data:
        Version: 3 (0x2)
        Serial Number:
            99:90:a7:3e:93:37:46:4c:af:f9:86:ea:73:49:72:d6
        Signature Algorithm: sha256WithRSAEncryption
        Issuer: CN=team536-net
        Validity
            Not Before: May 18 22:10:47 2022 GMT
            Not After : May  2 22:10:47 2025 GMT
        Subject: CN=team536-server
        Subject Public Key Info:
            Public Key Algorithm: rsaEncryption
                RSA Public-Key: (2048 bit)
                Modulus:
                    00:cc:7c:2a:bd:e7:f5:39:c3:c6:f5:c3:b6:6b:eb:
                    d3:40:66:04:d1:f2:57:5a:28:18:6a:15:10:39:dc:
                    86:17:4c:c1:f3:ee:18:3e:41:44:46:14:5a:4f:d3:
                    01:93:85:27:6a:5c:ce:a8:33:a3:b1:d9:64:92:91:
                    ad:35:18:7b:2b:0c:b4:df:c9:bc:94:eb:96:09:a1:
                    fb:ff:f2:4d:2f:a7:c0:a6:94:20:7c:09:6e:ca:27:
                    51:57:8d:40:22:d4:8e:c2:6e:ca:bc:e5:24:61:dd:
                    de:5b:9e:c4:d8:50:0a:35:b5:d6:63:7c:52:d4:1f:
                    94:45:53:12:88:7b:9b:46:8e:07:79:2f:5f:c2:6c:
                    36:5b:7f:5c:83:6d:1a:5b:c1:da:2f:ea:ac:49:2a:
                    2a:b5:6b:14:ee:97:38:0c:e9:86:5f:3a:d3:43:2d:
                    a0:7c:3a:78:c2:70:be:02:ff:28:dd:1e:3e:e6:ef:
                    8e:30:c7:f9:b2:d8:76:08:87:f4:4a:9a:e1:59:46:
                    d0:f2:21:00:b1:c7:ce:d6:ea:da:c2:4d:3b:aa:10:
                    76:58:20:e5:2e:df:e1:9a:b1:6b:c6:0e:15:33:e8:
                    44:c3:06:96:18:bc:48:87:ce:1d:53:b2:93:4a:13:
                    6d:4b:13:ea:ce:1d:44:26:e9:60:7f:b9:ea:f9:ad:
                    d0:67
                Exponent: 65537 (0x10001)
        X509v3 extensions:
            X509v3 Basic Constraints: 
                CA:FALSE
            X509v3 Subject Key Identifier: 
                18:D3:E6:E5:B0:78:CE:0C:F3:2D:D0:68:C3:65:90:51:89:D7:1C:A8
            X509v3 Authority Key Identifier: 
                keyid:38:BE:CA:1D:CC:D1:5E:BF:B9:DD:23:FE:72:0D:6D:B3:FE:97:FC:E4
                DirName:/CN=team536-net
                serial:5F:F0:6E:1F:3F:F1:B8:73:4E:46:2F:6D:35:07:D6:63:12:81:7F:3F

            X509v3 Extended Key Usage: 
                TLS Web Server Authentication
            X509v3 Key Usage: 
                Digital Signature, Key Encipherment
            X509v3 Subject Alternative Name: 
                DNS:team536-server
    Signature Algorithm: sha256WithRSAEncryption
         bd:a6:38:58:de:d8:13:26:42:a7:1b:e1:19:09:84:c3:c2:69:
         d1:6d:b7:93:3f:16:0d:22:ec:11:64:77:b9:ed:f2:ed:e9:83:
         bb:f5:cb:6b:27:45:d8:3d:70:89:83:70:8f:64:6d:7d:cc:04:
         77:a1:9e:08:1f:dc:31:93:97:77:a5:22:b4:2c:75:40:42:5d:
         46:4c:44:6a:56:ac:d9:46:a0:9a:f5:02:40:50:f3:5b:e6:a0:
         15:56:87:ca:c3:6d:6b:b1:bf:53:12:cd:49:e8:09:13:c9:24:
         55:d8:d6:78:8d:b3:f0:6d:76:8d:bf:87:08:fc:36:92:ce:65:
         0c:7c:fa:fc:84:d5:04:c8:47:af:9b:48:77:e7:1f:96:33:9f:
         49:dd:87:e7:ed:93:27:5c:75:47:41:4a:3d:d2:11:4e:72:d7:
         3d:29:8a:df:0b:1a:b0:c4:f8:50:09:8f:21:be:ca:a2:77:a9:
         28:45:c8:ea:56:06:8a:58:89:35:53:f6:07:36:6a:79:ec:3e:
         3d:78:60:a2:3f:8a:45:3f:a4:a7:0f:ca:59:d3:08:c1:83:ec:
         95:85:91:18:95:86:60:6b:f5:c6:7d:df:5d:3e:db:3c:cb:5a:
         2b:cd:06:62:c0:b7:16:65:7e:b5:35:fe:ca:43:7b:e6:27:de:
         a2:aa:82:b9
-----BEGIN CERTIFICATE-----
MIIDeDCCAmCgAwIBAgIRAJmQpz6TN0ZMr/mG6nNJctYwDQYJKoZIhvcNAQELBQAw
FjEUMBIGA1UEAwwLdGVhbTUzNi1uZXQwHhcNMjIwNTE4MjIxMDQ3WhcNMjUwNTAy
MjIxMDQ3WjAZMRcwFQYDVQQDDA50ZWFtNTM2LXNlcnZlcjCCASIwDQYJKoZIhvcN
AQEBBQADggEPADCCAQoCggEBAMx8Kr3n9TnDxvXDtmvr00BmBNHyV1ooGGoVEDnc
hhdMwfPuGD5BREYUWk/TAZOFJ2pczqgzo7HZZJKRrTUYeysMtN/JvJTrlgmh+//y
TS+nwKaUIHwJbsonUVeNQCLUjsJuyrzlJGHd3luexNhQCjW11mN8UtQflEVTEoh7
m0aOB3kvX8JsNlt/XINtGlvB2i/qrEkqKrVrFO6XOAzphl8600MtoHw6eMJwvgL/
KN0ePubvjjDH+bLYdgiH9Eqa4VlG0PIhALHHztbq2sJNO6oQdlgg5S7f4Zqxa8YO
FTPoRMMGlhi8SIfOHVOyk0oTbUsT6s4dRCbpYH+56vmt0GcCAwEAAaOBvTCBujAJ
BgNVHRMEAjAAMB0GA1UdDgQWBBQY0+blsHjODPMt0GjDZZBRidccqDBRBgNVHSME
SjBIgBQ4vsodzNFev7ndI/5yDW2z/pf85KEapBgwFjEUMBIGA1UEAwwLdGVhbTUz
Ni1uZXSCFF/wbh8/8bhzTkYvbTUH1mMSgX8/MBMGA1UdJQQMMAoGCCsGAQUFBwMB
MAsGA1UdDwQEAwIFoDAZBgNVHREEEjAQgg50ZWFtNTM2LXNlcnZlcjANBgkqhkiG
9w0BAQsFAAOCAQEAvaY4WN7YEyZCpxvhGQmEw8Jp0W23kz8WDSLsEWR3ue3y7emD
u/XLaydF2D1wiYNwj2RtfcwEd6GeCB/cMZOXd6UitCx1QEJdRkxEalas2UagmvUC
QFDzW+agFVaHysNta7G/UxLNSegJE8kkVdjWeI2z8G12jb+HCPw2ks5lDHz6/ITV
BMhHr5tId+cfljOfSd2H5+2TJ1x1R0FKPdIRTnLXPSmK3wsasMT4UAmPIb7Konep
KEXI6lYGiliJNVP2BzZqeew+PXhgoj+KRT+kpw/KWdMIwYPslYWRGJWGYGv1xn3f
XT7bPMtaK80GYsC3FmV+tTX+ykN75ifeoqqCuQ==
-----END CERTIFICATE-----
