Certificate:
    Data:
        Version: 3 (0x2)
        Serial Number:
            ec:2a:7a:61:5e:5e:d0:b2:66:ca:69:ca:79:93:62:80
        Signature Algorithm: sha256WithRSAEncryption
        Issuer: CN=team45-net
        Validity
            Not Before: May 18 14:19:19 2022 GMT
            Not After : May  2 14:19:19 2025 GMT
        Subject: CN=team45-client
        Subject Public Key Info:
            Public Key Algorithm: rsaEncryption
                RSA Public-Key: (2048 bit)
                Modulus:
                    00:d7:66:69:57:09:37:7d:06:43:ac:a6:e0:6b:ee:
                    fc:ee:6a:68:a2:a4:ae:1c:23:5f:e6:38:ff:6e:6c:
                    aa:5b:2c:18:a2:22:2f:af:53:a1:a0:79:d4:35:75:
                    03:ed:e8:20:15:b4:3e:49:00:00:0e:8b:cc:fc:2b:
                    dc:31:ae:7d:b5:e1:95:d9:f7:15:ff:6c:d9:9a:e6:
                    92:b3:14:82:7a:7c:f7:ea:2c:67:ea:bb:bf:08:b4:
                    15:78:26:b6:44:c0:e6:a1:0f:28:5f:56:90:2d:78:
                    2d:f6:e9:0d:94:f9:d5:23:63:1b:d7:fb:ea:63:fc:
                    56:13:90:25:df:f5:20:4c:19:81:59:cb:36:4a:16:
                    78:b8:b4:02:b9:42:26:f3:39:f1:93:d1:97:2c:9a:
                    77:4c:d4:7f:58:e5:ce:e2:86:39:a1:a4:b2:b0:cf:
                    bc:2c:de:bd:3f:cf:93:7d:ef:b4:92:d7:f7:c4:e6:
                    19:29:a3:d9:ae:52:97:c5:2a:de:63:de:ee:89:5b:
                    81:4e:ba:04:e5:38:e5:21:03:7b:0e:89:c3:0c:d1:
                    4c:e3:85:7e:c4:55:24:73:1f:c7:f8:e2:c1:f8:fb:
                    14:5d:ce:0f:de:c0:d4:c8:e1:5d:45:40:28:7b:6b:
                    c7:e3:88:f5:47:01:c5:ac:7c:05:30:df:a5:ff:3c:
                    b1:13
                Exponent: 65537 (0x10001)
        X509v3 extensions:
            X509v3 Basic Constraints: 
                CA:FALSE
            X509v3 Subject Key Identifier: 
                79:7C:8E:42:E7:C1:26:2C:CE:2E:E3:C9:C9:EE:9C:FD:43:F9:47:1D
            X509v3 Authority Key Identifier: 
                keyid:52:5F:C5:62:3F:D7:35:0B:42:C1:7A:C8:5E:DF:2B:84:81:96:65:FC
                DirName:/CN=team45-net
                serial:6B:1A:C2:2F:4E:9E:46:8D:E4:35:7C:F6:64:88:03:60:52:A6:71:0D

            X509v3 Extended Key Usage: 
                TLS Web Client Authentication
            X509v3 Key Usage: 
                Digital Signature
    Signature Algorithm: sha256WithRSAEncryption
         50:f6:58:bf:d2:82:8b:74:03:08:fd:e9:2f:98:6b:e1:f1:19:
         31:e6:a2:bc:ec:cc:45:86:8b:af:6a:4b:48:fe:7d:67:fb:e7:
         84:e2:09:b3:11:24:37:8c:a6:9d:37:da:71:cb:67:cb:98:ba:
         81:27:93:63:a5:ea:b1:98:2f:5c:3e:80:33:75:ce:06:1b:52:
         d6:c6:5e:40:04:24:30:63:2c:48:4d:cd:61:7e:1b:04:77:67:
         8f:56:c2:7b:25:60:fa:47:ac:f8:76:db:c7:17:db:4a:e5:71:
         0f:50:13:ca:4f:e4:76:ce:62:16:67:a3:c5:9f:dc:53:69:b9:
         54:69:11:92:2f:f1:47:1d:16:bc:72:33:61:76:2b:a2:da:ea:
         35:b5:ce:60:8e:ca:37:68:89:7d:1e:28:f0:ca:b2:30:18:0f:
         d9:63:c1:8d:db:ad:83:43:9b:bf:e6:15:3a:e6:e0:46:12:8d:
         35:e0:46:81:18:05:8a:ae:36:d0:7a:1c:cc:f3:f9:65:52:e5:
         d8:e0:a0:e0:6d:79:c6:bd:40:25:b0:f5:59:b8:50:fa:8c:d1:
         98:dc:0a:00:58:81:a7:a1:fb:d5:bd:b3:40:15:57:93:9e:76:
         59:e7:cf:b6:ea:d3:26:a6:f9:23:ad:55:ce:6b:25:20:2b:c2:
         40:91:08:22
-----BEGIN CERTIFICATE-----
MIIDWjCCAkKgAwIBAgIRAOwqemFeXtCyZsppynmTYoAwDQYJKoZIhvcNAQELBQAw
FTETMBEGA1UEAwwKdGVhbTQ1LW5ldDAeFw0yMjA1MTgxNDE5MTlaFw0yNTA1MDIx
NDE5MTlaMBgxFjAUBgNVBAMMDXRlYW00NS1jbGllbnQwggEiMA0GCSqGSIb3DQEB
AQUAA4IBDwAwggEKAoIBAQDXZmlXCTd9BkOspuBr7vzuamiipK4cI1/mOP9ubKpb
LBiiIi+vU6GgedQ1dQPt6CAVtD5JAAAOi8z8K9wxrn214ZXZ9xX/bNma5pKzFIJ6
fPfqLGfqu78ItBV4JrZEwOahDyhfVpAteC326Q2U+dUjYxvX++pj/FYTkCXf9SBM
GYFZyzZKFni4tAK5QibzOfGT0ZcsmndM1H9Y5c7ihjmhpLKwz7ws3r0/z5N977SS
1/fE5hkpo9muUpfFKt5j3u6JW4FOugTlOOUhA3sOicMM0UzjhX7EVSRzH8f44sH4
+xRdzg/ewNTI4V1FQCh7a8fjiPVHAcWsfAUw36X/PLETAgMBAAGjgaEwgZ4wCQYD
VR0TBAIwADAdBgNVHQ4EFgQUeXyOQufBJizOLuPJye6c/UP5Rx0wUAYDVR0jBEkw
R4AUUl/FYj/XNQtCwXrIXt8rhIGWZfyhGaQXMBUxEzARBgNVBAMMCnRlYW00NS1u
ZXSCFGsawi9OnkaN5DV89mSIA2BSpnENMBMGA1UdJQQMMAoGCCsGAQUFBwMCMAsG
A1UdDwQEAwIHgDANBgkqhkiG9w0BAQsFAAOCAQEAUPZYv9KCi3QDCP3pL5hr4fEZ
MeaivOzMRYaLr2pLSP59Z/vnhOIJsxEkN4ymnTfacctny5i6gSeTY6XqsZgvXD6A
M3XOBhtS1sZeQAQkMGMsSE3NYX4bBHdnj1bCeyVg+kes+HbbxxfbSuVxD1ATyk/k
ds5iFmejxZ/cU2m5VGkRki/xRx0WvHIzYXYrotrqNbXOYI7KN2iJfR4o8MqyMBgP
2WPBjdutg0Obv+YVOubgRhKNNeBGgRgFiq420HoczPP5ZVLl2OCg4G15xr1AJbD1
WbhQ+ozRmNwKAFiBp6H71b2zQBVXk552WefPturTJqb5I61VzmslICvCQJEIIg==
-----END CERTIFICATE-----
