Certificate:
    Data:
        Version: 3 (0x2)
        Serial Number:
            66:09:4e:5f:87:5c:ee:e3:1e:ac:d8:ad:4d:85:17:c1
        Signature Algorithm: sha256WithRSAEncryption
        Issuer: CN=team103-net
        Validity
            Not Before: May 18 14:53:10 2022 GMT
            Not After : May  2 14:53:10 2025 GMT
        Subject: CN=team103-client
        Subject Public Key Info:
            Public Key Algorithm: rsaEncryption
                RSA Public-Key: (2048 bit)
                Modulus:
                    00:e3:20:04:89:50:ad:8c:e5:85:9f:a0:1f:be:46:
                    d9:56:bf:21:60:96:e6:56:a3:ad:80:39:56:f8:53:
                    02:d0:61:e3:9d:78:87:98:11:a2:15:3b:c3:e9:c4:
                    5c:8c:20:13:1e:0f:54:15:98:1f:49:0f:78:26:07:
                    6d:25:fd:d2:21:73:e8:2c:09:e3:3d:bc:17:63:eb:
                    95:99:66:0e:99:e3:c7:9b:52:03:bb:4c:3c:37:14:
                    ca:68:cb:28:28:17:03:ca:47:3e:97:bf:a5:b5:90:
                    a4:f2:27:83:f4:1f:8d:69:7b:d9:26:50:33:c8:99:
                    22:a4:af:03:aa:98:39:13:26:9b:81:e1:7b:ff:bd:
                    7c:90:11:c7:e9:d8:5f:f5:91:33:47:2a:73:d4:20:
                    8c:85:5e:a3:8e:be:fa:58:15:dd:20:da:dd:dc:24:
                    73:5d:77:47:6e:dd:77:96:14:d3:9a:dc:00:11:a4:
                    f7:d3:0c:39:25:ba:95:8b:a9:50:76:05:fb:1b:68:
                    b3:b5:6b:bf:11:8a:e9:ea:10:cf:d5:df:a5:1f:db:
                    26:45:9c:a0:6a:62:db:78:cd:85:4e:e7:1f:c5:36:
                    2d:9f:5d:93:93:46:c8:f4:d8:93:3a:f8:00:ea:d4:
                    42:a1:06:61:8b:a8:01:cf:d7:82:36:13:d6:c3:ed:
                    6f:b5
                Exponent: 65537 (0x10001)
        X509v3 extensions:
            X509v3 Basic Constraints: 
                CA:FALSE
            X509v3 Subject Key Identifier: 
                24:DE:00:B0:0E:A0:FA:EC:A9:EF:B7:20:F5:20:96:AC:B4:CF:D9:5B
            X509v3 Authority Key Identifier: 
                keyid:7D:33:03:57:54:7C:F6:F1:91:89:63:45:70:32:59:31:20:52:20:C9
                DirName:/CN=team103-net
                serial:29:6A:78:88:70:EE:91:57:01:E6:DD:08:3D:75:47:7F:4E:A6:B0:39

            X509v3 Extended Key Usage: 
                TLS Web Client Authentication
            X509v3 Key Usage: 
                Digital Signature
    Signature Algorithm: sha256WithRSAEncryption
         c4:65:0f:94:72:c7:7b:1b:6e:45:6a:b0:ae:2e:ff:4c:58:db:
         cf:12:94:ef:4e:fc:ea:08:b2:16:e0:08:b8:6b:a1:41:4c:d4:
         57:75:f9:f7:a7:00:2c:a0:51:b7:c4:5e:38:ba:a6:3b:bb:25:
         7d:25:91:08:44:98:c5:57:53:60:da:23:eb:58:95:82:d6:3f:
         4d:d1:68:81:c5:26:ca:b2:d2:c5:c3:ff:02:93:77:0d:d8:4e:
         c2:82:6e:93:c9:41:3d:9c:63:3b:22:ae:bf:98:90:e1:70:34:
         7a:e2:54:48:02:bc:69:bd:e7:53:04:84:83:86:08:e3:4a:ea:
         68:f1:16:90:4e:fc:c9:7a:e5:f9:d8:ea:4f:26:18:47:86:03:
         0b:00:5b:f0:9e:d0:10:0b:8f:e2:ab:43:8d:35:10:9e:4f:86:
         7e:35:62:ac:9b:28:ad:37:c0:10:b8:30:cd:43:da:ca:14:24:
         26:a8:ab:82:da:bd:53:b0:a0:78:30:f3:7a:1b:08:5f:52:d0:
         9f:72:95:75:27:77:ed:66:52:b1:e1:b9:ed:7e:19:98:66:ca:
         d9:f6:15:5b:fd:e8:8f:ce:63:cc:e9:09:31:18:8e:9b:65:71:
         7a:31:c2:dc:87:44:8f:9b:b9:76:a6:69:6b:55:fb:cb:ca:f7:
         7f:7a:33:8e
-----BEGIN CERTIFICATE-----
MIIDXDCCAkSgAwIBAgIQZglOX4dc7uMerNitTYUXwTANBgkqhkiG9w0BAQsFADAW
MRQwEgYDVQQDDAt0ZWFtMTAzLW5ldDAeFw0yMjA1MTgxNDUzMTBaFw0yNTA1MDIx
NDUzMTBaMBkxFzAVBgNVBAMMDnRlYW0xMDMtY2xpZW50MIIBIjANBgkqhkiG9w0B
AQEFAAOCAQ8AMIIBCgKCAQEA4yAEiVCtjOWFn6AfvkbZVr8hYJbmVqOtgDlW+FMC
0GHjnXiHmBGiFTvD6cRcjCATHg9UFZgfSQ94JgdtJf3SIXPoLAnjPbwXY+uVmWYO
mePHm1IDu0w8NxTKaMsoKBcDykc+l7+ltZCk8ieD9B+NaXvZJlAzyJkipK8Dqpg5
EyabgeF7/718kBHH6dhf9ZEzRypz1CCMhV6jjr76WBXdINrd3CRzXXdHbt13lhTT
mtwAEaT30ww5JbqVi6lQdgX7G2iztWu/EYrp6hDP1d+lH9smRZygamLbeM2FTucf
xTYtn12Tk0bI9NiTOvgA6tRCoQZhi6gBz9eCNhPWw+1vtQIDAQABo4GiMIGfMAkG
A1UdEwQCMAAwHQYDVR0OBBYEFCTeALAOoPrsqe+3IPUglqy0z9lbMFEGA1UdIwRK
MEiAFH0zA1dUfPbxkYljRXAyWTEgUiDJoRqkGDAWMRQwEgYDVQQDDAt0ZWFtMTAz
LW5ldIIUKWp4iHDukVcB5t0IPXVHf06msDkwEwYDVR0lBAwwCgYIKwYBBQUHAwIw
CwYDVR0PBAQDAgeAMA0GCSqGSIb3DQEBCwUAA4IBAQDEZQ+Ucsd7G25FarCuLv9M
WNvPEpTvTvzqCLIW4Ai4a6FBTNRXdfn3pwAsoFG3xF44uqY7uyV9JZEIRJjFV1Ng
2iPrWJWC1j9N0WiBxSbKstLFw/8Ck3cN2E7Cgm6TyUE9nGM7Iq6/mJDhcDR64lRI
ArxpvedTBISDhgjjSupo8RaQTvzJeuX52OpPJhhHhgMLAFvwntAQC4/iq0ONNRCe
T4Z+NWKsmyitN8AQuDDNQ9rKFCQmqKuC2r1TsKB4MPN6GwhfUtCfcpV1J3ftZlKx
4bntfhmYZsrZ9hVb/eiPzmPM6QkxGI6bZXF6McLch0SPm7l2pmlrVfvLyvd/ejOO
-----END CERTIFICATE-----
