Certificate:
    Data:
        Version: 3 (0x2)
        Serial Number:
            a8:65:e9:8e:c4:69:70:e2:4c:19:9a:f3:ff:dc:d8:d8
        Signature Algorithm: sha256WithRSAEncryption
        Issuer: CN=team43-net
        Validity
            Not Before: May 18 14:15:54 2022 GMT
            Not After : May  2 14:15:54 2025 GMT
        Subject: CN=team43-client
        Subject Public Key Info:
            Public Key Algorithm: rsaEncryption
                RSA Public-Key: (2048 bit)
                Modulus:
                    00:b1:80:fd:f4:3b:16:58:54:63:50:d0:52:cd:94:
                    10:08:c6:31:5b:77:bb:0f:49:6f:26:16:4b:ea:15:
                    82:10:d2:3c:ab:b3:df:a7:f0:5a:2a:28:47:c9:06:
                    ab:36:e9:dc:1a:e9:23:18:a5:12:d4:85:1d:3d:12:
                    e5:12:7b:55:c5:f6:18:4c:b8:69:75:6f:6b:dd:12:
                    56:c3:12:7b:59:9b:8f:e1:d4:b9:f8:98:3a:ad:b3:
                    41:d4:5f:55:05:31:b6:4e:9e:cf:92:55:46:d7:7d:
                    aa:d3:b6:4a:fa:8a:26:0c:ed:c7:f8:fe:11:ca:e3:
                    fe:e4:d7:50:d3:65:15:16:99:b0:7b:e4:66:5c:6e:
                    48:00:51:c2:a4:84:9a:1e:99:f5:1b:8d:4e:e5:b3:
                    22:dd:af:f1:69:54:dc:4d:03:9c:ab:01:45:8a:19:
                    c5:a9:c5:89:1c:52:23:cf:0e:43:f6:7b:76:40:d9:
                    9a:8f:64:ec:0a:85:7a:3b:db:3a:54:33:15:d4:38:
                    c7:a0:b2:6c:de:66:c8:ca:92:6e:7e:7b:e5:be:5b:
                    18:3d:1a:b2:9b:8e:8b:7d:99:b1:19:89:d1:1f:dd:
                    ed:a1:9d:0b:48:c2:94:75:50:d4:2a:52:28:8d:f2:
                    bc:02:65:76:d5:8f:d4:2a:da:9e:1b:d8:1d:c9:27:
                    a9:6d
                Exponent: 65537 (0x10001)
        X509v3 extensions:
            X509v3 Basic Constraints: 
                CA:FALSE
            X509v3 Subject Key Identifier: 
                B2:1F:81:C4:B4:DE:E1:E4:77:87:C7:94:82:F5:8B:06:F6:FE:5D:2D
            X509v3 Authority Key Identifier: 
                keyid:F2:4A:44:C5:FB:E2:84:52:E0:75:7E:EF:8C:FD:FE:A1:D4:14:4C:6D
                DirName:/CN=team43-net
                serial:45:2E:64:82:C3:14:46:DF:7A:E6:2F:D2:5D:24:3F:0E:4B:24:D5:0D

            X509v3 Extended Key Usage: 
                TLS Web Client Authentication
            X509v3 Key Usage: 
                Digital Signature
    Signature Algorithm: sha256WithRSAEncryption
         69:e2:0e:bc:20:ae:63:a7:f1:e2:60:68:95:64:f2:1e:e4:50:
         28:7c:cf:63:61:14:c7:fd:6b:49:da:43:ef:a0:7c:cf:e7:ee:
         24:4a:00:65:62:d9:8c:69:bd:41:d9:d6:ce:0d:3d:0a:a3:4b:
         3d:3e:25:2d:0c:2c:5f:50:77:aa:fd:19:05:3b:bf:67:59:35:
         9b:91:d7:11:d0:05:f6:27:3b:8b:41:41:a5:e1:75:09:de:ee:
         c0:74:25:4c:3f:47:ad:87:5a:41:41:a3:b0:87:a0:6b:b3:16:
         6d:40:ab:4a:d9:a6:72:4f:b2:f9:01:e3:94:cc:ce:6e:8c:8a:
         77:c0:6a:c6:3b:0f:98:f0:39:7f:cd:70:55:58:44:f5:fd:db:
         8e:e4:9f:ae:2a:e3:c9:e6:84:40:2e:8f:fb:5f:ce:7f:ff:f6:
         11:1a:41:74:6d:8a:3f:dd:66:03:41:85:02:d4:ff:f4:10:6c:
         7a:f0:32:f3:67:68:b9:a9:50:85:be:84:e9:a1:e0:92:2c:2c:
         9e:f1:46:da:03:93:a8:a0:32:ee:3a:9a:27:c3:c2:55:1e:6c:
         7b:8e:03:e7:0e:15:07:44:1e:8e:90:e4:43:f0:15:26:d3:f4:
         e4:4a:8e:77:a7:bf:b2:4e:a1:6d:5b:12:1f:7f:40:21:34:f3:
         17:97:23:cf
-----BEGIN CERTIFICATE-----
MIIDWjCCAkKgAwIBAgIRAKhl6Y7EaXDiTBma8//c2NgwDQYJKoZIhvcNAQELBQAw
FTETMBEGA1UEAwwKdGVhbTQzLW5ldDAeFw0yMjA1MTgxNDE1NTRaFw0yNTA1MDIx
NDE1NTRaMBgxFjAUBgNVBAMMDXRlYW00My1jbGllbnQwggEiMA0GCSqGSIb3DQEB
AQUAA4IBDwAwggEKAoIBAQCxgP30OxZYVGNQ0FLNlBAIxjFbd7sPSW8mFkvqFYIQ
0jyrs9+n8FoqKEfJBqs26dwa6SMYpRLUhR09EuUSe1XF9hhMuGl1b2vdElbDEntZ
m4/h1Ln4mDqts0HUX1UFMbZOns+SVUbXfarTtkr6iiYM7cf4/hHK4/7k11DTZRUW
mbB75GZcbkgAUcKkhJoemfUbjU7lsyLdr/FpVNxNA5yrAUWKGcWpxYkcUiPPDkP2
e3ZA2ZqPZOwKhXo72zpUMxXUOMegsmzeZsjKkm5+e+W+Wxg9GrKbjot9mbEZidEf
3e2hnQtIwpR1UNQqUiiN8rwCZXbVj9Qq2p4b2B3JJ6ltAgMBAAGjgaEwgZ4wCQYD
VR0TBAIwADAdBgNVHQ4EFgQUsh+BxLTe4eR3h8eUgvWLBvb+XS0wUAYDVR0jBEkw
R4AU8kpExfvihFLgdX7vjP3+odQUTG2hGaQXMBUxEzARBgNVBAMMCnRlYW00My1u
ZXSCFEUuZILDFEbfeuYv0l0kPw5LJNUNMBMGA1UdJQQMMAoGCCsGAQUFBwMCMAsG
A1UdDwQEAwIHgDANBgkqhkiG9w0BAQsFAAOCAQEAaeIOvCCuY6fx4mBolWTyHuRQ
KHzPY2EUx/1rSdpD76B8z+fuJEoAZWLZjGm9QdnWzg09CqNLPT4lLQwsX1B3qv0Z
BTu/Z1k1m5HXEdAF9ic7i0FBpeF1Cd7uwHQlTD9HrYdaQUGjsIega7MWbUCrStmm
ck+y+QHjlMzOboyKd8BqxjsPmPA5f81wVVhE9f3bjuSfrirjyeaEQC6P+1/Of//2
ERpBdG2KP91mA0GFAtT/9BBsevAy82doualQhb6E6aHgkiwsnvFG2gOTqKAy7jqa
J8PCVR5se44D5w4VB0QejpDkQ/AVJtP05EqOd6e/sk6hbVsSH39AITTzF5cjzw==
-----END CERTIFICATE-----
