Certificate:
    Data:
        Version: 3 (0x2)
        Serial Number:
            f2:e4:81:85:a1:77:76:76:e5:59:f0:f7:48:ee:52:17
        Signature Algorithm: sha256WithRSAEncryption
        Issuer: CN=team52-net
        Validity
            Not Before: May 18 14:24:52 2022 GMT
            Not After : May  2 14:24:52 2025 GMT
        Subject: CN=team52-client
        Subject Public Key Info:
            Public Key Algorithm: rsaEncryption
                RSA Public-Key: (2048 bit)
                Modulus:
                    00:a1:fb:fa:f4:98:57:9c:be:ce:ac:d6:e5:ff:d1:
                    75:bd:25:99:0b:c5:0c:ad:b7:ee:01:37:a7:ef:a4:
                    3f:9f:a6:20:f6:49:1f:6c:14:ed:7b:d0:6f:5e:db:
                    b1:10:ba:a2:5e:c9:1e:ae:3d:ab:30:71:0a:e2:e1:
                    d6:3d:c1:b2:e3:aa:bc:dd:fc:7a:8d:9d:24:f3:67:
                    1d:73:31:57:82:64:bf:f1:5d:7d:b8:37:cb:e9:2a:
                    bb:c1:db:98:98:12:e4:10:98:90:07:22:b4:47:45:
                    99:d2:f4:1a:6b:bb:8b:fc:e8:ce:c4:2f:b7:0b:2e:
                    76:25:12:19:85:cd:3d:ae:30:fa:7e:7e:10:5e:49:
                    6a:b2:0d:b9:21:b6:65:f6:74:57:43:43:3f:0b:b8:
                    7d:97:20:73:70:cc:72:f8:cf:c5:dd:af:0b:f6:2b:
                    46:52:45:b9:12:33:3b:dd:05:a7:b1:0a:30:42:03:
                    4e:73:8e:09:2f:8c:4a:22:53:7f:d1:c9:e9:83:74:
                    f1:60:e0:57:91:5a:4c:39:59:1a:3d:82:2c:ec:a0:
                    b8:6a:8e:6b:d3:cd:6e:55:55:0e:1c:7c:ff:6c:c9:
                    00:82:34:55:e5:26:94:07:83:09:f8:b3:d9:ca:26:
                    5d:72:83:3c:62:9f:9d:fb:ca:82:3a:fd:c0:fe:56:
                    21:d3
                Exponent: 65537 (0x10001)
        X509v3 extensions:
            X509v3 Basic Constraints: 
                CA:FALSE
            X509v3 Subject Key Identifier: 
                1A:28:B7:63:FB:4B:27:D8:B4:CD:4D:2B:74:E2:4B:29:D3:4B:AE:D6
            X509v3 Authority Key Identifier: 
                keyid:AC:E4:51:2D:9D:BC:DC:1A:BF:A6:63:A3:7F:13:99:99:19:88:52:DB
                DirName:/CN=team52-net
                serial:3F:C5:6C:78:6D:94:02:B0:31:72:50:29:42:24:5F:CD:EC:01:B0:75

            X509v3 Extended Key Usage: 
                TLS Web Client Authentication
            X509v3 Key Usage: 
                Digital Signature
    Signature Algorithm: sha256WithRSAEncryption
         41:6b:5f:a6:17:60:7c:63:f8:46:cf:9c:b8:65:f5:78:2d:1d:
         12:36:80:4b:bb:a2:95:fd:3e:48:24:c8:c3:3d:46:2a:39:aa:
         1b:5a:3f:4b:10:21:21:05:70:9f:6c:f9:93:b9:6d:33:19:7c:
         cf:6a:4d:53:de:dd:fd:0d:a3:a2:0e:9e:d6:22:0d:d2:b3:c8:
         f2:92:94:c0:fe:1d:f6:38:48:37:c8:25:2c:4b:29:52:a3:64:
         51:7a:7a:ef:6c:b3:73:ce:8c:04:85:10:0d:94:01:90:e9:97:
         6e:11:b5:78:89:f6:5e:25:9c:f4:a7:ba:c7:e8:63:9d:d2:f5:
         ec:d7:0a:ab:e7:98:4f:3f:d0:36:af:9b:6b:6f:b2:66:a4:2b:
         de:63:ef:7f:04:7e:e1:b9:92:93:6e:8d:75:0d:17:b9:89:57:
         4b:1a:09:2f:25:42:44:bb:92:fc:62:57:fd:b9:9f:6c:cc:7e:
         85:0f:7e:62:75:34:b6:fa:05:10:32:6e:b1:c5:c4:dc:3b:70:
         5c:d6:84:16:9b:79:03:f4:c2:44:31:25:0b:b1:d3:27:9f:87:
         a4:90:de:da:54:1a:b4:ee:7f:b5:4d:ee:9a:dc:da:b8:11:5c:
         c9:d8:6b:c8:b5:2e:78:44:46:7b:62:3a:4a:3e:73:c3:c2:9e:
         f0:20:5c:90
-----BEGIN CERTIFICATE-----
MIIDWjCCAkKgAwIBAgIRAPLkgYWhd3Z25Vnw90juUhcwDQYJKoZIhvcNAQELBQAw
FTETMBEGA1UEAwwKdGVhbTUyLW5ldDAeFw0yMjA1MTgxNDI0NTJaFw0yNTA1MDIx
NDI0NTJaMBgxFjAUBgNVBAMMDXRlYW01Mi1jbGllbnQwggEiMA0GCSqGSIb3DQEB
AQUAA4IBDwAwggEKAoIBAQCh+/r0mFecvs6s1uX/0XW9JZkLxQytt+4BN6fvpD+f
piD2SR9sFO170G9e27EQuqJeyR6uPaswcQri4dY9wbLjqrzd/HqNnSTzZx1zMVeC
ZL/xXX24N8vpKrvB25iYEuQQmJAHIrRHRZnS9Bpru4v86M7EL7cLLnYlEhmFzT2u
MPp+fhBeSWqyDbkhtmX2dFdDQz8LuH2XIHNwzHL4z8Xdrwv2K0ZSRbkSMzvdBaex
CjBCA05zjgkvjEoiU3/RyemDdPFg4FeRWkw5WRo9gizsoLhqjmvTzW5VVQ4cfP9s
yQCCNFXlJpQHgwn4s9nKJl1ygzxin537yoI6/cD+ViHTAgMBAAGjgaEwgZ4wCQYD
VR0TBAIwADAdBgNVHQ4EFgQUGii3Y/tLJ9i0zU0rdOJLKdNLrtYwUAYDVR0jBEkw
R4AUrORRLZ283Bq/pmOjfxOZmRmIUtuhGaQXMBUxEzARBgNVBAMMCnRlYW01Mi1u
ZXSCFD/FbHhtlAKwMXJQKUIkX83sAbB1MBMGA1UdJQQMMAoGCCsGAQUFBwMCMAsG
A1UdDwQEAwIHgDANBgkqhkiG9w0BAQsFAAOCAQEAQWtfphdgfGP4Rs+cuGX1eC0d
EjaAS7uilf0+SCTIwz1GKjmqG1o/SxAhIQVwn2z5k7ltMxl8z2pNU97d/Q2jog6e
1iIN0rPI8pKUwP4d9jhIN8glLEspUqNkUXp672yzc86MBIUQDZQBkOmXbhG1eIn2
XiWc9Ke6x+hjndL17NcKq+eYTz/QNq+ba2+yZqQr3mPvfwR+4bmSk26NdQ0XuYlX
SxoJLyVCRLuS/GJX/bmfbMx+hQ9+YnU0tvoFEDJuscXE3DtwXNaEFpt5A/TCRDEl
C7HTJ5+HpJDe2lQatO5/tU3umtzauBFcydhryLUueERGe2I6Sj5zw8Ke8CBckA==
-----END CERTIFICATE-----
