Certificate:
    Data:
        Version: 3 (0x2)
        Serial Number:
            08:7d:81:7e:d1:d9:0c:f6:60:87:aa:69:35:4f:a7:a5
        Signature Algorithm: sha256WithRSAEncryption
        Issuer: CN=team290-net
        Validity
            Not Before: May 18 20:00:17 2022 GMT
            Not After : May  2 20:00:17 2025 GMT
        Subject: CN=team290-client
        Subject Public Key Info:
            Public Key Algorithm: rsaEncryption
                RSA Public-Key: (2048 bit)
                Modulus:
                    00:f0:c7:43:d3:5f:83:cc:34:a8:bf:12:80:bb:58:
                    eb:2c:a8:75:89:b2:67:eb:2b:29:81:cb:05:4e:1f:
                    38:e4:54:ae:62:b1:bc:b3:2c:ce:a7:39:5a:b9:40:
                    6c:82:93:6b:bb:f4:58:f6:f8:1c:a4:be:25:da:de:
                    8a:f4:c4:7e:e1:52:19:3f:55:71:ee:d6:c3:8f:84:
                    2f:67:e2:e4:a7:68:51:1b:9b:bf:3c:a7:c0:89:b2:
                    ca:b3:fe:23:0d:bc:68:7b:a9:26:68:10:21:67:23:
                    7e:e1:9b:62:91:33:eb:af:10:fc:7e:82:5b:0b:53:
                    9f:f4:54:4e:f3:b9:19:57:f2:d4:68:ec:7e:89:a4:
                    72:6b:04:68:9f:54:7d:6f:46:4c:56:42:b1:0d:36:
                    e2:41:38:c4:5d:0d:bb:b0:b3:51:99:04:16:7c:df:
                    9a:7e:0d:fb:a2:64:7b:42:b9:80:5b:13:2a:bc:47:
                    f3:9f:96:58:47:94:30:b0:ff:ea:15:9a:67:40:5d:
                    13:e6:39:eb:88:8d:d8:8e:a7:63:f8:0b:42:5b:3c:
                    6d:29:ed:a5:6b:fe:ee:79:43:ef:de:0e:07:06:74:
                    0c:59:be:54:18:ff:af:cb:9c:a7:8d:d3:58:ea:96:
                    5d:95:fa:86:b4:34:6b:ed:45:b2:f1:12:62:40:4e:
                    f4:c3
                Exponent: 65537 (0x10001)
        X509v3 extensions:
            X509v3 Basic Constraints: 
                CA:FALSE
            X509v3 Subject Key Identifier: 
                54:51:C8:FD:81:9A:8B:C5:70:10:EF:85:84:1A:B1:D4:1B:55:49:6E
            X509v3 Authority Key Identifier: 
                keyid:CD:B6:21:BE:F7:43:0E:3B:57:36:F6:0C:97:82:A5:BA:B7:FE:10:CF
                DirName:/CN=team290-net
                serial:1B:28:58:55:12:89:FD:84:E6:21:A6:21:77:44:32:54:63:1A:04:FF

            X509v3 Extended Key Usage: 
                TLS Web Client Authentication
            X509v3 Key Usage: 
                Digital Signature
    Signature Algorithm: sha256WithRSAEncryption
         6a:f2:df:9e:9b:c0:70:a8:8c:e6:c3:65:4a:88:46:45:5c:28:
         c7:3d:75:f3:bb:31:4e:61:e3:5c:89:c8:d7:f7:16:68:24:be:
         18:6a:e8:2a:4f:93:d1:cb:69:93:c7:23:dc:04:34:cc:57:25:
         64:4b:3c:fa:a8:61:dc:9e:b9:65:cf:f0:93:94:ff:77:3a:0c:
         b1:83:6b:96:1b:0f:af:b8:2b:39:e7:6d:07:1a:c4:e8:47:13:
         0c:be:ca:22:ba:25:5c:78:b3:0b:4d:f2:db:25:bb:d0:29:a5:
         6a:e4:0b:0f:53:eb:3d:7d:b1:24:38:d8:ca:3e:25:99:a6:e9:
         78:73:35:b9:0b:c2:75:a5:67:6f:e8:3a:cd:84:d7:bb:1b:0a:
         cd:b7:e5:2e:43:48:bd:7b:91:f1:e4:0a:62:26:42:bb:c8:2c:
         89:49:77:bb:00:8f:93:9d:e1:bc:16:2e:34:23:5d:81:74:a4:
         d0:83:81:79:cd:9a:95:ef:25:c0:92:30:a2:73:eb:eb:f3:41:
         db:50:dc:3c:48:76:c2:b3:cb:85:87:c1:9f:56:1a:03:ae:68:
         e1:7e:17:49:1a:6a:8b:5f:9f:ca:cc:14:86:ca:03:70:d0:8b:
         bf:b6:b4:be:57:7a:8c:5c:0f:cc:fb:a8:e9:bd:99:b6:b6:9a:
         c9:b1:00:f1
-----BEGIN CERTIFICATE-----
MIIDXDCCAkSgAwIBAgIQCH2BftHZDPZgh6ppNU+npTANBgkqhkiG9w0BAQsFADAW
MRQwEgYDVQQDDAt0ZWFtMjkwLW5ldDAeFw0yMjA1MTgyMDAwMTdaFw0yNTA1MDIy
MDAwMTdaMBkxFzAVBgNVBAMMDnRlYW0yOTAtY2xpZW50MIIBIjANBgkqhkiG9w0B
AQEFAAOCAQ8AMIIBCgKCAQEA8MdD01+DzDSovxKAu1jrLKh1ibJn6yspgcsFTh84
5FSuYrG8syzOpzlauUBsgpNru/RY9vgcpL4l2t6K9MR+4VIZP1Vx7tbDj4QvZ+Lk
p2hRG5u/PKfAibLKs/4jDbxoe6kmaBAhZyN+4ZtikTPrrxD8foJbC1Of9FRO87kZ
V/LUaOx+iaRyawRon1R9b0ZMVkKxDTbiQTjEXQ27sLNRmQQWfN+afg37omR7QrmA
WxMqvEfzn5ZYR5QwsP/qFZpnQF0T5jnriI3Yjqdj+AtCWzxtKe2la/7ueUPv3g4H
BnQMWb5UGP+vy5ynjdNY6pZdlfqGtDRr7UWy8RJiQE70wwIDAQABo4GiMIGfMAkG
A1UdEwQCMAAwHQYDVR0OBBYEFFRRyP2BmovFcBDvhYQasdQbVUluMFEGA1UdIwRK
MEiAFM22Ib73Qw47Vzb2DJeCpbq3/hDPoRqkGDAWMRQwEgYDVQQDDAt0ZWFtMjkw
LW5ldIIUGyhYVRKJ/YTmIaYhd0QyVGMaBP8wEwYDVR0lBAwwCgYIKwYBBQUHAwIw
CwYDVR0PBAQDAgeAMA0GCSqGSIb3DQEBCwUAA4IBAQBq8t+em8BwqIzmw2VKiEZF
XCjHPXXzuzFOYeNcicjX9xZoJL4YaugqT5PRy2mTxyPcBDTMVyVkSzz6qGHcnrll
z/CTlP93Ogyxg2uWGw+vuCs5520HGsToRxMMvsoiuiVceLMLTfLbJbvQKaVq5AsP
U+s9fbEkONjKPiWZpul4czW5C8J1pWdv6DrNhNe7GwrNt+UuQ0i9e5Hx5ApiJkK7
yCyJSXe7AI+TneG8Fi40I12BdKTQg4F5zZqV7yXAkjCic+vr80HbUNw8SHbCs8uF
h8GfVhoDrmjhfhdJGmqLX5/KzBSGygNw0Iu/trS+V3qMXA/M+6jpvZm2tprJsQDx
-----END CERTIFICATE-----
