Certificate:
    Data:
        Version: 3 (0x2)
        Serial Number:
            bd:d4:19:21:ec:f8:e7:ea:b7:57:be:10:e3:9b:85:93
        Signature Algorithm: sha256WithRSAEncryption
        Issuer: CN=team290-net
        Validity
            Not Before: May 18 20:00:18 2022 GMT
            Not After : May  2 20:00:18 2025 GMT
        Subject: CN=team290-server
        Subject Public Key Info:
            Public Key Algorithm: rsaEncryption
                RSA Public-Key: (2048 bit)
                Modulus:
                    00:dd:b0:bc:30:63:36:12:c9:32:4b:cc:b5:13:60:
                    91:5d:f0:c6:2b:57:63:52:7b:80:49:d7:ad:94:d5:
                    28:a4:78:06:d4:96:2e:b9:c3:55:cd:e2:ae:70:ea:
                    7b:c2:54:1e:06:79:5a:fe:9f:ad:23:35:f4:7f:de:
                    07:54:be:aa:06:43:bc:4e:73:c3:d4:c2:3f:bd:02:
                    7e:c4:c4:6d:51:7f:5c:69:29:1f:a0:a2:0d:fd:58:
                    56:1e:2c:16:b2:7e:15:1f:36:2a:b5:c5:bc:cb:77:
                    b4:53:66:24:4f:4c:eb:f4:51:98:e2:4a:0d:8e:71:
                    13:1b:71:c3:5c:0c:f9:df:58:87:45:0c:61:69:4f:
                    a8:30:60:16:9f:a4:5c:46:39:04:1d:5f:64:c0:17:
                    ba:27:1e:3b:84:f5:e4:37:fd:43:0e:35:ee:c6:ed:
                    28:88:b2:ec:a2:2d:34:fa:d8:f7:3d:a4:3c:63:4e:
                    14:8e:1c:72:31:c4:7f:d8:91:74:de:5a:83:33:f6:
                    da:3d:cc:16:2a:83:53:2a:84:32:c1:18:0f:ff:1e:
                    d9:29:d6:50:d9:3d:d1:8a:98:cb:d6:c0:f4:d9:22:
                    86:48:1c:5d:20:cf:f5:a3:cb:5a:50:1e:51:02:8d:
                    35:5c:a8:49:8c:8e:f7:6a:c4:e2:c6:57:6e:4b:aa:
                    5c:e1
                Exponent: 65537 (0x10001)
        X509v3 extensions:
            X509v3 Basic Constraints: 
                CA:FALSE
            X509v3 Subject Key Identifier: 
                24:0A:4E:AD:9B:E0:8C:24:E0:06:91:E4:24:BE:0C:81:7B:09:85:B1
            X509v3 Authority Key Identifier: 
                keyid:CD:B6:21:BE:F7:43:0E:3B:57:36:F6:0C:97:82:A5:BA:B7:FE:10:CF
                DirName:/CN=team290-net
                serial:1B:28:58:55:12:89:FD:84:E6:21:A6:21:77:44:32:54:63:1A:04:FF

            X509v3 Extended Key Usage: 
                TLS Web Server Authentication
            X509v3 Key Usage: 
                Digital Signature, Key Encipherment
            X509v3 Subject Alternative Name: 
                DNS:team290-server
    Signature Algorithm: sha256WithRSAEncryption
         ae:8f:06:f3:64:a5:2d:d8:1e:fb:f3:2c:f8:ff:8f:c5:6f:a7:
         43:88:eb:4c:ef:fc:de:a4:f4:9f:e4:6c:49:9a:54:7e:c7:02:
         9d:11:6e:48:64:5c:9b:1c:52:6c:62:89:bb:02:a3:ed:bb:38:
         d9:25:d3:6d:c9:9d:20:17:6e:80:10:3f:e2:25:fe:1e:16:4d:
         70:e3:31:b0:a4:c7:6e:1e:0b:5f:ae:86:d5:52:4c:5e:bd:0b:
         4e:35:4a:81:83:68:89:36:80:36:0f:71:0c:74:d7:18:14:67:
         c3:b5:e8:85:43:a3:54:ac:44:d3:de:a0:73:c6:31:3c:f6:37:
         1f:aa:57:03:3c:f8:86:b0:24:da:20:ff:47:9a:3b:65:07:06:
         b0:de:f2:b0:84:ed:59:03:d8:d3:3b:03:ba:05:32:fa:e5:f5:
         59:b7:a6:f5:6a:73:7d:80:c0:70:59:cf:db:c1:92:e0:2b:e5:
         e5:a1:4d:1e:48:b5:3f:fa:f0:26:4d:66:b5:fd:d0:0f:98:1f:
         6f:3a:e0:d6:40:ad:66:0e:c8:95:d4:af:2a:01:5c:ac:f6:ff:
         82:9f:3b:a0:fa:b5:67:1c:13:ef:37:cf:b3:4f:b6:87:28:a1:
         79:43:b3:d6:54:a7:aa:a7:0f:97:3f:09:19:82:a5:6b:a4:50:
         bf:d8:da:e1
-----BEGIN CERTIFICATE-----
MIIDeDCCAmCgAwIBAgIRAL3UGSHs+Ofqt1e+EOObhZMwDQYJKoZIhvcNAQELBQAw
FjEUMBIGA1UEAwwLdGVhbTI5MC1uZXQwHhcNMjIwNTE4MjAwMDE4WhcNMjUwNTAy
MjAwMDE4WjAZMRcwFQYDVQQDDA50ZWFtMjkwLXNlcnZlcjCCASIwDQYJKoZIhvcN
AQEBBQADggEPADCCAQoCggEBAN2wvDBjNhLJMkvMtRNgkV3wxitXY1J7gEnXrZTV
KKR4BtSWLrnDVc3irnDqe8JUHgZ5Wv6frSM19H/eB1S+qgZDvE5zw9TCP70CfsTE
bVF/XGkpH6CiDf1YVh4sFrJ+FR82KrXFvMt3tFNmJE9M6/RRmOJKDY5xExtxw1wM
+d9Yh0UMYWlPqDBgFp+kXEY5BB1fZMAXuiceO4T15Df9Qw417sbtKIiy7KItNPrY
9z2kPGNOFI4ccjHEf9iRdN5agzP22j3MFiqDUyqEMsEYD/8e2SnWUNk90YqYy9bA
9NkihkgcXSDP9aPLWlAeUQKNNVyoSYyO92rE4sZXbkuqXOECAwEAAaOBvTCBujAJ
BgNVHRMEAjAAMB0GA1UdDgQWBBQkCk6tm+CMJOAGkeQkvgyBewmFsTBRBgNVHSME
SjBIgBTNtiG+90MOO1c29gyXgqW6t/4Qz6EapBgwFjEUMBIGA1UEAwwLdGVhbTI5
MC1uZXSCFBsoWFUSif2E5iGmIXdEMlRjGgT/MBMGA1UdJQQMMAoGCCsGAQUFBwMB
MAsGA1UdDwQEAwIFoDAZBgNVHREEEjAQgg50ZWFtMjkwLXNlcnZlcjANBgkqhkiG
9w0BAQsFAAOCAQEAro8G82SlLdge+/Ms+P+PxW+nQ4jrTO/83qT0n+RsSZpUfscC
nRFuSGRcmxxSbGKJuwKj7bs42SXTbcmdIBdugBA/4iX+HhZNcOMxsKTHbh4LX66G
1VJMXr0LTjVKgYNoiTaANg9xDHTXGBRnw7XohUOjVKxE096gc8YxPPY3H6pXAzz4
hrAk2iD/R5o7ZQcGsN7ysITtWQPY0zsDugUy+uX1Wbem9WpzfYDAcFnP28GS4Cvl
5aFNHki1P/rwJk1mtf3QD5gfbzrg1kCtZg7IldSvKgFcrPb/gp87oPq1ZxwT7zfP
s0+2hyiheUOz1lSnqqcPlz8JGYKla6RQv9ja4Q==
-----END CERTIFICATE-----
