Certificate:
    Data:
        Version: 3 (0x2)
        Serial Number:
            28:91:75:f2:90:bc:98:25:c0:59:c9:5a:78:45:61:0a
        Signature Algorithm: sha256WithRSAEncryption
        Issuer: CN=team619-net
        Validity
            Not Before: May 18 23:00:59 2022 GMT
            Not After : May  2 23:00:59 2025 GMT
        Subject: CN=team619-server
        Subject Public Key Info:
            Public Key Algorithm: rsaEncryption
                RSA Public-Key: (2048 bit)
                Modulus:
                    00:c3:2e:39:96:ca:c7:8f:9e:43:1e:76:c0:9b:1e:
                    93:a1:ce:12:dd:d8:dc:0f:e8:b4:6d:08:9f:c6:a6:
                    39:42:9b:68:64:17:92:30:5b:e8:67:af:10:06:40:
                    8a:93:7d:59:c8:f3:35:4e:5a:a7:9b:30:98:42:ed:
                    60:4f:e4:55:b6:47:7e:b0:1e:ed:90:aa:c9:77:b2:
                    2b:7f:47:a2:41:52:67:47:b7:c2:96:f2:d8:e0:6a:
                    83:33:5d:66:df:49:89:eb:03:d4:18:fc:c0:93:f9:
                    a9:25:9e:75:02:82:80:16:81:0d:ab:cc:15:b6:f5:
                    bf:c3:55:50:64:0c:bd:1d:3f:ac:9b:04:1c:94:c7:
                    38:1d:81:bf:c4:e8:0b:7e:b8:53:aa:38:40:4a:b9:
                    89:b8:45:78:97:45:a5:27:0b:68:bd:f4:bb:d5:38:
                    44:26:10:4f:ce:e2:9f:6f:eb:d6:07:48:84:b2:aa:
                    13:23:1e:e3:1a:76:b8:a4:5e:00:5f:b5:a9:5b:84:
                    7f:21:29:cc:97:df:a5:e2:73:ce:7e:0d:8d:d3:a6:
                    47:a5:30:e3:86:06:08:57:6e:8d:65:a7:2f:a9:02:
                    f7:5f:0b:6b:d5:e0:50:d7:18:ec:0c:c8:7e:dd:b1:
                    b8:eb:5b:73:36:46:5b:7b:ff:cb:69:0a:f5:f4:db:
                    72:4f
                Exponent: 65537 (0x10001)
        X509v3 extensions:
            X509v3 Basic Constraints: 
                CA:FALSE
            X509v3 Subject Key Identifier: 
                F0:38:DA:80:F1:8C:BD:DD:F5:00:59:5A:D0:FD:E9:EB:8A:19:E2:47
            X509v3 Authority Key Identifier: 
                keyid:A1:21:72:4D:7A:F0:8B:82:F4:F3:5A:AB:97:FB:7F:21:A9:4D:81:56
                DirName:/CN=team619-net
                serial:3B:D3:EC:62:5D:B5:84:FB:F6:DB:EA:AA:A3:38:CE:EC:61:CB:5D:61

            X509v3 Extended Key Usage: 
                TLS Web Server Authentication
            X509v3 Key Usage: 
                Digital Signature, Key Encipherment
            X509v3 Subject Alternative Name: 
                DNS:team619-server
    Signature Algorithm: sha256WithRSAEncryption
         02:d6:c1:97:15:08:41:d4:2b:d4:39:b3:f6:87:5b:46:b4:92:
         e9:19:9c:a7:07:3e:91:e5:59:68:8f:cb:8d:b3:45:d2:5f:9b:
         e1:a1:87:af:c2:d2:b7:5c:19:cb:86:89:b9:8e:22:da:95:b5:
         9c:f7:48:a6:b1:ed:27:37:b7:67:5d:34:af:cd:f2:94:f7:a5:
         14:25:2a:b0:3a:e5:66:24:77:7d:aa:fb:2d:dc:69:00:5e:37:
         3f:13:4f:47:8a:c7:ca:64:5e:db:d0:39:e8:b9:7f:b2:64:db:
         43:87:45:36:76:2a:22:5e:ac:c5:58:50:db:5a:6d:8b:bf:a2:
         0c:96:d5:a7:94:1b:32:21:6c:cb:c7:20:00:d0:37:53:47:74:
         63:1e:be:8f:2f:de:6a:a6:e0:7a:5e:d7:6a:99:04:54:c9:e2:
         f1:ef:77:3f:dd:ec:19:38:8c:07:a0:32:24:b0:02:6a:1a:fd:
         ea:55:26:66:be:7c:6f:1c:6d:d5:92:1d:ab:e5:b4:08:72:16:
         d8:b3:08:0f:40:bd:1d:d9:b3:33:1e:28:a3:e5:d8:04:82:84:
         5c:36:9c:59:e5:e1:09:9d:14:63:98:50:63:8f:7f:85:f8:73:
         db:e4:26:53:21:da:ea:0f:27:dc:60:3e:ad:63:6b:e9:5a:e5:
         b4:0c:0a:98
-----BEGIN CERTIFICATE-----
MIIDdzCCAl+gAwIBAgIQKJF18pC8mCXAWclaeEVhCjANBgkqhkiG9w0BAQsFADAW
MRQwEgYDVQQDDAt0ZWFtNjE5LW5ldDAeFw0yMjA1MTgyMzAwNTlaFw0yNTA1MDIy
MzAwNTlaMBkxFzAVBgNVBAMMDnRlYW02MTktc2VydmVyMIIBIjANBgkqhkiG9w0B
AQEFAAOCAQ8AMIIBCgKCAQEAwy45lsrHj55DHnbAmx6Toc4S3djcD+i0bQifxqY5
QptoZBeSMFvoZ68QBkCKk31ZyPM1TlqnmzCYQu1gT+RVtkd+sB7tkKrJd7Irf0ei
QVJnR7fClvLY4GqDM11m30mJ6wPUGPzAk/mpJZ51AoKAFoENq8wVtvW/w1VQZAy9
HT+smwQclMc4HYG/xOgLfrhTqjhASrmJuEV4l0WlJwtovfS71ThEJhBPzuKfb+vW
B0iEsqoTIx7jGna4pF4AX7WpW4R/ISnMl9+l4nPOfg2N06ZHpTDjhgYIV26NZacv
qQL3Xwtr1eBQ1xjsDMh+3bG461tzNkZbe//LaQr19NtyTwIDAQABo4G9MIG6MAkG
A1UdEwQCMAAwHQYDVR0OBBYEFPA42oDxjL3d9QBZWtD96euKGeJHMFEGA1UdIwRK
MEiAFKEhck168IuC9PNaq5f7fyGpTYFWoRqkGDAWMRQwEgYDVQQDDAt0ZWFtNjE5
LW5ldIIUO9PsYl21hPv22+qqozjO7GHLXWEwEwYDVR0lBAwwCgYIKwYBBQUHAwEw
CwYDVR0PBAQDAgWgMBkGA1UdEQQSMBCCDnRlYW02MTktc2VydmVyMA0GCSqGSIb3
DQEBCwUAA4IBAQAC1sGXFQhB1CvUObP2h1tGtJLpGZynBz6R5Vloj8uNs0XSX5vh
oYevwtK3XBnLhom5jiLalbWc90imse0nN7dnXTSvzfKU96UUJSqwOuVmJHd9qvst
3GkAXjc/E09HisfKZF7b0DnouX+yZNtDh0U2dioiXqzFWFDbWm2Lv6IMltWnlBsy
IWzLxyAA0DdTR3RjHr6PL95qpuB6XtdqmQRUyeLx73c/3ewZOIwHoDIksAJqGv3q
VSZmvnxvHG3Vkh2r5bQIchbYswgPQL0d2bMzHiij5dgEgoRcNpxZ5eEJnRRjmFBj
j3+F+HPb5CZTIdrqDyfcYD6tY2vpWuW0DAqY
-----END CERTIFICATE-----
