Certificate:
    Data:
        Version: 3 (0x2)
        Serial Number:
            de:89:73:d3:19:4c:53:a4:d4:c7:67:49:9f:b8:c3:5a
        Signature Algorithm: sha256WithRSAEncryption
        Issuer: CN=team440-net
        Validity
            Not Before: May 18 21:16:18 2022 GMT
            Not After : May  2 21:16:18 2025 GMT
        Subject: CN=team440-server
        Subject Public Key Info:
            Public Key Algorithm: rsaEncryption
                RSA Public-Key: (2048 bit)
                Modulus:
                    00:c1:23:d8:39:ca:0e:bd:ee:a0:07:d0:80:36:6f:
                    41:05:51:6b:3f:12:70:5f:e4:62:55:84:4a:2a:8a:
                    25:df:34:95:88:7b:fe:c5:9c:78:6c:97:d4:cf:e9:
                    24:b3:de:4e:1e:0d:17:64:80:10:01:85:6c:f0:0e:
                    47:a7:db:2f:ce:60:3a:fa:ba:40:12:cf:71:60:7a:
                    5a:ea:f4:12:3c:f2:9b:3a:b2:a8:b9:5c:22:19:12:
                    e7:66:31:b4:ae:de:76:ce:fd:1c:0d:e5:36:6d:f4:
                    e2:72:5d:0b:03:0a:c3:88:fc:40:36:3f:11:1c:81:
                    30:d0:fa:60:ec:00:34:06:18:14:b0:04:77:c2:13:
                    27:97:33:76:0b:4e:0b:53:19:e1:47:0a:c2:66:20:
                    ae:f1:a2:df:65:37:f7:0a:f3:6c:fd:b2:9d:b6:77:
                    5a:91:83:4e:55:6f:ad:48:3e:8f:ed:34:cc:c8:00:
                    5d:13:60:7f:56:f4:2f:fb:27:76:8e:ba:fb:d1:f0:
                    6c:e9:7b:6c:ef:bb:41:a9:74:90:0b:98:05:66:65:
                    c5:bb:2e:9d:24:37:fc:93:fd:63:8b:d3:cc:3c:40:
                    03:a5:e7:da:6f:05:92:06:af:1a:11:be:3a:26:7d:
                    65:d8:e8:1c:e8:1a:8a:f9:33:81:b6:a0:ef:d3:45:
                    c5:a9
                Exponent: 65537 (0x10001)
        X509v3 extensions:
            X509v3 Basic Constraints: 
                CA:FALSE
            X509v3 Subject Key Identifier: 
                F6:DA:F2:68:CF:79:CC:B0:D6:E7:78:6A:2C:A1:70:92:7F:B1:A2:9E
            X509v3 Authority Key Identifier: 
                keyid:7F:0A:36:AF:A3:48:28:81:C6:0D:9A:C2:30:49:42:B8:A7:14:C9:08
                DirName:/CN=team440-net
                serial:1B:D2:C8:B3:23:55:10:D0:71:98:81:93:D5:7D:7C:2B:97:94:EF:23

            X509v3 Extended Key Usage: 
                TLS Web Server Authentication
            X509v3 Key Usage: 
                Digital Signature, Key Encipherment
            X509v3 Subject Alternative Name: 
                DNS:team440-server
    Signature Algorithm: sha256WithRSAEncryption
         12:50:6e:8c:b1:b3:0a:7d:b0:4c:ed:83:98:1d:fd:a2:db:5c:
         ed:fe:84:7c:75:34:24:07:19:5e:0a:b1:a5:6b:8d:d2:8f:bb:
         9d:0e:ad:e5:db:1b:5a:8d:9f:eb:4c:84:2a:1b:f0:82:ce:ee:
         c3:e4:e6:83:66:34:c8:fa:d4:3b:09:c6:14:1a:b4:5d:d3:57:
         17:91:04:28:55:94:70:43:57:27:65:9e:02:d9:84:f9:a1:ee:
         86:a1:ea:71:97:63:2f:a2:d0:19:9f:9d:47:c4:d5:7a:bd:41:
         eb:5d:5c:63:e5:49:13:80:7d:6d:d8:e8:78:15:71:9c:09:ff:
         9b:86:10:4a:10:ce:6d:2b:61:d4:e7:80:77:13:dc:61:ce:3e:
         98:01:bd:2f:79:56:27:09:d5:2e:87:dc:5b:e4:ba:c0:03:bb:
         ce:a0:19:12:87:64:90:25:23:6a:76:38:f1:c1:08:a8:d3:e1:
         b5:7c:5e:7c:f2:a7:75:96:fe:ed:71:7e:19:1d:3b:33:75:0f:
         fc:bc:7a:86:e2:b8:5a:da:b4:cb:92:72:35:01:dc:12:1b:5c:
         db:97:99:45:61:38:19:8a:7e:d9:7d:07:26:13:c4:6e:6e:33:
         f7:7a:01:84:85:ea:2f:5e:5a:06:1e:8c:ac:53:96:5a:da:fc:
         9c:07:c0:c8
-----BEGIN CERTIFICATE-----
MIIDeDCCAmCgAwIBAgIRAN6Jc9MZTFOk1MdnSZ+4w1owDQYJKoZIhvcNAQELBQAw
FjEUMBIGA1UEAwwLdGVhbTQ0MC1uZXQwHhcNMjIwNTE4MjExNjE4WhcNMjUwNTAy
MjExNjE4WjAZMRcwFQYDVQQDDA50ZWFtNDQwLXNlcnZlcjCCASIwDQYJKoZIhvcN
AQEBBQADggEPADCCAQoCggEBAMEj2DnKDr3uoAfQgDZvQQVRaz8ScF/kYlWESiqK
Jd80lYh7/sWceGyX1M/pJLPeTh4NF2SAEAGFbPAOR6fbL85gOvq6QBLPcWB6Wur0
EjzymzqyqLlcIhkS52YxtK7eds79HA3lNm304nJdCwMKw4j8QDY/ERyBMND6YOwA
NAYYFLAEd8ITJ5czdgtOC1MZ4UcKwmYgrvGi32U39wrzbP2ynbZ3WpGDTlVvrUg+
j+00zMgAXRNgf1b0L/sndo66+9HwbOl7bO+7Qal0kAuYBWZlxbsunSQ3/JP9Y4vT
zDxAA6Xn2m8FkgavGhG+OiZ9ZdjoHOgaivkzgbag79NFxakCAwEAAaOBvTCBujAJ
BgNVHRMEAjAAMB0GA1UdDgQWBBT22vJoz3nMsNbneGosoXCSf7GinjBRBgNVHSME
SjBIgBR/Cjavo0gogcYNmsIwSUK4pxTJCKEapBgwFjEUMBIGA1UEAwwLdGVhbTQ0
MC1uZXSCFBvSyLMjVRDQcZiBk9V9fCuXlO8jMBMGA1UdJQQMMAoGCCsGAQUFBwMB
MAsGA1UdDwQEAwIFoDAZBgNVHREEEjAQgg50ZWFtNDQwLXNlcnZlcjANBgkqhkiG
9w0BAQsFAAOCAQEAElBujLGzCn2wTO2DmB39ottc7f6EfHU0JAcZXgqxpWuN0o+7
nQ6t5dsbWo2f60yEKhvwgs7uw+Tmg2Y0yPrUOwnGFBq0XdNXF5EEKFWUcENXJ2We
AtmE+aHuhqHqcZdjL6LQGZ+dR8TVer1B611cY+VJE4B9bdjoeBVxnAn/m4YQShDO
bSth1OeAdxPcYc4+mAG9L3lWJwnVLofcW+S6wAO7zqAZEodkkCUjanY48cEIqNPh
tXxefPKndZb+7XF+GR07M3UP/Lx6huK4Wtq0y5JyNQHcEhtc25eZRWE4GYp+2X0H
JhPEbm4z93oBhIXqL15aBh6MrFOWWtr8nAfAyA==
-----END CERTIFICATE-----
