Certificate:
    Data:
        Version: 3 (0x2)
        Serial Number:
            ba:60:ed:68:9b:54:cd:5f:7c:9d:f4:2e:83:79:39:76
        Signature Algorithm: sha256WithRSAEncryption
        Issuer: CN=team207-net
        Validity
            Not Before: May 18 19:15:12 2022 GMT
            Not After : May  2 19:15:12 2025 GMT
        Subject: CN=team207-client
        Subject Public Key Info:
            Public Key Algorithm: rsaEncryption
                RSA Public-Key: (2048 bit)
                Modulus:
                    00:c1:d1:28:5d:f2:fc:4b:12:5d:5c:19:5b:fe:86:
                    4a:cd:ad:45:ab:16:9b:85:ae:4a:b4:e4:93:74:41:
                    ad:4a:9f:a0:49:31:67:e1:0d:e2:b1:b7:6c:a3:a5:
                    d4:da:eb:31:1d:e1:d4:b1:16:95:bd:6c:b9:eb:06:
                    4c:42:1b:c4:e6:15:40:b4:e0:fd:6a:bd:cf:7f:4f:
                    58:24:b3:c0:fc:4a:f9:b4:85:3d:72:19:d2:d2:da:
                    25:fb:53:22:c9:74:49:3d:86:36:50:26:60:e0:01:
                    12:ce:9b:cf:34:45:ea:89:ff:1e:4f:7a:c2:51:df:
                    2c:40:2a:09:5f:21:70:ca:9f:75:30:07:0f:63:db:
                    a4:80:37:0c:71:72:57:b7:32:fb:a0:58:a7:86:36:
                    d2:83:36:58:b8:a6:e7:a6:58:fe:e8:4d:07:16:1b:
                    8f:dd:52:72:0d:0a:6c:90:4a:10:86:54:29:bd:b6:
                    ac:c4:25:85:b9:b8:d4:e7:43:27:93:21:59:ef:80:
                    f9:d7:80:d8:40:68:61:b7:92:c4:b1:29:7c:27:68:
                    c7:0c:e4:da:78:17:eb:26:27:b6:df:88:41:ef:09:
                    49:e5:81:97:6d:94:e7:3b:0e:ff:cc:ac:1a:1f:ba:
                    15:46:b1:3c:54:0d:a4:79:1e:15:59:8d:43:f4:76:
                    3d:5d
                Exponent: 65537 (0x10001)
        X509v3 extensions:
            X509v3 Basic Constraints: 
                CA:FALSE
            X509v3 Subject Key Identifier: 
                16:6D:53:33:CC:A8:68:A5:ED:25:FA:1D:0D:0F:19:AB:D7:A9:6E:C9
            X509v3 Authority Key Identifier: 
                keyid:0F:FA:D7:D8:FB:9A:A0:AC:B1:02:D8:17:48:94:64:04:BF:48:C9:BC
                DirName:/CN=team207-net
                serial:1A:12:ED:0C:33:98:49:8B:98:93:D5:46:95:85:18:38:70:47:B6:63

            X509v3 Extended Key Usage: 
                TLS Web Client Authentication
            X509v3 Key Usage: 
                Digital Signature
    Signature Algorithm: sha256WithRSAEncryption
         9e:6b:c7:85:3c:bd:1d:05:83:83:69:c8:4d:42:c0:9b:1f:0d:
         f4:19:3d:59:9d:b5:3c:ae:f7:95:e1:2e:3a:a4:1a:94:d5:2a:
         28:1a:dc:c2:87:9b:22:43:f3:6a:4f:13:ce:c0:f0:52:9b:82:
         76:12:e8:3f:a1:d7:c6:69:82:60:70:f7:52:2c:3b:c4:3b:93:
         4f:4e:e6:da:a7:44:2a:19:0e:9c:83:d0:4c:c2:47:7c:66:cc:
         9e:8a:a6:8e:c0:03:97:8c:d7:d3:af:6e:c2:23:2b:6e:14:30:
         bc:58:f0:72:7f:a6:ed:d2:5e:81:b0:11:2c:c6:66:70:ab:45:
         bd:d6:5f:a3:e6:e3:1f:20:f7:16:57:32:71:d8:60:0e:e8:38:
         a4:0e:23:ff:f3:25:c8:6d:d0:bc:db:8b:40:78:b9:62:f3:b1:
         e2:75:de:89:1d:50:8c:98:83:87:e2:00:4f:7b:2c:eb:ab:c4:
         d7:75:f7:25:ad:50:4b:de:4e:93:86:a5:46:1a:da:77:bf:61:
         99:f9:c0:67:6a:34:e6:2e:45:98:6a:fd:76:3f:ba:85:60:1b:
         74:24:a5:86:ca:52:48:8f:86:0a:92:a5:58:27:53:b2:50:ae:
         f8:a2:93:cc:f5:6b:85:e3:5e:39:df:5d:f1:4c:00:e8:47:b4:
         47:4a:87:7d
-----BEGIN CERTIFICATE-----
MIIDXTCCAkWgAwIBAgIRALpg7WibVM1ffJ30LoN5OXYwDQYJKoZIhvcNAQELBQAw
FjEUMBIGA1UEAwwLdGVhbTIwNy1uZXQwHhcNMjIwNTE4MTkxNTEyWhcNMjUwNTAy
MTkxNTEyWjAZMRcwFQYDVQQDDA50ZWFtMjA3LWNsaWVudDCCASIwDQYJKoZIhvcN
AQEBBQADggEPADCCAQoCggEBAMHRKF3y/EsSXVwZW/6GSs2tRasWm4WuSrTkk3RB
rUqfoEkxZ+EN4rG3bKOl1NrrMR3h1LEWlb1suesGTEIbxOYVQLTg/Wq9z39PWCSz
wPxK+bSFPXIZ0tLaJftTIsl0ST2GNlAmYOABEs6bzzRF6on/Hk96wlHfLEAqCV8h
cMqfdTAHD2PbpIA3DHFyV7cy+6BYp4Y20oM2WLim56ZY/uhNBxYbj91Scg0KbJBK
EIZUKb22rMQlhbm41OdDJ5MhWe+A+deA2EBoYbeSxLEpfCdoxwzk2ngX6yYntt+I
Qe8JSeWBl22U5zsO/8ysGh+6FUaxPFQNpHkeFVmNQ/R2PV0CAwEAAaOBojCBnzAJ
BgNVHRMEAjAAMB0GA1UdDgQWBBQWbVMzzKhope0l+h0NDxmr16luyTBRBgNVHSME
SjBIgBQP+tfY+5qgrLEC2BdIlGQEv0jJvKEapBgwFjEUMBIGA1UEAwwLdGVhbTIw
Ny1uZXSCFBoS7QwzmEmLmJPVRpWFGDhwR7ZjMBMGA1UdJQQMMAoGCCsGAQUFBwMC
MAsGA1UdDwQEAwIHgDANBgkqhkiG9w0BAQsFAAOCAQEAnmvHhTy9HQWDg2nITULA
mx8N9Bk9WZ21PK73leEuOqQalNUqKBrcwoebIkPzak8TzsDwUpuCdhLoP6HXxmmC
YHD3Uiw7xDuTT07m2qdEKhkOnIPQTMJHfGbMnoqmjsADl4zX069uwiMrbhQwvFjw
cn+m7dJegbARLMZmcKtFvdZfo+bjHyD3FlcycdhgDug4pA4j//MlyG3QvNuLQHi5
YvOx4nXeiR1QjJiDh+IAT3ss66vE13X3Ja1QS95Ok4alRhrad79hmfnAZ2o05i5F
mGr9dj+6hWAbdCSlhspSSI+GCpKlWCdTslCu+KKTzPVrheNeOd9d8UwA6Ee0R0qH
fQ==
-----END CERTIFICATE-----
