Certificate:
    Data:
        Version: 3 (0x2)
        Serial Number:
            40:ad:ea:b1:e1:d8:5c:8e:bd:17:db:40:ac:60:57:88
        Signature Algorithm: sha256WithRSAEncryption
        Issuer: CN=team254-net
        Validity
            Not Before: May 18 19:30:59 2022 GMT
            Not After : May  2 19:30:59 2025 GMT
        Subject: CN=team254-client
        Subject Public Key Info:
            Public Key Algorithm: rsaEncryption
                RSA Public-Key: (2048 bit)
                Modulus:
                    00:d2:03:4c:8a:37:d3:65:d2:ff:da:7a:08:78:e9:
                    9d:03:62:b5:5d:ff:09:8a:ce:76:73:e0:2c:94:e7:
                    94:f2:24:0a:b7:aa:3d:5e:26:7b:d1:8b:a3:2f:20:
                    14:11:2c:c3:10:bd:ae:e4:1a:6a:b5:83:57:e4:bb:
                    db:44:8c:b9:b4:f1:98:c8:03:75:a9:88:56:d4:62:
                    4e:f1:7f:02:95:8d:9c:d7:06:c9:29:23:63:c2:4e:
                    f6:44:96:07:b1:f6:2c:0b:1f:4d:fd:eb:63:20:7d:
                    67:a3:90:45:8b:4f:9c:8e:92:07:65:53:04:80:7c:
                    97:7c:56:ca:1d:e3:cb:06:da:3f:99:d3:4d:e5:4e:
                    a6:bd:98:d7:4a:28:c0:1c:1b:44:c9:54:10:d5:60:
                    41:63:20:21:80:ed:51:9b:00:0d:92:c1:49:12:bd:
                    70:a3:f0:08:ca:72:41:e4:ec:a6:6d:cf:f7:56:55:
                    db:4d:2f:c0:0e:20:e1:79:9d:55:de:02:ce:ab:b7:
                    31:34:ca:22:31:ef:ca:06:08:0f:0d:59:13:78:d5:
                    cc:b2:9b:9c:4f:15:52:c3:f9:a2:65:03:de:d6:62:
                    3d:77:71:5d:fc:18:e0:a7:29:f4:12:fc:66:e0:8a:
                    99:5e:0f:bc:ea:12:70:55:d2:12:72:d9:59:e8:2b:
                    8f:a7
                Exponent: 65537 (0x10001)
        X509v3 extensions:
            X509v3 Basic Constraints: 
                CA:FALSE
            X509v3 Subject Key Identifier: 
                77:58:E5:BA:E0:77:CF:8D:D3:0C:53:D0:FC:3B:A6:53:65:58:79:DB
            X509v3 Authority Key Identifier: 
                keyid:78:2B:3C:BE:0A:1A:B2:B8:6E:9B:89:21:0A:14:BE:64:2C:6C:76:DA
                DirName:/CN=team254-net
                serial:5F:B3:FF:45:0B:C2:0F:A0:05:F6:FB:BA:F4:F8:C7:DD:2D:3B:F4:C5

            X509v3 Extended Key Usage: 
                TLS Web Client Authentication
            X509v3 Key Usage: 
                Digital Signature
    Signature Algorithm: sha256WithRSAEncryption
         71:15:cd:fe:d0:d3:8c:25:1c:8f:e6:5f:94:71:b6:19:9e:b0:
         34:16:7a:6d:6f:80:31:8f:de:ab:ae:47:6b:6a:c2:70:6d:92:
         30:d8:2f:f5:b2:87:fa:75:55:0e:67:c0:b6:4e:25:52:2d:06:
         10:9e:61:d5:40:68:c6:34:07:c0:fe:3e:25:90:c3:37:48:dc:
         ae:bd:54:f9:3d:18:24:1d:51:9e:30:88:97:99:d8:76:4c:e2:
         58:fb:b5:cc:a0:8e:39:46:23:d9:32:69:d8:dd:36:86:9e:33:
         07:c4:78:39:5d:7c:22:e2:d6:66:dc:8d:68:b9:09:e1:92:c1:
         b0:4a:67:ca:84:71:86:40:d7:ba:f5:7d:2e:e7:cc:4d:de:71:
         1e:5f:65:e7:7e:d6:aa:14:ba:08:ee:ae:a8:58:d8:85:21:69:
         66:20:a4:ce:f5:49:0b:ec:ba:ad:72:e7:c0:ad:8f:8c:dd:21:
         b3:b8:bb:c0:e4:29:a9:3e:64:b9:fc:5d:9e:4b:92:66:2a:d1:
         ff:6b:2e:b6:96:c1:b9:84:e4:be:a5:f7:73:01:a4:ad:79:d6:
         78:b3:f0:ea:28:c2:24:72:15:b8:3a:28:63:ec:66:cd:b9:37:
         30:01:95:2f:77:9b:56:93:31:2b:50:bd:0e:f5:f3:35:46:dd:
         68:69:b3:1f
-----BEGIN CERTIFICATE-----
MIIDXDCCAkSgAwIBAgIQQK3qseHYXI69F9tArGBXiDANBgkqhkiG9w0BAQsFADAW
MRQwEgYDVQQDDAt0ZWFtMjU0LW5ldDAeFw0yMjA1MTgxOTMwNTlaFw0yNTA1MDIx
OTMwNTlaMBkxFzAVBgNVBAMMDnRlYW0yNTQtY2xpZW50MIIBIjANBgkqhkiG9w0B
AQEFAAOCAQ8AMIIBCgKCAQEA0gNMijfTZdL/2noIeOmdA2K1Xf8Jis52c+AslOeU
8iQKt6o9XiZ70YujLyAUESzDEL2u5BpqtYNX5LvbRIy5tPGYyAN1qYhW1GJO8X8C
lY2c1wbJKSNjwk72RJYHsfYsCx9N/etjIH1no5BFi0+cjpIHZVMEgHyXfFbKHePL
Bto/mdNN5U6mvZjXSijAHBtEyVQQ1WBBYyAhgO1RmwANksFJEr1wo/AIynJB5Oym
bc/3VlXbTS/ADiDheZ1V3gLOq7cxNMoiMe/KBggPDVkTeNXMspucTxVSw/miZQPe
1mI9d3Fd/Bjgpyn0Evxm4IqZXg+86hJwVdISctlZ6CuPpwIDAQABo4GiMIGfMAkG
A1UdEwQCMAAwHQYDVR0OBBYEFHdY5brgd8+N0wxT0Pw7plNlWHnbMFEGA1UdIwRK
MEiAFHgrPL4KGrK4bpuJIQoUvmQsbHbaoRqkGDAWMRQwEgYDVQQDDAt0ZWFtMjU0
LW5ldIIUX7P/RQvCD6AF9vu69PjH3S079MUwEwYDVR0lBAwwCgYIKwYBBQUHAwIw
CwYDVR0PBAQDAgeAMA0GCSqGSIb3DQEBCwUAA4IBAQBxFc3+0NOMJRyP5l+UcbYZ
nrA0Fnptb4Axj96rrkdrasJwbZIw2C/1sof6dVUOZ8C2TiVSLQYQnmHVQGjGNAfA
/j4lkMM3SNyuvVT5PRgkHVGeMIiXmdh2TOJY+7XMoI45RiPZMmnY3TaGnjMHxHg5
XXwi4tZm3I1ouQnhksGwSmfKhHGGQNe69X0u58xN3nEeX2XnftaqFLoI7q6oWNiF
IWlmIKTO9UkL7LqtcufArY+M3SGzuLvA5CmpPmS5/F2eS5JmKtH/ay62lsG5hOS+
pfdzAaStedZ4s/DqKMIkchW4Oihj7GbNuTcwAZUvd5tWkzErUL0O9fM1Rt1oabMf
-----END CERTIFICATE-----
