Certificate:
    Data:
        Version: 3 (0x2)
        Serial Number:
            d0:1f:97:b4:09:85:ff:14:00:df:d7:a3:f6:f6:f2:86
        Signature Algorithm: sha256WithRSAEncryption
        Issuer: CN=team41-net
        Validity
            Not Before: May 18 14:13:44 2022 GMT
            Not After : May  2 14:13:44 2025 GMT
        Subject: CN=team41-server
        Subject Public Key Info:
            Public Key Algorithm: rsaEncryption
                RSA Public-Key: (2048 bit)
                Modulus:
                    00:c5:4c:21:07:17:0c:c2:1b:44:ce:e9:17:7a:39:
                    9e:99:c9:c3:27:c2:b4:d7:9e:15:6a:1c:e1:ce:84:
                    0c:f2:c8:f9:57:ee:50:04:b0:d3:9c:bb:32:f0:0f:
                    17:bf:12:99:6d:dd:d7:44:ec:1c:a5:b6:b5:3e:7c:
                    fd:c8:15:6e:98:bd:fb:5b:ed:72:8b:a3:f0:dd:bc:
                    5d:ee:66:39:70:47:86:4c:94:b1:f1:87:f2:c6:c1:
                    a5:98:24:f3:e9:64:3c:6f:7c:e5:52:25:d1:08:f8:
                    1d:26:18:d8:14:55:2d:de:00:c0:06:3d:c7:d8:96:
                    7b:3f:59:9a:0c:b1:af:4c:e6:01:ed:24:98:c3:0b:
                    6d:b9:8e:ad:1b:41:c4:b1:57:88:3a:d6:76:5b:7b:
                    6d:ba:41:6a:3e:4a:a3:a2:ab:22:b5:f6:9a:0e:1d:
                    df:93:c4:35:1f:11:78:35:56:8e:03:32:0b:fe:cc:
                    59:72:1a:aa:8e:d2:ff:17:f4:0d:4f:6b:af:84:d8:
                    94:65:f2:83:90:ac:09:3d:a2:27:35:59:e8:88:c0:
                    1d:cf:a2:6c:8c:08:de:86:bb:c0:52:b9:ef:8c:a3:
                    e6:16:59:6e:de:4a:56:be:5f:88:5e:07:4b:95:fb:
                    05:33:3a:81:8e:c9:b3:ee:67:cc:13:b1:e2:58:a5:
                    a2:41
                Exponent: 65537 (0x10001)
        X509v3 extensions:
            X509v3 Basic Constraints: 
                CA:FALSE
            X509v3 Subject Key Identifier: 
                04:59:62:4E:37:82:DB:3C:D5:C2:48:EA:22:E6:1F:14:B3:2E:E6:D5
            X509v3 Authority Key Identifier: 
                keyid:8E:AC:07:A9:F4:17:96:27:A3:22:66:0D:14:91:9B:93:01:38:A7:4C
                DirName:/CN=team41-net
                serial:44:DE:A1:98:78:3E:6A:BB:DB:D2:D5:30:98:8D:D1:36:96:A7:D3:10

            X509v3 Extended Key Usage: 
                TLS Web Server Authentication
            X509v3 Key Usage: 
                Digital Signature, Key Encipherment
            X509v3 Subject Alternative Name: 
                DNS:team41-server
    Signature Algorithm: sha256WithRSAEncryption
         2e:e9:4a:e3:18:df:ee:c9:5f:0c:d3:5c:62:99:da:e4:34:c7:
         a0:f8:f6:b2:39:6f:bf:75:0b:ed:bc:06:a2:ff:65:76:eb:ef:
         30:8c:15:5c:3f:e1:f2:07:69:62:19:1b:55:fc:32:a2:c0:db:
         a4:7e:52:7b:c0:a1:31:a6:a0:9d:f2:79:3b:c1:a5:d7:d5:fa:
         a9:54:59:7d:b0:e3:b9:05:94:22:4f:a0:15:6c:06:5a:b5:2c:
         ce:aa:03:67:9b:09:4f:57:91:77:fa:a7:46:43:dd:d6:80:ab:
         60:13:b7:94:23:ac:de:d0:c2:01:c3:8a:e3:03:4f:cd:17:e0:
         01:44:ab:81:12:40:fd:79:59:3d:c8:a9:2e:ed:8b:36:f1:f3:
         a7:b0:ad:1d:3d:73:ca:f1:5a:17:b7:77:26:37:26:24:9d:a1:
         11:81:15:fe:5b:20:ce:95:ac:a3:bd:7c:99:e6:11:78:2c:ec:
         95:7b:83:ac:0c:39:1b:dc:b2:e6:2f:ba:f5:c5:53:02:44:51:
         e7:6e:2f:28:3f:03:ca:75:60:1a:74:6f:7e:06:04:9f:96:76:
         e4:21:f0:ab:ee:9d:d5:4a:3e:1f:ef:5e:bd:63:04:c5:20:18:
         d9:df:e8:ae:31:f4:dd:18:63:44:65:d4:68:13:79:ef:14:f2:
         e9:4f:b4:bd
-----BEGIN CERTIFICATE-----
MIIDdDCCAlygAwIBAgIRANAfl7QJhf8UAN/Xo/b28oYwDQYJKoZIhvcNAQELBQAw
FTETMBEGA1UEAwwKdGVhbTQxLW5ldDAeFw0yMjA1MTgxNDEzNDRaFw0yNTA1MDIx
NDEzNDRaMBgxFjAUBgNVBAMMDXRlYW00MS1zZXJ2ZXIwggEiMA0GCSqGSIb3DQEB
AQUAA4IBDwAwggEKAoIBAQDFTCEHFwzCG0TO6Rd6OZ6ZycMnwrTXnhVqHOHOhAzy
yPlX7lAEsNOcuzLwDxe/Eplt3ddE7ByltrU+fP3IFW6Yvftb7XKLo/DdvF3uZjlw
R4ZMlLHxh/LGwaWYJPPpZDxvfOVSJdEI+B0mGNgUVS3eAMAGPcfYlns/WZoMsa9M
5gHtJJjDC225jq0bQcSxV4g61nZbe226QWo+SqOiqyK19poOHd+TxDUfEXg1Vo4D
Mgv+zFlyGqqO0v8X9A1Pa6+E2JRl8oOQrAk9oic1WeiIwB3PomyMCN6Gu8BSue+M
o+YWWW7eSla+X4heB0uV+wUzOoGOybPuZ8wTseJYpaJBAgMBAAGjgbswgbgwCQYD
VR0TBAIwADAdBgNVHQ4EFgQUBFliTjeC2zzVwkjqIuYfFLMu5tUwUAYDVR0jBEkw
R4AUjqwHqfQXliejImYNFJGbkwE4p0yhGaQXMBUxEzARBgNVBAMMCnRlYW00MS1u
ZXSCFETeoZh4Pmq729LVMJiN0TaWp9MQMBMGA1UdJQQMMAoGCCsGAQUFBwMBMAsG
A1UdDwQEAwIFoDAYBgNVHREEETAPgg10ZWFtNDEtc2VydmVyMA0GCSqGSIb3DQEB
CwUAA4IBAQAu6UrjGN/uyV8M01ximdrkNMeg+PayOW+/dQvtvAai/2V26+8wjBVc
P+HyB2liGRtV/DKiwNukflJ7wKExpqCd8nk7waXX1fqpVFl9sOO5BZQiT6AVbAZa
tSzOqgNnmwlPV5F3+qdGQ93WgKtgE7eUI6ze0MIBw4rjA0/NF+ABRKuBEkD9eVk9
yKku7Ys28fOnsK0dPXPK8VoXt3cmNyYknaERgRX+WyDOlayjvXyZ5hF4LOyVe4Os
DDkb3LLmL7r1xVMCRFHnbi8oPwPKdWAadG9+BgSflnbkIfCr7p3VSj4f7169YwTF
IBjZ3+iuMfTdGGNEZdRoE3nvFPLpT7S9
-----END CERTIFICATE-----
