Certificate:
    Data:
        Version: 3 (0x2)
        Serial Number:
            51:c3:23:e6:ab:b3:3c:ce:60:b0:ef:51:20:1b:2f:8e
        Signature Algorithm: sha256WithRSAEncryption
        Issuer: CN=team72-net
        Validity
            Not Before: May 18 14:30:24 2022 GMT
            Not After : May  2 14:30:24 2025 GMT
        Subject: CN=team72-client
        Subject Public Key Info:
            Public Key Algorithm: rsaEncryption
                RSA Public-Key: (2048 bit)
                Modulus:
                    00:d6:e8:d1:e0:88:65:85:5a:63:28:cb:17:5e:c3:
                    ac:0c:3f:36:f7:98:94:77:b9:54:93:e6:7a:3f:1c:
                    91:6f:ec:15:f1:dd:47:dd:61:1e:e9:65:46:ca:93:
                    d4:f4:dd:87:0f:19:f0:37:04:fe:78:fa:a3:e9:37:
                    97:04:1a:cf:2a:fb:45:39:0a:71:87:73:f8:0d:b3:
                    af:83:37:07:d9:4f:34:35:51:3d:c9:3b:54:5b:1d:
                    0a:3a:36:ea:16:4c:d2:d4:6c:ed:9f:60:0f:bc:35:
                    ed:fc:15:39:e4:f3:16:88:c4:19:e6:b7:0f:a0:02:
                    7d:c5:8a:01:72:d5:e6:88:e8:a4:35:e3:57:02:9c:
                    d6:c1:c3:9e:f3:04:87:9e:9a:95:0a:da:c4:cf:87:
                    d1:fa:01:dd:e6:89:c5:bc:ec:60:0a:c7:71:8e:de:
                    fa:38:6c:ca:36:f1:59:f3:e4:2e:36:87:aa:da:ce:
                    31:40:97:69:5a:5b:9b:43:b7:54:86:55:43:25:c2:
                    92:85:e4:18:a7:89:45:15:9e:d1:56:7c:87:3a:26:
                    6e:60:ed:47:ef:35:c4:a8:89:7c:3e:d3:e4:9e:37:
                    90:b4:cd:69:3b:f5:ae:f1:75:1f:4b:d5:8d:07:b4:
                    6b:d0:27:78:3b:9e:cd:68:c1:fc:b0:aa:dc:43:e3:
                    dd:3f
                Exponent: 65537 (0x10001)
        X509v3 extensions:
            X509v3 Basic Constraints: 
                CA:FALSE
            X509v3 Subject Key Identifier: 
                53:70:19:9E:6A:51:71:2B:5B:6F:35:B1:F1:C5:A6:55:F4:A0:57:B2
            X509v3 Authority Key Identifier: 
                keyid:FB:CA:69:DC:AA:ED:3D:E1:8F:D8:0B:E4:AD:EA:49:C6:96:11:BF:2B
                DirName:/CN=team72-net
                serial:0B:FA:30:0A:19:2B:0B:5B:AF:6D:01:40:7C:89:6D:0F:4A:16:42:60

            X509v3 Extended Key Usage: 
                TLS Web Client Authentication
            X509v3 Key Usage: 
                Digital Signature
    Signature Algorithm: sha256WithRSAEncryption
         b4:5f:ec:d2:ae:24:35:32:4d:0c:a7:52:8f:b2:f3:ae:d1:e0:
         89:df:87:2b:1c:e1:93:89:1a:ff:fa:cf:ad:e5:f7:62:71:0b:
         a7:86:fe:18:29:2f:ca:e2:08:32:8f:a1:a2:fe:cd:37:ae:f3:
         0e:7f:b1:07:d3:0b:c1:0e:24:e4:12:f0:64:33:c6:a0:07:7e:
         21:41:33:14:1a:0f:26:76:5f:51:f5:32:f7:aa:75:94:2a:35:
         1f:df:03:77:27:6d:53:47:7b:9d:ff:73:5b:26:9e:53:3a:45:
         9b:86:e9:50:05:8f:d0:b6:96:0c:a6:d9:1e:51:73:8a:6a:4b:
         ee:4c:ad:8a:1e:67:ef:26:a3:1c:b0:b9:52:8c:48:be:58:d9:
         db:5c:63:9f:f9:27:05:63:3d:68:28:bf:eb:d0:51:c5:62:3d:
         c5:a6:d5:05:8b:cf:f9:2b:6b:c6:66:83:95:f8:33:a6:22:5d:
         ad:27:42:ef:cf:37:02:70:26:4c:f1:68:89:59:0c:be:16:32:
         69:12:60:43:ec:f2:eb:56:c6:d1:9b:77:b4:97:52:59:a0:d6:
         4f:3e:ae:4a:69:5d:23:e6:43:22:23:e2:26:c5:39:42:21:72:
         91:b4:e5:36:62:c7:3c:2b:b7:5c:d5:b2:07:c6:01:e6:2d:87:
         ec:de:c2:de
-----BEGIN CERTIFICATE-----
MIIDWTCCAkGgAwIBAgIQUcMj5quzPM5gsO9RIBsvjjANBgkqhkiG9w0BAQsFADAV
MRMwEQYDVQQDDAp0ZWFtNzItbmV0MB4XDTIyMDUxODE0MzAyNFoXDTI1MDUwMjE0
MzAyNFowGDEWMBQGA1UEAwwNdGVhbTcyLWNsaWVudDCCASIwDQYJKoZIhvcNAQEB
BQADggEPADCCAQoCggEBANbo0eCIZYVaYyjLF17DrAw/NveYlHe5VJPmej8ckW/s
FfHdR91hHullRsqT1PTdhw8Z8DcE/nj6o+k3lwQazyr7RTkKcYdz+A2zr4M3B9lP
NDVRPck7VFsdCjo26hZM0tRs7Z9gD7w17fwVOeTzFojEGea3D6ACfcWKAXLV5ojo
pDXjVwKc1sHDnvMEh56alQraxM+H0foB3eaJxbzsYArHcY7e+jhsyjbxWfPkLjaH
qtrOMUCXaVpbm0O3VIZVQyXCkoXkGKeJRRWe0VZ8hzombmDtR+81xKiJfD7T5J43
kLTNaTv1rvF1H0vVjQe0a9AneDuezWjB/LCq3EPj3T8CAwEAAaOBoTCBnjAJBgNV
HRMEAjAAMB0GA1UdDgQWBBRTcBmealFxK1tvNbHxxaZV9KBXsjBQBgNVHSMESTBH
gBT7ymncqu094Y/YC+St6knGlhG/K6EZpBcwFTETMBEGA1UEAwwKdGVhbTcyLW5l
dIIUC/owChkrC1uvbQFAfIltD0oWQmAwEwYDVR0lBAwwCgYIKwYBBQUHAwIwCwYD
VR0PBAQDAgeAMA0GCSqGSIb3DQEBCwUAA4IBAQC0X+zSriQ1Mk0Mp1KPsvOu0eCJ
34crHOGTiRr/+s+t5fdicQunhv4YKS/K4ggyj6Gi/s03rvMOf7EH0wvBDiTkEvBk
M8agB34hQTMUGg8mdl9R9TL3qnWUKjUf3wN3J21TR3ud/3NbJp5TOkWbhulQBY/Q
tpYMptkeUXOKakvuTK2KHmfvJqMcsLlSjEi+WNnbXGOf+ScFYz1oKL/r0FHFYj3F
ptUFi8/5K2vGZoOV+DOmIl2tJ0LvzzcCcCZM8WiJWQy+FjJpEmBD7PLrVsbRm3e0
l1JZoNZPPq5KaV0j5kMiI+ImxTlCIXKRtOU2Ysc8K7dc1bIHxgHmLYfs3sLe
-----END CERTIFICATE-----
