Certificate:
    Data:
        Version: 3 (0x2)
        Serial Number:
            7c:59:07:ee:e4:6c:4d:dd:8a:fe:b0:75:98:6d:a7:da
        Signature Algorithm: sha256WithRSAEncryption
        Issuer: CN=team372-net
        Validity
            Not Before: May 18 20:38:04 2022 GMT
            Not After : May  2 20:38:04 2025 GMT
        Subject: CN=team372-server
        Subject Public Key Info:
            Public Key Algorithm: rsaEncryption
                RSA Public-Key: (2048 bit)
                Modulus:
                    00:c3:a9:d2:eb:59:41:62:bf:f9:fb:0b:01:5e:23:
                    2c:44:56:9b:fc:44:5e:dc:2a:67:21:85:5c:88:6b:
                    6b:29:6a:cc:e0:e1:d1:0d:ac:ae:c5:45:aa:00:e0:
                    e1:53:e2:5f:b2:e7:18:d4:f2:c3:6d:64:55:0f:0b:
                    78:e4:fe:51:14:9e:98:56:05:22:bf:62:be:c9:d3:
                    52:4b:75:60:14:7a:b5:59:4a:c6:c9:31:37:f1:ba:
                    09:ec:dc:a8:3e:c0:4d:9b:d6:cb:4e:7c:17:23:25:
                    d5:49:8d:40:79:0a:55:06:0d:99:85:a2:f4:6a:c9:
                    06:40:80:73:21:4a:77:08:a6:5a:67:11:ae:43:84:
                    19:70:4f:cc:cf:af:69:5e:de:61:81:8e:67:9b:53:
                    18:b2:04:27:3e:0b:0e:7f:9c:24:1a:75:7b:c4:68:
                    fc:82:f9:c0:8c:2c:dd:39:d6:ab:76:0f:5b:12:92:
                    a7:73:33:88:35:0a:89:cc:c6:3f:aa:c3:8c:1f:e2:
                    c0:d2:fa:b3:fa:d2:29:b7:73:eb:ac:a3:b0:d6:9b:
                    06:45:74:15:40:56:b2:8d:c1:5e:cc:79:a8:c2:80:
                    63:53:a1:7f:c8:ca:f9:eb:56:e0:8b:f8:51:58:75:
                    37:57:cc:87:70:2d:d9:80:a5:f7:23:79:4f:1d:0e:
                    d9:87
                Exponent: 65537 (0x10001)
        X509v3 extensions:
            X509v3 Basic Constraints: 
                CA:FALSE
            X509v3 Subject Key Identifier: 
                A7:F8:2C:04:42:BC:5E:38:62:12:94:52:31:D0:C4:E3:17:66:F4:4D
            X509v3 Authority Key Identifier: 
                keyid:23:DC:B2:A6:BB:E3:51:2B:BF:77:E0:25:25:79:F4:E0:97:52:AC:2E
                DirName:/CN=team372-net
                serial:70:D6:82:CC:F8:DE:19:97:53:20:F4:A7:F5:6A:A2:33:13:67:39:33

            X509v3 Extended Key Usage: 
                TLS Web Server Authentication
            X509v3 Key Usage: 
                Digital Signature, Key Encipherment
            X509v3 Subject Alternative Name: 
                DNS:team372-server
    Signature Algorithm: sha256WithRSAEncryption
         7e:f4:0e:28:b7:80:aa:a2:f1:ed:bb:c6:34:be:32:91:0e:cc:
         98:f6:bb:1d:8c:4f:73:8a:fd:ae:ef:a5:1d:81:ca:b9:70:81:
         42:38:33:9a:97:95:8e:8a:8f:ad:29:e8:a6:4a:db:65:26:02:
         16:31:34:72:f8:5c:54:0d:9e:c0:cb:fd:25:2c:72:28:1f:89:
         b3:d9:0d:16:5d:6b:e0:00:08:39:4e:2d:15:c2:5f:17:85:5d:
         d0:fc:61:05:56:c2:e3:63:99:e4:fe:5b:35:4c:1c:6b:7e:5a:
         5d:46:32:16:6f:2d:a3:6e:a0:1d:31:d0:a5:89:f2:13:ba:68:
         51:50:96:8f:29:b1:6c:a7:f9:f8:16:3b:b5:12:2b:cc:1a:c6:
         91:fe:c7:d4:cb:eb:3b:30:ff:78:be:43:5b:a6:bf:9c:cd:9a:
         ad:86:4f:f2:d3:ac:a6:69:71:29:a9:b1:29:ab:92:64:14:b2:
         46:4e:36:95:a6:cd:43:5c:63:37:0f:4d:62:35:23:7e:87:e6:
         a5:9e:21:5d:34:f8:0e:f7:7c:90:b8:de:b8:13:11:fb:bf:50:
         bd:0d:7c:46:65:94:97:36:81:21:0c:ff:25:e2:47:69:ab:59:
         93:92:a5:78:7d:6a:b4:79:9e:e3:4f:2b:24:c0:c0:eb:55:af:
         0c:19:b8:14
-----BEGIN CERTIFICATE-----
MIIDdzCCAl+gAwIBAgIQfFkH7uRsTd2K/rB1mG2n2jANBgkqhkiG9w0BAQsFADAW
MRQwEgYDVQQDDAt0ZWFtMzcyLW5ldDAeFw0yMjA1MTgyMDM4MDRaFw0yNTA1MDIy
MDM4MDRaMBkxFzAVBgNVBAMMDnRlYW0zNzItc2VydmVyMIIBIjANBgkqhkiG9w0B
AQEFAAOCAQ8AMIIBCgKCAQEAw6nS61lBYr/5+wsBXiMsRFab/ERe3CpnIYVciGtr
KWrM4OHRDayuxUWqAODhU+JfsucY1PLDbWRVDwt45P5RFJ6YVgUiv2K+ydNSS3Vg
FHq1WUrGyTE38boJ7NyoPsBNm9bLTnwXIyXVSY1AeQpVBg2ZhaL0askGQIBzIUp3
CKZaZxGuQ4QZcE/Mz69pXt5hgY5nm1MYsgQnPgsOf5wkGnV7xGj8gvnAjCzdOdar
dg9bEpKnczOINQqJzMY/qsOMH+LA0vqz+tIpt3PrrKOw1psGRXQVQFayjcFezHmo
woBjU6F/yMr561bgi/hRWHU3V8yHcC3ZgKX3I3lPHQ7ZhwIDAQABo4G9MIG6MAkG
A1UdEwQCMAAwHQYDVR0OBBYEFKf4LARCvF44YhKUUjHQxOMXZvRNMFEGA1UdIwRK
MEiAFCPcsqa741Erv3fgJSV59OCXUqwuoRqkGDAWMRQwEgYDVQQDDAt0ZWFtMzcy
LW5ldIIUcNaCzPjeGZdTIPSn9WqiMxNnOTMwEwYDVR0lBAwwCgYIKwYBBQUHAwEw
CwYDVR0PBAQDAgWgMBkGA1UdEQQSMBCCDnRlYW0zNzItc2VydmVyMA0GCSqGSIb3
DQEBCwUAA4IBAQB+9A4ot4CqovHtu8Y0vjKRDsyY9rsdjE9ziv2u76Udgcq5cIFC
ODOal5WOio+tKeimSttlJgIWMTRy+FxUDZ7Ay/0lLHIoH4mz2Q0WXWvgAAg5Ti0V
wl8XhV3Q/GEFVsLjY5nk/ls1TBxrflpdRjIWby2jbqAdMdClifITumhRUJaPKbFs
p/n4Fju1EivMGsaR/sfUy+s7MP94vkNbpr+czZqthk/y06ymaXEpqbEpq5JkFLJG
TjaVps1DXGM3D01iNSN+h+alniFdNPgO93yQuN64ExH7v1C9DXxGZZSXNoEhDP8l
4kdpq1mTkqV4fWq0eZ7jTyskwMDrVa8MGbgU
-----END CERTIFICATE-----
