Certificate:
    Data:
        Version: 3 (0x2)
        Serial Number:
            4b:a2:1b:92:55:c9:6a:20:53:93:81:74:7b:ed:f3:8a
        Signature Algorithm: sha256WithRSAEncryption
        Issuer: CN=team46-net
        Validity
            Not Before: May 18 14:19:42 2022 GMT
            Not After : May  2 14:19:42 2025 GMT
        Subject: CN=team46-client
        Subject Public Key Info:
            Public Key Algorithm: rsaEncryption
                RSA Public-Key: (2048 bit)
                Modulus:
                    00:d8:15:75:d8:55:8f:06:68:69:81:a3:57:eb:c5:
                    1a:ab:c0:13:ce:8b:78:8e:38:c8:07:75:8f:27:e6:
                    2f:fa:04:fb:f1:77:86:69:68:b2:09:5f:11:93:b2:
                    c5:f0:17:af:44:e3:6a:49:3f:84:18:b3:bc:e4:e3:
                    e3:98:af:3d:6c:f0:de:5b:67:3e:38:51:41:dc:4c:
                    bb:65:97:dd:40:5c:df:83:8b:28:4c:8d:d9:f4:af:
                    8a:81:d4:1e:3f:e8:af:a3:82:93:1d:31:f6:ad:e5:
                    c6:aa:ee:26:48:ee:11:ad:e0:25:46:0c:b5:b2:09:
                    98:fa:81:b6:e5:5c:79:94:39:32:fe:45:a3:4c:0c:
                    fe:08:3d:6e:ef:dd:ba:2e:c4:04:90:5b:ee:f6:a6:
                    1e:1b:7d:a6:39:51:99:7f:fa:d7:c8:cd:66:0f:0c:
                    aa:10:28:7f:23:15:44:61:42:2d:ac:dd:42:29:47:
                    65:6d:f9:eb:b3:19:f8:0c:8f:f1:25:d6:45:dc:a4:
                    28:c5:ef:8d:43:ac:41:db:90:bc:be:fd:2f:d4:85:
                    76:a4:e7:2f:a1:fa:29:34:d9:87:1c:c7:e6:f4:e0:
                    e2:fe:ab:01:0f:83:72:47:45:fe:ba:e0:55:2f:b1:
                    9e:ab:32:51:28:a5:80:a2:e3:87:34:87:e1:16:52:
                    53:4d
                Exponent: 65537 (0x10001)
        X509v3 extensions:
            X509v3 Basic Constraints: 
                CA:FALSE
            X509v3 Subject Key Identifier: 
                4E:4F:21:1F:37:B0:BD:AE:4C:25:75:26:91:BB:8C:57:A6:1F:1F:6A
            X509v3 Authority Key Identifier: 
                keyid:A6:38:E3:32:EE:16:BB:C3:FA:1D:A2:04:BF:65:89:98:A0:6C:8A:7F
                DirName:/CN=team46-net
                serial:56:CA:F0:3E:1A:AC:5A:AD:C3:56:FD:0A:66:D2:A4:93:B3:5F:25:2D

            X509v3 Extended Key Usage: 
                TLS Web Client Authentication
            X509v3 Key Usage: 
                Digital Signature
    Signature Algorithm: sha256WithRSAEncryption
         55:e9:91:0b:62:f9:fd:bc:2c:54:a4:0d:79:1b:79:1e:c9:8f:
         39:79:47:be:9e:7e:91:0e:0b:dc:89:69:74:fe:96:fb:18:b4:
         5e:66:62:c3:6a:6b:09:3b:4e:36:f8:8a:54:09:f2:9b:66:29:
         be:05:22:59:59:66:71:dc:a9:b9:d4:8f:9f:4b:05:24:47:91:
         86:22:26:1c:09:16:80:05:51:fd:8e:98:0c:75:e8:fa:00:18:
         e1:84:8a:a9:46:53:2a:3a:34:58:1f:4f:7f:09:5d:d9:fd:20:
         e1:a9:19:ee:72:0f:86:84:5a:eb:60:2e:aa:c6:ec:5f:86:fa:
         6a:f5:96:a6:59:39:fb:a8:3a:1d:d6:5e:13:4f:e1:9d:fb:ca:
         d2:fc:33:da:ac:50:0e:91:04:5a:00:b2:ce:aa:4f:24:5e:48:
         41:0b:0d:2b:ea:5f:d0:32:6a:bf:65:43:0d:ff:dc:de:b9:07:
         3b:5c:eb:0e:dd:9c:b3:b7:c9:2a:ab:3e:7a:20:13:b6:d1:2b:
         42:9f:ee:ce:61:10:cb:5d:41:3b:6f:1e:da:ee:94:44:4e:ed:
         9e:8f:5e:b4:af:e4:ce:91:72:3c:01:ca:12:40:ed:f5:f1:ac:
         22:5a:cd:04:c3:7c:0b:4b:e5:f7:56:13:b1:cf:c9:2f:09:1c:
         09:8e:7c:bb
-----BEGIN CERTIFICATE-----
MIIDWTCCAkGgAwIBAgIQS6IbklXJaiBTk4F0e+3zijANBgkqhkiG9w0BAQsFADAV
MRMwEQYDVQQDDAp0ZWFtNDYtbmV0MB4XDTIyMDUxODE0MTk0MloXDTI1MDUwMjE0
MTk0MlowGDEWMBQGA1UEAwwNdGVhbTQ2LWNsaWVudDCCASIwDQYJKoZIhvcNAQEB
BQADggEPADCCAQoCggEBANgVddhVjwZoaYGjV+vFGqvAE86LeI44yAd1jyfmL/oE
+/F3hmlosglfEZOyxfAXr0Tjakk/hBizvOTj45ivPWzw3ltnPjhRQdxMu2WX3UBc
34OLKEyN2fSvioHUHj/or6OCkx0x9q3lxqruJkjuEa3gJUYMtbIJmPqBtuVceZQ5
Mv5Fo0wM/gg9bu/dui7EBJBb7vamHht9pjlRmX/618jNZg8MqhAofyMVRGFCLazd
QilHZW3567MZ+AyP8SXWRdykKMXvjUOsQduQvL79L9SFdqTnL6H6KTTZhxzH5vTg
4v6rAQ+DckdF/rrgVS+xnqsyUSilgKLjhzSH4RZSU00CAwEAAaOBoTCBnjAJBgNV
HRMEAjAAMB0GA1UdDgQWBBROTyEfN7C9rkwldSaRu4xXph8fajBQBgNVHSMESTBH
gBSmOOMy7ha7w/odogS/ZYmYoGyKf6EZpBcwFTETMBEGA1UEAwwKdGVhbTQ2LW5l
dIIUVsrwPhqsWq3DVv0KZtKkk7NfJS0wEwYDVR0lBAwwCgYIKwYBBQUHAwIwCwYD
VR0PBAQDAgeAMA0GCSqGSIb3DQEBCwUAA4IBAQBV6ZELYvn9vCxUpA15G3keyY85
eUe+nn6RDgvciWl0/pb7GLReZmLDamsJO042+IpUCfKbZim+BSJZWWZx3Km51I+f
SwUkR5GGIiYcCRaABVH9jpgMdej6ABjhhIqpRlMqOjRYH09/CV3Z/SDhqRnucg+G
hFrrYC6qxuxfhvpq9ZamWTn7qDod1l4TT+Gd+8rS/DParFAOkQRaALLOqk8kXkhB
Cw0r6l/QMmq/ZUMN/9zeuQc7XOsO3Zyzt8kqqz56IBO20StCn+7OYRDLXUE7bx7a
7pRETu2ej160r+TOkXI8AcoSQO318awiWs0Ew3wLS+X3VhOxz8kvCRwJjny7
-----END CERTIFICATE-----
