Certificate:
    Data:
        Version: 3 (0x2)
        Serial Number:
            24:62:d2:31:4c:81:0c:dd:40:4e:c5:c9:0c:8c:37:8b
        Signature Algorithm: sha256WithRSAEncryption
        Issuer: CN=team371-net
        Validity
            Not Before: May 18 20:49:51 2022 GMT
            Not After : May  2 20:49:51 2025 GMT
        Subject: CN=team371-server
        Subject Public Key Info:
            Public Key Algorithm: rsaEncryption
                RSA Public-Key: (2048 bit)
                Modulus:
                    00:a1:31:9a:dc:88:d5:b4:a7:ba:86:44:a4:d5:91:
                    fb:52:19:8a:e7:cc:1a:ed:72:11:dd:9d:d7:59:46:
                    84:50:d8:29:5e:73:7b:2a:88:a6:e3:50:8d:e4:52:
                    1d:fa:7f:e2:d8:f1:7b:bf:b5:36:01:2a:aa:16:28:
                    f2:18:56:23:9f:51:22:87:94:59:7d:92:7a:26:cf:
                    85:72:e6:3b:db:51:f6:44:35:19:3d:38:80:b8:b4:
                    cf:40:17:1b:91:a7:e3:4b:74:b3:32:1b:0a:85:49:
                    6e:b7:99:8e:05:9a:3c:01:57:1f:df:09:8e:7a:a2:
                    da:c2:79:63:b5:6e:6f:14:56:1f:53:40:15:a7:63:
                    66:2d:8f:e0:76:26:65:b2:70:ad:54:d1:c3:be:ea:
                    00:67:90:eb:9c:4e:8c:ef:28:00:a9:d2:bd:7d:b9:
                    60:eb:04:9b:e2:5e:ba:63:08:f0:50:81:27:ea:0c:
                    9f:a9:09:de:3b:c7:b8:67:0e:12:a1:30:5e:db:4e:
                    29:a5:a5:85:3d:6b:d2:94:c2:47:ba:1c:5f:b1:0d:
                    8e:6e:67:56:8b:32:78:36:bf:e5:92:a0:0c:36:78:
                    5a:e0:a9:b1:9a:2d:3d:52:d2:38:09:ea:dc:99:50:
                    a1:19:a7:b9:c8:92:ca:ad:5c:29:f2:39:a1:20:51:
                    0c:df
                Exponent: 65537 (0x10001)
        X509v3 extensions:
            X509v3 Basic Constraints: 
                CA:FALSE
            X509v3 Subject Key Identifier: 
                21:6F:3A:0F:1F:0F:A5:40:DF:B5:50:4D:F9:B8:BA:93:2E:95:0B:A9
            X509v3 Authority Key Identifier: 
                keyid:F8:6A:4B:53:C3:06:B5:DC:F4:F5:98:36:19:C3:58:B9:6F:DC:05:B3
                DirName:/CN=team371-net
                serial:66:7B:CD:C4:76:01:EA:30:6E:13:CF:4F:FB:81:A3:D7:AF:2C:E6:34

            X509v3 Extended Key Usage: 
                TLS Web Server Authentication
            X509v3 Key Usage: 
                Digital Signature, Key Encipherment
            X509v3 Subject Alternative Name: 
                DNS:team371-server
    Signature Algorithm: sha256WithRSAEncryption
         af:f9:32:46:5b:95:8b:15:fd:38:c9:99:cf:87:ff:b4:84:ce:
         17:7e:ef:c9:df:f5:88:d4:7d:c4:5a:52:b9:2b:fc:31:1e:8f:
         98:bf:68:d1:83:c1:10:88:25:84:2b:bc:3d:7b:33:a0:d1:b0:
         bc:52:5d:14:25:8b:3d:81:2a:24:89:f7:60:39:63:db:07:fe:
         84:72:50:4d:2b:83:f3:77:21:4f:58:79:89:26:0f:be:44:0e:
         f9:76:a6:2d:e3:65:ac:76:81:e9:9b:0f:b9:44:06:3c:a8:de:
         4f:76:fe:da:53:55:06:11:22:41:6d:1f:77:14:b8:ed:78:20:
         9f:01:16:92:9e:de:e9:2f:5e:a6:24:00:a5:84:ad:c4:d7:2a:
         00:83:3b:d1:6c:ad:51:b9:83:6c:c3:d8:b1:e5:73:e9:4a:51:
         09:d8:f6:1c:17:4e:f5:bd:61:7a:13:f7:a0:a6:a6:de:ad:15:
         9c:f9:c7:28:7e:6b:64:f0:97:f0:ac:0f:c0:1f:b3:75:b1:c4:
         d0:9e:a5:fe:85:c0:c7:6e:70:17:63:22:ff:70:ab:1d:06:9d:
         97:d1:8e:bb:05:9a:57:a3:38:79:89:92:9a:7d:ac:f7:fb:fe:
         6d:db:8e:24:93:74:47:7b:51:de:7e:6e:dc:10:ed:62:97:a6:
         4f:b1:c8:0a
-----BEGIN CERTIFICATE-----
MIIDdzCCAl+gAwIBAgIQJGLSMUyBDN1ATsXJDIw3izANBgkqhkiG9w0BAQsFADAW
MRQwEgYDVQQDDAt0ZWFtMzcxLW5ldDAeFw0yMjA1MTgyMDQ5NTFaFw0yNTA1MDIy
MDQ5NTFaMBkxFzAVBgNVBAMMDnRlYW0zNzEtc2VydmVyMIIBIjANBgkqhkiG9w0B
AQEFAAOCAQ8AMIIBCgKCAQEAoTGa3IjVtKe6hkSk1ZH7UhmK58wa7XIR3Z3XWUaE
UNgpXnN7Koim41CN5FId+n/i2PF7v7U2ASqqFijyGFYjn1Eih5RZfZJ6Js+FcuY7
21H2RDUZPTiAuLTPQBcbkafjS3SzMhsKhUlut5mOBZo8AVcf3wmOeqLawnljtW5v
FFYfU0AVp2NmLY/gdiZlsnCtVNHDvuoAZ5DrnE6M7ygAqdK9fblg6wSb4l66Ywjw
UIEn6gyfqQneO8e4Zw4SoTBe204ppaWFPWvSlMJHuhxfsQ2ObmdWizJ4Nr/lkqAM
Nnha4Kmxmi09UtI4CercmVChGae5yJLKrVwp8jmhIFEM3wIDAQABo4G9MIG6MAkG
A1UdEwQCMAAwHQYDVR0OBBYEFCFvOg8fD6VA37VQTfm4upMulQupMFEGA1UdIwRK
MEiAFPhqS1PDBrXc9PWYNhnDWLlv3AWzoRqkGDAWMRQwEgYDVQQDDAt0ZWFtMzcx
LW5ldIIUZnvNxHYB6jBuE89P+4Gj168s5jQwEwYDVR0lBAwwCgYIKwYBBQUHAwEw
CwYDVR0PBAQDAgWgMBkGA1UdEQQSMBCCDnRlYW0zNzEtc2VydmVyMA0GCSqGSIb3
DQEBCwUAA4IBAQCv+TJGW5WLFf04yZnPh/+0hM4Xfu/J3/WI1H3EWlK5K/wxHo+Y
v2jRg8EQiCWEK7w9ezOg0bC8Ul0UJYs9gSokifdgOWPbB/6EclBNK4PzdyFPWHmJ
Jg++RA75dqYt42WsdoHpmw+5RAY8qN5Pdv7aU1UGESJBbR93FLjteCCfARaSnt7p
L16mJAClhK3E1yoAgzvRbK1RuYNsw9ix5XPpSlEJ2PYcF071vWF6E/egpqberRWc
+ccofmtk8JfwrA/AH7N1scTQnqX+hcDHbnAXYyL/cKsdBp2X0Y67BZpXozh5iZKa
faz3+/5t244kk3RHe1Hefm7cEO1il6ZPscgK
-----END CERTIFICATE-----
