Certificate:
    Data:
        Version: 3 (0x2)
        Serial Number:
            9a:30:1c:d8:d7:94:57:75:40:a2:e6:6f:9d:fb:81:3c
        Signature Algorithm: sha256WithRSAEncryption
        Issuer: CN=team652-net
        Validity
            Not Before: May 18 23:19:26 2022 GMT
            Not After : May  2 23:19:26 2025 GMT
        Subject: CN=team652-client
        Subject Public Key Info:
            Public Key Algorithm: rsaEncryption
                RSA Public-Key: (2048 bit)
                Modulus:
                    00:9b:5b:10:12:af:5e:70:1c:a2:5e:b7:dc:63:52:
                    44:2a:56:b6:6b:1e:6b:d4:aa:47:c3:89:88:d5:bb:
                    5c:8f:ec:c8:1c:d2:c4:d7:ac:5e:9e:e9:e8:75:4e:
                    af:0e:40:3b:d5:fc:5f:62:5f:9b:31:3f:8b:cb:bb:
                    fa:6e:9b:af:84:fb:3d:8d:9b:71:b0:4f:80:bc:b2:
                    9c:fe:82:c9:c3:35:a1:d8:2a:0c:80:aa:09:54:37:
                    92:df:1f:25:84:b6:0a:8d:24:47:d9:2e:9a:e7:12:
                    0c:65:fe:e6:55:ff:bd:d7:c1:fc:82:81:01:e1:63:
                    7f:62:54:ac:ad:4a:56:a5:43:d2:5c:61:25:d6:f5:
                    b3:d3:26:03:6b:ef:c0:77:e2:8a:77:2e:ed:0d:a1:
                    b2:98:46:b0:12:aa:c7:0b:44:20:25:70:30:15:4b:
                    d7:dd:fb:a6:86:3a:a9:9f:0a:cf:3c:22:c8:e6:b2:
                    16:4d:68:5c:14:d8:4d:3b:a1:ea:16:f0:87:4d:00:
                    e4:c0:26:d8:f1:24:bc:35:d7:de:53:ab:f6:1d:ca:
                    b5:26:8f:35:0c:c0:0c:7c:09:41:97:78:d9:d6:da:
                    77:0a:60:ee:ca:1b:04:24:b5:e6:dd:dc:c7:4c:0d:
                    fd:42:79:45:a5:85:7a:ea:01:ff:96:ee:58:d0:75:
                    ae:4d
                Exponent: 65537 (0x10001)
        X509v3 extensions:
            X509v3 Basic Constraints: 
                CA:FALSE
            X509v3 Subject Key Identifier: 
                9E:68:33:04:98:8E:C6:9D:4C:55:BC:B5:C8:42:A1:84:BD:43:B7:A9
            X509v3 Authority Key Identifier: 
                keyid:35:CD:CC:C5:FD:FE:77:48:91:4F:ED:37:DC:A3:4B:21:3F:4C:CA:A1
                DirName:/CN=team652-net
                serial:4E:28:E9:8D:63:07:5E:BC:96:D4:C9:81:A2:DA:80:9C:77:01:EC:8C

            X509v3 Extended Key Usage: 
                TLS Web Client Authentication
            X509v3 Key Usage: 
                Digital Signature
    Signature Algorithm: sha256WithRSAEncryption
         5f:60:a2:0d:59:9c:39:be:9d:9c:c6:cc:0a:3b:22:7d:b6:84:
         51:48:7a:b0:26:3b:fb:f4:8b:6c:67:da:d0:f0:af:db:3b:cf:
         e0:ab:54:65:48:da:db:31:ec:7f:ea:f0:6d:f9:bd:b8:52:d4:
         bc:07:02:98:89:01:66:95:63:18:91:df:a9:93:e5:db:2d:80:
         70:2e:19:ee:93:16:73:ab:89:60:58:19:a1:89:56:59:a2:11:
         3e:87:01:04:fc:fb:8b:50:3b:34:43:77:01:dd:a9:42:7f:3b:
         48:10:b8:5e:5b:f6:e5:4d:8f:86:35:9d:85:10:80:d1:7a:3a:
         90:c2:70:5b:f4:ba:ac:63:94:94:37:fe:50:77:65:b4:01:41:
         ba:4e:88:22:43:87:9b:51:70:10:f0:d3:e9:36:cd:8d:ac:7a:
         80:69:90:dc:8b:1d:44:8e:87:73:94:72:e4:10:bb:0a:61:28:
         3f:b3:00:ae:f9:d0:ad:a7:16:24:0e:c9:48:94:2b:4f:04:ca:
         15:17:50:15:f8:2a:f1:dd:38:0b:30:bc:d5:2c:62:2a:9a:83:
         cf:f2:ed:01:fd:88:b0:4f:66:91:a8:2d:97:c1:b1:77:ae:53:
         6c:4d:d3:f3:ea:d7:49:88:31:06:49:28:5c:ea:a6:76:ed:7c:
         2e:71:99:90
-----BEGIN CERTIFICATE-----
MIIDXTCCAkWgAwIBAgIRAJowHNjXlFd1QKLmb537gTwwDQYJKoZIhvcNAQELBQAw
FjEUMBIGA1UEAwwLdGVhbTY1Mi1uZXQwHhcNMjIwNTE4MjMxOTI2WhcNMjUwNTAy
MjMxOTI2WjAZMRcwFQYDVQQDDA50ZWFtNjUyLWNsaWVudDCCASIwDQYJKoZIhvcN
AQEBBQADggEPADCCAQoCggEBAJtbEBKvXnAcol633GNSRCpWtmsea9SqR8OJiNW7
XI/syBzSxNesXp7p6HVOrw5AO9X8X2JfmzE/i8u7+m6br4T7PY2bcbBPgLyynP6C
ycM1odgqDICqCVQ3kt8fJYS2Co0kR9kumucSDGX+5lX/vdfB/IKBAeFjf2JUrK1K
VqVD0lxhJdb1s9MmA2vvwHfiincu7Q2hsphGsBKqxwtEICVwMBVL1937poY6qZ8K
zzwiyOayFk1oXBTYTTuh6hbwh00A5MAm2PEkvDXX3lOr9h3KtSaPNQzADHwJQZd4
2dbadwpg7sobBCS15t3cx0wN/UJ5RaWFeuoB/5buWNB1rk0CAwEAAaOBojCBnzAJ
BgNVHRMEAjAAMB0GA1UdDgQWBBSeaDMEmI7GnUxVvLXIQqGEvUO3qTBRBgNVHSME
SjBIgBQ1zczF/f53SJFP7Tfco0shP0zKoaEapBgwFjEUMBIGA1UEAwwLdGVhbTY1
Mi1uZXSCFE4o6Y1jB168ltTJgaLagJx3AeyMMBMGA1UdJQQMMAoGCCsGAQUFBwMC
MAsGA1UdDwQEAwIHgDANBgkqhkiG9w0BAQsFAAOCAQEAX2CiDVmcOb6dnMbMCjsi
fbaEUUh6sCY7+/SLbGfa0PCv2zvP4KtUZUja2zHsf+rwbfm9uFLUvAcCmIkBZpVj
GJHfqZPl2y2AcC4Z7pMWc6uJYFgZoYlWWaIRPocBBPz7i1A7NEN3Ad2pQn87SBC4
Xlv25U2PhjWdhRCA0Xo6kMJwW/S6rGOUlDf+UHdltAFBuk6IIkOHm1FwEPDT6TbN
jax6gGmQ3IsdRI6Hc5Ry5BC7CmEoP7MArvnQracWJA7JSJQrTwTKFRdQFfgq8d04
CzC81SxiKpqDz/LtAf2IsE9mkagtl8Gxd65TbE3T8+rXSYgxBkkoXOqmdu18LnGZ
kA==
-----END CERTIFICATE-----
