Certificate:
    Data:
        Version: 3 (0x2)
        Serial Number:
            4e:f0:cd:88:bf:04:78:f4:fa:b5:24:65:45:b9:fc:64
        Signature Algorithm: sha256WithRSAEncryption
        Issuer: CN=team322-net
        Validity
            Not Before: May 18 20:22:23 2022 GMT
            Not After : May  2 20:22:23 2025 GMT
        Subject: CN=team322-server
        Subject Public Key Info:
            Public Key Algorithm: rsaEncryption
                RSA Public-Key: (2048 bit)
                Modulus:
                    00:b0:96:5b:dd:bc:1b:c0:f8:cc:57:ec:bd:c0:65:
                    f5:7b:a4:89:f0:f8:04:b8:23:47:19:d2:1f:50:1a:
                    17:8b:02:75:ba:8f:06:b2:a3:a6:4b:ad:78:04:3c:
                    dd:58:38:5d:06:04:d2:1a:2b:98:b5:b7:1a:84:ff:
                    a3:6b:11:50:1b:93:aa:cd:5f:d4:5f:09:39:0c:c9:
                    14:3e:19:00:65:f3:65:5d:e4:9c:2c:f1:20:e2:4e:
                    bf:b1:0f:59:53:0c:a8:7d:0d:6c:61:b0:f9:22:dd:
                    36:8d:76:4f:9a:d7:30:7c:a4:d0:e7:16:56:ce:5c:
                    aa:51:c7:a9:43:18:5c:df:42:8c:ad:7e:a1:f6:b6:
                    49:05:0a:ac:eb:e3:4a:0e:68:94:7a:80:a4:d6:f3:
                    3e:11:32:95:d9:65:b0:a5:0c:59:a3:95:c8:f2:91:
                    59:1f:b9:5e:56:38:44:38:78:90:a6:95:3a:52:6d:
                    d2:f7:5d:fd:0f:f5:19:bc:57:b2:97:99:67:36:53:
                    d9:eb:6b:76:7b:02:6f:79:2c:e1:07:42:9a:1f:f6:
                    e2:12:b7:a1:63:30:bd:47:ec:80:53:f2:88:2d:0b:
                    75:f5:56:50:a3:9d:db:ca:63:11:a6:1e:20:bf:8c:
                    d1:b4:79:98:4d:89:1d:66:f4:8a:ba:b8:c1:a9:dd:
                    eb:cf
                Exponent: 65537 (0x10001)
        X509v3 extensions:
            X509v3 Basic Constraints: 
                CA:FALSE
            X509v3 Subject Key Identifier: 
                46:6B:BD:F5:B2:C2:28:4D:EB:86:8C:63:C8:73:DD:18:26:EC:13:22
            X509v3 Authority Key Identifier: 
                keyid:1F:69:45:8C:B6:A9:A9:4C:81:9D:74:5C:8F:16:9B:D7:A7:57:7B:D8
                DirName:/CN=team322-net
                serial:76:31:8D:7F:F6:A9:62:B0:50:0F:C0:0F:73:E4:DD:86:E6:3C:D0:31

            X509v3 Extended Key Usage: 
                TLS Web Server Authentication
            X509v3 Key Usage: 
                Digital Signature, Key Encipherment
            X509v3 Subject Alternative Name: 
                DNS:team322-server
    Signature Algorithm: sha256WithRSAEncryption
         6c:e8:f7:20:63:76:8e:f5:dc:2b:25:8c:d6:d0:87:4b:ef:0a:
         6f:93:20:53:f4:61:4f:9a:9c:a4:c0:27:a3:89:3a:46:88:58:
         10:c9:a4:68:3c:a9:2e:c2:0e:47:d6:63:9e:e1:24:2e:56:6e:
         99:d4:ad:d1:8c:54:85:c7:6a:b6:69:ae:68:dd:54:56:6f:f0:
         2b:2e:14:55:ec:1f:73:43:13:0a:8a:35:e3:f9:5b:24:14:36:
         fa:ad:52:e0:50:bc:95:76:0f:ab:aa:54:10:5b:d5:0c:d3:12:
         50:21:74:97:f4:e1:a2:2d:ed:dd:ed:87:97:d8:19:64:61:39:
         dc:68:90:65:cd:49:f5:7d:8e:06:d0:06:c9:5c:90:d4:2f:df:
         df:8d:0c:49:06:13:85:3e:44:10:74:bf:95:93:20:af:0e:51:
         04:d0:07:80:90:2e:94:ae:c9:23:8f:b8:32:4d:4b:1d:f8:e9:
         2c:05:c6:98:49:3e:06:54:1c:5b:f3:49:d8:78:d7:60:cb:e2:
         f3:c0:5f:29:3f:c6:65:1c:61:ad:92:c1:e4:ee:23:d3:e2:84:
         50:b9:39:a7:51:e0:b0:34:ee:8c:f8:1d:ef:fd:c0:12:af:13:
         f2:e5:b7:dc:e7:b0:db:d7:40:d2:17:c5:9f:f1:3c:f5:67:8b:
         c8:7b:7d:f1
-----BEGIN CERTIFICATE-----
MIIDdzCCAl+gAwIBAgIQTvDNiL8EePT6tSRlRbn8ZDANBgkqhkiG9w0BAQsFADAW
MRQwEgYDVQQDDAt0ZWFtMzIyLW5ldDAeFw0yMjA1MTgyMDIyMjNaFw0yNTA1MDIy
MDIyMjNaMBkxFzAVBgNVBAMMDnRlYW0zMjItc2VydmVyMIIBIjANBgkqhkiG9w0B
AQEFAAOCAQ8AMIIBCgKCAQEAsJZb3bwbwPjMV+y9wGX1e6SJ8PgEuCNHGdIfUBoX
iwJ1uo8GsqOmS614BDzdWDhdBgTSGiuYtbcahP+jaxFQG5OqzV/UXwk5DMkUPhkA
ZfNlXeScLPEg4k6/sQ9ZUwyofQ1sYbD5It02jXZPmtcwfKTQ5xZWzlyqUcepQxhc
30KMrX6h9rZJBQqs6+NKDmiUeoCk1vM+ETKV2WWwpQxZo5XI8pFZH7leVjhEOHiQ
ppU6Um3S9139D/UZvFeyl5lnNlPZ62t2ewJveSzhB0KaH/biErehYzC9R+yAU/KI
LQt19VZQo53bymMRph4gv4zRtHmYTYkdZvSKurjBqd3rzwIDAQABo4G9MIG6MAkG
A1UdEwQCMAAwHQYDVR0OBBYEFEZrvfWywihN64aMY8hz3Rgm7BMiMFEGA1UdIwRK
MEiAFB9pRYy2qalMgZ10XI8Wm9enV3vYoRqkGDAWMRQwEgYDVQQDDAt0ZWFtMzIy
LW5ldIIUdjGNf/apYrBQD8APc+TdhuY80DEwEwYDVR0lBAwwCgYIKwYBBQUHAwEw
CwYDVR0PBAQDAgWgMBkGA1UdEQQSMBCCDnRlYW0zMjItc2VydmVyMA0GCSqGSIb3
DQEBCwUAA4IBAQBs6PcgY3aO9dwrJYzW0IdL7wpvkyBT9GFPmpykwCejiTpGiFgQ
yaRoPKkuwg5H1mOe4SQuVm6Z1K3RjFSFx2q2aa5o3VRWb/ArLhRV7B9zQxMKijXj
+VskFDb6rVLgULyVdg+rqlQQW9UM0xJQIXSX9OGiLe3d7YeX2BlkYTncaJBlzUn1
fY4G0AbJXJDUL9/fjQxJBhOFPkQQdL+VkyCvDlEE0AeAkC6Urskjj7gyTUsd+Oks
BcaYST4GVBxb80nYeNdgy+LzwF8pP8ZlHGGtksHk7iPT4oRQuTmnUeCwNO6M+B3v
/cASrxPy5bfc57Db10DSF8Wf8Tz1Z4vIe33x
-----END CERTIFICATE-----
