Certificate:
    Data:
        Version: 3 (0x2)
        Serial Number:
            7d:82:46:f9:ac:35:85:b0:57:16:b6:11:90:98:95:98
        Signature Algorithm: sha256WithRSAEncryption
        Issuer: CN=team29-net
        Validity
            Not Before: May 18 14:07:25 2022 GMT
            Not After : May  2 14:07:25 2025 GMT
        Subject: CN=team29-server
        Subject Public Key Info:
            Public Key Algorithm: rsaEncryption
                RSA Public-Key: (2048 bit)
                Modulus:
                    00:d1:1b:06:6d:95:9c:2a:f0:73:1a:44:54:bb:57:
                    87:2c:0f:fc:72:e5:ea:11:52:51:64:33:ba:79:f5:
                    88:ec:58:40:b1:81:3c:f3:b5:c6:7b:b5:f8:8f:a4:
                    58:78:97:b5:b4:93:21:af:94:8a:33:f5:88:03:6d:
                    72:cf:3f:8b:3a:31:a1:c0:6d:13:dd:eb:d0:4c:e0:
                    39:03:8f:fe:d7:f7:f7:4b:1b:22:2b:0b:73:ed:14:
                    60:08:ef:43:b8:10:8c:6f:ac:af:99:3d:8d:9e:fb:
                    01:84:c8:2d:0c:90:ef:4f:d0:71:6c:29:e7:1c:66:
                    b2:4b:03:07:92:02:ac:f1:88:61:1b:db:c4:6c:ef:
                    25:fc:14:d8:09:65:56:52:5c:1d:fd:b9:7d:42:9b:
                    c1:83:ef:e8:e9:06:8c:a5:7f:06:8f:e3:17:29:62:
                    27:a2:7c:85:9e:0d:00:e9:5a:ba:a0:31:de:de:18:
                    31:fe:c2:69:30:2d:db:97:20:0d:a3:f6:e4:94:40:
                    35:70:bf:9c:b9:76:42:bc:15:89:07:25:bb:ec:e0:
                    b7:72:fb:28:18:99:46:21:da:73:10:40:3f:57:2c:
                    ac:94:aa:88:5d:e7:2c:59:53:c6:f1:d1:dc:74:b3:
                    a9:60:0d:c2:e2:e3:18:5a:b5:85:6e:81:c3:db:a7:
                    0b:c3
                Exponent: 65537 (0x10001)
        X509v3 extensions:
            X509v3 Basic Constraints: 
                CA:FALSE
            X509v3 Subject Key Identifier: 
                98:FE:72:55:D7:D2:09:FB:6B:07:36:4A:A7:C2:34:47:C9:EE:4B:45
            X509v3 Authority Key Identifier: 
                keyid:2E:F2:FC:D9:63:5D:96:07:6A:CF:4B:40:91:AD:A3:5E:22:62:B2:89
                DirName:/CN=team29-net
                serial:57:A8:D0:3F:AB:E1:93:3B:A7:39:A7:66:4C:4D:98:12:49:FA:4D:2F

            X509v3 Extended Key Usage: 
                TLS Web Server Authentication
            X509v3 Key Usage: 
                Digital Signature, Key Encipherment
            X509v3 Subject Alternative Name: 
                DNS:team29-server
    Signature Algorithm: sha256WithRSAEncryption
         85:4c:72:45:b2:3e:7d:ab:d1:84:05:90:ad:5e:02:78:07:e2:
         f5:d3:2e:81:b3:60:95:b4:79:dc:d6:99:83:86:71:98:e8:97:
         c9:5d:18:af:a7:09:85:d7:db:77:0e:6c:37:16:e8:2c:48:2e:
         ac:a4:be:d8:a7:90:c8:2f:e2:72:07:e7:7f:02:97:2e:39:11:
         7e:f9:48:72:07:80:fa:df:70:34:6a:cd:fe:6f:a1:57:e2:e8:
         e1:0e:14:10:9f:ae:1b:4a:7c:bd:f9:2f:ca:02:c2:e0:56:ff:
         8a:98:32:62:69:68:1a:08:3e:c4:61:35:64:69:ab:51:5b:93:
         4e:67:12:22:55:56:e7:4b:3f:33:a4:32:90:d8:27:aa:4e:af:
         c1:d6:18:ad:25:34:0e:59:6e:a3:bc:21:4e:df:c1:7d:03:3d:
         dd:b6:fa:c2:08:65:76:b1:56:e4:7c:a9:ad:c1:e3:8d:a5:9b:
         00:69:51:61:23:84:35:be:24:48:44:b6:51:ad:8b:ec:5d:87:
         33:59:5a:98:45:59:ff:7e:ff:fd:b2:77:5b:13:a0:6d:8a:99:
         ce:0b:04:85:94:b7:81:93:e8:7c:ea:c0:3e:89:fa:8a:8e:d3:
         00:9d:42:a5:e8:c8:5a:ba:0e:f3:ff:a9:29:0c:a5:b7:14:1d:
         a8:44:8f:5a
-----BEGIN CERTIFICATE-----
MIIDczCCAlugAwIBAgIQfYJG+aw1hbBXFrYRkJiVmDANBgkqhkiG9w0BAQsFADAV
MRMwEQYDVQQDDAp0ZWFtMjktbmV0MB4XDTIyMDUxODE0MDcyNVoXDTI1MDUwMjE0
MDcyNVowGDEWMBQGA1UEAwwNdGVhbTI5LXNlcnZlcjCCASIwDQYJKoZIhvcNAQEB
BQADggEPADCCAQoCggEBANEbBm2VnCrwcxpEVLtXhywP/HLl6hFSUWQzunn1iOxY
QLGBPPO1xnu1+I+kWHiXtbSTIa+UijP1iANtcs8/izoxocBtE93r0EzgOQOP/tf3
90sbIisLc+0UYAjvQ7gQjG+sr5k9jZ77AYTILQyQ70/QcWwp5xxmsksDB5ICrPGI
YRvbxGzvJfwU2AllVlJcHf25fUKbwYPv6OkGjKV/Bo/jFyliJ6J8hZ4NAOlauqAx
3t4YMf7CaTAt25cgDaP25JRANXC/nLl2QrwViQclu+zgt3L7KBiZRiHacxBAP1cs
rJSqiF3nLFlTxvHR3HSzqWANwuLjGFq1hW6Bw9unC8MCAwEAAaOBuzCBuDAJBgNV
HRMEAjAAMB0GA1UdDgQWBBSY/nJV19IJ+2sHNkqnwjRHye5LRTBQBgNVHSMESTBH
gBQu8vzZY12WB2rPS0CRraNeImKyiaEZpBcwFTETMBEGA1UEAwwKdGVhbTI5LW5l
dIIUV6jQP6vhkzunOadmTE2YEkn6TS8wEwYDVR0lBAwwCgYIKwYBBQUHAwEwCwYD
VR0PBAQDAgWgMBgGA1UdEQQRMA+CDXRlYW0yOS1zZXJ2ZXIwDQYJKoZIhvcNAQEL
BQADggEBAIVMckWyPn2r0YQFkK1eAngH4vXTLoGzYJW0edzWmYOGcZjol8ldGK+n
CYXX23cObDcW6CxILqykvtinkMgv4nIH538Cly45EX75SHIHgPrfcDRqzf5voVfi
6OEOFBCfrhtKfL35L8oCwuBW/4qYMmJpaBoIPsRhNWRpq1Fbk05nEiJVVudLPzOk
MpDYJ6pOr8HWGK0lNA5ZbqO8IU7fwX0DPd22+sIIZXaxVuR8qa3B442lmwBpUWEj
hDW+JEhEtlGti+xdhzNZWphFWf9+//2yd1sToG2Kmc4LBIWUt4GT6HzqwD6J+oqO
0wCdQqXoyFq6DvP/qSkMpbcUHahEj1o=
-----END CERTIFICATE-----
