Certificate:
    Data:
        Version: 3 (0x2)
        Serial Number:
            c5:53:5f:6b:17:3d:f3:9d:11:8f:2d:6e:05:fd:0f:d8
        Signature Algorithm: sha256WithRSAEncryption
        Issuer: CN=team184-net
        Validity
            Not Before: May 18 18:53:00 2022 GMT
            Not After : May  2 18:53:00 2025 GMT
        Subject: CN=team184-server
        Subject Public Key Info:
            Public Key Algorithm: rsaEncryption
                RSA Public-Key: (2048 bit)
                Modulus:
                    00:b9:8f:ee:92:10:87:1a:db:01:d6:ee:be:a3:f1:
                    15:d4:48:00:5c:85:b4:1b:09:f8:dc:7e:b2:25:59:
                    c6:4c:75:42:46:31:e9:8d:59:4a:25:00:7e:03:a1:
                    9b:fd:9a:b3:71:20:72:23:d6:c5:00:d9:8e:34:17:
                    e7:4b:48:61:08:0e:2b:6c:05:29:c1:03:ac:08:b8:
                    83:ef:35:1c:2c:35:ea:3d:4c:31:cc:4e:39:71:79:
                    5d:bd:7a:5e:96:21:c2:de:f3:e0:35:53:9a:19:3e:
                    67:cf:ba:63:40:d9:95:75:94:a1:61:42:82:38:29:
                    af:c2:a6:a5:a6:45:af:b1:91:50:b4:01:2f:6d:25:
                    20:47:e2:cb:be:93:47:21:15:83:00:d1:ce:98:25:
                    ee:fe:08:8d:c5:5e:11:17:d4:4a:d6:6d:a7:e8:38:
                    54:88:af:25:1c:25:96:14:5c:7f:61:c6:bf:c1:96:
                    25:c7:69:bb:06:02:70:3c:af:a0:71:ba:52:61:56:
                    aa:06:42:3e:7e:27:0d:08:38:45:3d:31:67:95:c8:
                    ea:15:c2:a4:62:9b:5c:47:0c:8e:1d:92:27:4e:11:
                    7a:e2:d0:f3:92:7e:f4:7c:af:73:a7:a6:49:9c:e1:
                    ad:21:e0:11:2d:75:b4:34:3e:d7:23:20:8a:c3:56:
                    cb:8f
                Exponent: 65537 (0x10001)
        X509v3 extensions:
            X509v3 Basic Constraints: 
                CA:FALSE
            X509v3 Subject Key Identifier: 
                C5:A9:40:6C:48:41:7B:2D:04:9E:A0:DD:8F:18:08:2C:10:6B:49:3B
            X509v3 Authority Key Identifier: 
                keyid:B1:C4:C1:E0:5C:93:F7:BC:8D:D2:7C:C2:2D:D5:DA:A2:61:CA:59:AC
                DirName:/CN=team184-net
                serial:5C:A3:59:AD:F8:1F:81:19:8A:BC:CB:CF:4F:27:18:6F:34:BE:3C:ED

            X509v3 Extended Key Usage: 
                TLS Web Server Authentication
            X509v3 Key Usage: 
                Digital Signature, Key Encipherment
            X509v3 Subject Alternative Name: 
                DNS:team184-server
    Signature Algorithm: sha256WithRSAEncryption
         4d:94:01:3e:56:6a:41:fa:8c:fe:56:3b:57:4e:ca:bb:d0:4d:
         61:6a:86:aa:d3:58:d8:7d:6c:58:50:e1:7d:60:f3:62:af:79:
         6a:98:e0:de:33:fc:0b:7f:eb:d9:7f:94:a2:f7:91:c9:7a:0b:
         d4:b5:6e:64:b6:ed:aa:01:3c:bc:34:30:99:c3:80:1e:3e:a2:
         e2:c7:0f:ea:28:c7:fd:42:d9:5c:e0:10:9d:40:15:00:27:0d:
         7c:72:f3:9d:41:5a:e2:d8:60:8a:c3:be:75:b9:73:50:67:34:
         6c:c6:6b:62:9e:7b:16:be:b3:fb:80:40:18:86:00:74:e4:d4:
         ba:2d:f6:5a:6f:01:3f:b0:b4:71:40:5d:66:d7:6d:7d:75:57:
         ac:25:78:bc:d7:ef:2c:f9:94:c8:b6:1e:8b:67:a5:13:1d:a7:
         02:16:c3:18:f5:9b:43:22:a4:d1:de:ed:67:6a:d7:11:e4:5d:
         62:ef:98:95:a0:f8:6c:31:25:9b:45:c3:96:52:33:5c:5a:eb:
         28:09:21:22:89:f5:e3:f7:ca:ff:17:5d:fe:4d:15:5c:23:ff:
         6d:1b:06:8e:34:2e:e0:bd:21:b3:68:69:75:8b:c4:9a:20:b8:
         2c:7c:db:f9:fd:d2:0b:a2:a5:3a:60:5a:8d:ef:46:cc:fa:6e:
         ce:b4:76:8b
-----BEGIN CERTIFICATE-----
MIIDeDCCAmCgAwIBAgIRAMVTX2sXPfOdEY8tbgX9D9gwDQYJKoZIhvcNAQELBQAw
FjEUMBIGA1UEAwwLdGVhbTE4NC1uZXQwHhcNMjIwNTE4MTg1MzAwWhcNMjUwNTAy
MTg1MzAwWjAZMRcwFQYDVQQDDA50ZWFtMTg0LXNlcnZlcjCCASIwDQYJKoZIhvcN
AQEBBQADggEPADCCAQoCggEBALmP7pIQhxrbAdbuvqPxFdRIAFyFtBsJ+Nx+siVZ
xkx1QkYx6Y1ZSiUAfgOhm/2as3EgciPWxQDZjjQX50tIYQgOK2wFKcEDrAi4g+81
HCw16j1MMcxOOXF5Xb16XpYhwt7z4DVTmhk+Z8+6Y0DZlXWUoWFCgjgpr8KmpaZF
r7GRULQBL20lIEfiy76TRyEVgwDRzpgl7v4IjcVeERfUStZtp+g4VIivJRwllhRc
f2HGv8GWJcdpuwYCcDyvoHG6UmFWqgZCPn4nDQg4RT0xZ5XI6hXCpGKbXEcMjh2S
J04ReuLQ85J+9Hyvc6emSZzhrSHgES11tDQ+1yMgisNWy48CAwEAAaOBvTCBujAJ
BgNVHRMEAjAAMB0GA1UdDgQWBBTFqUBsSEF7LQSeoN2PGAgsEGtJOzBRBgNVHSME
SjBIgBSxxMHgXJP3vI3SfMIt1dqiYcpZrKEapBgwFjEUMBIGA1UEAwwLdGVhbTE4
NC1uZXSCFFyjWa34H4EZirzLz08nGG80vjztMBMGA1UdJQQMMAoGCCsGAQUFBwMB
MAsGA1UdDwQEAwIFoDAZBgNVHREEEjAQgg50ZWFtMTg0LXNlcnZlcjANBgkqhkiG
9w0BAQsFAAOCAQEATZQBPlZqQfqM/lY7V07Ku9BNYWqGqtNY2H1sWFDhfWDzYq95
apjg3jP8C3/r2X+UoveRyXoL1LVuZLbtqgE8vDQwmcOAHj6i4scP6ijH/ULZXOAQ
nUAVACcNfHLznUFa4thgisO+dblzUGc0bMZrYp57Fr6z+4BAGIYAdOTUui32Wm8B
P7C0cUBdZtdtfXVXrCV4vNfvLPmUyLYei2elEx2nAhbDGPWbQyKk0d7tZ2rXEeRd
Yu+YlaD4bDElm0XDllIzXFrrKAkhIon14/fK/xdd/k0VXCP/bRsGjjQu4L0hs2hp
dYvEmiC4LHzb+f3SC6KlOmBaje9GzPpuzrR2iw==
-----END CERTIFICATE-----
