Certificate:
    Data:
        Version: 3 (0x2)
        Serial Number:
            50:10:81:db:9a:fd:07:a9:e8:7b:32:38:21:32:ac:c2
        Signature Algorithm: sha256WithRSAEncryption
        Issuer: CN=team687-net
        Validity
            Not Before: May 18 23:26:07 2022 GMT
            Not After : May  2 23:26:07 2025 GMT
        Subject: CN=team687-server
        Subject Public Key Info:
            Public Key Algorithm: rsaEncryption
                RSA Public-Key: (2048 bit)
                Modulus:
                    00:a7:06:0d:91:a8:95:82:47:97:e3:c8:29:89:f4:
                    52:68:43:1c:61:35:42:64:00:e7:3d:4d:00:21:1f:
                    35:c1:f3:a2:b3:7c:2f:f2:74:85:57:c1:4a:60:b4:
                    01:80:61:f0:aa:48:00:47:72:a5:81:f7:bf:12:37:
                    26:8d:d8:c7:01:11:b5:6d:a7:be:70:b4:98:61:73:
                    96:a5:6c:93:19:63:bf:37:06:a8:b4:f4:c4:26:61:
                    de:6b:49:00:bb:31:95:23:c5:04:bf:5f:72:cb:d0:
                    f7:4f:74:25:1e:6d:47:02:6a:4d:87:d6:04:3e:9a:
                    83:3d:5c:9b:c2:7d:a6:71:d4:60:5f:1e:80:4d:ce:
                    95:1c:53:8d:82:e0:fc:02:ee:26:2b:c6:9d:ae:c2:
                    1c:54:36:65:34:ac:08:17:59:f7:7b:df:86:39:77:
                    f5:6e:8e:d5:41:73:2d:cf:71:17:c8:70:0a:74:10:
                    e3:57:aa:d3:c4:0e:e0:eb:05:80:1b:de:da:37:c4:
                    af:bf:f7:12:74:a9:21:19:3f:ca:fb:c6:65:3c:e3:
                    d7:fd:4b:f8:19:e0:47:9d:85:63:7f:9a:41:ea:7d:
                    dc:46:29:80:71:77:b1:fe:9a:09:28:82:a4:23:e0:
                    8e:07:7f:22:99:04:23:13:23:b2:3f:91:b7:bc:83:
                    a3:03
                Exponent: 65537 (0x10001)
        X509v3 extensions:
            X509v3 Basic Constraints: 
                CA:FALSE
            X509v3 Subject Key Identifier: 
                3A:A7:DF:3D:F1:F2:52:8E:DA:CE:BD:3A:7C:CE:A2:A1:1D:3E:D1:2D
            X509v3 Authority Key Identifier: 
                keyid:72:84:C1:71:18:CD:C5:63:48:6B:34:21:C3:57:E9:15:45:B6:9A:70
                DirName:/CN=team687-net
                serial:5C:5B:D0:90:FD:1E:8C:02:84:E0:5F:9D:7C:72:CF:5B:DA:59:DE:3C

            X509v3 Extended Key Usage: 
                TLS Web Server Authentication
            X509v3 Key Usage: 
                Digital Signature, Key Encipherment
            X509v3 Subject Alternative Name: 
                DNS:team687-server
    Signature Algorithm: sha256WithRSAEncryption
         46:84:2c:f3:45:be:21:28:08:0d:d5:74:48:51:dd:7f:15:34:
         ca:6e:ed:3b:b1:a3:00:9c:8b:67:15:31:84:30:02:e7:a8:90:
         ab:ff:50:60:31:f1:eb:f3:5c:c4:a3:92:e5:98:ec:c3:09:21:
         06:30:1b:0f:27:93:0e:df:57:68:3b:e9:a8:fc:e3:23:58:a9:
         8d:96:77:f1:70:94:97:51:9c:d0:96:5d:53:89:c2:30:1f:b2:
         9e:c0:0a:9c:8e:64:a8:a7:13:7a:24:91:e8:c2:d7:dc:fb:5f:
         80:2d:39:36:ba:e0:7c:3c:fc:63:b5:57:6e:a5:7f:56:a2:ed:
         47:24:83:66:1e:69:02:7c:84:67:93:42:74:36:38:d1:8c:4b:
         08:be:59:00:d0:4c:0e:1c:6b:15:bd:a1:dd:dd:47:79:ff:eb:
         bc:a4:ac:a0:88:17:97:2b:0e:ed:e3:f1:fe:73:d3:b0:6f:dd:
         d4:b9:9f:2a:d1:45:0c:5e:14:d3:bc:d8:69:e7:69:fd:53:49:
         5a:b9:c1:cb:7e:50:21:5b:0a:e7:9b:db:7c:88:05:73:9a:04:
         2a:20:01:76:15:26:ad:bd:2e:47:91:ac:4d:1d:3f:40:8f:8e:
         2e:1b:69:36:23:14:6b:79:01:d1:0f:56:f4:30:18:65:48:2b:
         cb:f8:31:b5
-----BEGIN CERTIFICATE-----
MIIDdzCCAl+gAwIBAgIQUBCB25r9B6noezI4ITKswjANBgkqhkiG9w0BAQsFADAW
MRQwEgYDVQQDDAt0ZWFtNjg3LW5ldDAeFw0yMjA1MTgyMzI2MDdaFw0yNTA1MDIy
MzI2MDdaMBkxFzAVBgNVBAMMDnRlYW02ODctc2VydmVyMIIBIjANBgkqhkiG9w0B
AQEFAAOCAQ8AMIIBCgKCAQEApwYNkaiVgkeX48gpifRSaEMcYTVCZADnPU0AIR81
wfOis3wv8nSFV8FKYLQBgGHwqkgAR3Klgfe/EjcmjdjHARG1bae+cLSYYXOWpWyT
GWO/NwaotPTEJmHea0kAuzGVI8UEv19yy9D3T3QlHm1HAmpNh9YEPpqDPVybwn2m
cdRgXx6ATc6VHFONguD8Au4mK8adrsIcVDZlNKwIF1n3e9+GOXf1bo7VQXMtz3EX
yHAKdBDjV6rTxA7g6wWAG97aN8Svv/cSdKkhGT/K+8ZlPOPX/Uv4GeBHnYVjf5pB
6n3cRimAcXex/poJKIKkI+COB38imQQjEyOyP5G3vIOjAwIDAQABo4G9MIG6MAkG
A1UdEwQCMAAwHQYDVR0OBBYEFDqn3z3x8lKO2s69OnzOoqEdPtEtMFEGA1UdIwRK
MEiAFHKEwXEYzcVjSGs0IcNX6RVFtppwoRqkGDAWMRQwEgYDVQQDDAt0ZWFtNjg3
LW5ldIIUXFvQkP0ejAKE4F+dfHLPW9pZ3jwwEwYDVR0lBAwwCgYIKwYBBQUHAwEw
CwYDVR0PBAQDAgWgMBkGA1UdEQQSMBCCDnRlYW02ODctc2VydmVyMA0GCSqGSIb3
DQEBCwUAA4IBAQBGhCzzRb4hKAgN1XRIUd1/FTTKbu07saMAnItnFTGEMALnqJCr
/1BgMfHr81zEo5LlmOzDCSEGMBsPJ5MO31doO+mo/OMjWKmNlnfxcJSXUZzQll1T
icIwH7KewAqcjmSopxN6JJHowtfc+1+ALTk2uuB8PPxjtVdupX9Wou1HJINmHmkC
fIRnk0J0NjjRjEsIvlkA0EwOHGsVvaHd3Ud5/+u8pKygiBeXKw7t4/H+c9Owb93U
uZ8q0UUMXhTTvNhp52n9U0laucHLflAhWwrnm9t8iAVzmgQqIAF2FSatvS5HkaxN
HT9Aj44uG2k2IxRreQHRD1b0MBhlSCvL+DG1
-----END CERTIFICATE-----
