Certificate:
    Data:
        Version: 3 (0x2)
        Serial Number:
            8e:0d:a6:45:b5:c0:de:37:09:82:cf:48:0f:32:58:12
        Signature Algorithm: sha256WithRSAEncryption
        Issuer: CN=team63-net
        Validity
            Not Before: May 18 14:26:44 2022 GMT
            Not After : May  2 14:26:44 2025 GMT
        Subject: CN=team63-client
        Subject Public Key Info:
            Public Key Algorithm: rsaEncryption
                RSA Public-Key: (2048 bit)
                Modulus:
                    00:ec:31:e1:11:55:74:a5:72:da:17:28:9b:a8:b1:
                    04:52:93:da:ed:f5:bc:76:ba:65:97:c3:a2:ed:56:
                    55:75:de:7c:d1:d9:01:78:1f:7d:99:55:80:24:f9:
                    88:7e:97:86:3e:19:a5:8b:ce:09:77:94:3c:49:f9:
                    44:3c:d2:1f:98:2a:1d:02:fd:55:e1:b8:68:05:17:
                    f0:04:97:5a:5f:b8:7d:25:34:41:71:69:89:86:10:
                    77:4d:b0:28:cf:ae:18:35:55:d1:a5:55:16:fb:68:
                    0a:be:11:ce:11:9e:5a:8a:f3:5a:9a:0d:4d:35:08:
                    d6:48:19:dc:33:7a:7d:c8:50:c3:4c:c2:19:5d:f6:
                    47:51:0e:05:6f:76:40:d8:e8:ac:49:72:0d:2d:6b:
                    b4:59:1f:7d:9d:51:a6:80:cd:a8:88:1e:51:d0:0a:
                    5d:42:54:fd:ae:e8:71:b4:5d:04:77:ea:76:b7:26:
                    69:d7:61:8f:62:d1:6b:45:37:50:6a:88:2e:e8:4a:
                    8e:a0:40:77:31:30:d9:d2:39:2a:4a:e3:45:33:10:
                    60:9a:fa:ba:81:68:48:6f:5a:dc:d9:8f:12:cd:fe:
                    32:03:6e:7b:f9:27:65:6d:36:9e:bb:53:6d:32:a7:
                    4c:4c:ec:d6:ab:15:e7:3e:e9:9b:95:09:d9:a0:15:
                    53:e5
                Exponent: 65537 (0x10001)
        X509v3 extensions:
            X509v3 Basic Constraints: 
                CA:FALSE
            X509v3 Subject Key Identifier: 
                BB:B8:FA:B6:DF:8C:4E:AC:3C:8E:57:AD:B7:E4:16:3A:D9:74:0A:27
            X509v3 Authority Key Identifier: 
                keyid:B7:96:21:B4:A3:A5:17:7B:8C:9D:F1:F5:0B:4F:DF:22:58:0E:E0:98
                DirName:/CN=team63-net
                serial:15:69:37:DC:CF:0E:1B:67:3B:65:26:BC:04:A4:6E:1C:ED:08:1C:3E

            X509v3 Extended Key Usage: 
                TLS Web Client Authentication
            X509v3 Key Usage: 
                Digital Signature
    Signature Algorithm: sha256WithRSAEncryption
         b4:28:96:ff:9b:6e:3b:7b:8c:4f:92:bf:4f:78:08:96:f5:1d:
         9e:0c:57:43:91:fc:b4:1d:9c:4d:3a:c8:20:fd:e0:8a:a9:e3:
         63:98:ad:77:93:80:13:89:88:4c:1b:c8:3d:f7:da:47:58:58:
         96:48:ec:e3:ee:fa:d9:1e:ab:fa:d2:76:19:d2:e1:eb:ca:54:
         8e:62:08:34:7c:00:f6:e4:75:bc:05:46:44:5d:d7:11:bc:fb:
         be:ad:03:f1:ec:f0:ae:70:80:ed:d5:7f:33:88:ab:92:53:0a:
         f4:87:60:52:84:e5:5e:f7:21:c4:ce:98:76:b5:39:fc:1b:7a:
         89:44:2e:a8:c5:0a:bb:c9:2a:83:c3:40:96:c1:7d:95:97:73:
         97:81:2b:a6:92:41:9c:1c:bb:53:6a:06:53:bc:18:5a:78:be:
         08:cf:10:f8:17:d8:e1:d2:dd:f1:d9:a1:35:57:33:b9:44:aa:
         cd:6c:c3:b7:7c:7e:ed:42:18:71:44:9b:72:3b:06:7c:6f:59:
         6e:d5:ad:22:33:d7:1e:ee:b0:cd:78:0c:b5:19:e0:0d:4d:98:
         55:d9:1d:96:4a:54:34:e0:a1:f9:70:c5:30:82:7b:05:64:fd:
         4e:86:af:15:f0:f4:cd:e7:99:7d:28:bb:f2:1e:37:9b:1d:dd:
         87:e1:97:67
-----BEGIN CERTIFICATE-----
MIIDWjCCAkKgAwIBAgIRAI4NpkW1wN43CYLPSA8yWBIwDQYJKoZIhvcNAQELBQAw
FTETMBEGA1UEAwwKdGVhbTYzLW5ldDAeFw0yMjA1MTgxNDI2NDRaFw0yNTA1MDIx
NDI2NDRaMBgxFjAUBgNVBAMMDXRlYW02My1jbGllbnQwggEiMA0GCSqGSIb3DQEB
AQUAA4IBDwAwggEKAoIBAQDsMeERVXSlctoXKJuosQRSk9rt9bx2umWXw6LtVlV1
3nzR2QF4H32ZVYAk+Yh+l4Y+GaWLzgl3lDxJ+UQ80h+YKh0C/VXhuGgFF/AEl1pf
uH0lNEFxaYmGEHdNsCjPrhg1VdGlVRb7aAq+Ec4RnlqK81qaDU01CNZIGdwzen3I
UMNMwhld9kdRDgVvdkDY6KxJcg0ta7RZH32dUaaAzaiIHlHQCl1CVP2u6HG0XQR3
6na3JmnXYY9i0WtFN1BqiC7oSo6gQHcxMNnSOSpK40UzEGCa+rqBaEhvWtzZjxLN
/jIDbnv5J2VtNp67U20yp0xM7NarFec+6ZuVCdmgFVPlAgMBAAGjgaEwgZ4wCQYD
VR0TBAIwADAdBgNVHQ4EFgQUu7j6tt+MTqw8jlett+QWOtl0CicwUAYDVR0jBEkw
R4AUt5YhtKOlF3uMnfH1C0/fIlgO4JihGaQXMBUxEzARBgNVBAMMCnRlYW02My1u
ZXSCFBVpN9zPDhtnO2UmvASkbhztCBw+MBMGA1UdJQQMMAoGCCsGAQUFBwMCMAsG
A1UdDwQEAwIHgDANBgkqhkiG9w0BAQsFAAOCAQEAtCiW/5tuO3uMT5K/T3gIlvUd
ngxXQ5H8tB2cTTrIIP3giqnjY5itd5OAE4mITBvIPffaR1hYlkjs4+762R6r+tJ2
GdLh68pUjmIINHwA9uR1vAVGRF3XEbz7vq0D8ezwrnCA7dV/M4irklMK9IdgUoTl
XvchxM6YdrU5/Bt6iUQuqMUKu8kqg8NAlsF9lZdzl4ErppJBnBy7U2oGU7wYWni+
CM8Q+BfY4dLd8dmhNVczuUSqzWzDt3x+7UIYcUSbcjsGfG9ZbtWtIjPXHu6wzXgM
tRngDU2YVdkdlkpUNOCh+XDFMIJ7BWT9ToavFfD0zeeZfSi78h43mx3dh+GXZw==
-----END CERTIFICATE-----
