Certificate:
    Data:
        Version: 3 (0x2)
        Serial Number:
            48:ec:d6:aa:76:e0:8c:bd:f4:c5:6c:1e:a8:42:6f:71
        Signature Algorithm: sha256WithRSAEncryption
        Issuer: CN=team629-net
        Validity
            Not Before: May 18 22:53:47 2022 GMT
            Not After : May  2 22:53:47 2025 GMT
        Subject: CN=team629-client
        Subject Public Key Info:
            Public Key Algorithm: rsaEncryption
                RSA Public-Key: (2048 bit)
                Modulus:
                    00:c0:4e:eb:3b:41:9b:d0:8b:ac:75:6f:e6:ef:87:
                    86:a4:3f:ac:fb:58:e3:d1:03:09:09:8a:5d:b5:ca:
                    0f:3a:af:31:2c:92:c2:80:07:43:98:fe:5e:a2:43:
                    b5:6e:25:de:b9:68:7b:d7:3b:7a:d0:3c:d9:44:df:
                    57:15:f7:bb:cc:85:1d:c4:52:f4:8d:65:49:41:59:
                    ff:f3:e5:17:05:10:1c:a1:99:5f:d7:72:17:d6:00:
                    b0:64:b2:14:0d:10:00:3c:f4:de:7a:f7:4c:9c:c0:
                    7a:00:a8:1e:43:bd:d6:5d:f9:4a:9a:cc:b5:31:58:
                    06:26:34:a7:97:9e:c2:ff:05:76:8b:7c:07:c4:a5:
                    e4:18:9d:a9:d7:8c:fc:31:73:b6:06:1d:47:66:e6:
                    b3:cd:5c:ea:74:b1:85:bb:e1:f0:56:6b:e8:82:39:
                    49:62:2e:62:6a:3c:e1:14:b6:da:ae:19:66:e5:38:
                    9b:1c:09:87:cb:f0:c7:1d:24:d4:bb:a9:4e:f7:64:
                    6c:df:2e:fa:e9:cf:da:27:18:f9:57:96:bc:23:cf:
                    10:11:2b:a3:bc:c3:9b:3b:f5:5f:90:c8:fe:b2:e4:
                    d6:57:28:35:b6:88:88:e4:55:71:79:38:32:73:36:
                    c4:bb:3a:0e:70:f6:25:5a:91:ec:f8:a2:3f:6a:3a:
                    93:b9
                Exponent: 65537 (0x10001)
        X509v3 extensions:
            X509v3 Basic Constraints: 
                CA:FALSE
            X509v3 Subject Key Identifier: 
                24:45:AB:05:07:14:B9:EC:DA:1A:59:36:7F:10:2C:97:44:73:E1:52
            X509v3 Authority Key Identifier: 
                keyid:EC:1C:96:59:84:CA:6E:31:01:6C:5A:01:1E:F7:38:F1:91:FF:50:E9
                DirName:/CN=team629-net
                serial:1D:08:06:76:21:3F:95:F1:BC:5C:7B:99:A4:76:33:5E:2F:82:E0:79

            X509v3 Extended Key Usage: 
                TLS Web Client Authentication
            X509v3 Key Usage: 
                Digital Signature
    Signature Algorithm: sha256WithRSAEncryption
         9d:f6:9b:91:cf:4a:17:40:90:06:f1:fd:c9:a2:1b:6f:2e:2d:
         1d:7a:5f:d5:c5:a7:81:fe:5d:33:76:d7:8c:4c:2c:1d:35:44:
         cf:78:f4:47:e0:cd:9f:c9:36:b3:2c:4f:e1:36:db:e5:4f:2a:
         85:d8:2d:3b:0b:99:ce:23:9d:20:08:c4:25:6c:a3:ba:ab:e1:
         37:b4:f9:c8:7d:ab:50:69:d9:b2:00:23:a7:fd:c1:40:90:3f:
         c4:80:d2:e0:8d:57:c5:07:63:9e:33:32:71:ed:d4:18:ef:c1:
         cc:2d:44:7c:52:19:11:f3:61:16:0e:85:a1:d6:a3:4d:16:d7:
         5f:59:05:d5:7c:7a:79:30:fb:18:de:d4:f0:02:39:d5:f3:98:
         1d:7b:cb:bb:1a:d4:8f:36:e2:f0:90:1e:ab:28:e8:ad:ee:90:
         c1:37:2e:60:84:7c:25:64:93:74:ef:78:3f:d3:cd:9f:56:1e:
         c7:51:41:36:2e:52:66:a3:70:3d:4f:66:4d:7e:5d:c7:ac:f4:
         df:4d:d3:fd:a6:04:22:8c:d5:2e:6e:53:84:d5:c5:74:02:04:
         1f:c7:ba:75:71:4c:26:5f:7f:b2:48:18:b2:0c:5d:72:c7:74:
         bc:77:d1:28:54:90:d1:c7:a4:4e:e1:5f:67:58:0b:a4:09:61:
         05:0d:57:ff
-----BEGIN CERTIFICATE-----
MIIDXDCCAkSgAwIBAgIQSOzWqnbgjL30xWweqEJvcTANBgkqhkiG9w0BAQsFADAW
MRQwEgYDVQQDDAt0ZWFtNjI5LW5ldDAeFw0yMjA1MTgyMjUzNDdaFw0yNTA1MDIy
MjUzNDdaMBkxFzAVBgNVBAMMDnRlYW02MjktY2xpZW50MIIBIjANBgkqhkiG9w0B
AQEFAAOCAQ8AMIIBCgKCAQEAwE7rO0Gb0IusdW/m74eGpD+s+1jj0QMJCYpdtcoP
Oq8xLJLCgAdDmP5eokO1biXeuWh71zt60DzZRN9XFfe7zIUdxFL0jWVJQVn/8+UX
BRAcoZlf13IX1gCwZLIUDRAAPPTeevdMnMB6AKgeQ73WXflKmsy1MVgGJjSnl57C
/wV2i3wHxKXkGJ2p14z8MXO2Bh1HZuazzVzqdLGFu+HwVmvogjlJYi5iajzhFLba
rhlm5TibHAmHy/DHHSTUu6lO92Rs3y766c/aJxj5V5a8I88QESujvMObO/VfkMj+
suTWVyg1toiI5FVxeTgyczbEuzoOcPYlWpHs+KI/ajqTuQIDAQABo4GiMIGfMAkG
A1UdEwQCMAAwHQYDVR0OBBYEFCRFqwUHFLns2hpZNn8QLJdEc+FSMFEGA1UdIwRK
MEiAFOwcllmEym4xAWxaAR73OPGR/1DpoRqkGDAWMRQwEgYDVQQDDAt0ZWFtNjI5
LW5ldIIUHQgGdiE/lfG8XHuZpHYzXi+C4HkwEwYDVR0lBAwwCgYIKwYBBQUHAwIw
CwYDVR0PBAQDAgeAMA0GCSqGSIb3DQEBCwUAA4IBAQCd9puRz0oXQJAG8f3Johtv
Li0del/VxaeB/l0zdteMTCwdNUTPePRH4M2fyTazLE/hNtvlTyqF2C07C5nOI50g
CMQlbKO6q+E3tPnIfatQadmyACOn/cFAkD/EgNLgjVfFB2OeMzJx7dQY78HMLUR8
UhkR82EWDoWh1qNNFtdfWQXVfHp5MPsY3tTwAjnV85gde8u7GtSPNuLwkB6rKOit
7pDBNy5ghHwlZJN073g/082fVh7HUUE2LlJmo3A9T2ZNfl3HrPTfTdP9pgQijNUu
blOE1cV0AgQfx7p1cUwmX3+ySBiyDF1yx3S8d9EoVJDRx6RO4V9nWAukCWEFDVf/
-----END CERTIFICATE-----
