Certificate:
    Data:
        Version: 3 (0x2)
        Serial Number:
            d9:be:ce:ce:9e:3a:2a:41:8e:00:19:0c:3a:08:82:21
        Signature Algorithm: sha256WithRSAEncryption
        Issuer: CN=team514-net
        Validity
            Not Before: May 18 21:52:49 2022 GMT
            Not After : May  2 21:52:49 2025 GMT
        Subject: CN=team514-server
        Subject Public Key Info:
            Public Key Algorithm: rsaEncryption
                RSA Public-Key: (2048 bit)
                Modulus:
                    00:b3:42:3d:c7:c6:38:e0:7e:25:0d:48:81:29:95:
                    ed:65:77:46:4d:5e:30:9e:81:7f:25:75:6f:e6:cc:
                    8d:8c:7a:ba:aa:7d:72:20:f3:33:76:c9:c8:bd:54:
                    ac:99:21:50:41:b7:52:31:7f:e1:dd:db:f2:fa:06:
                    92:e1:a1:62:42:29:67:35:c2:59:3f:1b:7e:a6:ab:
                    f7:ba:3f:30:ee:08:00:96:64:4f:4a:8f:3e:35:d6:
                    52:70:bf:88:5d:b5:74:fe:18:b6:de:cd:d3:d5:1f:
                    c9:a1:6a:d1:90:3c:63:7e:c2:63:c5:05:00:30:17:
                    10:77:6d:da:19:19:17:1c:44:75:6a:89:67:4f:73:
                    45:d4:c8:18:b7:c3:ae:a9:9e:f5:b1:09:1b:48:9f:
                    a5:b6:1c:29:7e:d8:c7:36:f9:79:98:be:aa:1b:1b:
                    66:8f:19:e8:25:48:5c:de:d0:37:4f:38:8a:22:63:
                    61:56:f0:f3:bf:68:79:a7:77:6e:49:f9:3d:b5:fa:
                    c9:54:1c:7e:7f:2e:5e:5c:0e:21:1f:e2:f9:e8:78:
                    9d:10:82:cf:41:15:de:e0:77:44:dd:5b:f1:e4:2d:
                    3f:d8:2d:d3:52:59:36:29:83:7c:bc:a2:48:c0:40:
                    2e:ed:63:29:82:bb:91:4c:7d:b8:2a:f2:de:d5:27:
                    ac:8d
                Exponent: 65537 (0x10001)
        X509v3 extensions:
            X509v3 Basic Constraints: 
                CA:FALSE
            X509v3 Subject Key Identifier: 
                6D:79:65:B6:9A:25:11:C9:27:11:68:60:A7:10:E8:42:4A:5B:4D:E5
            X509v3 Authority Key Identifier: 
                keyid:8D:1C:14:C1:94:8D:62:A0:2C:63:01:6B:30:BB:56:D1:5F:AF:FE:82
                DirName:/CN=team514-net
                serial:14:96:44:A1:DD:A9:EF:F5:00:8D:89:5D:A6:AF:BD:F7:15:E4:E2:83

            X509v3 Extended Key Usage: 
                TLS Web Server Authentication
            X509v3 Key Usage: 
                Digital Signature, Key Encipherment
            X509v3 Subject Alternative Name: 
                DNS:team514-server
    Signature Algorithm: sha256WithRSAEncryption
         a7:9c:54:a2:75:02:77:b1:f7:23:60:38:a5:4d:d3:e1:1b:92:
         82:dd:a0:01:a0:f8:c2:46:a8:00:46:f6:a3:70:bd:d3:f7:69:
         23:70:79:34:c3:c2:86:67:05:59:bf:28:74:5a:03:16:e8:64:
         6a:30:9f:7a:b7:7a:9d:4d:cc:71:aa:2e:86:4d:a0:1a:03:a2:
         f5:f3:ce:54:a2:3d:c0:b5:72:23:c1:ce:7d:6a:35:c6:41:fa:
         67:b1:34:08:4e:fc:a5:69:4e:92:70:f0:bb:84:70:e2:d7:2a:
         bb:2f:16:e4:05:fd:31:4d:90:0c:b5:51:10:c0:78:4a:02:ed:
         0f:48:2d:83:69:7d:8f:04:af:c8:ff:d4:9e:4c:b5:ff:a8:da:
         ce:cf:aa:b5:c7:e0:23:f2:ef:e5:96:f7:ec:89:9f:7a:cb:cb:
         f0:27:d6:2c:7c:90:d8:13:94:f2:14:7f:7c:7b:cd:72:7b:e9:
         86:dc:d0:c1:6a:79:e0:8e:71:40:29:ad:ed:e3:30:cf:0a:3e:
         dd:f9:c7:c7:bb:59:f3:8e:f0:ae:37:8f:ff:79:f1:11:59:fb:
         a7:0c:2b:c5:e7:6d:88:ee:2a:88:0d:e0:ef:52:21:74:5a:ec:
         f0:06:f3:3b:8d:99:ba:16:eb:34:7f:20:56:22:ce:f3:02:19:
         57:54:22:fc
-----BEGIN CERTIFICATE-----
MIIDeDCCAmCgAwIBAgIRANm+zs6eOipBjgAZDDoIgiEwDQYJKoZIhvcNAQELBQAw
FjEUMBIGA1UEAwwLdGVhbTUxNC1uZXQwHhcNMjIwNTE4MjE1MjQ5WhcNMjUwNTAy
MjE1MjQ5WjAZMRcwFQYDVQQDDA50ZWFtNTE0LXNlcnZlcjCCASIwDQYJKoZIhvcN
AQEBBQADggEPADCCAQoCggEBALNCPcfGOOB+JQ1IgSmV7WV3Rk1eMJ6BfyV1b+bM
jYx6uqp9ciDzM3bJyL1UrJkhUEG3UjF/4d3b8voGkuGhYkIpZzXCWT8bfqar97o/
MO4IAJZkT0qPPjXWUnC/iF21dP4Ytt7N09UfyaFq0ZA8Y37CY8UFADAXEHdt2hkZ
FxxEdWqJZ09zRdTIGLfDrqme9bEJG0ifpbYcKX7Yxzb5eZi+qhsbZo8Z6CVIXN7Q
N084iiJjYVbw879oead3bkn5PbX6yVQcfn8uXlwOIR/i+eh4nRCCz0EV3uB3RN1b
8eQtP9gt01JZNimDfLyiSMBALu1jKYK7kUx9uCry3tUnrI0CAwEAAaOBvTCBujAJ
BgNVHRMEAjAAMB0GA1UdDgQWBBRteWW2miURyScRaGCnEOhCSltN5TBRBgNVHSME
SjBIgBSNHBTBlI1ioCxjAWswu1bRX6/+gqEapBgwFjEUMBIGA1UEAwwLdGVhbTUx
NC1uZXSCFBSWRKHdqe/1AI2JXaavvfcV5OKDMBMGA1UdJQQMMAoGCCsGAQUFBwMB
MAsGA1UdDwQEAwIFoDAZBgNVHREEEjAQgg50ZWFtNTE0LXNlcnZlcjANBgkqhkiG
9w0BAQsFAAOCAQEAp5xUonUCd7H3I2A4pU3T4RuSgt2gAaD4wkaoAEb2o3C90/dp
I3B5NMPChmcFWb8odFoDFuhkajCferd6nU3Mcaouhk2gGgOi9fPOVKI9wLVyI8HO
fWo1xkH6Z7E0CE78pWlOknDwu4Rw4tcquy8W5AX9MU2QDLVREMB4SgLtD0gtg2l9
jwSvyP/Unky1/6jazs+qtcfgI/Lv5Zb37ImfesvL8CfWLHyQ2BOU8hR/fHvNcnvp
htzQwWp54I5xQCmt7eMwzwo+3fnHx7tZ847wrjeP/3nxEVn7pwwrxedtiO4qiA3g
71IhdFrs8AbzO42ZuhbrNH8gViLO8wIZV1Qi/A==
-----END CERTIFICATE-----
