Certificate:
    Data:
        Version: 3 (0x2)
        Serial Number:
            f5:c7:17:94:ed:e1:7a:d1:6b:29:1e:36:f9:b9:77:ba
        Signature Algorithm: sha256WithRSAEncryption
        Issuer: CN=team76-net
        Validity
            Not Before: May 18 14:35:01 2022 GMT
            Not After : May  2 14:35:01 2025 GMT
        Subject: CN=team76-server
        Subject Public Key Info:
            Public Key Algorithm: rsaEncryption
                RSA Public-Key: (2048 bit)
                Modulus:
                    00:a0:27:d5:3d:18:ee:bc:ac:e2:86:fd:4c:72:6d:
                    99:3d:41:6a:a2:5d:da:16:d6:56:42:98:7f:74:0c:
                    f8:1c:e7:ad:db:83:45:5f:52:78:a3:ed:89:ea:e7:
                    3b:0a:2f:d4:12:4c:ce:78:b8:73:b9:73:11:3d:89:
                    5a:e1:5f:73:66:35:8c:06:f4:59:25:cc:85:64:7b:
                    84:b5:11:71:5c:f1:43:e5:84:41:ea:87:00:b0:06:
                    27:90:f1:aa:4a:3f:be:0c:ea:4c:a1:57:81:40:53:
                    65:53:c4:a9:a0:eb:3e:90:bd:b7:3d:0f:37:06:a6:
                    4d:f4:7c:46:d4:6b:0f:26:5e:b9:ed:dc:46:67:b7:
                    ea:a7:2c:1a:d6:d4:50:6e:c5:9c:3c:39:8d:a7:46:
                    4b:58:51:15:ea:43:26:ce:42:8d:d1:b9:89:04:6c:
                    13:bd:45:d9:34:b6:d7:34:3a:24:ec:8a:46:c2:d8:
                    df:dc:19:dd:2c:2a:19:58:da:42:b1:c2:f7:fa:7a:
                    4a:38:32:c5:b5:be:43:fd:8c:35:ff:0f:00:6c:13:
                    e4:ae:ea:62:fc:62:13:6a:53:bb:4d:a0:ca:a0:3e:
                    65:ad:40:36:2b:d6:b7:1e:fa:99:35:17:5d:37:60:
                    55:dc:d2:f9:02:5f:7c:8a:f7:1e:70:61:51:21:38:
                    88:b1
                Exponent: 65537 (0x10001)
        X509v3 extensions:
            X509v3 Basic Constraints: 
                CA:FALSE
            X509v3 Subject Key Identifier: 
                85:D8:E8:E6:9E:15:2E:AA:FC:CA:02:82:62:86:5A:37:8E:AC:15:28
            X509v3 Authority Key Identifier: 
                keyid:C4:89:D8:D5:03:3E:E3:47:A5:42:CA:79:CD:72:D1:D4:FF:93:4E:6E
                DirName:/CN=team76-net
                serial:57:9C:4F:E7:EE:42:AD:D6:4E:8D:0A:3E:49:CC:EC:44:94:BF:8B:2E

            X509v3 Extended Key Usage: 
                TLS Web Server Authentication
            X509v3 Key Usage: 
                Digital Signature, Key Encipherment
            X509v3 Subject Alternative Name: 
                DNS:team76-server
    Signature Algorithm: sha256WithRSAEncryption
         6d:b4:ad:9c:fc:64:e4:2b:4f:44:f7:5e:fc:38:66:4b:33:55:
         45:88:58:ce:98:63:d8:84:db:7f:ad:fb:ca:6b:d1:81:2d:4a:
         30:cd:01:81:82:b0:96:54:de:cc:35:3f:ac:a5:b1:4d:58:ca:
         6d:2d:b3:d9:21:f6:6f:90:0e:73:c6:22:8e:52:ce:2f:48:ab:
         04:e1:71:47:d9:cf:93:fd:51:1f:15:33:53:99:e5:75:ae:c3:
         4b:ae:38:31:33:f7:6a:f6:a5:ca:57:9b:fe:f9:9a:b0:65:21:
         3b:57:4b:89:cc:f9:5a:56:41:a2:a2:cb:fc:8a:af:5e:09:92:
         17:19:7b:74:4a:ea:f6:4b:86:87:35:2a:81:c6:bb:ee:8a:03:
         2d:13:5a:bc:3f:f5:7d:87:f2:20:e2:13:f1:66:4a:ed:2e:9b:
         21:85:4f:7d:ed:49:a1:90:f5:9a:7b:7d:81:9c:f8:4e:6c:f1:
         d9:71:e6:85:3b:2a:3a:65:39:9b:03:1c:96:b5:a3:82:17:55:
         31:46:95:9e:09:7a:95:2a:00:2a:52:0d:2a:4f:99:26:03:d6:
         29:53:4c:8e:fd:85:b4:34:65:79:f0:12:40:c1:3c:0b:8c:56:
         ad:22:2a:fc:6d:27:e6:7e:86:40:44:c1:ca:fa:47:bc:37:fe:
         52:f2:2d:18
-----BEGIN CERTIFICATE-----
MIIDdDCCAlygAwIBAgIRAPXHF5Tt4XrRaykeNvm5d7owDQYJKoZIhvcNAQELBQAw
FTETMBEGA1UEAwwKdGVhbTc2LW5ldDAeFw0yMjA1MTgxNDM1MDFaFw0yNTA1MDIx
NDM1MDFaMBgxFjAUBgNVBAMMDXRlYW03Ni1zZXJ2ZXIwggEiMA0GCSqGSIb3DQEB
AQUAA4IBDwAwggEKAoIBAQCgJ9U9GO68rOKG/UxybZk9QWqiXdoW1lZCmH90DPgc
563bg0VfUnij7Ynq5zsKL9QSTM54uHO5cxE9iVrhX3NmNYwG9FklzIVke4S1EXFc
8UPlhEHqhwCwBieQ8apKP74M6kyhV4FAU2VTxKmg6z6Qvbc9DzcGpk30fEbUaw8m
Xrnt3EZnt+qnLBrW1FBuxZw8OY2nRktYURXqQybOQo3RuYkEbBO9Rdk0ttc0OiTs
ikbC2N/cGd0sKhlY2kKxwvf6eko4MsW1vkP9jDX/DwBsE+Su6mL8YhNqU7tNoMqg
PmWtQDYr1rce+pk1F103YFXc0vkCX3yK9x5wYVEhOIixAgMBAAGjgbswgbgwCQYD
VR0TBAIwADAdBgNVHQ4EFgQUhdjo5p4VLqr8ygKCYoZaN46sFSgwUAYDVR0jBEkw
R4AUxInY1QM+40elQsp5zXLR1P+TTm6hGaQXMBUxEzARBgNVBAMMCnRlYW03Ni1u
ZXSCFFecT+fuQq3WTo0KPknM7ESUv4suMBMGA1UdJQQMMAoGCCsGAQUFBwMBMAsG
A1UdDwQEAwIFoDAYBgNVHREEETAPgg10ZWFtNzYtc2VydmVyMA0GCSqGSIb3DQEB
CwUAA4IBAQBttK2c/GTkK09E9178OGZLM1VFiFjOmGPYhNt/rfvKa9GBLUowzQGB
grCWVN7MNT+spbFNWMptLbPZIfZvkA5zxiKOUs4vSKsE4XFH2c+T/VEfFTNTmeV1
rsNLrjgxM/dq9qXKV5v++ZqwZSE7V0uJzPlaVkGiosv8iq9eCZIXGXt0Sur2S4aH
NSqBxrvuigMtE1q8P/V9h/Ig4hPxZkrtLpshhU997UmhkPWae32BnPhObPHZceaF
Oyo6ZTmbAxyWtaOCF1UxRpWeCXqVKgAqUg0qT5kmA9YpU0yO/YW0NGV58BJAwTwL
jFatIir8bSfmfoZARMHK+ke8N/5S8i0Y
-----END CERTIFICATE-----
