Certificate:
    Data:
        Version: 3 (0x2)
        Serial Number:
            b6:42:b5:ac:9b:19:e5:ef:66:ee:fa:b2:c6:0c:b8:12
        Signature Algorithm: sha256WithRSAEncryption
        Issuer: CN=team97-net
        Validity
            Not Before: May 18 14:49:17 2022 GMT
            Not After : May  2 14:49:17 2025 GMT
        Subject: CN=team97-server
        Subject Public Key Info:
            Public Key Algorithm: rsaEncryption
                RSA Public-Key: (2048 bit)
                Modulus:
                    00:f0:51:4c:6c:a4:e4:1b:d7:a0:a8:5b:ba:ee:3f:
                    e6:89:3d:24:45:e0:9e:69:1d:23:d1:ea:8f:c0:dc:
                    a0:69:d7:fa:c7:23:d7:48:f4:ac:3a:ac:85:7e:6e:
                    c3:c2:fd:27:84:c8:7d:61:4b:1b:92:b6:01:1a:19:
                    75:28:7a:f4:e8:bb:5d:5d:dd:bd:b1:ae:f5:88:d7:
                    d9:71:1a:55:a3:a0:62:ba:98:d1:73:e6:6d:ee:00:
                    80:49:4a:56:1a:1e:0c:9c:03:e5:f4:fe:63:20:ad:
                    ca:c1:2b:fb:3b:7f:67:88:e3:b4:9d:0d:f0:92:1d:
                    d0:42:c1:c4:2e:a6:e3:f9:e0:a4:1f:89:37:c5:e0:
                    da:3f:60:a0:4d:bd:f2:d7:f7:85:3a:34:4f:84:73:
                    67:11:5d:c6:8d:63:92:20:85:bf:37:8d:d5:2a:3a:
                    b9:78:28:13:75:4d:67:b5:06:9d:7c:12:42:5e:e8:
                    c4:b2:7d:22:be:e1:ae:37:65:96:98:23:b4:8b:81:
                    ab:ce:50:32:2e:fc:77:58:cd:5e:cb:a3:ec:b8:da:
                    ad:ff:58:d2:de:26:7a:73:cf:3a:32:0b:d2:a8:a8:
                    35:3f:da:35:36:0b:82:de:0b:66:b8:84:b9:91:4b:
                    a8:51:aa:72:81:ce:cf:76:96:62:77:d7:a9:99:b5:
                    20:d1
                Exponent: 65537 (0x10001)
        X509v3 extensions:
            X509v3 Basic Constraints: 
                CA:FALSE
            X509v3 Subject Key Identifier: 
                C5:ED:0B:A5:A2:03:39:50:2E:FB:15:47:30:36:04:42:FC:E4:F9:C3
            X509v3 Authority Key Identifier: 
                keyid:93:AD:26:DE:35:AF:23:C5:FC:1E:13:2D:FE:BA:F8:71:11:B3:44:88
                DirName:/CN=team97-net
                serial:6E:D4:43:2C:AB:1F:AE:30:8D:D3:6C:0A:DE:BE:85:C1:4F:E9:2F:06

            X509v3 Extended Key Usage: 
                TLS Web Server Authentication
            X509v3 Key Usage: 
                Digital Signature, Key Encipherment
            X509v3 Subject Alternative Name: 
                DNS:team97-server
    Signature Algorithm: sha256WithRSAEncryption
         9d:0e:00:0c:96:09:89:c1:29:c8:56:76:63:05:6d:fd:17:e9:
         58:db:f9:02:4a:b5:8b:50:1b:0b:3e:f1:d7:d7:49:49:1c:52:
         2f:a2:1a:ac:09:0d:24:4f:b1:84:c2:82:17:10:63:e3:24:dc:
         11:d1:81:e1:4c:66:8a:41:fe:55:76:96:88:6a:77:a5:fb:82:
         13:d3:05:03:3c:36:18:eb:55:f4:37:f5:7b:53:f0:b5:2d:a8:
         10:9e:90:c3:eb:58:fe:93:ba:ab:d2:c4:21:0d:08:36:17:a1:
         95:74:20:18:55:e3:76:3f:f0:82:98:f6:c8:5c:55:1e:a1:66:
         a2:57:3c:b1:0f:27:99:c5:4e:fe:e0:cf:4f:60:82:8f:3a:44:
         d4:ec:19:4c:89:39:54:dd:fd:a5:9f:2f:2f:5c:b0:39:35:b6:
         d4:ca:d4:98:a7:97:44:1d:89:32:94:d2:bd:23:1e:51:47:90:
         9c:c7:15:1f:46:1b:26:a4:fd:34:10:55:52:d9:3b:e0:90:cf:
         4b:6f:2b:da:ca:2b:b7:a5:ac:9e:e6:ac:7e:2a:2b:36:4b:25:
         c6:c4:43:a4:95:0b:80:95:21:1f:5a:66:9d:72:7b:3a:9a:71:
         2b:d7:e5:c7:7c:e4:6b:82:d9:ed:90:b1:97:6c:ad:f0:e2:94:
         6a:1b:f1:88
-----BEGIN CERTIFICATE-----
MIIDdDCCAlygAwIBAgIRALZCtaybGeXvZu76ssYMuBIwDQYJKoZIhvcNAQELBQAw
FTETMBEGA1UEAwwKdGVhbTk3LW5ldDAeFw0yMjA1MTgxNDQ5MTdaFw0yNTA1MDIx
NDQ5MTdaMBgxFjAUBgNVBAMMDXRlYW05Ny1zZXJ2ZXIwggEiMA0GCSqGSIb3DQEB
AQUAA4IBDwAwggEKAoIBAQDwUUxspOQb16CoW7ruP+aJPSRF4J5pHSPR6o/A3KBp
1/rHI9dI9Kw6rIV+bsPC/SeEyH1hSxuStgEaGXUoevTou11d3b2xrvWI19lxGlWj
oGK6mNFz5m3uAIBJSlYaHgycA+X0/mMgrcrBK/s7f2eI47SdDfCSHdBCwcQupuP5
4KQfiTfF4No/YKBNvfLX94U6NE+Ec2cRXcaNY5Ighb83jdUqOrl4KBN1TWe1Bp18
EkJe6MSyfSK+4a43ZZaYI7SLgavOUDIu/HdYzV7Lo+y42q3/WNLeJnpzzzoyC9Ko
qDU/2jU2C4LeC2a4hLmRS6hRqnKBzs92lmJ316mZtSDRAgMBAAGjgbswgbgwCQYD
VR0TBAIwADAdBgNVHQ4EFgQUxe0LpaIDOVAu+xVHMDYEQvzk+cMwUAYDVR0jBEkw
R4AUk60m3jWvI8X8HhMt/rr4cRGzRIihGaQXMBUxEzARBgNVBAMMCnRlYW05Ny1u
ZXSCFG7UQyyrH64wjdNsCt6+hcFP6S8GMBMGA1UdJQQMMAoGCCsGAQUFBwMBMAsG
A1UdDwQEAwIFoDAYBgNVHREEETAPgg10ZWFtOTctc2VydmVyMA0GCSqGSIb3DQEB
CwUAA4IBAQCdDgAMlgmJwSnIVnZjBW39F+lY2/kCSrWLUBsLPvHX10lJHFIvohqs
CQ0kT7GEwoIXEGPjJNwR0YHhTGaKQf5VdpaIanel+4IT0wUDPDYY61X0N/V7U/C1
LagQnpDD61j+k7qr0sQhDQg2F6GVdCAYVeN2P/CCmPbIXFUeoWaiVzyxDyeZxU7+
4M9PYIKPOkTU7BlMiTlU3f2lny8vXLA5NbbUytSYp5dEHYkylNK9Ix5RR5CcxxUf
RhsmpP00EFVS2TvgkM9Lbyvayiu3paye5qx+Kis2SyXGxEOklQuAlSEfWmadcns6
mnEr1+XHfORrgtntkLGXbK3w4pRqG/GI
-----END CERTIFICATE-----
