Certificate:
    Data:
        Version: 3 (0x2)
        Serial Number:
            4c:a0:06:95:3b:e8:23:60:2c:81:67:34:ee:df:f1:42
        Signature Algorithm: sha256WithRSAEncryption
        Issuer: CN=team428-net
        Validity
            Not Before: May 18 21:12:37 2022 GMT
            Not After : May  2 21:12:37 2025 GMT
        Subject: CN=team428-client
        Subject Public Key Info:
            Public Key Algorithm: rsaEncryption
                RSA Public-Key: (2048 bit)
                Modulus:
                    00:a0:c8:0e:22:d3:65:01:b6:a1:29:b0:63:5b:09:
                    72:64:01:ca:f1:b1:12:1f:ac:b6:c5:a2:72:e1:f4:
                    04:9b:33:a1:d4:f0:b7:81:5e:2a:99:85:62:1c:c7:
                    06:e8:f1:54:2b:c3:f1:9a:d0:4b:75:0b:0b:14:f2:
                    55:ca:a7:88:89:3a:ac:43:9c:dc:7a:7a:13:d9:cf:
                    6d:6a:46:ac:28:43:b2:2d:fb:2c:00:73:83:6f:4c:
                    30:54:a1:dc:f8:a0:0b:12:5c:55:b8:6c:85:8a:45:
                    25:c7:f1:1c:f5:42:33:d9:cf:ab:e1:6b:e3:4b:75:
                    5f:bb:46:26:6f:b5:e7:1b:27:17:be:23:9e:2e:fa:
                    78:20:ba:a5:b5:3a:8f:83:52:d1:92:02:65:72:7b:
                    5a:e5:72:01:8a:6b:fc:63:fd:e4:0b:32:a0:9b:a4:
                    0d:5e:9a:ad:07:d6:6f:6a:f2:80:27:0e:0b:35:05:
                    96:c8:24:84:a6:62:fa:2b:f2:e0:df:80:32:e1:1a:
                    a6:f3:aa:6c:0f:ba:48:ce:99:f8:a3:eb:43:a8:6b:
                    04:5a:1d:f1:a3:2f:fd:ec:00:2b:e8:fa:2f:86:91:
                    b2:ba:96:de:fb:ec:b0:61:e2:5c:96:af:09:d8:38:
                    ed:bb:f0:95:33:e0:3a:62:c2:42:60:49:4c:c2:65:
                    d8:11
                Exponent: 65537 (0x10001)
        X509v3 extensions:
            X509v3 Basic Constraints: 
                CA:FALSE
            X509v3 Subject Key Identifier: 
                EA:32:78:5A:60:D3:DF:AC:AC:69:7B:E1:D1:DF:F7:A7:54:74:94:C6
            X509v3 Authority Key Identifier: 
                keyid:22:A1:A3:A2:C2:A9:88:51:1D:65:2C:C4:DE:84:81:9C:E4:0A:16:8C
                DirName:/CN=team428-net
                serial:2D:B4:0A:32:E2:87:BB:4D:84:21:45:E6:8C:9D:BC:EF:87:5F:C0:0A

            X509v3 Extended Key Usage: 
                TLS Web Client Authentication
            X509v3 Key Usage: 
                Digital Signature
    Signature Algorithm: sha256WithRSAEncryption
         7a:df:ab:3f:5c:94:72:6e:65:08:79:fc:a4:42:fc:e9:a7:d5:
         c4:b0:48:8c:bc:9c:9a:b1:8e:8f:95:89:da:99:34:eb:ac:02:
         f3:54:80:0b:5b:0d:89:65:dc:d6:90:4d:fa:fb:f5:18:1f:82:
         76:ae:47:1e:d6:9b:c5:b4:f8:88:ee:56:14:b1:c0:45:0e:37:
         43:67:b6:43:33:6b:0f:d0:d1:21:b2:28:3d:ba:30:bb:24:87:
         d2:7c:ca:83:73:e1:55:b7:7d:cd:02:79:71:03:28:65:11:86:
         42:a6:54:7a:82:30:12:07:01:36:e1:d7:52:c1:48:e1:e2:a5:
         46:86:29:d9:43:86:e1:62:7e:7f:24:de:d0:5b:91:c4:42:ff:
         64:0c:3b:29:2b:9b:5e:d4:b8:71:f3:78:ee:0e:14:95:19:07:
         35:6b:48:c5:06:62:08:fb:f5:18:66:6a:f5:6f:e2:28:9b:76:
         83:6c:f2:bb:14:3d:22:b5:18:c9:51:1b:85:7d:51:30:b8:93:
         d1:5d:d7:cc:37:8b:11:de:a4:dd:81:03:e7:0a:51:bc:17:7c:
         24:f0:89:33:af:41:05:22:d0:82:26:36:a4:33:fc:2c:1c:60:
         88:56:73:3d:f5:96:fa:7a:c4:56:4a:56:f5:da:e8:bb:9e:7a:
         24:ef:0c:44
-----BEGIN CERTIFICATE-----
MIIDXDCCAkSgAwIBAgIQTKAGlTvoI2AsgWc07t/xQjANBgkqhkiG9w0BAQsFADAW
MRQwEgYDVQQDDAt0ZWFtNDI4LW5ldDAeFw0yMjA1MTgyMTEyMzdaFw0yNTA1MDIy
MTEyMzdaMBkxFzAVBgNVBAMMDnRlYW00MjgtY2xpZW50MIIBIjANBgkqhkiG9w0B
AQEFAAOCAQ8AMIIBCgKCAQEAoMgOItNlAbahKbBjWwlyZAHK8bESH6y2xaJy4fQE
mzOh1PC3gV4qmYViHMcG6PFUK8PxmtBLdQsLFPJVyqeIiTqsQ5zcenoT2c9takas
KEOyLfssAHODb0wwVKHc+KALElxVuGyFikUlx/Ec9UIz2c+r4WvjS3Vfu0Ymb7Xn
GycXviOeLvp4ILqltTqPg1LRkgJlcnta5XIBimv8Y/3kCzKgm6QNXpqtB9ZvavKA
Jw4LNQWWyCSEpmL6K/Lg34Ay4Rqm86psD7pIzpn4o+tDqGsEWh3xoy/97AAr6Pov
hpGyupbe++ywYeJclq8J2Djtu/CVM+A6YsJCYElMwmXYEQIDAQABo4GiMIGfMAkG
A1UdEwQCMAAwHQYDVR0OBBYEFOoyeFpg09+srGl74dHf96dUdJTGMFEGA1UdIwRK
MEiAFCKho6LCqYhRHWUsxN6EgZzkChaMoRqkGDAWMRQwEgYDVQQDDAt0ZWFtNDI4
LW5ldIIULbQKMuKHu02EIUXmjJ2874dfwAowEwYDVR0lBAwwCgYIKwYBBQUHAwIw
CwYDVR0PBAQDAgeAMA0GCSqGSIb3DQEBCwUAA4IBAQB636s/XJRybmUIefykQvzp
p9XEsEiMvJyasY6PlYnamTTrrALzVIALWw2JZdzWkE36+/UYH4J2rkce1pvFtPiI
7lYUscBFDjdDZ7ZDM2sP0NEhsig9ujC7JIfSfMqDc+FVt33NAnlxAyhlEYZCplR6
gjASBwE24ddSwUjh4qVGhinZQ4bhYn5/JN7QW5HEQv9kDDspK5te1Lhx83juDhSV
GQc1a0jFBmII+/UYZmr1b+Iom3aDbPK7FD0itRjJURuFfVEwuJPRXdfMN4sR3qTd
gQPnClG8F3wk8Ikzr0EFItCCJjakM/wsHGCIVnM99Zb6esRWSlb12ui7nnok7wxE
-----END CERTIFICATE-----
