Certificate:
    Data:
        Version: 3 (0x2)
        Serial Number:
            a7:c3:5e:1b:ae:41:e5:35:f7:4e:79:2b:6e:71:e1:2b
        Signature Algorithm: sha256WithRSAEncryption
        Issuer: CN=team765-net
        Validity
            Not Before: May 19 00:23:27 2022 GMT
            Not After : May  3 00:23:27 2025 GMT
        Subject: CN=team765-client
        Subject Public Key Info:
            Public Key Algorithm: rsaEncryption
                RSA Public-Key: (2048 bit)
                Modulus:
                    00:fa:b7:88:1b:fc:99:10:5d:52:83:18:ff:79:1a:
                    47:5c:58:5c:7c:4a:f9:9c:5a:cf:a4:6a:0b:8d:e1:
                    38:13:4d:06:72:b0:6f:b2:be:69:05:04:a0:0b:aa:
                    64:92:48:b3:5b:57:10:06:81:eb:b6:b5:e0:70:83:
                    bd:8a:9a:3e:30:17:71:62:fc:62:aa:0a:63:1a:13:
                    a0:b3:82:1d:1c:b7:79:f8:5a:36:6b:33:8e:98:a6:
                    38:94:f8:c5:4e:b5:be:cb:55:1b:94:08:16:51:a7:
                    6c:2e:50:f3:c8:55:13:73:20:96:72:32:d1:df:94:
                    44:a9:7e:a4:93:28:e8:fa:d6:b6:36:c6:92:1c:d6:
                    c4:9a:16:cb:cc:7d:09:57:3b:61:f8:b6:35:a8:ac:
                    26:88:44:eb:a8:33:4a:b8:e0:83:62:72:5c:f7:12:
                    02:81:9e:3e:40:5e:5a:58:6f:5b:e5:4e:cd:f7:10:
                    4b:09:af:83:5b:f2:65:12:c1:4b:4e:4c:29:8b:86:
                    b2:a6:06:fc:79:72:6d:30:0c:18:53:b5:9f:4c:e8:
                    ed:86:03:c2:bf:fb:5f:87:14:69:bb:40:35:a7:4d:
                    ba:59:2d:3f:3e:31:a4:cc:44:75:cc:d7:af:1c:b9:
                    d1:0b:0f:0e:00:30:21:66:41:d3:2d:da:54:4b:92:
                    1a:91
                Exponent: 65537 (0x10001)
        X509v3 extensions:
            X509v3 Basic Constraints: 
                CA:FALSE
            X509v3 Subject Key Identifier: 
                70:B9:85:24:30:16:5C:17:DB:C0:93:94:14:DA:EC:43:22:BE:E8:9B
            X509v3 Authority Key Identifier: 
                keyid:3E:51:42:11:C4:C9:8A:5C:A4:B0:2B:BD:A1:C6:E1:54:30:05:EF:7F
                DirName:/CN=team765-net
                serial:41:B8:7B:B9:3B:AA:BA:A4:15:BB:67:27:4F:EA:AE:F6:8E:8D:39:C5

            X509v3 Extended Key Usage: 
                TLS Web Client Authentication
            X509v3 Key Usage: 
                Digital Signature
    Signature Algorithm: sha256WithRSAEncryption
         38:4b:f1:23:2b:40:f8:41:92:e8:70:7d:7c:53:e2:7f:11:f4:
         6e:ea:71:6e:36:31:83:7a:b3:6c:f2:73:e6:da:42:9b:ed:1c:
         b6:bf:9c:b5:24:8d:dc:33:e3:7c:0f:62:82:c1:e9:3a:5d:b2:
         9c:9d:63:ef:bd:7b:57:2e:8c:25:a3:80:5a:8d:df:06:4b:9e:
         87:2a:96:ba:b9:95:fa:ac:07:b2:62:4f:8d:1c:1d:b6:eb:32:
         4c:09:97:1b:7e:25:1b:be:ef:83:96:5b:a1:29:90:75:6b:03:
         6d:f8:14:3a:41:34:2b:1c:38:2c:6e:95:86:69:c0:b7:46:cf:
         02:93:5f:57:8f:7b:50:e1:87:7f:3a:ec:47:d4:c6:3b:a5:18:
         95:a3:42:5f:f6:f0:7d:4a:7d:06:76:01:9c:ad:0b:05:3d:88:
         c0:63:83:47:4d:f5:c5:77:c2:91:0e:bc:20:b2:a2:f5:b9:3e:
         16:de:90:5d:56:a4:74:5d:b6:07:3d:5c:b0:97:35:fa:5c:6f:
         9a:b2:47:b0:13:e7:25:67:75:dc:8a:3e:63:86:a8:6d:6a:20:
         f3:a6:90:e9:f4:f8:05:42:75:78:92:0d:8f:7e:4b:56:18:0b:
         bd:05:00:8f:60:55:e7:a5:7d:57:de:55:a8:87:9e:6c:1e:25:
         cd:b6:d9:99
-----BEGIN CERTIFICATE-----
MIIDXTCCAkWgAwIBAgIRAKfDXhuuQeU19055K25x4SswDQYJKoZIhvcNAQELBQAw
FjEUMBIGA1UEAwwLdGVhbTc2NS1uZXQwHhcNMjIwNTE5MDAyMzI3WhcNMjUwNTAz
MDAyMzI3WjAZMRcwFQYDVQQDDA50ZWFtNzY1LWNsaWVudDCCASIwDQYJKoZIhvcN
AQEBBQADggEPADCCAQoCggEBAPq3iBv8mRBdUoMY/3kaR1xYXHxK+Zxaz6RqC43h
OBNNBnKwb7K+aQUEoAuqZJJIs1tXEAaB67a14HCDvYqaPjAXcWL8YqoKYxoToLOC
HRy3efhaNmszjpimOJT4xU61vstVG5QIFlGnbC5Q88hVE3MglnIy0d+URKl+pJMo
6PrWtjbGkhzWxJoWy8x9CVc7Yfi2NaisJohE66gzSrjgg2JyXPcSAoGePkBeWlhv
W+VOzfcQSwmvg1vyZRLBS05MKYuGsqYG/HlybTAMGFO1n0zo7YYDwr/7X4cUabtA
NadNulktPz4xpMxEdczXrxy50QsPDgAwIWZB0y3aVEuSGpECAwEAAaOBojCBnzAJ
BgNVHRMEAjAAMB0GA1UdDgQWBBRwuYUkMBZcF9vAk5QU2uxDIr7omzBRBgNVHSME
SjBIgBQ+UUIRxMmKXKSwK72hxuFUMAXvf6EapBgwFjEUMBIGA1UEAwwLdGVhbTc2
NS1uZXSCFEG4e7k7qrqkFbtnJ0/qrvaOjTnFMBMGA1UdJQQMMAoGCCsGAQUFBwMC
MAsGA1UdDwQEAwIHgDANBgkqhkiG9w0BAQsFAAOCAQEAOEvxIytA+EGS6HB9fFPi
fxH0bupxbjYxg3qzbPJz5tpCm+0ctr+ctSSN3DPjfA9igsHpOl2ynJ1j7717Vy6M
JaOAWo3fBkuehyqWurmV+qwHsmJPjRwdtusyTAmXG34lG77vg5ZboSmQdWsDbfgU
OkE0Kxw4LG6VhmnAt0bPApNfV497UOGHfzrsR9TGO6UYlaNCX/bwfUp9BnYBnK0L
BT2IwGODR031xXfCkQ68ILKi9bk+Ft6QXVakdF22Bz1csJc1+lxvmrJHsBPnJWd1
3Io+Y4aobWog86aQ6fT4BUJ1eJINj35LVhgLvQUAj2BV56V9V95VqIeebB4lzbbZ
mQ==
-----END CERTIFICATE-----
