Certificate:
    Data:
        Version: 3 (0x2)
        Serial Number:
            f1:81:66:65:bb:3b:b5:e5:98:bf:82:1b:34:11:2a:c7
        Signature Algorithm: sha256WithRSAEncryption
        Issuer: CN=team735-net
        Validity
            Not Before: May 18 23:56:38 2022 GMT
            Not After : May  2 23:56:38 2025 GMT
        Subject: CN=team735-client
        Subject Public Key Info:
            Public Key Algorithm: rsaEncryption
                RSA Public-Key: (2048 bit)
                Modulus:
                    00:cd:76:8e:2d:ac:f1:7c:85:19:54:29:17:cc:9b:
                    af:4e:28:ea:50:e3:0a:31:69:3b:0f:3f:09:01:e5:
                    fe:ed:5d:c6:6f:70:3f:86:d9:c4:14:1f:10:c7:07:
                    e6:bb:62:76:58:ef:bb:d4:c3:fa:80:93:f6:24:93:
                    0c:36:a0:a0:a4:7c:28:b7:8b:7d:5d:20:a7:36:31:
                    0b:be:b1:fa:fd:4f:77:b8:25:cd:0d:3c:86:9c:0d:
                    98:16:b1:dd:c1:73:53:bb:f5:f2:89:42:d4:79:e1:
                    50:ed:91:64:e7:9f:9e:13:bb:a7:fc:87:69:b7:8a:
                    77:0a:e1:45:ce:33:ca:14:f9:59:24:50:d4:c4:24:
                    54:08:78:26:58:41:4e:d0:6b:3d:c3:07:37:bf:31:
                    a1:22:94:6c:89:93:ee:a5:b8:43:2c:ca:7d:ea:db:
                    91:6f:53:7c:78:b3:41:38:3f:4b:e6:ea:4a:2e:17:
                    55:ce:36:97:72:5d:15:85:31:01:31:dd:45:6a:93:
                    87:3e:b0:c8:ec:9e:0b:fc:be:f0:7f:15:4f:96:77:
                    3c:5f:da:c1:8d:fc:88:82:f6:9f:3e:6a:8d:a3:20:
                    69:ed:1d:2d:cc:31:b5:0f:e8:a9:8b:48:f6:64:62:
                    e0:8a:b7:4b:0e:f1:11:80:6e:17:8c:5e:24:a8:01:
                    3c:9f
                Exponent: 65537 (0x10001)
        X509v3 extensions:
            X509v3 Basic Constraints: 
                CA:FALSE
            X509v3 Subject Key Identifier: 
                34:5A:0B:F9:7A:EF:EF:9B:FF:2E:79:F6:7E:9D:7B:E7:7B:C0:F4:21
            X509v3 Authority Key Identifier: 
                keyid:2E:A5:C6:73:25:98:20:7A:30:9D:2A:1D:55:C7:CE:8D:E8:59:B1:28
                DirName:/CN=team735-net
                serial:2B:44:3E:0E:EC:B5:57:7B:07:D6:32:B8:88:1F:25:F3:70:1F:D4:60

            X509v3 Extended Key Usage: 
                TLS Web Client Authentication
            X509v3 Key Usage: 
                Digital Signature
    Signature Algorithm: sha256WithRSAEncryption
         17:e3:fe:6f:b2:3d:0f:ad:34:cc:d1:8f:a4:a1:cf:7c:a5:59:
         13:41:75:29:2c:f4:09:22:12:04:a4:cc:2f:e4:6c:1d:66:e0:
         79:6b:03:1f:2f:29:a6:fc:3f:11:b9:35:f6:40:2f:8c:ec:f9:
         2c:5c:e7:42:a9:91:6b:2a:8f:bc:cb:55:2c:63:04:e7:ee:b8:
         b9:eb:3a:47:e7:ca:df:3f:fe:58:f2:8a:ce:8f:2d:db:db:74:
         23:91:a7:79:b6:16:a8:43:3b:3a:52:b0:0e:43:28:eb:49:8a:
         fe:cf:18:66:fe:74:80:bb:d8:62:a1:81:da:7f:d6:ca:af:1f:
         ef:95:b1:1b:cd:65:df:37:d8:2a:31:1e:02:a8:c3:a6:9f:02:
         6f:7c:bf:1d:23:4d:4f:56:13:f8:91:3f:ff:8f:22:31:0e:fa:
         cc:d0:61:43:f3:10:64:9e:07:96:49:19:58:07:aa:fd:4c:ff:
         65:8b:77:c5:8c:b7:55:4d:40:3a:70:b8:3b:e9:4e:57:b9:56:
         41:e2:96:af:f8:a2:59:ba:a3:82:eb:9e:20:73:ac:d7:3b:3f:
         e0:e3:d8:41:a6:6c:33:8a:82:a9:b9:05:42:83:6d:9b:f5:cc:
         da:ad:1e:af:f2:8b:e1:a2:bb:9a:4c:e3:9c:96:ce:c2:c7:3e:
         03:99:6d:d2
-----BEGIN CERTIFICATE-----
MIIDXTCCAkWgAwIBAgIRAPGBZmW7O7XlmL+CGzQRKscwDQYJKoZIhvcNAQELBQAw
FjEUMBIGA1UEAwwLdGVhbTczNS1uZXQwHhcNMjIwNTE4MjM1NjM4WhcNMjUwNTAy
MjM1NjM4WjAZMRcwFQYDVQQDDA50ZWFtNzM1LWNsaWVudDCCASIwDQYJKoZIhvcN
AQEBBQADggEPADCCAQoCggEBAM12ji2s8XyFGVQpF8ybr04o6lDjCjFpOw8/CQHl
/u1dxm9wP4bZxBQfEMcH5rtidljvu9TD+oCT9iSTDDagoKR8KLeLfV0gpzYxC76x
+v1Pd7glzQ08hpwNmBax3cFzU7v18olC1HnhUO2RZOefnhO7p/yHabeKdwrhRc4z
yhT5WSRQ1MQkVAh4JlhBTtBrPcMHN78xoSKUbImT7qW4QyzKferbkW9TfHizQTg/
S+bqSi4XVc42l3JdFYUxATHdRWqThz6wyOyeC/y+8H8VT5Z3PF/awY38iIL2nz5q
jaMgae0dLcwxtQ/oqYtI9mRi4Iq3Sw7xEYBuF4xeJKgBPJ8CAwEAAaOBojCBnzAJ
BgNVHRMEAjAAMB0GA1UdDgQWBBQ0Wgv5eu/vm/8uefZ+nXvne8D0ITBRBgNVHSME
SjBIgBQupcZzJZggejCdKh1Vx86N6FmxKKEapBgwFjEUMBIGA1UEAwwLdGVhbTcz
NS1uZXSCFCtEPg7stVd7B9YyuIgfJfNwH9RgMBMGA1UdJQQMMAoGCCsGAQUFBwMC
MAsGA1UdDwQEAwIHgDANBgkqhkiG9w0BAQsFAAOCAQEAF+P+b7I9D600zNGPpKHP
fKVZE0F1KSz0CSISBKTML+RsHWbgeWsDHy8ppvw/Ebk19kAvjOz5LFznQqmRayqP
vMtVLGME5+64ues6R+fK3z/+WPKKzo8t29t0I5GnebYWqEM7OlKwDkMo60mK/s8Y
Zv50gLvYYqGB2n/Wyq8f75WxG81l3zfYKjEeAqjDpp8Cb3y/HSNNT1YT+JE//48i
MQ76zNBhQ/MQZJ4HlkkZWAeq/Uz/ZYt3xYy3VU1AOnC4O+lOV7lWQeKWr/iiWbqj
guueIHOs1zs/4OPYQaZsM4qCqbkFQoNtm/XM2q0er/KL4aK7mkzjnJbOwsc+A5lt
0g==
-----END CERTIFICATE-----
