Certificate:
    Data:
        Version: 3 (0x2)
        Serial Number:
            8e:6f:39:12:3d:19:4e:dd:17:1f:c8:5d:73:fb:4b:a6
        Signature Algorithm: sha256WithRSAEncryption
        Issuer: CN=team356-net
        Validity
            Not Before: May 18 20:33:02 2022 GMT
            Not After : May  2 20:33:02 2025 GMT
        Subject: CN=team356-server
        Subject Public Key Info:
            Public Key Algorithm: rsaEncryption
                RSA Public-Key: (2048 bit)
                Modulus:
                    00:d0:66:aa:aa:17:03:7d:b8:0b:4b:bf:88:93:42:
                    4b:a9:22:ef:fb:29:0b:4a:59:b8:88:80:b2:64:cd:
                    c4:48:5e:4f:7c:b8:61:e6:a3:ea:1f:66:74:8a:d6:
                    71:21:c3:6d:05:9f:a0:1f:56:62:a5:05:92:d8:3f:
                    fe:03:c6:d7:78:fc:05:14:2f:64:99:cc:93:96:1e:
                    83:15:22:72:ec:aa:88:a2:71:b4:94:f2:03:14:28:
                    53:14:c6:d5:c9:e6:07:eb:a5:62:90:2a:ae:a2:3b:
                    2c:62:32:8f:08:5f:f0:3c:13:01:eb:9c:c4:0b:51:
                    f8:df:4a:dd:19:e7:e0:fd:d2:71:e4:d5:d9:6f:f0:
                    5c:97:00:1f:f5:f5:36:e5:20:9a:5d:0f:79:64:7b:
                    f8:6a:8c:f5:6a:e5:c7:a3:b0:f8:6d:19:f7:b4:e9:
                    a9:80:bd:94:0f:63:98:87:48:09:f2:ba:77:b4:bd:
                    04:38:04:16:04:af:e0:79:10:54:28:93:22:7f:0c:
                    68:45:4b:fa:51:8d:e4:94:72:9d:78:ab:cc:0e:94:
                    2c:9a:48:fa:4c:4e:9e:b7:14:05:de:e0:8b:69:f7:
                    51:53:d4:8b:15:e6:03:05:32:42:78:18:c0:06:d2:
                    b0:05:08:42:c7:ee:f6:5e:14:11:b3:2e:85:11:79:
                    6d:ab
                Exponent: 65537 (0x10001)
        X509v3 extensions:
            X509v3 Basic Constraints: 
                CA:FALSE
            X509v3 Subject Key Identifier: 
                AE:E0:3B:23:94:EE:14:C7:C4:1A:29:A7:59:DD:64:32:E3:4D:7F:21
            X509v3 Authority Key Identifier: 
                keyid:06:D0:4B:1E:7D:1C:7B:A0:42:66:81:0B:90:83:B6:C1:C4:BB:00:23
                DirName:/CN=team356-net
                serial:72:CC:8E:C8:F1:10:37:73:B4:26:7C:DE:B5:E0:09:78:A2:89:DC:18

            X509v3 Extended Key Usage: 
                TLS Web Server Authentication
            X509v3 Key Usage: 
                Digital Signature, Key Encipherment
            X509v3 Subject Alternative Name: 
                DNS:team356-server
    Signature Algorithm: sha256WithRSAEncryption
         08:5b:56:e8:69:5f:bc:34:77:f0:3c:9d:79:4e:e9:27:9e:e2:
         41:8a:b9:4a:84:db:58:6e:b3:66:0c:b3:1f:81:08:af:db:40:
         41:25:11:f4:7b:77:fa:b5:3e:59:d8:e4:28:73:7e:a3:18:40:
         b4:e6:de:6e:39:46:44:8d:58:e8:64:6d:80:1c:f5:68:24:b4:
         d7:b1:1e:b8:57:1c:3f:f8:5b:45:60:78:82:ca:ac:29:9a:41:
         d1:88:fd:26:a5:fa:6e:a4:e3:4f:a0:07:99:6b:2f:4e:1e:85:
         ce:2f:7c:a1:75:13:71:4d:82:f1:59:8a:8d:93:9d:9d:9b:41:
         0b:ab:d3:82:21:44:50:ec:ee:26:63:05:1e:fa:65:36:dc:8d:
         8b:3d:ea:58:ae:ff:6e:12:09:82:f6:e1:84:7d:de:6f:ae:e2:
         4f:a6:a7:cd:44:65:90:f9:ff:0f:e2:86:ce:b2:8e:d6:50:bf:
         ee:bf:c4:5d:2d:e6:09:ab:78:5f:e4:88:9e:1a:49:dc:6c:a3:
         be:e4:69:b0:b3:d6:b6:63:75:1a:d7:06:70:61:bd:cd:b1:09:
         bb:a9:2c:d4:b8:da:68:ef:6c:fd:65:03:cb:6f:ed:bb:db:6d:
         68:5b:04:12:e7:26:1f:2d:5e:6b:f5:b7:1a:a8:ce:46:ba:9b:
         d7:9d:b6:fa
-----BEGIN CERTIFICATE-----
MIIDeDCCAmCgAwIBAgIRAI5vORI9GU7dFx/IXXP7S6YwDQYJKoZIhvcNAQELBQAw
FjEUMBIGA1UEAwwLdGVhbTM1Ni1uZXQwHhcNMjIwNTE4MjAzMzAyWhcNMjUwNTAy
MjAzMzAyWjAZMRcwFQYDVQQDDA50ZWFtMzU2LXNlcnZlcjCCASIwDQYJKoZIhvcN
AQEBBQADggEPADCCAQoCggEBANBmqqoXA324C0u/iJNCS6ki7/spC0pZuIiAsmTN
xEheT3y4Yeaj6h9mdIrWcSHDbQWfoB9WYqUFktg//gPG13j8BRQvZJnMk5YegxUi
cuyqiKJxtJTyAxQoUxTG1cnmB+ulYpAqrqI7LGIyjwhf8DwTAeucxAtR+N9K3Rnn
4P3SceTV2W/wXJcAH/X1NuUgml0PeWR7+GqM9Wrlx6Ow+G0Z97TpqYC9lA9jmIdI
CfK6d7S9BDgEFgSv4HkQVCiTIn8MaEVL+lGN5JRynXirzA6ULJpI+kxOnrcUBd7g
i2n3UVPUixXmAwUyQngYwAbSsAUIQsfu9l4UEbMuhRF5basCAwEAAaOBvTCBujAJ
BgNVHRMEAjAAMB0GA1UdDgQWBBSu4DsjlO4Ux8QaKadZ3WQy401/ITBRBgNVHSME
SjBIgBQG0EsefRx7oEJmgQuQg7bBxLsAI6EapBgwFjEUMBIGA1UEAwwLdGVhbTM1
Ni1uZXSCFHLMjsjxEDdztCZ83rXgCXiiidwYMBMGA1UdJQQMMAoGCCsGAQUFBwMB
MAsGA1UdDwQEAwIFoDAZBgNVHREEEjAQgg50ZWFtMzU2LXNlcnZlcjANBgkqhkiG
9w0BAQsFAAOCAQEACFtW6GlfvDR38DydeU7pJ57iQYq5SoTbWG6zZgyzH4EIr9tA
QSUR9Ht3+rU+WdjkKHN+oxhAtObebjlGRI1Y6GRtgBz1aCS017EeuFccP/hbRWB4
gsqsKZpB0Yj9JqX6bqTjT6AHmWsvTh6Fzi98oXUTcU2C8VmKjZOdnZtBC6vTgiFE
UOzuJmMFHvplNtyNiz3qWK7/bhIJgvbhhH3eb67iT6anzURlkPn/D+KGzrKO1lC/
7r/EXS3mCat4X+SInhpJ3GyjvuRpsLPWtmN1GtcGcGG9zbEJu6ks1LjaaO9s/WUD
y2/tu9ttaFsEEucmHy1ea/W3GqjORrqb1522+g==
-----END CERTIFICATE-----
