Certificate:
    Data:
        Version: 3 (0x2)
        Serial Number:
            6c:96:59:0d:18:f0:fa:86:a3:18:35:97:e9:e2:27:e2
        Signature Algorithm: sha256WithRSAEncryption
        Issuer: CN=team367-net
        Validity
            Not Before: May 18 20:36:42 2022 GMT
            Not After : May  2 20:36:42 2025 GMT
        Subject: CN=team367-server
        Subject Public Key Info:
            Public Key Algorithm: rsaEncryption
                RSA Public-Key: (2048 bit)
                Modulus:
                    00:de:4f:73:e9:46:80:92:6d:c6:96:a5:c8:49:79:
                    8e:e5:14:65:36:2d:c4:f5:ae:d5:93:a8:e0:30:5c:
                    df:fa:b0:1e:2a:90:07:a0:49:6f:de:51:c3:ff:35:
                    8e:f0:d1:c3:ad:06:b4:5d:59:0e:16:9e:ae:d9:cb:
                    f1:a4:9a:e4:c7:ab:ca:80:03:fe:0f:12:13:3b:bf:
                    f1:7e:c3:d0:22:3d:29:7b:cc:ac:d1:37:67:e2:f6:
                    eb:53:5b:bd:08:f6:ab:cf:45:96:79:95:78:93:6f:
                    74:50:8f:5d:50:c5:cb:c5:d6:a1:ac:c2:a6:b0:b9:
                    97:ec:7a:97:f1:e9:db:20:57:d5:38:fa:dd:1c:5d:
                    ed:42:fd:bb:bd:eb:d9:6e:8a:20:8b:00:e1:34:44:
                    63:0a:41:49:65:83:7b:d2:6c:1c:be:84:59:cc:bc:
                    f9:9c:84:a8:18:0c:6d:52:ab:c9:fe:ab:58:4e:c5:
                    28:6d:e7:4f:62:a3:51:34:32:12:35:20:61:5d:b7:
                    51:8a:8d:cb:18:64:29:65:64:d6:07:f4:5e:0d:5c:
                    04:f3:e2:fb:a5:f3:b8:b2:71:6d:44:6b:7e:23:c7:
                    b1:8e:55:9e:b9:a3:d9:2d:db:b8:d3:88:71:8f:8e:
                    72:be:7b:07:59:0e:ca:68:ab:6a:41:b7:82:1f:da:
                    9d:4f
                Exponent: 65537 (0x10001)
        X509v3 extensions:
            X509v3 Basic Constraints: 
                CA:FALSE
            X509v3 Subject Key Identifier: 
                5A:73:D7:4C:63:15:70:DE:45:CD:DA:89:A7:A6:29:26:69:4D:E5:C1
            X509v3 Authority Key Identifier: 
                keyid:D0:41:8F:1C:7A:4C:6E:24:CB:5E:A2:F6:88:31:3C:F2:FD:EF:4F:B5
                DirName:/CN=team367-net
                serial:60:F3:17:3A:96:7B:70:34:D5:BA:B9:5C:5C:43:67:52:AA:22:63:A2

            X509v3 Extended Key Usage: 
                TLS Web Server Authentication
            X509v3 Key Usage: 
                Digital Signature, Key Encipherment
            X509v3 Subject Alternative Name: 
                DNS:team367-server
    Signature Algorithm: sha256WithRSAEncryption
         44:8e:5d:4c:f6:c0:3d:4f:8c:88:fd:ef:03:65:54:f4:3d:d2:
         1f:6b:91:81:82:55:9e:05:0e:19:77:1c:f6:4d:1c:b1:52:3c:
         2d:3e:d2:05:07:b9:dd:7a:dc:61:5a:b4:1d:d8:11:da:06:f1:
         a5:a4:8f:3e:ff:57:6a:ab:c3:22:af:5d:74:03:b6:21:b4:0a:
         f2:1d:43:8e:22:d1:9c:d5:02:07:14:75:dd:63:71:d0:20:4a:
         fc:e8:ae:b1:78:09:39:e9:07:e9:47:a8:da:bf:22:ee:6a:76:
         32:60:c9:14:41:8f:8a:a2:b1:4c:61:ed:29:93:44:8c:02:b7:
         d6:d5:03:67:16:5c:44:f5:7f:46:93:9d:bc:ff:b1:69:95:28:
         e5:a7:ec:9c:1b:2c:41:6b:0a:42:e9:b6:27:68:30:15:d1:37:
         fd:2e:b2:2e:04:a6:dc:0d:98:06:b1:20:ba:ef:cc:f1:dc:02:
         6d:04:aa:06:ba:6f:bf:f1:9c:a7:97:70:8b:ad:4c:8e:0e:a6:
         58:f2:48:54:6b:ad:3f:f2:db:5c:38:84:c0:94:3a:96:91:21:
         ae:5e:63:7f:fe:c9:dc:e7:c3:92:a4:9d:41:cc:b8:2c:c1:2f:
         23:21:4f:80:10:fd:15:b2:1a:99:9c:df:b8:bf:51:9f:b7:90:
         f1:85:46:a6
-----BEGIN CERTIFICATE-----
MIIDdzCCAl+gAwIBAgIQbJZZDRjw+oajGDWX6eIn4jANBgkqhkiG9w0BAQsFADAW
MRQwEgYDVQQDDAt0ZWFtMzY3LW5ldDAeFw0yMjA1MTgyMDM2NDJaFw0yNTA1MDIy
MDM2NDJaMBkxFzAVBgNVBAMMDnRlYW0zNjctc2VydmVyMIIBIjANBgkqhkiG9w0B
AQEFAAOCAQ8AMIIBCgKCAQEA3k9z6UaAkm3GlqXISXmO5RRlNi3E9a7Vk6jgMFzf
+rAeKpAHoElv3lHD/zWO8NHDrQa0XVkOFp6u2cvxpJrkx6vKgAP+DxITO7/xfsPQ
Ij0pe8ys0Tdn4vbrU1u9CParz0WWeZV4k290UI9dUMXLxdahrMKmsLmX7HqX8enb
IFfVOPrdHF3tQv27vevZboogiwDhNERjCkFJZYN70mwcvoRZzLz5nISoGAxtUqvJ
/qtYTsUobedPYqNRNDISNSBhXbdRio3LGGQpZWTWB/ReDVwE8+L7pfO4snFtRGt+
I8exjlWeuaPZLdu404hxj45yvnsHWQ7KaKtqQbeCH9qdTwIDAQABo4G9MIG6MAkG
A1UdEwQCMAAwHQYDVR0OBBYEFFpz10xjFXDeRc3aiaemKSZpTeXBMFEGA1UdIwRK
MEiAFNBBjxx6TG4ky16i9ogxPPL970+1oRqkGDAWMRQwEgYDVQQDDAt0ZWFtMzY3
LW5ldIIUYPMXOpZ7cDTVurlcXENnUqoiY6IwEwYDVR0lBAwwCgYIKwYBBQUHAwEw
CwYDVR0PBAQDAgWgMBkGA1UdEQQSMBCCDnRlYW0zNjctc2VydmVyMA0GCSqGSIb3
DQEBCwUAA4IBAQBEjl1M9sA9T4yI/e8DZVT0PdIfa5GBglWeBQ4Zdxz2TRyxUjwt
PtIFB7ndetxhWrQd2BHaBvGlpI8+/1dqq8Mir110A7YhtAryHUOOItGc1QIHFHXd
Y3HQIEr86K6xeAk56QfpR6javyLuanYyYMkUQY+KorFMYe0pk0SMArfW1QNnFlxE
9X9Gk528/7FplSjlp+ycGyxBawpC6bYnaDAV0Tf9LrIuBKbcDZgGsSC678zx3AJt
BKoGum+/8Zynl3CLrUyODqZY8khUa60/8ttcOITAlDqWkSGuXmN//snc58OSpJ1B
zLgswS8jIU+AEP0VshqZnN+4v1Gft5DxhUam
-----END CERTIFICATE-----
