Certificate:
    Data:
        Version: 3 (0x2)
        Serial Number:
            db:2b:a8:4d:b9:df:83:d7:b4:96:fd:2a:1d:ef:a0:1f
        Signature Algorithm: sha256WithRSAEncryption
        Issuer: CN=team114-net
        Validity
            Not Before: May 18 14:56:32 2022 GMT
            Not After : May  2 14:56:32 2025 GMT
        Subject: CN=team114-client
        Subject Public Key Info:
            Public Key Algorithm: rsaEncryption
                RSA Public-Key: (2048 bit)
                Modulus:
                    00:c2:1f:b5:d9:95:2c:0e:0f:3c:24:5c:d7:aa:b5:
                    0e:b7:f7:47:5a:cf:da:76:0e:bd:76:07:28:c2:5e:
                    10:4a:77:7c:b4:98:ff:01:7c:f1:02:4b:52:1d:dc:
                    a8:68:10:e7:7d:5e:e4:69:0a:03:ad:39:dc:e3:c7:
                    f0:5c:89:a0:22:45:de:f4:3e:60:f3:80:12:c1:38:
                    dc:db:7b:48:13:54:23:3b:77:8a:08:12:ad:13:33:
                    19:b0:0a:02:5f:f5:cf:82:3e:85:15:9c:8f:dc:59:
                    e3:d6:1d:9d:87:39:80:ab:54:53:26:36:c5:6a:22:
                    91:6d:ad:7c:3c:5a:a6:5c:7b:3f:76:b2:4d:09:20:
                    cb:8d:d7:5b:6b:9a:e0:92:d1:d4:7b:b3:8f:69:7c:
                    dc:31:70:e2:f2:ff:ac:f8:64:b0:1d:ba:36:c2:9a:
                    72:6d:d5:ce:33:a1:d0:b9:45:4c:7b:1e:e1:ae:35:
                    73:c1:0d:9c:16:0a:24:63:df:bb:74:02:b0:87:c1:
                    50:20:cf:ce:fe:13:72:6d:cd:ac:21:de:b8:91:a6:
                    af:81:7b:be:5b:5d:41:0d:27:b3:6b:b6:a1:89:17:
                    40:66:b4:e9:79:3e:63:5b:0a:b3:02:78:2a:07:1a:
                    a9:a0:e0:ac:cf:a5:cb:31:97:0b:94:3a:d4:2a:55:
                    fe:11
                Exponent: 65537 (0x10001)
        X509v3 extensions:
            X509v3 Basic Constraints: 
                CA:FALSE
            X509v3 Subject Key Identifier: 
                BB:92:AA:58:FB:FB:47:9C:11:96:69:56:62:5F:01:16:9F:E8:FB:5D
            X509v3 Authority Key Identifier: 
                keyid:32:EB:6C:86:04:4C:44:2B:BD:0C:5B:69:CB:89:FC:71:0C:BA:C4:5C
                DirName:/CN=team114-net
                serial:06:72:C0:10:6E:83:BB:6C:19:B0:28:66:7A:77:39:DD:6E:67:AF:F5

            X509v3 Extended Key Usage: 
                TLS Web Client Authentication
            X509v3 Key Usage: 
                Digital Signature
    Signature Algorithm: sha256WithRSAEncryption
         04:d3:ca:eb:87:0f:fa:43:71:1b:c0:67:fb:29:b0:bc:84:3a:
         01:7d:b5:11:3a:38:0b:ca:29:8f:e5:82:b7:d3:ac:44:a7:20:
         dc:cc:2b:c8:fe:32:36:bd:de:40:69:c4:b2:34:6f:e8:76:e3:
         82:c6:25:ea:1c:17:c6:11:30:03:f6:fc:97:75:b5:03:f5:33:
         5e:b5:e8:e8:ad:79:e8:ca:70:cf:ef:ce:35:87:25:e8:8b:bc:
         41:f0:cb:13:17:de:cb:06:6d:ad:a8:31:f9:09:6d:74:25:68:
         4c:c7:b5:e7:15:68:16:92:de:8b:0b:fd:5a:80:00:42:ed:93:
         b6:0d:e3:dc:d0:3a:c1:b9:2d:93:fd:ef:78:1d:0e:a1:09:a1:
         e7:9c:41:b5:2a:9b:4a:42:46:6b:91:d1:6d:c2:0a:84:13:bf:
         26:b3:76:95:f3:9a:e2:5c:e6:fb:dd:ad:52:89:ae:48:61:b6:
         89:15:ca:69:be:d0:6f:df:0f:95:47:c9:b5:b6:50:1d:25:f5:
         61:c0:53:0a:23:41:36:88:91:55:0b:62:dd:8b:1d:84:23:af:
         3a:e9:ad:d5:db:7f:e9:cc:a8:ae:c4:31:72:01:75:01:a4:45:
         f5:59:d8:d0:44:6f:8f:6e:4a:08:7f:7e:6e:90:ed:fb:ac:d2:
         4e:c7:57:4a
-----BEGIN CERTIFICATE-----
MIIDXTCCAkWgAwIBAgIRANsrqE2534PXtJb9Kh3voB8wDQYJKoZIhvcNAQELBQAw
FjEUMBIGA1UEAwwLdGVhbTExNC1uZXQwHhcNMjIwNTE4MTQ1NjMyWhcNMjUwNTAy
MTQ1NjMyWjAZMRcwFQYDVQQDDA50ZWFtMTE0LWNsaWVudDCCASIwDQYJKoZIhvcN
AQEBBQADggEPADCCAQoCggEBAMIftdmVLA4PPCRc16q1Drf3R1rP2nYOvXYHKMJe
EEp3fLSY/wF88QJLUh3cqGgQ531e5GkKA6053OPH8FyJoCJF3vQ+YPOAEsE43Nt7
SBNUIzt3iggSrRMzGbAKAl/1z4I+hRWcj9xZ49YdnYc5gKtUUyY2xWoikW2tfDxa
plx7P3ayTQkgy43XW2ua4JLR1Huzj2l83DFw4vL/rPhksB26NsKacm3VzjOh0LlF
THse4a41c8ENnBYKJGPfu3QCsIfBUCDPzv4Tcm3NrCHeuJGmr4F7vltdQQ0ns2u2
oYkXQGa06Xk+Y1sKswJ4KgcaqaDgrM+lyzGXC5Q61CpV/hECAwEAAaOBojCBnzAJ
BgNVHRMEAjAAMB0GA1UdDgQWBBS7kqpY+/tHnBGWaVZiXwEWn+j7XTBRBgNVHSME
SjBIgBQy62yGBExEK70MW2nLifxxDLrEXKEapBgwFjEUMBIGA1UEAwwLdGVhbTEx
NC1uZXSCFAZywBBug7tsGbAoZnp3Od1uZ6/1MBMGA1UdJQQMMAoGCCsGAQUFBwMC
MAsGA1UdDwQEAwIHgDANBgkqhkiG9w0BAQsFAAOCAQEABNPK64cP+kNxG8Bn+ymw
vIQ6AX21ETo4C8opj+WCt9OsRKcg3MwryP4yNr3eQGnEsjRv6HbjgsYl6hwXxhEw
A/b8l3W1A/UzXrXo6K156Mpwz+/ONYcl6Iu8QfDLExfeywZtragx+QltdCVoTMe1
5xVoFpLeiwv9WoAAQu2Ttg3j3NA6wbktk/3veB0OoQmh55xBtSqbSkJGa5HRbcIK
hBO/JrN2lfOa4lzm+92tUomuSGG2iRXKab7Qb98PlUfJtbZQHSX1YcBTCiNBNoiR
VQti3YsdhCOvOumt1dt/6cyorsQxcgF1AaRF9VnY0ERvj25KCH9+bpDt+6zSTsdX
Sg==
-----END CERTIFICATE-----
