Certificate:
    Data:
        Version: 3 (0x2)
        Serial Number:
            09:74:74:54:5e:3f:d6:83:da:ed:cd:ff:22:d4:0e:a4
        Signature Algorithm: sha256WithRSAEncryption
        Issuer: CN=team591-net
        Validity
            Not Before: May 18 22:36:54 2022 GMT
            Not After : May  2 22:36:54 2025 GMT
        Subject: CN=team591-client
        Subject Public Key Info:
            Public Key Algorithm: rsaEncryption
                RSA Public-Key: (2048 bit)
                Modulus:
                    00:c7:c0:cd:92:0c:13:9c:9c:4b:a5:39:10:d4:3e:
                    1c:84:83:ec:9e:29:34:f0:7e:a5:d1:f3:ed:67:6b:
                    88:94:32:1e:97:94:0c:85:c3:68:80:27:69:89:09:
                    1d:f4:85:14:52:a7:65:4e:da:00:ca:57:72:65:a6:
                    41:2e:d7:f3:ed:db:46:51:4e:14:7b:2d:bc:f5:0c:
                    3f:2d:3c:e4:63:85:a7:bb:63:f6:6d:41:7a:a4:15:
                    43:75:33:57:b8:7d:eb:9c:b0:24:0a:d3:11:23:07:
                    8e:93:ba:94:7a:77:d2:e0:5a:18:c0:22:45:39:39:
                    d6:fa:a7:ef:a4:87:28:63:4a:17:ab:6a:a5:ec:cc:
                    19:68:8b:8b:2c:68:85:fe:ba:bf:70:d7:84:6a:3a:
                    21:21:19:4a:2e:9f:12:70:d8:2b:28:72:fc:d6:e6:
                    67:c4:dc:c9:4e:b2:bd:c9:0b:e8:f4:cf:06:06:ed:
                    ca:79:b5:b5:6b:82:b2:26:8e:44:d0:52:80:d8:70:
                    21:90:80:ed:56:b4:c9:33:d8:88:04:93:cf:24:02:
                    51:14:c0:9c:83:a7:13:e1:b2:e3:44:9d:e2:4f:f8:
                    ca:cd:92:67:b9:12:4a:01:5a:9b:7d:56:46:cb:01:
                    fa:21:cc:be:9d:24:d9:24:c4:1e:53:54:9c:b1:b0:
                    de:01
                Exponent: 65537 (0x10001)
        X509v3 extensions:
            X509v3 Basic Constraints: 
                CA:FALSE
            X509v3 Subject Key Identifier: 
                67:27:E1:B6:87:3C:0F:48:00:26:B3:5F:C7:0B:BB:1C:CC:1D:E8:3B
            X509v3 Authority Key Identifier: 
                keyid:54:9A:94:02:3A:94:16:32:AD:68:84:4C:E1:F8:D3:4A:D5:69:88:41
                DirName:/CN=team591-net
                serial:32:D0:4E:63:91:84:5F:37:BC:0D:C2:78:C2:C3:67:9A:58:EB:DE:4D

            X509v3 Extended Key Usage: 
                TLS Web Client Authentication
            X509v3 Key Usage: 
                Digital Signature
    Signature Algorithm: sha256WithRSAEncryption
         c2:cc:dd:c8:00:f2:bb:d4:6c:a5:f1:32:09:1e:9d:85:da:c8:
         fb:67:55:c9:69:37:09:74:18:3f:9c:32:1d:f2:5f:62:48:6c:
         bf:81:88:f2:9d:aa:85:bf:e6:69:3a:52:fe:9e:c3:1f:af:36:
         5f:b7:63:99:7a:8c:5f:71:55:56:ed:a5:3d:fe:b2:c8:e8:96:
         51:11:a9:3e:85:70:41:33:92:8b:4b:09:29:6d:a8:a6:ca:56:
         ba:a5:48:52:f2:a9:94:87:76:78:bb:da:67:8d:12:88:93:b7:
         b8:3e:22:be:0d:ea:cd:24:b4:c7:cc:55:5c:2a:24:7a:86:5c:
         27:26:5b:f8:1a:5e:a8:63:6d:10:d7:8f:25:40:1b:87:cd:9e:
         b3:e9:9a:41:0b:d6:19:96:23:a6:cc:d3:6c:82:71:e5:8d:71:
         62:d9:bc:e7:62:ad:47:b5:49:3b:86:be:3b:88:42:0d:e2:9d:
         44:bf:86:c9:cb:7e:19:1c:fe:ab:e6:f1:aa:0c:47:28:27:43:
         e4:3c:2e:cc:b3:4a:a1:a3:64:0e:1e:9f:cf:de:10:90:62:79:
         60:93:17:67:84:a3:c6:2d:25:4d:02:4d:63:ca:1c:3e:dc:68:
         79:99:9e:ed:81:20:af:47:59:06:15:66:d0:ad:ae:06:a3:08:
         73:d9:c1:bc
-----BEGIN CERTIFICATE-----
MIIDXDCCAkSgAwIBAgIQCXR0VF4/1oPa7c3/ItQOpDANBgkqhkiG9w0BAQsFADAW
MRQwEgYDVQQDDAt0ZWFtNTkxLW5ldDAeFw0yMjA1MTgyMjM2NTRaFw0yNTA1MDIy
MjM2NTRaMBkxFzAVBgNVBAMMDnRlYW01OTEtY2xpZW50MIIBIjANBgkqhkiG9w0B
AQEFAAOCAQ8AMIIBCgKCAQEAx8DNkgwTnJxLpTkQ1D4chIPsnik08H6l0fPtZ2uI
lDIel5QMhcNogCdpiQkd9IUUUqdlTtoAyldyZaZBLtfz7dtGUU4Uey289Qw/LTzk
Y4Wnu2P2bUF6pBVDdTNXuH3rnLAkCtMRIweOk7qUenfS4FoYwCJFOTnW+qfvpIco
Y0oXq2ql7MwZaIuLLGiF/rq/cNeEajohIRlKLp8ScNgrKHL81uZnxNzJTrK9yQvo
9M8GBu3KebW1a4KyJo5E0FKA2HAhkIDtVrTJM9iIBJPPJAJRFMCcg6cT4bLjRJ3i
T/jKzZJnuRJKAVqbfVZGywH6Icy+nSTZJMQeU1ScsbDeAQIDAQABo4GiMIGfMAkG
A1UdEwQCMAAwHQYDVR0OBBYEFGcn4baHPA9IACazX8cLuxzMHeg7MFEGA1UdIwRK
MEiAFFSalAI6lBYyrWiETOH400rVaYhBoRqkGDAWMRQwEgYDVQQDDAt0ZWFtNTkx
LW5ldIIUMtBOY5GEXze8DcJ4wsNnmljr3k0wEwYDVR0lBAwwCgYIKwYBBQUHAwIw
CwYDVR0PBAQDAgeAMA0GCSqGSIb3DQEBCwUAA4IBAQDCzN3IAPK71Gyl8TIJHp2F
2sj7Z1XJaTcJdBg/nDId8l9iSGy/gYjynaqFv+ZpOlL+nsMfrzZft2OZeoxfcVVW
7aU9/rLI6JZREak+hXBBM5KLSwkpbaimyla6pUhS8qmUh3Z4u9pnjRKIk7e4PiK+
DerNJLTHzFVcKiR6hlwnJlv4Gl6oY20Q148lQBuHzZ6z6ZpBC9YZliOmzNNsgnHl
jXFi2bznYq1HtUk7hr47iEIN4p1Ev4bJy34ZHP6r5vGqDEcoJ0PkPC7Ms0qho2QO
Hp/P3hCQYnlgkxdnhKPGLSVNAk1jyhw+3Gh5mZ7tgSCvR1kGFWbQra4Gowhz2cG8
-----END CERTIFICATE-----
