Certificate:
    Data:
        Version: 3 (0x2)
        Serial Number:
            72:63:70:17:36:38:1b:21:33:5a:76:af:07:0b:35:00
        Signature Algorithm: sha256WithRSAEncryption
        Issuer: CN=team656-net
        Validity
            Not Before: May 18 23:21:58 2022 GMT
            Not After : May  2 23:21:58 2025 GMT
        Subject: CN=team656-client
        Subject Public Key Info:
            Public Key Algorithm: rsaEncryption
                RSA Public-Key: (2048 bit)
                Modulus:
                    00:d5:da:8d:8a:74:6e:01:21:46:f1:0f:00:7a:fb:
                    ce:a1:0c:9d:3f:9d:eb:65:ff:82:e7:c0:cc:fb:5e:
                    00:6f:e4:24:1b:4c:d4:cc:53:c6:21:6f:07:28:16:
                    f7:0f:05:0a:b0:0f:02:94:78:6e:84:41:82:ee:ef:
                    b2:2b:d5:14:78:9b:de:ec:af:4a:50:1a:ee:78:b4:
                    85:1f:39:5b:b1:cf:60:8f:0d:6b:15:27:c9:ce:9b:
                    98:0c:1b:b7:3b:8f:f6:08:41:a6:e0:5f:9c:60:0e:
                    c9:92:b6:0a:ac:73:3c:e1:0b:92:da:cf:de:cf:6a:
                    7b:42:a8:bc:82:25:2c:18:1b:df:5b:5f:f4:ac:11:
                    fa:6b:5a:96:93:3d:dd:aa:95:97:e1:52:43:a1:ab:
                    cc:fb:8c:4c:a3:45:d0:9a:34:9c:a7:7a:8d:73:ca:
                    c7:81:f4:e1:d0:22:1e:ac:a3:da:1d:26:8d:4d:f9:
                    0c:15:61:8b:aa:fd:cf:5d:a6:7c:78:c4:15:ed:6a:
                    74:71:fd:f5:c5:2b:44:8d:f9:c2:73:44:d1:89:8d:
                    61:d1:b6:86:67:1e:54:e7:bb:8b:b0:3a:1d:21:06:
                    35:1b:88:3f:5c:68:29:82:dd:f5:c3:1f:87:9f:c7:
                    e5:f1:ce:43:06:41:7d:d7:be:08:13:b6:37:13:27:
                    11:37
                Exponent: 65537 (0x10001)
        X509v3 extensions:
            X509v3 Basic Constraints: 
                CA:FALSE
            X509v3 Subject Key Identifier: 
                BC:A5:7D:22:BB:5C:7B:CE:C7:26:66:3F:08:3E:F4:7B:E2:26:E6:AB
            X509v3 Authority Key Identifier: 
                keyid:27:E1:75:F4:89:C7:51:08:DF:16:B6:7C:A0:2E:D8:77:BA:D2:5A:28
                DirName:/CN=team656-net
                serial:66:30:3A:EB:52:AF:DD:FE:3C:30:97:D1:2E:36:B6:CA:BB:FF:D0:77

            X509v3 Extended Key Usage: 
                TLS Web Client Authentication
            X509v3 Key Usage: 
                Digital Signature
    Signature Algorithm: sha256WithRSAEncryption
         5b:7d:9c:29:ec:f4:e4:40:e2:08:dd:4f:87:d0:a1:2b:18:d7:
         a1:4a:75:bd:98:d7:e8:67:9e:03:6c:da:87:61:e5:bb:cf:cb:
         68:1e:6f:4e:a0:34:11:93:5c:df:7c:37:b6:c5:f6:8a:cd:14:
         73:93:6d:7f:f5:98:7a:ce:0d:b0:ca:91:6c:df:c6:24:d4:62:
         a6:7f:cb:cd:a7:84:71:e1:37:2b:c6:ee:dd:1d:cf:d8:76:6a:
         31:26:18:a9:dc:43:ec:b1:4b:e3:9b:f4:1e:a9:3a:cb:6f:80:
         55:a0:2a:d8:2c:b8:e9:43:15:d5:30:23:ca:d9:64:24:f9:bd:
         c1:16:08:71:3f:15:c7:89:e7:09:42:93:08:c6:11:49:ed:3f:
         be:07:1f:b7:54:53:c1:0b:cd:4d:25:39:2b:6c:34:f0:1f:03:
         62:98:cb:f8:a4:ee:30:15:55:d7:a1:17:5d:00:01:14:6f:17:
         fe:d2:78:d7:31:a4:9a:7d:b2:c4:5c:95:20:c2:da:2d:af:46:
         ac:dc:9f:7b:49:fc:fe:b9:4a:a3:89:50:40:32:94:0b:d7:01:
         76:56:e1:e1:2b:7d:68:e9:cb:3b:30:4c:5f:2c:7e:8e:05:ac:
         d6:4d:83:de:89:68:1e:70:37:79:de:5e:f7:93:c8:b0:f8:e7:
         a1:81:8a:9a
-----BEGIN CERTIFICATE-----
MIIDXDCCAkSgAwIBAgIQcmNwFzY4GyEzWnavBws1ADANBgkqhkiG9w0BAQsFADAW
MRQwEgYDVQQDDAt0ZWFtNjU2LW5ldDAeFw0yMjA1MTgyMzIxNThaFw0yNTA1MDIy
MzIxNThaMBkxFzAVBgNVBAMMDnRlYW02NTYtY2xpZW50MIIBIjANBgkqhkiG9w0B
AQEFAAOCAQ8AMIIBCgKCAQEA1dqNinRuASFG8Q8AevvOoQydP53rZf+C58DM+14A
b+QkG0zUzFPGIW8HKBb3DwUKsA8ClHhuhEGC7u+yK9UUeJve7K9KUBrueLSFHzlb
sc9gjw1rFSfJzpuYDBu3O4/2CEGm4F+cYA7JkrYKrHM84QuS2s/ez2p7Qqi8giUs
GBvfW1/0rBH6a1qWkz3dqpWX4VJDoavM+4xMo0XQmjScp3qNc8rHgfTh0CIerKPa
HSaNTfkMFWGLqv3PXaZ8eMQV7Wp0cf31xStEjfnCc0TRiY1h0baGZx5U57uLsDod
IQY1G4g/XGgpgt31wx+Hn8fl8c5DBkF9174IE7Y3EycRNwIDAQABo4GiMIGfMAkG
A1UdEwQCMAAwHQYDVR0OBBYEFLylfSK7XHvOxyZmPwg+9HviJuarMFEGA1UdIwRK
MEiAFCfhdfSJx1EI3xa2fKAu2He60loooRqkGDAWMRQwEgYDVQQDDAt0ZWFtNjU2
LW5ldIIUZjA661Kv3f48MJfRLja2yrv/0HcwEwYDVR0lBAwwCgYIKwYBBQUHAwIw
CwYDVR0PBAQDAgeAMA0GCSqGSIb3DQEBCwUAA4IBAQBbfZwp7PTkQOII3U+H0KEr
GNehSnW9mNfoZ54DbNqHYeW7z8toHm9OoDQRk1zffDe2xfaKzRRzk21/9Zh6zg2w
ypFs38Yk1GKmf8vNp4Rx4Tcrxu7dHc/YdmoxJhip3EPssUvjm/QeqTrLb4BVoCrY
LLjpQxXVMCPK2WQk+b3BFghxPxXHiecJQpMIxhFJ7T++Bx+3VFPBC81NJTkrbDTw
HwNimMv4pO4wFVXXoRddAAEUbxf+0njXMaSafbLEXJUgwtotr0as3J97Sfz+uUqj
iVBAMpQL1wF2VuHhK31o6cs7MExfLH6OBazWTYPeiWgecDd53l73k8iw+OehgYqa
-----END CERTIFICATE-----
