Certificate:
    Data:
        Version: 3 (0x2)
        Serial Number:
            21:66:cf:15:d9:1d:4f:80:7f:a1:fe:18:33:15:90:01
        Signature Algorithm: sha256WithRSAEncryption
        Issuer: CN=team656-net
        Validity
            Not Before: May 18 23:21:58 2022 GMT
            Not After : May  2 23:21:58 2025 GMT
        Subject: CN=team656-server
        Subject Public Key Info:
            Public Key Algorithm: rsaEncryption
                RSA Public-Key: (2048 bit)
                Modulus:
                    00:da:15:3c:b3:88:e2:04:5f:6c:3f:41:9a:c0:5e:
                    8f:5a:e8:01:88:44:80:61:44:18:62:2f:74:51:38:
                    b3:a7:4a:12:e4:10:6b:16:e3:90:a9:67:63:37:2e:
                    40:7c:d6:ef:e3:2f:4b:3d:74:81:03:f5:59:91:19:
                    a8:b4:d8:e3:18:2a:2d:e4:03:62:d6:3b:25:be:5a:
                    b4:f7:a8:7f:b3:3b:43:9e:70:bc:ec:b0:b0:3a:3a:
                    f9:6e:ad:a1:07:70:d5:a3:b2:1d:ac:09:ac:68:70:
                    54:17:7c:a3:1d:c2:96:c4:2b:87:54:04:68:6d:ad:
                    b1:0c:cf:fa:f5:ce:9d:09:a7:60:66:f9:43:6d:ca:
                    bc:39:61:2b:9d:ef:cc:40:a1:bb:5a:7d:2e:30:20:
                    58:d8:ca:c7:85:3a:1c:c9:69:f7:ed:83:a7:3c:cb:
                    6a:2c:46:6c:d5:53:73:08:86:de:05:fa:56:33:74:
                    5c:c0:4a:cf:db:b9:aa:18:80:a9:02:6f:bc:e1:3d:
                    1d:e5:50:d2:93:7d:e4:f2:52:39:13:b6:32:d8:d9:
                    f0:7a:78:90:c1:9f:1f:ee:37:33:46:47:85:44:07:
                    c4:47:21:37:6e:28:1f:00:a0:65:da:6d:80:4c:e5:
                    90:2e:e1:fc:fd:80:99:a3:b5:86:bb:bc:e2:f3:fa:
                    9c:8f
                Exponent: 65537 (0x10001)
        X509v3 extensions:
            X509v3 Basic Constraints: 
                CA:FALSE
            X509v3 Subject Key Identifier: 
                D6:7E:FA:CF:CD:7F:55:BE:20:BB:8C:01:BF:73:97:AE:C6:8E:7F:78
            X509v3 Authority Key Identifier: 
                keyid:27:E1:75:F4:89:C7:51:08:DF:16:B6:7C:A0:2E:D8:77:BA:D2:5A:28
                DirName:/CN=team656-net
                serial:66:30:3A:EB:52:AF:DD:FE:3C:30:97:D1:2E:36:B6:CA:BB:FF:D0:77

            X509v3 Extended Key Usage: 
                TLS Web Server Authentication
            X509v3 Key Usage: 
                Digital Signature, Key Encipherment
            X509v3 Subject Alternative Name: 
                DNS:team656-server
    Signature Algorithm: sha256WithRSAEncryption
         38:12:42:04:8a:75:73:0b:67:15:36:f2:0c:59:1e:6b:fb:a3:
         dc:b1:6f:61:af:09:48:4a:75:9a:fe:cb:c9:b0:da:40:83:76:
         91:28:1e:21:a0:88:83:35:6e:68:c2:36:3f:6c:81:51:a7:88:
         eb:67:e9:b2:d3:a0:0e:6d:1a:e1:e8:cf:f6:7e:25:81:9a:ff:
         20:48:aa:36:5d:b1:2f:7c:ab:bf:f5:9d:01:ae:39:79:0f:e5:
         6c:fe:11:6c:f1:b0:3b:2f:8c:74:0c:8c:4c:3f:19:7a:4d:85:
         47:f2:68:c2:f8:a6:14:22:f4:a4:6e:87:7d:fb:ee:03:1f:e3:
         94:c9:f9:d6:46:06:75:98:c7:6f:eb:fe:05:d5:c0:69:d1:f9:
         fa:9c:c1:2d:41:46:f9:af:39:b8:40:10:bf:52:c9:12:d1:ab:
         50:1b:ea:6b:43:55:18:fb:50:df:8d:a1:2b:c7:c4:ad:2d:1a:
         bc:74:c1:d9:db:68:a4:9b:0c:5a:4e:23:e1:5f:63:01:a7:95:
         b8:4a:ef:0b:dc:c2:21:4d:3f:01:ec:59:c9:88:a2:b0:4a:f3:
         bb:5b:84:64:6a:d2:c7:b3:c4:76:c9:ce:41:f6:cc:35:68:79:
         ac:b6:5e:e1:46:59:66:9a:88:8f:71:f4:aa:9e:2d:9c:d2:ee:
         2d:8c:cf:b3
-----BEGIN CERTIFICATE-----
MIIDdzCCAl+gAwIBAgIQIWbPFdkdT4B/of4YMxWQATANBgkqhkiG9w0BAQsFADAW
MRQwEgYDVQQDDAt0ZWFtNjU2LW5ldDAeFw0yMjA1MTgyMzIxNThaFw0yNTA1MDIy
MzIxNThaMBkxFzAVBgNVBAMMDnRlYW02NTYtc2VydmVyMIIBIjANBgkqhkiG9w0B
AQEFAAOCAQ8AMIIBCgKCAQEA2hU8s4jiBF9sP0GawF6PWugBiESAYUQYYi90UTiz
p0oS5BBrFuOQqWdjNy5AfNbv4y9LPXSBA/VZkRmotNjjGCot5ANi1jslvlq096h/
sztDnnC87LCwOjr5bq2hB3DVo7IdrAmsaHBUF3yjHcKWxCuHVARoba2xDM/69c6d
CadgZvlDbcq8OWErne/MQKG7Wn0uMCBY2MrHhTocyWn37YOnPMtqLEZs1VNzCIbe
BfpWM3RcwErP27mqGICpAm+84T0d5VDSk33k8lI5E7Yy2NnweniQwZ8f7jczRkeF
RAfERyE3bigfAKBl2m2ATOWQLuH8/YCZo7WGu7zi8/qcjwIDAQABo4G9MIG6MAkG
A1UdEwQCMAAwHQYDVR0OBBYEFNZ++s/Nf1W+ILuMAb9zl67Gjn94MFEGA1UdIwRK
MEiAFCfhdfSJx1EI3xa2fKAu2He60loooRqkGDAWMRQwEgYDVQQDDAt0ZWFtNjU2
LW5ldIIUZjA661Kv3f48MJfRLja2yrv/0HcwEwYDVR0lBAwwCgYIKwYBBQUHAwEw
CwYDVR0PBAQDAgWgMBkGA1UdEQQSMBCCDnRlYW02NTYtc2VydmVyMA0GCSqGSIb3
DQEBCwUAA4IBAQA4EkIEinVzC2cVNvIMWR5r+6PcsW9hrwlISnWa/svJsNpAg3aR
KB4hoIiDNW5owjY/bIFRp4jrZ+my06AObRrh6M/2fiWBmv8gSKo2XbEvfKu/9Z0B
rjl5D+Vs/hFs8bA7L4x0DIxMPxl6TYVH8mjC+KYUIvSkbod9++4DH+OUyfnWRgZ1
mMdv6/4F1cBp0fn6nMEtQUb5rzm4QBC/UskS0atQG+prQ1UY+1DfjaErx8StLRq8
dMHZ22ikmwxaTiPhX2MBp5W4Su8L3MIhTT8B7FnJiKKwSvO7W4RkatLHs8R2yc5B
9sw1aHmstl7hRllmmoiPcfSqni2c0u4tjM+z
-----END CERTIFICATE-----
