Certificate:
    Data:
        Version: 3 (0x2)
        Serial Number:
            87:12:93:2f:b1:f3:c6:a3:a7:cc:4b:66:d6:14:b0:2b
        Signature Algorithm: sha256WithRSAEncryption
        Issuer: CN=team337-net
        Validity
            Not Before: May 18 20:29:23 2022 GMT
            Not After : May  2 20:29:23 2025 GMT
        Subject: CN=team337-server
        Subject Public Key Info:
            Public Key Algorithm: rsaEncryption
                RSA Public-Key: (2048 bit)
                Modulus:
                    00:c0:47:b1:6b:05:d4:4d:f6:4a:c3:e1:74:e0:bb:
                    4d:38:11:fe:4c:a2:84:0b:64:e4:08:65:66:d2:c5:
                    54:60:62:2a:ea:19:23:2b:2a:95:11:8e:4a:17:96:
                    ad:ec:5d:ab:cc:34:9b:89:bc:5c:b5:70:c8:00:ef:
                    73:27:4e:2b:dc:13:0a:30:57:ea:cb:08:60:05:2a:
                    14:26:b9:a5:19:0b:c0:82:c2:21:d6:90:87:a9:3a:
                    1e:58:95:2a:aa:15:f1:68:b2:87:ad:ed:cb:d1:9f:
                    ab:48:68:1e:1a:9c:26:93:f3:a6:7d:b4:b8:7d:db:
                    44:a6:6c:cf:73:bf:a4:eb:42:c2:53:6d:60:1f:31:
                    9c:cf:7d:fc:26:5a:86:3f:a2:f7:34:ea:16:84:44:
                    af:da:e7:65:8a:b2:25:e3:b7:8b:b2:ca:c7:7d:46:
                    f1:55:13:ff:1b:78:70:18:dc:49:51:2e:ba:a1:b5:
                    03:b0:d7:17:2d:54:79:b8:67:84:6b:e3:e1:ba:b4:
                    20:aa:71:9d:95:10:4a:aa:03:c9:4b:43:6c:d9:a3:
                    16:88:82:5c:b7:2a:de:69:f1:0a:96:e7:bf:6b:79:
                    54:93:93:c2:a6:4a:e0:7b:84:93:b6:f4:9e:a4:0c:
                    e1:ad:98:97:f5:c9:c1:84:25:a4:af:f2:61:2c:25:
                    4d:8f
                Exponent: 65537 (0x10001)
        X509v3 extensions:
            X509v3 Basic Constraints: 
                CA:FALSE
            X509v3 Subject Key Identifier: 
                0F:D7:A9:D4:13:39:4F:4D:F0:0E:25:28:9C:10:07:FB:E1:1D:A4:D6
            X509v3 Authority Key Identifier: 
                keyid:89:65:67:25:86:25:55:6A:10:45:98:79:12:08:63:AF:61:AD:10:C1
                DirName:/CN=team337-net
                serial:2D:6B:80:45:BB:F8:C5:A1:26:40:70:28:06:B5:30:AC:9F:CE:9F:E4

            X509v3 Extended Key Usage: 
                TLS Web Server Authentication
            X509v3 Key Usage: 
                Digital Signature, Key Encipherment
            X509v3 Subject Alternative Name: 
                DNS:team337-server
    Signature Algorithm: sha256WithRSAEncryption
         47:b6:47:7f:06:47:ef:7e:2a:94:76:a7:85:e3:59:ea:3f:b3:
         e2:57:d4:f5:1a:fe:a3:96:77:c1:17:9e:4b:34:c8:56:03:44:
         2b:d7:30:53:1b:76:ea:e5:b9:da:7d:c6:58:93:9e:5c:5b:60:
         68:99:e2:01:a1:42:8b:11:9e:d0:5a:0e:fc:f0:ec:7d:90:01:
         70:21:e2:0b:29:40:e7:83:0f:1c:aa:d9:4a:dc:e0:27:93:c0:
         de:4c:b0:19:68:31:e6:55:d6:57:34:09:4c:38:76:d0:df:3c:
         f5:b7:d3:33:b8:07:1f:09:33:fd:d2:ad:59:f4:f3:2a:ae:c7:
         61:11:1d:3e:60:2f:f3:95:6d:da:6c:48:8d:56:18:f6:cd:d2:
         73:56:8d:df:38:d4:81:f5:bb:a1:77:12:33:cd:83:cf:a0:e5:
         b5:a4:88:a6:c9:41:45:f2:ce:a4:a7:fa:f5:ef:49:11:79:9c:
         c2:80:1e:34:f7:dd:9b:0f:6d:a8:f5:17:aa:70:91:36:8e:2c:
         22:23:2c:9e:fa:22:b2:2e:df:6c:05:23:40:e9:66:7c:8a:bb:
         59:ae:9c:76:42:dd:dd:44:8b:ec:62:64:82:fa:47:be:52:9c:
         90:f3:2c:f5:d0:21:82:12:85:b6:a6:47:6b:37:05:02:52:a6:
         ed:52:82:f9
-----BEGIN CERTIFICATE-----
MIIDeDCCAmCgAwIBAgIRAIcSky+x88ajp8xLZtYUsCswDQYJKoZIhvcNAQELBQAw
FjEUMBIGA1UEAwwLdGVhbTMzNy1uZXQwHhcNMjIwNTE4MjAyOTIzWhcNMjUwNTAy
MjAyOTIzWjAZMRcwFQYDVQQDDA50ZWFtMzM3LXNlcnZlcjCCASIwDQYJKoZIhvcN
AQEBBQADggEPADCCAQoCggEBAMBHsWsF1E32SsPhdOC7TTgR/kyihAtk5AhlZtLF
VGBiKuoZIysqlRGOSheWrexdq8w0m4m8XLVwyADvcydOK9wTCjBX6ssIYAUqFCa5
pRkLwILCIdaQh6k6HliVKqoV8Wiyh63ty9Gfq0hoHhqcJpPzpn20uH3bRKZsz3O/
pOtCwlNtYB8xnM99/CZahj+i9zTqFoREr9rnZYqyJeO3i7LKx31G8VUT/xt4cBjc
SVEuuqG1A7DXFy1UebhnhGvj4bq0IKpxnZUQSqoDyUtDbNmjFoiCXLcq3mnxCpbn
v2t5VJOTwqZK4HuEk7b0nqQM4a2Yl/XJwYQlpK/yYSwlTY8CAwEAAaOBvTCBujAJ
BgNVHRMEAjAAMB0GA1UdDgQWBBQP16nUEzlPTfAOJSicEAf74R2k1jBRBgNVHSME
SjBIgBSJZWclhiVVahBFmHkSCGOvYa0QwaEapBgwFjEUMBIGA1UEAwwLdGVhbTMz
Ny1uZXSCFC1rgEW7+MWhJkBwKAa1MKyfzp/kMBMGA1UdJQQMMAoGCCsGAQUFBwMB
MAsGA1UdDwQEAwIFoDAZBgNVHREEEjAQgg50ZWFtMzM3LXNlcnZlcjANBgkqhkiG
9w0BAQsFAAOCAQEAR7ZHfwZH734qlHanheNZ6j+z4lfU9Rr+o5Z3wReeSzTIVgNE
K9cwUxt26uW52n3GWJOeXFtgaJniAaFCixGe0FoO/PDsfZABcCHiCylA54MPHKrZ
StzgJ5PA3kywGWgx5lXWVzQJTDh20N889bfTM7gHHwkz/dKtWfTzKq7HYREdPmAv
85Vt2mxIjVYY9s3Sc1aN3zjUgfW7oXcSM82Dz6DltaSIpslBRfLOpKf69e9JEXmc
woAeNPfdmw9tqPUXqnCRNo4sIiMsnvoisi7fbAUjQOlmfIq7Wa6cdkLd3USL7GJk
gvpHvlKckPMs9dAhghKFtqZHazcFAlKm7VKC+Q==
-----END CERTIFICATE-----
