Certificate:
    Data:
        Version: 3 (0x2)
        Serial Number:
            47:36:b2:ca:1a:b2:02:1d:8a:20:8f:84:f8:81:9e:9c
        Signature Algorithm: sha256WithRSAEncryption
        Issuer: CN=team519-net
        Validity
            Not Before: May 18 21:57:19 2022 GMT
            Not After : May  2 21:57:19 2025 GMT
        Subject: CN=team519-server
        Subject Public Key Info:
            Public Key Algorithm: rsaEncryption
                RSA Public-Key: (2048 bit)
                Modulus:
                    00:c6:eb:32:16:ef:dd:4d:2e:a4:62:cd:33:d7:ad:
                    4b:c0:58:81:a3:85:94:27:93:97:71:80:7b:0d:29:
                    0e:7e:64:c1:a8:b3:e4:74:07:f1:0e:78:9f:0a:d2:
                    9a:ad:d2:df:bf:88:36:91:e1:2a:b7:63:dc:86:42:
                    f3:3f:68:5f:47:27:53:7e:40:e6:8b:c1:29:ea:d7:
                    4f:08:09:f3:92:9b:6a:64:c7:34:85:af:3f:f0:f9:
                    a3:d4:c1:d4:d1:2d:0c:20:fe:f8:0b:49:1c:ec:7d:
                    84:05:de:0d:a7:08:d6:fa:ef:77:19:fa:81:82:22:
                    57:87:07:fd:de:e6:f7:ad:ee:e2:7d:7e:4d:90:50:
                    99:ab:ee:59:12:dd:78:d1:63:99:09:d5:39:e6:e6:
                    9c:f4:d0:c0:60:29:63:f1:53:9f:f4:01:9b:70:8f:
                    a4:e0:5a:38:6e:ed:6b:2f:72:3d:47:eb:6f:61:7f:
                    de:88:b0:07:65:7f:05:d4:d0:2f:be:b4:47:06:9a:
                    a5:7a:45:90:5f:06:36:10:3d:22:34:26:3c:5b:0c:
                    e8:5c:4d:b3:84:68:d9:94:ae:47:cb:9f:35:66:53:
                    90:d6:c8:35:0b:de:05:f7:f5:b6:48:3d:b5:7b:e6:
                    7a:ca:cb:49:d9:f2:d7:a3:f3:ed:78:c4:71:60:1a:
                    21:51
                Exponent: 65537 (0x10001)
        X509v3 extensions:
            X509v3 Basic Constraints: 
                CA:FALSE
            X509v3 Subject Key Identifier: 
                2A:92:30:7D:20:41:28:3C:7A:87:19:63:C0:1B:BE:6D:16:64:B9:26
            X509v3 Authority Key Identifier: 
                keyid:1F:DA:30:53:D2:01:ED:44:FB:AD:13:EB:E6:8B:7E:28:0A:D4:63:C7
                DirName:/CN=team519-net
                serial:04:32:7A:DE:CA:5D:75:60:C6:42:23:FD:90:F3:F5:82:8F:DE:5E:C9

            X509v3 Extended Key Usage: 
                TLS Web Server Authentication
            X509v3 Key Usage: 
                Digital Signature, Key Encipherment
            X509v3 Subject Alternative Name: 
                DNS:team519-server
    Signature Algorithm: sha256WithRSAEncryption
         41:92:ff:c7:3a:17:cb:bf:2a:2d:92:12:66:72:11:0b:56:a7:
         d8:2a:b5:71:2a:ae:40:6d:7c:c1:75:f2:b3:8b:7e:66:05:91:
         59:cf:65:a3:6b:86:34:2b:42:a5:9e:96:6c:d5:df:51:27:43:
         1b:16:ce:38:68:c9:58:38:46:88:65:15:d4:cf:cd:32:6b:59:
         24:38:ca:94:ba:67:cf:2d:38:fd:3a:c6:21:c4:c4:e9:70:e5:
         24:f7:7d:3d:8d:03:fa:0e:b1:ca:53:87:aa:bf:03:ee:0a:f7:
         5d:80:7f:d8:84:09:4b:7e:3d:33:23:e6:4e:eb:ac:93:40:79:
         c4:95:b1:98:09:d8:22:17:03:cf:56:11:20:b4:5b:44:20:f2:
         42:dc:ae:6d:b7:f4:c3:4d:c2:79:b0:d9:88:f5:ff:61:43:28:
         d1:38:f9:c9:87:dc:cb:d1:39:87:55:a0:96:fe:b3:9d:43:2b:
         8c:4c:e2:f3:53:7a:43:ff:8a:f6:a6:01:22:a7:b6:fe:0f:0e:
         74:4b:2a:a1:1d:e3:86:8e:70:35:42:ad:32:63:8f:16:01:6e:
         cb:94:c9:4b:ce:4c:90:da:1e:57:3c:99:d0:8f:23:d9:0c:97:
         66:99:aa:23:df:f1:95:02:b6:f1:de:e5:0f:83:9f:ab:74:ee:
         bf:e8:e0:1d
-----BEGIN CERTIFICATE-----
MIIDdzCCAl+gAwIBAgIQRzayyhqyAh2KII+E+IGenDANBgkqhkiG9w0BAQsFADAW
MRQwEgYDVQQDDAt0ZWFtNTE5LW5ldDAeFw0yMjA1MTgyMTU3MTlaFw0yNTA1MDIy
MTU3MTlaMBkxFzAVBgNVBAMMDnRlYW01MTktc2VydmVyMIIBIjANBgkqhkiG9w0B
AQEFAAOCAQ8AMIIBCgKCAQEAxusyFu/dTS6kYs0z161LwFiBo4WUJ5OXcYB7DSkO
fmTBqLPkdAfxDnifCtKardLfv4g2keEqt2PchkLzP2hfRydTfkDmi8Ep6tdPCAnz
kptqZMc0ha8/8Pmj1MHU0S0MIP74C0kc7H2EBd4NpwjW+u93GfqBgiJXhwf93ub3
re7ifX5NkFCZq+5ZEt140WOZCdU55uac9NDAYClj8VOf9AGbcI+k4Fo4bu1rL3I9
R+tvYX/eiLAHZX8F1NAvvrRHBpqlekWQXwY2ED0iNCY8WwzoXE2zhGjZlK5Hy581
ZlOQ1sg1C94F9/W2SD21e+Z6ystJ2fLXo/PteMRxYBohUQIDAQABo4G9MIG6MAkG
A1UdEwQCMAAwHQYDVR0OBBYEFCqSMH0gQSg8eocZY8Abvm0WZLkmMFEGA1UdIwRK
MEiAFB/aMFPSAe1E+60T6+aLfigK1GPHoRqkGDAWMRQwEgYDVQQDDAt0ZWFtNTE5
LW5ldIIUBDJ63spddWDGQiP9kPP1go/eXskwEwYDVR0lBAwwCgYIKwYBBQUHAwEw
CwYDVR0PBAQDAgWgMBkGA1UdEQQSMBCCDnRlYW01MTktc2VydmVyMA0GCSqGSIb3
DQEBCwUAA4IBAQBBkv/HOhfLvyotkhJmchELVqfYKrVxKq5AbXzBdfKzi35mBZFZ
z2Wja4Y0K0KlnpZs1d9RJ0MbFs44aMlYOEaIZRXUz80ya1kkOMqUumfPLTj9OsYh
xMTpcOUk9309jQP6DrHKU4eqvwPuCvddgH/YhAlLfj0zI+ZO66yTQHnElbGYCdgi
FwPPVhEgtFtEIPJC3K5tt/TDTcJ5sNmI9f9hQyjROPnJh9zL0TmHVaCW/rOdQyuM
TOLzU3pD/4r2pgEip7b+Dw50SyqhHeOGjnA1Qq0yY48WAW7LlMlLzkyQ2h5XPJnQ
jyPZDJdmmaoj3/GVArbx3uUPg5+rdO6/6OAd
-----END CERTIFICATE-----
