Certificate:
    Data:
        Version: 3 (0x2)
        Serial Number:
            ad:83:55:10:ec:82:7b:c7:97:b1:d9:ca:70:2a:f6:22
        Signature Algorithm: sha256WithRSAEncryption
        Issuer: CN=team639-net
        Validity
            Not Before: May 18 22:58:34 2022 GMT
            Not After : May  2 22:58:34 2025 GMT
        Subject: CN=team639-client
        Subject Public Key Info:
            Public Key Algorithm: rsaEncryption
                RSA Public-Key: (2048 bit)
                Modulus:
                    00:cf:82:1b:1d:d1:4c:f8:af:f6:d0:2e:39:1f:9e:
                    da:42:2d:4d:08:a7:f4:fc:7b:6d:c7:69:5d:08:ff:
                    16:ef:92:bf:43:6d:14:47:1d:e1:3c:84:9c:61:12:
                    a1:b6:d4:6f:31:c7:26:de:37:fe:b1:b1:4d:6e:b1:
                    69:69:d0:ee:4d:ce:40:a3:6c:fa:bb:8e:75:6d:21:
                    81:82:03:ad:6c:d7:14:c3:ef:d6:26:dd:88:a6:0f:
                    70:d3:53:d8:1b:7d:e8:31:9c:71:71:98:5a:04:fa:
                    3b:8f:02:98:ad:d3:61:fa:e4:96:53:23:03:68:51:
                    f1:ce:9f:75:92:f0:fd:d8:04:d0:92:c6:1f:a9:04:
                    40:e4:02:87:d2:ba:d3:99:0d:91:59:a5:04:7a:7d:
                    a2:72:8b:38:c6:83:d9:75:13:8c:6f:e9:cc:b7:01:
                    ff:aa:21:5f:2d:46:ec:13:06:42:90:6b:ef:99:0c:
                    4a:56:b0:8a:b0:f0:2c:3f:36:23:87:55:5e:82:5e:
                    00:11:d1:91:17:41:e2:28:4e:76:d8:45:88:85:11:
                    3e:63:a3:d1:15:01:50:c8:42:ca:a1:ed:1f:48:5b:
                    c3:59:9c:a0:fd:00:74:9e:bc:ed:02:5e:b0:4f:8b:
                    5c:24:55:91:ec:10:9d:7b:1a:0b:55:60:8c:60:91:
                    05:b9
                Exponent: 65537 (0x10001)
        X509v3 extensions:
            X509v3 Basic Constraints: 
                CA:FALSE
            X509v3 Subject Key Identifier: 
                52:D9:57:C2:4A:10:6A:51:B9:55:CE:05:09:7E:1D:8F:DF:AB:E6:10
            X509v3 Authority Key Identifier: 
                keyid:47:01:E0:16:00:46:76:0F:FE:8D:58:72:57:B7:72:A5:0E:86:D7:AB
                DirName:/CN=team639-net
                serial:1B:28:A5:C1:9A:B0:44:69:3A:94:3B:CB:AE:DD:3E:A7:E1:B7:C1:86

            X509v3 Extended Key Usage: 
                TLS Web Client Authentication
            X509v3 Key Usage: 
                Digital Signature
    Signature Algorithm: sha256WithRSAEncryption
         3e:73:f2:9d:85:bb:3f:2f:32:13:18:b1:3c:70:7a:81:0c:25:
         31:49:1a:e9:d4:30:5a:91:fd:4c:9f:33:dd:7a:50:dc:f4:79:
         28:c8:b6:b5:fc:76:ba:ae:60:46:1e:03:a7:aa:fa:b4:6c:18:
         1e:f5:51:83:28:e1:fd:c4:ca:41:ce:6f:c4:72:d6:d6:5d:12:
         26:e0:75:b9:a7:85:5c:ca:7c:50:80:ee:a9:a6:67:e1:1f:ee:
         bd:a8:fd:64:64:35:54:ff:83:2f:b2:c1:2f:d7:86:d9:02:cd:
         50:3d:8c:ef:c1:2c:33:c0:58:61:f8:e1:8b:59:5c:b6:57:c2:
         63:c3:f6:1c:cd:b0:40:3b:6f:af:a9:96:b3:19:80:b6:4d:f3:
         78:8e:9e:b6:0f:74:f8:e2:62:6e:82:ff:b7:a9:d9:ad:1d:6a:
         75:d6:f3:00:a1:71:1d:e0:a4:b9:a5:6b:d0:29:b8:f3:61:e3:
         bc:1e:ad:05:63:69:83:50:bb:66:2a:0a:41:ac:8a:0f:f0:12:
         57:75:c5:2b:e7:e4:ab:d4:29:6b:e8:47:87:ea:93:a6:16:bc:
         64:29:4d:13:33:54:5b:e2:03:c6:1c:ed:37:b1:52:63:f9:58:
         04:dc:86:af:55:5b:88:0e:91:ad:e0:0f:18:a3:84:07:e7:66:
         a8:2c:47:18
-----BEGIN CERTIFICATE-----
MIIDXTCCAkWgAwIBAgIRAK2DVRDsgnvHl7HZynAq9iIwDQYJKoZIhvcNAQELBQAw
FjEUMBIGA1UEAwwLdGVhbTYzOS1uZXQwHhcNMjIwNTE4MjI1ODM0WhcNMjUwNTAy
MjI1ODM0WjAZMRcwFQYDVQQDDA50ZWFtNjM5LWNsaWVudDCCASIwDQYJKoZIhvcN
AQEBBQADggEPADCCAQoCggEBAM+CGx3RTPiv9tAuOR+e2kItTQin9Px7bcdpXQj/
Fu+Sv0NtFEcd4TyEnGESobbUbzHHJt43/rGxTW6xaWnQ7k3OQKNs+ruOdW0hgYID
rWzXFMPv1ibdiKYPcNNT2Bt96DGccXGYWgT6O48CmK3TYfrkllMjA2hR8c6fdZLw
/dgE0JLGH6kEQOQCh9K605kNkVmlBHp9onKLOMaD2XUTjG/pzLcB/6ohXy1G7BMG
QpBr75kMSlawirDwLD82I4dVXoJeABHRkRdB4ihOdthFiIURPmOj0RUBUMhCyqHt
H0hbw1mcoP0AdJ687QJesE+LXCRVkewQnXsaC1VgjGCRBbkCAwEAAaOBojCBnzAJ
BgNVHRMEAjAAMB0GA1UdDgQWBBRS2VfCShBqUblVzgUJfh2P36vmEDBRBgNVHSME
SjBIgBRHAeAWAEZ2D/6NWHJXt3KlDobXq6EapBgwFjEUMBIGA1UEAwwLdGVhbTYz
OS1uZXSCFBsopcGasERpOpQ7y67dPqfht8GGMBMGA1UdJQQMMAoGCCsGAQUFBwMC
MAsGA1UdDwQEAwIHgDANBgkqhkiG9w0BAQsFAAOCAQEAPnPynYW7Py8yExixPHB6
gQwlMUka6dQwWpH9TJ8z3XpQ3PR5KMi2tfx2uq5gRh4Dp6r6tGwYHvVRgyjh/cTK
Qc5vxHLW1l0SJuB1uaeFXMp8UIDuqaZn4R/uvaj9ZGQ1VP+DL7LBL9eG2QLNUD2M
78EsM8BYYfjhi1lctlfCY8P2HM2wQDtvr6mWsxmAtk3zeI6etg90+OJiboL/t6nZ
rR1qddbzAKFxHeCkuaVr0Cm482HjvB6tBWNpg1C7ZioKQayKD/ASV3XFK+fkq9Qp
a+hHh+qTpha8ZClNEzNUW+IDxhztN7FSY/lYBNyGr1VbiA6RreAPGKOEB+dmqCxH
GA==
-----END CERTIFICATE-----
