Certificate:
    Data:
        Version: 3 (0x2)
        Serial Number:
            b5:fa:3e:e0:6a:6d:8e:0e:c9:b1:8c:bb:0d:96:61:b7
        Signature Algorithm: sha256WithRSAEncryption
        Issuer: CN=team594-net
        Validity
            Not Before: May 18 22:37:37 2022 GMT
            Not After : May  2 22:37:37 2025 GMT
        Subject: CN=team594-client
        Subject Public Key Info:
            Public Key Algorithm: rsaEncryption
                RSA Public-Key: (2048 bit)
                Modulus:
                    00:e5:af:24:40:38:43:83:d2:8b:15:d6:b1:6d:1d:
                    41:2c:99:c7:a0:40:44:b1:9d:f7:83:b5:c6:c3:61:
                    ce:5a:2e:b7:83:95:c1:f4:89:ae:dd:c0:e4:96:62:
                    4e:31:e3:8d:24:58:4a:65:00:2c:af:d8:2e:d1:72:
                    5b:e3:d3:b5:f1:ff:2f:d4:7c:b9:1f:13:f9:85:a8:
                    0e:eb:23:dc:27:91:f7:5f:d9:3b:d6:64:49:3e:6f:
                    72:75:74:dd:07:27:69:64:47:ba:02:23:7b:83:24:
                    ab:0e:10:db:a3:a7:bf:f7:a9:ec:d6:f9:42:87:22:
                    41:eb:27:84:a1:1e:00:f8:c1:13:f9:ab:ed:2c:e5:
                    c5:11:44:84:17:c6:3a:0d:6e:93:a1:5e:43:36:ff:
                    7c:f7:d6:3d:2b:5e:4b:d6:c3:ac:7a:45:da:5c:b8:
                    43:c3:29:fb:a0:c1:99:b7:0d:43:eb:30:07:7e:c2:
                    42:29:9d:92:1b:7f:3f:f6:dd:18:13:58:6a:52:37:
                    d4:73:62:14:a9:45:5a:18:4e:b4:be:35:d4:68:82:
                    48:13:1e:09:5c:28:d2:98:1c:9d:c6:26:66:a8:18:
                    e2:a4:10:63:f5:42:a7:05:c4:bd:03:df:4a:2d:dd:
                    f2:0f:93:92:05:e6:4e:f6:5d:b5:64:f0:22:c0:88:
                    f4:77
                Exponent: 65537 (0x10001)
        X509v3 extensions:
            X509v3 Basic Constraints: 
                CA:FALSE
            X509v3 Subject Key Identifier: 
                B2:79:AB:8A:2A:38:4A:D2:B4:81:CE:B0:D5:43:E2:BC:E4:70:48:6A
            X509v3 Authority Key Identifier: 
                keyid:9E:72:86:BD:D5:48:E0:04:E4:1F:94:37:6B:76:F1:C1:B8:FF:3C:16
                DirName:/CN=team594-net
                serial:03:4F:D0:92:22:DE:6F:2A:AD:6E:96:33:C9:18:85:E7:35:2B:35:E6

            X509v3 Extended Key Usage: 
                TLS Web Client Authentication
            X509v3 Key Usage: 
                Digital Signature
    Signature Algorithm: sha256WithRSAEncryption
         1d:ba:da:c3:b2:b5:8c:90:3d:e1:81:11:63:46:1a:2b:98:2a:
         4b:30:ab:c4:7f:28:cc:d1:77:5f:9a:9d:75:9b:be:28:57:fd:
         36:7e:4d:56:cc:7e:52:c8:a8:85:29:94:fc:58:c3:18:c5:b6:
         05:d5:51:7c:1c:fc:8c:71:af:a4:38:15:bb:70:fc:84:78:d2:
         a4:ea:6d:b7:86:16:50:53:e1:a7:7e:1a:32:51:b4:34:71:7c:
         bd:9e:9b:48:17:67:67:b8:84:f0:e1:36:85:26:dc:bd:bc:fd:
         a1:bd:7e:a7:e9:b5:a5:0f:63:39:2a:62:92:e8:75:af:81:28:
         44:5d:3f:4c:7e:2f:55:fe:2e:8f:d8:40:9c:a1:49:cf:e3:26:
         14:93:9c:77:29:32:b4:c7:9c:fd:7a:68:20:90:63:cb:b6:ee:
         30:ab:70:6d:4d:57:15:0c:8d:08:cd:60:50:8e:7c:f6:db:73:
         1e:3b:81:08:51:80:a5:ed:07:39:f8:49:a5:80:30:8b:54:81:
         22:c7:46:00:c9:35:11:0a:81:2d:7e:da:f8:97:a0:2d:84:40:
         ff:c6:26:1f:c9:39:d5:05:8a:d0:9f:5a:ae:90:bd:34:1c:c1:
         bb:b7:8e:52:ab:3e:ea:44:1d:db:d5:86:cc:25:46:bd:97:d8:
         86:5a:97:5e
-----BEGIN CERTIFICATE-----
MIIDXTCCAkWgAwIBAgIRALX6PuBqbY4OybGMuw2WYbcwDQYJKoZIhvcNAQELBQAw
FjEUMBIGA1UEAwwLdGVhbTU5NC1uZXQwHhcNMjIwNTE4MjIzNzM3WhcNMjUwNTAy
MjIzNzM3WjAZMRcwFQYDVQQDDA50ZWFtNTk0LWNsaWVudDCCASIwDQYJKoZIhvcN
AQEBBQADggEPADCCAQoCggEBAOWvJEA4Q4PSixXWsW0dQSyZx6BARLGd94O1xsNh
zlout4OVwfSJrt3A5JZiTjHjjSRYSmUALK/YLtFyW+PTtfH/L9R8uR8T+YWoDusj
3CeR91/ZO9ZkST5vcnV03QcnaWRHugIje4Mkqw4Q26Onv/ep7Nb5QociQesnhKEe
APjBE/mr7SzlxRFEhBfGOg1uk6FeQzb/fPfWPSteS9bDrHpF2ly4Q8Mp+6DBmbcN
Q+swB37CQimdkht/P/bdGBNYalI31HNiFKlFWhhOtL411GiCSBMeCVwo0pgcncYm
ZqgY4qQQY/VCpwXEvQPfSi3d8g+TkgXmTvZdtWTwIsCI9HcCAwEAAaOBojCBnzAJ
BgNVHRMEAjAAMB0GA1UdDgQWBBSyeauKKjhK0rSBzrDVQ+K85HBIajBRBgNVHSME
SjBIgBSecoa91UjgBOQflDdrdvHBuP88FqEapBgwFjEUMBIGA1UEAwwLdGVhbTU5
NC1uZXSCFANP0JIi3m8qrW6WM8kYhec1KzXmMBMGA1UdJQQMMAoGCCsGAQUFBwMC
MAsGA1UdDwQEAwIHgDANBgkqhkiG9w0BAQsFAAOCAQEAHbraw7K1jJA94YERY0Ya
K5gqSzCrxH8ozNF3X5qddZu+KFf9Nn5NVsx+UsiohSmU/FjDGMW2BdVRfBz8jHGv
pDgVu3D8hHjSpOptt4YWUFPhp34aMlG0NHF8vZ6bSBdnZ7iE8OE2hSbcvbz9ob1+
p+m1pQ9jOSpikuh1r4EoRF0/TH4vVf4uj9hAnKFJz+MmFJOcdykytMec/XpoIJBj
y7buMKtwbU1XFQyNCM1gUI589ttzHjuBCFGApe0HOfhJpYAwi1SBIsdGAMk1EQqB
LX7a+JegLYRA/8YmH8k51QWK0J9arpC9NBzBu7eOUqs+6kQd29WGzCVGvZfYhlqX
Xg==
-----END CERTIFICATE-----
