Certificate:
    Data:
        Version: 3 (0x2)
        Serial Number:
            02:d6:73:ed:09:0c:93:ac:da:44:66:74:c4:e5:a0:31
        Signature Algorithm: sha256WithRSAEncryption
        Issuer: CN=team521-net
        Validity
            Not Before: May 18 21:58:05 2022 GMT
            Not After : May  2 21:58:05 2025 GMT
        Subject: CN=team521-client
        Subject Public Key Info:
            Public Key Algorithm: rsaEncryption
                RSA Public-Key: (2048 bit)
                Modulus:
                    00:fc:b4:59:63:f0:09:8c:31:6e:a0:88:05:3d:6c:
                    ed:fa:c9:e4:4f:99:87:b6:1a:ea:d6:8b:3d:84:6d:
                    49:60:fa:ac:52:2c:6b:e7:ee:ac:75:d0:e0:54:c3:
                    54:32:a6:e1:89:ac:a8:90:b1:7e:09:d8:e1:ac:fd:
                    92:b5:b5:c1:5d:bf:4b:1b:f9:e9:ef:e8:6b:56:c5:
                    18:58:34:b1:6d:bc:77:66:8d:94:d2:31:17:f8:fe:
                    0d:c3:ce:72:21:73:91:41:0e:2b:e6:c1:bd:b7:76:
                    24:c8:d2:0e:ea:fb:87:2a:a8:bc:b3:15:fc:2e:65:
                    b2:9e:d3:76:48:96:3a:48:ef:e6:05:65:e6:0e:06:
                    90:67:cb:a4:65:6e:0c:87:f7:4d:13:30:7c:73:b0:
                    e8:1e:38:6e:02:d5:b5:ef:49:fe:55:67:dc:a6:fb:
                    50:24:6b:ac:1d:02:45:bc:7d:ed:c6:96:47:a4:c4:
                    a4:3b:bc:37:ee:8f:8f:35:5f:b1:16:d0:a2:51:ca:
                    37:3f:a6:9e:7c:8d:4d:2a:a3:a2:55:ab:d2:29:57:
                    5b:f5:ce:79:80:7b:84:6e:aa:f6:3e:06:93:b9:63:
                    db:8c:09:c5:60:a3:02:61:bb:03:fe:f9:e6:08:28:
                    6f:ed:a9:72:81:e1:54:1f:9c:21:cc:45:96:41:55:
                    0c:0b
                Exponent: 65537 (0x10001)
        X509v3 extensions:
            X509v3 Basic Constraints: 
                CA:FALSE
            X509v3 Subject Key Identifier: 
                17:34:BD:6A:9B:29:57:EF:61:70:D8:DF:76:A9:A2:AD:F7:32:52:11
            X509v3 Authority Key Identifier: 
                keyid:25:D3:CF:F1:AA:E6:93:03:17:DA:65:74:74:33:B3:9C:88:B3:87:86
                DirName:/CN=team521-net
                serial:50:9A:03:8A:31:D6:9C:7D:79:9A:53:F9:98:1A:87:A4:04:F6:CE:4F

            X509v3 Extended Key Usage: 
                TLS Web Client Authentication
            X509v3 Key Usage: 
                Digital Signature
    Signature Algorithm: sha256WithRSAEncryption
         81:87:df:70:74:b7:1a:70:41:0f:9e:d4:a2:5c:b5:54:bf:22:
         c7:57:bd:9d:ed:20:dd:e1:f0:9a:aa:d7:03:fa:d9:8e:84:d9:
         e0:ff:40:db:f4:9a:06:c8:13:d5:ef:c2:c0:fe:34:4e:ae:1e:
         da:1f:7e:12:00:01:d0:a1:4f:0e:57:38:26:1d:de:83:ce:ad:
         ad:18:77:58:71:a2:51:98:88:ee:ef:6c:9b:ef:38:29:0f:79:
         5f:79:7a:34:78:54:05:7b:7a:29:cb:9c:62:51:30:ce:ee:65:
         a0:d8:5e:2b:f9:09:54:3d:6e:74:66:7d:48:e0:9f:79:8e:90:
         32:38:71:dd:73:48:bb:25:44:06:90:77:b3:c3:81:da:42:73:
         84:c3:f5:79:6e:1f:84:15:ba:39:87:4f:3f:7a:d2:75:df:1b:
         4a:36:fd:e9:19:62:b0:6d:8b:20:19:f5:c5:88:01:7f:f6:b3:
         5e:1c:bd:5d:79:ab:89:f1:92:75:af:c7:c3:0f:2b:2c:4c:5e:
         f0:78:c8:02:e1:17:79:16:a4:fe:d3:7e:5b:b2:86:d7:91:8e:
         16:dc:3e:48:b1:78:78:e6:ac:4d:ea:2c:7c:c3:81:a2:55:3d:
         32:cb:34:58:b1:f9:bf:8f:07:a1:bf:13:e4:26:1b:2c:5d:a2:
         e4:82:77:70
-----BEGIN CERTIFICATE-----
MIIDXDCCAkSgAwIBAgIQAtZz7QkMk6zaRGZ0xOWgMTANBgkqhkiG9w0BAQsFADAW
MRQwEgYDVQQDDAt0ZWFtNTIxLW5ldDAeFw0yMjA1MTgyMTU4MDVaFw0yNTA1MDIy
MTU4MDVaMBkxFzAVBgNVBAMMDnRlYW01MjEtY2xpZW50MIIBIjANBgkqhkiG9w0B
AQEFAAOCAQ8AMIIBCgKCAQEA/LRZY/AJjDFuoIgFPWzt+snkT5mHthrq1os9hG1J
YPqsUixr5+6sddDgVMNUMqbhiayokLF+CdjhrP2StbXBXb9LG/np7+hrVsUYWDSx
bbx3Zo2U0jEX+P4Nw85yIXORQQ4r5sG9t3YkyNIO6vuHKqi8sxX8LmWyntN2SJY6
SO/mBWXmDgaQZ8ukZW4Mh/dNEzB8c7DoHjhuAtW170n+VWfcpvtQJGusHQJFvH3t
xpZHpMSkO7w37o+PNV+xFtCiUco3P6aefI1NKqOiVavSKVdb9c55gHuEbqr2PgaT
uWPbjAnFYKMCYbsD/vnmCChv7alygeFUH5whzEWWQVUMCwIDAQABo4GiMIGfMAkG
A1UdEwQCMAAwHQYDVR0OBBYEFBc0vWqbKVfvYXDY33apoq33MlIRMFEGA1UdIwRK
MEiAFCXTz/Gq5pMDF9pldHQzs5yIs4eGoRqkGDAWMRQwEgYDVQQDDAt0ZWFtNTIx
LW5ldIIUUJoDijHWnH15mlP5mBqHpAT2zk8wEwYDVR0lBAwwCgYIKwYBBQUHAwIw
CwYDVR0PBAQDAgeAMA0GCSqGSIb3DQEBCwUAA4IBAQCBh99wdLcacEEPntSiXLVU
vyLHV72d7SDd4fCaqtcD+tmOhNng/0Db9JoGyBPV78LA/jROrh7aH34SAAHQoU8O
VzgmHd6Dzq2tGHdYcaJRmIju72yb7zgpD3lfeXo0eFQFe3opy5xiUTDO7mWg2F4r
+QlUPW50Zn1I4J95jpAyOHHdc0i7JUQGkHezw4HaQnOEw/V5bh+EFbo5h08/etJ1
3xtKNv3pGWKwbYsgGfXFiAF/9rNeHL1deauJ8ZJ1r8fDDyssTF7weMgC4Rd5FqT+
035bsobXkY4W3D5IsXh45qxN6ix8w4GiVT0yyzRYsfm/jwehvxPkJhssXaLkgndw
-----END CERTIFICATE-----
