Certificate:
    Data:
        Version: 3 (0x2)
        Serial Number:
            ab:98:e1:5e:2e:90:83:bb:18:6e:bc:4c:35:24:ba:02
        Signature Algorithm: sha256WithRSAEncryption
        Issuer: CN=team742-net
        Validity
            Not Before: May 19 00:01:09 2022 GMT
            Not After : May  3 00:01:09 2025 GMT
        Subject: CN=team742-client
        Subject Public Key Info:
            Public Key Algorithm: rsaEncryption
                RSA Public-Key: (2048 bit)
                Modulus:
                    00:ce:6f:a3:23:76:5c:4c:a9:72:ef:47:1c:d5:d4:
                    4e:00:33:e4:5d:54:01:1b:54:93:64:92:ac:39:2f:
                    2c:4d:c2:6d:53:41:e4:62:80:79:28:76:48:96:36:
                    ea:48:04:2a:68:3c:f4:f3:0d:9b:2f:15:b1:cd:6b:
                    2c:c4:e2:4c:e8:f0:6c:e3:9d:eb:12:54:b0:35:2e:
                    79:57:b4:a5:d0:0d:6b:c0:a7:1a:16:ae:11:24:47:
                    f4:cf:42:58:d4:dc:0d:64:f2:3d:96:8d:af:79:02:
                    26:3a:47:77:a9:c7:3a:bf:eb:90:e0:90:b9:44:6a:
                    6e:30:6f:96:88:74:f2:8f:a5:46:da:cb:f5:66:96:
                    75:45:48:c8:69:a9:8f:cd:0c:9d:5d:f5:89:db:e5:
                    74:2a:cf:e3:59:88:a2:72:b9:3d:86:65:c2:10:cc:
                    10:be:7c:a1:0f:cf:2b:00:21:42:59:ab:ea:7d:0a:
                    96:a9:03:a5:56:f9:76:22:c4:72:c8:68:a8:84:49:
                    47:5a:1c:dc:ec:2e:ca:5e:39:2c:62:91:0d:3a:c2:
                    45:19:5f:2c:63:a8:8c:c0:ac:ef:1d:ab:4a:bb:26:
                    fd:f0:88:1c:a9:83:75:cf:20:9d:37:4a:c5:6e:45:
                    3c:d6:67:ac:fd:6e:8e:5f:50:c8:3d:c1:e4:9f:1c:
                    f2:db
                Exponent: 65537 (0x10001)
        X509v3 extensions:
            X509v3 Basic Constraints: 
                CA:FALSE
            X509v3 Subject Key Identifier: 
                86:7A:04:B0:98:26:EA:A9:61:3A:75:1C:36:5C:E1:D0:C3:B0:6D:EE
            X509v3 Authority Key Identifier: 
                keyid:7C:97:56:88:2A:86:62:BF:63:C4:49:E2:0F:C7:30:8C:B1:1B:C2:1B
                DirName:/CN=team742-net
                serial:74:1C:5E:B4:66:03:F2:C3:05:BB:FC:F1:C7:5E:1B:8E:D8:FA:98:76

            X509v3 Extended Key Usage: 
                TLS Web Client Authentication
            X509v3 Key Usage: 
                Digital Signature
    Signature Algorithm: sha256WithRSAEncryption
         0f:da:f6:47:e7:ac:10:dd:cb:d6:d0:b0:d8:93:fe:fa:aa:93:
         64:f8:81:f0:fc:bc:64:7e:d1:3f:33:6f:03:3f:e5:0c:98:4f:
         31:d9:88:a9:17:da:27:60:ff:73:78:fc:55:83:2b:84:9c:c8:
         7e:77:88:53:10:0a:a3:61:2c:15:90:bc:51:ad:3b:f7:1c:0a:
         31:c0:5d:e0:4a:b5:80:b5:94:a9:b6:32:99:79:81:45:f1:92:
         b2:74:ce:50:ec:29:d7:f3:9a:54:8b:2a:e2:69:2c:11:00:fc:
         dc:bc:4b:fd:68:84:34:fd:16:c5:9e:a7:80:eb:36:a1:f0:07:
         3a:d6:b3:93:86:4f:ad:54:bf:7e:ef:74:dc:51:9a:9f:3f:5a:
         05:0e:22:92:14:1e:d7:23:75:7e:9f:9a:68:75:09:ef:7e:7b:
         8e:45:71:e1:a7:4c:bb:81:5b:79:ab:8b:b1:76:b4:f2:8f:73:
         e3:bc:03:cf:09:a0:38:7a:f1:7f:74:b3:8c:14:ab:d6:5e:81:
         74:ef:9d:cf:a4:70:73:e0:13:8b:c6:eb:12:8d:d4:5a:cb:b2:
         65:21:a9:2c:43:58:c2:e3:87:b1:b5:a5:a0:ad:e0:97:96:08:
         54:af:ca:c5:01:b9:6d:56:4c:10:58:7d:db:49:1b:97:a4:f3:
         bf:4b:7a:ab
-----BEGIN CERTIFICATE-----
MIIDXTCCAkWgAwIBAgIRAKuY4V4ukIO7GG68TDUkugIwDQYJKoZIhvcNAQELBQAw
FjEUMBIGA1UEAwwLdGVhbTc0Mi1uZXQwHhcNMjIwNTE5MDAwMTA5WhcNMjUwNTAz
MDAwMTA5WjAZMRcwFQYDVQQDDA50ZWFtNzQyLWNsaWVudDCCASIwDQYJKoZIhvcN
AQEBBQADggEPADCCAQoCggEBAM5voyN2XEypcu9HHNXUTgAz5F1UARtUk2SSrDkv
LE3CbVNB5GKAeSh2SJY26kgEKmg89PMNmy8Vsc1rLMTiTOjwbOOd6xJUsDUueVe0
pdANa8CnGhauESRH9M9CWNTcDWTyPZaNr3kCJjpHd6nHOr/rkOCQuURqbjBvloh0
8o+lRtrL9WaWdUVIyGmpj80MnV31idvldCrP41mIonK5PYZlwhDMEL58oQ/PKwAh
Qlmr6n0KlqkDpVb5diLEcshoqIRJR1oc3Owuyl45LGKRDTrCRRlfLGOojMCs7x2r
Srsm/fCIHKmDdc8gnTdKxW5FPNZnrP1ujl9QyD3B5J8c8tsCAwEAAaOBojCBnzAJ
BgNVHRMEAjAAMB0GA1UdDgQWBBSGegSwmCbqqWE6dRw2XOHQw7Bt7jBRBgNVHSME
SjBIgBR8l1aIKoZiv2PESeIPxzCMsRvCG6EapBgwFjEUMBIGA1UEAwwLdGVhbTc0
Mi1uZXSCFHQcXrRmA/LDBbv88cdeG47Y+ph2MBMGA1UdJQQMMAoGCCsGAQUFBwMC
MAsGA1UdDwQEAwIHgDANBgkqhkiG9w0BAQsFAAOCAQEAD9r2R+esEN3L1tCw2JP+
+qqTZPiB8Py8ZH7RPzNvAz/lDJhPMdmIqRfaJ2D/c3j8VYMrhJzIfneIUxAKo2Es
FZC8Ua079xwKMcBd4Eq1gLWUqbYymXmBRfGSsnTOUOwp1/OaVIsq4mksEQD83LxL
/WiENP0WxZ6ngOs2ofAHOtazk4ZPrVS/fu903FGanz9aBQ4ikhQe1yN1fp+aaHUJ
7357jkVx4adMu4FbeauLsXa08o9z47wDzwmgOHrxf3SzjBSr1l6BdO+dz6Rwc+AT
i8brEo3UWsuyZSGpLENYwuOHsbWloK3gl5YIVK/KxQG5bVZMEFh920kbl6Tzv0t6
qw==
-----END CERTIFICATE-----
