Certificate:
    Data:
        Version: 3 (0x2)
        Serial Number:
            b2:7b:be:05:01:8b:50:e3:57:6c:b5:53:e2:f4:b6:70
        Signature Algorithm: sha256WithRSAEncryption
        Issuer: CN=team742-net
        Validity
            Not Before: May 19 00:01:09 2022 GMT
            Not After : May  3 00:01:09 2025 GMT
        Subject: CN=team742-server
        Subject Public Key Info:
            Public Key Algorithm: rsaEncryption
                RSA Public-Key: (2048 bit)
                Modulus:
                    00:db:7a:b0:87:24:ca:2c:1d:25:cb:82:cd:a9:bb:
                    40:f2:66:4b:ca:36:ca:fe:d9:d1:e0:9d:11:58:aa:
                    20:cb:e0:81:bc:a9:3a:88:fc:28:7b:e4:06:08:ef:
                    6c:5c:8f:df:71:12:dd:24:28:49:d5:78:ab:13:2f:
                    49:82:8a:3c:6a:4f:eb:de:94:ee:84:aa:2f:5c:9b:
                    c9:1a:9d:ee:7c:e7:a9:b9:e2:0b:1b:75:d5:1d:ea:
                    33:9c:53:95:c1:de:35:7f:ce:32:65:2c:c0:1b:95:
                    21:ae:d6:3d:72:ba:3f:85:48:ec:59:fa:3a:97:95:
                    81:d0:1e:1d:d6:df:58:2f:0d:fb:64:1b:87:56:7d:
                    7a:f4:10:40:64:77:47:54:c4:f5:30:79:d7:e6:81:
                    b1:78:8c:f5:15:c7:7b:1a:73:67:c7:a4:6e:36:f0:
                    46:51:39:34:9f:dc:11:92:6b:a9:eb:0e:95:24:d5:
                    f3:d1:2b:7e:d4:f8:53:1b:f9:94:f8:0e:cd:42:d6:
                    01:72:7b:c7:d0:45:6b:ca:57:fb:82:f3:3e:a0:6e:
                    df:d0:cd:27:ae:14:d1:07:9b:aa:3e:d8:bb:37:b3:
                    25:fa:d6:d0:99:36:e8:2d:6f:48:68:82:28:9e:eb:
                    46:9c:52:4c:41:47:73:47:4d:3f:42:65:ca:64:eb:
                    81:bb
                Exponent: 65537 (0x10001)
        X509v3 extensions:
            X509v3 Basic Constraints: 
                CA:FALSE
            X509v3 Subject Key Identifier: 
                87:A7:00:9E:F0:EB:D6:56:BF:D2:2D:DD:69:EC:10:56:F3:F7:04:B2
            X509v3 Authority Key Identifier: 
                keyid:7C:97:56:88:2A:86:62:BF:63:C4:49:E2:0F:C7:30:8C:B1:1B:C2:1B
                DirName:/CN=team742-net
                serial:74:1C:5E:B4:66:03:F2:C3:05:BB:FC:F1:C7:5E:1B:8E:D8:FA:98:76

            X509v3 Extended Key Usage: 
                TLS Web Server Authentication
            X509v3 Key Usage: 
                Digital Signature, Key Encipherment
            X509v3 Subject Alternative Name: 
                DNS:team742-server
    Signature Algorithm: sha256WithRSAEncryption
         8d:0d:10:b3:3c:a2:ae:82:d8:62:99:6e:25:64:ef:30:fc:52:
         a0:55:a9:b1:20:cb:bf:79:c4:1e:a7:71:91:17:b1:19:12:24:
         f2:25:64:8f:51:6e:d0:fa:84:6d:57:52:1e:5b:e8:5d:48:85:
         e1:06:77:6f:57:79:78:9a:99:e1:5c:29:d1:48:9f:ab:5b:52:
         b1:42:f6:db:1a:b4:84:3b:26:7d:61:52:73:61:66:61:23:25:
         c3:12:1a:3f:3a:79:f0:fb:ec:52:3e:fc:e6:e1:87:2b:8d:40:
         91:bc:f3:f0:f7:64:3b:04:ce:5e:55:52:dd:d0:ce:c8:f1:a6:
         f8:29:1d:56:e2:a6:4d:58:02:80:5b:3e:7b:f4:8e:4d:c3:d0:
         47:12:a9:db:b3:9f:3e:7b:94:d5:61:4a:05:76:83:37:10:12:
         a8:47:9e:f6:3b:5d:09:55:ba:7e:a4:f1:83:2e:3e:d5:ae:02:
         60:e2:2c:96:78:39:13:fb:8a:d6:d9:4f:dc:11:85:da:65:b3:
         c7:1b:fe:e5:0f:5c:f6:cd:b5:7c:1b:6f:0b:78:d7:6a:16:26:
         2e:10:2d:18:fa:19:ca:70:d1:f5:ea:5e:a7:23:75:58:65:09:
         e9:12:5d:fa:00:b1:10:58:26:7e:00:ff:ab:70:b2:15:32:06:
         72:c7:a8:ca
-----BEGIN CERTIFICATE-----
MIIDeDCCAmCgAwIBAgIRALJ7vgUBi1DjV2y1U+L0tnAwDQYJKoZIhvcNAQELBQAw
FjEUMBIGA1UEAwwLdGVhbTc0Mi1uZXQwHhcNMjIwNTE5MDAwMTA5WhcNMjUwNTAz
MDAwMTA5WjAZMRcwFQYDVQQDDA50ZWFtNzQyLXNlcnZlcjCCASIwDQYJKoZIhvcN
AQEBBQADggEPADCCAQoCggEBANt6sIckyiwdJcuCzam7QPJmS8o2yv7Z0eCdEViq
IMvggbypOoj8KHvkBgjvbFyP33ES3SQoSdV4qxMvSYKKPGpP696U7oSqL1ybyRqd
7nznqbniCxt11R3qM5xTlcHeNX/OMmUswBuVIa7WPXK6P4VI7Fn6OpeVgdAeHdbf
WC8N+2Qbh1Z9evQQQGR3R1TE9TB51+aBsXiM9RXHexpzZ8ekbjbwRlE5NJ/cEZJr
qesOlSTV89ErftT4Uxv5lPgOzULWAXJ7x9BFa8pX+4LzPqBu39DNJ64U0Qebqj7Y
uzezJfrW0Jk26C1vSGiCKJ7rRpxSTEFHc0dNP0JlymTrgbsCAwEAAaOBvTCBujAJ
BgNVHRMEAjAAMB0GA1UdDgQWBBSHpwCe8OvWVr/SLd1p7BBW8/cEsjBRBgNVHSME
SjBIgBR8l1aIKoZiv2PESeIPxzCMsRvCG6EapBgwFjEUMBIGA1UEAwwLdGVhbTc0
Mi1uZXSCFHQcXrRmA/LDBbv88cdeG47Y+ph2MBMGA1UdJQQMMAoGCCsGAQUFBwMB
MAsGA1UdDwQEAwIFoDAZBgNVHREEEjAQgg50ZWFtNzQyLXNlcnZlcjANBgkqhkiG
9w0BAQsFAAOCAQEAjQ0QszyiroLYYpluJWTvMPxSoFWpsSDLv3nEHqdxkRexGRIk
8iVkj1Fu0PqEbVdSHlvoXUiF4QZ3b1d5eJqZ4Vwp0Uifq1tSsUL22xq0hDsmfWFS
c2FmYSMlwxIaPzp58PvsUj785uGHK41Akbzz8PdkOwTOXlVS3dDOyPGm+CkdVuKm
TVgCgFs+e/SOTcPQRxKp27OfPnuU1WFKBXaDNxASqEee9jtdCVW6fqTxgy4+1a4C
YOIslng5E/uK1tlP3BGF2mWzxxv+5Q9c9s21fBtvC3jXahYmLhAtGPoZynDR9epe
pyN1WGUJ6RJd+gCxEFgmfgD/q3CyFTIGcseoyg==
-----END CERTIFICATE-----
