Certificate:
    Data:
        Version: 3 (0x2)
        Serial Number:
            0f:a1:3d:4f:e9:7f:9b:03:d0:86:b5:f6:3a:96:1c:8c
        Signature Algorithm: sha256WithRSAEncryption
        Issuer: CN=team280-net
        Validity
            Not Before: May 18 19:47:46 2022 GMT
            Not After : May  2 19:47:46 2025 GMT
        Subject: CN=team280-server
        Subject Public Key Info:
            Public Key Algorithm: rsaEncryption
                RSA Public-Key: (2048 bit)
                Modulus:
                    00:b1:aa:62:b7:ce:97:16:12:92:be:db:f7:07:bb:
                    6b:ba:76:11:06:e3:7a:cc:4f:50:34:d8:b7:03:04:
                    01:24:6d:b5:1a:6b:4d:ec:09:03:65:65:ba:65:2c:
                    aa:8a:72:10:1e:c5:3b:38:66:26:09:83:1d:9b:62:
                    23:3d:02:b9:36:f7:4d:2f:cf:72:bb:8b:d6:00:c2:
                    c5:17:a5:27:51:5e:73:9d:fa:1c:7c:03:7b:fd:37:
                    e3:15:ae:d8:27:c8:b7:02:9c:f7:a8:0c:8f:04:3c:
                    c8:8f:57:e5:67:9f:39:53:18:71:b0:76:55:7d:de:
                    6c:21:5d:68:4b:50:24:bf:f9:96:76:28:64:db:34:
                    ca:1c:80:e8:cc:be:dc:6d:84:0f:9a:a1:97:a2:c0:
                    0f:f1:e0:67:58:35:eb:7f:a0:b3:32:08:c6:60:e7:
                    56:8f:4f:74:f0:c1:c1:95:27:94:b7:a7:93:7f:a0:
                    ff:7b:c9:3f:9e:09:9c:d7:66:9e:76:cb:1c:65:e0:
                    25:4a:63:4e:e7:b0:e7:3c:2a:10:66:24:20:e0:40:
                    b0:f0:e7:3f:d2:fe:86:5b:d1:15:cc:53:e1:4b:36:
                    b1:63:be:b9:68:c1:0c:9b:90:6a:98:f7:86:bd:1c:
                    5a:21:8f:1a:cb:b2:aa:ac:2d:54:6f:67:77:ef:e1:
                    50:6b
                Exponent: 65537 (0x10001)
        X509v3 extensions:
            X509v3 Basic Constraints: 
                CA:FALSE
            X509v3 Subject Key Identifier: 
                A1:1D:10:AD:A0:F4:7C:0A:D4:CB:5B:38:3D:35:C9:BB:C8:3B:08:0A
            X509v3 Authority Key Identifier: 
                keyid:21:E0:4B:6F:8A:3E:07:FF:1B:D0:47:60:BE:4F:E2:CE:D0:F9:77:A6
                DirName:/CN=team280-net
                serial:41:1E:A8:E3:F4:29:F2:1A:68:24:4C:77:84:DB:D5:21:85:EB:F3:93

            X509v3 Extended Key Usage: 
                TLS Web Server Authentication
            X509v3 Key Usage: 
                Digital Signature, Key Encipherment
            X509v3 Subject Alternative Name: 
                DNS:team280-server
    Signature Algorithm: sha256WithRSAEncryption
         d8:68:17:37:41:c4:eb:3c:87:9f:87:80:41:82:ba:80:fe:ea:
         86:5d:6c:52:d2:d8:d6:69:71:cf:de:41:31:4a:68:12:db:99:
         43:26:02:9d:ba:74:cb:9c:6b:ba:18:c7:d3:96:29:18:aa:32:
         10:55:1b:c2:90:52:26:b6:cf:72:6a:53:f0:35:94:68:9f:74:
         7a:e7:f4:08:f4:43:00:b4:22:34:fc:b8:31:59:37:b9:a2:a6:
         1b:7e:d5:73:a6:19:ea:9b:99:2a:d4:ae:b2:55:74:53:ff:3f:
         04:ab:0b:5c:1d:3b:61:47:03:df:c0:24:ab:b8:cc:8a:55:d0:
         ae:a8:eb:a1:5a:ca:b4:7d:cb:91:1a:48:44:64:77:4f:7e:84:
         01:b6:dd:0e:e1:3c:3d:4a:cd:18:b0:b3:2e:29:07:6a:d8:27:
         82:91:ae:96:9a:39:4e:7a:0b:1b:83:0a:d7:92:83:c8:c6:0e:
         1b:38:52:4d:87:0c:ab:ed:ec:cf:23:c4:64:85:93:94:88:9d:
         d4:ad:45:5f:c0:b1:97:b4:d0:ff:6d:44:6f:5c:2e:7e:4c:18:
         a4:51:52:67:83:1c:04:2d:e4:94:75:d4:96:9f:67:16:5f:44:
         f6:be:f5:25:33:2c:01:45:c0:f4:f8:cf:69:f6:bc:05:9f:e8:
         58:6f:54:5d
-----BEGIN CERTIFICATE-----
MIIDdzCCAl+gAwIBAgIQD6E9T+l/mwPQhrX2OpYcjDANBgkqhkiG9w0BAQsFADAW
MRQwEgYDVQQDDAt0ZWFtMjgwLW5ldDAeFw0yMjA1MTgxOTQ3NDZaFw0yNTA1MDIx
OTQ3NDZaMBkxFzAVBgNVBAMMDnRlYW0yODAtc2VydmVyMIIBIjANBgkqhkiG9w0B
AQEFAAOCAQ8AMIIBCgKCAQEAsapit86XFhKSvtv3B7trunYRBuN6zE9QNNi3AwQB
JG21GmtN7AkDZWW6ZSyqinIQHsU7OGYmCYMdm2IjPQK5NvdNL89yu4vWAMLFF6Un
UV5znfocfAN7/TfjFa7YJ8i3Apz3qAyPBDzIj1flZ585UxhxsHZVfd5sIV1oS1Ak
v/mWdihk2zTKHIDozL7cbYQPmqGXosAP8eBnWDXrf6CzMgjGYOdWj0908MHBlSeU
t6eTf6D/e8k/ngmc12aedsscZeAlSmNO57DnPCoQZiQg4ECw8Oc/0v6GW9EVzFPh
SzaxY765aMEMm5BqmPeGvRxaIY8ay7KqrC1Ub2d37+FQawIDAQABo4G9MIG6MAkG
A1UdEwQCMAAwHQYDVR0OBBYEFKEdEK2g9HwK1MtbOD01ybvIOwgKMFEGA1UdIwRK
MEiAFCHgS2+KPgf/G9BHYL5P4s7Q+XemoRqkGDAWMRQwEgYDVQQDDAt0ZWFtMjgw
LW5ldIIUQR6o4/Qp8hpoJEx3hNvVIYXr85MwEwYDVR0lBAwwCgYIKwYBBQUHAwEw
CwYDVR0PBAQDAgWgMBkGA1UdEQQSMBCCDnRlYW0yODAtc2VydmVyMA0GCSqGSIb3
DQEBCwUAA4IBAQDYaBc3QcTrPIefh4BBgrqA/uqGXWxS0tjWaXHP3kExSmgS25lD
JgKdunTLnGu6GMfTlikYqjIQVRvCkFImts9yalPwNZRon3R65/QI9EMAtCI0/Lgx
WTe5oqYbftVzphnqm5kq1K6yVXRT/z8EqwtcHTthRwPfwCSruMyKVdCuqOuhWsq0
fcuRGkhEZHdPfoQBtt0O4Tw9Ss0YsLMuKQdq2CeCka6WmjlOegsbgwrXkoPIxg4b
OFJNhwyr7ezPI8RkhZOUiJ3UrUVfwLGXtND/bURvXC5+TBikUVJngxwELeSUddSW
n2cWX0T2vvUlMywBRcD0+M9p9rwFn+hYb1Rd
-----END CERTIFICATE-----
