Certificate:
    Data:
        Version: 3 (0x2)
        Serial Number:
            18:ad:9d:c0:8f:b3:8d:a6:b2:20:db:d6:63:ad:e3:36
        Signature Algorithm: sha256WithRSAEncryption
        Issuer: CN=team280-net
        Validity
            Not Before: May 18 19:47:46 2022 GMT
            Not After : May  2 19:47:46 2025 GMT
        Subject: CN=team280-client
        Subject Public Key Info:
            Public Key Algorithm: rsaEncryption
                RSA Public-Key: (2048 bit)
                Modulus:
                    00:aa:cc:04:6d:a3:8a:0f:ce:db:15:11:52:ff:4f:
                    73:98:41:bf:d3:9f:54:fe:29:a4:4e:76:72:3c:87:
                    48:b3:f3:e6:a2:6d:9a:96:87:f8:58:82:e5:9c:ec:
                    e9:5f:9a:91:4d:7d:d7:4b:83:42:c8:d6:b2:fd:9b:
                    a5:c3:a9:67:98:47:5b:91:69:9b:58:7c:8f:11:94:
                    01:8f:d9:75:63:78:30:c5:15:30:cb:9c:35:89:22:
                    69:2b:09:49:ba:c1:3c:57:f7:eb:c1:fe:9d:86:14:
                    1e:0c:ff:76:e7:65:76:a5:50:48:a8:2b:3c:db:c7:
                    64:05:cd:86:11:4d:ac:32:18:33:ec:09:58:c6:3f:
                    32:29:4a:ee:9b:60:b9:74:0e:c7:da:e5:29:24:43:
                    f5:c3:3c:cf:1f:64:4f:5f:5c:f3:e8:df:67:37:82:
                    01:53:56:82:f5:9f:dd:94:f9:4d:9a:f1:52:5f:54:
                    83:28:a8:34:77:4d:f5:de:17:5e:ec:a2:63:73:68:
                    d8:21:dc:59:bc:57:8f:56:71:76:d4:3c:b9:bf:fc:
                    7a:6e:00:3c:6f:c9:19:6c:12:0d:28:cf:ab:28:58:
                    cd:1c:0e:12:52:38:f9:e8:34:63:6b:94:dc:fd:c1:
                    39:24:db:98:1b:17:f5:38:f6:f8:c0:35:c2:7a:16:
                    93:df
                Exponent: 65537 (0x10001)
        X509v3 extensions:
            X509v3 Basic Constraints: 
                CA:FALSE
            X509v3 Subject Key Identifier: 
                FF:39:F2:08:49:34:05:26:22:CD:5C:04:2A:A6:95:66:D1:BF:94:33
            X509v3 Authority Key Identifier: 
                keyid:21:E0:4B:6F:8A:3E:07:FF:1B:D0:47:60:BE:4F:E2:CE:D0:F9:77:A6
                DirName:/CN=team280-net
                serial:41:1E:A8:E3:F4:29:F2:1A:68:24:4C:77:84:DB:D5:21:85:EB:F3:93

            X509v3 Extended Key Usage: 
                TLS Web Client Authentication
            X509v3 Key Usage: 
                Digital Signature
    Signature Algorithm: sha256WithRSAEncryption
         8f:15:23:40:2f:40:89:5b:25:05:1c:00:e4:c0:90:73:a3:aa:
         e8:46:a5:28:19:37:9e:95:60:13:c7:8c:80:b7:a7:81:3f:b6:
         c9:b7:c1:a8:a3:e0:ba:1c:83:40:70:bb:46:0b:cd:bf:0f:d5:
         ed:9a:a5:75:5d:b6:91:72:fb:3f:e9:d5:b3:e1:eb:91:07:97:
         8d:6e:db:55:4a:d3:38:67:ae:48:6f:af:2e:e7:e8:4e:12:ea:
         6e:65:e4:75:fd:eb:10:96:e1:0d:48:f3:4e:f4:b5:25:21:41:
         3b:5f:67:b8:f9:d6:5c:91:dd:b7:6b:db:87:34:33:88:d6:b5:
         86:64:75:10:5d:a8:f6:85:e2:a2:7d:70:78:13:f1:ec:c7:f7:
         ed:c3:11:8a:dc:00:da:f6:86:e8:29:88:46:f6:78:ab:29:89:
         1d:b3:cd:7a:09:c2:0a:c6:e7:72:8e:cd:8a:a8:75:e6:24:85:
         c4:06:ee:b4:41:19:9f:3f:07:3b:e5:37:74:54:75:82:92:f5:
         bc:d1:7d:da:37:25:5e:c0:ef:5e:f7:cf:06:d0:17:d7:a4:6e:
         29:fa:6e:67:20:9a:e5:48:5b:e0:32:f3:33:85:d0:bd:1d:f9:
         bd:8d:c4:94:ec:cc:6a:86:38:be:b9:5e:a8:e7:ed:cd:ea:fe:
         87:47:9c:42
-----BEGIN CERTIFICATE-----
MIIDXDCCAkSgAwIBAgIQGK2dwI+zjaayINvWY63jNjANBgkqhkiG9w0BAQsFADAW
MRQwEgYDVQQDDAt0ZWFtMjgwLW5ldDAeFw0yMjA1MTgxOTQ3NDZaFw0yNTA1MDIx
OTQ3NDZaMBkxFzAVBgNVBAMMDnRlYW0yODAtY2xpZW50MIIBIjANBgkqhkiG9w0B
AQEFAAOCAQ8AMIIBCgKCAQEAqswEbaOKD87bFRFS/09zmEG/059U/imkTnZyPIdI
s/Pmom2alof4WILlnOzpX5qRTX3XS4NCyNay/Zulw6lnmEdbkWmbWHyPEZQBj9l1
Y3gwxRUwy5w1iSJpKwlJusE8V/frwf6dhhQeDP9252V2pVBIqCs828dkBc2GEU2s
Mhgz7AlYxj8yKUrum2C5dA7H2uUpJEP1wzzPH2RPX1zz6N9nN4IBU1aC9Z/dlPlN
mvFSX1SDKKg0d0313hde7KJjc2jYIdxZvFePVnF21Dy5v/x6bgA8b8kZbBINKM+r
KFjNHA4SUjj56DRja5Tc/cE5JNuYGxf1OPb4wDXCehaT3wIDAQABo4GiMIGfMAkG
A1UdEwQCMAAwHQYDVR0OBBYEFP858ghJNAUmIs1cBCqmlWbRv5QzMFEGA1UdIwRK
MEiAFCHgS2+KPgf/G9BHYL5P4s7Q+XemoRqkGDAWMRQwEgYDVQQDDAt0ZWFtMjgw
LW5ldIIUQR6o4/Qp8hpoJEx3hNvVIYXr85MwEwYDVR0lBAwwCgYIKwYBBQUHAwIw
CwYDVR0PBAQDAgeAMA0GCSqGSIb3DQEBCwUAA4IBAQCPFSNAL0CJWyUFHADkwJBz
o6roRqUoGTeelWATx4yAt6eBP7bJt8Goo+C6HINAcLtGC82/D9XtmqV1XbaRcvs/
6dWz4euRB5eNbttVStM4Z65Ib68u5+hOEupuZeR1/esQluENSPNO9LUlIUE7X2e4
+dZckd23a9uHNDOI1rWGZHUQXaj2heKifXB4E/Hsx/ftwxGK3ADa9oboKYhG9nir
KYkds816CcIKxudyjs2KqHXmJIXEBu60QRmfPwc75Td0VHWCkvW80X3aNyVewO9e
988G0BfXpG4p+m5nIJrlSFvgMvMzhdC9Hfm9jcSU7Mxqhji+uV6o5+3N6v6HR5xC
-----END CERTIFICATE-----
