Certificate:
    Data:
        Version: 3 (0x2)
        Serial Number:
            d7:7e:6f:e6:cf:4b:d0:40:6f:5d:58:1e:28:cc:14:88
        Signature Algorithm: sha256WithRSAEncryption
        Issuer: CN=team1-net
        Validity
            Not Before: May 18 13:55:53 2022 GMT
            Not After : May  2 13:55:53 2025 GMT
        Subject: CN=team1-server
        Subject Public Key Info:
            Public Key Algorithm: rsaEncryption
                RSA Public-Key: (2048 bit)
                Modulus:
                    00:b4:22:b0:b6:ad:5f:c5:85:b0:81:50:4c:4c:ab:
                    49:84:84:6f:b6:74:13:39:9a:a1:50:39:95:94:56:
                    1e:c3:b3:4c:54:50:e1:e8:51:01:e4:1c:e9:65:96:
                    76:eb:e9:be:17:88:7a:60:1f:33:10:1d:dd:14:d1:
                    09:6b:6d:34:ed:08:35:8b:ca:a4:61:ff:62:1b:93:
                    39:44:af:f0:36:67:4d:c0:05:68:14:e4:ca:7a:4f:
                    c8:8c:c8:8e:29:ae:fd:5e:7f:45:f5:03:c5:f2:66:
                    f5:24:e5:5e:36:7f:c2:c7:22:61:51:bf:8b:49:61:
                    3a:f8:46:59:9c:52:f2:e3:af:3e:6e:63:e8:25:2e:
                    52:7c:66:86:d8:a8:4b:48:f0:a2:1a:82:ff:7d:d9:
                    31:96:13:20:76:60:37:84:3e:60:52:6a:35:1e:76:
                    6f:28:60:81:d5:22:f8:0c:f5:ce:dd:0b:bf:18:38:
                    95:ec:0a:a2:57:39:c4:94:c6:41:1b:2e:59:f0:b7:
                    4c:41:dd:69:b5:59:b7:33:d3:26:be:3b:4d:d4:5e:
                    6d:3f:48:2b:76:8b:50:12:c3:d9:41:e1:84:43:95:
                    62:9d:55:ff:d6:dc:7b:61:9d:c3:23:8b:62:9a:b6:
                    80:5f:5c:ff:fa:c7:b0:74:9f:f6:69:c2:27:ee:a7:
                    c8:51
                Exponent: 65537 (0x10001)
        X509v3 extensions:
            X509v3 Basic Constraints: 
                CA:FALSE
            X509v3 Subject Key Identifier: 
                87:FB:E4:EE:9A:A2:A1:F6:82:F0:F9:92:A5:C2:E7:FD:8E:EF:73:CD
            X509v3 Authority Key Identifier: 
                keyid:60:BA:50:42:24:59:39:A4:F5:2B:9A:E4:6A:AF:D9:CB:F7:81:2A:E2
                DirName:/CN=team1-net
                serial:01:FC:C9:14:29:C9:2A:EF:EF:38:2A:F6:D7:3D:E1:3D:3E:C5:5C:39

            X509v3 Extended Key Usage: 
                TLS Web Server Authentication
            X509v3 Key Usage: 
                Digital Signature, Key Encipherment
            X509v3 Subject Alternative Name: 
                DNS:team1-server
    Signature Algorithm: sha256WithRSAEncryption
         1c:ae:c9:f5:fa:52:40:2e:cf:b5:cd:4c:37:7c:3e:5d:e6:52:
         a4:4a:65:4c:67:45:3a:9e:db:82:16:fa:9b:a7:d1:9e:10:0e:
         db:65:92:f7:5b:ef:59:5e:da:a4:1c:41:e0:26:80:ac:cb:c8:
         9b:05:e1:14:d1:71:c1:ef:1b:cf:cf:d8:52:c6:a7:2e:a4:df:
         79:cc:fe:c1:e2:4f:ad:10:46:9a:81:1f:53:29:f6:f6:58:60:
         1f:bb:37:bb:54:39:68:e8:9a:2a:06:db:3d:32:34:13:3b:e8:
         1d:ad:02:0f:ed:5a:be:0d:62:55:95:65:99:71:cc:b8:bc:95:
         a2:1e:39:0b:d2:37:d7:70:b6:31:73:38:c4:62:a0:99:4f:38:
         86:d5:e0:c0:73:e2:c6:7e:17:73:46:4c:c6:5d:24:4c:5a:07:
         ca:ef:1a:13:9a:81:3c:13:9e:4b:cf:ec:4b:87:9b:8c:77:5c:
         f7:fd:20:b9:bb:dd:bb:22:a3:ab:61:36:23:50:4a:b3:f1:ee:
         90:db:5c:ba:51:ff:b9:0e:76:b2:08:af:8d:50:41:c5:f2:72:
         58:89:64:8e:cf:b9:86:e3:a3:05:57:19:53:3c:80:ab:3f:43:
         3f:a7:6f:19:43:66:ec:8d:55:75:73:13:82:b6:0c:26:d1:ab:
         1c:8e:4e:51
-----BEGIN CERTIFICATE-----
MIIDcDCCAligAwIBAgIRANd+b+bPS9BAb11YHijMFIgwDQYJKoZIhvcNAQELBQAw
FDESMBAGA1UEAwwJdGVhbTEtbmV0MB4XDTIyMDUxODEzNTU1M1oXDTI1MDUwMjEz
NTU1M1owFzEVMBMGA1UEAwwMdGVhbTEtc2VydmVyMIIBIjANBgkqhkiG9w0BAQEF
AAOCAQ8AMIIBCgKCAQEAtCKwtq1fxYWwgVBMTKtJhIRvtnQTOZqhUDmVlFYew7NM
VFDh6FEB5BzpZZZ26+m+F4h6YB8zEB3dFNEJa2007Qg1i8qkYf9iG5M5RK/wNmdN
wAVoFOTKek/IjMiOKa79Xn9F9QPF8mb1JOVeNn/CxyJhUb+LSWE6+EZZnFLy468+
bmPoJS5SfGaG2KhLSPCiGoL/fdkxlhMgdmA3hD5gUmo1HnZvKGCB1SL4DPXO3Qu/
GDiV7AqiVznElMZBGy5Z8LdMQd1ptVm3M9MmvjtN1F5tP0grdotQEsPZQeGEQ5Vi
nVX/1tx7YZ3DI4timraAX1z/+sewdJ/2acIn7qfIUQIDAQABo4G5MIG2MAkGA1Ud
EwQCMAAwHQYDVR0OBBYEFIf75O6aoqH2gvD5kqXC5/2O73PNME8GA1UdIwRIMEaA
FGC6UEIkWTmk9Sua5Gqv2cv3gSrioRikFjAUMRIwEAYDVQQDDAl0ZWFtMS1uZXSC
FAH8yRQpySrv7zgq9tc94T0+xVw5MBMGA1UdJQQMMAoGCCsGAQUFBwMBMAsGA1Ud
DwQEAwIFoDAXBgNVHREEEDAOggx0ZWFtMS1zZXJ2ZXIwDQYJKoZIhvcNAQELBQAD
ggEBAByuyfX6UkAuz7XNTDd8Pl3mUqRKZUxnRTqe24IW+pun0Z4QDttlkvdb71le
2qQcQeAmgKzLyJsF4RTRccHvG8/P2FLGpy6k33nM/sHiT60QRpqBH1Mp9vZYYB+7
N7tUOWjomioG2z0yNBM76B2tAg/tWr4NYlWVZZlxzLi8laIeOQvSN9dwtjFzOMRi
oJlPOIbV4MBz4sZ+F3NGTMZdJExaB8rvGhOagTwTnkvP7EuHm4x3XPf9ILm73bsi
o6thNiNQSrPx7pDbXLpR/7kOdrIIr41QQcXycliJZI7PuYbjowVXGVM8gKs/Qz+n
bxlDZuyNVXVzE4K2DCbRqxyOTlE=
-----END CERTIFICATE-----
