Certificate:
    Data:
        Version: 3 (0x2)
        Serial Number:
            e4:bb:e2:e1:bd:f2:58:8a:4e:b9:ee:e0:3e:29:01:8c
        Signature Algorithm: sha256WithRSAEncryption
        Issuer: CN=team339-net
        Validity
            Not Before: May 18 20:30:47 2022 GMT
            Not After : May  2 20:30:47 2025 GMT
        Subject: CN=team339-server
        Subject Public Key Info:
            Public Key Algorithm: rsaEncryption
                RSA Public-Key: (2048 bit)
                Modulus:
                    00:ac:2f:f0:82:aa:30:22:09:ed:39:45:38:9d:af:
                    ad:a4:90:11:7f:a6:58:d5:cb:64:20:78:36:8b:17:
                    7f:85:0f:b3:5b:d1:d7:e3:ee:1a:a2:ab:39:f1:de:
                    27:28:fc:6d:e4:1e:0e:5e:0b:41:c1:bf:1e:f8:f0:
                    43:a6:5e:a1:25:53:8b:89:13:67:82:7b:d2:6b:42:
                    92:1b:60:0a:99:05:55:59:d0:e2:de:f4:d6:46:22:
                    d1:eb:0b:f6:ed:80:26:5e:df:68:94:22:51:78:84:
                    7e:3e:cf:9b:60:df:5c:42:91:47:de:dd:52:79:a4:
                    2f:d9:7b:27:22:48:2e:bf:1c:80:47:e7:24:35:fa:
                    1e:3f:d9:b3:fd:f5:b5:bd:3a:3a:42:b5:ce:74:ef:
                    1b:14:19:13:9f:29:48:73:70:91:be:d0:04:2c:d3:
                    40:f6:eb:da:9e:7a:23:f9:24:4e:e4:ad:18:6e:3e:
                    fe:c1:ab:84:82:02:aa:82:e6:2c:70:e8:db:60:d6:
                    25:c8:3c:a3:9c:4e:4b:51:04:ac:54:30:f2:46:d8:
                    c3:a0:ba:48:1c:46:a5:3e:d2:28:db:21:12:df:5e:
                    81:73:f4:40:c3:b8:40:13:ff:a6:e9:f8:04:b6:5d:
                    c9:31:98:95:08:9a:61:56:4e:05:41:f9:09:b3:38:
                    76:93
                Exponent: 65537 (0x10001)
        X509v3 extensions:
            X509v3 Basic Constraints: 
                CA:FALSE
            X509v3 Subject Key Identifier: 
                36:BA:48:48:57:3E:A2:A3:FA:3D:55:7D:9E:83:18:B6:C5:6D:B7:BA
            X509v3 Authority Key Identifier: 
                keyid:54:FB:E2:E0:91:AB:24:9E:96:2E:80:79:7D:E4:9A:8B:E8:E3:D8:26
                DirName:/CN=team339-net
                serial:4C:23:7B:DA:4D:2E:20:17:74:29:E8:0D:28:ED:69:C4:28:EE:C3:97

            X509v3 Extended Key Usage: 
                TLS Web Server Authentication
            X509v3 Key Usage: 
                Digital Signature, Key Encipherment
            X509v3 Subject Alternative Name: 
                DNS:team339-server
    Signature Algorithm: sha256WithRSAEncryption
         6e:07:da:14:ac:ad:34:af:8c:9b:45:79:5d:59:d4:3f:7b:22:
         a5:7b:b0:d7:d2:d0:1b:f7:56:43:7e:a7:bf:89:13:fa:87:68:
         74:3f:cb:54:d7:d0:d5:bb:23:fc:c6:70:68:39:99:5d:9c:ec:
         92:68:cc:36:b8:28:5a:d1:5b:bd:d7:c5:02:00:a6:a7:b9:6b:
         7d:ac:e3:b8:bc:18:83:ae:d7:74:3f:bd:3c:4c:03:a5:d5:c7:
         b1:da:73:91:0d:49:fd:6c:85:3a:d1:b4:5f:48:ac:7f:b8:b6:
         3a:b6:c6:b8:cd:e4:1c:b0:ca:2f:4b:4e:f3:9a:6e:20:55:cb:
         02:1f:bc:b7:f9:ca:97:6e:6b:6e:17:95:3a:df:d4:f4:76:6f:
         cf:17:ed:7e:5a:98:9f:4c:01:c7:71:c3:6a:28:69:db:1e:82:
         87:ad:f4:e6:7b:c7:93:45:2d:89:1d:87:8b:ab:36:d4:6a:e8:
         dc:23:26:24:e6:b7:db:08:48:80:91:74:a4:29:01:62:da:4d:
         5f:ad:cc:44:26:da:41:ee:ad:0d:43:a6:16:a0:b7:b8:8b:75:
         8f:96:9b:5e:46:ee:6d:ad:5d:f1:e2:d8:c0:df:bf:00:a2:97:
         dd:89:79:91:83:9c:7d:e3:ea:1d:83:1c:5f:2e:64:9d:52:60:
         fd:50:78:4c
-----BEGIN CERTIFICATE-----
MIIDeDCCAmCgAwIBAgIRAOS74uG98liKTrnu4D4pAYwwDQYJKoZIhvcNAQELBQAw
FjEUMBIGA1UEAwwLdGVhbTMzOS1uZXQwHhcNMjIwNTE4MjAzMDQ3WhcNMjUwNTAy
MjAzMDQ3WjAZMRcwFQYDVQQDDA50ZWFtMzM5LXNlcnZlcjCCASIwDQYJKoZIhvcN
AQEBBQADggEPADCCAQoCggEBAKwv8IKqMCIJ7TlFOJ2vraSQEX+mWNXLZCB4NosX
f4UPs1vR1+PuGqKrOfHeJyj8beQeDl4LQcG/HvjwQ6ZeoSVTi4kTZ4J70mtCkhtg
CpkFVVnQ4t701kYi0esL9u2AJl7faJQiUXiEfj7Pm2DfXEKRR97dUnmkL9l7JyJI
Lr8cgEfnJDX6Hj/Zs/31tb06OkK1znTvGxQZE58pSHNwkb7QBCzTQPbr2p56I/kk
TuStGG4+/sGrhIICqoLmLHDo22DWJcg8o5xOS1EErFQw8kbYw6C6SBxGpT7SKNsh
Et9egXP0QMO4QBP/pun4BLZdyTGYlQiaYVZOBUH5CbM4dpMCAwEAAaOBvTCBujAJ
BgNVHRMEAjAAMB0GA1UdDgQWBBQ2ukhIVz6io/o9VX2egxi2xW23ujBRBgNVHSME
SjBIgBRU++LgkasknpYugHl95JqL6OPYJqEapBgwFjEUMBIGA1UEAwwLdGVhbTMz
OS1uZXSCFEwje9pNLiAXdCnoDSjtacQo7sOXMBMGA1UdJQQMMAoGCCsGAQUFBwMB
MAsGA1UdDwQEAwIFoDAZBgNVHREEEjAQgg50ZWFtMzM5LXNlcnZlcjANBgkqhkiG
9w0BAQsFAAOCAQEAbgfaFKytNK+Mm0V5XVnUP3sipXuw19LQG/dWQ36nv4kT+odo
dD/LVNfQ1bsj/MZwaDmZXZzskmjMNrgoWtFbvdfFAgCmp7lrfazjuLwYg67XdD+9
PEwDpdXHsdpzkQ1J/WyFOtG0X0isf7i2OrbGuM3kHLDKL0tO85puIFXLAh+8t/nK
l25rbheVOt/U9HZvzxftflqYn0wBx3HDaihp2x6Ch6305nvHk0UtiR2Hi6s21Gro
3CMmJOa32whIgJF0pCkBYtpNX63MRCbaQe6tDUOmFqC3uIt1j5abXkbuba1d8eLY
wN+/AKKX3Yl5kYOcfePqHYMcXy5knVJg/VB4TA==
-----END CERTIFICATE-----
