Certificate:
    Data:
        Version: 3 (0x2)
        Serial Number:
            40:3e:5b:91:b2:59:05:1c:34:63:37:7e:f4:50:ea:c9
        Signature Algorithm: sha256WithRSAEncryption
        Issuer: CN=team329-net
        Validity
            Not Before: May 18 20:25:30 2022 GMT
            Not After : May  2 20:25:30 2025 GMT
        Subject: CN=team329-server
        Subject Public Key Info:
            Public Key Algorithm: rsaEncryption
                RSA Public-Key: (2048 bit)
                Modulus:
                    00:d5:ad:92:8a:f7:2b:08:63:95:43:5c:ed:ac:0e:
                    68:de:25:ee:f0:d1:67:39:bb:0a:15:f3:b8:37:13:
                    0f:b4:59:24:20:43:1e:c0:b4:ef:79:d6:8a:8a:22:
                    65:5b:7b:02:68:6f:63:e5:58:3b:c9:a1:d9:0e:6e:
                    f5:2b:d3:65:c7:b3:90:81:79:b3:d9:2d:1f:de:86:
                    1c:d1:65:9f:89:73:6b:ac:30:65:a2:26:f9:2a:2f:
                    88:3b:f3:c8:7b:c4:be:1d:c6:27:df:4a:2f:c3:c7:
                    94:8f:aa:6a:dd:84:5e:fd:86:8f:28:5f:f4:be:fc:
                    79:fe:77:90:fc:97:79:55:8f:b5:9e:9b:00:bd:98:
                    f8:28:3a:4e:2c:d6:67:f4:d8:19:ca:66:3e:f8:9c:
                    56:16:dc:1a:cd:0b:56:fb:77:3a:51:1f:76:aa:37:
                    8a:e0:98:c9:ae:97:d4:ab:4b:51:3a:fc:12:e7:0b:
                    c8:b6:55:68:76:0f:d8:cb:f2:b7:01:45:ca:52:9b:
                    66:e0:51:6c:7a:b3:9c:f1:ab:14:80:d6:94:0a:b1:
                    26:13:9b:09:ec:1e:ca:20:f1:c8:18:da:bc:7c:a9:
                    63:59:ed:cb:e0:d0:29:53:d3:ff:ac:63:25:8b:d6:
                    45:7e:d0:50:a8:44:b9:7c:e8:68:f5:ad:c8:30:41:
                    5b:c3
                Exponent: 65537 (0x10001)
        X509v3 extensions:
            X509v3 Basic Constraints: 
                CA:FALSE
            X509v3 Subject Key Identifier: 
                07:9F:7F:B3:76:D3:8E:B9:D4:F5:85:C2:7A:6C:39:B1:69:74:18:54
            X509v3 Authority Key Identifier: 
                keyid:EA:1E:C8:8A:2B:1E:64:3F:13:96:AB:A1:F6:BB:35:49:B1:F7:54:AE
                DirName:/CN=team329-net
                serial:3A:D5:89:F0:50:53:A3:6F:10:E8:19:E4:70:99:85:E4:50:68:F3:E8

            X509v3 Extended Key Usage: 
                TLS Web Server Authentication
            X509v3 Key Usage: 
                Digital Signature, Key Encipherment
            X509v3 Subject Alternative Name: 
                DNS:team329-server
    Signature Algorithm: sha256WithRSAEncryption
         0a:99:92:ee:de:35:a2:6e:82:64:67:dc:a3:2f:b5:90:81:1d:
         f4:a6:5a:26:ed:53:d9:bb:10:ee:a0:c4:fa:f7:54:80:47:80:
         36:cc:52:e9:bb:de:02:f9:46:52:b8:71:d7:91:97:f6:fb:b7:
         11:c9:3f:2c:9f:36:d4:a5:b1:32:2c:ef:f8:f2:c1:be:21:55:
         23:2c:e5:e2:6b:71:31:65:ee:07:56:36:76:cf:2f:6e:f3:2b:
         ed:47:b1:9a:38:87:fd:f0:9f:98:a7:e0:46:34:0a:9d:e4:b5:
         ff:f5:69:6d:8a:85:05:94:d7:40:bf:9f:bf:35:49:6c:b8:8b:
         ec:c9:06:3b:eb:cb:2e:19:34:30:9e:3b:a6:bc:84:c4:30:40:
         fd:2b:4a:2a:9b:73:74:32:41:71:40:dc:f3:40:85:40:7b:e5:
         f7:f9:c5:4e:eb:28:f2:95:be:3e:c5:5d:45:3f:ad:11:5d:d6:
         1a:c8:c9:60:f9:c7:10:88:44:38:de:22:42:b5:d5:86:6e:47:
         18:7c:4c:c1:84:27:c5:7e:b1:23:87:b4:60:b6:24:5e:d5:3d:
         6b:0c:e5:94:51:9e:04:ba:3e:e5:01:25:88:44:5f:11:dc:b4:
         7f:4c:5d:16:b4:f8:8d:dc:02:92:ce:50:e8:4e:2b:2e:09:92:
         4a:12:4a:89
-----BEGIN CERTIFICATE-----
MIIDdzCCAl+gAwIBAgIQQD5bkbJZBRw0Yzd+9FDqyTANBgkqhkiG9w0BAQsFADAW
MRQwEgYDVQQDDAt0ZWFtMzI5LW5ldDAeFw0yMjA1MTgyMDI1MzBaFw0yNTA1MDIy
MDI1MzBaMBkxFzAVBgNVBAMMDnRlYW0zMjktc2VydmVyMIIBIjANBgkqhkiG9w0B
AQEFAAOCAQ8AMIIBCgKCAQEA1a2SivcrCGOVQ1ztrA5o3iXu8NFnObsKFfO4NxMP
tFkkIEMewLTvedaKiiJlW3sCaG9j5Vg7yaHZDm71K9Nlx7OQgXmz2S0f3oYc0WWf
iXNrrDBloib5Ki+IO/PIe8S+HcYn30ovw8eUj6pq3YRe/YaPKF/0vvx5/neQ/Jd5
VY+1npsAvZj4KDpOLNZn9NgZymY++JxWFtwazQtW+3c6UR92qjeK4JjJrpfUq0tR
OvwS5wvItlVodg/Yy/K3AUXKUptm4FFserOc8asUgNaUCrEmE5sJ7B7KIPHIGNq8
fKljWe3L4NApU9P/rGMli9ZFftBQqES5fOho9a3IMEFbwwIDAQABo4G9MIG6MAkG
A1UdEwQCMAAwHQYDVR0OBBYEFAeff7N204651PWFwnpsObFpdBhUMFEGA1UdIwRK
MEiAFOoeyIorHmQ/E5arofa7NUmx91SuoRqkGDAWMRQwEgYDVQQDDAt0ZWFtMzI5
LW5ldIIUOtWJ8FBTo28Q6BnkcJmF5FBo8+gwEwYDVR0lBAwwCgYIKwYBBQUHAwEw
CwYDVR0PBAQDAgWgMBkGA1UdEQQSMBCCDnRlYW0zMjktc2VydmVyMA0GCSqGSIb3
DQEBCwUAA4IBAQAKmZLu3jWiboJkZ9yjL7WQgR30plom7VPZuxDuoMT691SAR4A2
zFLpu94C+UZSuHHXkZf2+7cRyT8snzbUpbEyLO/48sG+IVUjLOXia3ExZe4HVjZ2
zy9u8yvtR7GaOIf98J+Yp+BGNAqd5LX/9WltioUFlNdAv5+/NUlsuIvsyQY768su
GTQwnjumvITEMED9K0oqm3N0MkFxQNzzQIVAe+X3+cVO6yjylb4+xV1FP60RXdYa
yMlg+ccQiEQ43iJCtdWGbkcYfEzBhCfFfrEjh7RgtiRe1T1rDOWUUZ4Euj7lASWI
RF8R3LR/TF0WtPiN3AKSzlDoTisuCZJKEkqJ
-----END CERTIFICATE-----
