Certificate:
    Data:
        Version: 3 (0x2)
        Serial Number:
            75:b7:d2:27:96:05:88:e7:9e:72:e8:46:8b:44:05:a1
        Signature Algorithm: sha256WithRSAEncryption
        Issuer: CN=team541-net
        Validity
            Not Before: May 18 22:09:01 2022 GMT
            Not After : May  2 22:09:01 2025 GMT
        Subject: CN=team541-client
        Subject Public Key Info:
            Public Key Algorithm: rsaEncryption
                RSA Public-Key: (2048 bit)
                Modulus:
                    00:bd:27:9a:7d:7b:cf:8f:94:d0:ef:7c:fe:6b:60:
                    81:e4:00:73:f9:48:1c:7b:cd:55:4d:fe:26:5b:2b:
                    ae:1b:c5:60:bd:58:c7:22:a6:2e:ae:49:d1:d8:00:
                    83:7c:b6:ae:15:ed:89:54:49:1b:de:d2:63:05:34:
                    f3:e3:de:ca:29:7e:b8:c8:10:70:3f:00:3b:b7:b1:
                    4d:e5:0b:cd:eb:e6:38:7d:eb:da:d5:4f:bd:23:3b:
                    76:10:cf:76:c5:15:0f:3a:0e:98:a4:c0:a8:39:bd:
                    2a:64:b4:69:cc:1a:2e:b2:68:5e:42:e7:c7:99:78:
                    4d:f0:0d:82:0e:dc:c2:bb:a9:65:2e:8d:68:20:ca:
                    7d:20:74:9e:76:ec:e0:c0:3b:9d:40:ec:27:26:52:
                    63:06:3b:13:13:a4:9c:4d:7c:ba:08:13:5f:c9:73:
                    08:93:b6:ed:33:f1:1f:53:e9:31:d0:03:3d:bf:78:
                    1e:45:78:d8:05:af:2a:05:9e:31:c3:3e:ff:7f:80:
                    0b:fd:8c:4a:fa:61:18:56:e3:9c:f0:0a:5d:a5:7a:
                    5e:3c:59:ce:a0:8d:e8:9a:b0:ee:8a:ea:43:6e:5b:
                    ab:fd:79:55:72:28:9d:9f:74:6c:a5:bb:c3:58:43:
                    0e:29:38:a5:1f:91:b9:d9:d9:0e:80:36:fd:38:fa:
                    b9:29
                Exponent: 65537 (0x10001)
        X509v3 extensions:
            X509v3 Basic Constraints: 
                CA:FALSE
            X509v3 Subject Key Identifier: 
                91:51:8A:B0:1E:CC:53:14:46:15:D6:52:A7:4F:D4:DD:D9:C8:72:0D
            X509v3 Authority Key Identifier: 
                keyid:13:C6:4C:0D:C7:73:D1:DE:DA:17:3B:79:D3:B7:F7:CC:2A:59:07:11
                DirName:/CN=team541-net
                serial:04:8B:AF:53:D5:53:3D:54:2E:31:F0:AD:AD:F5:C5:D0:0A:C8:32:B3

            X509v3 Extended Key Usage: 
                TLS Web Client Authentication
            X509v3 Key Usage: 
                Digital Signature
    Signature Algorithm: sha256WithRSAEncryption
         0b:c9:e6:8e:4b:eb:c1:4a:69:3d:b6:73:49:7b:fd:8e:38:31:
         62:a3:b9:0c:50:02:84:b3:fc:80:bc:80:d4:6d:42:76:3a:00:
         ac:c0:b4:ce:db:ea:71:03:9f:1a:12:dd:95:69:1c:30:38:96:
         a3:db:37:ea:26:e3:97:c4:60:b1:26:5d:e9:1a:39:25:74:bc:
         08:44:7e:9d:58:d8:55:31:67:a9:18:f6:a5:1a:72:7b:43:bf:
         5e:ec:a9:ed:5e:16:8e:31:9a:e0:80:73:b9:f2:6a:7d:46:df:
         66:12:0c:d0:c9:da:e3:39:ae:cd:63:db:ef:7d:0f:95:09:e9:
         ca:ed:fc:5f:e5:c8:e1:60:d8:10:a9:50:dc:21:ac:e6:53:49:
         7f:26:74:2a:f0:d2:e5:ce:a8:09:3c:0e:a6:21:d2:e0:db:d9:
         1e:7e:3b:73:95:53:b5:af:b6:20:6b:0d:83:8b:bf:b3:78:b6:
         df:ce:2f:4d:ea:34:db:8d:f7:18:04:eb:92:8d:ef:54:8a:74:
         fb:63:6c:37:57:0c:da:53:85:93:ea:55:df:73:16:2c:1f:b1:
         86:8f:7f:87:b4:87:01:5b:e3:6f:84:60:e9:a0:a6:d7:e3:f3:
         cb:73:22:f0:16:af:d8:f8:05:17:a8:0f:36:5c:7d:e0:b7:63:
         96:c7:b0:de
-----BEGIN CERTIFICATE-----
MIIDXDCCAkSgAwIBAgIQdbfSJ5YFiOeecuhGi0QFoTANBgkqhkiG9w0BAQsFADAW
MRQwEgYDVQQDDAt0ZWFtNTQxLW5ldDAeFw0yMjA1MTgyMjA5MDFaFw0yNTA1MDIy
MjA5MDFaMBkxFzAVBgNVBAMMDnRlYW01NDEtY2xpZW50MIIBIjANBgkqhkiG9w0B
AQEFAAOCAQ8AMIIBCgKCAQEAvSeafXvPj5TQ73z+a2CB5ABz+Ugce81VTf4mWyuu
G8VgvVjHIqYurknR2ACDfLauFe2JVEkb3tJjBTTz497KKX64yBBwPwA7t7FN5QvN
6+Y4feva1U+9Izt2EM92xRUPOg6YpMCoOb0qZLRpzBousmheQufHmXhN8A2CDtzC
u6llLo1oIMp9IHSeduzgwDudQOwnJlJjBjsTE6ScTXy6CBNfyXMIk7btM/EfU+kx
0AM9v3geRXjYBa8qBZ4xwz7/f4AL/YxK+mEYVuOc8ApdpXpePFnOoI3omrDuiupD
blur/XlVciidn3RspbvDWEMOKTilH5G52dkOgDb9OPq5KQIDAQABo4GiMIGfMAkG
A1UdEwQCMAAwHQYDVR0OBBYEFJFRirAezFMURhXWUqdP1N3ZyHINMFEGA1UdIwRK
MEiAFBPGTA3Hc9He2hc7edO398wqWQcRoRqkGDAWMRQwEgYDVQQDDAt0ZWFtNTQx
LW5ldIIUBIuvU9VTPVQuMfCtrfXF0ArIMrMwEwYDVR0lBAwwCgYIKwYBBQUHAwIw
CwYDVR0PBAQDAgeAMA0GCSqGSIb3DQEBCwUAA4IBAQALyeaOS+vBSmk9tnNJe/2O
ODFio7kMUAKEs/yAvIDUbUJ2OgCswLTO2+pxA58aEt2VaRwwOJaj2zfqJuOXxGCx
Jl3pGjkldLwIRH6dWNhVMWepGPalGnJ7Q79e7KntXhaOMZrggHO58mp9Rt9mEgzQ
ydrjOa7NY9vvfQ+VCenK7fxf5cjhYNgQqVDcIazmU0l/JnQq8NLlzqgJPA6mIdLg
29kefjtzlVO1r7Ygaw2Di7+zeLbfzi9N6jTbjfcYBOuSje9UinT7Y2w3VwzaU4WT
6lXfcxYsH7GGj3+HtIcBW+NvhGDpoKbX4/PLcyLwFq/Y+AUXqA82XH3gt2OWx7De
-----END CERTIFICATE-----
