Certificate:
    Data:
        Version: 3 (0x2)
        Serial Number:
            7f:94:3e:77:9d:54:ed:00:81:d7:17:06:c8:b9:f2:ce
        Signature Algorithm: sha256WithRSAEncryption
        Issuer: CN=team541-net
        Validity
            Not Before: May 18 22:09:01 2022 GMT
            Not After : May  2 22:09:01 2025 GMT
        Subject: CN=team541-server
        Subject Public Key Info:
            Public Key Algorithm: rsaEncryption
                RSA Public-Key: (2048 bit)
                Modulus:
                    00:ca:f5:cc:e9:60:9e:2d:38:61:31:18:c7:39:3a:
                    92:f9:3d:c6:3a:9d:7b:e6:8b:8b:92:57:b7:8e:bf:
                    70:df:26:22:34:bb:78:5b:cb:56:3e:40:53:0c:5a:
                    75:af:4d:ab:91:bc:36:43:e9:62:db:8b:c8:5c:50:
                    91:ec:34:c3:8c:16:30:6b:ef:b5:3e:d0:9d:3d:39:
                    a5:a7:a8:c3:a4:11:43:fe:f4:5c:b3:55:2f:72:8e:
                    79:48:b1:e5:65:c9:b4:11:84:26:bd:25:c9:2a:7d:
                    cf:5c:1f:1b:a2:81:03:3e:8e:dd:c5:7f:52:01:f6:
                    3f:7b:bf:85:e7:31:45:e7:4a:78:ed:bb:7a:7a:2d:
                    ce:4c:7f:71:7f:a7:5c:00:f8:ee:98:45:32:56:ce:
                    e9:c6:58:99:22:3e:10:36:c2:6b:aa:a1:1d:46:c4:
                    30:6e:14:2b:a0:a2:08:d8:78:3b:b2:80:41:62:18:
                    da:b6:fd:ba:54:d4:b4:46:45:a6:23:e5:a1:9a:e7:
                    93:e1:c4:aa:17:a0:7b:bf:b6:dd:ab:e3:c9:5d:5a:
                    cb:84:fc:3d:b1:48:9b:9f:eb:3c:d5:4a:94:88:e5:
                    15:e3:07:df:5a:70:71:71:ad:a1:ab:b1:b1:9e:d0:
                    b5:ad:5b:02:13:a3:c3:95:7a:1a:39:d4:4c:75:fa:
                    ab:23
                Exponent: 65537 (0x10001)
        X509v3 extensions:
            X509v3 Basic Constraints: 
                CA:FALSE
            X509v3 Subject Key Identifier: 
                DD:16:85:31:79:82:5A:4E:2D:49:03:D6:4A:25:50:FD:88:06:1B:D8
            X509v3 Authority Key Identifier: 
                keyid:13:C6:4C:0D:C7:73:D1:DE:DA:17:3B:79:D3:B7:F7:CC:2A:59:07:11
                DirName:/CN=team541-net
                serial:04:8B:AF:53:D5:53:3D:54:2E:31:F0:AD:AD:F5:C5:D0:0A:C8:32:B3

            X509v3 Extended Key Usage: 
                TLS Web Server Authentication
            X509v3 Key Usage: 
                Digital Signature, Key Encipherment
            X509v3 Subject Alternative Name: 
                DNS:team541-server
    Signature Algorithm: sha256WithRSAEncryption
         20:c7:1e:48:94:39:2b:f0:79:cc:2d:d7:01:a2:91:70:e7:e5:
         ff:9d:00:2c:c9:14:97:17:44:8f:26:4a:23:95:4d:c6:7d:9d:
         76:53:e5:17:fb:30:a3:b0:2a:34:91:38:a2:30:e0:fd:cc:44:
         68:2e:89:fd:c8:94:93:a7:e8:58:82:69:f9:3c:c5:09:33:9a:
         40:23:23:af:61:40:23:35:6d:be:81:f9:6f:44:36:f5:04:10:
         d5:c1:59:cf:dc:42:c6:b7:41:93:25:d7:2c:44:a0:68:e3:a1:
         dc:5d:6e:b9:05:0e:7b:4a:09:07:9f:06:96:ac:93:da:ff:fa:
         70:3a:5c:94:10:cc:59:a2:4a:ae:98:b5:33:c2:7c:ea:47:4e:
         c7:ce:d2:b4:aa:5b:fe:92:ce:cf:9d:86:a0:58:55:c4:67:26:
         75:3a:79:e4:7c:c8:a3:ac:f0:31:cd:f5:4e:e9:96:7f:cd:7f:
         ce:e5:54:88:aa:d0:3c:79:81:94:14:4f:27:a8:d3:93:e0:d1:
         ec:2a:1c:bc:5d:cc:c4:34:75:8a:70:fd:14:24:39:b9:62:34:
         e8:77:2c:35:1a:42:70:53:33:29:4e:01:74:49:2c:82:a5:69:
         0e:ea:69:24:76:87:16:ae:eb:f3:54:a1:6e:de:13:e6:40:07:
         b6:eb:88:00
-----BEGIN CERTIFICATE-----
MIIDdzCCAl+gAwIBAgIQf5Q+d51U7QCB1xcGyLnyzjANBgkqhkiG9w0BAQsFADAW
MRQwEgYDVQQDDAt0ZWFtNTQxLW5ldDAeFw0yMjA1MTgyMjA5MDFaFw0yNTA1MDIy
MjA5MDFaMBkxFzAVBgNVBAMMDnRlYW01NDEtc2VydmVyMIIBIjANBgkqhkiG9w0B
AQEFAAOCAQ8AMIIBCgKCAQEAyvXM6WCeLThhMRjHOTqS+T3GOp175ouLkle3jr9w
3yYiNLt4W8tWPkBTDFp1r02rkbw2Q+li24vIXFCR7DTDjBYwa++1PtCdPTmlp6jD
pBFD/vRcs1Uvco55SLHlZcm0EYQmvSXJKn3PXB8booEDPo7dxX9SAfY/e7+F5zFF
50p47bt6ei3OTH9xf6dcAPjumEUyVs7pxliZIj4QNsJrqqEdRsQwbhQroKII2Hg7
soBBYhjatv26VNS0RkWmI+WhmueT4cSqF6B7v7bdq+PJXVrLhPw9sUibn+s81UqU
iOUV4wffWnBxca2hq7GxntC1rVsCE6PDlXoaOdRMdfqrIwIDAQABo4G9MIG6MAkG
A1UdEwQCMAAwHQYDVR0OBBYEFN0WhTF5glpOLUkD1kolUP2IBhvYMFEGA1UdIwRK
MEiAFBPGTA3Hc9He2hc7edO398wqWQcRoRqkGDAWMRQwEgYDVQQDDAt0ZWFtNTQx
LW5ldIIUBIuvU9VTPVQuMfCtrfXF0ArIMrMwEwYDVR0lBAwwCgYIKwYBBQUHAwEw
CwYDVR0PBAQDAgWgMBkGA1UdEQQSMBCCDnRlYW01NDEtc2VydmVyMA0GCSqGSIb3
DQEBCwUAA4IBAQAgxx5IlDkr8HnMLdcBopFw5+X/nQAsyRSXF0SPJkojlU3GfZ12
U+UX+zCjsCo0kTiiMOD9zERoLon9yJSTp+hYgmn5PMUJM5pAIyOvYUAjNW2+gflv
RDb1BBDVwVnP3ELGt0GTJdcsRKBo46HcXW65BQ57SgkHnwaWrJPa//pwOlyUEMxZ
okqumLUzwnzqR07HztK0qlv+ks7PnYagWFXEZyZ1OnnkfMijrPAxzfVO6ZZ/zX/O
5VSIqtA8eYGUFE8nqNOT4NHsKhy8XczENHWKcP0UJDm5YjTodyw1GkJwUzMpTgF0
SSyCpWkO6mkkdocWruvzVKFu3hPmQAe264gA
-----END CERTIFICATE-----
