Certificate:
    Data:
        Version: 3 (0x2)
        Serial Number:
            2d:aa:fd:3e:5e:81:0d:52:e0:08:8d:dc:5f:80:9c:09
        Signature Algorithm: sha256WithRSAEncryption
        Issuer: CN=team484-net
        Validity
            Not Before: May 18 21:43:06 2022 GMT
            Not After : May  2 21:43:06 2025 GMT
        Subject: CN=team484-client
        Subject Public Key Info:
            Public Key Algorithm: rsaEncryption
                RSA Public-Key: (2048 bit)
                Modulus:
                    00:cf:bc:6b:e8:8f:75:cd:e2:30:12:25:63:5f:f1:
                    3f:6c:75:ea:7c:9e:96:85:4e:22:23:fc:37:95:b9:
                    26:a0:88:b6:af:6a:b3:72:8d:ab:bb:db:29:7b:1b:
                    04:50:85:db:53:67:57:1f:ea:85:a1:54:49:eb:98:
                    4d:6c:48:45:00:ce:1e:7d:6f:40:ee:20:63:bc:58:
                    83:bd:20:7e:99:56:9c:e7:3d:9f:b5:09:97:ab:ae:
                    16:9a:14:e6:64:d1:e2:98:71:12:13:ee:10:75:ae:
                    46:71:c4:25:2f:b3:9f:aa:07:88:62:e9:d8:c3:e9:
                    d3:0d:e4:5f:24:6c:d7:da:15:44:a5:d6:47:74:d4:
                    d8:f4:c6:3a:c8:31:af:41:cf:ff:76:7f:dc:79:28:
                    2c:7a:98:de:fe:c8:e6:98:33:31:a6:fb:64:ea:44:
                    95:4b:2a:f1:da:9a:da:db:6b:4e:b9:5e:a9:7c:fd:
                    04:16:f8:b4:f2:2e:50:20:61:7d:19:69:6c:7f:d1:
                    80:e2:7d:08:30:db:f8:aa:9c:9b:60:a9:e9:a7:e1:
                    b6:7c:8c:68:d1:2e:44:90:67:34:b2:ee:04:bb:63:
                    3d:ab:1f:ea:29:bf:d2:1a:b3:bb:9d:3f:90:50:45:
                    98:d8:f2:a9:b5:e5:61:62:b9:3d:e1:f1:c8:c4:6e:
                    1e:b1
                Exponent: 65537 (0x10001)
        X509v3 extensions:
            X509v3 Basic Constraints: 
                CA:FALSE
            X509v3 Subject Key Identifier: 
                25:D7:65:67:55:BA:3C:8E:7B:D1:33:8F:CE:33:75:F6:F1:E8:9F:95
            X509v3 Authority Key Identifier: 
                keyid:75:3C:A8:AE:1B:12:6D:CE:BE:0B:93:9B:7E:70:90:EE:D1:42:16:3F
                DirName:/CN=team484-net
                serial:34:4F:E0:52:BB:E6:F5:E5:F1:CB:00:AC:9B:92:E1:F1:97:BE:25:6A

            X509v3 Extended Key Usage: 
                TLS Web Client Authentication
            X509v3 Key Usage: 
                Digital Signature
    Signature Algorithm: sha256WithRSAEncryption
         a1:90:64:39:38:0e:c1:7e:f1:82:aa:c0:a9:29:a7:9c:61:63:
         be:00:a1:13:e9:40:5f:b4:c1:dc:62:18:20:c5:e4:77:e1:2e:
         05:36:b4:e4:eb:76:aa:06:4b:30:0a:2a:0b:48:25:7b:73:c3:
         e2:2f:05:fe:30:1d:f2:44:44:ed:41:5b:67:7b:cb:2d:9b:f4:
         cc:2d:82:c1:e1:2d:70:ca:30:10:7f:87:c4:c7:3e:c7:d1:c4:
         2d:ba:bb:43:e1:24:74:ec:20:af:6c:01:7d:b3:10:50:6e:6d:
         7d:6c:31:6d:2e:2c:a8:d3:c6:7f:43:d3:e8:2d:5b:86:ed:c3:
         72:a5:12:3e:e4:68:e8:ce:78:c1:99:3e:6e:96:5d:a0:c7:60:
         b9:24:1e:68:c3:c9:92:f7:f6:5d:2e:f7:29:85:83:f3:c9:1e:
         4e:28:48:ad:de:e0:67:26:0e:ef:e1:78:c1:98:7d:5d:10:08:
         ff:8d:d9:f6:1e:ae:06:04:72:47:85:bd:cd:76:71:91:5d:68:
         79:f5:98:54:bc:be:76:58:4d:3f:16:15:3e:8e:eb:aa:c8:1a:
         26:1e:a9:11:fa:57:9b:dc:ee:05:0b:a4:62:b1:45:fb:18:c7:
         b7:3c:7c:6b:34:8c:90:b2:8b:25:ab:a4:da:01:2d:78:0c:4a:
         29:f6:b8:c4
-----BEGIN CERTIFICATE-----
MIIDXDCCAkSgAwIBAgIQLar9Pl6BDVLgCI3cX4CcCTANBgkqhkiG9w0BAQsFADAW
MRQwEgYDVQQDDAt0ZWFtNDg0LW5ldDAeFw0yMjA1MTgyMTQzMDZaFw0yNTA1MDIy
MTQzMDZaMBkxFzAVBgNVBAMMDnRlYW00ODQtY2xpZW50MIIBIjANBgkqhkiG9w0B
AQEFAAOCAQ8AMIIBCgKCAQEAz7xr6I91zeIwEiVjX/E/bHXqfJ6WhU4iI/w3lbkm
oIi2r2qzco2ru9spexsEUIXbU2dXH+qFoVRJ65hNbEhFAM4efW9A7iBjvFiDvSB+
mVac5z2ftQmXq64WmhTmZNHimHESE+4Qda5GccQlL7OfqgeIYunYw+nTDeRfJGzX
2hVEpdZHdNTY9MY6yDGvQc//dn/ceSgsepje/sjmmDMxpvtk6kSVSyrx2pra22tO
uV6pfP0EFvi08i5QIGF9GWlsf9GA4n0IMNv4qpybYKnpp+G2fIxo0S5EkGc0su4E
u2M9qx/qKb/SGrO7nT+QUEWY2PKpteVhYrk94fHIxG4esQIDAQABo4GiMIGfMAkG
A1UdEwQCMAAwHQYDVR0OBBYEFCXXZWdVujyOe9Ezj84zdfbx6J+VMFEGA1UdIwRK
MEiAFHU8qK4bEm3OvguTm35wkO7RQhY/oRqkGDAWMRQwEgYDVQQDDAt0ZWFtNDg0
LW5ldIIUNE/gUrvm9eXxywCsm5Lh8Ze+JWowEwYDVR0lBAwwCgYIKwYBBQUHAwIw
CwYDVR0PBAQDAgeAMA0GCSqGSIb3DQEBCwUAA4IBAQChkGQ5OA7BfvGCqsCpKaec
YWO+AKET6UBftMHcYhggxeR34S4FNrTk63aqBkswCioLSCV7c8PiLwX+MB3yRETt
QVtne8stm/TMLYLB4S1wyjAQf4fExz7H0cQturtD4SR07CCvbAF9sxBQbm19bDFt
Liyo08Z/Q9PoLVuG7cNypRI+5GjoznjBmT5ull2gx2C5JB5ow8mS9/ZdLvcphYPz
yR5OKEit3uBnJg7v4XjBmH1dEAj/jdn2Hq4GBHJHhb3NdnGRXWh59ZhUvL52WE0/
FhU+juuqyBomHqkR+leb3O4FC6RisUX7GMe3PHxrNIyQsoslq6TaAS14DEop9rjE
-----END CERTIFICATE-----
