Certificate:
    Data:
        Version: 3 (0x2)
        Serial Number:
            1a:2a:a8:58:9d:b4:c0:4f:16:3e:2b:95:39:e9:ad:df
        Signature Algorithm: sha256WithRSAEncryption
        Issuer: CN=team255-net
        Validity
            Not Before: May 18 19:32:31 2022 GMT
            Not After : May  2 19:32:31 2025 GMT
        Subject: CN=team255-server
        Subject Public Key Info:
            Public Key Algorithm: rsaEncryption
                RSA Public-Key: (2048 bit)
                Modulus:
                    00:ce:32:5b:5e:d8:3d:d3:ff:4d:2d:74:0f:ff:ab:
                    5b:38:15:0c:d8:ac:34:c5:7e:d2:3f:3d:fd:c1:65:
                    ec:55:b0:13:cd:eb:9e:c0:8e:fe:0e:01:3b:2f:77:
                    4e:10:2f:23:f0:87:0b:d2:c5:88:2d:95:91:0a:b4:
                    b1:66:68:44:21:a1:f6:db:78:76:0c:ea:0f:9d:e4:
                    b8:82:87:5a:2d:dc:a7:ce:9f:f8:b3:e0:06:0a:a5:
                    4b:eb:7e:54:be:93:05:97:aa:80:10:68:67:93:cf:
                    d5:8e:b0:48:4d:cc:11:36:41:f6:5c:e3:5f:ef:77:
                    52:6e:e9:3f:8c:81:17:7a:4c:36:b5:fc:e0:ae:eb:
                    03:22:7f:2d:22:34:ff:78:be:09:e0:e0:62:d0:ef:
                    8d:4d:db:ad:ec:a7:ce:f4:ec:b9:e0:15:b7:2c:45:
                    74:e1:14:81:35:e1:7a:bb:ac:55:9e:60:1d:ce:27:
                    81:d1:f4:0f:d6:19:00:1b:09:05:9b:a0:bf:cf:ad:
                    e7:ee:d7:be:dc:7f:f8:8d:0b:28:62:04:52:8c:fc:
                    df:90:7a:6f:00:02:ea:23:bc:0b:4c:16:40:b4:1c:
                    2e:d1:a6:b1:59:98:08:1b:15:42:32:bb:d1:43:a2:
                    de:fc:79:d0:6d:40:f2:9a:4f:35:4f:fe:e2:41:41:
                    51:1d
                Exponent: 65537 (0x10001)
        X509v3 extensions:
            X509v3 Basic Constraints: 
                CA:FALSE
            X509v3 Subject Key Identifier: 
                3D:12:74:B2:B0:8A:50:CF:DA:5D:70:C7:F0:CC:6E:FF:10:6F:41:DB
            X509v3 Authority Key Identifier: 
                keyid:B2:D5:46:C8:2B:6C:A3:45:4C:37:17:BA:3D:87:69:10:CE:79:C8:69
                DirName:/CN=team255-net
                serial:27:9A:B7:2F:D7:67:C9:EC:07:C5:F5:3C:CF:B9:13:CD:58:E6:0C:E0

            X509v3 Extended Key Usage: 
                TLS Web Server Authentication
            X509v3 Key Usage: 
                Digital Signature, Key Encipherment
            X509v3 Subject Alternative Name: 
                DNS:team255-server
    Signature Algorithm: sha256WithRSAEncryption
         2b:29:4c:dc:ad:bc:1f:be:3c:29:1d:89:bb:a0:f6:86:a3:41:
         a5:e5:e1:77:a7:19:d9:20:93:70:bd:71:f4:7f:58:b7:7a:d1:
         1d:1a:63:4c:4c:30:85:39:e7:a5:02:2b:14:de:13:9b:31:21:
         09:fa:b9:9a:b4:e8:55:d4:1c:75:24:d4:41:b6:c3:06:53:8b:
         95:23:8d:08:0c:ce:76:71:3c:82:4b:11:88:f1:09:ae:b8:91:
         c0:ea:be:75:b1:15:2e:e5:de:5f:20:6e:31:1b:81:e3:a1:71:
         21:30:e4:88:2a:2c:40:ab:3c:a2:08:86:e4:19:b3:77:54:84:
         41:08:99:ce:5b:a4:6e:c1:ed:80:7e:6a:39:a0:4e:fd:1a:cb:
         47:55:20:ee:af:cb:45:3b:c7:f6:55:56:43:b8:5d:1a:9d:e4:
         af:c9:ee:49:b5:17:92:81:1b:51:44:04:99:01:53:f4:36:22:
         67:1e:b8:f4:64:2c:cb:d2:5e:cb:ec:5c:aa:a2:57:3b:22:d8:
         ba:f2:15:e6:db:15:c6:7d:cf:16:1d:73:eb:e9:e7:28:02:e8:
         74:37:a2:23:17:d7:84:1f:e6:56:47:68:e6:74:61:d3:9b:bf:
         0c:48:2b:58:d7:c3:6f:ec:42:9a:d3:3d:6a:c1:8d:93:2f:fe:
         fb:42:70:bd
-----BEGIN CERTIFICATE-----
MIIDdzCCAl+gAwIBAgIQGiqoWJ20wE8WPiuVOemt3zANBgkqhkiG9w0BAQsFADAW
MRQwEgYDVQQDDAt0ZWFtMjU1LW5ldDAeFw0yMjA1MTgxOTMyMzFaFw0yNTA1MDIx
OTMyMzFaMBkxFzAVBgNVBAMMDnRlYW0yNTUtc2VydmVyMIIBIjANBgkqhkiG9w0B
AQEFAAOCAQ8AMIIBCgKCAQEAzjJbXtg90/9NLXQP/6tbOBUM2Kw0xX7SPz39wWXs
VbATzeuewI7+DgE7L3dOEC8j8IcL0sWILZWRCrSxZmhEIaH223h2DOoPneS4goda
Ldynzp/4s+AGCqVL635UvpMFl6qAEGhnk8/VjrBITcwRNkH2XONf73dSbuk/jIEX
ekw2tfzgrusDIn8tIjT/eL4J4OBi0O+NTdut7KfO9Oy54BW3LEV04RSBNeF6u6xV
nmAdzieB0fQP1hkAGwkFm6C/z63n7te+3H/4jQsoYgRSjPzfkHpvAALqI7wLTBZA
tBwu0aaxWZgIGxVCMrvRQ6Le/HnQbUDymk81T/7iQUFRHQIDAQABo4G9MIG6MAkG
A1UdEwQCMAAwHQYDVR0OBBYEFD0SdLKwilDP2l1wx/DMbv8Qb0HbMFEGA1UdIwRK
MEiAFLLVRsgrbKNFTDcXuj2HaRDOechpoRqkGDAWMRQwEgYDVQQDDAt0ZWFtMjU1
LW5ldIIUJ5q3L9dnyewHxfU8z7kTzVjmDOAwEwYDVR0lBAwwCgYIKwYBBQUHAwEw
CwYDVR0PBAQDAgWgMBkGA1UdEQQSMBCCDnRlYW0yNTUtc2VydmVyMA0GCSqGSIb3
DQEBCwUAA4IBAQArKUzcrbwfvjwpHYm7oPaGo0Gl5eF3pxnZIJNwvXH0f1i3etEd
GmNMTDCFOeelAisU3hObMSEJ+rmatOhV1Bx1JNRBtsMGU4uVI40IDM52cTyCSxGI
8QmuuJHA6r51sRUu5d5fIG4xG4HjoXEhMOSIKixAqzyiCIbkGbN3VIRBCJnOW6Ru
we2Afmo5oE79GstHVSDur8tFO8f2VVZDuF0aneSvye5JtReSgRtRRASZAVP0NiJn
Hrj0ZCzL0l7L7Fyqolc7Iti68hXm2xXGfc8WHXPr6ecoAuh0N6IjF9eEH+ZWR2jm
dGHTm78MSCtY18Nv7EKa0z1qwY2TL/77QnC9
-----END CERTIFICATE-----
