Certificate:
    Data:
        Version: 3 (0x2)
        Serial Number:
            cb:2a:ea:a1:a4:58:93:3d:77:e4:73:36:f9:70:7a:ca
        Signature Algorithm: sha256WithRSAEncryption
        Issuer: CN=team280-net
        Validity
            Not Before: May 18 19:54:03 2022 GMT
            Not After : May  2 19:54:03 2025 GMT
        Subject: CN=team280-client
        Subject Public Key Info:
            Public Key Algorithm: rsaEncryption
                RSA Public-Key: (2048 bit)
                Modulus:
                    00:de:95:ad:54:8b:65:21:63:ae:96:08:c1:0c:81:
                    c1:85:87:90:b0:28:58:83:ec:38:21:6e:8c:e9:6f:
                    3e:e5:43:89:e8:04:f9:ff:6c:27:31:3d:c9:75:fb:
                    1f:af:e8:a7:b3:80:5f:cf:84:20:3d:61:dd:cd:46:
                    29:3f:a7:36:b4:40:15:24:f3:9c:8a:b3:57:24:52:
                    c4:4c:1a:65:ed:82:b1:de:c5:64:ad:a1:18:43:22:
                    00:f8:24:2d:4f:1a:fc:37:df:6b:3e:0a:f7:39:e3:
                    cd:d2:b7:81:5b:52:3b:19:43:32:22:45:ca:a5:24:
                    23:2c:40:23:57:76:eb:3f:86:59:95:af:fd:b3:55:
                    41:95:f7:1c:2b:80:80:1b:2f:90:92:77:09:0b:22:
                    56:04:30:6e:00:72:5a:80:e4:89:ea:e9:3a:95:0c:
                    b5:d5:a9:f6:ed:61:68:e6:ef:27:31:d3:a1:4c:1c:
                    89:ce:65:bb:f4:ff:09:2d:c4:ba:4d:59:fe:02:6c:
                    24:40:42:55:15:e2:b3:5a:96:5d:3d:a0:91:62:15:
                    ca:42:42:7f:cf:86:6f:c9:2b:24:3d:d2:55:ba:03:
                    08:b0:92:07:17:b2:37:73:74:77:c0:f5:fa:ba:82:
                    fa:24:89:86:c8:bc:f3:5d:bb:5e:b2:67:b3:0b:71:
                    57:39
                Exponent: 65537 (0x10001)
        X509v3 extensions:
            X509v3 Basic Constraints: 
                CA:FALSE
            X509v3 Subject Key Identifier: 
                ED:2C:4D:CE:9D:B3:F7:B9:41:98:0F:F1:B4:6F:62:68:03:88:CB:C5
            X509v3 Authority Key Identifier: 
                keyid:E7:8C:3A:B0:28:03:0B:28:D1:E3:31:36:7F:0B:F3:0B:1E:C0:82:18
                DirName:/CN=team280-net
                serial:3B:49:D1:9B:4A:C6:73:48:30:60:88:C0:10:17:AB:E0:2F:44:18:32

            X509v3 Extended Key Usage: 
                TLS Web Client Authentication
            X509v3 Key Usage: 
                Digital Signature
    Signature Algorithm: sha256WithRSAEncryption
         59:73:db:86:eb:5e:64:b0:02:80:09:53:e2:fc:39:0b:54:56:
         50:80:71:bf:77:28:bd:5a:98:7b:cb:ed:71:5f:cc:65:e4:32:
         9e:56:96:2a:94:16:b1:90:4d:a4:46:ed:79:4f:47:86:c1:08:
         4c:92:33:65:4e:20:60:3c:eb:8a:e0:69:42:c4:60:0b:77:55:
         3d:1b:ee:bc:f9:c0:c8:b1:ec:af:cd:a8:59:3f:8d:b9:d4:dc:
         a9:4d:d5:ff:d9:3a:5a:f6:6e:6d:d6:2a:f0:fa:3a:ba:bb:cb:
         61:e7:93:42:3d:36:4f:90:5e:8c:8d:84:88:27:72:8d:bf:71:
         ff:dc:9f:f9:55:3d:2d:00:8f:c7:e1:eb:62:3d:1c:40:83:0a:
         3f:2f:08:5d:b9:0d:61:fb:74:55:cf:a2:24:61:07:4d:d7:a3:
         c7:22:75:eb:d6:e1:be:1d:de:e3:e3:fa:78:1f:2f:3b:55:6a:
         0b:b0:62:e2:f6:cd:ef:7e:29:1e:d0:98:88:7e:e1:2f:c9:28:
         19:d6:3c:87:c4:43:4f:6b:48:cc:ce:34:f0:ed:6a:32:59:d7:
         1c:ed:0e:a0:74:23:b5:7a:25:ba:5c:12:94:a4:e3:61:95:47:
         ba:5d:4a:91:40:c2:b4:20:de:aa:fd:11:a2:89:a9:a7:3f:b3:
         4f:7f:8f:6b
-----BEGIN CERTIFICATE-----
MIIDXTCCAkWgAwIBAgIRAMsq6qGkWJM9d+RzNvlwesowDQYJKoZIhvcNAQELBQAw
FjEUMBIGA1UEAwwLdGVhbTI4MC1uZXQwHhcNMjIwNTE4MTk1NDAzWhcNMjUwNTAy
MTk1NDAzWjAZMRcwFQYDVQQDDA50ZWFtMjgwLWNsaWVudDCCASIwDQYJKoZIhvcN
AQEBBQADggEPADCCAQoCggEBAN6VrVSLZSFjrpYIwQyBwYWHkLAoWIPsOCFujOlv
PuVDiegE+f9sJzE9yXX7H6/op7OAX8+EID1h3c1GKT+nNrRAFSTznIqzVyRSxEwa
Ze2Csd7FZK2hGEMiAPgkLU8a/Dffaz4K9znjzdK3gVtSOxlDMiJFyqUkIyxAI1d2
6z+GWZWv/bNVQZX3HCuAgBsvkJJ3CQsiVgQwbgByWoDkierpOpUMtdWp9u1haObv
JzHToUwcic5lu/T/CS3Euk1Z/gJsJEBCVRXis1qWXT2gkWIVykJCf8+Gb8krJD3S
VboDCLCSBxeyN3N0d8D1+rqC+iSJhsi88127XrJnswtxVzkCAwEAAaOBojCBnzAJ
BgNVHRMEAjAAMB0GA1UdDgQWBBTtLE3OnbP3uUGYD/G0b2JoA4jLxTBRBgNVHSME
SjBIgBTnjDqwKAMLKNHjMTZ/C/MLHsCCGKEapBgwFjEUMBIGA1UEAwwLdGVhbTI4
MC1uZXSCFDtJ0ZtKxnNIMGCIwBAXq+AvRBgyMBMGA1UdJQQMMAoGCCsGAQUFBwMC
MAsGA1UdDwQEAwIHgDANBgkqhkiG9w0BAQsFAAOCAQEAWXPbhuteZLACgAlT4vw5
C1RWUIBxv3covVqYe8vtcV/MZeQynlaWKpQWsZBNpEbteU9HhsEITJIzZU4gYDzr
iuBpQsRgC3dVPRvuvPnAyLHsr82oWT+NudTcqU3V/9k6WvZubdYq8Po6urvLYeeT
Qj02T5BejI2EiCdyjb9x/9yf+VU9LQCPx+HrYj0cQIMKPy8IXbkNYft0Vc+iJGEH
TdejxyJ169bhvh3e4+P6eB8vO1VqC7Bi4vbN734pHtCYiH7hL8koGdY8h8RDT2tI
zM408O1qMlnXHO0OoHQjtXolulwSlKTjYZVHul1KkUDCtCDeqv0Roomppz+zT3+P
aw==
-----END CERTIFICATE-----
