Certificate:
    Data:
        Version: 3 (0x2)
        Serial Number:
            19:d4:a5:f2:cf:90:a5:64:e5:c7:6e:92:d8:cd:3c:59
        Signature Algorithm: sha256WithRSAEncryption
        Issuer: CN=team351-net
        Validity
            Not Before: May 18 20:29:37 2022 GMT
            Not After : May  2 20:29:37 2025 GMT
        Subject: CN=team351-client
        Subject Public Key Info:
            Public Key Algorithm: rsaEncryption
                RSA Public-Key: (2048 bit)
                Modulus:
                    00:e0:ad:81:93:bf:55:8c:25:d1:bc:07:9e:8f:9e:
                    00:dc:8e:b3:04:13:ef:6a:db:d9:ea:fb:06:c7:3f:
                    ba:a9:47:4a:0f:5a:91:0f:ab:80:d2:f7:42:06:c0:
                    1e:ae:f6:f5:d3:2d:9b:66:e4:74:2f:8c:f1:a5:d6:
                    7a:b2:db:d0:94:85:64:7b:f0:e2:65:13:54:b5:76:
                    bb:f6:67:26:07:39:d3:39:cd:50:09:74:48:20:8f:
                    71:66:fc:3e:c6:76:9b:9b:45:f0:c4:3f:34:f0:c3:
                    df:4f:ae:8d:de:9a:c9:20:63:bb:9b:87:89:ef:42:
                    3b:f8:44:82:17:9e:6e:de:be:56:b3:b4:91:d6:2f:
                    dc:45:79:8d:41:d8:27:2e:54:e9:5f:3d:99:8c:65:
                    9d:16:1c:b7:bc:39:02:fe:a4:9a:44:2b:93:09:58:
                    00:5b:51:93:80:36:18:56:e5:b4:28:12:96:c0:f6:
                    da:b7:6d:52:f9:38:62:e8:17:c8:47:3e:37:78:22:
                    7c:b9:c1:42:fa:77:ee:51:99:d8:4f:0f:dd:65:7e:
                    42:24:56:e0:b1:8d:19:cb:e7:f8:7f:c8:b9:22:63:
                    34:c4:21:38:d9:6a:1b:64:5d:67:36:f7:1d:b3:98:
                    2a:93:cc:7d:1b:9c:3d:be:76:74:40:cb:47:e5:42:
                    a6:15
                Exponent: 65537 (0x10001)
        X509v3 extensions:
            X509v3 Basic Constraints: 
                CA:FALSE
            X509v3 Subject Key Identifier: 
                8C:69:6B:AC:A3:46:98:C0:31:2D:F2:47:E4:A3:FF:81:88:57:23:0C
            X509v3 Authority Key Identifier: 
                keyid:CC:DD:3D:22:9E:A2:D2:E3:BC:59:90:36:56:27:4D:5E:45:1C:C4:02
                DirName:/CN=team351-net
                serial:21:E8:3B:E7:13:7F:08:BC:55:4C:DE:2A:F8:E3:26:32:B9:0F:40:EA

            X509v3 Extended Key Usage: 
                TLS Web Client Authentication
            X509v3 Key Usage: 
                Digital Signature
    Signature Algorithm: sha256WithRSAEncryption
         6c:a5:be:fb:d6:a8:a9:fd:4d:85:f6:80:0c:a7:05:85:5a:ce:
         85:e7:ba:fc:d1:fc:6f:24:d2:4e:13:93:82:fa:4c:d2:0b:56:
         c6:37:a5:30:8d:f6:ef:bb:f2:d8:1c:25:82:6e:87:26:c8:c6:
         b6:7d:c4:1e:86:ba:6e:50:8f:ab:55:50:01:e6:a4:2d:cc:74:
         6f:c3:5f:a5:5a:b6:4b:0e:08:b0:6f:ae:6d:fa:14:65:44:33:
         63:58:05:73:e8:85:72:83:f2:fe:07:18:7c:05:57:e1:9c:cc:
         ec:3b:65:3d:f1:93:ab:3d:45:54:38:65:6f:ed:d4:a6:27:65:
         9a:e5:f9:7c:83:a2:9c:62:ad:60:e8:eb:07:94:c3:15:50:9a:
         29:dd:d6:d5:05:ea:ff:8e:44:3b:54:7d:ee:5b:77:d9:4d:a3:
         71:bb:46:a7:72:0a:92:94:2a:cd:be:f9:f6:7c:23:b4:2e:52:
         29:6c:9e:08:56:8e:1a:59:c4:02:6e:35:9e:ab:c4:de:68:87:
         49:f4:a1:0f:07:08:a8:36:07:4b:62:e4:bd:ee:a9:7a:44:55:
         ea:fe:74:25:31:f3:08:7f:1d:3c:e9:8b:2c:8a:56:9c:dc:93:
         b7:97:d2:ca:a6:57:1f:df:78:1b:8c:d9:57:37:1e:60:4e:dd:
         ad:9d:b6:55
-----BEGIN CERTIFICATE-----
MIIDXDCCAkSgAwIBAgIQGdSl8s+QpWTlx26S2M08WTANBgkqhkiG9w0BAQsFADAW
MRQwEgYDVQQDDAt0ZWFtMzUxLW5ldDAeFw0yMjA1MTgyMDI5MzdaFw0yNTA1MDIy
MDI5MzdaMBkxFzAVBgNVBAMMDnRlYW0zNTEtY2xpZW50MIIBIjANBgkqhkiG9w0B
AQEFAAOCAQ8AMIIBCgKCAQEA4K2Bk79VjCXRvAeej54A3I6zBBPvatvZ6vsGxz+6
qUdKD1qRD6uA0vdCBsAervb10y2bZuR0L4zxpdZ6stvQlIVke/DiZRNUtXa79mcm
BznTOc1QCXRIII9xZvw+xnabm0XwxD808MPfT66N3prJIGO7m4eJ70I7+ESCF55u
3r5Ws7SR1i/cRXmNQdgnLlTpXz2ZjGWdFhy3vDkC/qSaRCuTCVgAW1GTgDYYVuW0
KBKWwPbat21S+Thi6BfIRz43eCJ8ucFC+nfuUZnYTw/dZX5CJFbgsY0Zy+f4f8i5
ImM0xCE42WobZF1nNvcds5gqk8x9G5w9vnZ0QMtH5UKmFQIDAQABo4GiMIGfMAkG
A1UdEwQCMAAwHQYDVR0OBBYEFIxpa6yjRpjAMS3yR+Sj/4GIVyMMMFEGA1UdIwRK
MEiAFMzdPSKeotLjvFmQNlYnTV5FHMQCoRqkGDAWMRQwEgYDVQQDDAt0ZWFtMzUx
LW5ldIIUIeg75xN/CLxVTN4q+OMmMrkPQOowEwYDVR0lBAwwCgYIKwYBBQUHAwIw
CwYDVR0PBAQDAgeAMA0GCSqGSIb3DQEBCwUAA4IBAQBspb771qip/U2F9oAMpwWF
Ws6F57r80fxvJNJOE5OC+kzSC1bGN6Uwjfbvu/LYHCWCbocmyMa2fcQehrpuUI+r
VVAB5qQtzHRvw1+lWrZLDgiwb65t+hRlRDNjWAVz6IVyg/L+Bxh8BVfhnMzsO2U9
8ZOrPUVUOGVv7dSmJ2Wa5fl8g6KcYq1g6OsHlMMVUJop3dbVBer/jkQ7VH3uW3fZ
TaNxu0ancgqSlCrNvvn2fCO0LlIpbJ4IVo4aWcQCbjWeq8TeaIdJ9KEPBwioNgdL
YuS97ql6RFXq/nQlMfMIfx086Yssilac3JO3l9LKplcf33gbjNlXNx5gTt2tnbZV
-----END CERTIFICATE-----
