Certificate:
    Data:
        Version: 3 (0x2)
        Serial Number:
            d3:20:1d:8d:59:29:b9:0c:ec:5b:b7:84:c9:51:88:9a
        Signature Algorithm: sha256WithRSAEncryption
        Issuer: CN=team351-net
        Validity
            Not Before: May 18 20:29:37 2022 GMT
            Not After : May  2 20:29:37 2025 GMT
        Subject: CN=team351-server
        Subject Public Key Info:
            Public Key Algorithm: rsaEncryption
                RSA Public-Key: (2048 bit)
                Modulus:
                    00:c6:78:e6:75:10:7f:9a:65:15:3e:30:a3:a0:41:
                    19:47:7e:af:e6:de:e7:e3:4e:3f:dd:20:60:cb:78:
                    e9:7f:04:72:80:31:32:cd:6c:8f:f8:ef:ee:59:c1:
                    87:f7:9e:9d:d8:64:19:c6:03:bc:3f:b2:16:53:5f:
                    17:bd:8e:0b:39:ce:0e:7a:25:e8:e4:bb:c2:16:9f:
                    db:0d:4b:61:e5:59:bc:56:7d:2d:e6:93:3f:97:f6:
                    e5:f6:95:d5:74:cb:f3:a5:42:3a:f5:75:fd:14:84:
                    d7:3c:ab:a1:68:9e:1d:a8:a9:76:3a:fc:e8:c9:b8:
                    d1:27:a6:8f:87:67:9e:e3:2c:d9:42:4e:f3:95:1f:
                    4c:09:ba:ed:08:70:ab:8f:57:5d:b6:b3:f2:b7:df:
                    6f:b3:f9:dc:f7:e4:e9:9a:9a:43:2a:6c:c4:bd:39:
                    6d:2d:40:28:14:d1:86:d0:5c:6d:e8:13:6b:8b:df:
                    18:89:ed:78:e9:a5:4c:39:27:d4:71:0b:a3:bd:a9:
                    c0:1d:c6:ee:70:c8:aa:e8:64:7a:28:dc:7d:a0:59:
                    d4:b7:e4:8d:a3:56:95:1a:e7:6e:6b:a4:a2:8e:eb:
                    c2:01:7d:5a:a6:85:75:12:b0:d2:58:eb:92:06:54:
                    d7:3c:7d:0e:79:5a:93:54:18:8b:a9:37:1a:a4:06:
                    2b:0d
                Exponent: 65537 (0x10001)
        X509v3 extensions:
            X509v3 Basic Constraints: 
                CA:FALSE
            X509v3 Subject Key Identifier: 
                B3:15:F2:4B:4A:A5:A4:98:2A:7A:95:EF:F3:C5:A3:71:2D:83:D0:3F
            X509v3 Authority Key Identifier: 
                keyid:CC:DD:3D:22:9E:A2:D2:E3:BC:59:90:36:56:27:4D:5E:45:1C:C4:02
                DirName:/CN=team351-net
                serial:21:E8:3B:E7:13:7F:08:BC:55:4C:DE:2A:F8:E3:26:32:B9:0F:40:EA

            X509v3 Extended Key Usage: 
                TLS Web Server Authentication
            X509v3 Key Usage: 
                Digital Signature, Key Encipherment
            X509v3 Subject Alternative Name: 
                DNS:team351-server
    Signature Algorithm: sha256WithRSAEncryption
         63:9e:41:f3:6f:0a:f5:bf:f9:30:52:aa:dd:83:0b:eb:0c:49:
         89:5d:09:50:d0:1c:73:57:40:86:76:e2:33:a6:fb:0b:32:60:
         b9:61:48:b0:77:ea:46:02:2c:da:0c:02:f1:20:67:33:ef:76:
         1b:b8:3a:8e:ae:d0:fe:79:f8:e1:11:b1:d4:75:6a:87:32:43:
         fd:97:84:99:25:f7:14:e4:9d:28:18:18:91:0f:fe:3d:f2:86:
         25:a2:dd:ee:a5:e8:24:dc:3e:9b:17:42:b1:7d:d1:b9:e3:79:
         dd:b3:88:e3:93:2b:4e:7e:e2:1f:c0:72:70:00:47:15:9b:2f:
         37:d0:6f:00:c4:a9:36:8e:29:6d:32:95:b2:32:c3:b4:d1:62:
         11:fa:a9:63:2e:99:b3:16:3c:11:a5:af:df:70:53:92:c6:d6:
         f2:da:90:90:0f:46:ae:2d:a3:41:46:37:18:cb:bc:e5:17:7b:
         ff:74:9f:18:a9:48:a5:6c:c3:2e:ab:a7:12:23:e8:6e:39:01:
         96:22:7f:2e:63:32:79:06:ba:56:c7:7c:68:cf:42:f7:74:e4:
         0f:58:1e:ec:ec:86:10:33:8b:ac:5e:9e:eb:84:27:5b:a4:32:
         46:1a:80:4c:b9:d7:df:bd:78:3b:9e:3c:6a:1d:4e:16:48:c3:
         cf:56:20:1c
-----BEGIN CERTIFICATE-----
MIIDeDCCAmCgAwIBAgIRANMgHY1ZKbkM7Fu3hMlRiJowDQYJKoZIhvcNAQELBQAw
FjEUMBIGA1UEAwwLdGVhbTM1MS1uZXQwHhcNMjIwNTE4MjAyOTM3WhcNMjUwNTAy
MjAyOTM3WjAZMRcwFQYDVQQDDA50ZWFtMzUxLXNlcnZlcjCCASIwDQYJKoZIhvcN
AQEBBQADggEPADCCAQoCggEBAMZ45nUQf5plFT4wo6BBGUd+r+be5+NOP90gYMt4
6X8EcoAxMs1sj/jv7lnBh/eendhkGcYDvD+yFlNfF72OCznODnol6OS7whaf2w1L
YeVZvFZ9LeaTP5f25faV1XTL86VCOvV1/RSE1zyroWieHaipdjr86Mm40Semj4dn
nuMs2UJO85UfTAm67Qhwq49XXbaz8rffb7P53Pfk6ZqaQypsxL05bS1AKBTRhtBc
begTa4vfGInteOmlTDkn1HELo72pwB3G7nDIquhkeijcfaBZ1LfkjaNWlRrnbmuk
oo7rwgF9WqaFdRKw0ljrkgZU1zx9Dnlak1QYi6k3GqQGKw0CAwEAAaOBvTCBujAJ
BgNVHRMEAjAAMB0GA1UdDgQWBBSzFfJLSqWkmCp6le/zxaNxLYPQPzBRBgNVHSME
SjBIgBTM3T0inqLS47xZkDZWJ01eRRzEAqEapBgwFjEUMBIGA1UEAwwLdGVhbTM1
MS1uZXSCFCHoO+cTfwi8VUzeKvjjJjK5D0DqMBMGA1UdJQQMMAoGCCsGAQUFBwMB
MAsGA1UdDwQEAwIFoDAZBgNVHREEEjAQgg50ZWFtMzUxLXNlcnZlcjANBgkqhkiG
9w0BAQsFAAOCAQEAY55B828K9b/5MFKq3YML6wxJiV0JUNAcc1dAhnbiM6b7CzJg
uWFIsHfqRgIs2gwC8SBnM+92G7g6jq7Q/nn44RGx1HVqhzJD/ZeEmSX3FOSdKBgY
kQ/+PfKGJaLd7qXoJNw+mxdCsX3RueN53bOI45MrTn7iH8BycABHFZsvN9BvAMSp
No4pbTKVsjLDtNFiEfqpYy6ZsxY8EaWv33BTksbW8tqQkA9Gri2jQUY3GMu85Rd7
/3SfGKlIpWzDLqunEiPobjkBliJ/LmMyeQa6Vsd8aM9C93TkD1ge7OyGEDOLrF6e
64QnW6QyRhqATLnX3714O548ah1OFkjDz1YgHA==
-----END CERTIFICATE-----
