Certificate:
    Data:
        Version: 3 (0x2)
        Serial Number:
            6f:43:20:48:d9:49:de:f3:9f:13:e3:43:6d:f7:96:73
        Signature Algorithm: sha256WithRSAEncryption
        Issuer: CN=team620-net
        Validity
            Not Before: May 18 23:01:27 2022 GMT
            Not After : May  2 23:01:27 2025 GMT
        Subject: CN=team620-client
        Subject Public Key Info:
            Public Key Algorithm: rsaEncryption
                RSA Public-Key: (2048 bit)
                Modulus:
                    00:97:58:f4:ca:d5:73:92:33:2a:f7:e7:1c:fa:dc:
                    b6:73:89:67:ca:b6:49:35:68:50:bb:c1:08:70:09:
                    ad:d3:84:8d:10:5c:a5:a1:d1:61:25:11:b9:52:6c:
                    04:ae:f7:44:cc:42:e5:10:30:9a:b7:f0:41:d5:80:
                    20:07:2b:c1:f1:5a:6f:a3:48:99:3d:bb:1d:fc:ba:
                    9a:9e:2b:84:1f:8b:b1:9e:20:0c:f7:71:e3:32:28:
                    66:50:bd:22:1d:1b:68:90:2a:bb:79:95:b8:de:d1:
                    3c:28:b8:51:68:1e:87:03:9a:0a:5c:1a:ca:97:66:
                    05:cd:d7:3d:ce:cc:2f:d0:d3:f3:1e:18:2c:53:ab:
                    04:6b:f6:f7:31:9b:83:73:fd:1e:0b:4d:74:0c:ec:
                    17:94:28:14:40:79:1d:73:ea:d3:ac:7c:92:96:05:
                    80:68:9e:a0:a9:8c:1b:13:9f:79:5a:8b:31:e1:cc:
                    a4:12:9e:91:fb:7f:0b:3c:c0:61:87:74:36:a4:22:
                    90:fb:60:f0:da:d1:b4:6c:64:a9:2e:d2:f3:b3:f1:
                    b5:e8:89:d3:a9:d1:e8:98:78:b5:29:9a:a0:9a:f8:
                    0a:02:47:63:32:01:a2:2e:03:89:8f:72:0e:65:09:
                    4d:7f:dc:93:20:be:09:c1:a2:b4:84:d7:69:5e:58:
                    a6:c7
                Exponent: 65537 (0x10001)
        X509v3 extensions:
            X509v3 Basic Constraints: 
                CA:FALSE
            X509v3 Subject Key Identifier: 
                4D:31:2D:83:E5:0C:9F:DB:FC:84:67:8C:5E:B1:E1:8C:13:1E:4E:75
            X509v3 Authority Key Identifier: 
                keyid:20:73:89:FB:04:23:7C:77:CF:F0:EB:4B:5C:06:20:30:D4:34:78:DE
                DirName:/CN=team620-net
                serial:4F:03:02:D0:E8:71:65:FA:98:06:74:5F:70:86:8C:EA:AE:2E:82:75

            X509v3 Extended Key Usage: 
                TLS Web Client Authentication
            X509v3 Key Usage: 
                Digital Signature
    Signature Algorithm: sha256WithRSAEncryption
         a2:d4:54:0d:16:e7:18:4e:07:91:72:76:16:a6:80:9a:d5:11:
         b1:d9:02:be:d7:79:e8:ea:47:77:2f:05:8f:ed:ac:82:28:26:
         b3:43:33:e2:91:76:8e:b8:73:5a:9e:6f:c9:4d:3c:2d:c8:58:
         1d:88:59:a9:76:0a:83:46:33:0f:ec:c0:ac:bc:3d:b8:4d:d5:
         3c:ae:c5:a3:e6:85:d3:d8:d1:c2:60:56:80:d2:18:11:94:6b:
         1d:fe:62:87:2d:8c:a5:99:ea:22:00:34:d8:95:f4:3b:15:7d:
         b2:a0:02:1e:f9:f6:43:72:f0:49:dd:d4:56:04:ff:9e:0c:66:
         79:0a:77:02:4b:a8:60:45:90:e4:fe:0b:3f:ed:27:a6:3c:08:
         45:f1:78:79:85:95:99:f6:8e:b6:83:a6:e7:be:ea:f3:e0:27:
         b1:19:4c:70:80:8b:db:f7:15:17:e5:97:40:87:69:6f:97:79:
         02:22:20:a9:c3:c0:4e:19:51:de:34:cf:52:8d:cc:d4:df:b9:
         59:c3:8f:78:66:2e:61:51:34:16:34:c2:6f:2d:2f:60:cb:57:
         89:65:c4:d0:34:37:a9:16:72:00:4a:99:f5:b5:5e:18:7d:d6:
         2b:bd:9b:59:29:e3:88:2e:62:0a:32:a2:e3:8f:75:a0:31:7c:
         6f:5b:9b:75
-----BEGIN CERTIFICATE-----
MIIDXDCCAkSgAwIBAgIQb0MgSNlJ3vOfE+NDbfeWczANBgkqhkiG9w0BAQsFADAW
MRQwEgYDVQQDDAt0ZWFtNjIwLW5ldDAeFw0yMjA1MTgyMzAxMjdaFw0yNTA1MDIy
MzAxMjdaMBkxFzAVBgNVBAMMDnRlYW02MjAtY2xpZW50MIIBIjANBgkqhkiG9w0B
AQEFAAOCAQ8AMIIBCgKCAQEAl1j0ytVzkjMq9+cc+ty2c4lnyrZJNWhQu8EIcAmt
04SNEFylodFhJRG5UmwErvdEzELlEDCat/BB1YAgByvB8Vpvo0iZPbsd/LqaniuE
H4uxniAM93HjMihmUL0iHRtokCq7eZW43tE8KLhRaB6HA5oKXBrKl2YFzdc9zswv
0NPzHhgsU6sEa/b3MZuDc/0eC010DOwXlCgUQHkdc+rTrHySlgWAaJ6gqYwbE595
Wosx4cykEp6R+38LPMBhh3Q2pCKQ+2Dw2tG0bGSpLtLzs/G16InTqdHomHi1KZqg
mvgKAkdjMgGiLgOJj3IOZQlNf9yTIL4JwaK0hNdpXlimxwIDAQABo4GiMIGfMAkG
A1UdEwQCMAAwHQYDVR0OBBYEFE0xLYPlDJ/b/IRnjF6x4YwTHk51MFEGA1UdIwRK
MEiAFCBzifsEI3x3z/DrS1wGIDDUNHjeoRqkGDAWMRQwEgYDVQQDDAt0ZWFtNjIw
LW5ldIIUTwMC0OhxZfqYBnRfcIaM6q4ugnUwEwYDVR0lBAwwCgYIKwYBBQUHAwIw
CwYDVR0PBAQDAgeAMA0GCSqGSIb3DQEBCwUAA4IBAQCi1FQNFucYTgeRcnYWpoCa
1RGx2QK+13no6kd3LwWP7ayCKCazQzPikXaOuHNanm/JTTwtyFgdiFmpdgqDRjMP
7MCsvD24TdU8rsWj5oXT2NHCYFaA0hgRlGsd/mKHLYylmeoiADTYlfQ7FX2yoAIe
+fZDcvBJ3dRWBP+eDGZ5CncCS6hgRZDk/gs/7SemPAhF8Xh5hZWZ9o62g6bnvurz
4CexGUxwgIvb9xUX5ZdAh2lvl3kCIiCpw8BOGVHeNM9SjczU37lZw494Zi5hUTQW
NMJvLS9gy1eJZcTQNDepFnIASpn1tV4YfdYrvZtZKeOILmIKMqLjj3WgMXxvW5t1
-----END CERTIFICATE-----
