Certificate:
    Data:
        Version: 3 (0x2)
        Serial Number:
            f7:8e:b3:ba:c9:51:0c:ae:ed:a5:af:68:38:a0:bb:71
        Signature Algorithm: sha256WithRSAEncryption
        Issuer: CN=team585-net
        Validity
            Not Before: May 18 22:38:49 2022 GMT
            Not After : May  2 22:38:49 2025 GMT
        Subject: CN=team585-server
        Subject Public Key Info:
            Public Key Algorithm: rsaEncryption
                RSA Public-Key: (2048 bit)
                Modulus:
                    00:c8:24:c3:78:d0:c5:5e:1e:61:0b:0f:6e:5b:14:
                    af:87:1a:92:8b:f8:94:79:63:ae:7b:8c:12:3a:90:
                    f5:39:ed:45:82:c0:63:49:ec:df:1f:e9:8d:4f:f2:
                    9f:16:0f:af:c7:ec:37:30:f0:4d:d5:dc:79:5c:39:
                    e6:ab:2b:33:9b:2f:59:3d:59:80:90:c4:b5:5b:0c:
                    04:c6:c6:f5:4b:28:4a:33:ec:98:4f:98:f6:cc:d3:
                    d9:f8:9a:82:d7:30:4a:ef:02:de:d9:45:b1:10:1b:
                    43:dd:8e:c6:71:81:e8:81:c2:bd:59:16:c8:49:38:
                    d1:c5:4f:42:68:f3:c4:63:93:70:ab:b5:1e:0d:fa:
                    b5:7b:12:6f:82:12:8a:ac:a9:61:fb:d3:1f:e4:75:
                    e4:4e:d4:ab:ef:8d:f9:bd:6b:b1:71:cc:c2:54:78:
                    ee:4d:90:55:2e:80:e9:5e:3e:a1:c9:eb:8e:45:a3:
                    e1:c6:6d:33:78:88:9c:9e:26:48:2e:23:a7:7b:29:
                    38:b8:7f:9a:1c:26:00:e2:09:e2:cd:21:e4:35:20:
                    b4:7d:df:4c:22:ac:19:52:64:be:9d:45:a9:26:f0:
                    cb:2e:84:56:09:b0:29:6b:c9:f7:7b:c2:82:c4:c2:
                    89:95:a7:c3:f5:48:e7:67:13:fa:62:51:10:50:98:
                    d1:d9
                Exponent: 65537 (0x10001)
        X509v3 extensions:
            X509v3 Basic Constraints: 
                CA:FALSE
            X509v3 Subject Key Identifier: 
                0D:2D:F3:DD:59:BE:81:F8:DE:B0:85:8A:EE:3D:91:0F:6B:E0:C0:A4
            X509v3 Authority Key Identifier: 
                keyid:49:11:E0:4B:B2:7F:12:7B:3B:BB:2B:95:46:9A:B2:6C:D1:58:E2:D4
                DirName:/CN=team585-net
                serial:46:BF:4E:4C:2F:B7:FA:5E:4D:71:F4:23:58:E6:A0:F8:CB:00:EB:E4

            X509v3 Extended Key Usage: 
                TLS Web Server Authentication
            X509v3 Key Usage: 
                Digital Signature, Key Encipherment
            X509v3 Subject Alternative Name: 
                DNS:team585-server
    Signature Algorithm: sha256WithRSAEncryption
         82:a2:53:31:b0:e4:6e:5f:b7:7c:17:d8:77:df:ac:51:c8:12:
         f1:09:6a:a7:3e:81:f8:08:1e:17:e3:95:01:c2:74:bf:dd:3e:
         58:1b:5a:0d:36:48:ad:ef:72:98:8d:8d:1e:db:fe:dd:2a:63:
         71:28:44:36:9f:89:3a:2b:38:ee:d1:9e:98:32:a5:fe:94:45:
         4b:08:a4:d1:3b:b4:c2:b0:85:e5:47:d8:2e:fb:f2:48:ca:5e:
         4a:86:79:65:2c:0f:39:99:b3:e3:93:d1:4b:d0:a9:c6:54:c9:
         39:fd:0f:e2:50:bf:5f:67:60:44:c4:b0:8f:20:27:40:84:cb:
         3b:16:49:9c:10:da:fa:b0:98:8d:cd:dc:6d:0c:4b:9f:5b:0c:
         00:b2:10:54:63:a7:7c:f0:3f:6e:73:3f:74:f7:54:64:f8:dd:
         75:f1:de:81:c4:a5:bc:35:0b:c2:3b:a4:34:6c:7c:d5:75:3c:
         60:19:41:51:2d:0d:79:55:15:c8:4d:28:05:08:25:3b:38:f5:
         4c:ec:3d:23:e4:73:f4:8c:67:9b:42:40:67:7f:69:6d:7e:be:
         1c:88:21:50:dc:88:71:2e:cf:f4:fa:07:9e:d7:e3:bb:4d:c9:
         08:d7:8f:4f:9f:f2:f1:78:f0:44:00:9b:94:84:19:46:b4:02:
         d0:29:a9:f6
-----BEGIN CERTIFICATE-----
MIIDeDCCAmCgAwIBAgIRAPeOs7rJUQyu7aWvaDigu3EwDQYJKoZIhvcNAQELBQAw
FjEUMBIGA1UEAwwLdGVhbTU4NS1uZXQwHhcNMjIwNTE4MjIzODQ5WhcNMjUwNTAy
MjIzODQ5WjAZMRcwFQYDVQQDDA50ZWFtNTg1LXNlcnZlcjCCASIwDQYJKoZIhvcN
AQEBBQADggEPADCCAQoCggEBAMgkw3jQxV4eYQsPblsUr4cakov4lHljrnuMEjqQ
9TntRYLAY0ns3x/pjU/ynxYPr8fsNzDwTdXceVw55qsrM5svWT1ZgJDEtVsMBMbG
9UsoSjPsmE+Y9szT2fiagtcwSu8C3tlFsRAbQ92OxnGB6IHCvVkWyEk40cVPQmjz
xGOTcKu1Hg36tXsSb4ISiqypYfvTH+R15E7Uq++N+b1rsXHMwlR47k2QVS6A6V4+
ocnrjkWj4cZtM3iInJ4mSC4jp3spOLh/mhwmAOIJ4s0h5DUgtH3fTCKsGVJkvp1F
qSbwyy6EVgmwKWvJ93vCgsTCiZWnw/VI52cT+mJREFCY0dkCAwEAAaOBvTCBujAJ
BgNVHRMEAjAAMB0GA1UdDgQWBBQNLfPdWb6B+N6whYruPZEPa+DApDBRBgNVHSME
SjBIgBRJEeBLsn8Sezu7K5VGmrJs0Vji1KEapBgwFjEUMBIGA1UEAwwLdGVhbTU4
NS1uZXSCFEa/Tkwvt/peTXH0I1jmoPjLAOvkMBMGA1UdJQQMMAoGCCsGAQUFBwMB
MAsGA1UdDwQEAwIFoDAZBgNVHREEEjAQgg50ZWFtNTg1LXNlcnZlcjANBgkqhkiG
9w0BAQsFAAOCAQEAgqJTMbDkbl+3fBfYd9+sUcgS8Qlqpz6B+AgeF+OVAcJ0v90+
WBtaDTZIre9ymI2NHtv+3SpjcShENp+JOis47tGemDKl/pRFSwik0Tu0wrCF5UfY
LvvySMpeSoZ5ZSwPOZmz45PRS9CpxlTJOf0P4lC/X2dgRMSwjyAnQITLOxZJnBDa
+rCYjc3cbQxLn1sMALIQVGOnfPA/bnM/dPdUZPjddfHegcSlvDULwjukNGx81XU8
YBlBUS0NeVUVyE0oBQglOzj1TOw9I+Rz9Ixnm0JAZ39pbX6+HIghUNyIcS7P9PoH
ntfju03JCNePT5/y8XjwRACblIQZRrQC0Cmp9g==
-----END CERTIFICATE-----
