Certificate:
    Data:
        Version: 3 (0x2)
        Serial Number:
            cf:96:66:45:77:3e:aa:c8:1d:b3:21:fc:cc:ee:41:53
        Signature Algorithm: sha256WithRSAEncryption
        Issuer: CN=team242-net
        Validity
            Not Before: May 18 19:36:10 2022 GMT
            Not After : May  2 19:36:10 2025 GMT
        Subject: CN=team242-server
        Subject Public Key Info:
            Public Key Algorithm: rsaEncryption
                RSA Public-Key: (2048 bit)
                Modulus:
                    00:cd:4f:0c:be:56:bb:49:ca:a9:35:33:3b:60:c3:
                    b8:e6:87:f0:67:b1:ff:5e:4a:fd:ce:9c:ad:cf:92:
                    79:51:33:9f:bf:a8:50:4d:e5:f7:63:fc:b9:27:e9:
                    df:73:8c:76:3f:cf:0a:c1:0e:32:20:9c:dc:f8:04:
                    14:e5:03:4f:ab:56:5c:8d:12:ac:37:4d:2e:a7:3c:
                    13:71:f3:4d:6f:c8:5a:2e:40:f4:6a:a2:31:90:c6:
                    fa:76:8a:ef:54:86:3c:db:29:a7:aa:e3:e4:f8:71:
                    61:8a:f2:86:85:a4:db:c6:25:25:4f:eb:47:11:1a:
                    d7:e6:70:b4:d4:ac:9c:08:d1:0f:63:20:1e:2d:ac:
                    dc:11:4d:d0:a7:6b:d4:18:3d:55:e4:19:fc:47:92:
                    1e:6c:35:3d:9e:92:57:d2:2f:85:e7:96:55:7b:ac:
                    2f:68:9e:35:e5:0f:10:e2:45:eb:65:5f:9d:b9:34:
                    3f:7b:9c:8f:4d:13:ae:02:2c:62:5d:0e:29:e5:95:
                    1e:77:f4:68:49:84:d3:42:25:d2:0b:a6:d2:31:5b:
                    9f:b4:20:ba:b8:a1:d1:f5:c9:d9:3e:d2:76:a3:05:
                    05:bf:79:e9:3d:25:98:28:ff:d0:7c:9f:a0:e2:2c:
                    65:bd:cd:23:9c:a3:6a:ca:1d:88:fc:83:2a:f6:63:
                    c3:f5
                Exponent: 65537 (0x10001)
        X509v3 extensions:
            X509v3 Basic Constraints: 
                CA:FALSE
            X509v3 Subject Key Identifier: 
                0F:84:0A:00:87:71:DC:C9:90:55:68:CA:73:67:27:7E:6D:63:B3:17
            X509v3 Authority Key Identifier: 
                keyid:21:52:98:14:A7:3B:E8:39:56:6D:C9:D7:18:19:F1:65:6A:28:B8:06
                DirName:/CN=team242-net
                serial:1E:68:CA:9D:4A:B4:9F:3C:5A:2F:A3:92:D7:76:04:F0:C0:69:18:F8

            X509v3 Extended Key Usage: 
                TLS Web Server Authentication
            X509v3 Key Usage: 
                Digital Signature, Key Encipherment
            X509v3 Subject Alternative Name: 
                DNS:team242-server
    Signature Algorithm: sha256WithRSAEncryption
         a8:d1:02:33:a6:95:f5:5f:81:db:16:e0:69:f2:cf:35:8e:21:
         e1:cb:a8:eb:30:1e:d7:7f:83:f6:18:9b:7a:57:bf:b5:c7:ed:
         29:c9:2f:55:c6:9b:08:5c:5c:04:fc:d9:9e:55:a1:28:15:37:
         f8:9b:8d:a4:6e:32:92:69:d5:1a:cd:70:66:f7:f3:64:2f:32:
         95:ce:82:f8:79:4b:84:16:94:18:89:fe:35:4e:19:95:61:6e:
         2f:e8:34:6f:d0:d6:b6:58:0b:f0:60:7b:da:a3:80:77:ea:48:
         6b:b4:f6:31:07:ef:f1:b4:06:af:03:c4:62:93:72:44:68:1f:
         14:57:6e:54:b8:6b:d0:36:51:c3:ba:5c:e4:b8:83:07:26:16:
         9b:ad:1e:a6:9b:fe:d3:0c:0b:56:4b:15:09:75:5e:5f:74:44:
         b5:f6:39:b8:9b:66:63:42:22:db:3d:b8:65:ed:51:6b:af:38:
         11:38:a2:6e:15:08:71:0a:90:fa:cf:f6:c9:1a:77:80:f0:76:
         42:e9:e1:3e:7a:a5:04:ef:1f:cc:01:15:3f:b9:5f:4c:f2:3e:
         36:48:8d:13:3a:4f:4c:40:5b:42:d0:3c:3a:4a:c9:d7:67:b2:
         85:0b:2a:eb:e9:f9:ee:5d:48:98:b8:63:51:bb:22:78:26:1f:
         50:17:fd:0a
-----BEGIN CERTIFICATE-----
MIIDeDCCAmCgAwIBAgIRAM+WZkV3PqrIHbMh/MzuQVMwDQYJKoZIhvcNAQELBQAw
FjEUMBIGA1UEAwwLdGVhbTI0Mi1uZXQwHhcNMjIwNTE4MTkzNjEwWhcNMjUwNTAy
MTkzNjEwWjAZMRcwFQYDVQQDDA50ZWFtMjQyLXNlcnZlcjCCASIwDQYJKoZIhvcN
AQEBBQADggEPADCCAQoCggEBAM1PDL5Wu0nKqTUzO2DDuOaH8Gex/15K/c6crc+S
eVEzn7+oUE3l92P8uSfp33OMdj/PCsEOMiCc3PgEFOUDT6tWXI0SrDdNLqc8E3Hz
TW/IWi5A9GqiMZDG+naK71SGPNspp6rj5PhxYYryhoWk28YlJU/rRxEa1+ZwtNSs
nAjRD2MgHi2s3BFN0Kdr1Bg9VeQZ/EeSHmw1PZ6SV9IvheeWVXusL2ieNeUPEOJF
62Vfnbk0P3ucj00TrgIsYl0OKeWVHnf0aEmE00Il0gum0jFbn7Qgurih0fXJ2T7S
dqMFBb956T0lmCj/0HyfoOIsZb3NI5yjasodiPyDKvZjw/UCAwEAAaOBvTCBujAJ
BgNVHRMEAjAAMB0GA1UdDgQWBBQPhAoAh3HcyZBVaMpzZyd+bWOzFzBRBgNVHSME
SjBIgBQhUpgUpzvoOVZtydcYGfFlaii4BqEapBgwFjEUMBIGA1UEAwwLdGVhbTI0
Mi1uZXSCFB5oyp1KtJ88Wi+jktd2BPDAaRj4MBMGA1UdJQQMMAoGCCsGAQUFBwMB
MAsGA1UdDwQEAwIFoDAZBgNVHREEEjAQgg50ZWFtMjQyLXNlcnZlcjANBgkqhkiG
9w0BAQsFAAOCAQEAqNECM6aV9V+B2xbgafLPNY4h4cuo6zAe13+D9hibele/tcft
KckvVcabCFxcBPzZnlWhKBU3+JuNpG4ykmnVGs1wZvfzZC8ylc6C+HlLhBaUGIn+
NU4ZlWFuL+g0b9DWtlgL8GB72qOAd+pIa7T2MQfv8bQGrwPEYpNyRGgfFFduVLhr
0DZRw7pc5LiDByYWm60eppv+0wwLVksVCXVeX3REtfY5uJtmY0Ii2z24Ze1Ra684
ETiibhUIcQqQ+s/2yRp3gPB2QunhPnqlBO8fzAEVP7lfTPI+NkiNEzpPTEBbQtA8
OkrJ12eyhQsq6+n57l1ImLhjUbsieCYfUBf9Cg==
-----END CERTIFICATE-----
