Certificate:
    Data:
        Version: 3 (0x2)
        Serial Number:
            f4:50:a7:44:5a:86:b3:26:45:32:3a:3d:bc:f4:be:5c
        Signature Algorithm: sha256WithRSAEncryption
        Issuer: CN=team242-net
        Validity
            Not Before: May 18 19:36:09 2022 GMT
            Not After : May  2 19:36:09 2025 GMT
        Subject: CN=team242-client
        Subject Public Key Info:
            Public Key Algorithm: rsaEncryption
                RSA Public-Key: (2048 bit)
                Modulus:
                    00:ef:8c:97:47:e1:b6:87:2c:c7:b7:60:d8:c1:fd:
                    8b:e4:cd:3e:e7:95:1a:16:f8:19:ba:29:df:71:b8:
                    72:15:1f:86:a0:cd:aa:b0:ee:8c:e8:b2:31:7b:55:
                    1e:cb:96:ad:3b:f3:01:5d:06:80:0e:f6:69:fd:85:
                    be:9f:a4:b7:19:37:fa:51:85:9f:3e:20:d3:40:f8:
                    9b:76:6e:9c:ce:e0:b7:1e:d8:2d:cf:8b:83:20:ee:
                    d4:c2:95:b8:ec:09:ed:22:d3:d9:a4:82:32:18:4b:
                    29:99:c9:08:76:65:e0:60:b9:1e:fd:3f:60:03:cb:
                    6e:14:33:04:a5:bc:50:aa:ee:a4:74:54:27:24:a4:
                    65:7c:ec:04:47:c3:7f:bd:3c:b4:3a:41:4e:9e:e2:
                    d6:25:29:72:c1:f1:08:d0:73:bf:00:56:61:d7:28:
                    8c:b9:2e:b1:6e:5d:b0:d1:e8:6e:78:b1:91:cf:d5:
                    3d:f2:1e:1e:ab:88:99:cd:b4:9e:d4:0f:1b:92:c5:
                    4f:a7:f3:11:67:ba:a4:8c:55:54:70:8b:2b:ba:d4:
                    54:94:39:9d:98:ae:8f:2e:e6:21:82:0e:a9:63:a2:
                    e2:e6:a4:84:62:68:6f:62:c8:79:02:95:71:c0:22:
                    01:59:4a:9d:90:d1:f9:69:60:08:c9:a7:95:b1:b1:
                    4d:29
                Exponent: 65537 (0x10001)
        X509v3 extensions:
            X509v3 Basic Constraints: 
                CA:FALSE
            X509v3 Subject Key Identifier: 
                26:0F:52:01:7B:5C:52:43:CE:28:EC:A1:34:3E:44:AB:BC:C3:9B:58
            X509v3 Authority Key Identifier: 
                keyid:21:52:98:14:A7:3B:E8:39:56:6D:C9:D7:18:19:F1:65:6A:28:B8:06
                DirName:/CN=team242-net
                serial:1E:68:CA:9D:4A:B4:9F:3C:5A:2F:A3:92:D7:76:04:F0:C0:69:18:F8

            X509v3 Extended Key Usage: 
                TLS Web Client Authentication
            X509v3 Key Usage: 
                Digital Signature
    Signature Algorithm: sha256WithRSAEncryption
         64:ca:54:67:f6:58:55:fd:23:fe:43:5f:4e:10:cc:c3:1f:ef:
         0c:00:e0:0c:f5:63:8a:c4:38:31:9f:74:9f:fc:49:09:b5:08:
         ec:d6:84:a5:83:05:c1:0a:66:7e:0e:93:59:92:cb:f2:45:a2:
         05:9d:b2:84:76:2b:92:f0:7a:c7:0f:37:17:f0:17:8b:ae:60:
         0c:85:ac:a5:3e:ce:7a:92:8b:94:4a:e6:0b:33:a4:64:6c:f8:
         a9:da:63:e5:52:cc:dc:ea:48:e0:61:ea:85:98:86:f6:7d:6b:
         4a:f7:81:35:40:29:e6:7a:a1:c9:22:8c:4c:e2:38:b9:36:99:
         22:59:90:11:26:ff:12:2e:d2:0e:3d:a9:8e:1a:b7:9e:1c:da:
         47:5b:4e:26:19:6e:58:d9:29:7e:8e:b1:2f:73:e9:c9:5b:fe:
         8b:16:56:77:a7:93:50:1f:71:90:6a:8a:32:65:e1:88:d1:40:
         24:dc:59:f3:df:90:7f:53:c0:fd:6a:11:df:97:ef:63:19:b1:
         2e:79:97:92:a4:e1:21:d4:06:45:ed:23:d6:9c:b8:62:aa:fb:
         e9:92:48:09:fc:71:d7:c3:fd:01:0e:7a:82:7e:6a:c4:f8:5f:
         79:7e:0d:27:09:0b:b5:ae:19:ce:3d:05:1d:7d:9d:11:aa:c0:
         76:d8:c0:6e
-----BEGIN CERTIFICATE-----
MIIDXTCCAkWgAwIBAgIRAPRQp0RahrMmRTI6Pbz0vlwwDQYJKoZIhvcNAQELBQAw
FjEUMBIGA1UEAwwLdGVhbTI0Mi1uZXQwHhcNMjIwNTE4MTkzNjA5WhcNMjUwNTAy
MTkzNjA5WjAZMRcwFQYDVQQDDA50ZWFtMjQyLWNsaWVudDCCASIwDQYJKoZIhvcN
AQEBBQADggEPADCCAQoCggEBAO+Ml0fhtocsx7dg2MH9i+TNPueVGhb4Gbop33G4
chUfhqDNqrDujOiyMXtVHsuWrTvzAV0GgA72af2Fvp+ktxk3+lGFnz4g00D4m3Zu
nM7gtx7YLc+LgyDu1MKVuOwJ7SLT2aSCMhhLKZnJCHZl4GC5Hv0/YAPLbhQzBKW8
UKrupHRUJySkZXzsBEfDf708tDpBTp7i1iUpcsHxCNBzvwBWYdcojLkusW5dsNHo
bnixkc/VPfIeHquImc20ntQPG5LFT6fzEWe6pIxVVHCLK7rUVJQ5nZiujy7mIYIO
qWOi4uakhGJob2LIeQKVccAiAVlKnZDR+WlgCMmnlbGxTSkCAwEAAaOBojCBnzAJ
BgNVHRMEAjAAMB0GA1UdDgQWBBQmD1IBe1xSQ84o7KE0PkSrvMObWDBRBgNVHSME
SjBIgBQhUpgUpzvoOVZtydcYGfFlaii4BqEapBgwFjEUMBIGA1UEAwwLdGVhbTI0
Mi1uZXSCFB5oyp1KtJ88Wi+jktd2BPDAaRj4MBMGA1UdJQQMMAoGCCsGAQUFBwMC
MAsGA1UdDwQEAwIHgDANBgkqhkiG9w0BAQsFAAOCAQEAZMpUZ/ZYVf0j/kNfThDM
wx/vDADgDPVjisQ4MZ90n/xJCbUI7NaEpYMFwQpmfg6TWZLL8kWiBZ2yhHYrkvB6
xw83F/AXi65gDIWspT7OepKLlErmCzOkZGz4qdpj5VLM3OpI4GHqhZiG9n1rSveB
NUAp5nqhySKMTOI4uTaZIlmQESb/Ei7SDj2pjhq3nhzaR1tOJhluWNkpfo6xL3Pp
yVv+ixZWd6eTUB9xkGqKMmXhiNFAJNxZ89+Qf1PA/WoR35fvYxmxLnmXkqThIdQG
Re0j1py4Yqr76ZJICfxx18P9AQ56gn5qxPhfeX4NJwkLta4Zzj0FHX2dEarAdtjA
bg==
-----END CERTIFICATE-----
