Certificate:
    Data:
        Version: 3 (0x2)
        Serial Number:
            ed:87:22:ec:49:50:9c:a0:5f:f0:5c:b6:77:62:5d:02
        Signature Algorithm: sha256WithRSAEncryption
        Issuer: CN=team233-net
        Validity
            Not Before: May 18 19:30:34 2022 GMT
            Not After : May  2 19:30:34 2025 GMT
        Subject: CN=team233-client
        Subject Public Key Info:
            Public Key Algorithm: rsaEncryption
                RSA Public-Key: (2048 bit)
                Modulus:
                    00:dc:14:86:d7:b3:27:c2:c2:1c:41:03:44:27:8e:
                    b3:32:78:3c:78:08:e6:50:4f:fb:e9:f5:ce:db:2f:
                    57:8f:13:29:1b:b1:ef:a4:8d:3f:3f:47:70:96:0d:
                    a2:fb:cd:86:e7:a1:83:b9:9f:4e:65:00:3a:2a:8b:
                    84:6e:47:57:c4:c7:3b:a2:48:ae:b7:cf:cb:db:bc:
                    2e:15:44:26:32:10:6d:a1:ee:53:36:38:21:06:3c:
                    d8:bb:ba:11:0b:2b:c4:af:be:e9:d2:f8:e1:b8:7f:
                    c5:9b:14:db:db:0f:a3:1d:a5:67:29:ea:9a:e3:dd:
                    0a:68:0e:26:ca:4f:d1:06:77:a3:82:77:df:65:99:
                    a4:9a:ae:76:ce:74:91:a4:bb:f2:61:fa:79:09:a4:
                    37:f4:92:a0:be:a5:a9:42:bc:74:7b:2b:23:4e:d1:
                    46:ab:2a:ac:71:67:c3:67:1e:46:f7:51:37:30:04:
                    23:49:ca:27:18:9a:de:aa:da:b9:23:f5:48:b9:55:
                    c4:56:60:0b:e8:9d:cb:bd:9d:d5:a6:2d:08:9e:92:
                    00:0f:16:21:fb:03:68:30:89:e0:e6:cb:8d:6d:e3:
                    11:41:07:07:82:97:60:0c:92:90:03:00:82:eb:79:
                    50:f4:34:6b:57:b1:1f:2d:b9:3f:23:a8:66:0d:4a:
                    f3:99
                Exponent: 65537 (0x10001)
        X509v3 extensions:
            X509v3 Basic Constraints: 
                CA:FALSE
            X509v3 Subject Key Identifier: 
                ED:69:BB:58:0F:31:78:DB:E8:9F:C5:23:CB:0F:0C:F1:68:64:3C:C9
            X509v3 Authority Key Identifier: 
                keyid:89:56:C4:1F:CA:37:C8:5D:64:E3:A9:C2:45:B0:72:EF:1C:2E:0B:2D
                DirName:/CN=team233-net
                serial:12:0A:F5:B8:46:2D:FB:E0:5E:2C:DF:65:23:C3:46:18:25:B2:7D:90

            X509v3 Extended Key Usage: 
                TLS Web Client Authentication
            X509v3 Key Usage: 
                Digital Signature
    Signature Algorithm: sha256WithRSAEncryption
         0c:4d:42:db:e5:76:04:f2:86:69:86:3b:bc:24:e2:d1:96:d5:
         57:b3:83:fc:06:ad:e4:e7:2b:b0:7b:79:3c:be:b5:46:65:e7:
         0a:e3:ad:29:db:c0:3a:dd:8a:1a:a0:ec:5f:e5:36:89:6b:a5:
         f2:af:ad:fd:83:75:3d:ab:bb:e0:7a:3b:55:58:04:69:40:c6:
         73:3c:30:79:de:37:e4:62:0a:6a:ee:b9:f6:b5:24:2d:f6:07:
         83:1d:db:2b:48:d7:70:b3:50:9c:10:65:e4:ef:81:5b:0a:af:
         9c:6f:9f:e6:6c:ee:f3:13:10:64:2d:e6:4f:5c:95:93:b1:5d:
         aa:16:bd:ff:4e:54:23:fd:fa:8c:97:d6:70:8e:39:4c:8c:a6:
         d7:67:4e:f2:14:d5:fd:ad:fc:0b:85:83:c7:5b:80:da:c1:26:
         45:77:b1:54:d4:3b:84:59:1a:09:a9:9c:c7:31:d5:27:91:4d:
         e3:d0:ad:ec:a4:1e:a0:a4:d5:05:95:f1:89:96:06:e0:b7:a6:
         3b:53:e8:dc:a1:05:42:d1:58:2c:35:bd:67:b5:0e:cc:d4:8b:
         97:34:1e:ed:5f:c1:62:e3:ea:86:c0:91:7c:4f:c5:64:32:fc:
         b6:eb:5e:0c:d9:3c:1f:66:9a:d8:eb:11:b9:3e:3f:c3:81:bb:
         f9:76:40:4e
-----BEGIN CERTIFICATE-----
MIIDXTCCAkWgAwIBAgIRAO2HIuxJUJygX/BctndiXQIwDQYJKoZIhvcNAQELBQAw
FjEUMBIGA1UEAwwLdGVhbTIzMy1uZXQwHhcNMjIwNTE4MTkzMDM0WhcNMjUwNTAy
MTkzMDM0WjAZMRcwFQYDVQQDDA50ZWFtMjMzLWNsaWVudDCCASIwDQYJKoZIhvcN
AQEBBQADggEPADCCAQoCggEBANwUhtezJ8LCHEEDRCeOszJ4PHgI5lBP++n1ztsv
V48TKRux76SNPz9HcJYNovvNhuehg7mfTmUAOiqLhG5HV8THO6JIrrfPy9u8LhVE
JjIQbaHuUzY4IQY82Lu6EQsrxK++6dL44bh/xZsU29sPox2lZynqmuPdCmgOJspP
0QZ3o4J332WZpJquds50kaS78mH6eQmkN/SSoL6lqUK8dHsrI07RRqsqrHFnw2ce
RvdRNzAEI0nKJxia3qrauSP1SLlVxFZgC+idy72d1aYtCJ6SAA8WIfsDaDCJ4ObL
jW3jEUEHB4KXYAySkAMAgut5UPQ0a1exHy25PyOoZg1K85kCAwEAAaOBojCBnzAJ
BgNVHRMEAjAAMB0GA1UdDgQWBBTtabtYDzF42+ifxSPLDwzxaGQ8yTBRBgNVHSME
SjBIgBSJVsQfyjfIXWTjqcJFsHLvHC4LLaEapBgwFjEUMBIGA1UEAwwLdGVhbTIz
My1uZXSCFBIK9bhGLfvgXizfZSPDRhglsn2QMBMGA1UdJQQMMAoGCCsGAQUFBwMC
MAsGA1UdDwQEAwIHgDANBgkqhkiG9w0BAQsFAAOCAQEADE1C2+V2BPKGaYY7vCTi
0ZbVV7OD/Aat5OcrsHt5PL61RmXnCuOtKdvAOt2KGqDsX+U2iWul8q+t/YN1Pau7
4Ho7VVgEaUDGczwwed435GIKau659rUkLfYHgx3bK0jXcLNQnBBl5O+BWwqvnG+f
5mzu8xMQZC3mT1yVk7Fdqha9/05UI/36jJfWcI45TIym12dO8hTV/a38C4WDx1uA
2sEmRXexVNQ7hFkaCamcxzHVJ5FN49Ct7KQeoKTVBZXxiZYG4LemO1Po3KEFQtFY
LDW9Z7UOzNSLlzQe7V/BYuPqhsCRfE/FZDL8tuteDNk8H2aa2OsRuT4/w4G7+XZA
Tg==
-----END CERTIFICATE-----
