Certificate:
    Data:
        Version: 3 (0x2)
        Serial Number:
            75:74:e5:0a:f1:9d:96:61:3b:38:91:9e:1a:3c:34:d8
        Signature Algorithm: sha256WithRSAEncryption
        Issuer: CN=team52-net
        Validity
            Not Before: May 18 14:22:59 2022 GMT
            Not After : May  2 14:22:59 2025 GMT
        Subject: CN=team52-client
        Subject Public Key Info:
            Public Key Algorithm: rsaEncryption
                RSA Public-Key: (2048 bit)
                Modulus:
                    00:ea:e7:27:db:7b:74:05:86:df:46:0d:15:78:7c:
                    39:8a:ed:29:cf:4d:06:89:00:e5:96:ab:95:19:80:
                    f4:1e:ee:4d:1d:9f:51:0b:f3:62:2f:a8:71:3d:55:
                    84:c8:7f:78:bc:d7:66:56:1a:3d:88:4a:2e:a2:31:
                    33:91:fe:d1:b5:17:5f:a4:1e:f0:b5:7f:e6:ec:aa:
                    45:a2:ea:0c:26:c0:82:3c:91:48:47:a3:6e:fc:69:
                    b8:d2:74:3f:d9:a5:14:5d:78:1b:11:4b:0f:40:a0:
                    fc:7c:66:4c:da:9d:1e:07:87:42:c3:9a:4a:5d:0f:
                    2d:e9:cf:50:58:46:ec:34:a1:ca:f5:d8:5f:81:58:
                    b3:44:1e:a0:3d:b4:13:30:22:1b:37:85:28:c7:81:
                    22:da:c8:03:91:dc:0c:9c:0d:f9:49:cc:ab:8d:b5:
                    fc:29:26:a2:0a:07:ca:d6:61:c8:33:43:81:21:c0:
                    80:ba:7f:f1:ae:e6:07:d0:43:07:dd:0e:8b:e2:28:
                    7c:c5:50:23:16:e0:73:5a:b4:bd:56:6c:76:42:e6:
                    88:fb:50:17:9f:8e:45:b2:67:31:ea:e3:35:92:be:
                    ec:31:fd:1b:81:14:bd:e9:f9:f9:0c:6c:89:a1:64:
                    f1:42:2b:70:c0:8f:65:6e:49:1e:74:13:d9:89:a0:
                    f1:47
                Exponent: 65537 (0x10001)
        X509v3 extensions:
            X509v3 Basic Constraints: 
                CA:FALSE
            X509v3 Subject Key Identifier: 
                CD:B2:35:D8:24:66:19:78:3D:77:45:89:D3:A7:FE:D0:F6:EC:EC:F1
            X509v3 Authority Key Identifier: 
                keyid:08:9C:C2:33:B5:49:08:77:43:00:AA:91:86:8C:E9:BC:F6:D4:FF:9E
                DirName:/CN=team52-net
                serial:01:B7:B6:D8:EA:0F:2E:B8:3B:6E:92:1D:16:A8:F4:8F:03:14:00:46

            X509v3 Extended Key Usage: 
                TLS Web Client Authentication
            X509v3 Key Usage: 
                Digital Signature
    Signature Algorithm: sha256WithRSAEncryption
         76:3d:ff:ac:32:f5:eb:97:dd:a3:d4:78:5e:df:de:28:81:47:
         e4:a0:97:98:ca:11:9f:a7:39:07:83:e1:19:44:a8:58:ca:75:
         25:16:71:27:b5:90:e1:b8:75:3e:83:9b:92:c0:6f:7c:3a:35:
         aa:4f:09:6c:c3:f8:36:20:c2:e7:eb:49:e3:13:3b:bf:63:9b:
         1f:f4:01:4e:b9:02:23:09:3e:4d:7f:50:c9:29:18:e1:29:22:
         f7:15:2d:37:0c:42:08:f5:6c:83:4a:48:41:c9:3b:c5:41:14:
         8b:85:a0:62:d9:b8:f9:2b:b6:29:3f:64:1e:6d:03:09:83:15:
         0d:07:d8:38:e9:f3:27:5c:88:e3:d6:19:0d:70:0a:e5:ab:7e:
         9e:ae:21:dc:e3:70:dc:5d:16:24:b0:fd:89:72:71:b1:71:bf:
         b0:db:ab:5a:2d:cb:48:c9:73:da:b2:6a:bb:78:24:12:0c:bc:
         86:c1:06:f7:37:04:d7:c6:ae:d9:4b:ef:03:0b:fc:9f:52:7b:
         90:b4:69:db:db:f9:79:ed:ed:62:b8:69:f3:d3:83:89:0b:02:
         57:ff:71:52:e0:e2:d0:e5:3a:0c:a0:ef:2e:9f:d7:1b:96:dd:
         f2:84:d6:51:1f:84:21:0f:2e:b1:9c:cc:20:3e:24:e8:f9:d7:
         1d:c1:e3:c4
-----BEGIN CERTIFICATE-----
MIIDWTCCAkGgAwIBAgIQdXTlCvGdlmE7OJGeGjw02DANBgkqhkiG9w0BAQsFADAV
MRMwEQYDVQQDDAp0ZWFtNTItbmV0MB4XDTIyMDUxODE0MjI1OVoXDTI1MDUwMjE0
MjI1OVowGDEWMBQGA1UEAwwNdGVhbTUyLWNsaWVudDCCASIwDQYJKoZIhvcNAQEB
BQADggEPADCCAQoCggEBAOrnJ9t7dAWG30YNFXh8OYrtKc9NBokA5ZarlRmA9B7u
TR2fUQvzYi+ocT1VhMh/eLzXZlYaPYhKLqIxM5H+0bUXX6Qe8LV/5uyqRaLqDCbA
gjyRSEejbvxpuNJ0P9mlFF14GxFLD0Cg/HxmTNqdHgeHQsOaSl0PLenPUFhG7DSh
yvXYX4FYs0QeoD20EzAiGzeFKMeBItrIA5HcDJwN+UnMq421/CkmogoHytZhyDND
gSHAgLp/8a7mB9BDB90Oi+IofMVQIxbgc1q0vVZsdkLmiPtQF5+ORbJnMerjNZK+
7DH9G4EUven5+QxsiaFk8UIrcMCPZW5JHnQT2Ymg8UcCAwEAAaOBoTCBnjAJBgNV
HRMEAjAAMB0GA1UdDgQWBBTNsjXYJGYZeD13RYnTp/7Q9uzs8TBQBgNVHSMESTBH
gBQInMIztUkId0MAqpGGjOm89tT/nqEZpBcwFTETMBEGA1UEAwwKdGVhbTUyLW5l
dIIUAbe22OoPLrg7bpIdFqj0jwMUAEYwEwYDVR0lBAwwCgYIKwYBBQUHAwIwCwYD
VR0PBAQDAgeAMA0GCSqGSIb3DQEBCwUAA4IBAQB2Pf+sMvXrl92j1Hhe394ogUfk
oJeYyhGfpzkHg+EZRKhYynUlFnEntZDhuHU+g5uSwG98OjWqTwlsw/g2IMLn60nj
Ezu/Y5sf9AFOuQIjCT5Nf1DJKRjhKSL3FS03DEII9WyDSkhByTvFQRSLhaBi2bj5
K7YpP2QebQMJgxUNB9g46fMnXIjj1hkNcArlq36eriHc43DcXRYksP2JcnGxcb+w
26taLctIyXPasmq7eCQSDLyGwQb3NwTXxq7ZS+8DC/yfUnuQtGnb2/l57e1iuGnz
04OJCwJX/3FS4OLQ5ToMoO8un9cblt3yhNZRH4QhDy6xnMwgPiTo+dcdwePE
-----END CERTIFICATE-----
