Certificate:
    Data:
        Version: 3 (0x2)
        Serial Number:
            9a:c4:9c:c3:06:01:d2:48:b5:9a:95:4d:d4:f0:78:f0
        Signature Algorithm: sha256WithRSAEncryption
        Issuer: CN=team108-net
        Validity
            Not Before: May 18 14:54:21 2022 GMT
            Not After : May  2 14:54:21 2025 GMT
        Subject: CN=team108-client
        Subject Public Key Info:
            Public Key Algorithm: rsaEncryption
                RSA Public-Key: (2048 bit)
                Modulus:
                    00:a6:a2:df:ab:87:31:2d:03:0c:d5:78:30:bf:00:
                    43:da:4d:8a:f6:92:76:38:2a:e0:3f:8f:45:b5:f6:
                    0e:30:d9:ab:dd:a2:90:ce:98:ec:56:f1:e4:4f:b9:
                    a3:ed:5b:32:84:c7:43:bd:28:71:ac:ad:f9:90:86:
                    e6:bd:bc:05:ca:ed:51:12:0b:38:38:79:d9:8e:5b:
                    da:fa:d3:7f:d4:a6:18:bd:cf:1b:a6:31:23:84:49:
                    a6:db:b9:61:8f:65:99:20:be:08:a0:a7:6a:55:04:
                    09:b7:eb:7d:6f:92:e5:d8:27:e4:ab:57:b9:0d:32:
                    35:c3:3a:4a:a1:9b:9e:93:6f:dc:e2:7a:f5:52:d7:
                    d7:43:45:6b:a7:19:a9:a0:98:0d:b8:6a:53:d7:1e:
                    c8:86:f6:82:3d:93:22:ef:48:f7:f1:d2:5f:9f:ca:
                    59:b0:8a:62:97:1b:89:17:a5:aa:20:03:05:32:28:
                    f0:7e:44:cb:b2:4c:bf:4a:a1:59:fe:06:6c:28:d2:
                    32:b8:a1:6d:e7:67:7f:78:1d:d0:84:79:14:05:cc:
                    08:aa:db:7d:15:37:fa:b9:33:25:97:19:03:d4:dd:
                    ba:33:ac:5e:6c:ab:25:c7:a9:49:a8:7a:f1:55:54:
                    c2:81:55:c4:54:ae:00:67:6f:05:33:23:82:17:a8:
                    c9:45
                Exponent: 65537 (0x10001)
        X509v3 extensions:
            X509v3 Basic Constraints: 
                CA:FALSE
            X509v3 Subject Key Identifier: 
                78:F0:38:B6:42:E0:79:09:F5:F6:C8:44:17:5C:08:A7:72:0B:25:7F
            X509v3 Authority Key Identifier: 
                keyid:31:69:31:AF:42:2D:C5:6D:D3:0C:A3:BA:36:8F:E4:AD:3F:FC:6A:38
                DirName:/CN=team108-net
                serial:14:34:40:55:DB:D7:DE:8E:F0:F4:18:F1:EA:CE:DD:04:69:8E:01:31

            X509v3 Extended Key Usage: 
                TLS Web Client Authentication
            X509v3 Key Usage: 
                Digital Signature
    Signature Algorithm: sha256WithRSAEncryption
         09:05:a3:86:b2:9b:14:b7:d7:cb:c2:6d:f8:60:fe:5b:ab:c7:
         4f:08:67:e5:eb:04:d4:d7:59:0e:eb:40:9e:89:33:05:7e:fb:
         7d:43:07:fd:b7:1f:69:b5:30:96:87:1b:50:ec:77:9a:fa:f4:
         39:f1:df:7b:2e:89:6f:5d:8e:52:74:f0:bc:00:1c:9a:6c:f0:
         61:cd:c3:a2:09:fd:2f:cc:30:67:50:27:d3:74:b1:fe:80:d4:
         ba:2e:73:e5:00:c2:7e:26:0b:bb:47:8d:67:64:f4:eb:79:6d:
         be:92:5b:97:5e:cb:e0:38:a0:b9:1b:d8:2d:b9:ee:42:4f:02:
         15:75:65:71:87:25:c1:6c:ec:15:6e:62:20:67:42:0a:47:52:
         15:47:61:97:7c:f3:64:b7:cf:26:82:29:75:45:f0:4f:87:5c:
         d8:29:e4:54:76:7c:01:be:ea:30:ae:eb:2c:8c:01:ee:ce:68:
         fc:58:2d:00:d8:f0:6f:54:64:8a:8e:e8:db:62:4b:6a:53:07:
         ee:4b:b5:a8:52:8d:36:f5:8e:77:ce:80:e3:e7:90:24:70:b1:
         06:45:19:d8:6b:4c:ae:46:40:f0:1e:80:86:15:16:b6:2e:2e:
         e3:d7:1b:fa:8c:2d:53:4e:d5:2c:81:95:1a:92:a3:03:c8:c3:
         96:85:f9:e4
-----BEGIN CERTIFICATE-----
MIIDXTCCAkWgAwIBAgIRAJrEnMMGAdJItZqVTdTwePAwDQYJKoZIhvcNAQELBQAw
FjEUMBIGA1UEAwwLdGVhbTEwOC1uZXQwHhcNMjIwNTE4MTQ1NDIxWhcNMjUwNTAy
MTQ1NDIxWjAZMRcwFQYDVQQDDA50ZWFtMTA4LWNsaWVudDCCASIwDQYJKoZIhvcN
AQEBBQADggEPADCCAQoCggEBAKai36uHMS0DDNV4ML8AQ9pNivaSdjgq4D+PRbX2
DjDZq92ikM6Y7Fbx5E+5o+1bMoTHQ70ocayt+ZCG5r28BcrtURILODh52Y5b2vrT
f9SmGL3PG6YxI4RJptu5YY9lmSC+CKCnalUECbfrfW+S5dgn5KtXuQ0yNcM6SqGb
npNv3OJ69VLX10NFa6cZqaCYDbhqU9ceyIb2gj2TIu9I9/HSX5/KWbCKYpcbiRel
qiADBTIo8H5Ey7JMv0qhWf4GbCjSMrihbednf3gd0IR5FAXMCKrbfRU3+rkzJZcZ
A9TdujOsXmyrJcepSah68VVUwoFVxFSuAGdvBTMjgheoyUUCAwEAAaOBojCBnzAJ
BgNVHRMEAjAAMB0GA1UdDgQWBBR48Di2QuB5CfX2yEQXXAincgslfzBRBgNVHSME
SjBIgBQxaTGvQi3FbdMMo7o2j+StP/xqOKEapBgwFjEUMBIGA1UEAwwLdGVhbTEw
OC1uZXSCFBQ0QFXb196O8PQY8erO3QRpjgExMBMGA1UdJQQMMAoGCCsGAQUFBwMC
MAsGA1UdDwQEAwIHgDANBgkqhkiG9w0BAQsFAAOCAQEACQWjhrKbFLfXy8Jt+GD+
W6vHTwhn5esE1NdZDutAnokzBX77fUMH/bcfabUwlocbUOx3mvr0OfHfey6Jb12O
UnTwvAAcmmzwYc3Dogn9L8wwZ1An03Sx/oDUui5z5QDCfiYLu0eNZ2T063ltvpJb
l17L4DiguRvYLbnuQk8CFXVlcYclwWzsFW5iIGdCCkdSFUdhl3zzZLfPJoIpdUXw
T4dc2CnkVHZ8Ab7qMK7rLIwB7s5o/FgtANjwb1Rkio7o22JLalMH7ku1qFKNNvWO
d86A4+eQJHCxBkUZ2GtMrkZA8B6AhhUWti4u49cb+owtU07VLIGVGpKjA8jDloX5
5A==
-----END CERTIFICATE-----
