Certificate:
    Data:
        Version: 3 (0x2)
        Serial Number:
            36:3d:80:c8:50:2a:15:45:94:3e:cf:4b:50:1c:da:c2
        Signature Algorithm: sha256WithRSAEncryption
        Issuer: CN=team493-net
        Validity
            Not Before: May 18 21:47:57 2022 GMT
            Not After : May  2 21:47:57 2025 GMT
        Subject: CN=team493-client
        Subject Public Key Info:
            Public Key Algorithm: rsaEncryption
                RSA Public-Key: (2048 bit)
                Modulus:
                    00:c2:4f:1b:83:81:82:ef:e1:2e:58:93:85:c2:5f:
                    c9:04:66:20:a3:86:4a:e3:71:ce:32:84:db:85:ea:
                    83:dd:de:55:c2:8b:3b:82:04:bc:c9:a7:ef:ab:94:
                    a8:8d:5d:df:96:e7:61:43:62:a0:8c:01:70:d6:56:
                    84:b7:6e:fb:70:0b:91:25:dc:96:70:a7:1c:c1:51:
                    22:f9:79:08:97:58:ca:20:d7:1b:aa:77:3a:29:25:
                    a7:d9:b6:09:85:41:16:fa:d3:26:0f:4b:a5:60:ad:
                    b0:1a:55:e5:2a:52:6b:11:b0:68:eb:7d:6f:a8:42:
                    af:81:ec:6f:9a:36:f9:d8:f6:d3:b1:09:ad:5a:11:
                    87:c9:f6:f1:ac:df:70:c5:5d:93:59:71:d2:e3:8d:
                    52:28:60:73:8d:f3:4d:69:60:df:47:a5:dc:67:ee:
                    1e:28:12:b7:df:38:42:0d:bb:1e:19:8f:b5:8a:20:
                    90:c9:6e:cb:15:12:0c:d3:f1:39:2a:16:08:83:65:
                    78:d5:4c:c8:22:a5:51:34:ae:bc:19:6f:d2:83:82:
                    29:f3:84:fa:c6:8d:61:3b:1a:1e:08:79:fd:13:5a:
                    34:f4:f4:b3:53:0c:fb:25:a9:c2:b9:fc:53:b5:2d:
                    f0:fa:7b:00:cb:37:e1:64:f3:26:67:c8:eb:95:d8:
                    af:31
                Exponent: 65537 (0x10001)
        X509v3 extensions:
            X509v3 Basic Constraints: 
                CA:FALSE
            X509v3 Subject Key Identifier: 
                0F:3D:2C:FB:5C:B9:0A:F0:3B:8D:FA:9E:CC:D8:64:18:03:7A:36:C0
            X509v3 Authority Key Identifier: 
                keyid:8D:F9:C9:79:88:4F:9C:50:53:0B:3B:90:8F:47:15:D6:E3:9C:B2:BF
                DirName:/CN=team493-net
                serial:0B:74:82:16:D0:02:24:2A:41:BF:84:08:2F:AB:C9:8A:B2:A1:63:20

            X509v3 Extended Key Usage: 
                TLS Web Client Authentication
            X509v3 Key Usage: 
                Digital Signature
    Signature Algorithm: sha256WithRSAEncryption
         67:f4:9f:f1:cf:79:72:6d:b3:e5:40:59:18:ae:a6:d0:b5:84:
         66:ab:20:73:de:3f:60:79:ab:ef:82:71:4e:bb:67:2a:86:4b:
         a9:61:97:2f:df:6f:9f:d9:10:d0:c2:23:ca:ec:57:14:7b:13:
         38:c2:04:60:51:a8:fb:b6:af:62:cf:f8:6c:b9:4a:b8:82:a6:
         f2:00:55:b5:c7:d8:9c:ac:17:0a:17:f0:f5:95:65:ab:92:31:
         2a:6f:25:94:01:0e:ab:11:71:12:a0:8d:8c:07:fe:5a:09:79:
         15:d4:c7:9a:61:3f:3b:1f:98:ff:18:75:2d:1e:5c:43:a9:8a:
         04:c1:f3:09:5d:ba:d5:7b:ee:67:a4:0f:94:3e:c8:9f:8a:dd:
         44:e8:2f:dd:62:8f:c2:4b:bb:1d:35:6d:4e:c9:12:b0:69:1c:
         6b:a6:86:01:dc:36:c6:ce:db:60:9d:cf:d4:47:82:1c:31:ab:
         2f:7a:12:12:20:23:25:e9:35:b6:42:91:58:83:53:30:6f:52:
         c8:91:ef:c6:74:f4:9c:ef:b7:9e:45:c4:d9:8b:51:4a:65:5f:
         c3:9f:3d:d7:83:b7:e8:36:81:8e:28:34:a4:22:cf:c4:26:7d:
         ab:21:c1:e8:1e:73:60:bb:27:94:79:60:24:ac:8d:de:ce:05:
         3f:42:da:84
-----BEGIN CERTIFICATE-----
MIIDXDCCAkSgAwIBAgIQNj2AyFAqFUWUPs9LUBzawjANBgkqhkiG9w0BAQsFADAW
MRQwEgYDVQQDDAt0ZWFtNDkzLW5ldDAeFw0yMjA1MTgyMTQ3NTdaFw0yNTA1MDIy
MTQ3NTdaMBkxFzAVBgNVBAMMDnRlYW00OTMtY2xpZW50MIIBIjANBgkqhkiG9w0B
AQEFAAOCAQ8AMIIBCgKCAQEAwk8bg4GC7+EuWJOFwl/JBGYgo4ZK43HOMoTbheqD
3d5Vwos7ggS8yafvq5SojV3fludhQ2KgjAFw1laEt277cAuRJdyWcKccwVEi+XkI
l1jKINcbqnc6KSWn2bYJhUEW+tMmD0ulYK2wGlXlKlJrEbBo631vqEKvgexvmjb5
2PbTsQmtWhGHyfbxrN9wxV2TWXHS441SKGBzjfNNaWDfR6XcZ+4eKBK33zhCDbse
GY+1iiCQyW7LFRIM0/E5KhYIg2V41UzIIqVRNK68GW/Sg4Ip84T6xo1hOxoeCHn9
E1o09PSzUwz7JanCufxTtS3w+nsAyzfhZPMmZ8jrldivMQIDAQABo4GiMIGfMAkG
A1UdEwQCMAAwHQYDVR0OBBYEFA89LPtcuQrwO436nszYZBgDejbAMFEGA1UdIwRK
MEiAFI35yXmIT5xQUws7kI9HFdbjnLK/oRqkGDAWMRQwEgYDVQQDDAt0ZWFtNDkz
LW5ldIIUC3SCFtACJCpBv4QIL6vJirKhYyAwEwYDVR0lBAwwCgYIKwYBBQUHAwIw
CwYDVR0PBAQDAgeAMA0GCSqGSIb3DQEBCwUAA4IBAQBn9J/xz3lybbPlQFkYrqbQ
tYRmqyBz3j9geavvgnFOu2cqhkupYZcv32+f2RDQwiPK7FcUexM4wgRgUaj7tq9i
z/hsuUq4gqbyAFW1x9icrBcKF/D1lWWrkjEqbyWUAQ6rEXESoI2MB/5aCXkV1Mea
YT87H5j/GHUtHlxDqYoEwfMJXbrVe+5npA+UPsifit1E6C/dYo/CS7sdNW1OyRKw
aRxrpoYB3DbGzttgnc/UR4IcMasvehISICMl6TW2QpFYg1Mwb1LIke/GdPSc77ee
RcTZi1FKZV/Dnz3Xg7foNoGOKDSkIs/EJn2rIcHoHnNguyeUeWAkrI3ezgU/QtqE
-----END CERTIFICATE-----
