Certificate:
    Data:
        Version: 3 (0x2)
        Serial Number:
            92:c2:08:97:8b:ea:43:8b:62:6b:a6:b2:b2:9f:6a:cb
        Signature Algorithm: sha256WithRSAEncryption
        Issuer: CN=team493-net
        Validity
            Not Before: May 18 21:47:57 2022 GMT
            Not After : May  2 21:47:57 2025 GMT
        Subject: CN=team493-server
        Subject Public Key Info:
            Public Key Algorithm: rsaEncryption
                RSA Public-Key: (2048 bit)
                Modulus:
                    00:b6:0a:ef:9b:34:e5:f6:e9:05:7d:e4:d0:e9:2a:
                    b8:f8:43:a7:26:ff:de:3e:e6:fc:0f:b2:1d:63:65:
                    6e:f3:34:f4:9f:de:35:62:e5:e3:6c:d4:59:b6:a3:
                    7c:45:1d:67:27:ab:78:56:f8:3c:69:1f:42:8d:ea:
                    54:c8:22:dd:3b:ea:c7:d2:e3:cd:76:b6:ec:19:c0:
                    4e:3a:d8:02:f1:f5:30:9d:e9:c5:24:68:b0:ae:ef:
                    c8:ef:b8:c0:ee:dc:b5:84:17:58:a1:c6:aa:fd:0b:
                    22:30:fc:05:0e:03:13:b1:66:32:fa:3d:67:cd:ab:
                    c2:0d:03:ea:0f:e9:7c:03:e6:72:e4:03:72:bd:05:
                    87:4a:78:fc:6e:4d:bc:59:a7:e0:7d:99:f2:cd:e0:
                    49:6c:24:df:6c:41:a0:35:16:b3:57:61:37:ae:d9:
                    9e:03:a0:48:73:be:34:0e:70:b1:25:9d:90:0c:04:
                    8f:ec:e3:84:09:8b:11:f3:88:cd:f2:fa:55:37:7c:
                    05:dd:57:09:a8:73:68:b1:b0:71:40:58:20:65:9d:
                    04:d2:d7:c1:4e:62:2b:4f:9a:6c:5c:dc:3c:46:92:
                    13:89:1b:11:3b:ac:40:d3:47:4b:cc:0f:bf:42:c3:
                    c8:7e:07:4f:40:c1:b6:db:73:24:41:fd:05:2b:63:
                    55:39
                Exponent: 65537 (0x10001)
        X509v3 extensions:
            X509v3 Basic Constraints: 
                CA:FALSE
            X509v3 Subject Key Identifier: 
                92:4F:C0:1C:4E:48:D8:F2:7E:4A:8E:D4:BF:C5:56:E4:8D:C3:8E:A6
            X509v3 Authority Key Identifier: 
                keyid:8D:F9:C9:79:88:4F:9C:50:53:0B:3B:90:8F:47:15:D6:E3:9C:B2:BF
                DirName:/CN=team493-net
                serial:0B:74:82:16:D0:02:24:2A:41:BF:84:08:2F:AB:C9:8A:B2:A1:63:20

            X509v3 Extended Key Usage: 
                TLS Web Server Authentication
            X509v3 Key Usage: 
                Digital Signature, Key Encipherment
            X509v3 Subject Alternative Name: 
                DNS:team493-server
    Signature Algorithm: sha256WithRSAEncryption
         74:9e:ee:94:6b:81:38:7c:5e:bc:7c:0a:a4:27:c0:e0:98:3a:
         ba:d1:3c:4e:74:6d:e3:dc:15:21:7f:b3:4c:52:40:49:f7:08:
         10:de:22:4b:db:e5:ad:75:6e:54:c1:8a:fe:7c:db:8a:87:e4:
         38:77:ff:59:54:b2:fd:56:70:e9:9d:78:7d:84:01:a9:44:c1:
         bf:74:3e:14:83:dc:39:7f:7f:22:e3:1a:99:41:c3:03:56:91:
         0d:7c:e1:82:3f:1f:6b:ab:ab:60:77:8e:8c:bc:7d:a2:2a:91:
         8f:b9:81:79:0a:39:08:21:60:31:bf:b2:98:88:90:c0:d8:d6:
         40:28:57:df:3a:96:87:96:b9:32:0b:5f:65:6c:54:8b:88:b0:
         e0:92:50:49:40:ba:24:18:bf:10:96:b9:1e:d9:53:56:04:7d:
         28:e6:00:62:8d:ad:0a:87:96:3b:8a:69:ba:06:a4:39:8d:54:
         77:63:b6:60:1c:63:15:52:61:57:e8:4b:2f:d9:16:ee:e7:25:
         09:31:f9:bd:ae:22:db:32:00:62:54:8d:93:8c:e7:50:87:9d:
         1e:46:6b:8b:a5:b4:bb:bd:d8:a0:d5:35:fb:27:f8:55:69:1e:
         7f:cf:a6:ab:69:64:5d:37:35:a5:2d:e0:82:db:df:cd:d2:c0:
         4e:94:5b:8d
-----BEGIN CERTIFICATE-----
MIIDeDCCAmCgAwIBAgIRAJLCCJeL6kOLYmumsrKfasswDQYJKoZIhvcNAQELBQAw
FjEUMBIGA1UEAwwLdGVhbTQ5My1uZXQwHhcNMjIwNTE4MjE0NzU3WhcNMjUwNTAy
MjE0NzU3WjAZMRcwFQYDVQQDDA50ZWFtNDkzLXNlcnZlcjCCASIwDQYJKoZIhvcN
AQEBBQADggEPADCCAQoCggEBALYK75s05fbpBX3k0OkquPhDpyb/3j7m/A+yHWNl
bvM09J/eNWLl42zUWbajfEUdZyereFb4PGkfQo3qVMgi3Tvqx9LjzXa27BnATjrY
AvH1MJ3pxSRosK7vyO+4wO7ctYQXWKHGqv0LIjD8BQ4DE7FmMvo9Z82rwg0D6g/p
fAPmcuQDcr0Fh0p4/G5NvFmn4H2Z8s3gSWwk32xBoDUWs1dhN67ZngOgSHO+NA5w
sSWdkAwEj+zjhAmLEfOIzfL6VTd8Bd1XCahzaLGwcUBYIGWdBNLXwU5iK0+abFzc
PEaSE4kbETusQNNHS8wPv0LDyH4HT0DBtttzJEH9BStjVTkCAwEAAaOBvTCBujAJ
BgNVHRMEAjAAMB0GA1UdDgQWBBSST8AcTkjY8n5KjtS/xVbkjcOOpjBRBgNVHSME
SjBIgBSN+cl5iE+cUFMLO5CPRxXW45yyv6EapBgwFjEUMBIGA1UEAwwLdGVhbTQ5
My1uZXSCFAt0ghbQAiQqQb+ECC+ryYqyoWMgMBMGA1UdJQQMMAoGCCsGAQUFBwMB
MAsGA1UdDwQEAwIFoDAZBgNVHREEEjAQgg50ZWFtNDkzLXNlcnZlcjANBgkqhkiG
9w0BAQsFAAOCAQEAdJ7ulGuBOHxevHwKpCfA4Jg6utE8TnRt49wVIX+zTFJASfcI
EN4iS9vlrXVuVMGK/nzbiofkOHf/WVSy/VZw6Z14fYQBqUTBv3Q+FIPcOX9/IuMa
mUHDA1aRDXzhgj8fa6urYHeOjLx9oiqRj7mBeQo5CCFgMb+ymIiQwNjWQChX3zqW
h5a5MgtfZWxUi4iw4JJQSUC6JBi/EJa5HtlTVgR9KOYAYo2tCoeWO4ppugakOY1U
d2O2YBxjFVJhV+hLL9kW7uclCTH5va4i2zIAYlSNk4znUIedHkZri6W0u73YoNU1
+yf4VWkef8+mq2lkXTc1pS3ggtvfzdLATpRbjQ==
-----END CERTIFICATE-----
