Certificate:
    Data:
        Version: 3 (0x2)
        Serial Number:
            73:98:9c:9a:3e:36:da:ea:29:43:15:38:15:29:44:48
        Signature Algorithm: sha256WithRSAEncryption
        Issuer: CN=team679-net
        Validity
            Not Before: May 18 23:35:27 2022 GMT
            Not After : May  2 23:35:27 2025 GMT
        Subject: CN=team679-client
        Subject Public Key Info:
            Public Key Algorithm: rsaEncryption
                RSA Public-Key: (2048 bit)
                Modulus:
                    00:a4:6b:a6:0e:a7:26:9a:fe:25:55:9d:ff:61:28:
                    df:0d:a0:e9:3e:7d:4a:d5:24:39:30:18:20:f3:6f:
                    40:5e:dc:78:5c:be:26:73:dc:ec:f8:0a:65:f3:af:
                    1f:53:40:a6:05:ca:c8:c7:4a:80:47:ac:eb:65:c5:
                    34:a8:61:4f:d6:95:f4:87:33:51:e8:91:13:db:9b:
                    04:79:80:b7:ea:59:53:df:13:a4:82:62:2c:67:e4:
                    11:4e:9a:24:7c:ee:ca:92:a4:3b:a5:6a:36:23:ba:
                    ed:6f:13:2a:00:16:48:d6:9e:8a:c3:f3:4f:c3:2b:
                    28:f5:46:c6:01:24:e4:c3:ee:af:66:7d:7d:56:68:
                    ea:a9:c4:86:52:9e:4d:54:a6:27:0a:07:f0:24:80:
                    44:87:6e:e2:72:93:24:c3:ea:34:ed:20:87:8d:e4:
                    3c:57:d5:f5:49:b2:bc:66:41:d7:92:24:d7:50:4a:
                    dd:ef:04:2a:2d:b3:6c:88:7d:05:84:26:8a:eb:9b:
                    15:08:f2:65:5f:98:fe:09:b7:c7:ab:69:bb:2a:4a:
                    b1:54:c0:68:2d:f6:be:8f:a8:7b:76:d4:5d:25:7a:
                    a4:24:50:ad:06:86:f0:0c:31:d2:0f:65:03:53:cd:
                    97:a3:a8:63:11:0a:f4:03:d6:eb:dd:c7:eb:1c:c8:
                    d4:e5
                Exponent: 65537 (0x10001)
        X509v3 extensions:
            X509v3 Basic Constraints: 
                CA:FALSE
            X509v3 Subject Key Identifier: 
                1F:6A:1D:97:C0:91:97:67:02:41:FC:36:FF:26:D7:AD:2C:20:B9:9B
            X509v3 Authority Key Identifier: 
                keyid:4A:64:E5:75:3D:C3:B4:BB:AA:B0:E1:CF:DD:2D:A6:A2:F5:F0:DC:A2
                DirName:/CN=team679-net
                serial:6B:B0:45:94:0E:BF:F9:74:F6:25:6A:0F:1B:40:B3:2E:15:A2:C2:61

            X509v3 Extended Key Usage: 
                TLS Web Client Authentication
            X509v3 Key Usage: 
                Digital Signature
    Signature Algorithm: sha256WithRSAEncryption
         61:5b:cb:61:7f:2d:e7:84:d8:39:35:8a:a3:d1:ef:bb:62:df:
         21:9a:15:d4:60:24:00:63:7c:b0:94:5f:00:f3:ae:a5:52:66:
         fd:37:d9:7d:41:ec:ac:33:02:57:d0:7d:af:b8:17:df:cc:06:
         88:bb:de:45:a5:3d:fa:6d:27:fd:f1:89:90:e8:1f:77:eb:b6:
         11:8a:56:f0:9b:e6:a1:1d:ca:e0:89:43:54:7a:98:46:cf:31:
         55:7e:9a:37:c9:dd:17:f6:e6:42:fd:33:8b:38:02:a4:12:8a:
         83:42:65:93:07:8e:f9:2f:f9:d7:ba:c3:37:4d:98:33:c0:02:
         70:49:2b:76:1e:c8:c6:c1:71:e0:86:3a:20:f3:dc:36:e0:14:
         63:43:d5:10:ae:4f:f8:21:31:fa:80:d7:b6:8f:be:a7:b8:e7:
         dd:5d:b0:b5:a8:e0:60:8e:c5:b8:19:26:7a:15:84:75:3e:9b:
         b4:f1:70:27:b5:43:90:d2:dd:91:03:36:13:ff:e3:dd:a3:f2:
         b6:b6:98:e5:6a:4f:05:4f:6f:67:35:f0:9e:1e:62:1f:54:86:
         49:0d:3f:e2:e7:92:6f:66:db:7b:d2:64:81:07:8a:d2:2f:50:
         5e:cb:be:e2:c4:a8:32:23:ab:e3:2f:ef:78:82:0e:f6:e3:1d:
         ca:e8:91:69
-----BEGIN CERTIFICATE-----
MIIDXDCCAkSgAwIBAgIQc5icmj422uopQxU4FSlESDANBgkqhkiG9w0BAQsFADAW
MRQwEgYDVQQDDAt0ZWFtNjc5LW5ldDAeFw0yMjA1MTgyMzM1MjdaFw0yNTA1MDIy
MzM1MjdaMBkxFzAVBgNVBAMMDnRlYW02NzktY2xpZW50MIIBIjANBgkqhkiG9w0B
AQEFAAOCAQ8AMIIBCgKCAQEApGumDqcmmv4lVZ3/YSjfDaDpPn1K1SQ5MBgg829A
Xtx4XL4mc9zs+Apl868fU0CmBcrIx0qAR6zrZcU0qGFP1pX0hzNR6JET25sEeYC3
6llT3xOkgmIsZ+QRTpokfO7KkqQ7pWo2I7rtbxMqABZI1p6Kw/NPwyso9UbGASTk
w+6vZn19VmjqqcSGUp5NVKYnCgfwJIBEh27icpMkw+o07SCHjeQ8V9X1SbK8ZkHX
kiTXUErd7wQqLbNsiH0FhCaK65sVCPJlX5j+CbfHq2m7KkqxVMBoLfa+j6h7dtRd
JXqkJFCtBobwDDHSD2UDU82Xo6hjEQr0A9br3cfrHMjU5QIDAQABo4GiMIGfMAkG
A1UdEwQCMAAwHQYDVR0OBBYEFB9qHZfAkZdnAkH8Nv8m160sILmbMFEGA1UdIwRK
MEiAFEpk5XU9w7S7qrDhz90tpqL18NyioRqkGDAWMRQwEgYDVQQDDAt0ZWFtNjc5
LW5ldIIUa7BFlA6/+XT2JWoPG0CzLhWiwmEwEwYDVR0lBAwwCgYIKwYBBQUHAwIw
CwYDVR0PBAQDAgeAMA0GCSqGSIb3DQEBCwUAA4IBAQBhW8thfy3nhNg5NYqj0e+7
Yt8hmhXUYCQAY3ywlF8A866lUmb9N9l9QeysMwJX0H2vuBffzAaIu95FpT36bSf9
8YmQ6B9367YRilbwm+ahHcrgiUNUephGzzFVfpo3yd0X9uZC/TOLOAKkEoqDQmWT
B475L/nXusM3TZgzwAJwSSt2HsjGwXHghjog89w24BRjQ9UQrk/4ITH6gNe2j76n
uOfdXbC1qOBgjsW4GSZ6FYR1Ppu08XAntUOQ0t2RAzYT/+Pdo/K2tpjlak8FT29n
NfCeHmIfVIZJDT/i55JvZtt70mSBB4rSL1Bey77ixKgyI6vjL+94gg724x3K6JFp
-----END CERTIFICATE-----
