Certificate:
    Data:
        Version: 3 (0x2)
        Serial Number:
            2e:28:c0:9b:e0:54:29:dd:73:24:51:69:dd:11:b4:c8
        Signature Algorithm: sha256WithRSAEncryption
        Issuer: CN=team451-net
        Validity
            Not Before: May 18 21:15:02 2022 GMT
            Not After : May  2 21:15:02 2025 GMT
        Subject: CN=team451-client
        Subject Public Key Info:
            Public Key Algorithm: rsaEncryption
                RSA Public-Key: (2048 bit)
                Modulus:
                    00:c6:18:8b:e6:30:a5:a3:95:2e:3f:86:d4:f2:ee:
                    4f:94:a7:0e:16:a9:81:d3:db:53:f3:79:d3:9d:f7:
                    c1:3a:24:a8:4c:33:af:5e:61:ab:a4:92:7f:9c:f4:
                    e9:c1:6f:32:b1:cc:1e:25:e4:37:86:c4:4c:6e:04:
                    99:2c:37:c9:c7:ba:1f:af:29:00:a4:a6:9f:ef:66:
                    0a:3b:e7:78:d4:24:7e:f6:ec:62:be:08:60:3c:6c:
                    ea:5e:16:07:8e:0c:02:f1:b9:cc:6e:ec:86:b2:1a:
                    5e:55:b1:a0:3d:c0:e5:ef:2a:1f:17:d4:d2:1a:32:
                    8c:bc:91:1b:f9:91:ab:9b:36:38:a7:bb:9c:8e:eb:
                    2a:ad:d9:39:fd:87:6f:6b:19:ee:a8:3e:c9:12:f6:
                    5f:53:5f:c4:d3:c6:d6:c8:bd:33:e0:19:df:f8:b4:
                    66:81:fc:5b:89:5d:ce:4c:75:29:ce:57:76:30:d7:
                    fc:b2:df:9e:1c:ab:b5:a9:7e:0a:e6:92:a1:54:e9:
                    a6:1a:cc:e6:d8:76:5d:64:a3:33:3a:74:8c:32:8e:
                    18:1c:b2:0b:3a:5c:f9:03:28:34:db:e3:dd:f1:2d:
                    8e:af:4e:d6:72:2d:4e:6c:df:3a:7e:4c:8b:70:9c:
                    71:f4:4f:0f:d7:73:83:2a:49:d0:91:23:58:97:0a:
                    a1:09
                Exponent: 65537 (0x10001)
        X509v3 extensions:
            X509v3 Basic Constraints: 
                CA:FALSE
            X509v3 Subject Key Identifier: 
                A2:B1:E8:AB:4C:B0:DE:C9:D2:A5:45:09:DE:23:B2:43:F5:67:C0:24
            X509v3 Authority Key Identifier: 
                keyid:2C:14:E3:DF:7C:1B:AF:34:CA:A2:D1:86:EF:FD:C5:2A:DC:43:91:07
                DirName:/CN=team451-net
                serial:2A:E9:61:C1:ED:16:10:84:54:31:E1:FF:39:BD:42:FA:A5:3D:AC:BC

            X509v3 Extended Key Usage: 
                TLS Web Client Authentication
            X509v3 Key Usage: 
                Digital Signature
    Signature Algorithm: sha256WithRSAEncryption
         3e:4c:b0:c8:eb:46:6a:a4:96:37:d8:86:06:2d:82:ec:27:3f:
         64:c3:78:31:0e:8f:69:85:ff:a9:45:2f:3b:e9:13:07:04:44:
         81:88:13:48:bd:14:ba:2e:fa:90:35:eb:2e:14:57:0a:b7:6a:
         eb:eb:69:3d:54:6b:c4:26:ce:59:b8:9f:0d:f3:a8:b2:65:b6:
         c0:c3:9f:9f:7f:85:30:41:f1:81:18:70:42:c7:94:e0:1d:71:
         47:45:8f:66:0c:8e:78:22:9c:44:3f:86:6a:03:7e:6c:65:03:
         18:75:42:ec:70:29:98:55:63:3d:1a:11:af:62:41:5f:b0:d5:
         84:f4:70:9c:b2:9b:5a:a2:e5:e0:f7:58:b7:d2:fe:a4:5f:d8:
         56:39:95:7f:33:ef:95:78:79:78:1e:5a:56:bd:d5:63:d4:a2:
         2c:49:0e:70:c1:38:79:a4:99:1b:f1:ca:e5:d2:af:d4:96:59:
         5f:0a:50:3c:ad:36:59:9d:43:95:76:08:77:7f:70:4e:dc:ca:
         55:86:ca:07:92:eb:66:8f:72:01:4d:99:03:17:48:57:c6:aa:
         27:e4:7e:d9:76:b7:32:50:98:77:2c:0b:b7:17:c7:23:37:6a:
         a3:9f:cd:0c:03:bb:5a:98:11:1e:05:49:e1:7a:16:ef:11:ed:
         4b:db:0d:9b
-----BEGIN CERTIFICATE-----
MIIDXDCCAkSgAwIBAgIQLijAm+BUKd1zJFFp3RG0yDANBgkqhkiG9w0BAQsFADAW
MRQwEgYDVQQDDAt0ZWFtNDUxLW5ldDAeFw0yMjA1MTgyMTE1MDJaFw0yNTA1MDIy
MTE1MDJaMBkxFzAVBgNVBAMMDnRlYW00NTEtY2xpZW50MIIBIjANBgkqhkiG9w0B
AQEFAAOCAQ8AMIIBCgKCAQEAxhiL5jClo5UuP4bU8u5PlKcOFqmB09tT83nTnffB
OiSoTDOvXmGrpJJ/nPTpwW8yscweJeQ3hsRMbgSZLDfJx7ofrykApKaf72YKO+d4
1CR+9uxivghgPGzqXhYHjgwC8bnMbuyGshpeVbGgPcDl7yofF9TSGjKMvJEb+ZGr
mzY4p7ucjusqrdk5/YdvaxnuqD7JEvZfU1/E08bWyL0z4Bnf+LRmgfxbiV3OTHUp
zld2MNf8st+eHKu1qX4K5pKhVOmmGszm2HZdZKMzOnSMMo4YHLILOlz5Ayg02+Pd
8S2Or07Wci1ObN86fkyLcJxx9E8P13ODKknQkSNYlwqhCQIDAQABo4GiMIGfMAkG
A1UdEwQCMAAwHQYDVR0OBBYEFKKx6KtMsN7J0qVFCd4jskP1Z8AkMFEGA1UdIwRK
MEiAFCwU4998G680yqLRhu/9xSrcQ5EHoRqkGDAWMRQwEgYDVQQDDAt0ZWFtNDUx
LW5ldIIUKulhwe0WEIRUMeH/Ob1C+qU9rLwwEwYDVR0lBAwwCgYIKwYBBQUHAwIw
CwYDVR0PBAQDAgeAMA0GCSqGSIb3DQEBCwUAA4IBAQA+TLDI60ZqpJY32IYGLYLs
Jz9kw3gxDo9phf+pRS876RMHBESBiBNIvRS6LvqQNesuFFcKt2rr62k9VGvEJs5Z
uJ8N86iyZbbAw5+ff4UwQfGBGHBCx5TgHXFHRY9mDI54IpxEP4ZqA35sZQMYdULs
cCmYVWM9GhGvYkFfsNWE9HCcsptaouXg91i30v6kX9hWOZV/M++VeHl4HlpWvdVj
1KIsSQ5wwTh5pJkb8crl0q/UlllfClA8rTZZnUOVdgh3f3BO3MpVhsoHkutmj3IB
TZkDF0hXxqon5H7ZdrcyUJh3LAu3F8cjN2qjn80MA7tamBEeBUnhehbvEe1L2w2b
-----END CERTIFICATE-----
