Certificate:
    Data:
        Version: 3 (0x2)
        Serial Number:
            35:94:c0:19:1e:ee:f4:13:9d:d7:d3:0d:8b:79:78:34
        Signature Algorithm: sha256WithRSAEncryption
        Issuer: CN=team451-net
        Validity
            Not Before: May 18 21:15:02 2022 GMT
            Not After : May  2 21:15:02 2025 GMT
        Subject: CN=team451-server
        Subject Public Key Info:
            Public Key Algorithm: rsaEncryption
                RSA Public-Key: (2048 bit)
                Modulus:
                    00:d2:7c:37:32:56:cb:5f:fb:4a:f8:9b:db:9f:78:
                    46:68:35:a9:83:39:c8:89:17:53:67:42:04:27:09:
                    3b:e1:62:fe:59:2a:01:c2:c5:a6:55:30:c9:11:c6:
                    4c:72:90:7a:2c:a4:8a:b5:54:e8:e1:d7:a8:e8:1b:
                    13:b6:24:e0:a7:33:48:55:14:e3:53:17:e3:44:3c:
                    fe:43:e1:ec:6f:cd:c5:2b:16:5d:68:60:26:84:1b:
                    7e:b1:c8:0f:3d:b6:35:d6:e4:96:75:29:8a:93:c8:
                    15:72:4c:9f:57:b8:6f:e5:0a:e2:61:25:4b:5b:ab:
                    9f:c2:bf:a5:12:50:8d:91:9c:04:af:66:d1:55:ec:
                    8d:92:57:5b:9a:9f:93:da:ce:b2:5d:0a:b3:7b:71:
                    df:48:59:34:e6:b6:d1:2b:33:5f:84:cd:44:a4:b1:
                    f3:e3:29:37:d5:98:79:c6:d0:00:e3:47:27:c2:64:
                    2e:4a:2d:2c:88:56:b0:c4:48:e4:5a:66:bc:bc:84:
                    75:4c:90:a1:2e:d1:e4:4f:52:f8:35:62:62:94:44:
                    73:5c:0d:99:19:29:30:9d:78:8b:44:d5:de:a4:17:
                    fa:58:b3:ba:99:ef:e1:64:ea:65:9e:fb:e4:26:26:
                    2c:5b:43:0d:50:c7:9a:fb:de:ff:7f:8f:81:6c:54:
                    85:6f
                Exponent: 65537 (0x10001)
        X509v3 extensions:
            X509v3 Basic Constraints: 
                CA:FALSE
            X509v3 Subject Key Identifier: 
                7C:11:22:8D:46:3F:D7:A9:7C:5D:01:B4:E1:43:9D:D9:B9:1E:7A:14
            X509v3 Authority Key Identifier: 
                keyid:2C:14:E3:DF:7C:1B:AF:34:CA:A2:D1:86:EF:FD:C5:2A:DC:43:91:07
                DirName:/CN=team451-net
                serial:2A:E9:61:C1:ED:16:10:84:54:31:E1:FF:39:BD:42:FA:A5:3D:AC:BC

            X509v3 Extended Key Usage: 
                TLS Web Server Authentication
            X509v3 Key Usage: 
                Digital Signature, Key Encipherment
            X509v3 Subject Alternative Name: 
                DNS:team451-server
    Signature Algorithm: sha256WithRSAEncryption
         53:a8:03:b3:34:18:9d:e6:32:6f:0d:40:7e:a5:84:f9:9c:62:
         a4:5f:b8:91:ad:59:50:54:fe:2a:a4:eb:89:10:7c:32:ac:9b:
         1a:b3:54:f2:b0:21:fc:e2:4a:b5:46:2a:88:1b:c4:42:5e:f7:
         e5:13:ae:e4:88:cb:c9:78:f3:d8:6c:c4:44:13:59:71:3a:d4:
         75:90:f8:54:d9:5a:c6:f6:80:69:3f:fc:1f:02:f4:c3:f4:d9:
         d3:88:ea:f1:71:ef:44:44:ea:9c:9d:4f:f2:e6:50:9d:52:c7:
         b5:6c:99:00:bc:ef:06:35:27:9f:1b:b4:db:64:23:0a:6a:91:
         14:a8:ba:a1:8b:0c:1d:83:73:46:fc:ab:79:55:b7:d2:dd:df:
         4e:b4:03:06:60:c2:e8:7e:d5:56:30:0a:ec:ac:fe:eb:de:9e:
         f7:3d:bd:e6:89:c9:78:8c:b8:65:2a:3a:9a:7e:83:42:3b:31:
         6a:a0:f3:eb:77:27:98:de:9c:43:b7:ef:1b:41:8e:ce:85:d0:
         82:eb:90:5f:0a:aa:c8:49:23:28:af:e5:fd:86:37:0e:28:2b:
         67:cf:a9:db:ef:0e:39:3f:29:11:24:f5:1a:2d:a6:d2:78:3c:
         4a:b1:ab:c2:f0:86:a7:30:88:dc:80:66:fd:65:73:6e:69:af:
         f5:c8:8d:85
-----BEGIN CERTIFICATE-----
MIIDdzCCAl+gAwIBAgIQNZTAGR7u9BOd19MNi3l4NDANBgkqhkiG9w0BAQsFADAW
MRQwEgYDVQQDDAt0ZWFtNDUxLW5ldDAeFw0yMjA1MTgyMTE1MDJaFw0yNTA1MDIy
MTE1MDJaMBkxFzAVBgNVBAMMDnRlYW00NTEtc2VydmVyMIIBIjANBgkqhkiG9w0B
AQEFAAOCAQ8AMIIBCgKCAQEA0nw3MlbLX/tK+Jvbn3hGaDWpgznIiRdTZ0IEJwk7
4WL+WSoBwsWmVTDJEcZMcpB6LKSKtVTo4deo6BsTtiTgpzNIVRTjUxfjRDz+Q+Hs
b83FKxZdaGAmhBt+scgPPbY11uSWdSmKk8gVckyfV7hv5QriYSVLW6ufwr+lElCN
kZwEr2bRVeyNkldbmp+T2s6yXQqze3HfSFk05rbRKzNfhM1EpLHz4yk31Zh5xtAA
40cnwmQuSi0siFawxEjkWma8vIR1TJChLtHkT1L4NWJilERzXA2ZGSkwnXiLRNXe
pBf6WLO6me/hZOplnvvkJiYsW0MNUMea+97/f4+BbFSFbwIDAQABo4G9MIG6MAkG
A1UdEwQCMAAwHQYDVR0OBBYEFHwRIo1GP9epfF0BtOFDndm5HnoUMFEGA1UdIwRK
MEiAFCwU4998G680yqLRhu/9xSrcQ5EHoRqkGDAWMRQwEgYDVQQDDAt0ZWFtNDUx
LW5ldIIUKulhwe0WEIRUMeH/Ob1C+qU9rLwwEwYDVR0lBAwwCgYIKwYBBQUHAwEw
CwYDVR0PBAQDAgWgMBkGA1UdEQQSMBCCDnRlYW00NTEtc2VydmVyMA0GCSqGSIb3
DQEBCwUAA4IBAQBTqAOzNBid5jJvDUB+pYT5nGKkX7iRrVlQVP4qpOuJEHwyrJsa
s1TysCH84kq1RiqIG8RCXvflE67kiMvJePPYbMREE1lxOtR1kPhU2VrG9oBpP/wf
AvTD9NnTiOrxce9EROqcnU/y5lCdUse1bJkAvO8GNSefG7TbZCMKapEUqLqhiwwd
g3NG/Kt5VbfS3d9OtAMGYMLoftVWMArsrP7r3p73Pb3micl4jLhlKjqafoNCOzFq
oPPrdyeY3pxDt+8bQY7OhdCC65BfCqrISSMor+X9hjcOKCtnz6nb7w45PykRJPUa
LabSeDxKsavC8IanMIjcgGb9ZXNuaa/1yI2F
-----END CERTIFICATE-----
