Certificate:
    Data:
        Version: 3 (0x2)
        Serial Number:
            84:71:05:92:98:07:d2:cb:e1:a5:4c:a2:38:c1:bd:22
        Signature Algorithm: sha256WithRSAEncryption
        Issuer: CN=team374-net
        Validity
            Not Before: May 18 20:38:49 2022 GMT
            Not After : May  2 20:38:49 2025 GMT
        Subject: CN=team374-client
        Subject Public Key Info:
            Public Key Algorithm: rsaEncryption
                RSA Public-Key: (2048 bit)
                Modulus:
                    00:dc:c2:80:6e:6f:7e:6e:3f:11:c8:c1:73:b4:e5:
                    97:a6:71:06:b4:64:74:e8:ac:41:4d:7a:f3:98:be:
                    31:1b:1a:d6:e8:d5:a4:34:78:90:0d:d5:78:da:d0:
                    f5:ac:4b:2a:db:74:20:d9:e7:e6:51:e5:5e:48:db:
                    64:84:df:77:9b:a9:d1:9b:3e:a4:0b:56:60:00:6a:
                    73:13:61:f3:0a:4c:93:8a:de:1d:3d:a3:07:61:10:
                    c6:5b:61:09:94:8e:8c:fc:62:47:03:39:1b:9a:0a:
                    27:07:e1:ab:10:4c:20:29:b7:4a:cc:59:29:9d:25:
                    b4:0f:f0:1b:f2:5a:b1:88:e9:67:e3:9a:ac:f2:75:
                    1e:8e:66:55:37:7f:25:7c:21:f7:c1:d7:e2:8f:f0:
                    f3:83:06:d4:01:fe:db:24:bf:e7:c6:a3:b4:45:0d:
                    59:34:f2:28:44:36:d5:1b:4f:1d:ad:a4:ec:23:70:
                    7e:87:fd:cb:41:31:76:28:50:ac:d7:b0:63:d4:f5:
                    6c:93:87:6c:81:c1:4c:84:e2:c3:0e:b9:b6:39:61:
                    1a:8c:3a:85:7c:79:62:ed:ec:e9:ed:30:25:3b:db:
                    d3:07:fc:a1:59:4a:a5:76:6c:45:8b:bb:da:f7:32:
                    b5:78:25:86:73:33:4a:d4:ab:11:35:86:b5:64:91:
                    b2:1d
                Exponent: 65537 (0x10001)
        X509v3 extensions:
            X509v3 Basic Constraints: 
                CA:FALSE
            X509v3 Subject Key Identifier: 
                CE:D1:83:BA:87:F7:3E:C8:6D:42:32:18:90:09:0A:55:BB:1C:31:BC
            X509v3 Authority Key Identifier: 
                keyid:5D:49:CD:11:68:8D:DF:E2:93:63:18:79:D0:A6:99:25:6A:35:90:4F
                DirName:/CN=team374-net
                serial:23:7F:9C:98:CD:A7:17:2D:1C:29:BB:F0:B2:8E:4A:2F:7A:86:40:5B

            X509v3 Extended Key Usage: 
                TLS Web Client Authentication
            X509v3 Key Usage: 
                Digital Signature
    Signature Algorithm: sha256WithRSAEncryption
         40:e2:6d:ae:05:ef:01:64:b7:3b:9d:e3:6c:a0:0b:0e:5c:52:
         44:dd:7a:20:c3:66:4c:aa:f9:42:4c:25:5f:bf:f6:e5:6d:ea:
         f6:26:6c:29:2b:10:44:be:4f:ca:6a:b3:90:e2:a2:2f:51:d5:
         63:69:af:51:25:79:c6:d4:d6:b8:60:8b:b0:b1:ad:38:d7:25:
         e1:bb:22:d2:02:a3:f0:c1:3c:8b:52:7a:23:2b:12:b0:43:42:
         8e:39:55:35:f5:0e:8f:b6:11:aa:30:71:ea:9b:3c:d0:4f:6d:
         16:51:8b:29:92:d1:6d:53:18:5d:bd:5d:df:5e:0b:77:13:6d:
         16:de:e7:22:22:c7:9d:3e:1d:f7:ab:58:ae:f0:14:c7:54:e1:
         8d:f9:85:79:b2:91:3e:21:7b:39:84:a2:e0:83:6f:d8:68:c6:
         f5:0f:31:79:5f:5a:a1:12:91:4d:7d:ea:87:52:96:a7:9d:e5:
         43:92:e6:25:e5:dc:9f:0a:08:6b:be:e9:4b:26:57:9f:98:48:
         8d:93:e6:39:6e:ff:a5:e7:d4:69:56:05:8c:2b:0e:c6:f5:52:
         cf:c9:14:d1:50:3b:79:8e:a3:3b:26:eb:3b:9c:4f:eb:a8:84:
         a3:65:97:e9:ee:df:56:1a:ea:98:0b:a8:da:e9:90:ac:d0:77:
         0d:d9:93:66
-----BEGIN CERTIFICATE-----
MIIDXTCCAkWgAwIBAgIRAIRxBZKYB9LL4aVMojjBvSIwDQYJKoZIhvcNAQELBQAw
FjEUMBIGA1UEAwwLdGVhbTM3NC1uZXQwHhcNMjIwNTE4MjAzODQ5WhcNMjUwNTAy
MjAzODQ5WjAZMRcwFQYDVQQDDA50ZWFtMzc0LWNsaWVudDCCASIwDQYJKoZIhvcN
AQEBBQADggEPADCCAQoCggEBANzCgG5vfm4/EcjBc7Tll6ZxBrRkdOisQU1685i+
MRsa1ujVpDR4kA3VeNrQ9axLKtt0INnn5lHlXkjbZITfd5up0Zs+pAtWYABqcxNh
8wpMk4reHT2jB2EQxlthCZSOjPxiRwM5G5oKJwfhqxBMICm3SsxZKZ0ltA/wG/Ja
sYjpZ+OarPJ1Ho5mVTd/JXwh98HX4o/w84MG1AH+2yS/58ajtEUNWTTyKEQ21RtP
Ha2k7CNwfof9y0ExdihQrNewY9T1bJOHbIHBTITiww65tjlhGow6hXx5Yu3s6e0w
JTvb0wf8oVlKpXZsRYu72vcytXglhnMzStSrETWGtWSRsh0CAwEAAaOBojCBnzAJ
BgNVHRMEAjAAMB0GA1UdDgQWBBTO0YO6h/c+yG1CMhiQCQpVuxwxvDBRBgNVHSME
SjBIgBRdSc0RaI3f4pNjGHnQppklajWQT6EapBgwFjEUMBIGA1UEAwwLdGVhbTM3
NC1uZXSCFCN/nJjNpxctHCm78LKOSi96hkBbMBMGA1UdJQQMMAoGCCsGAQUFBwMC
MAsGA1UdDwQEAwIHgDANBgkqhkiG9w0BAQsFAAOCAQEAQOJtrgXvAWS3O53jbKAL
DlxSRN16IMNmTKr5QkwlX7/25W3q9iZsKSsQRL5PymqzkOKiL1HVY2mvUSV5xtTW
uGCLsLGtONcl4bsi0gKj8ME8i1J6IysSsENCjjlVNfUOj7YRqjBx6ps80E9tFlGL
KZLRbVMYXb1d314LdxNtFt7nIiLHnT4d96tYrvAUx1ThjfmFebKRPiF7OYSi4INv
2GjG9Q8xeV9aoRKRTX3qh1KWp53lQ5LmJeXcnwoIa77pSyZXn5hIjZPmOW7/pefU
aVYFjCsOxvVSz8kU0VA7eY6jOybrO5xP66iEo2WX6e7fVhrqmAuo2umQrNB3DdmT
Zg==
-----END CERTIFICATE-----
