Certificate:
    Data:
        Version: 3 (0x2)
        Serial Number:
            3b:c8:20:c8:0a:9b:57:dc:96:02:a8:3b:e9:3c:3a:7b
        Signature Algorithm: sha256WithRSAEncryption
        Issuer: CN=team538-net
        Validity
            Not Before: May 18 22:12:20 2022 GMT
            Not After : May  2 22:12:20 2025 GMT
        Subject: CN=team538-client
        Subject Public Key Info:
            Public Key Algorithm: rsaEncryption
                RSA Public-Key: (2048 bit)
                Modulus:
                    00:b6:9b:53:01:13:30:92:63:e3:83:4e:44:45:a7:
                    d2:7e:74:31:c6:94:b8:2d:61:72:66:73:40:be:79:
                    a6:0e:0b:19:15:22:38:f2:6d:08:9d:84:3a:4c:f3:
                    65:e5:0b:2d:8f:8a:76:86:50:ce:46:fd:85:b8:c8:
                    2f:a4:57:bf:7e:bf:49:16:e7:7b:84:4a:2f:0b:14:
                    01:69:9d:cc:9f:29:6e:9a:0c:23:6e:d4:da:50:45:
                    ae:59:6e:47:7b:d1:af:64:df:28:88:2a:4a:d9:55:
                    33:e7:05:06:85:59:3f:58:f9:b8:d7:f2:33:99:7a:
                    99:54:a3:27:8a:3c:f0:47:a3:22:d1:b7:e4:f9:56:
                    89:30:c9:1a:86:c9:39:e2:14:f1:d3:53:e8:c1:bc:
                    be:61:fc:a8:e0:6b:23:24:2d:29:71:e3:0e:af:97:
                    74:f2:2b:84:82:84:1a:93:27:b9:5d:f4:df:fe:8d:
                    3f:64:7b:7f:b7:c9:24:37:b5:bd:ec:9c:cd:e9:a7:
                    3d:95:ca:57:73:48:c0:3c:ad:2d:7e:f7:b3:25:18:
                    49:4f:c4:bd:9a:e0:6b:1e:8a:69:7c:08:a3:29:14:
                    13:5a:9b:81:7e:95:9f:40:57:48:11:5c:f4:41:f5:
                    4a:ee:9d:d1:fd:87:d0:77:5a:9b:ae:2e:73:80:8a:
                    55:d7
                Exponent: 65537 (0x10001)
        X509v3 extensions:
            X509v3 Basic Constraints: 
                CA:FALSE
            X509v3 Subject Key Identifier: 
                31:E7:04:06:31:0D:60:B7:6D:1E:19:59:5E:D2:5C:67:9D:ED:EA:BB
            X509v3 Authority Key Identifier: 
                keyid:5F:7E:B6:5E:DF:20:8A:A2:21:11:06:CD:C4:00:CD:FF:2C:F1:E5:A7
                DirName:/CN=team538-net
                serial:5B:8B:59:70:96:9D:D4:E7:37:42:46:0B:05:54:7C:9B:DF:4D:A4:87

            X509v3 Extended Key Usage: 
                TLS Web Client Authentication
            X509v3 Key Usage: 
                Digital Signature
    Signature Algorithm: sha256WithRSAEncryption
         6d:c5:b8:af:91:c2:3d:a9:ff:c0:36:bb:c3:9a:04:7f:32:47:
         b6:af:b3:f3:ba:71:63:ef:ea:7d:2b:b0:29:b5:44:f0:51:27:
         35:c8:ce:12:e2:6f:ec:d4:42:0f:d6:e4:77:6d:18:b7:8b:3b:
         6a:c9:6d:59:5e:ed:1c:f6:9b:9e:cc:f4:d4:e3:1e:56:7b:b8:
         21:49:8f:6b:10:1a:c3:93:d4:12:12:c1:0d:9d:ce:f0:aa:2f:
         aa:c7:6f:0a:5c:2b:ec:cd:93:00:ae:1f:04:26:92:48:29:74:
         b9:00:b6:d0:79:82:83:da:bc:91:f3:32:ad:ea:c1:e2:91:42:
         ab:dd:7e:40:6f:30:8b:a2:c6:6a:3a:d9:2b:8b:cc:16:f6:c7:
         5d:74:93:a5:67:6b:b6:39:35:3a:e0:6b:4e:64:e1:92:d6:1e:
         36:84:45:34:9d:11:c2:2b:45:18:dc:1d:08:77:b9:89:bc:d9:
         df:f8:b0:ff:e3:e1:b1:ef:ad:5b:f8:42:9b:ea:3f:e1:ca:a8:
         8b:df:47:d4:c7:65:e7:a8:d5:38:05:b1:25:22:57:15:32:e3:
         99:86:07:77:8c:fb:e0:3e:47:f1:60:c5:ae:d6:01:ab:e8:77:
         bc:26:5c:2d:b2:c0:28:45:14:c9:4a:d1:04:16:97:3a:41:d0:
         45:72:9e:c4
-----BEGIN CERTIFICATE-----
MIIDXDCCAkSgAwIBAgIQO8ggyAqbV9yWAqg76Tw6ezANBgkqhkiG9w0BAQsFADAW
MRQwEgYDVQQDDAt0ZWFtNTM4LW5ldDAeFw0yMjA1MTgyMjEyMjBaFw0yNTA1MDIy
MjEyMjBaMBkxFzAVBgNVBAMMDnRlYW01MzgtY2xpZW50MIIBIjANBgkqhkiG9w0B
AQEFAAOCAQ8AMIIBCgKCAQEAtptTARMwkmPjg05ERafSfnQxxpS4LWFyZnNAvnmm
DgsZFSI48m0InYQ6TPNl5Qstj4p2hlDORv2FuMgvpFe/fr9JFud7hEovCxQBaZ3M
nylumgwjbtTaUEWuWW5He9GvZN8oiCpK2VUz5wUGhVk/WPm41/IzmXqZVKMnijzw
R6Mi0bfk+VaJMMkahsk54hTx01Powby+Yfyo4GsjJC0pceMOr5d08iuEgoQakye5
XfTf/o0/ZHt/t8kkN7W97JzN6ac9lcpXc0jAPK0tfvezJRhJT8S9muBrHoppfAij
KRQTWpuBfpWfQFdIEVz0QfVK7p3R/YfQd1qbri5zgIpV1wIDAQABo4GiMIGfMAkG
A1UdEwQCMAAwHQYDVR0OBBYEFDHnBAYxDWC3bR4ZWV7SXGed7eq7MFEGA1UdIwRK
MEiAFF9+tl7fIIqiIREGzcQAzf8s8eWnoRqkGDAWMRQwEgYDVQQDDAt0ZWFtNTM4
LW5ldIIUW4tZcJad1Oc3QkYLBVR8m99NpIcwEwYDVR0lBAwwCgYIKwYBBQUHAwIw
CwYDVR0PBAQDAgeAMA0GCSqGSIb3DQEBCwUAA4IBAQBtxbivkcI9qf/ANrvDmgR/
Mke2r7PzunFj7+p9K7AptUTwUSc1yM4S4m/s1EIP1uR3bRi3iztqyW1ZXu0c9pue
zPTU4x5We7ghSY9rEBrDk9QSEsENnc7wqi+qx28KXCvszZMArh8EJpJIKXS5ALbQ
eYKD2ryR8zKt6sHikUKr3X5AbzCLosZqOtkri8wW9sdddJOlZ2u2OTU64GtOZOGS
1h42hEU0nRHCK0UY3B0Id7mJvNnf+LD/4+Gx761b+EKb6j/hyqiL30fUx2XnqNU4
BbElIlcVMuOZhgd3jPvgPkfxYMWu1gGr6He8JlwtssAoRRTJStEEFpc6QdBFcp7E
-----END CERTIFICATE-----
