Certificate:
    Data:
        Version: 3 (0x2)
        Serial Number:
            66:10:20:97:8b:c7:85:8e:24:89:fe:e5:c4:67:77:30
        Signature Algorithm: sha256WithRSAEncryption
        Issuer: CN=team626-net
        Validity
            Not Before: May 18 23:04:42 2022 GMT
            Not After : May  2 23:04:42 2025 GMT
        Subject: CN=team626-client
        Subject Public Key Info:
            Public Key Algorithm: rsaEncryption
                RSA Public-Key: (2048 bit)
                Modulus:
                    00:ab:f0:ee:e3:d3:f9:07:79:3b:6c:8b:5f:9f:7d:
                    27:d5:7d:cf:ac:ef:22:77:b2:11:13:4a:48:ac:bb:
                    d2:87:f1:a2:e7:8a:18:22:2c:54:a6:57:36:31:02:
                    08:a8:3f:f1:f8:4e:82:9f:51:4d:19:10:08:0a:ff:
                    17:10:e9:a5:48:2b:3e:fd:ee:11:09:69:f0:87:19:
                    c6:ab:0d:b1:18:50:9c:e7:30:62:1a:cc:64:6e:37:
                    3f:76:cd:0f:9a:be:b1:da:75:cb:c1:18:e6:fc:7e:
                    5b:48:fd:48:c5:ed:5b:30:8b:6e:69:6c:8e:eb:90:
                    49:07:98:b1:b2:49:5e:b9:1f:85:b9:ec:80:36:60:
                    fa:56:d3:c2:28:bc:e1:ad:89:51:e5:3d:1f:02:2c:
                    65:b9:f4:aa:b6:54:4f:d8:58:30:23:14:7f:10:f1:
                    a3:a6:82:fa:a4:ad:d2:72:74:d9:38:a2:8c:5a:f9:
                    fa:ec:6b:f8:ca:2e:bb:3f:51:20:70:dc:f9:53:2b:
                    1d:a2:c0:fa:6e:03:6c:76:b6:c0:87:f0:c2:aa:a5:
                    b0:c3:8f:fd:a2:d4:43:c7:64:0f:c9:d5:f2:07:c1:
                    a9:8f:cb:bc:d4:06:64:ad:bb:91:ef:65:b3:a4:4f:
                    c9:9b:c6:74:3e:05:86:ee:52:43:3e:91:d3:4b:5c:
                    68:d1
                Exponent: 65537 (0x10001)
        X509v3 extensions:
            X509v3 Basic Constraints: 
                CA:FALSE
            X509v3 Subject Key Identifier: 
                2A:39:BD:32:0D:9A:7F:65:79:78:F1:D8:E3:CA:35:BF:AE:25:3E:D7
            X509v3 Authority Key Identifier: 
                keyid:74:48:BE:62:3A:2A:57:39:24:59:D5:92:9D:B2:1A:6C:68:94:DC:DD
                DirName:/CN=team626-net
                serial:46:06:4E:B5:3C:41:5C:0C:53:BD:9E:C6:DD:42:92:10:4E:0E:4E:2C

            X509v3 Extended Key Usage: 
                TLS Web Client Authentication
            X509v3 Key Usage: 
                Digital Signature
    Signature Algorithm: sha256WithRSAEncryption
         cb:44:c5:cc:f4:11:d7:48:cf:e4:1f:1d:5a:df:79:80:2c:21:
         04:c4:61:49:4b:0e:68:5e:4b:79:af:d5:34:74:04:25:29:8b:
         4a:ce:6e:8e:0c:ab:ce:fd:78:f3:51:c7:fb:d0:15:e7:19:bf:
         1c:6f:d7:44:27:ef:a9:64:e6:7e:1d:aa:03:18:b4:3f:25:77:
         82:c5:68:a5:07:67:01:bb:10:c9:a3:d0:b6:38:2d:50:77:ea:
         8e:cf:06:22:dd:fa:64:c4:b1:e7:b0:e1:11:da:72:bf:85:8b:
         97:f1:ca:0d:29:80:30:70:96:a4:2d:17:02:df:77:8f:3a:9f:
         e1:f8:81:1b:5c:65:a1:df:88:50:b9:f8:49:06:bb:94:8f:76:
         93:b5:72:5b:35:3b:13:09:0d:a2:16:b1:9d:69:85:fc:4e:1a:
         6c:fc:27:af:a5:27:dd:98:83:71:9a:e4:ef:07:8e:e3:f3:9b:
         3b:79:cd:e1:ec:1e:d5:e2:c2:bc:28:52:cc:cc:d6:65:b1:de:
         06:9a:58:35:64:1c:ab:6c:53:d5:5d:8c:dd:42:42:59:ee:52:
         14:40:8b:52:4d:58:5b:74:b3:ae:ed:b3:78:1e:21:6a:aa:de:
         a3:f6:ba:2c:eb:4a:7a:08:82:04:87:3e:e1:67:b8:6c:4f:84:
         f4:1b:62:93
-----BEGIN CERTIFICATE-----
MIIDXDCCAkSgAwIBAgIQZhAgl4vHhY4kif7lxGd3MDANBgkqhkiG9w0BAQsFADAW
MRQwEgYDVQQDDAt0ZWFtNjI2LW5ldDAeFw0yMjA1MTgyMzA0NDJaFw0yNTA1MDIy
MzA0NDJaMBkxFzAVBgNVBAMMDnRlYW02MjYtY2xpZW50MIIBIjANBgkqhkiG9w0B
AQEFAAOCAQ8AMIIBCgKCAQEAq/Du49P5B3k7bItfn30n1X3PrO8id7IRE0pIrLvS
h/Gi54oYIixUplc2MQIIqD/x+E6Cn1FNGRAICv8XEOmlSCs+/e4RCWnwhxnGqw2x
GFCc5zBiGsxkbjc/ds0Pmr6x2nXLwRjm/H5bSP1Ixe1bMItuaWyO65BJB5ixskle
uR+FueyANmD6VtPCKLzhrYlR5T0fAixlufSqtlRP2FgwIxR/EPGjpoL6pK3ScnTZ
OKKMWvn67Gv4yi67P1EgcNz5UysdosD6bgNsdrbAh/DCqqWww4/9otRDx2QPydXy
B8Gpj8u81AZkrbuR72WzpE/Jm8Z0PgWG7lJDPpHTS1xo0QIDAQABo4GiMIGfMAkG
A1UdEwQCMAAwHQYDVR0OBBYEFCo5vTINmn9leXjx2OPKNb+uJT7XMFEGA1UdIwRK
MEiAFHRIvmI6Klc5JFnVkp2yGmxolNzdoRqkGDAWMRQwEgYDVQQDDAt0ZWFtNjI2
LW5ldIIURgZOtTxBXAxTvZ7G3UKSEE4OTiwwEwYDVR0lBAwwCgYIKwYBBQUHAwIw
CwYDVR0PBAQDAgeAMA0GCSqGSIb3DQEBCwUAA4IBAQDLRMXM9BHXSM/kHx1a33mA
LCEExGFJSw5oXkt5r9U0dAQlKYtKzm6ODKvO/XjzUcf70BXnGb8cb9dEJ++pZOZ+
HaoDGLQ/JXeCxWilB2cBuxDJo9C2OC1Qd+qOzwYi3fpkxLHnsOER2nK/hYuX8coN
KYAwcJakLRcC33ePOp/h+IEbXGWh34hQufhJBruUj3aTtXJbNTsTCQ2iFrGdaYX8
Thps/CevpSfdmINxmuTvB47j85s7ec3h7B7V4sK8KFLMzNZlsd4Gmlg1ZByrbFPV
XYzdQkJZ7lIUQItSTVhbdLOu7bN4HiFqqt6j9ros60p6CIIEhz7hZ7hsT4T0G2KT
-----END CERTIFICATE-----
