Certificate:
    Data:
        Version: 3 (0x2)
        Serial Number:
            12:54:10:7b:d7:f6:4c:db:01:c1:e5:c3:d3:4a:80:69
        Signature Algorithm: sha256WithRSAEncryption
        Issuer: CN=team672-net
        Validity
            Not Before: May 18 23:32:37 2022 GMT
            Not After : May  2 23:32:37 2025 GMT
        Subject: CN=team672-client
        Subject Public Key Info:
            Public Key Algorithm: rsaEncryption
                RSA Public-Key: (2048 bit)
                Modulus:
                    00:b7:4a:10:77:5a:16:8f:b1:59:4d:51:22:d3:d0:
                    b0:52:f3:b8:2e:91:e7:f5:c5:88:26:62:73:3d:87:
                    9b:f4:de:f5:77:10:ef:5d:f8:dd:c7:83:8b:be:fd:
                    ec:9a:c7:6b:d5:6d:a8:a3:ab:62:40:aa:0e:50:fb:
                    05:37:a2:70:11:59:4e:64:a7:20:1a:23:f5:39:fa:
                    d2:12:be:bd:14:65:92:3e:fa:6a:a7:79:67:26:f9:
                    94:37:d7:7a:a3:e8:53:24:23:35:6e:84:72:e5:64:
                    89:50:27:a4:a2:d7:ac:bc:e3:26:7d:27:15:82:b9:
                    78:29:9a:3a:14:f7:a7:99:e9:28:df:27:cf:dd:99:
                    42:e6:d9:a1:3c:78:6e:f8:39:94:a1:0f:2a:3b:4f:
                    26:d0:60:38:17:b3:24:d6:f6:54:53:7a:eb:f8:16:
                    9b:8d:93:47:f7:b9:f8:c2:a8:99:23:40:79:83:6e:
                    74:cd:69:ab:eb:14:fd:67:87:5d:d7:c3:8a:b1:04:
                    01:5c:5a:bd:fd:a4:81:80:0b:c9:8e:d6:bd:70:e5:
                    ce:5d:94:03:a2:a5:6d:fe:08:9f:8e:cd:d2:57:64:
                    91:86:8b:c4:71:64:11:3a:73:71:5f:07:ce:30:9b:
                    54:be:42:5e:56:07:69:87:e2:e1:2e:52:5e:d5:8b:
                    bb:ed
                Exponent: 65537 (0x10001)
        X509v3 extensions:
            X509v3 Basic Constraints: 
                CA:FALSE
            X509v3 Subject Key Identifier: 
                6E:F1:50:02:E7:69:49:61:21:EB:EF:C8:12:99:81:C3:29:85:B4:5F
            X509v3 Authority Key Identifier: 
                keyid:20:7E:66:21:CB:69:E3:60:27:32:6F:E0:26:BF:57:7D:41:2C:CC:AC
                DirName:/CN=team672-net
                serial:0D:DD:54:13:C6:B0:0C:30:F7:5A:52:08:4D:F3:93:BA:4E:F7:85:E8

            X509v3 Extended Key Usage: 
                TLS Web Client Authentication
            X509v3 Key Usage: 
                Digital Signature
    Signature Algorithm: sha256WithRSAEncryption
         90:ef:76:3c:8f:73:bc:50:87:f6:e8:de:98:b7:5d:75:d0:56:
         97:ab:f8:44:fd:c3:ff:c0:a8:24:5a:ce:48:23:19:20:70:23:
         00:bf:e4:c4:bf:c4:8a:da:2e:5c:d3:bb:9f:69:69:e9:fa:f5:
         b1:f1:3b:c5:60:46:17:d5:6a:70:0a:bd:ed:47:09:6a:4d:34:
         16:05:f7:3e:50:9c:22:f7:60:68:f6:34:dc:36:c2:59:18:9c:
         69:5b:16:8c:4d:13:f8:87:8a:5f:26:9e:8c:36:6b:be:81:64:
         ee:d9:b8:a3:72:8b:6c:dd:6e:0a:5a:78:a5:35:b2:fb:17:bc:
         54:bd:76:16:d2:66:92:9e:93:72:c8:34:73:80:4e:77:e8:ed:
         77:7e:bf:6e:ac:01:7d:88:94:b5:0d:b5:7f:4e:d2:24:9f:06:
         fe:9b:48:2c:06:c2:30:a7:21:e9:d2:dc:16:7d:29:54:4b:f6:
         10:0d:e8:d5:ea:ff:89:ee:a5:cd:e0:c1:f5:92:62:0d:87:0d:
         af:06:64:8d:a8:3d:b4:c1:b2:b1:8e:68:f4:5c:c0:34:9f:e8:
         38:c2:2b:da:79:f2:00:ac:69:2b:c3:90:5c:dc:5c:7c:b2:f1:
         70:73:20:84:0f:38:96:ff:3e:05:16:4c:38:7a:de:71:33:0c:
         b2:b2:a1:ab
-----BEGIN CERTIFICATE-----
MIIDXDCCAkSgAwIBAgIQElQQe9f2TNsBweXD00qAaTANBgkqhkiG9w0BAQsFADAW
MRQwEgYDVQQDDAt0ZWFtNjcyLW5ldDAeFw0yMjA1MTgyMzMyMzdaFw0yNTA1MDIy
MzMyMzdaMBkxFzAVBgNVBAMMDnRlYW02NzItY2xpZW50MIIBIjANBgkqhkiG9w0B
AQEFAAOCAQ8AMIIBCgKCAQEAt0oQd1oWj7FZTVEi09CwUvO4LpHn9cWIJmJzPYeb
9N71dxDvXfjdx4OLvv3smsdr1W2oo6tiQKoOUPsFN6JwEVlOZKcgGiP1OfrSEr69
FGWSPvpqp3lnJvmUN9d6o+hTJCM1boRy5WSJUCekotesvOMmfScVgrl4KZo6FPen
meko3yfP3ZlC5tmhPHhu+DmUoQ8qO08m0GA4F7Mk1vZUU3rr+BabjZNH97n4wqiZ
I0B5g250zWmr6xT9Z4dd18OKsQQBXFq9/aSBgAvJjta9cOXOXZQDoqVt/gifjs3S
V2SRhovEcWQROnNxXwfOMJtUvkJeVgdph+LhLlJe1Yu77QIDAQABo4GiMIGfMAkG
A1UdEwQCMAAwHQYDVR0OBBYEFG7xUALnaUlhIevvyBKZgcMphbRfMFEGA1UdIwRK
MEiAFCB+ZiHLaeNgJzJv4Ca/V31BLMysoRqkGDAWMRQwEgYDVQQDDAt0ZWFtNjcy
LW5ldIIUDd1UE8awDDD3WlIITfOTuk73hegwEwYDVR0lBAwwCgYIKwYBBQUHAwIw
CwYDVR0PBAQDAgeAMA0GCSqGSIb3DQEBCwUAA4IBAQCQ73Y8j3O8UIf26N6Yt111
0FaXq/hE/cP/wKgkWs5IIxkgcCMAv+TEv8SK2i5c07ufaWnp+vWx8TvFYEYX1Wpw
Cr3tRwlqTTQWBfc+UJwi92Bo9jTcNsJZGJxpWxaMTRP4h4pfJp6MNmu+gWTu2bij
cots3W4KWnilNbL7F7xUvXYW0maSnpNyyDRzgE536O13fr9urAF9iJS1DbV/TtIk
nwb+m0gsBsIwpyHp0twWfSlUS/YQDejV6v+J7qXN4MH1kmINhw2vBmSNqD20wbKx
jmj0XMA0n+g4wivaefIArGkrw5Bc3Fx8svFwcyCEDziW/z4FFkw4et5xMwyysqGr
-----END CERTIFICATE-----
