Certificate:
    Data:
        Version: 3 (0x2)
        Serial Number:
            f5:c9:a5:f3:f3:84:2c:87:05:84:dc:eb:7e:3c:af:7a
        Signature Algorithm: sha256WithRSAEncryption
        Issuer: CN=team201-net
        Validity
            Not Before: May 18 19:11:25 2022 GMT
            Not After : May  2 19:11:25 2025 GMT
        Subject: CN=team201-client
        Subject Public Key Info:
            Public Key Algorithm: rsaEncryption
                RSA Public-Key: (2048 bit)
                Modulus:
                    00:a5:e4:23:47:a8:28:ef:fd:cb:9a:f6:af:45:85:
                    87:a3:ac:6e:b4:74:95:a9:71:c1:da:c6:16:82:7c:
                    48:e5:21:c5:4e:dc:1b:a8:bb:f9:fd:d2:5c:60:2d:
                    b9:72:f1:a6:7f:1a:ad:62:96:71:91:81:43:40:9a:
                    f2:b7:bf:89:43:c3:5c:69:1e:38:50:55:c5:6c:91:
                    da:b2:8a:c8:91:bc:2a:f6:a2:97:5c:e2:b9:13:73:
                    99:d3:83:c4:ae:39:55:5c:37:e5:7c:62:0b:d8:da:
                    00:f3:6d:2e:8a:3b:3f:2b:38:1f:4b:b4:4c:6b:fa:
                    6b:6b:fd:a1:a7:65:fa:b9:cc:92:bb:74:df:dd:1e:
                    0b:62:20:25:1e:c2:73:79:01:22:71:f5:c7:f9:83:
                    1c:35:69:71:0a:eb:40:8f:2a:42:c5:a0:b6:23:d0:
                    c4:48:22:fc:ca:2f:f3:ba:db:2f:c1:ed:a8:f0:bd:
                    bb:51:f5:60:1d:b7:ae:a2:3e:3f:11:c5:f9:e2:27:
                    8f:c0:92:1c:ff:7e:89:2d:93:65:61:0f:54:be:67:
                    0c:bd:ce:55:67:44:38:fa:b7:4c:4b:01:10:ba:9a:
                    06:40:73:bd:97:cf:6f:e7:05:d4:2d:37:44:54:d6:
                    26:ac:da:cb:da:9f:bd:c7:86:b4:46:15:4c:40:46:
                    cb:33
                Exponent: 65537 (0x10001)
        X509v3 extensions:
            X509v3 Basic Constraints: 
                CA:FALSE
            X509v3 Subject Key Identifier: 
                99:D7:A5:84:5A:EA:BC:BB:E6:47:69:C7:06:0F:A5:AD:24:DB:11:D9
            X509v3 Authority Key Identifier: 
                keyid:DD:0C:31:9D:D8:4F:9D:90:0F:36:8A:75:B4:49:34:79:30:1B:4C:DD
                DirName:/CN=team201-net
                serial:65:F2:C2:D7:0E:33:78:68:B0:2A:F3:14:E2:72:61:97:33:CD:37:74

            X509v3 Extended Key Usage: 
                TLS Web Client Authentication
            X509v3 Key Usage: 
                Digital Signature
    Signature Algorithm: sha256WithRSAEncryption
         6a:b4:c5:3f:7e:22:75:ad:48:25:7b:7a:28:24:50:aa:17:7e:
         90:cf:af:37:2a:32:3f:31:95:75:e1:48:d5:5f:05:c3:8e:f0:
         79:8e:e2:56:1a:28:98:5c:af:d4:9a:3e:02:8a:fb:27:34:9a:
         c4:15:13:6b:86:50:3c:41:62:e7:01:d7:77:2a:50:c1:66:6a:
         3f:c0:5e:b7:53:65:88:3d:f9:28:72:46:3f:de:d0:c5:72:ba:
         7e:dc:19:15:df:55:7e:fe:46:56:4f:52:ed:21:12:7a:e9:ad:
         2e:bf:91:10:be:fe:a4:d0:8c:f1:63:82:c6:1b:7c:81:11:6e:
         db:1c:0c:64:27:ff:a8:5d:74:cb:84:12:29:c0:97:35:eb:97:
         cd:34:92:0d:ca:ef:81:49:29:22:19:5c:27:0b:69:0c:4e:d6:
         ba:be:43:a6:77:0f:d3:cd:4d:ab:2a:e0:02:d0:05:8e:09:78:
         ce:c9:88:79:7a:80:73:2f:4f:bc:1c:ba:57:5e:98:51:a8:e0:
         bb:7a:f6:75:ac:89:24:81:c7:9e:90:07:80:59:17:e4:ca:10:
         c1:25:7c:2f:ca:7d:e2:de:a2:8d:25:08:f6:c8:ec:db:8f:ce:
         2e:3a:26:18:9c:b1:af:55:36:90:3b:8d:10:11:91:2f:e1:22:
         fc:68:ce:04
-----BEGIN CERTIFICATE-----
MIIDXTCCAkWgAwIBAgIRAPXJpfPzhCyHBYTc6348r3owDQYJKoZIhvcNAQELBQAw
FjEUMBIGA1UEAwwLdGVhbTIwMS1uZXQwHhcNMjIwNTE4MTkxMTI1WhcNMjUwNTAy
MTkxMTI1WjAZMRcwFQYDVQQDDA50ZWFtMjAxLWNsaWVudDCCASIwDQYJKoZIhvcN
AQEBBQADggEPADCCAQoCggEBAKXkI0eoKO/9y5r2r0WFh6OsbrR0lalxwdrGFoJ8
SOUhxU7cG6i7+f3SXGAtuXLxpn8arWKWcZGBQ0Ca8re/iUPDXGkeOFBVxWyR2rKK
yJG8Kvail1ziuRNzmdODxK45VVw35XxiC9jaAPNtLoo7Pys4H0u0TGv6a2v9oadl
+rnMkrt0390eC2IgJR7Cc3kBInH1x/mDHDVpcQrrQI8qQsWgtiPQxEgi/Mov87rb
L8HtqPC9u1H1YB23rqI+PxHF+eInj8CSHP9+iS2TZWEPVL5nDL3OVWdEOPq3TEsB
ELqaBkBzvZfPb+cF1C03RFTWJqzay9qfvceGtEYVTEBGyzMCAwEAAaOBojCBnzAJ
BgNVHRMEAjAAMB0GA1UdDgQWBBSZ16WEWuq8u+ZHaccGD6WtJNsR2TBRBgNVHSME
SjBIgBTdDDGd2E+dkA82inW0STR5MBtM3aEapBgwFjEUMBIGA1UEAwwLdGVhbTIw
MS1uZXSCFGXywtcOM3hosCrzFOJyYZczzTd0MBMGA1UdJQQMMAoGCCsGAQUFBwMC
MAsGA1UdDwQEAwIHgDANBgkqhkiG9w0BAQsFAAOCAQEAarTFP34ida1IJXt6KCRQ
qhd+kM+vNyoyPzGVdeFI1V8Fw47weY7iVhoomFyv1Jo+Aor7JzSaxBUTa4ZQPEFi
5wHXdypQwWZqP8Bet1NliD35KHJGP97QxXK6ftwZFd9Vfv5GVk9S7SESeumtLr+R
EL7+pNCM8WOCxht8gRFu2xwMZCf/qF10y4QSKcCXNeuXzTSSDcrvgUkpIhlcJwtp
DE7Wur5DpncP081NqyrgAtAFjgl4zsmIeXqAcy9PvBy6V16YUajgu3r2dayJJIHH
npAHgFkX5MoQwSV8L8p94t6ijSUI9sjs24/OLjomGJyxr1U2kDuNEBGRL+Ei/GjO
BA==
-----END CERTIFICATE-----
