Certificate:
    Data:
        Version: 3 (0x2)
        Serial Number:
            29:40:bf:dc:dc:55:11:cb:cd:d6:2c:a0:14:4d:02:11
        Signature Algorithm: sha256WithRSAEncryption
        Issuer: CN=team496-net
        Validity
            Not Before: May 18 21:49:21 2022 GMT
            Not After : May  2 21:49:21 2025 GMT
        Subject: CN=team496-server
        Subject Public Key Info:
            Public Key Algorithm: rsaEncryption
                RSA Public-Key: (2048 bit)
                Modulus:
                    00:d5:bf:e4:08:e9:e8:53:e0:55:63:29:ea:d0:57:
                    2c:1a:6a:71:f8:ce:f6:53:cc:45:2a:c6:fe:3c:28:
                    20:5c:7e:8a:34:e8:9a:f1:76:8f:c7:b5:11:81:ad:
                    dc:05:5f:78:ec:63:a9:6b:f3:d0:d2:22:25:47:79:
                    57:80:31:ee:40:c4:de:a6:9f:8c:5e:61:b7:17:e6:
                    4f:c8:f8:32:4d:72:b1:4d:f2:d6:4c:67:ff:0a:e3:
                    ad:85:06:8e:06:cc:c4:02:a9:23:01:e1:11:5d:40:
                    1e:9c:d9:f9:a0:33:9f:ba:ee:ba:e3:ab:5e:b2:ed:
                    14:53:39:9d:51:0a:82:6a:73:0c:f0:03:91:86:43:
                    71:9f:77:89:67:3f:ff:b1:c8:ab:ac:68:9e:6d:e8:
                    80:60:2a:77:68:ce:48:69:13:59:c5:d8:67:1a:ce:
                    f9:c3:d8:28:bc:6d:f3:7a:c7:85:e6:da:14:28:b8:
                    d6:f0:88:d6:dd:0f:fa:c6:9e:24:6a:06:cb:23:3e:
                    b3:f6:fd:fa:0a:a9:d1:10:81:d0:ca:42:05:e7:47:
                    2e:91:41:31:8f:4b:88:01:0b:ee:89:0f:d2:d4:5a:
                    a1:1e:49:57:56:fd:92:9c:07:25:b0:27:e9:8a:8c:
                    3b:96:fd:3e:82:e8:49:21:85:41:0a:60:c1:77:ad:
                    29:03
                Exponent: 65537 (0x10001)
        X509v3 extensions:
            X509v3 Basic Constraints: 
                CA:FALSE
            X509v3 Subject Key Identifier: 
                1E:08:9E:9E:50:59:E8:06:1E:B7:65:97:CB:5D:E1:16:BA:40:65:37
            X509v3 Authority Key Identifier: 
                keyid:43:C4:3E:F0:41:C6:DF:17:19:12:6B:E9:72:E8:11:31:E6:F6:4F:CF
                DirName:/CN=team496-net
                serial:32:8E:9C:0E:1F:A8:59:78:6E:FD:91:82:C6:3E:FB:08:51:26:A2:14

            X509v3 Extended Key Usage: 
                TLS Web Server Authentication
            X509v3 Key Usage: 
                Digital Signature, Key Encipherment
            X509v3 Subject Alternative Name: 
                DNS:team496-server
    Signature Algorithm: sha256WithRSAEncryption
         87:05:d3:3f:66:2a:82:68:b6:5a:22:55:76:c1:ab:f9:8e:0f:
         4b:76:81:5a:e5:d7:b1:d5:c3:0a:ac:14:19:e7:13:7c:97:35:
         f4:20:07:ed:f5:ad:69:f5:ab:a3:19:ab:bd:ff:00:63:f5:75:
         e3:7b:bc:58:23:d6:f3:0a:87:a9:2a:84:5f:c6:0b:a7:64:b5:
         65:e9:ca:d5:51:dc:cb:d9:d8:9e:96:c2:aa:0b:be:2b:fb:9c:
         77:ae:29:35:78:cc:91:eb:24:e9:c2:99:0b:0c:d8:ed:e2:ce:
         76:d0:96:3c:f6:2b:0d:34:6a:af:0a:9d:65:12:89:c7:6a:84:
         8b:7b:77:13:7f:90:7d:9e:d7:b5:b1:e8:21:fb:9f:88:0d:23:
         2a:bc:b0:dd:cf:5e:53:9f:e8:1b:e6:ff:eb:08:e1:0b:75:a2:
         25:71:2b:c6:50:36:51:20:03:e7:3a:07:08:06:12:2a:27:83:
         1d:0f:50:78:52:07:5e:5e:f4:a3:01:bf:27:07:55:0b:70:3b:
         16:0b:c8:50:3e:08:62:04:6c:3b:8d:b4:37:86:b3:41:9f:30:
         56:6f:5a:63:27:6a:63:81:23:45:4a:e0:7f:2d:c0:b8:b8:8b:
         24:0f:a4:aa:86:2f:c1:f5:e8:41:e5:87:1f:dd:44:4a:5e:71:
         43:44:65:ca
-----BEGIN CERTIFICATE-----
MIIDdzCCAl+gAwIBAgIQKUC/3NxVEcvN1iygFE0CETANBgkqhkiG9w0BAQsFADAW
MRQwEgYDVQQDDAt0ZWFtNDk2LW5ldDAeFw0yMjA1MTgyMTQ5MjFaFw0yNTA1MDIy
MTQ5MjFaMBkxFzAVBgNVBAMMDnRlYW00OTYtc2VydmVyMIIBIjANBgkqhkiG9w0B
AQEFAAOCAQ8AMIIBCgKCAQEA1b/kCOnoU+BVYynq0FcsGmpx+M72U8xFKsb+PCgg
XH6KNOia8XaPx7URga3cBV947GOpa/PQ0iIlR3lXgDHuQMTepp+MXmG3F+ZPyPgy
TXKxTfLWTGf/CuOthQaOBszEAqkjAeERXUAenNn5oDOfuu6646tesu0UUzmdUQqC
anMM8AORhkNxn3eJZz//scirrGiebeiAYCp3aM5IaRNZxdhnGs75w9govG3zeseF
5toUKLjW8IjW3Q/6xp4kagbLIz6z9v36CqnREIHQykIF50cukUExj0uIAQvuiQ/S
1FqhHklXVv2SnAclsCfpiow7lv0+guhJIYVBCmDBd60pAwIDAQABo4G9MIG6MAkG
A1UdEwQCMAAwHQYDVR0OBBYEFB4Inp5QWegGHrdll8td4Ra6QGU3MFEGA1UdIwRK
MEiAFEPEPvBBxt8XGRJr6XLoETHm9k/PoRqkGDAWMRQwEgYDVQQDDAt0ZWFtNDk2
LW5ldIIUMo6cDh+oWXhu/ZGCxj77CFEmohQwEwYDVR0lBAwwCgYIKwYBBQUHAwEw
CwYDVR0PBAQDAgWgMBkGA1UdEQQSMBCCDnRlYW00OTYtc2VydmVyMA0GCSqGSIb3
DQEBCwUAA4IBAQCHBdM/ZiqCaLZaIlV2wav5jg9LdoFa5dex1cMKrBQZ5xN8lzX0
IAft9a1p9aujGau9/wBj9XXje7xYI9bzCoepKoRfxgunZLVl6crVUdzL2dielsKq
C74r+5x3rik1eMyR6yTpwpkLDNjt4s520JY89isNNGqvCp1lEonHaoSLe3cTf5B9
nte1segh+5+IDSMqvLDdz15Tn+gb5v/rCOELdaIlcSvGUDZRIAPnOgcIBhIqJ4Md
D1B4UgdeXvSjAb8nB1ULcDsWC8hQPghiBGw7jbQ3hrNBnzBWb1pjJ2pjgSNFSuB/
LcC4uIskD6Sqhi/B9ehB5Ycf3URKXnFDRGXK
-----END CERTIFICATE-----
