Certificate:
    Data:
        Version: 3 (0x2)
        Serial Number:
            9c:61:d1:03:19:fb:07:a5:6a:f1:7e:d7:a9:bf:d0:0a
        Signature Algorithm: sha256WithRSAEncryption
        Issuer: CN=team244-net
        Validity
            Not Before: May 18 19:36:34 2022 GMT
            Not After : May  2 19:36:34 2025 GMT
        Subject: CN=team244-client
        Subject Public Key Info:
            Public Key Algorithm: rsaEncryption
                RSA Public-Key: (2048 bit)
                Modulus:
                    00:da:12:f2:ea:03:d3:f5:77:26:3d:25:1d:05:b1:
                    dd:6c:28:95:71:55:65:64:9c:c0:6e:60:73:84:39:
                    74:27:5d:e2:60:a1:af:60:66:c0:84:12:81:1e:48:
                    ee:a1:99:b3:66:eb:04:ad:40:33:05:8b:99:f8:52:
                    9f:2d:b3:65:fb:51:43:6e:fd:2a:63:77:62:53:79:
                    d0:81:c7:85:8a:1c:19:4e:b3:5e:d7:6f:d0:7e:c0:
                    64:b0:07:12:8a:fc:e4:cb:62:f5:4f:e9:c7:1d:7c:
                    a3:01:39:37:d2:b3:ca:e6:d7:64:cc:c9:39:ad:d3:
                    41:46:4e:40:ea:b6:9c:12:32:53:56:3a:12:c4:fe:
                    23:4a:d4:ac:de:9a:51:3e:11:c8:3e:7b:9c:8c:e5:
                    6d:ce:d7:d8:36:f6:60:84:7e:83:22:f7:8e:08:60:
                    5c:64:42:c2:57:69:0b:6f:99:5f:74:f3:d2:28:7b:
                    b9:e8:d7:4d:e6:72:cd:6b:86:b3:86:82:3b:ea:5f:
                    ff:ea:5d:13:a6:a3:87:60:42:68:6f:cf:0b:f7:09:
                    b8:5f:45:df:30:d2:77:17:72:43:0b:84:2a:97:b7:
                    a8:94:4c:59:05:72:71:1b:04:4e:de:23:69:83:ca:
                    04:c3:11:b5:95:6b:0a:cc:19:09:b4:58:a9:94:a1:
                    46:39
                Exponent: 65537 (0x10001)
        X509v3 extensions:
            X509v3 Basic Constraints: 
                CA:FALSE
            X509v3 Subject Key Identifier: 
                91:AA:7E:84:3A:4D:00:51:A9:52:24:2B:A1:C0:87:8D:F7:F0:87:49
            X509v3 Authority Key Identifier: 
                keyid:93:6F:E9:6B:73:4B:68:11:27:4E:4E:B3:80:60:0B:E4:CC:22:CD:19
                DirName:/CN=team244-net
                serial:09:88:0C:02:54:54:CB:1A:D4:90:9C:D6:53:F0:53:19:21:DB:7B:AD

            X509v3 Extended Key Usage: 
                TLS Web Client Authentication
            X509v3 Key Usage: 
                Digital Signature
    Signature Algorithm: sha256WithRSAEncryption
         09:ea:e3:e3:a9:35:48:54:b9:b7:26:91:ee:9e:e8:44:5d:9e:
         e2:37:df:99:e4:72:ca:64:26:b5:9c:6c:3c:0e:f6:ce:80:63:
         02:5e:0c:8f:8a:85:6d:f8:f9:01:9d:89:9a:5d:a1:cc:58:e5:
         4e:ba:20:a1:92:42:af:13:83:33:38:e5:04:42:fc:27:f9:f1:
         a3:91:1b:f3:7e:58:c9:dd:e2:ea:12:32:62:60:b0:8a:f7:56:
         29:51:85:75:e8:f5:29:62:e1:fe:5a:b7:cd:b3:d4:e1:8c:da:
         23:45:83:3c:4e:3d:ea:23:94:1a:22:97:ed:6c:f6:d8:8c:e4:
         44:af:1c:e5:e9:fd:31:58:12:1b:8c:c1:5a:24:9a:4b:81:ad:
         56:f3:dd:14:06:c8:b7:8f:fe:6e:2e:1c:3e:d6:d1:86:51:de:
         c7:c9:a4:f3:ac:11:44:fa:11:67:83:29:e3:95:f4:3b:f1:ad:
         5b:09:64:42:9b:40:6f:2f:ae:18:02:88:86:30:ee:bb:7b:f5:
         2e:66:d1:2e:a5:be:a9:ac:f1:fe:1f:b2:54:39:7e:1b:a4:c6:
         46:cf:88:40:82:21:cd:30:a1:35:47:ba:64:6a:a6:4c:7a:71:
         f9:94:40:a6:3e:e6:3b:9d:fb:f5:b4:1c:e8:d1:14:2a:05:d7:
         9e:7c:a8:81
-----BEGIN CERTIFICATE-----
MIIDXTCCAkWgAwIBAgIRAJxh0QMZ+welavF+16m/0AowDQYJKoZIhvcNAQELBQAw
FjEUMBIGA1UEAwwLdGVhbTI0NC1uZXQwHhcNMjIwNTE4MTkzNjM0WhcNMjUwNTAy
MTkzNjM0WjAZMRcwFQYDVQQDDA50ZWFtMjQ0LWNsaWVudDCCASIwDQYJKoZIhvcN
AQEBBQADggEPADCCAQoCggEBANoS8uoD0/V3Jj0lHQWx3WwolXFVZWScwG5gc4Q5
dCdd4mChr2BmwIQSgR5I7qGZs2brBK1AMwWLmfhSny2zZftRQ279KmN3YlN50IHH
hYocGU6zXtdv0H7AZLAHEor85Mti9U/pxx18owE5N9KzyubXZMzJOa3TQUZOQOq2
nBIyU1Y6EsT+I0rUrN6aUT4RyD57nIzlbc7X2Db2YIR+gyL3jghgXGRCwldpC2+Z
X3Tz0ih7uejXTeZyzWuGs4aCO+pf/+pdE6ajh2BCaG/PC/cJuF9F3zDSdxdyQwuE
Kpe3qJRMWQVycRsETt4jaYPKBMMRtZVrCswZCbRYqZShRjkCAwEAAaOBojCBnzAJ
BgNVHRMEAjAAMB0GA1UdDgQWBBSRqn6EOk0AUalSJCuhwIeN9/CHSTBRBgNVHSME
SjBIgBSTb+lrc0toESdOTrOAYAvkzCLNGaEapBgwFjEUMBIGA1UEAwwLdGVhbTI0
NC1uZXSCFAmIDAJUVMsa1JCc1lPwUxkh23utMBMGA1UdJQQMMAoGCCsGAQUFBwMC
MAsGA1UdDwQEAwIHgDANBgkqhkiG9w0BAQsFAAOCAQEACerj46k1SFS5tyaR7p7o
RF2e4jffmeRyymQmtZxsPA72zoBjAl4Mj4qFbfj5AZ2Jml2hzFjlTrogoZJCrxOD
MzjlBEL8J/nxo5Eb835Yyd3i6hIyYmCwivdWKVGFdej1KWLh/lq3zbPU4YzaI0WD
PE496iOUGiKX7Wz22IzkRK8c5en9MVgSG4zBWiSaS4GtVvPdFAbIt4/+bi4cPtbR
hlHex8mk86wRRPoRZ4Mp45X0O/GtWwlkQptAby+uGAKIhjDuu3v1LmbRLqW+qazx
/h+yVDl+G6TGRs+IQIIhzTChNUe6ZGqmTHpx+ZRApj7mO5379bQc6NEUKgXXnnyo
gQ==
-----END CERTIFICATE-----
