Certificate:
    Data:
        Version: 3 (0x2)
        Serial Number:
            ee:23:da:c8:8a:07:a8:0c:7e:b1:b1:51:4f:c0:4b:70
        Signature Algorithm: sha256WithRSAEncryption
        Issuer: CN=team291-net
        Validity
            Not Before: May 18 19:55:07 2022 GMT
            Not After : May  2 19:55:07 2025 GMT
        Subject: CN=team291-client
        Subject Public Key Info:
            Public Key Algorithm: rsaEncryption
                RSA Public-Key: (2048 bit)
                Modulus:
                    00:d7:0b:0a:11:59:26:3c:1c:29:14:98:84:1e:9d:
                    ea:3c:78:c8:4e:e5:18:6a:c9:0d:36:4e:5e:af:6d:
                    84:5d:a0:61:29:6a:53:1e:8f:a2:a5:c3:24:b0:3a:
                    a6:6d:6d:b8:8f:9a:4a:6f:03:b0:03:28:dc:2d:39:
                    16:61:d6:5e:ba:49:f7:92:c5:c0:bb:90:50:3d:67:
                    fd:33:9c:de:f2:1c:0b:75:6b:b5:f9:1f:cf:95:10:
                    f8:e5:60:4e:a6:42:b8:18:35:15:c9:47:48:12:21:
                    4c:57:46:7a:75:2a:4f:53:d7:e6:e5:20:1c:b5:22:
                    7a:ea:c0:0e:56:d1:91:02:85:6a:07:b6:64:e0:fb:
                    9c:9b:b4:48:34:5e:e7:7b:07:a5:05:ba:a8:4e:7c:
                    f6:53:25:da:1c:f6:3f:bd:92:75:0d:96:b4:87:ed:
                    ab:34:0b:ab:04:83:64:ed:65:c5:8d:dd:27:ea:1a:
                    e1:18:6a:71:e7:5e:d0:2f:b4:29:59:15:9e:96:3d:
                    88:b7:60:cc:b0:f2:8f:13:91:23:40:37:9f:0b:ae:
                    93:96:aa:26:23:50:d1:e4:44:af:2e:a2:cc:4b:55:
                    ed:09:62:94:9c:f2:cc:f3:35:70:86:a5:37:89:f2:
                    5e:9e:10:2c:07:42:03:a6:df:da:ed:f7:fb:a8:66:
                    84:75
                Exponent: 65537 (0x10001)
        X509v3 extensions:
            X509v3 Basic Constraints: 
                CA:FALSE
            X509v3 Subject Key Identifier: 
                86:BE:DC:06:D4:83:43:C8:B9:C6:0D:16:B3:76:8B:01:B0:0F:7D:DF
            X509v3 Authority Key Identifier: 
                keyid:77:02:96:6D:2B:6A:11:5E:B8:E1:D9:5F:C1:E3:36:3B:E0:79:87:0E
                DirName:/CN=team291-net
                serial:61:EB:26:9B:01:EF:4F:40:6F:CF:CE:1A:3F:DB:38:5F:7D:8F:34:58

            X509v3 Extended Key Usage: 
                TLS Web Client Authentication
            X509v3 Key Usage: 
                Digital Signature
    Signature Algorithm: sha256WithRSAEncryption
         ca:29:df:41:1a:f6:37:42:52:2c:9f:94:48:a8:57:4f:d8:d6:
         32:e7:44:2f:dc:15:f0:3e:ce:9d:1a:6c:f5:9d:1e:bb:2e:9b:
         61:70:64:e7:7b:b0:bc:35:4b:2b:00:76:96:85:06:80:10:c6:
         c5:77:04:26:be:91:07:66:05:1e:6b:21:50:95:51:a3:26:6b:
         1a:71:28:df:85:85:ac:9c:11:5f:4a:e0:ea:75:ce:eb:27:58:
         b9:50:56:96:5f:af:65:49:d6:f4:0c:6f:b7:34:e8:a8:8b:e0:
         d1:2a:4b:a5:c0:5b:33:ca:10:fe:6c:78:d6:8f:b7:69:25:51:
         61:42:cf:5b:07:49:5d:0d:87:be:23:d2:38:9b:45:da:94:00:
         81:19:d8:dc:cc:c2:e2:41:88:57:cf:fb:87:03:16:e0:ab:86:
         40:76:c4:62:a7:9c:a6:5b:61:ff:f0:22:0e:4d:c3:8b:bd:19:
         f1:f4:9c:9f:f2:cd:fc:5b:1d:d1:66:a3:1f:ec:d4:c8:99:25:
         20:c7:e9:6d:84:9f:81:ea:bc:52:6b:eb:b1:65:3f:7f:79:26:
         2c:d4:a4:f3:d6:2f:43:78:7b:c1:5d:08:2e:c6:f9:28:1d:1e:
         e3:6d:db:62:0a:aa:f1:28:41:a5:60:80:06:5d:8c:bf:ec:da:
         2d:3f:85:20
-----BEGIN CERTIFICATE-----
MIIDXTCCAkWgAwIBAgIRAO4j2siKB6gMfrGxUU/AS3AwDQYJKoZIhvcNAQELBQAw
FjEUMBIGA1UEAwwLdGVhbTI5MS1uZXQwHhcNMjIwNTE4MTk1NTA3WhcNMjUwNTAy
MTk1NTA3WjAZMRcwFQYDVQQDDA50ZWFtMjkxLWNsaWVudDCCASIwDQYJKoZIhvcN
AQEBBQADggEPADCCAQoCggEBANcLChFZJjwcKRSYhB6d6jx4yE7lGGrJDTZOXq9t
hF2gYSlqUx6PoqXDJLA6pm1tuI+aSm8DsAMo3C05FmHWXrpJ95LFwLuQUD1n/TOc
3vIcC3Vrtfkfz5UQ+OVgTqZCuBg1FclHSBIhTFdGenUqT1PX5uUgHLUieurADlbR
kQKFage2ZOD7nJu0SDRe53sHpQW6qE589lMl2hz2P72SdQ2WtIftqzQLqwSDZO1l
xY3dJ+oa4Rhqcede0C+0KVkVnpY9iLdgzLDyjxORI0A3nwuuk5aqJiNQ0eREry6i
zEtV7QlilJzyzPM1cIalN4nyXp4QLAdCA6bf2u33+6hmhHUCAwEAAaOBojCBnzAJ
BgNVHRMEAjAAMB0GA1UdDgQWBBSGvtwG1INDyLnGDRazdosBsA993zBRBgNVHSME
SjBIgBR3ApZtK2oRXrjh2V/B4zY74HmHDqEapBgwFjEUMBIGA1UEAwwLdGVhbTI5
MS1uZXSCFGHrJpsB709Ab8/OGj/bOF99jzRYMBMGA1UdJQQMMAoGCCsGAQUFBwMC
MAsGA1UdDwQEAwIHgDANBgkqhkiG9w0BAQsFAAOCAQEAyinfQRr2N0JSLJ+USKhX
T9jWMudEL9wV8D7OnRps9Z0euy6bYXBk53uwvDVLKwB2loUGgBDGxXcEJr6RB2YF
HmshUJVRoyZrGnEo34WFrJwRX0rg6nXO6ydYuVBWll+vZUnW9AxvtzToqIvg0SpL
pcBbM8oQ/mx41o+3aSVRYULPWwdJXQ2HviPSOJtF2pQAgRnY3MzC4kGIV8/7hwMW
4KuGQHbEYqecplth//AiDk3Di70Z8fScn/LN/Fsd0WajH+zUyJklIMfpbYSfgeq8
UmvrsWU/f3kmLNSk89YvQ3h7wV0ILsb5KB0e423bYgqq8ShBpWCABl2Mv+zaLT+F
IA==
-----END CERTIFICATE-----
