Certificate:
    Data:
        Version: 3 (0x2)
        Serial Number:
            2c:fa:cd:b0:46:12:36:da:1b:ff:d4:68:6c:d0:84:e0
        Signature Algorithm: sha256WithRSAEncryption
        Issuer: CN=team177-net
        Validity
            Not Before: May 18 18:55:02 2022 GMT
            Not After : May  2 18:55:02 2025 GMT
        Subject: CN=team177-client
        Subject Public Key Info:
            Public Key Algorithm: rsaEncryption
                RSA Public-Key: (2048 bit)
                Modulus:
                    00:c9:46:d1:01:96:5a:1a:8f:15:12:b3:de:c4:41:
                    5c:57:72:5d:8e:eb:f7:ba:21:c7:fc:a5:36:f2:4f:
                    b9:2f:68:69:e1:eb:be:3c:25:d6:5e:b2:da:de:bd:
                    0b:00:8c:b7:52:28:c6:b5:e0:11:54:8f:78:bf:99:
                    4c:9e:d6:af:9b:69:04:26:09:b5:5f:59:38:0d:77:
                    10:cf:25:0f:55:6d:c5:8c:99:5d:b5:e9:67:8d:02:
                    b2:49:f9:5f:6e:06:4e:f5:12:8d:d1:a2:f0:d0:af:
                    70:2c:22:8b:64:35:20:73:d1:b3:2c:49:23:4f:1c:
                    9a:46:6b:52:f9:e7:f5:8d:bb:33:5a:e1:14:5b:ed:
                    e6:7e:2d:0b:99:3a:23:04:e7:c2:e8:38:5e:d3:3e:
                    87:b3:a6:88:e2:8e:eb:c7:b0:a9:fc:02:d0:8a:85:
                    5e:e0:a5:af:d5:13:86:10:ac:70:24:e9:7d:f7:66:
                    ba:1f:e8:4c:9e:c1:c8:c5:b6:73:73:c3:f1:34:94:
                    94:0f:d5:a5:71:8d:76:78:fd:0f:9f:e5:72:47:41:
                    5f:10:fd:06:a9:43:91:5a:7d:f6:87:c5:40:32:d1:
                    e3:9b:99:74:a6:9b:c1:05:ef:0a:74:a6:cf:85:20:
                    28:23:a3:bb:fb:fe:65:a8:c2:43:25:60:e7:8d:ab:
                    7b:b5
                Exponent: 65537 (0x10001)
        X509v3 extensions:
            X509v3 Basic Constraints: 
                CA:FALSE
            X509v3 Subject Key Identifier: 
                60:09:CA:F6:75:9D:7A:51:F7:D7:B2:D4:EE:01:83:81:1D:D1:C3:3B
            X509v3 Authority Key Identifier: 
                keyid:DA:09:62:9E:E0:59:9E:D0:AB:3A:26:66:D6:24:28:EB:A5:0C:A3:61
                DirName:/CN=team177-net
                serial:65:B4:A6:48:BE:96:65:8A:AF:04:4B:F1:31:34:D4:59:B1:B1:F6:66

            X509v3 Extended Key Usage: 
                TLS Web Client Authentication
            X509v3 Key Usage: 
                Digital Signature
    Signature Algorithm: sha256WithRSAEncryption
         e2:f4:d7:5b:7b:57:c6:84:dc:10:a9:ec:6e:1c:1e:18:d4:4e:
         1f:41:e3:81:f2:25:ad:03:f5:a4:8a:e4:99:80:41:1b:b0:ee:
         78:c7:05:b4:c1:3e:54:41:2f:7f:d1:30:33:19:42:ac:93:9f:
         0e:88:45:2f:78:dd:f4:ca:a9:90:55:7d:59:44:dc:8f:ea:7f:
         95:05:2e:24:55:4a:e3:ab:73:c7:0c:ee:7b:5f:ca:d9:f3:20:
         b7:65:89:ce:89:5c:16:b0:30:c8:3a:76:b8:4c:75:e9:43:63:
         c8:7f:e0:00:19:0b:ca:35:24:2e:08:a8:0f:83:0f:9d:8d:a8:
         c7:87:3a:70:e3:6a:bf:ee:ba:3e:89:06:09:10:a0:0e:b0:28:
         82:6f:f7:bf:0e:aa:e3:1a:13:99:1a:6e:80:9c:fa:b4:ce:fe:
         5d:55:d1:d3:88:e3:3d:20:b2:ea:d4:2f:31:d0:33:66:41:15:
         a4:93:74:cf:50:b4:21:58:43:79:7d:b3:ab:84:9e:7a:3d:71:
         5d:b5:45:30:f6:88:4f:df:09:1c:cd:4c:ee:69:ad:87:f2:37:
         6a:e2:62:c7:30:1c:fd:bd:9e:4f:9c:f9:1b:eb:df:33:6a:56:
         df:fb:da:35:f8:09:d1:7b:f6:03:db:f7:b0:0b:e3:38:7b:70:
         af:83:05:13
-----BEGIN CERTIFICATE-----
MIIDXDCCAkSgAwIBAgIQLPrNsEYSNtob/9RobNCE4DANBgkqhkiG9w0BAQsFADAW
MRQwEgYDVQQDDAt0ZWFtMTc3LW5ldDAeFw0yMjA1MTgxODU1MDJaFw0yNTA1MDIx
ODU1MDJaMBkxFzAVBgNVBAMMDnRlYW0xNzctY2xpZW50MIIBIjANBgkqhkiG9w0B
AQEFAAOCAQ8AMIIBCgKCAQEAyUbRAZZaGo8VErPexEFcV3Jdjuv3uiHH/KU28k+5
L2hp4eu+PCXWXrLa3r0LAIy3UijGteARVI94v5lMntavm2kEJgm1X1k4DXcQzyUP
VW3FjJldtelnjQKySflfbgZO9RKN0aLw0K9wLCKLZDUgc9GzLEkjTxyaRmtS+ef1
jbszWuEUW+3mfi0LmTojBOfC6Dhe0z6Hs6aI4o7rx7Cp/ALQioVe4KWv1ROGEKxw
JOl992a6H+hMnsHIxbZzc8PxNJSUD9WlcY12eP0Pn+VyR0FfEP0GqUORWn32h8VA
MtHjm5l0ppvBBe8KdKbPhSAoI6O7+/5lqMJDJWDnjat7tQIDAQABo4GiMIGfMAkG
A1UdEwQCMAAwHQYDVR0OBBYEFGAJyvZ1nXpR99ey1O4Bg4Ed0cM7MFEGA1UdIwRK
MEiAFNoJYp7gWZ7QqzomZtYkKOulDKNhoRqkGDAWMRQwEgYDVQQDDAt0ZWFtMTc3
LW5ldIIUZbSmSL6WZYqvBEvxMTTUWbGx9mYwEwYDVR0lBAwwCgYIKwYBBQUHAwIw
CwYDVR0PBAQDAgeAMA0GCSqGSIb3DQEBCwUAA4IBAQDi9Ndbe1fGhNwQqexuHB4Y
1E4fQeOB8iWtA/WkiuSZgEEbsO54xwW0wT5UQS9/0TAzGUKsk58OiEUveN30yqmQ
VX1ZRNyP6n+VBS4kVUrjq3PHDO57X8rZ8yC3ZYnOiVwWsDDIOna4THXpQ2PIf+AA
GQvKNSQuCKgPgw+djajHhzpw42q/7ro+iQYJEKAOsCiCb/e/DqrjGhOZGm6AnPq0
zv5dVdHTiOM9ILLq1C8x0DNmQRWkk3TPULQhWEN5fbOrhJ56PXFdtUUw9ohP3wkc
zUzuaa2H8jdq4mLHMBz9vZ5PnPkb698zalbf+9o1+AnRe/YD2/ewC+M4e3CvgwUT
-----END CERTIFICATE-----
