Certificate:
    Data:
        Version: 3 (0x2)
        Serial Number:
            95:79:d7:6d:81:65:cf:8f:7e:65:47:e5:2c:c6:9f:87
        Signature Algorithm: sha256WithRSAEncryption
        Issuer: CN=team106-net
        Validity
            Not Before: May 18 14:55:15 2022 GMT
            Not After : May  2 14:55:15 2025 GMT
        Subject: CN=team106-server
        Subject Public Key Info:
            Public Key Algorithm: rsaEncryption
                RSA Public-Key: (2048 bit)
                Modulus:
                    00:cb:5a:6c:e1:ee:0e:7e:5a:3e:b5:b4:24:f9:58:
                    2a:e4:14:9f:03:ae:f1:5f:79:e7:dd:6f:04:74:c1:
                    a5:5d:b1:4b:d9:5f:5e:27:b7:1a:3a:8d:83:23:d5:
                    3e:12:bd:94:32:7f:4d:c8:3c:48:bd:4e:52:38:ef:
                    e5:e4:86:03:c9:8a:a3:63:f3:c4:b7:0f:6b:26:ff:
                    7b:a6:70:da:be:c1:d2:77:bf:71:80:8e:15:4b:af:
                    82:c2:22:94:e4:c6:f2:33:c9:d0:69:bd:a1:ba:34:
                    ea:75:18:88:4b:86:57:c5:00:ce:2d:24:a8:01:77:
                    f9:aa:29:9d:40:7b:01:11:02:e5:5c:95:31:dc:f3:
                    6b:08:94:c6:24:c9:71:66:65:49:53:72:4a:9e:81:
                    bb:cc:e5:14:75:88:c7:e8:16:f8:be:37:9b:38:9f:
                    5c:03:cd:7b:b9:b0:fb:8f:64:09:ba:e8:d5:66:25:
                    31:0c:1f:00:63:c2:5a:00:c7:64:99:ff:11:0f:e7:
                    10:80:5a:c7:44:76:73:9d:16:86:eb:f0:3f:12:7d:
                    01:89:3d:88:6f:5b:2c:46:bd:43:d6:db:e1:79:c1:
                    7b:73:73:ed:98:60:f8:de:b7:e3:09:9f:db:4c:af:
                    bc:58:41:38:ad:63:4d:2d:f6:de:c9:9d:c4:d2:a7:
                    26:f3
                Exponent: 65537 (0x10001)
        X509v3 extensions:
            X509v3 Basic Constraints: 
                CA:FALSE
            X509v3 Subject Key Identifier: 
                57:69:6A:9F:CE:F6:70:EC:50:61:9B:69:E6:32:2D:F4:58:0B:AF:0E
            X509v3 Authority Key Identifier: 
                keyid:3B:49:F8:CE:E9:1E:DD:A6:B2:B5:32:38:5C:84:6E:AB:2D:9E:1A:82
                DirName:/CN=team106-net
                serial:7B:71:9E:11:B4:0A:BD:A4:DF:89:21:8D:82:B2:1C:C3:EB:2A:A3:AF

            X509v3 Extended Key Usage: 
                TLS Web Server Authentication
            X509v3 Key Usage: 
                Digital Signature, Key Encipherment
            X509v3 Subject Alternative Name: 
                DNS:team106-server
    Signature Algorithm: sha256WithRSAEncryption
         07:6b:f6:9f:89:86:25:97:4c:e3:66:c3:75:d8:ec:40:55:ac:
         d4:e7:d0:cd:68:55:3b:b2:43:ef:07:89:c4:35:54:63:63:3a:
         cb:5b:28:d9:19:4b:a8:b1:01:d3:28:12:ea:89:81:82:47:1d:
         54:53:ef:c0:1b:26:5c:fd:08:54:27:d9:2a:b0:82:ae:b7:93:
         ad:e9:08:26:fb:c0:0c:e3:89:df:d8:27:56:15:72:78:93:4c:
         f0:08:db:37:38:e4:2e:32:28:76:02:1b:39:ae:c1:bd:c1:f8:
         51:e6:61:39:15:d6:5e:d6:a2:90:72:12:88:a8:48:28:d8:a4:
         19:5a:d2:0c:05:f4:85:19:29:1c:8c:75:81:21:d9:e7:99:85:
         c1:dc:e1:3f:15:52:d5:29:fc:6e:16:e9:39:4a:9d:97:ce:ea:
         6b:fb:d8:d7:b7:ac:76:23:dc:aa:ba:36:33:c6:3e:59:99:75:
         55:be:d3:66:28:da:2d:24:05:b8:a4:49:66:bf:62:1d:7a:d6:
         3d:45:4c:35:1f:d9:25:78:02:28:45:de:4a:98:d0:89:1c:a2:
         b3:ca:6a:a1:da:a6:e6:0a:31:6c:36:16:a8:2f:ca:02:c7:f0:
         ee:60:07:e7:90:fd:f8:18:95:8d:af:48:90:30:a5:d7:46:23:
         39:ae:06:e1
-----BEGIN CERTIFICATE-----
MIIDeDCCAmCgAwIBAgIRAJV5122BZc+PfmVH5SzGn4cwDQYJKoZIhvcNAQELBQAw
FjEUMBIGA1UEAwwLdGVhbTEwNi1uZXQwHhcNMjIwNTE4MTQ1NTE1WhcNMjUwNTAy
MTQ1NTE1WjAZMRcwFQYDVQQDDA50ZWFtMTA2LXNlcnZlcjCCASIwDQYJKoZIhvcN
AQEBBQADggEPADCCAQoCggEBAMtabOHuDn5aPrW0JPlYKuQUnwOu8V95591vBHTB
pV2xS9lfXie3GjqNgyPVPhK9lDJ/Tcg8SL1OUjjv5eSGA8mKo2PzxLcPayb/e6Zw
2r7B0ne/cYCOFUuvgsIilOTG8jPJ0Gm9obo06nUYiEuGV8UAzi0kqAF3+aopnUB7
AREC5VyVMdzzawiUxiTJcWZlSVNySp6Bu8zlFHWIx+gW+L43mzifXAPNe7mw+49k
Cbro1WYlMQwfAGPCWgDHZJn/EQ/nEIBax0R2c50WhuvwPxJ9AYk9iG9bLEa9Q9bb
4XnBe3Nz7Zhg+N634wmf20yvvFhBOK1jTS323smdxNKnJvMCAwEAAaOBvTCBujAJ
BgNVHRMEAjAAMB0GA1UdDgQWBBRXaWqfzvZw7FBhm2nmMi30WAuvDjBRBgNVHSME
SjBIgBQ7SfjO6R7dprK1MjhchG6rLZ4agqEapBgwFjEUMBIGA1UEAwwLdGVhbTEw
Ni1uZXSCFHtxnhG0Cr2k34khjYKyHMPrKqOvMBMGA1UdJQQMMAoGCCsGAQUFBwMB
MAsGA1UdDwQEAwIFoDAZBgNVHREEEjAQgg50ZWFtMTA2LXNlcnZlcjANBgkqhkiG
9w0BAQsFAAOCAQEAB2v2n4mGJZdM42bDddjsQFWs1OfQzWhVO7JD7weJxDVUY2M6
y1so2RlLqLEB0ygS6omBgkcdVFPvwBsmXP0IVCfZKrCCrreTrekIJvvADOOJ39gn
VhVyeJNM8AjbNzjkLjIodgIbOa7BvcH4UeZhORXWXtaikHISiKhIKNikGVrSDAX0
hRkpHIx1gSHZ55mFwdzhPxVS1Sn8bhbpOUqdl87qa/vY17esdiPcqro2M8Y+WZl1
Vb7TZijaLSQFuKRJZr9iHXrWPUVMNR/ZJXgCKEXeSpjQiRyis8pqodqm5goxbDYW
qC/KAsfw7mAH55D9+BiVja9IkDCl10YjOa4G4Q==
-----END CERTIFICATE-----
