Certificate:
    Data:
        Version: 3 (0x2)
        Serial Number:
            8f:18:e7:89:13:e6:3e:bb:0b:9e:48:f9:00:15:a0:cc
        Signature Algorithm: sha256WithRSAEncryption
        Issuer: CN=team542-net
        Validity
            Not Before: May 18 22:09:02 2022 GMT
            Not After : May  2 22:09:02 2025 GMT
        Subject: CN=team542-client
        Subject Public Key Info:
            Public Key Algorithm: rsaEncryption
                RSA Public-Key: (2048 bit)
                Modulus:
                    00:d7:2d:22:0d:9d:60:6b:47:bd:56:a5:a1:17:71:
                    9c:db:a4:b6:f9:35:9c:26:92:d1:bc:16:7f:99:7b:
                    b4:3d:f6:91:07:10:10:77:ad:3a:bc:be:d4:fe:ac:
                    24:1a:3e:c8:88:c2:4d:18:18:13:d1:bc:98:3c:e0:
                    3c:84:da:0d:68:b0:ba:51:43:06:89:cb:41:39:7f:
                    00:c1:e2:23:cb:93:99:e7:6e:6b:ba:d8:11:37:a3:
                    23:55:98:ec:01:ad:ef:9a:db:7a:e3:e6:df:31:9f:
                    99:b8:e5:b0:dd:48:d7:d6:61:95:b5:99:9d:ed:8c:
                    17:f3:db:75:ba:7d:70:f6:56:0e:28:1f:bb:0a:20:
                    b8:27:17:35:b7:ad:1d:28:ed:34:a9:b9:fe:e2:44:
                    a5:b6:9b:43:ac:bb:ae:d0:5f:01:00:23:22:a4:65:
                    f9:d3:18:09:be:64:4c:9e:46:0b:5b:07:ed:b2:f3:
                    69:ec:cf:0c:2a:57:15:10:6f:66:f3:3b:31:4b:7d:
                    92:a5:5b:25:94:e4:72:f1:12:85:49:6e:63:54:79:
                    e7:7e:a7:42:bd:31:1e:5c:73:70:eb:1d:58:89:96:
                    05:c9:fc:85:c5:cb:e8:2b:00:63:78:82:df:76:c1:
                    8f:37:c4:52:ab:23:5d:f8:68:b2:fe:85:6d:27:02:
                    42:5b
                Exponent: 65537 (0x10001)
        X509v3 extensions:
            X509v3 Basic Constraints: 
                CA:FALSE
            X509v3 Subject Key Identifier: 
                19:6D:6C:54:F3:2F:6F:E3:BC:4B:78:6C:E7:DE:3A:37:93:AD:06:6E
            X509v3 Authority Key Identifier: 
                keyid:9F:54:0A:77:14:C1:CA:EF:91:51:EF:44:7E:53:04:42:6C:B6:8A:DC
                DirName:/CN=team542-net
                serial:0B:59:18:AD:1B:93:B8:EC:35:A4:2A:01:04:AB:24:DD:F7:A1:E7:4F

            X509v3 Extended Key Usage: 
                TLS Web Client Authentication
            X509v3 Key Usage: 
                Digital Signature
    Signature Algorithm: sha256WithRSAEncryption
         06:10:d2:d4:c7:e9:97:40:c1:fc:5d:26:fc:cb:f6:cd:43:b8:
         bf:00:86:07:85:04:25:c4:1d:a0:1d:46:09:28:ef:95:35:d6:
         01:6f:b0:a7:2d:87:f9:52:c3:29:8f:e1:c2:a6:62:37:12:f3:
         1d:26:0b:70:63:da:bb:bf:05:84:b0:2d:fd:3d:b7:9f:5e:0b:
         78:0c:84:40:50:5d:06:e8:ec:61:ce:df:87:0d:a6:42:08:9b:
         73:ea:26:d5:6c:bf:3f:f8:9a:96:21:91:01:63:63:60:d0:de:
         8a:0c:32:64:53:9a:61:41:b1:4e:71:b9:8b:3e:7e:f0:c8:2f:
         03:00:0d:60:07:f4:a5:4e:63:ba:19:82:67:62:82:40:15:80:
         93:73:68:ef:e1:18:5c:e5:57:cc:1c:5e:1f:e5:38:d3:2e:f0:
         74:3d:c3:bf:f4:78:c9:35:2c:60:e3:0c:9a:5a:e1:e9:04:fb:
         91:2f:6d:e9:85:4c:70:5c:a6:9e:1a:23:ae:b7:97:0a:73:be:
         38:cf:30:ac:6f:38:86:02:46:f4:f2:15:c3:f4:3d:15:70:5f:
         2c:76:28:73:0b:2e:41:a2:f2:2b:6f:43:bd:48:53:8e:9f:d2:
         7d:7b:9e:9b:be:67:db:93:89:50:dd:ee:1b:69:5d:8a:6e:0c:
         fd:35:76:0e
-----BEGIN CERTIFICATE-----
MIIDXTCCAkWgAwIBAgIRAI8Y54kT5j67C55I+QAVoMwwDQYJKoZIhvcNAQELBQAw
FjEUMBIGA1UEAwwLdGVhbTU0Mi1uZXQwHhcNMjIwNTE4MjIwOTAyWhcNMjUwNTAy
MjIwOTAyWjAZMRcwFQYDVQQDDA50ZWFtNTQyLWNsaWVudDCCASIwDQYJKoZIhvcN
AQEBBQADggEPADCCAQoCggEBANctIg2dYGtHvValoRdxnNuktvk1nCaS0bwWf5l7
tD32kQcQEHetOry+1P6sJBo+yIjCTRgYE9G8mDzgPITaDWiwulFDBonLQTl/AMHi
I8uTmedua7rYETejI1WY7AGt75rbeuPm3zGfmbjlsN1I19ZhlbWZne2MF/Pbdbp9
cPZWDigfuwoguCcXNbetHSjtNKm5/uJEpbabQ6y7rtBfAQAjIqRl+dMYCb5kTJ5G
C1sH7bLzaezPDCpXFRBvZvM7MUt9kqVbJZTkcvEShUluY1R5536nQr0xHlxzcOsd
WImWBcn8hcXL6CsAY3iC33bBjzfEUqsjXfhosv6FbScCQlsCAwEAAaOBojCBnzAJ
BgNVHRMEAjAAMB0GA1UdDgQWBBQZbWxU8y9v47xLeGzn3jo3k60GbjBRBgNVHSME
SjBIgBSfVAp3FMHK75FR70R+UwRCbLaK3KEapBgwFjEUMBIGA1UEAwwLdGVhbTU0
Mi1uZXSCFAtZGK0bk7jsNaQqAQSrJN33oedPMBMGA1UdJQQMMAoGCCsGAQUFBwMC
MAsGA1UdDwQEAwIHgDANBgkqhkiG9w0BAQsFAAOCAQEABhDS1Mfpl0DB/F0m/Mv2
zUO4vwCGB4UEJcQdoB1GCSjvlTXWAW+wpy2H+VLDKY/hwqZiNxLzHSYLcGPau78F
hLAt/T23n14LeAyEQFBdBujsYc7fhw2mQgibc+om1Wy/P/ialiGRAWNjYNDeigwy
ZFOaYUGxTnG5iz5+8MgvAwANYAf0pU5juhmCZ2KCQBWAk3No7+EYXOVXzBxeH+U4
0y7wdD3Dv/R4yTUsYOMMmlrh6QT7kS9t6YVMcFymnhojrreXCnO+OM8wrG84hgJG
9PIVw/Q9FXBfLHYocwsuQaLyK29DvUhTjp/SfXuem75n25OJUN3uG2ldim4M/TV2
Dg==
-----END CERTIFICATE-----
