Certificate:
    Data:
        Version: 3 (0x2)
        Serial Number:
            8c:cf:19:0c:f4:11:19:b8:05:17:93:88:b7:ae:45:de
        Signature Algorithm: sha256WithRSAEncryption
        Issuer: CN=team51-net
        Validity
            Not Before: May 18 14:22:16 2022 GMT
            Not After : May  2 14:22:16 2025 GMT
        Subject: CN=team51-client
        Subject Public Key Info:
            Public Key Algorithm: rsaEncryption
                RSA Public-Key: (2048 bit)
                Modulus:
                    00:f9:5e:26:99:5c:0b:cd:b3:9e:81:c8:0f:35:86:
                    fe:63:49:6f:d3:eb:d6:76:1b:8d:46:19:58:48:27:
                    da:65:aa:ab:a3:20:6b:a8:53:5c:37:98:55:3a:cd:
                    c6:29:e0:ea:e3:8d:37:7f:53:2f:d8:08:d0:04:bf:
                    24:6a:c1:10:48:af:75:c4:28:86:42:3a:55:0b:70:
                    98:72:56:28:3f:4c:62:08:22:69:a9:5d:9e:f5:ec:
                    97:e0:d7:73:b8:f5:50:52:aa:53:2c:be:95:c5:d0:
                    0d:ff:c5:d8:80:68:88:54:bf:15:cd:0f:5f:92:5c:
                    34:36:79:80:ee:3c:09:f5:a5:c9:ba:96:06:95:b6:
                    66:9b:ad:66:f1:9c:ea:da:8f:78:f1:90:79:57:25:
                    17:1d:18:eb:e4:bb:d0:f9:48:0f:fd:7c:b1:f0:80:
                    c8:7b:be:49:56:c6:cc:28:00:72:c3:9a:a8:60:10:
                    fe:78:d4:d8:d9:55:e9:83:61:96:6b:06:af:c4:72:
                    59:31:62:fa:b9:ad:00:21:ff:46:3f:88:65:71:b5:
                    86:dd:5b:d5:92:77:fd:8c:55:6b:22:b9:3c:4d:45:
                    04:fc:6b:fe:82:29:04:d6:35:cb:72:47:f1:84:c6:
                    57:c7:d3:aa:40:6f:0a:af:a3:4d:a7:ed:60:8b:ef:
                    4b:b7
                Exponent: 65537 (0x10001)
        X509v3 extensions:
            X509v3 Basic Constraints: 
                CA:FALSE
            X509v3 Subject Key Identifier: 
                4D:6E:4A:0C:74:A0:D8:F2:D3:07:60:D3:0C:4F:46:E6:0A:28:37:3F
            X509v3 Authority Key Identifier: 
                keyid:2C:1C:48:A0:C9:32:8F:9B:90:F7:B2:33:2C:FE:1C:B4:42:E1:5E:38
                DirName:/CN=team51-net
                serial:68:75:52:33:46:55:01:FC:EC:FA:B8:CB:CD:5B:97:E6:41:6F:43:BF

            X509v3 Extended Key Usage: 
                TLS Web Client Authentication
            X509v3 Key Usage: 
                Digital Signature
    Signature Algorithm: sha256WithRSAEncryption
         a0:25:63:cc:c8:f0:85:e9:5b:31:12:95:d7:20:07:73:f0:21:
         3c:77:4e:0f:d2:0c:5f:64:95:4c:71:a9:e6:d1:51:f6:53:5b:
         a7:69:56:53:eb:ce:05:34:fd:d4:33:49:ee:60:54:da:ea:b4:
         61:88:93:98:f3:d6:ba:f8:97:5f:91:04:67:82:07:5d:dc:f0:
         d7:92:a6:44:8e:5d:b0:87:b5:31:79:97:16:12:fd:65:be:d6:
         c8:13:58:a3:44:24:cc:b4:cb:46:60:b0:2b:50:85:c6:79:2a:
         dc:2c:85:c0:f0:05:c1:d5:fd:8e:65:e9:10:f2:a9:d2:46:2f:
         66:d1:cd:40:d5:58:64:d5:4b:13:88:42:69:2a:01:46:6e:5b:
         97:49:a3:3b:52:b2:65:4d:5c:f6:aa:aa:46:d4:b7:1f:f5:c7:
         60:75:74:ec:62:cc:3e:96:d3:ed:2a:a5:dc:1e:22:18:51:0e:
         97:92:48:35:ba:48:fa:71:e9:99:30:0b:8e:35:68:06:c4:a4:
         76:fc:b3:5e:87:00:b6:2d:54:7e:6f:9c:66:21:77:c4:9b:9f:
         aa:d3:f6:65:ba:7b:f3:a6:2c:cf:38:23:1e:f4:f6:55:39:a8:
         a0:6e:a9:4d:76:fa:8e:27:f8:d1:85:f4:5b:17:29:2b:6c:7f:
         94:0f:98:bc
-----BEGIN CERTIFICATE-----
MIIDWjCCAkKgAwIBAgIRAIzPGQz0ERm4BReTiLeuRd4wDQYJKoZIhvcNAQELBQAw
FTETMBEGA1UEAwwKdGVhbTUxLW5ldDAeFw0yMjA1MTgxNDIyMTZaFw0yNTA1MDIx
NDIyMTZaMBgxFjAUBgNVBAMMDXRlYW01MS1jbGllbnQwggEiMA0GCSqGSIb3DQEB
AQUAA4IBDwAwggEKAoIBAQD5XiaZXAvNs56ByA81hv5jSW/T69Z2G41GGVhIJ9pl
qqujIGuoU1w3mFU6zcYp4OrjjTd/Uy/YCNAEvyRqwRBIr3XEKIZCOlULcJhyVig/
TGIIImmpXZ717Jfg13O49VBSqlMsvpXF0A3/xdiAaIhUvxXND1+SXDQ2eYDuPAn1
pcm6lgaVtmabrWbxnOraj3jxkHlXJRcdGOvku9D5SA/9fLHwgMh7vklWxswoAHLD
mqhgEP541NjZVemDYZZrBq/EclkxYvq5rQAh/0Y/iGVxtYbdW9WSd/2MVWsiuTxN
RQT8a/6CKQTWNctyR/GExlfH06pAbwqvo02n7WCL70u3AgMBAAGjgaEwgZ4wCQYD
VR0TBAIwADAdBgNVHQ4EFgQUTW5KDHSg2PLTB2DTDE9G5gooNz8wUAYDVR0jBEkw
R4AULBxIoMkyj5uQ97IzLP4ctELhXjihGaQXMBUxEzARBgNVBAMMCnRlYW01MS1u
ZXSCFGh1UjNGVQH87Pq4y81bl+ZBb0O/MBMGA1UdJQQMMAoGCCsGAQUFBwMCMAsG
A1UdDwQEAwIHgDANBgkqhkiG9w0BAQsFAAOCAQEAoCVjzMjwhelbMRKV1yAHc/Ah
PHdOD9IMX2SVTHGp5tFR9lNbp2lWU+vOBTT91DNJ7mBU2uq0YYiTmPPWuviXX5EE
Z4IHXdzw15KmRI5dsIe1MXmXFhL9Zb7WyBNYo0QkzLTLRmCwK1CFxnkq3CyFwPAF
wdX9jmXpEPKp0kYvZtHNQNVYZNVLE4hCaSoBRm5bl0mjO1KyZU1c9qqqRtS3H/XH
YHV07GLMPpbT7Sql3B4iGFEOl5JINbpI+nHpmTALjjVoBsSkdvyzXocAti1Ufm+c
ZiF3xJufqtP2Zbp786YszzgjHvT2VTmooG6pTXb6jif40YX0WxcpK2x/lA+YvA==
-----END CERTIFICATE-----
