Certificate:
    Data:
        Version: 3 (0x2)
        Serial Number:
            3a:66:94:ef:cb:8e:dd:3d:8f:5a:d0:ff:76:c5:64:27
        Signature Algorithm: sha256WithRSAEncryption
        Issuer: CN=team329-net
        Validity
            Not Before: May 18 20:25:30 2022 GMT
            Not After : May  2 20:25:30 2025 GMT
        Subject: CN=team329-client
        Subject Public Key Info:
            Public Key Algorithm: rsaEncryption
                RSA Public-Key: (2048 bit)
                Modulus:
                    00:df:f7:17:c7:11:15:2f:22:e9:32:b7:93:c9:c6:
                    fb:59:9c:e7:ce:3a:74:eb:a8:37:df:6c:c5:81:b4:
                    55:e3:74:f4:5b:79:6a:a0:8c:02:4f:3d:c7:0d:91:
                    b5:4c:42:d9:d0:7b:32:4b:59:9e:c0:dc:55:52:c2:
                    88:bb:80:b3:5b:6a:e8:89:23:89:de:1b:be:8a:12:
                    89:5a:6e:8f:76:91:ff:d6:6a:5f:d8:f0:e2:aa:ec:
                    49:dd:5c:55:24:df:bb:9a:e3:21:b4:d8:cd:8d:1a:
                    be:89:1f:e0:67:a3:c9:e5:02:37:0f:4a:89:85:1a:
                    a3:01:ed:44:77:11:5c:bc:e0:53:4f:2d:93:53:5a:
                    d5:c0:68:4b:5d:da:51:88:5a:dc:24:42:9a:e7:18:
                    25:16:5a:99:f5:a0:e5:43:6a:6f:89:62:db:4b:45:
                    77:5e:74:e2:a0:05:18:78:2c:4c:3f:ee:8c:e5:71:
                    b5:6f:63:db:bb:4a:0e:13:8a:1b:17:f5:ce:bb:bd:
                    1a:f9:ee:19:37:b8:7c:e6:d0:46:e3:25:20:0e:6a:
                    c0:eb:1b:9a:89:b5:82:e0:fc:21:7a:c0:a0:db:d3:
                    27:f1:69:e3:2d:8f:f3:49:4d:7b:76:c9:7c:e0:29:
                    96:59:66:2f:49:c9:5f:4e:e4:0b:00:18:41:54:c1:
                    aa:f9
                Exponent: 65537 (0x10001)
        X509v3 extensions:
            X509v3 Basic Constraints: 
                CA:FALSE
            X509v3 Subject Key Identifier: 
                C7:74:6C:51:C3:B6:56:2B:2C:A8:BF:77:3A:B4:BE:0F:13:2D:08:8C
            X509v3 Authority Key Identifier: 
                keyid:EA:1E:C8:8A:2B:1E:64:3F:13:96:AB:A1:F6:BB:35:49:B1:F7:54:AE
                DirName:/CN=team329-net
                serial:3A:D5:89:F0:50:53:A3:6F:10:E8:19:E4:70:99:85:E4:50:68:F3:E8

            X509v3 Extended Key Usage: 
                TLS Web Client Authentication
            X509v3 Key Usage: 
                Digital Signature
    Signature Algorithm: sha256WithRSAEncryption
         6a:2f:56:49:b1:9f:fd:b1:ae:81:f7:4d:30:6a:eb:ca:c2:46:
         04:7b:a6:43:e5:d2:65:3b:dc:a8:bf:e6:e7:32:5d:77:1a:05:
         66:93:d2:36:39:f0:07:2e:c8:80:61:fb:45:9f:51:47:de:bf:
         5c:be:12:c8:2e:1e:bd:ac:d3:02:03:6f:da:ac:a1:2a:75:86:
         b7:50:33:f4:57:78:1b:1c:88:81:e9:06:5e:a2:c7:4f:c0:fd:
         33:c5:8d:04:60:c9:7b:3c:68:91:72:d4:08:4c:41:ef:b1:e8:
         f3:0c:18:97:26:61:db:45:6d:43:c2:85:6c:79:ce:b7:26:8e:
         4d:7b:90:75:34:a0:f6:6e:e1:c2:43:98:4b:24:5b:ab:44:74:
         57:42:47:cb:a4:a6:27:c1:1f:8e:2b:33:b8:81:7b:a6:bf:5d:
         01:46:9c:98:0c:26:db:1f:ab:9e:88:be:6f:59:50:3d:c3:d4:
         57:3f:7d:50:e2:65:95:f7:8b:f4:46:0f:68:8f:e4:94:da:22:
         cf:2e:6c:57:cc:41:fa:55:e6:de:c5:e9:d6:e1:11:7c:5d:e1:
         53:ca:5e:3f:79:43:a0:d1:3b:83:93:d9:3d:c0:46:d5:e1:e4:
         0c:cc:a2:52:6c:a9:a6:c3:50:cb:10:f7:2b:fe:f3:de:dd:47:
         76:74:3b:3c
-----BEGIN CERTIFICATE-----
MIIDXDCCAkSgAwIBAgIQOmaU78uO3T2PWtD/dsVkJzANBgkqhkiG9w0BAQsFADAW
MRQwEgYDVQQDDAt0ZWFtMzI5LW5ldDAeFw0yMjA1MTgyMDI1MzBaFw0yNTA1MDIy
MDI1MzBaMBkxFzAVBgNVBAMMDnRlYW0zMjktY2xpZW50MIIBIjANBgkqhkiG9w0B
AQEFAAOCAQ8AMIIBCgKCAQEA3/cXxxEVLyLpMreTycb7WZznzjp066g332zFgbRV
43T0W3lqoIwCTz3HDZG1TELZ0HsyS1mewNxVUsKIu4CzW2roiSOJ3hu+ihKJWm6P
dpH/1mpf2PDiquxJ3VxVJN+7muMhtNjNjRq+iR/gZ6PJ5QI3D0qJhRqjAe1EdxFc
vOBTTy2TU1rVwGhLXdpRiFrcJEKa5xglFlqZ9aDlQ2pviWLbS0V3XnTioAUYeCxM
P+6M5XG1b2Pbu0oOE4obF/XOu70a+e4ZN7h85tBG4yUgDmrA6xuaibWC4PwhesCg
29Mn8WnjLY/zSU17dsl84CmWWWYvSclfTuQLABhBVMGq+QIDAQABo4GiMIGfMAkG
A1UdEwQCMAAwHQYDVR0OBBYEFMd0bFHDtlYrLKi/dzq0vg8TLQiMMFEGA1UdIwRK
MEiAFOoeyIorHmQ/E5arofa7NUmx91SuoRqkGDAWMRQwEgYDVQQDDAt0ZWFtMzI5
LW5ldIIUOtWJ8FBTo28Q6BnkcJmF5FBo8+gwEwYDVR0lBAwwCgYIKwYBBQUHAwIw
CwYDVR0PBAQDAgeAMA0GCSqGSIb3DQEBCwUAA4IBAQBqL1ZJsZ/9sa6B900wauvK
wkYEe6ZD5dJlO9yov+bnMl13GgVmk9I2OfAHLsiAYftFn1FH3r9cvhLILh69rNMC
A2/arKEqdYa3UDP0V3gbHIiB6QZeosdPwP0zxY0EYMl7PGiRctQITEHvsejzDBiX
JmHbRW1DwoVsec63Jo5Ne5B1NKD2buHCQ5hLJFurRHRXQkfLpKYnwR+OKzO4gXum
v10BRpyYDCbbH6ueiL5vWVA9w9RXP31Q4mWV94v0Rg9oj+SU2iLPLmxXzEH6Vebe
xenW4RF8XeFTyl4/eUOg0TuDk9k9wEbV4eQMzKJSbKmmw1DLEPcr/vPe3Ud2dDs8
-----END CERTIFICATE-----
