Certificate:
    Data:
        Version: 3 (0x2)
        Serial Number:
            86:09:2f:ee:86:b5:96:aa:bb:02:dc:e3:c3:9a:16:c3
        Signature Algorithm: sha256WithRSAEncryption
        Issuer: CN=team765-net
        Validity
            Not Before: May 19 00:13:50 2022 GMT
            Not After : May  3 00:13:50 2025 GMT
        Subject: CN=team765-server
        Subject Public Key Info:
            Public Key Algorithm: rsaEncryption
                RSA Public-Key: (2048 bit)
                Modulus:
                    00:c9:c2:66:56:71:9d:01:1b:60:e6:80:01:58:50:
                    83:35:36:c5:6f:1b:bf:60:1e:b1:31:d2:80:b5:17:
                    16:bd:a3:8d:08:db:fd:f4:12:f4:f2:87:ea:e0:ba:
                    6e:5e:2a:2f:7c:b3:64:f2:18:4b:94:62:23:48:49:
                    95:20:67:89:6e:99:fa:ed:1d:1f:83:98:7f:54:e6:
                    c5:4a:c6:11:5b:68:72:0e:6c:ac:8e:b5:31:1a:5a:
                    4b:c1:c5:5a:50:a4:01:39:ac:fc:fe:3b:db:9c:a4:
                    27:1d:05:de:2a:ef:ea:6a:ce:e2:d9:56:79:f6:92:
                    d9:a5:96:75:dc:1b:08:7f:02:40:3e:1d:32:86:88:
                    ad:52:3a:23:a2:d6:5f:0f:6c:2d:e3:d6:d5:11:2b:
                    24:f0:04:d2:b9:83:c2:ca:e2:b1:a1:aa:e8:96:1c:
                    f2:34:fe:11:63:0f:c7:37:e5:31:3b:7b:8c:c6:3c:
                    69:72:9b:ec:2a:8d:64:33:fc:69:ec:df:42:6e:b0:
                    04:3d:2a:d2:de:a8:d0:36:71:97:bf:36:e6:1a:d2:
                    84:24:46:24:62:4a:6f:5b:58:08:b5:95:ca:cb:55:
                    2e:30:30:53:41:23:e3:b9:b6:e9:da:ad:ad:43:d9:
                    6c:18:c8:18:39:4b:30:40:1c:e6:52:f5:f8:ef:fc:
                    9a:13
                Exponent: 65537 (0x10001)
        X509v3 extensions:
            X509v3 Basic Constraints: 
                CA:FALSE
            X509v3 Subject Key Identifier: 
                52:09:C9:29:58:65:C6:8D:64:10:C9:87:01:39:B4:14:0B:81:36:3F
            X509v3 Authority Key Identifier: 
                keyid:76:D5:19:0E:0F:89:87:32:FC:8B:63:FB:DA:D9:DD:11:CF:1E:A7:F6
                DirName:/CN=team765-net
                serial:39:70:D9:F6:B3:97:6A:09:89:84:04:3F:8B:45:46:38:39:9B:FD:DD

            X509v3 Extended Key Usage: 
                TLS Web Server Authentication
            X509v3 Key Usage: 
                Digital Signature, Key Encipherment
            X509v3 Subject Alternative Name: 
                DNS:team765-server
    Signature Algorithm: sha256WithRSAEncryption
         2e:10:a9:79:64:35:5c:38:1a:62:06:bf:65:05:3e:8e:99:08:
         ce:7d:7b:f7:9a:0c:31:24:49:b6:b7:78:ea:df:cc:32:28:dd:
         c8:b0:b7:aa:2d:55:ea:cc:0b:88:71:85:1c:d5:17:6a:10:17:
         4b:d9:41:b2:f1:c2:29:d2:7a:59:f5:1e:61:87:44:b7:59:4b:
         60:e3:b3:b9:62:80:d1:0a:84:12:46:a3:dd:76:7e:87:d3:04:
         91:c5:4a:9a:be:3b:c0:19:23:20:41:b2:ff:fe:16:9a:97:95:
         ca:bd:73:69:2a:5a:88:da:5f:b0:df:92:e7:9d:a7:08:9e:c4:
         22:d1:91:6f:ac:23:34:a3:2a:ea:30:ee:3b:60:9a:c8:ce:d1:
         e0:58:8d:94:2d:c9:b1:47:7e:f8:4d:b4:79:dd:6c:45:a6:6b:
         42:7e:19:85:24:c3:8d:eb:3b:0c:34:d3:b2:92:d6:24:46:8f:
         d5:f4:7b:0e:82:37:cc:ec:8d:53:ed:ad:67:60:cf:c0:66:3a:
         cf:69:d9:3a:ef:35:78:77:c6:8f:91:e9:ef:68:6e:42:78:59:
         b4:2a:ca:e5:be:86:ae:08:83:26:e6:4b:1b:fe:d2:6e:5c:32:
         49:8f:46:53:5e:22:11:f3:f0:ed:d7:cd:5b:7f:5b:a9:cc:d8:
         91:56:75:10
-----BEGIN CERTIFICATE-----
MIIDeDCCAmCgAwIBAgIRAIYJL+6GtZaquwLc48OaFsMwDQYJKoZIhvcNAQELBQAw
FjEUMBIGA1UEAwwLdGVhbTc2NS1uZXQwHhcNMjIwNTE5MDAxMzUwWhcNMjUwNTAz
MDAxMzUwWjAZMRcwFQYDVQQDDA50ZWFtNzY1LXNlcnZlcjCCASIwDQYJKoZIhvcN
AQEBBQADggEPADCCAQoCggEBAMnCZlZxnQEbYOaAAVhQgzU2xW8bv2AesTHSgLUX
Fr2jjQjb/fQS9PKH6uC6bl4qL3yzZPIYS5RiI0hJlSBniW6Z+u0dH4OYf1TmxUrG
EVtocg5srI61MRpaS8HFWlCkATms/P4725ykJx0F3irv6mrO4tlWefaS2aWWddwb
CH8CQD4dMoaIrVI6I6LWXw9sLePW1RErJPAE0rmDwsrisaGq6JYc8jT+EWMPxzfl
MTt7jMY8aXKb7CqNZDP8aezfQm6wBD0q0t6o0DZxl7825hrShCRGJGJKb1tYCLWV
ystVLjAwU0Ej47m26dqtrUPZbBjIGDlLMEAc5lL1+O/8mhMCAwEAAaOBvTCBujAJ
BgNVHRMEAjAAMB0GA1UdDgQWBBRSCckpWGXGjWQQyYcBObQUC4E2PzBRBgNVHSME
SjBIgBR21RkOD4mHMvyLY/va2d0Rzx6n9qEapBgwFjEUMBIGA1UEAwwLdGVhbTc2
NS1uZXSCFDlw2fazl2oJiYQEP4tFRjg5m/3dMBMGA1UdJQQMMAoGCCsGAQUFBwMB
MAsGA1UdDwQEAwIFoDAZBgNVHREEEjAQgg50ZWFtNzY1LXNlcnZlcjANBgkqhkiG
9w0BAQsFAAOCAQEALhCpeWQ1XDgaYga/ZQU+jpkIzn1795oMMSRJtrd46t/MMijd
yLC3qi1V6swLiHGFHNUXahAXS9lBsvHCKdJ6WfUeYYdEt1lLYOOzuWKA0QqEEkaj
3XZ+h9MEkcVKmr47wBkjIEGy//4WmpeVyr1zaSpaiNpfsN+S552nCJ7EItGRb6wj
NKMq6jDuO2CayM7R4FiNlC3JsUd++E20ed1sRaZrQn4ZhSTDjes7DDTTspLWJEaP
1fR7DoI3zOyNU+2tZ2DPwGY6z2nZOu81eHfGj5Hp72huQnhZtCrK5b6GrgiDJuZL
G/7SblwySY9GU14iEfPw7dfNW39bqczYkVZ1EA==
-----END CERTIFICATE-----
