Certificate:
    Data:
        Version: 3 (0x2)
        Serial Number:
            b7:e9:e1:c0:08:cd:aa:d0:ab:c7:55:a3:77:59:7a:34
        Signature Algorithm: sha256WithRSAEncryption
        Issuer: CN=team765-net
        Validity
            Not Before: May 19 00:13:50 2022 GMT
            Not After : May  3 00:13:50 2025 GMT
        Subject: CN=team765-client
        Subject Public Key Info:
            Public Key Algorithm: rsaEncryption
                RSA Public-Key: (2048 bit)
                Modulus:
                    00:ec:bf:7d:b8:87:64:81:f9:cc:de:9b:ca:59:3b:
                    da:63:95:d0:0c:3e:a1:34:af:04:53:c7:5d:e2:02:
                    fc:f7:82:1f:f0:f3:87:f8:a9:ca:37:b4:89:1f:c6:
                    9d:ec:e5:6c:48:12:75:f6:7b:af:3d:e2:94:4c:ec:
                    34:59:f5:eb:ad:94:66:ae:0b:fc:97:83:f3:f3:fa:
                    e9:67:ba:47:3e:74:b4:7c:58:45:1b:34:20:ec:1d:
                    87:99:fe:e7:f4:ed:85:51:2f:c3:aa:9d:85:1a:22:
                    34:ab:06:c1:44:03:a4:fb:f1:b1:4e:12:d5:d7:a3:
                    8c:68:f5:25:75:dd:22:30:82:1a:27:5c:bc:23:a3:
                    72:5b:d1:3e:28:87:5c:50:62:92:de:87:d4:c0:51:
                    e7:e9:1b:b3:29:bd:d0:9d:db:a4:18:86:2a:aa:50:
                    dd:13:9a:bc:04:f2:65:67:e2:04:bd:2d:79:b4:43:
                    76:84:21:a3:dd:fb:21:48:c7:03:80:58:10:3e:f5:
                    a2:8e:82:d7:a1:9f:72:83:3e:5d:73:34:5b:50:7d:
                    f6:96:e4:d8:8e:cc:67:00:ef:03:fa:64:97:e5:1f:
                    bf:7d:48:2c:7e:fd:f2:8d:0a:73:ee:ae:f1:10:a9:
                    37:7e:e6:2d:21:fe:ae:6e:07:b6:7b:5e:61:11:34:
                    a0:6f
                Exponent: 65537 (0x10001)
        X509v3 extensions:
            X509v3 Basic Constraints: 
                CA:FALSE
            X509v3 Subject Key Identifier: 
                32:09:BA:08:EB:8B:93:C7:79:E0:A4:62:34:2D:CD:27:A7:26:58:26
            X509v3 Authority Key Identifier: 
                keyid:76:D5:19:0E:0F:89:87:32:FC:8B:63:FB:DA:D9:DD:11:CF:1E:A7:F6
                DirName:/CN=team765-net
                serial:39:70:D9:F6:B3:97:6A:09:89:84:04:3F:8B:45:46:38:39:9B:FD:DD

            X509v3 Extended Key Usage: 
                TLS Web Client Authentication
            X509v3 Key Usage: 
                Digital Signature
    Signature Algorithm: sha256WithRSAEncryption
         11:a5:62:b6:21:6e:14:13:26:e2:b8:32:ba:19:93:b2:26:7b:
         0e:04:48:d5:3a:90:a2:e0:1c:8e:c1:a7:4f:7e:05:af:e3:86:
         2b:12:3f:a1:09:f0:6b:24:82:93:fc:70:dc:b0:8f:e1:94:01:
         ad:af:96:bb:15:91:da:5c:e4:12:09:3b:d9:a9:66:b4:b9:67:
         9b:74:7d:b9:25:9f:06:32:0b:29:f8:1e:d2:fe:80:46:54:ff:
         e6:67:fb:22:d0:e5:0c:51:57:32:f3:e6:84:55:af:bb:27:e1:
         88:32:19:1f:1c:b4:2f:ed:78:bc:30:78:89:8c:d1:fa:0f:41:
         56:67:b9:e1:d8:e4:00:c2:66:77:65:af:38:1b:49:e0:88:d0:
         8c:98:8c:d1:87:a5:8c:61:f1:7d:6a:cc:65:5f:4a:cb:1a:8f:
         bd:cc:e6:22:92:5b:d0:1b:eb:f3:cc:71:8c:56:5a:9a:85:95:
         d5:86:5c:48:a2:d3:c4:dc:be:23:40:e9:dc:ef:a6:7f:4d:df:
         00:fa:bd:27:97:4d:9f:3a:53:6c:2a:dd:3f:be:17:2d:7c:7e:
         76:cf:7e:d3:3b:d0:b6:15:44:d5:52:94:a9:d0:34:d5:94:e4:
         98:2d:07:b1:3e:7c:26:1d:42:64:a1:14:98:5b:aa:1f:08:d5:
         ca:18:a7:a8
-----BEGIN CERTIFICATE-----
MIIDXTCCAkWgAwIBAgIRALfp4cAIzarQq8dVo3dZejQwDQYJKoZIhvcNAQELBQAw
FjEUMBIGA1UEAwwLdGVhbTc2NS1uZXQwHhcNMjIwNTE5MDAxMzUwWhcNMjUwNTAz
MDAxMzUwWjAZMRcwFQYDVQQDDA50ZWFtNzY1LWNsaWVudDCCASIwDQYJKoZIhvcN
AQEBBQADggEPADCCAQoCggEBAOy/fbiHZIH5zN6bylk72mOV0Aw+oTSvBFPHXeIC
/PeCH/Dzh/ipyje0iR/GnezlbEgSdfZ7rz3ilEzsNFn1662UZq4L/JeD8/P66We6
Rz50tHxYRRs0IOwdh5n+5/TthVEvw6qdhRoiNKsGwUQDpPvxsU4S1dejjGj1JXXd
IjCCGidcvCOjclvRPiiHXFBikt6H1MBR5+kbsym90J3bpBiGKqpQ3ROavATyZWfi
BL0tebRDdoQho937IUjHA4BYED71oo6C16GfcoM+XXM0W1B99pbk2I7MZwDvA/pk
l+Ufv31ILH798o0Kc+6u8RCpN37mLSH+rm4HtnteYRE0oG8CAwEAAaOBojCBnzAJ
BgNVHRMEAjAAMB0GA1UdDgQWBBQyCboI64uTx3ngpGI0Lc0npyZYJjBRBgNVHSME
SjBIgBR21RkOD4mHMvyLY/va2d0Rzx6n9qEapBgwFjEUMBIGA1UEAwwLdGVhbTc2
NS1uZXSCFDlw2fazl2oJiYQEP4tFRjg5m/3dMBMGA1UdJQQMMAoGCCsGAQUFBwMC
MAsGA1UdDwQEAwIHgDANBgkqhkiG9w0BAQsFAAOCAQEAEaVitiFuFBMm4rgyuhmT
siZ7DgRI1TqQouAcjsGnT34Fr+OGKxI/oQnwaySCk/xw3LCP4ZQBra+WuxWR2lzk
Egk72almtLlnm3R9uSWfBjILKfge0v6ARlT/5mf7ItDlDFFXMvPmhFWvuyfhiDIZ
Hxy0L+14vDB4iYzR+g9BVme54djkAMJmd2WvOBtJ4IjQjJiM0YeljGHxfWrMZV9K
yxqPvczmIpJb0Bvr88xxjFZamoWV1YZcSKLTxNy+I0Dp3O+mf03fAPq9J5dNnzpT
bCrdP74XLXx+ds9+0zvQthVE1VKUqdA01ZTkmC0HsT58Jh1CZKEUmFuqHwjVyhin
qA==
-----END CERTIFICATE-----
