Certificate:
    Data:
        Version: 3 (0x2)
        Serial Number:
            e7:db:6f:fe:0a:0e:c1:55:b2:73:b4:0b:2d:a0:a1:79
        Signature Algorithm: sha256WithRSAEncryption
        Issuer: CN=team654-net
        Validity
            Not Before: May 18 23:21:12 2022 GMT
            Not After : May  2 23:21:12 2025 GMT
        Subject: CN=team654-server
        Subject Public Key Info:
            Public Key Algorithm: rsaEncryption
                RSA Public-Key: (2048 bit)
                Modulus:
                    00:cc:90:45:41:d4:22:47:7e:ce:f1:c9:32:86:c6:
                    54:6c:ff:20:03:f3:e3:45:d0:d4:dd:6a:8b:2e:5d:
                    ad:99:e7:3f:a9:5f:76:ce:ee:49:69:3f:d7:ab:25:
                    5c:de:3d:b8:e2:9c:8b:ad:15:65:6f:5e:91:a1:db:
                    65:b8:fe:b0:41:0f:48:c5:0b:e3:cd:2b:a0:6d:32:
                    c3:32:c1:32:9e:3a:b8:2c:19:ca:eb:c6:ff:56:3d:
                    74:e2:e3:e6:46:e8:ae:79:a8:93:3f:18:79:05:cc:
                    47:56:ed:b3:88:8f:11:47:23:16:c2:60:7e:ae:c8:
                    a9:f6:ca:86:82:02:8d:c0:28:a4:00:1d:84:20:e7:
                    4c:f4:2d:71:dc:c1:06:dd:0e:50:67:4e:c8:39:5e:
                    c8:84:4b:bd:12:c1:5e:63:ff:4a:8f:a1:52:20:b9:
                    4f:9c:c1:65:a4:87:1e:1f:db:6d:6b:04:54:d9:6e:
                    59:34:94:37:f6:cc:c8:33:fd:91:64:cc:c5:4f:7b:
                    c5:15:c5:c7:bb:30:b8:7d:44:f6:1d:8a:e9:e4:7f:
                    3d:28:19:2a:6e:4a:ca:1e:ea:14:56:d4:0e:1a:61:
                    b0:da:b0:92:c3:4e:dd:e6:be:69:45:c4:c1:68:b2:
                    7b:ae:e9:c7:cb:dd:94:fa:59:a4:1d:98:fb:03:e8:
                    1b:4b
                Exponent: 65537 (0x10001)
        X509v3 extensions:
            X509v3 Basic Constraints: 
                CA:FALSE
            X509v3 Subject Key Identifier: 
                80:88:EA:CF:21:C6:3D:C3:E8:E1:45:F4:81:14:E9:00:EA:50:45:B9
            X509v3 Authority Key Identifier: 
                keyid:85:27:EC:76:8D:D3:FD:47:F7:77:46:B8:09:12:CC:96:21:E5:7C:ED
                DirName:/CN=team654-net
                serial:7E:A4:A8:2A:F2:D6:B5:59:5E:A3:86:F3:F0:82:64:0A:7A:7F:21:F0

            X509v3 Extended Key Usage: 
                TLS Web Server Authentication
            X509v3 Key Usage: 
                Digital Signature, Key Encipherment
            X509v3 Subject Alternative Name: 
                DNS:team654-server
    Signature Algorithm: sha256WithRSAEncryption
         32:c1:2b:00:20:f0:91:45:51:e6:2d:5a:78:54:62:03:81:d1:
         6b:45:42:23:7f:da:42:45:60:92:52:ee:8c:52:4a:a3:c1:04:
         59:d3:44:48:fb:f9:26:2d:15:dc:0b:e9:9e:42:fd:c2:6a:a4:
         b4:e5:ec:30:a1:87:14:e4:ee:da:ae:64:92:61:29:99:65:93:
         d3:a5:9d:bc:47:62:36:47:a0:f8:40:03:e5:22:88:81:48:e5:
         fd:cd:48:75:01:ed:ba:9d:23:b1:61:a0:f3:8f:48:f1:ff:df:
         17:3a:e4:05:dc:ad:06:5a:59:a0:cb:06:3d:47:20:91:68:0d:
         b2:08:c0:2d:d8:06:1c:ee:ac:ce:15:36:0e:e2:7d:bf:4a:1a:
         85:25:7c:ae:1b:b4:0f:bf:9f:1e:a5:0e:04:78:ef:0c:35:0f:
         15:4e:94:e6:47:d0:0f:76:85:37:e8:c5:13:2a:53:a0:9a:a3:
         ca:e6:2c:f8:88:a5:33:e8:af:aa:03:9f:2f:b7:bc:f1:48:08:
         e5:dc:55:f7:e6:63:6c:0d:58:cb:b4:5d:44:8d:d2:a3:69:da:
         40:12:05:4c:39:db:55:bc:96:75:3b:ed:e6:88:59:a2:da:2d:
         bb:3f:f1:21:0f:de:98:c6:16:b1:ef:8b:d3:3f:20:86:75:1b:
         fe:bb:1a:9a
-----BEGIN CERTIFICATE-----
MIIDeDCCAmCgAwIBAgIRAOfbb/4KDsFVsnO0Cy2goXkwDQYJKoZIhvcNAQELBQAw
FjEUMBIGA1UEAwwLdGVhbTY1NC1uZXQwHhcNMjIwNTE4MjMyMTEyWhcNMjUwNTAy
MjMyMTEyWjAZMRcwFQYDVQQDDA50ZWFtNjU0LXNlcnZlcjCCASIwDQYJKoZIhvcN
AQEBBQADggEPADCCAQoCggEBAMyQRUHUIkd+zvHJMobGVGz/IAPz40XQ1N1qiy5d
rZnnP6lfds7uSWk/16slXN49uOKci60VZW9ekaHbZbj+sEEPSMUL480roG0ywzLB
Mp46uCwZyuvG/1Y9dOLj5kbornmokz8YeQXMR1bts4iPEUcjFsJgfq7IqfbKhoIC
jcAopAAdhCDnTPQtcdzBBt0OUGdOyDleyIRLvRLBXmP/So+hUiC5T5zBZaSHHh/b
bWsEVNluWTSUN/bMyDP9kWTMxU97xRXFx7swuH1E9h2K6eR/PSgZKm5Kyh7qFFbU
DhphsNqwksNO3ea+aUXEwWiye67px8vdlPpZpB2Y+wPoG0sCAwEAAaOBvTCBujAJ
BgNVHRMEAjAAMB0GA1UdDgQWBBSAiOrPIcY9w+jhRfSBFOkA6lBFuTBRBgNVHSME
SjBIgBSFJ+x2jdP9R/d3RrgJEsyWIeV87aEapBgwFjEUMBIGA1UEAwwLdGVhbTY1
NC1uZXSCFH6kqCry1rVZXqOG8/CCZAp6fyHwMBMGA1UdJQQMMAoGCCsGAQUFBwMB
MAsGA1UdDwQEAwIFoDAZBgNVHREEEjAQgg50ZWFtNjU0LXNlcnZlcjANBgkqhkiG
9w0BAQsFAAOCAQEAMsErACDwkUVR5i1aeFRiA4HRa0VCI3/aQkVgklLujFJKo8EE
WdNESPv5Ji0V3AvpnkL9wmqktOXsMKGHFOTu2q5kkmEpmWWT06WdvEdiNkeg+EAD
5SKIgUjl/c1IdQHtup0jsWGg849I8f/fFzrkBdytBlpZoMsGPUcgkWgNsgjALdgG
HO6szhU2DuJ9v0oahSV8rhu0D7+fHqUOBHjvDDUPFU6U5kfQD3aFN+jFEypToJqj
yuYs+IilM+ivqgOfL7e88UgI5dxV9+ZjbA1Yy7RdRI3So2naQBIFTDnbVbyWdTvt
5ohZototuz/xIQ/emMYWse+L0z8ghnUb/rsamg==
-----END CERTIFICATE-----
