Certificate:
    Data:
        Version: 3 (0x2)
        Serial Number:
            0a:ae:5e:42:f9:78:b8:d9:25:90:0e:4c:65:0b:10:f5
        Signature Algorithm: sha256WithRSAEncryption
        Issuer: CN=team71-net
        Validity
            Not Before: May 18 14:31:53 2022 GMT
            Not After : May  2 14:31:53 2025 GMT
        Subject: CN=team71-server
        Subject Public Key Info:
            Public Key Algorithm: rsaEncryption
                RSA Public-Key: (2048 bit)
                Modulus:
                    00:e8:9d:cf:6e:bd:e5:be:93:55:3a:22:85:77:4e:
                    09:67:00:cb:84:8f:54:c4:99:3f:b9:98:b7:1d:e8:
                    22:f6:a2:23:4e:ab:a7:81:8e:fe:45:ab:ea:e1:bb:
                    ad:e9:fa:aa:7f:23:94:a3:e9:1d:51:78:27:5c:b8:
                    44:7f:b2:b5:a9:4a:f5:ae:6d:7c:22:10:df:b2:ee:
                    50:41:3f:fa:03:c5:07:cf:4e:e4:0a:f6:b5:56:24:
                    9d:82:2d:44:42:38:2e:53:4c:4a:0a:ca:02:20:0d:
                    bd:40:b8:f5:ec:98:07:ad:ba:63:50:19:5b:08:59:
                    9b:ed:c4:ee:63:55:8d:9a:3d:05:69:7f:60:41:82:
                    2a:17:1c:39:d4:c9:55:20:ea:30:f2:59:40:ef:c0:
                    f9:27:c2:ca:bf:ab:e3:c0:c5:09:ac:3c:cd:73:28:
                    5e:0e:ad:9c:0f:6d:16:7c:25:7e:79:3e:59:4b:46:
                    fd:b6:59:89:73:61:af:5a:59:5b:4f:af:05:82:4c:
                    6a:31:4f:21:44:70:f7:28:21:84:a2:f9:d3:50:67:
                    e4:ca:13:19:48:f5:90:69:fc:36:a6:b6:c7:5d:30:
                    7c:07:46:4d:48:cc:e7:ed:ca:21:0d:d2:9b:40:14:
                    f8:7b:ad:2b:c1:95:65:75:0e:1e:e4:3f:5b:1d:9b:
                    04:07
                Exponent: 65537 (0x10001)
        X509v3 extensions:
            X509v3 Basic Constraints: 
                CA:FALSE
            X509v3 Subject Key Identifier: 
                F3:7D:B8:C3:EC:8D:B2:91:CC:CA:7C:6C:75:A7:C9:F5:EF:B4:B1:9B
            X509v3 Authority Key Identifier: 
                keyid:4B:7A:64:5D:7F:7B:52:B7:00:24:96:90:98:35:1C:B6:79:DD:F7:C8
                DirName:/CN=team71-net
                serial:7A:A0:85:C7:0C:A2:18:2A:28:B3:80:A1:93:CD:31:20:23:8F:BE:6E

            X509v3 Extended Key Usage: 
                TLS Web Server Authentication
            X509v3 Key Usage: 
                Digital Signature, Key Encipherment
            X509v3 Subject Alternative Name: 
                DNS:team71-server
    Signature Algorithm: sha256WithRSAEncryption
         9c:97:f1:fa:99:f8:22:7c:5f:4e:88:96:73:4f:99:20:73:ac:
         f2:a3:a1:92:f3:65:d6:b2:d9:15:b2:cc:34:48:54:70:be:4b:
         c5:76:ad:56:da:7d:93:35:ac:bd:d3:60:b8:a3:75:b2:e5:7e:
         39:8b:01:28:1b:63:03:e9:68:a2:6f:2e:a6:b8:ac:8e:f6:29:
         2d:3d:ac:b4:50:85:ee:99:2a:15:45:70:2c:11:d0:34:a7:8d:
         39:82:c4:55:50:6b:60:70:94:ea:61:67:01:15:36:69:31:35:
         6c:81:eb:e8:e7:0c:f9:bb:20:49:d7:fa:a9:a5:df:73:5d:3c:
         0e:5a:2b:df:ef:f4:6b:1c:31:d2:ff:aa:06:45:f2:ae:a4:0f:
         43:d5:ae:86:7c:04:67:c2:35:9d:5f:8c:52:17:ea:ac:67:1a:
         64:1d:c6:c0:6a:a3:53:cd:ec:ef:b4:f3:7e:f6:1d:55:5d:92:
         c2:9b:e2:e1:d4:7c:6a:5a:b9:b9:1b:e0:d6:c7:ea:ec:04:7f:
         99:17:12:13:0f:94:01:bd:6d:44:dd:f7:2b:7c:54:31:a3:4d:
         97:f7:c4:af:9a:59:5f:3a:bb:9b:3d:60:2a:4b:ef:c8:be:45:
         aa:f5:36:08:59:26:4c:de:bb:61:3b:da:25:6d:fa:20:f5:fa:
         0b:ce:a6:85
-----BEGIN CERTIFICATE-----
MIIDczCCAlugAwIBAgIQCq5eQvl4uNklkA5MZQsQ9TANBgkqhkiG9w0BAQsFADAV
MRMwEQYDVQQDDAp0ZWFtNzEtbmV0MB4XDTIyMDUxODE0MzE1M1oXDTI1MDUwMjE0
MzE1M1owGDEWMBQGA1UEAwwNdGVhbTcxLXNlcnZlcjCCASIwDQYJKoZIhvcNAQEB
BQADggEPADCCAQoCggEBAOidz2695b6TVToihXdOCWcAy4SPVMSZP7mYtx3oIvai
I06rp4GO/kWr6uG7ren6qn8jlKPpHVF4J1y4RH+ytalK9a5tfCIQ37LuUEE/+gPF
B89O5Ar2tVYknYItREI4LlNMSgrKAiANvUC49eyYB626Y1AZWwhZm+3E7mNVjZo9
BWl/YEGCKhccOdTJVSDqMPJZQO/A+SfCyr+r48DFCaw8zXMoXg6tnA9tFnwlfnk+
WUtG/bZZiXNhr1pZW0+vBYJMajFPIURw9yghhKL501Bn5MoTGUj1kGn8Nqa2x10w
fAdGTUjM5+3KIQ3Sm0AU+HutK8GVZXUOHuQ/Wx2bBAcCAwEAAaOBuzCBuDAJBgNV
HRMEAjAAMB0GA1UdDgQWBBTzfbjD7I2ykczKfGx1p8n177SxmzBQBgNVHSMESTBH
gBRLemRdf3tStwAklpCYNRy2ed33yKEZpBcwFTETMBEGA1UEAwwKdGVhbTcxLW5l
dIIUeqCFxwyiGCoos4Chk80xICOPvm4wEwYDVR0lBAwwCgYIKwYBBQUHAwEwCwYD
VR0PBAQDAgWgMBgGA1UdEQQRMA+CDXRlYW03MS1zZXJ2ZXIwDQYJKoZIhvcNAQEL
BQADggEBAJyX8fqZ+CJ8X06IlnNPmSBzrPKjoZLzZday2RWyzDRIVHC+S8V2rVba
fZM1rL3TYLijdbLlfjmLASgbYwPpaKJvLqa4rI72KS09rLRQhe6ZKhVFcCwR0DSn
jTmCxFVQa2BwlOphZwEVNmkxNWyB6+jnDPm7IEnX+qml33NdPA5aK9/v9GscMdL/
qgZF8q6kD0PVroZ8BGfCNZ1fjFIX6qxnGmQdxsBqo1PN7O+08372HVVdksKb4uHU
fGpaubkb4NbH6uwEf5kXEhMPlAG9bUTd9yt8VDGjTZf3xK+aWV86u5s9YCpL78i+
Rar1NghZJkzeu2E72iVt+iD1+gvOpoU=
-----END CERTIFICATE-----
