Certificate:
    Data:
        Version: 3 (0x2)
        Serial Number:
            75:d2:9c:02:c0:41:92:90:90:23:4f:aa:a4:34:d5:b0
        Signature Algorithm: sha256WithRSAEncryption
        Issuer: CN=team171-net
        Validity
            Not Before: May 18 18:46:32 2022 GMT
            Not After : May  2 18:46:32 2025 GMT
        Subject: CN=team171-client
        Subject Public Key Info:
            Public Key Algorithm: rsaEncryption
                RSA Public-Key: (2048 bit)
                Modulus:
                    00:ab:1d:fe:d4:1e:8b:25:85:dc:90:3e:fb:e8:0e:
                    93:1d:09:59:7d:c1:36:c1:d2:1e:13:1b:8f:f5:b6:
                    a4:29:fa:39:68:68:e3:54:38:6f:d7:a9:12:4e:0f:
                    78:70:d8:5d:80:16:7a:d7:fa:5b:6f:f1:ad:86:54:
                    aa:55:4e:5d:4e:d2:b1:75:0d:b1:16:81:9c:56:ef:
                    82:3f:08:32:7d:e2:2e:bd:0a:c9:4a:a1:24:16:76:
                    70:dd:95:fb:f9:1e:f7:ef:56:f7:9c:26:bb:6f:b4:
                    d2:cb:be:24:d7:66:52:3b:02:93:63:2b:ef:2a:b1:
                    fe:fd:79:59:d9:cd:69:bc:cf:61:1a:47:12:c2:14:
                    ca:30:ae:03:5f:78:de:ae:34:94:0f:60:18:42:74:
                    84:3c:b8:79:86:b7:6f:b7:04:48:67:13:56:17:ec:
                    dd:de:b5:3c:75:87:42:f9:cd:0a:75:e6:3b:42:db:
                    36:5c:9d:2a:5f:a3:5c:b1:7d:a2:09:3a:b2:32:86:
                    f0:74:8c:b4:f7:bd:24:f6:00:9b:59:92:d6:ca:0e:
                    6c:5e:54:07:fd:30:63:e3:36:96:56:83:06:55:41:
                    c4:97:42:88:3c:69:9b:52:b7:1b:eb:87:07:01:53:
                    a0:27:e1:15:86:21:72:c9:ea:29:98:87:f4:05:7b:
                    b7:df
                Exponent: 65537 (0x10001)
        X509v3 extensions:
            X509v3 Basic Constraints: 
                CA:FALSE
            X509v3 Subject Key Identifier: 
                A7:59:EA:A0:B3:3D:D0:89:C3:E1:9C:5E:B0:CC:8E:E6:AD:D8:25:C4
            X509v3 Authority Key Identifier: 
                keyid:95:EB:8D:17:35:29:4D:6C:EE:61:7C:D3:0F:94:C3:73:1F:C7:DD:A0
                DirName:/CN=team171-net
                serial:14:9F:6D:CA:CE:87:EB:D6:1C:F6:47:A5:47:03:F8:78:6E:5E:73:16

            X509v3 Extended Key Usage: 
                TLS Web Client Authentication
            X509v3 Key Usage: 
                Digital Signature
    Signature Algorithm: sha256WithRSAEncryption
         4d:30:20:6e:b6:35:fa:81:74:19:4a:45:30:65:37:d3:b1:c0:
         97:2b:30:ee:0b:42:d2:02:d0:b1:3b:d5:19:e8:83:45:72:a2:
         c1:7c:f9:a4:cd:63:2d:43:f9:4b:3d:41:fd:7f:9f:fd:46:39:
         f8:de:5a:6f:33:a6:cb:8b:df:89:9c:ed:da:00:4e:f1:10:67:
         ef:0b:95:90:38:d0:4f:73:d7:a3:f0:35:fa:b9:c2:63:06:d4:
         04:f6:a6:86:55:56:80:8f:cb:2a:4d:04:e4:c3:21:37:44:fb:
         67:e7:58:15:64:1b:fd:04:a0:20:5f:36:17:63:f7:cd:bb:17:
         36:18:fd:1f:7d:0c:22:74:58:aa:dc:7e:9e:39:0f:6e:ff:da:
         be:24:f7:2c:78:68:bc:54:10:d5:ed:f7:0c:c8:c2:ca:c7:35:
         ad:d7:92:91:bc:1d:05:39:66:76:25:cc:d4:05:ae:c1:73:7b:
         bb:7d:5e:51:f8:cb:c8:43:0a:6a:36:97:45:c6:a2:22:27:ce:
         96:28:d7:d8:8f:a7:20:14:d6:f2:d3:4a:f0:df:01:8a:f9:8e:
         d9:93:b2:b2:ef:a6:23:d8:4f:83:88:0e:7b:5a:99:61:e8:98:
         43:e4:5b:bb:a9:72:cd:cf:0a:7d:55:b8:a7:7c:c7:54:c7:fe:
         b6:67:7d:b8
-----BEGIN CERTIFICATE-----
MIIDXDCCAkSgAwIBAgIQddKcAsBBkpCQI0+qpDTVsDANBgkqhkiG9w0BAQsFADAW
MRQwEgYDVQQDDAt0ZWFtMTcxLW5ldDAeFw0yMjA1MTgxODQ2MzJaFw0yNTA1MDIx
ODQ2MzJaMBkxFzAVBgNVBAMMDnRlYW0xNzEtY2xpZW50MIIBIjANBgkqhkiG9w0B
AQEFAAOCAQ8AMIIBCgKCAQEAqx3+1B6LJYXckD776A6THQlZfcE2wdIeExuP9bak
Kfo5aGjjVDhv16kSTg94cNhdgBZ61/pbb/GthlSqVU5dTtKxdQ2xFoGcVu+CPwgy
feIuvQrJSqEkFnZw3ZX7+R7371b3nCa7b7TSy74k12ZSOwKTYyvvKrH+/XlZ2c1p
vM9hGkcSwhTKMK4DX3jerjSUD2AYQnSEPLh5hrdvtwRIZxNWF+zd3rU8dYdC+c0K
deY7Qts2XJ0qX6NcsX2iCTqyMobwdIy0970k9gCbWZLWyg5sXlQH/TBj4zaWVoMG
VUHEl0KIPGmbUrcb64cHAVOgJ+EVhiFyyeopmIf0BXu33wIDAQABo4GiMIGfMAkG
A1UdEwQCMAAwHQYDVR0OBBYEFKdZ6qCzPdCJw+GcXrDMjuat2CXEMFEGA1UdIwRK
MEiAFJXrjRc1KU1s7mF80w+Uw3Mfx92goRqkGDAWMRQwEgYDVQQDDAt0ZWFtMTcx
LW5ldIIUFJ9tys6H69Yc9kelRwP4eG5ecxYwEwYDVR0lBAwwCgYIKwYBBQUHAwIw
CwYDVR0PBAQDAgeAMA0GCSqGSIb3DQEBCwUAA4IBAQBNMCButjX6gXQZSkUwZTfT
scCXKzDuC0LSAtCxO9UZ6INFcqLBfPmkzWMtQ/lLPUH9f5/9Rjn43lpvM6bLi9+J
nO3aAE7xEGfvC5WQONBPc9ej8DX6ucJjBtQE9qaGVVaAj8sqTQTkwyE3RPtn51gV
ZBv9BKAgXzYXY/fNuxc2GP0ffQwidFiq3H6eOQ9u/9q+JPcseGi8VBDV7fcMyMLK
xzWt15KRvB0FOWZ2JczUBa7Bc3u7fV5R+MvIQwpqNpdFxqIiJ86WKNfYj6cgFNby
00rw3wGK+Y7Zk7Ky76Yj2E+DiA57Wplh6JhD5Fu7qXLNzwp9VbinfMdUx/62Z324
-----END CERTIFICATE-----
