Certificate:
    Data:
        Version: 3 (0x2)
        Serial Number:
            1c:c2:d4:89:83:d0:21:94:24:2a:88:58:58:8b:87:81
        Signature Algorithm: sha256WithRSAEncryption
        Issuer: CN=team214-net
        Validity
            Not Before: May 18 19:09:18 2022 GMT
            Not After : May  2 19:09:18 2025 GMT
        Subject: CN=team214-server
        Subject Public Key Info:
            Public Key Algorithm: rsaEncryption
                RSA Public-Key: (2048 bit)
                Modulus:
                    00:b6:7a:72:39:3e:77:e4:60:0a:fe:04:e5:0c:97:
                    ce:87:59:bf:55:5d:0d:04:a1:bd:50:40:46:f0:8e:
                    23:5a:da:7f:fb:55:fc:ad:95:59:17:eb:37:d1:5e:
                    32:19:28:99:19:65:bb:12:28:39:5d:b8:2f:b8:aa:
                    63:b9:4c:9c:ca:f6:b4:5a:37:97:df:a3:99:88:4c:
                    55:77:3e:c2:33:ca:a2:53:40:63:69:e1:50:5c:f9:
                    e2:bc:ad:fe:23:0b:3b:c4:4f:fb:a7:df:ee:1f:d1:
                    31:ef:01:f9:cd:cd:69:28:88:2c:99:ca:4a:b2:e0:
                    f7:48:90:11:d8:55:ba:6c:82:0a:83:cc:83:59:11:
                    2b:87:f4:50:51:13:b4:2b:7a:ba:de:d6:11:73:e7:
                    8a:0e:2b:e6:27:98:2f:e3:13:83:72:47:6f:7f:e5:
                    f7:4e:ca:9a:23:5f:77:a8:c4:4f:b2:3c:89:60:5a:
                    28:4f:19:37:cb:b8:1c:bf:2e:da:c5:34:41:e7:17:
                    f6:c8:14:98:8b:0c:00:9f:2c:0f:bc:ed:55:61:d7:
                    72:1b:3f:09:66:4b:48:84:9e:34:bf:8c:bb:29:a6:
                    62:1b:01:d3:a9:cb:e6:4e:ef:ad:88:bb:2a:44:2a:
                    5e:4e:9d:f7:ef:df:10:b4:06:65:d0:5e:68:f6:71:
                    ce:35
                Exponent: 65537 (0x10001)
        X509v3 extensions:
            X509v3 Basic Constraints: 
                CA:FALSE
            X509v3 Subject Key Identifier: 
                D1:F7:9F:25:A0:D9:73:9A:60:F1:39:31:92:3E:B7:24:CA:94:07:25
            X509v3 Authority Key Identifier: 
                keyid:85:DE:11:27:55:E3:77:0A:02:51:E3:92:4D:5B:CC:D0:16:D7:8F:CD
                DirName:/CN=team214-net
                serial:16:D8:80:1A:B0:6F:BC:2D:17:46:5D:6E:2E:6F:CF:D2:96:FA:84:8D

            X509v3 Extended Key Usage: 
                TLS Web Server Authentication
            X509v3 Key Usage: 
                Digital Signature, Key Encipherment
            X509v3 Subject Alternative Name: 
                DNS:team214-server
    Signature Algorithm: sha256WithRSAEncryption
         41:35:bc:99:92:2f:92:7c:c8:97:ae:e3:05:c6:52:dd:c3:59:
         4b:1c:0d:d1:55:16:ed:ea:28:f9:d9:0e:ed:79:e3:cf:f5:5c:
         d9:31:c9:88:72:f0:3e:73:f7:fd:6a:39:6f:97:56:70:43:ab:
         bc:b1:90:63:5d:da:f6:f9:3d:03:4b:59:bf:a6:3c:fb:6d:cb:
         3c:50:dc:66:dd:98:a5:4c:57:36:5e:2b:d2:0c:f8:db:f3:ec:
         c7:f4:e1:86:c7:ac:48:05:6c:61:ed:c0:69:72:93:35:6a:bd:
         6f:4d:fb:bf:04:05:15:ee:e4:7d:49:1f:af:a8:ca:28:35:72:
         72:b4:e3:c5:0a:38:dd:e4:4b:6f:40:89:95:aa:7c:cd:09:2c:
         bc:c0:c4:78:84:8f:f2:a1:00:54:16:25:fa:13:71:b9:96:f4:
         36:2e:b0:a3:0c:d8:7a:70:27:3d:6f:a7:a6:34:eb:b3:a7:58:
         f8:18:68:bd:34:52:84:d1:0d:da:16:7f:11:51:ac:fb:49:cb:
         fb:77:45:3b:77:9d:df:19:a1:6f:17:2c:3e:19:6a:b4:ed:54:
         c3:d4:d0:d7:73:e6:c2:7c:b7:b6:d1:23:48:07:1c:ba:7e:80:
         93:1f:79:42:03:dc:ff:d6:de:c8:62:bc:f7:b0:bf:23:1a:b0:
         9c:65:48:67
-----BEGIN CERTIFICATE-----
MIIDdzCCAl+gAwIBAgIQHMLUiYPQIZQkKohYWIuHgTANBgkqhkiG9w0BAQsFADAW
MRQwEgYDVQQDDAt0ZWFtMjE0LW5ldDAeFw0yMjA1MTgxOTA5MThaFw0yNTA1MDIx
OTA5MThaMBkxFzAVBgNVBAMMDnRlYW0yMTQtc2VydmVyMIIBIjANBgkqhkiG9w0B
AQEFAAOCAQ8AMIIBCgKCAQEAtnpyOT535GAK/gTlDJfOh1m/VV0NBKG9UEBG8I4j
Wtp/+1X8rZVZF+s30V4yGSiZGWW7Eig5XbgvuKpjuUycyva0WjeX36OZiExVdz7C
M8qiU0BjaeFQXPnivK3+Iws7xE/7p9/uH9Ex7wH5zc1pKIgsmcpKsuD3SJAR2FW6
bIIKg8yDWRErh/RQURO0K3q63tYRc+eKDivmJ5gv4xODckdvf+X3TsqaI193qMRP
sjyJYFooTxk3y7gcvy7axTRB5xf2yBSYiwwAnywPvO1VYddyGz8JZktIhJ40v4y7
KaZiGwHTqcvmTu+tiLsqRCpeTp33798QtAZl0F5o9nHONQIDAQABo4G9MIG6MAkG
A1UdEwQCMAAwHQYDVR0OBBYEFNH3nyWg2XOaYPE5MZI+tyTKlAclMFEGA1UdIwRK
MEiAFIXeESdV43cKAlHjkk1bzNAW14/NoRqkGDAWMRQwEgYDVQQDDAt0ZWFtMjE0
LW5ldIIUFtiAGrBvvC0XRl1uLm/P0pb6hI0wEwYDVR0lBAwwCgYIKwYBBQUHAwEw
CwYDVR0PBAQDAgWgMBkGA1UdEQQSMBCCDnRlYW0yMTQtc2VydmVyMA0GCSqGSIb3
DQEBCwUAA4IBAQBBNbyZki+SfMiXruMFxlLdw1lLHA3RVRbt6ij52Q7teePP9VzZ
McmIcvA+c/f9ajlvl1ZwQ6u8sZBjXdr2+T0DS1m/pjz7bcs8UNxm3ZilTFc2XivS
DPjb8+zH9OGGx6xIBWxh7cBpcpM1ar1vTfu/BAUV7uR9SR+vqMooNXJytOPFCjjd
5EtvQImVqnzNCSy8wMR4hI/yoQBUFiX6E3G5lvQ2LrCjDNh6cCc9b6emNOuzp1j4
GGi9NFKE0Q3aFn8RUaz7Scv7d0U7d53fGaFvFyw+GWq07VTD1NDXc+bCfLe20SNI
Bxy6foCTH3lCA9z/1t7IYrz3sL8jGrCcZUhn
-----END CERTIFICATE-----
