Certificate:
    Data:
        Version: 3 (0x2)
        Serial Number:
            3b:1c:0e:ec:94:56:71:35:ee:6d:98:75:88:d3:1c:bb
        Signature Algorithm: sha256WithRSAEncryption
        Issuer: CN=team99-net
        Validity
            Not Before: May 18 14:49:32 2022 GMT
            Not After : May  2 14:49:32 2025 GMT
        Subject: CN=team99-server
        Subject Public Key Info:
            Public Key Algorithm: rsaEncryption
                RSA Public-Key: (2048 bit)
                Modulus:
                    00:ab:cd:29:59:33:b1:24:59:ca:14:37:84:6d:48:
                    ad:09:96:9c:e6:29:e8:12:64:9e:d1:9c:35:fb:2e:
                    d5:3b:6d:32:2c:6e:04:f5:02:ce:56:b1:36:c9:a2:
                    ae:24:68:35:c2:b2:94:3b:bf:c3:8a:23:b3:18:05:
                    6c:b9:8c:90:9e:69:4b:e2:6b:c8:a2:b5:e6:43:08:
                    29:8d:e4:1d:04:2b:d0:26:96:75:4e:32:97:55:b8:
                    0d:0f:02:91:87:97:64:51:c0:ad:38:91:bc:1d:7f:
                    ee:d3:f8:23:03:d3:9e:c4:df:e9:98:7d:24:f0:00:
                    48:5d:38:e9:76:41:83:a6:15:dd:07:36:b9:c2:32:
                    97:ea:82:cc:20:75:22:69:f7:6a:fe:6d:97:9e:4a:
                    f0:3c:47:3b:a0:16:aa:88:a0:2c:9e:56:c8:7f:1d:
                    88:77:d1:e6:a6:fb:f7:09:f4:e9:29:9e:05:40:78:
                    61:37:d2:ab:1d:77:dc:ca:b2:82:d1:03:74:a7:27:
                    42:1f:90:43:04:98:a6:90:c1:2e:a1:61:a2:aa:a9:
                    cf:e8:7f:ca:56:97:1a:10:98:fa:5a:68:1a:a4:fc:
                    51:01:8e:a5:56:e5:1f:46:f7:c4:5e:50:fb:aa:7a:
                    ad:e8:dc:ad:12:39:d1:05:fe:7a:80:97:bc:79:cb:
                    61:cb
                Exponent: 65537 (0x10001)
        X509v3 extensions:
            X509v3 Basic Constraints: 
                CA:FALSE
            X509v3 Subject Key Identifier: 
                1A:F4:DD:9A:CF:3A:99:C0:DB:41:CD:AE:6F:C9:E0:CA:F4:5E:7A:0B
            X509v3 Authority Key Identifier: 
                keyid:CF:D6:F0:EB:7F:4B:8E:71:74:E4:47:74:B1:A6:27:CE:7C:9C:89:7C
                DirName:/CN=team99-net
                serial:0E:C4:E7:7B:96:BE:C3:F4:59:46:D1:A9:6D:04:B9:02:B1:93:2B:AD

            X509v3 Extended Key Usage: 
                TLS Web Server Authentication
            X509v3 Key Usage: 
                Digital Signature, Key Encipherment
            X509v3 Subject Alternative Name: 
                DNS:team99-server
    Signature Algorithm: sha256WithRSAEncryption
         b2:44:44:21:ac:a3:4c:db:30:2a:68:06:68:e0:d5:6b:c3:71:
         81:d4:be:b5:13:28:e6:06:45:5d:cc:e3:1b:10:89:ac:4d:f8:
         cd:31:14:af:50:45:25:56:c5:9c:65:24:15:f1:94:01:25:68:
         69:6c:c3:40:71:1a:66:f7:c5:8c:5e:91:ea:bd:f5:e1:31:2c:
         c4:e2:72:23:8a:b4:33:fe:ec:a2:81:c0:f9:55:6f:e7:91:12:
         d3:b7:35:87:80:be:ee:96:45:52:03:a0:b5:c9:72:e4:91:79:
         f7:9f:3e:44:4b:f5:86:41:02:88:13:47:f5:ac:88:8f:84:a0:
         30:e2:8d:16:f8:ea:0d:2d:00:e8:4c:e9:80:b8:e6:59:e3:9a:
         47:bd:32:1d:c2:6e:dd:32:f4:f0:70:04:3c:3c:ba:3f:bb:67:
         f1:92:e2:5b:44:b7:8d:e9:1e:5e:0f:39:1b:73:03:f9:4d:c5:
         ee:4c:15:cc:72:73:91:7a:6f:73:cc:27:73:80:c0:74:ab:2c:
         dc:96:0c:4b:41:8c:c7:f1:3e:4b:8c:f1:38:98:2b:e3:41:5e:
         ef:83:30:b4:56:1b:2a:99:f2:bd:d0:2c:f0:5d:33:9f:aa:5e:
         f1:af:2e:6a:98:eb:45:22:cb:f7:53:56:53:88:9a:38:2b:c8:
         59:59:3a:cd
-----BEGIN CERTIFICATE-----
MIIDczCCAlugAwIBAgIQOxwO7JRWcTXubZh1iNMcuzANBgkqhkiG9w0BAQsFADAV
MRMwEQYDVQQDDAp0ZWFtOTktbmV0MB4XDTIyMDUxODE0NDkzMloXDTI1MDUwMjE0
NDkzMlowGDEWMBQGA1UEAwwNdGVhbTk5LXNlcnZlcjCCASIwDQYJKoZIhvcNAQEB
BQADggEPADCCAQoCggEBAKvNKVkzsSRZyhQ3hG1IrQmWnOYp6BJkntGcNfsu1Ttt
MixuBPUCzlaxNsmiriRoNcKylDu/w4ojsxgFbLmMkJ5pS+JryKK15kMIKY3kHQQr
0CaWdU4yl1W4DQ8CkYeXZFHArTiRvB1/7tP4IwPTnsTf6Zh9JPAASF046XZBg6YV
3Qc2ucIyl+qCzCB1Imn3av5tl55K8DxHO6AWqoigLJ5WyH8diHfR5qb79wn06Sme
BUB4YTfSqx133MqygtEDdKcnQh+QQwSYppDBLqFhoqqpz+h/ylaXGhCY+lpoGqT8
UQGOpVblH0b3xF5Q+6p6rejcrRI50QX+eoCXvHnLYcsCAwEAAaOBuzCBuDAJBgNV
HRMEAjAAMB0GA1UdDgQWBBQa9N2azzqZwNtBza5vyeDK9F56CzBQBgNVHSMESTBH
gBTP1vDrf0uOcXTkR3SxpifOfJyJfKEZpBcwFTETMBEGA1UEAwwKdGVhbTk5LW5l
dIIUDsTne5a+w/RZRtGpbQS5ArGTK60wEwYDVR0lBAwwCgYIKwYBBQUHAwEwCwYD
VR0PBAQDAgWgMBgGA1UdEQQRMA+CDXRlYW05OS1zZXJ2ZXIwDQYJKoZIhvcNAQEL
BQADggEBALJERCGso0zbMCpoBmjg1WvDcYHUvrUTKOYGRV3M4xsQiaxN+M0xFK9Q
RSVWxZxlJBXxlAElaGlsw0BxGmb3xYxekeq99eExLMTiciOKtDP+7KKBwPlVb+eR
EtO3NYeAvu6WRVIDoLXJcuSRefefPkRL9YZBAogTR/WsiI+EoDDijRb46g0tAOhM
6YC45lnjmke9Mh3Cbt0y9PBwBDw8uj+7Z/GS4ltEt43pHl4PORtzA/lNxe5MFcxy
c5F6b3PMJ3OAwHSrLNyWDEtBjMfxPkuM8TiYK+NBXu+DMLRWGyqZ8r3QLPBdM5+q
XvGvLmqY60Uiy/dTVlOImjgryFlZOs0=
-----END CERTIFICATE-----
