Certificate:
    Data:
        Version: 3 (0x2)
        Serial Number:
            9a:d7:1c:b7:14:69:a9:9d:ea:4e:b6:58:6e:6c:c8:08
        Signature Algorithm: sha256WithRSAEncryption
        Issuer: CN=team195-net
        Validity
            Not Before: May 18 18:59:13 2022 GMT
            Not After : May  2 18:59:13 2025 GMT
        Subject: CN=team195-client
        Subject Public Key Info:
            Public Key Algorithm: rsaEncryption
                RSA Public-Key: (2048 bit)
                Modulus:
                    00:c3:9c:df:e7:4e:7b:9a:2b:ad:f1:b0:49:97:99:
                    c5:d6:54:34:7f:63:a4:d8:0c:21:f5:fd:3e:2e:e2:
                    b6:bd:d0:8d:8e:03:6a:7f:07:6b:a6:1e:2e:a9:4c:
                    b5:66:f7:a7:6d:99:e3:34:89:8e:55:1d:bb:0d:c2:
                    8d:6f:11:3a:99:d3:26:0f:eb:18:78:2f:ac:b7:83:
                    c5:91:db:7c:eb:ec:16:60:41:71:53:84:ca:dd:41:
                    d2:02:8c:b5:eb:e0:31:e2:16:c3:4c:96:7a:6f:6a:
                    89:6b:b5:bf:04:2d:e4:cd:32:cf:64:68:49:63:5a:
                    05:e0:45:2a:49:31:8a:81:67:d3:79:68:11:c9:69:
                    ed:13:98:09:2d:2c:71:a2:66:cc:fb:3e:ea:a3:87:
                    e2:30:5b:54:e8:b4:30:8a:cb:a5:ab:48:0b:30:2a:
                    58:f8:50:b4:5d:57:20:86:3e:64:53:c1:c1:7d:93:
                    77:b7:9d:cd:59:ff:56:6e:ac:69:bd:53:41:be:c8:
                    e0:88:37:d7:23:0d:14:ba:3e:92:3a:22:25:ec:95:
                    c1:f7:49:d0:8b:86:c3:b7:ac:56:67:dc:ff:7e:da:
                    31:60:a1:a0:d4:cc:45:4f:04:a3:1d:74:b3:53:26:
                    3b:a2:c2:9b:61:2f:cd:d4:43:d2:12:ed:db:d5:11:
                    a2:f9
                Exponent: 65537 (0x10001)
        X509v3 extensions:
            X509v3 Basic Constraints: 
                CA:FALSE
            X509v3 Subject Key Identifier: 
                61:9F:4C:64:50:7A:15:34:AF:1A:23:0B:D7:87:AC:4B:93:37:B6:D3
            X509v3 Authority Key Identifier: 
                keyid:2F:07:C8:10:1D:25:37:FA:63:6A:52:C1:C9:97:DE:38:70:17:31:2C
                DirName:/CN=team195-net
                serial:36:39:03:01:02:AE:89:F6:37:A2:11:5A:58:E5:64:9F:F2:72:0A:60

            X509v3 Extended Key Usage: 
                TLS Web Client Authentication
            X509v3 Key Usage: 
                Digital Signature
    Signature Algorithm: sha256WithRSAEncryption
         57:b4:df:d0:2e:93:77:54:d3:66:4e:7f:d0:30:d4:fb:71:b1:
         b6:c1:f9:86:52:97:5d:49:49:5d:3a:8c:1a:a0:5e:e6:22:0a:
         2d:c2:b4:d9:d4:48:46:ef:28:74:40:fa:2e:6f:d9:fa:0a:93:
         03:31:e0:29:ef:d8:4e:ce:e0:8b:b2:d2:04:11:f9:34:2c:76:
         85:b5:a9:36:b5:d1:86:15:66:93:15:d6:c2:83:45:53:09:94:
         db:31:c0:65:55:98:ed:f8:c9:25:fb:c6:52:74:b4:73:e1:a5:
         e2:96:17:2b:ec:20:5f:ab:00:54:bf:c7:88:89:89:a3:c6:b7:
         08:6a:40:1b:49:ef:07:1b:5d:80:f6:36:54:c4:4d:24:1e:f9:
         8c:a3:fc:d4:36:45:3d:ef:81:71:45:20:73:39:51:ed:be:90:
         fc:b3:38:f8:c0:d9:eb:78:50:56:41:e9:12:12:76:0c:99:61:
         38:d8:34:9c:80:9f:cd:91:78:16:63:15:c4:44:29:d2:9d:19:
         f3:e9:37:f0:6e:36:18:b6:c4:87:d3:b6:5d:a4:da:0b:ad:46:
         ef:81:41:0f:5f:34:07:75:b7:6d:1d:d5:79:38:ef:a6:bd:a5:
         7b:e7:a7:a6:58:ab:2c:cd:5b:ff:e9:45:80:14:93:c2:9a:b1:
         e4:a1:ad:51
-----BEGIN CERTIFICATE-----
MIIDXTCCAkWgAwIBAgIRAJrXHLcUaamd6k62WG5syAgwDQYJKoZIhvcNAQELBQAw
FjEUMBIGA1UEAwwLdGVhbTE5NS1uZXQwHhcNMjIwNTE4MTg1OTEzWhcNMjUwNTAy
MTg1OTEzWjAZMRcwFQYDVQQDDA50ZWFtMTk1LWNsaWVudDCCASIwDQYJKoZIhvcN
AQEBBQADggEPADCCAQoCggEBAMOc3+dOe5orrfGwSZeZxdZUNH9jpNgMIfX9Pi7i
tr3QjY4Dan8Ha6YeLqlMtWb3p22Z4zSJjlUduw3CjW8ROpnTJg/rGHgvrLeDxZHb
fOvsFmBBcVOEyt1B0gKMtevgMeIWw0yWem9qiWu1vwQt5M0yz2RoSWNaBeBFKkkx
ioFn03loEclp7ROYCS0scaJmzPs+6qOH4jBbVOi0MIrLpatICzAqWPhQtF1XIIY+
ZFPBwX2Td7edzVn/Vm6sab1TQb7I4Ig31yMNFLo+kjoiJeyVwfdJ0IuGw7esVmfc
/37aMWChoNTMRU8Eox10s1MmO6LCm2EvzdRD0hLt29URovkCAwEAAaOBojCBnzAJ
BgNVHRMEAjAAMB0GA1UdDgQWBBRhn0xkUHoVNK8aIwvXh6xLkze20zBRBgNVHSME
SjBIgBQvB8gQHSU3+mNqUsHJl944cBcxLKEapBgwFjEUMBIGA1UEAwwLdGVhbTE5
NS1uZXSCFDY5AwECron2N6IRWljlZJ/ycgpgMBMGA1UdJQQMMAoGCCsGAQUFBwMC
MAsGA1UdDwQEAwIHgDANBgkqhkiG9w0BAQsFAAOCAQEAV7Tf0C6Td1TTZk5/0DDU
+3GxtsH5hlKXXUlJXTqMGqBe5iIKLcK02dRIRu8odED6Lm/Z+gqTAzHgKe/YTs7g
i7LSBBH5NCx2hbWpNrXRhhVmkxXWwoNFUwmU2zHAZVWY7fjJJfvGUnS0c+Gl4pYX
K+wgX6sAVL/HiImJo8a3CGpAG0nvBxtdgPY2VMRNJB75jKP81DZFPe+BcUUgczlR
7b6Q/LM4+MDZ63hQVkHpEhJ2DJlhONg0nICfzZF4FmMVxEQp0p0Z8+k38G42GLbE
h9O2XaTaC61G74FBD180B3W3bR3VeTjvpr2le+enplirLM1b/+lFgBSTwpqx5KGt
UQ==
-----END CERTIFICATE-----
