Certificate:
    Data:
        Version: 3 (0x2)
        Serial Number:
            ff:38:86:6f:7f:a6:0c:b0:2e:4f:2c:38:d3:72:20:d4
        Signature Algorithm: sha256WithRSAEncryption
        Issuer: CN=team597-net
        Validity
            Not Before: May 18 22:39:36 2022 GMT
            Not After : May  2 22:39:36 2025 GMT
        Subject: CN=team597-server
        Subject Public Key Info:
            Public Key Algorithm: rsaEncryption
                RSA Public-Key: (2048 bit)
                Modulus:
                    00:e2:c9:92:7d:03:14:23:4c:e3:63:ef:63:7f:f8:
                    4a:f2:13:37:8d:ef:5b:7a:a3:39:ab:dd:50:28:14:
                    9d:4d:4e:2e:1c:06:19:24:fc:39:88:d6:a9:11:99:
                    29:c4:a0:f4:69:9f:ec:ae:b1:c5:60:88:1e:5a:66:
                    df:80:cd:d9:d7:e3:68:dd:33:c7:33:73:7a:86:31:
                    cf:ae:a9:2c:00:43:89:3a:90:40:59:23:b7:ff:ce:
                    42:21:ef:8b:c0:0e:6b:5b:c3:e4:43:99:6d:8a:ae:
                    41:72:22:d3:7f:5e:ab:cb:7c:90:26:e9:49:ae:88:
                    87:b4:ab:8e:fc:d1:21:a8:d7:75:8b:1b:37:aa:62:
                    02:4d:e4:6c:a2:e6:c2:ff:76:13:b5:64:6b:fd:e7:
                    4e:11:00:c3:a4:dc:1a:4a:a0:0c:1e:0c:4b:72:db:
                    af:cd:c6:30:e5:f5:4b:d2:20:e8:db:cd:6d:a7:95:
                    e4:34:05:5b:60:4e:e6:f5:15:54:aa:4d:68:33:51:
                    8a:dc:e1:fd:0b:89:17:95:61:fc:27:18:5b:c6:94:
                    df:1e:e6:c6:75:51:2d:4f:dd:2a:e2:f3:87:08:19:
                    4d:c3:7d:a4:dc:a9:2c:ad:0e:ec:45:b4:eb:a6:52:
                    7c:67:85:1c:12:ae:69:c5:c5:cc:37:c8:ec:ce:57:
                    25:37
                Exponent: 65537 (0x10001)
        X509v3 extensions:
            X509v3 Basic Constraints: 
                CA:FALSE
            X509v3 Subject Key Identifier: 
                29:51:64:0F:02:B0:2F:30:39:24:EB:6C:64:DB:E6:B3:18:D5:E7:CA
            X509v3 Authority Key Identifier: 
                keyid:FF:B7:AE:3D:08:BA:93:E9:CC:61:53:0A:D8:F5:32:15:83:90:52:69
                DirName:/CN=team597-net
                serial:2D:09:BB:F2:47:1D:D3:F6:65:B3:D4:99:45:11:0E:0A:21:1E:CC:1C

            X509v3 Extended Key Usage: 
                TLS Web Server Authentication
            X509v3 Key Usage: 
                Digital Signature, Key Encipherment
            X509v3 Subject Alternative Name: 
                DNS:team597-server
    Signature Algorithm: sha256WithRSAEncryption
         13:be:12:5a:5d:26:a5:28:f2:94:da:d1:fc:c5:28:eb:58:13:
         02:26:ed:c0:66:b1:59:2a:11:eb:ed:07:c7:5c:98:be:77:41:
         d9:18:30:76:54:f9:9e:ac:d9:62:5c:23:c4:00:4a:a1:a3:db:
         ab:29:74:7e:48:f8:27:de:8a:61:26:4d:10:dd:26:75:60:e0:
         48:0d:a2:d0:00:86:53:24:be:25:a5:4c:51:55:41:0e:7d:d0:
         aa:02:b4:34:56:54:1e:38:10:4a:51:58:e1:8f:3e:0b:c1:54:
         a2:f2:e0:31:60:00:ac:3b:5b:94:81:8f:b8:a4:d4:f1:30:f9:
         63:53:97:d2:6b:34:06:ea:74:6b:b8:20:9f:61:2d:87:53:1f:
         91:be:a8:ea:45:77:b6:74:87:83:c0:43:cd:15:78:08:87:e1:
         62:49:42:67:2a:c2:f9:7a:af:91:9d:54:85:16:7a:c9:25:62:
         4c:85:2c:28:d6:94:a8:7a:7a:9f:17:eb:43:21:c7:18:ae:c1:
         8a:62:14:63:9c:17:fb:b1:5a:7f:70:b2:c7:cd:29:d1:fe:25:
         63:32:33:a3:3f:de:d9:af:e3:42:da:56:55:54:02:3d:ec:f9:
         1e:8d:2b:c3:1f:c3:a9:84:ad:31:19:39:01:2b:1a:de:eb:c8:
         ab:85:1b:ae
-----BEGIN CERTIFICATE-----
MIIDeDCCAmCgAwIBAgIRAP84hm9/pgywLk8sONNyINQwDQYJKoZIhvcNAQELBQAw
FjEUMBIGA1UEAwwLdGVhbTU5Ny1uZXQwHhcNMjIwNTE4MjIzOTM2WhcNMjUwNTAy
MjIzOTM2WjAZMRcwFQYDVQQDDA50ZWFtNTk3LXNlcnZlcjCCASIwDQYJKoZIhvcN
AQEBBQADggEPADCCAQoCggEBAOLJkn0DFCNM42PvY3/4SvITN43vW3qjOavdUCgU
nU1OLhwGGST8OYjWqRGZKcSg9Gmf7K6xxWCIHlpm34DN2dfjaN0zxzNzeoYxz66p
LABDiTqQQFkjt//OQiHvi8AOa1vD5EOZbYquQXIi039eq8t8kCbpSa6Ih7SrjvzR
IajXdYsbN6piAk3kbKLmwv92E7Vka/3nThEAw6TcGkqgDB4MS3Lbr83GMOX1S9Ig
6NvNbaeV5DQFW2BO5vUVVKpNaDNRitzh/QuJF5Vh/CcYW8aU3x7mxnVRLU/dKuLz
hwgZTcN9pNypLK0O7EW066ZSfGeFHBKuacXFzDfI7M5XJTcCAwEAAaOBvTCBujAJ
BgNVHRMEAjAAMB0GA1UdDgQWBBQpUWQPArAvMDkk62xk2+azGNXnyjBRBgNVHSME
SjBIgBT/t649CLqT6cxhUwrY9TIVg5BSaaEapBgwFjEUMBIGA1UEAwwLdGVhbTU5
Ny1uZXSCFC0Ju/JHHdP2ZbPUmUURDgohHswcMBMGA1UdJQQMMAoGCCsGAQUFBwMB
MAsGA1UdDwQEAwIFoDAZBgNVHREEEjAQgg50ZWFtNTk3LXNlcnZlcjANBgkqhkiG
9w0BAQsFAAOCAQEAE74SWl0mpSjylNrR/MUo61gTAibtwGaxWSoR6+0Hx1yYvndB
2RgwdlT5nqzZYlwjxABKoaPbqyl0fkj4J96KYSZNEN0mdWDgSA2i0ACGUyS+JaVM
UVVBDn3QqgK0NFZUHjgQSlFY4Y8+C8FUovLgMWAArDtblIGPuKTU8TD5Y1OX0ms0
Bup0a7ggn2Eth1Mfkb6o6kV3tnSHg8BDzRV4CIfhYklCZyrC+XqvkZ1UhRZ6ySVi
TIUsKNaUqHp6nxfrQyHHGK7BimIUY5wX+7Faf3Cyx80p0f4lYzIzoz/e2a/jQtpW
VVQCPez5Ho0rwx/DqYStMRk5ASsa3uvIq4Ubrg==
-----END CERTIFICATE-----
