Certificate:
    Data:
        Version: 3 (0x2)
        Serial Number:
            d1:9e:14:9a:49:6d:a2:39:df:d9:19:bf:0c:2f:2d:78
        Signature Algorithm: sha256WithRSAEncryption
        Issuer: CN=team352-net
        Validity
            Not Before: May 18 20:36:13 2022 GMT
            Not After : May  2 20:36:13 2025 GMT
        Subject: CN=team352-server
        Subject Public Key Info:
            Public Key Algorithm: rsaEncryption
                RSA Public-Key: (2048 bit)
                Modulus:
                    00:c5:76:48:6a:0c:e8:8b:d7:ee:ac:bc:fc:fd:e6:
                    33:b7:de:b1:38:f3:22:f7:60:b3:5b:f2:b1:2a:4e:
                    dd:16:11:43:8b:53:c4:71:e2:71:a0:52:bf:64:46:
                    aa:64:1d:0e:a6:f3:ea:75:68:bf:b5:b8:ab:c7:96:
                    c5:23:88:40:f0:77:60:54:cd:87:90:76:67:08:06:
                    e3:b3:7b:00:ca:44:96:22:bf:4d:d1:51:84:69:fd:
                    79:20:0a:e2:8b:49:5f:00:dc:3f:74:ef:f3:27:e6:
                    01:8a:56:c2:7d:73:4d:19:8b:91:17:58:ce:cc:f8:
                    10:92:6c:b1:9b:a3:38:70:4c:90:ab:ed:ed:9a:80:
                    bc:2d:2f:61:30:37:bc:b8:52:6f:36:f4:8e:24:0d:
                    fc:9f:dd:a4:56:f9:ee:0f:da:c0:27:b6:7a:40:8c:
                    33:4c:b8:a2:e9:50:b4:4e:98:bd:11:f7:cc:54:ef:
                    63:4f:73:0e:5f:f3:b8:f0:f8:83:92:9e:7f:34:a5:
                    fc:81:b6:16:01:2f:e4:12:4f:75:a1:77:3c:03:93:
                    a7:1d:3d:de:86:78:7e:19:32:ce:37:28:af:6d:71:
                    20:ea:c2:ef:b6:b1:15:7c:bc:a2:86:eb:42:11:66:
                    75:9c:ee:2f:8d:bd:b8:3e:58:33:90:f9:23:d1:f3:
                    6e:93
                Exponent: 65537 (0x10001)
        X509v3 extensions:
            X509v3 Basic Constraints: 
                CA:FALSE
            X509v3 Subject Key Identifier: 
                FC:66:85:40:36:15:E1:93:B2:45:B3:55:6B:7D:75:5A:25:BA:4D:D5
            X509v3 Authority Key Identifier: 
                keyid:9F:4C:17:BA:10:C6:9A:3F:5A:A9:E9:69:52:11:01:0D:8A:02:CC:8F
                DirName:/CN=team352-net
                serial:3A:E3:D2:E0:1E:BF:AC:36:C3:A7:DC:CB:84:EB:88:9D:FA:0C:AA:74

            X509v3 Extended Key Usage: 
                TLS Web Server Authentication
            X509v3 Key Usage: 
                Digital Signature, Key Encipherment
            X509v3 Subject Alternative Name: 
                DNS:team352-server
    Signature Algorithm: sha256WithRSAEncryption
         b3:ff:98:7b:97:92:2e:e8:9a:ce:f5:db:c0:3a:4a:69:db:25:
         48:7e:5c:f7:5d:92:aa:65:18:51:1b:d2:39:2d:11:d9:82:2f:
         50:d9:22:b6:a0:96:b0:38:c8:b2:d9:ae:a2:60:6a:d4:97:32:
         f4:72:10:b8:2e:23:b7:8b:d4:5c:53:e9:a5:63:69:71:b2:7b:
         eb:12:b9:57:00:4b:ba:ac:d5:93:51:8c:8e:4a:84:61:b0:51:
         22:98:19:26:8f:2c:a5:7d:c3:5a:91:f0:cd:38:b2:d2:29:37:
         93:cd:af:f6:b3:72:96:fb:79:15:31:07:fb:58:92:13:1a:04:
         08:41:cf:53:d9:c0:bc:fa:7c:68:79:2d:19:4d:90:2b:bf:e2:
         33:38:05:46:8f:11:2b:3b:8e:2b:23:9b:6e:2e:b7:f9:ed:7d:
         b2:a3:5d:af:06:2b:33:37:f9:fe:c3:2b:63:7b:84:40:fe:9c:
         cd:ee:64:b6:13:2a:c8:2f:0e:83:9f:bf:fe:2d:d0:b1:b0:ca:
         95:66:1c:8d:72:59:9e:cc:ee:11:83:d3:dd:10:48:bd:27:a4:
         29:13:9b:7f:7a:a4:92:7e:68:a0:96:2b:ba:ad:4e:4d:3e:ac:
         91:8e:55:ac:c5:65:b9:88:48:57:58:cb:e1:63:b1:1f:e0:f2:
         de:b6:23:6e
-----BEGIN CERTIFICATE-----
MIIDeDCCAmCgAwIBAgIRANGeFJpJbaI539kZvwwvLXgwDQYJKoZIhvcNAQELBQAw
FjEUMBIGA1UEAwwLdGVhbTM1Mi1uZXQwHhcNMjIwNTE4MjAzNjEzWhcNMjUwNTAy
MjAzNjEzWjAZMRcwFQYDVQQDDA50ZWFtMzUyLXNlcnZlcjCCASIwDQYJKoZIhvcN
AQEBBQADggEPADCCAQoCggEBAMV2SGoM6IvX7qy8/P3mM7fesTjzIvdgs1vysSpO
3RYRQ4tTxHHicaBSv2RGqmQdDqbz6nVov7W4q8eWxSOIQPB3YFTNh5B2ZwgG47N7
AMpEliK/TdFRhGn9eSAK4otJXwDcP3Tv8yfmAYpWwn1zTRmLkRdYzsz4EJJssZuj
OHBMkKvt7ZqAvC0vYTA3vLhSbzb0jiQN/J/dpFb57g/awCe2ekCMM0y4oulQtE6Y
vRH3zFTvY09zDl/zuPD4g5KefzSl/IG2FgEv5BJPdaF3PAOTpx093oZ4fhkyzjco
r21xIOrC77axFXy8oobrQhFmdZzuL429uD5YM5D5I9HzbpMCAwEAAaOBvTCBujAJ
BgNVHRMEAjAAMB0GA1UdDgQWBBT8ZoVANhXhk7JFs1VrfXVaJbpN1TBRBgNVHSME
SjBIgBSfTBe6EMaaP1qp6WlSEQENigLMj6EapBgwFjEUMBIGA1UEAwwLdGVhbTM1
Mi1uZXSCFDrj0uAev6w2w6fcy4TriJ36DKp0MBMGA1UdJQQMMAoGCCsGAQUFBwMB
MAsGA1UdDwQEAwIFoDAZBgNVHREEEjAQgg50ZWFtMzUyLXNlcnZlcjANBgkqhkiG
9w0BAQsFAAOCAQEAs/+Ye5eSLuiazvXbwDpKadslSH5c912SqmUYURvSOS0R2YIv
UNkitqCWsDjIstmuomBq1Jcy9HIQuC4jt4vUXFPppWNpcbJ76xK5VwBLuqzVk1GM
jkqEYbBRIpgZJo8spX3DWpHwzTiy0ik3k82v9rNylvt5FTEH+1iSExoECEHPU9nA
vPp8aHktGU2QK7/iMzgFRo8RKzuOKyObbi63+e19sqNdrwYrMzf5/sMrY3uEQP6c
ze5kthMqyC8Og5+//i3QsbDKlWYcjXJZnszuEYPT3RBIvSekKRObf3qkkn5ooJYr
uq1OTT6skY5VrMVluYhIV1jL4WOxH+Dy3rYjbg==
-----END CERTIFICATE-----
