Certificate:
    Data:
        Version: 3 (0x2)
        Serial Number:
            d2:22:88:a7:ec:20:84:46:5d:e1:07:16:da:ed:43:d1
        Signature Algorithm: sha256WithRSAEncryption
        Issuer: CN=team236-net
        Validity
            Not Before: May 18 19:22:26 2022 GMT
            Not After : May  2 19:22:26 2025 GMT
        Subject: CN=team236-client
        Subject Public Key Info:
            Public Key Algorithm: rsaEncryption
                RSA Public-Key: (2048 bit)
                Modulus:
                    00:ca:85:bb:14:5e:ab:8d:8e:91:7e:23:66:12:02:
                    e5:a8:29:1a:66:8f:0a:f2:d1:47:68:1e:3b:78:78:
                    2a:df:a0:3c:8f:c8:85:34:c2:23:6c:c8:82:8e:71:
                    08:67:12:67:8b:03:25:42:00:64:60:dc:62:84:5f:
                    2c:91:c9:25:fb:fb:ad:a0:e0:e1:58:65:52:40:33:
                    a5:87:71:29:1e:be:2f:81:b0:71:e2:f0:01:0f:6a:
                    b0:7d:d2:95:dc:2a:55:e5:a3:3b:d7:09:9c:d1:48:
                    92:9b:6a:a4:ff:eb:8b:ef:1f:51:b7:b9:fb:52:7e:
                    e5:ba:3f:ed:db:4c:1c:47:70:b8:cf:1d:da:fa:7d:
                    f5:aa:2f:1f:37:dc:e2:30:e7:8b:a0:52:bd:05:e3:
                    54:58:2b:b6:f2:01:e6:46:0a:6d:d1:5b:d2:43:49:
                    75:61:b8:f1:19:99:f6:2a:1d:0b:24:a9:1c:f6:34:
                    bb:cc:d1:86:a1:10:c0:b8:4f:ac:6e:9d:05:f3:58:
                    a5:c4:7b:dc:f0:87:ae:0f:17:79:1b:63:a2:ec:ce:
                    39:90:ec:ff:d4:d4:de:72:07:a1:6a:19:95:df:b2:
                    62:da:6a:7c:d3:36:40:7c:61:e1:07:e6:dc:2c:04:
                    74:ab:e1:80:82:dc:8c:01:b6:43:92:76:bf:5e:04:
                    4e:c1
                Exponent: 65537 (0x10001)
        X509v3 extensions:
            X509v3 Basic Constraints: 
                CA:FALSE
            X509v3 Subject Key Identifier: 
                E6:8C:35:58:AE:81:7E:83:7B:6F:83:02:DF:58:0E:71:B0:AC:2E:1A
            X509v3 Authority Key Identifier: 
                keyid:9F:64:35:BA:AD:5B:82:F6:C7:EF:0E:10:C8:DA:13:1E:9E:3B:BA:98
                DirName:/CN=team236-net
                serial:46:2F:2F:D2:DD:D4:58:7F:A4:A8:10:5D:7F:91:1E:5E:9A:EC:9D:B0

            X509v3 Extended Key Usage: 
                TLS Web Client Authentication
            X509v3 Key Usage: 
                Digital Signature
    Signature Algorithm: sha256WithRSAEncryption
         60:14:ba:c4:57:c2:17:36:16:62:94:cd:c4:6f:c0:c8:a6:a1:
         b6:7f:d7:89:9c:27:a0:66:e7:4e:2a:2d:23:9f:12:96:85:7e:
         b3:6b:14:d6:c2:68:a9:eb:d6:e3:d7:fb:bb:8b:1e:3c:1b:0e:
         5c:db:76:a8:ed:ea:29:46:b3:c8:45:60:5d:1a:9b:4b:9c:80:
         80:9d:c5:8e:0b:54:73:da:e4:dc:9f:d9:df:3e:7e:69:f0:40:
         37:d8:b8:6d:07:ef:72:6e:06:1f:af:b5:69:2f:6d:a5:c8:ce:
         e1:0a:f6:60:e5:b6:6a:ea:d5:7b:0d:ce:57:a9:6e:71:55:e4:
         4e:e6:d7:de:c3:1b:af:ae:35:7a:9c:4b:c0:68:3b:81:c1:9f:
         94:38:f2:0e:1a:ec:08:4d:b9:a6:40:52:64:17:0a:59:a0:4f:
         34:9f:48:11:91:d9:85:4c:0d:6e:a6:a5:42:45:6e:cb:39:fb:
         63:c3:61:87:ca:d9:98:2d:70:e3:c8:66:73:98:dc:60:43:ea:
         89:98:bb:cb:79:2b:f6:6b:f7:0c:60:40:12:a0:81:a2:0b:25:
         a8:4a:61:d9:ff:be:ea:d0:31:6b:e2:70:e6:9e:fe:c8:67:0b:
         73:2f:7b:67:0d:6c:a3:0d:c4:64:a6:85:91:ba:36:cd:07:05:
         ae:c1:4b:fd
-----BEGIN CERTIFICATE-----
MIIDXTCCAkWgAwIBAgIRANIiiKfsIIRGXeEHFtrtQ9EwDQYJKoZIhvcNAQELBQAw
FjEUMBIGA1UEAwwLdGVhbTIzNi1uZXQwHhcNMjIwNTE4MTkyMjI2WhcNMjUwNTAy
MTkyMjI2WjAZMRcwFQYDVQQDDA50ZWFtMjM2LWNsaWVudDCCASIwDQYJKoZIhvcN
AQEBBQADggEPADCCAQoCggEBAMqFuxReq42OkX4jZhIC5agpGmaPCvLRR2geO3h4
Kt+gPI/IhTTCI2zIgo5xCGcSZ4sDJUIAZGDcYoRfLJHJJfv7raDg4VhlUkAzpYdx
KR6+L4GwceLwAQ9qsH3SldwqVeWjO9cJnNFIkptqpP/ri+8fUbe5+1J+5bo/7dtM
HEdwuM8d2vp99aovHzfc4jDni6BSvQXjVFgrtvIB5kYKbdFb0kNJdWG48RmZ9iod
CySpHPY0u8zRhqEQwLhPrG6dBfNYpcR73PCHrg8XeRtjouzOOZDs/9TU3nIHoWoZ
ld+yYtpqfNM2QHxh4Qfm3CwEdKvhgILcjAG2Q5J2v14ETsECAwEAAaOBojCBnzAJ
BgNVHRMEAjAAMB0GA1UdDgQWBBTmjDVYroF+g3tvgwLfWA5xsKwuGjBRBgNVHSME
SjBIgBSfZDW6rVuC9sfvDhDI2hMenju6mKEapBgwFjEUMBIGA1UEAwwLdGVhbTIz
Ni1uZXSCFEYvL9Ld1Fh/pKgQXX+RHl6a7J2wMBMGA1UdJQQMMAoGCCsGAQUFBwMC
MAsGA1UdDwQEAwIHgDANBgkqhkiG9w0BAQsFAAOCAQEAYBS6xFfCFzYWYpTNxG/A
yKahtn/XiZwnoGbnTiotI58SloV+s2sU1sJoqevW49f7u4sePBsOXNt2qO3qKUaz
yEVgXRqbS5yAgJ3FjgtUc9rk3J/Z3z5+afBAN9i4bQfvcm4GH6+1aS9tpcjO4Qr2
YOW2aurVew3OV6lucVXkTubX3sMbr641epxLwGg7gcGflDjyDhrsCE25pkBSZBcK
WaBPNJ9IEZHZhUwNbqalQkVuyzn7Y8Nhh8rZmC1w48hmc5jcYEPqiZi7y3kr9mv3
DGBAEqCBogslqEph2f++6tAxa+Jw5p7+yGcLcy97Zw1sow3EZKaFkbo2zQcFrsFL
/Q==
-----END CERTIFICATE-----
