Certificate:
    Data:
        Version: 3 (0x2)
        Serial Number:
            3b:32:d7:0e:a7:cb:c8:45:1b:7d:84:f6:0b:a8:98:7a
        Signature Algorithm: sha256WithRSAEncryption
        Issuer: CN=team330-net
        Validity
            Not Before: May 18 20:16:44 2022 GMT
            Not After : May  2 20:16:44 2025 GMT
        Subject: CN=team330-client
        Subject Public Key Info:
            Public Key Algorithm: rsaEncryption
                RSA Public-Key: (2048 bit)
                Modulus:
                    00:cc:1f:68:e2:29:c6:ec:1a:52:80:8d:2d:c2:4b:
                    e9:1e:34:c0:f7:5b:ec:9d:e8:e6:14:be:c7:ca:e7:
                    95:56:91:62:4e:f1:f8:85:98:69:e9:a0:a5:46:46:
                    fc:b8:80:9e:32:a5:56:ee:21:b0:d0:2f:32:3d:03:
                    5a:ed:d1:22:30:00:eb:07:3a:92:7a:51:d1:0a:69:
                    7c:c2:8c:47:04:5c:44:5a:2c:81:7f:0c:e1:9f:c6:
                    ab:de:6b:97:37:e8:7e:75:c4:a8:3d:3d:c3:72:6d:
                    dd:22:ca:15:ef:42:c4:96:63:20:69:f1:90:dc:45:
                    f0:79:8b:cb:6d:c8:53:d8:ad:9b:3b:be:3a:92:0a:
                    07:63:0d:ee:25:b2:8d:ce:4b:44:94:81:47:6a:75:
                    80:02:07:9a:95:d7:9e:56:d4:9f:b0:ae:78:1b:92:
                    71:50:ee:e2:73:1a:04:2d:ec:9c:d3:b2:38:0f:0e:
                    8e:5b:2d:e5:45:c0:14:04:69:2c:f9:33:0b:44:74:
                    5b:06:3a:66:93:91:87:4f:07:a5:fe:76:d1:a0:58:
                    13:8f:4f:92:ed:ec:fb:41:50:39:29:1a:80:d0:b1:
                    4d:b0:9d:f5:13:8f:62:9c:38:c2:2b:24:7e:ea:39:
                    f5:47:a5:48:6c:e4:1e:c2:d0:45:9e:b3:9f:f7:63:
                    b0:17
                Exponent: 65537 (0x10001)
        X509v3 extensions:
            X509v3 Basic Constraints: 
                CA:FALSE
            X509v3 Subject Key Identifier: 
                31:77:6D:29:C9:69:12:DE:82:34:57:44:30:F7:F9:2C:04:31:99:D4
            X509v3 Authority Key Identifier: 
                keyid:B3:1E:7E:02:23:91:46:6E:91:5F:3B:76:1A:1D:61:90:CC:E1:9B:58
                DirName:/CN=team330-net
                serial:72:37:03:D4:94:DF:A3:3D:13:53:96:32:10:0B:7B:EF:D3:06:52:1F

            X509v3 Extended Key Usage: 
                TLS Web Client Authentication
            X509v3 Key Usage: 
                Digital Signature
    Signature Algorithm: sha256WithRSAEncryption
         0b:11:ba:1f:e1:cd:a1:15:d8:1d:a4:1a:9e:8b:47:1b:2d:ab:
         55:9d:c3:37:79:15:0c:4b:43:3b:ff:95:c4:c4:7d:6a:81:fe:
         e2:78:dc:56:88:0e:11:41:81:44:60:8a:81:0b:ae:aa:71:4f:
         f2:08:d2:e3:bb:e9:79:80:90:2c:e2:1d:e7:1b:12:6c:6c:ad:
         2e:7a:62:1b:09:28:b1:af:ca:f7:f2:16:c7:a4:7d:bf:b7:32:
         ed:c4:c2:e8:1c:53:96:0f:9d:43:1a:d4:a3:2d:c6:c8:80:b0:
         55:01:5e:53:56:3e:5d:ee:10:e6:b1:6f:be:c9:b2:da:de:9d:
         93:fa:d0:d3:c2:4a:78:1b:e0:ab:0f:1b:21:0a:31:48:e3:bc:
         95:d3:47:68:ac:77:31:df:33:9f:4f:dd:74:34:0a:69:44:ec:
         c5:e3:42:18:64:4f:b4:a5:31:a0:8b:d3:16:a1:40:7a:b9:d9:
         0c:21:30:97:da:24:aa:bc:1a:82:38:da:05:96:54:49:39:92:
         57:35:38:ce:c7:b9:f0:ed:95:b2:d1:17:93:73:02:36:4e:9d:
         ff:2f:d0:2d:c8:77:64:72:b1:19:ba:bd:05:ca:22:0d:f7:0b:
         e9:8e:1f:09:03:c7:26:55:7d:ef:48:fa:6a:e0:d0:3f:ae:0a:
         8d:a1:ea:b3
-----BEGIN CERTIFICATE-----
MIIDXDCCAkSgAwIBAgIQOzLXDqfLyEUbfYT2C6iYejANBgkqhkiG9w0BAQsFADAW
MRQwEgYDVQQDDAt0ZWFtMzMwLW5ldDAeFw0yMjA1MTgyMDE2NDRaFw0yNTA1MDIy
MDE2NDRaMBkxFzAVBgNVBAMMDnRlYW0zMzAtY2xpZW50MIIBIjANBgkqhkiG9w0B
AQEFAAOCAQ8AMIIBCgKCAQEAzB9o4inG7BpSgI0twkvpHjTA91vsnejmFL7HyueV
VpFiTvH4hZhp6aClRkb8uICeMqVW7iGw0C8yPQNa7dEiMADrBzqSelHRCml8woxH
BFxEWiyBfwzhn8ar3muXN+h+dcSoPT3Dcm3dIsoV70LElmMgafGQ3EXweYvLbchT
2K2bO746kgoHYw3uJbKNzktElIFHanWAAgealdeeVtSfsK54G5JxUO7icxoELeyc
07I4Dw6OWy3lRcAUBGks+TMLRHRbBjpmk5GHTwel/nbRoFgTj0+S7ez7QVA5KRqA
0LFNsJ31E49inDjCKyR+6jn1R6VIbOQewtBFnrOf92OwFwIDAQABo4GiMIGfMAkG
A1UdEwQCMAAwHQYDVR0OBBYEFDF3bSnJaRLegjRXRDD3+SwEMZnUMFEGA1UdIwRK
MEiAFLMefgIjkUZukV87dhodYZDM4ZtYoRqkGDAWMRQwEgYDVQQDDAt0ZWFtMzMw
LW5ldIIUcjcD1JTfoz0TU5YyEAt779MGUh8wEwYDVR0lBAwwCgYIKwYBBQUHAwIw
CwYDVR0PBAQDAgeAMA0GCSqGSIb3DQEBCwUAA4IBAQALEbof4c2hFdgdpBqei0cb
LatVncM3eRUMS0M7/5XExH1qgf7ieNxWiA4RQYFEYIqBC66qcU/yCNLju+l5gJAs
4h3nGxJsbK0uemIbCSixr8r38hbHpH2/tzLtxMLoHFOWD51DGtSjLcbIgLBVAV5T
Vj5d7hDmsW++ybLa3p2T+tDTwkp4G+CrDxshCjFI47yV00dorHcx3zOfT910NApp
ROzF40IYZE+0pTGgi9MWoUB6udkMITCX2iSqvBqCONoFllRJOZJXNTjOx7nw7ZWy
0ReTcwI2Tp3/L9AtyHdkcrEZur0FyiIN9wvpjh8JA8cmVX3vSPpq4NA/rgqNoeqz
-----END CERTIFICATE-----
