Certificate:
    Data:
        Version: 3 (0x2)
        Serial Number:
            3b:66:dc:9d:e3:6b:df:21:8c:a8:80:9e:d3:44:3d:2b
        Signature Algorithm: sha256WithRSAEncryption
        Issuer: CN=team674-net
        Validity
            Not Before: May 18 23:16:35 2022 GMT
            Not After : May  2 23:16:35 2025 GMT
        Subject: CN=team674-client
        Subject Public Key Info:
            Public Key Algorithm: rsaEncryption
                RSA Public-Key: (2048 bit)
                Modulus:
                    00:be:3d:b3:08:9b:47:eb:7b:06:e9:6e:1e:d4:56:
                    de:e1:8b:04:d5:80:5e:09:90:9e:99:6f:76:81:12:
                    1c:bf:a2:86:ec:21:75:d4:f4:d7:e4:bb:9d:56:b6:
                    14:cd:15:06:72:72:c1:9d:69:91:87:56:2a:24:ed:
                    7c:bc:e6:21:cb:9a:eb:bd:ab:ca:7d:97:2a:61:6e:
                    ce:1b:6c:6f:bc:ac:dd:5b:a9:4d:86:bd:23:47:dd:
                    d6:85:e9:0f:98:0f:a0:15:b2:f1:a2:7c:b7:a3:8e:
                    63:2d:10:82:ac:b7:d5:db:c4:4b:ef:7a:51:c3:da:
                    cf:50:6a:92:85:31:e3:d4:e7:d8:9a:7e:46:02:21:
                    45:34:cb:5a:90:f1:87:95:cf:1c:89:38:1e:3d:44:
                    ea:d0:d5:86:20:54:a0:ea:8e:7f:e9:58:49:94:68:
                    01:3e:05:70:2c:54:fc:96:a9:63:68:18:1d:b7:42:
                    87:87:f2:d2:6f:83:eb:9a:07:68:6f:75:64:af:f9:
                    f5:15:a6:b4:e0:99:f5:81:b3:9b:de:10:d0:1f:36:
                    b6:26:85:7f:3e:d9:7c:37:be:c3:29:bc:25:b6:a8:
                    e3:e7:b7:68:a3:6e:58:45:54:9f:d6:33:10:13:4f:
                    c8:8c:d2:dc:29:a3:c9:2b:81:91:66:7e:a6:a5:9b:
                    a1:43
                Exponent: 65537 (0x10001)
        X509v3 extensions:
            X509v3 Basic Constraints: 
                CA:FALSE
            X509v3 Subject Key Identifier: 
                08:39:CB:1F:A9:F4:98:48:43:09:E2:7F:75:BC:17:A1:91:C3:C4:C3
            X509v3 Authority Key Identifier: 
                keyid:91:40:5C:B2:B3:65:6E:09:3E:FF:91:46:8F:37:B1:0A:D6:52:E9:3F
                DirName:/CN=team674-net
                serial:0C:E0:72:BC:CA:99:3E:28:44:06:28:E7:31:7A:6D:1B:DA:CE:B1:4F

            X509v3 Extended Key Usage: 
                TLS Web Client Authentication
            X509v3 Key Usage: 
                Digital Signature
    Signature Algorithm: sha256WithRSAEncryption
         0d:41:ab:b9:90:28:17:ed:0c:9c:9e:7a:01:7f:ce:49:0b:15:
         dd:b8:57:f4:9f:2c:b1:f9:f6:85:f1:90:2a:18:fc:00:0f:2b:
         72:4d:d4:31:03:27:7a:5c:fa:19:45:4b:1d:e5:e8:75:70:83:
         52:0e:92:0f:16:13:d7:4a:36:f3:98:ae:ea:e1:19:00:45:c2:
         86:1e:25:3f:85:aa:2d:f5:d1:56:ed:27:de:74:4b:2b:73:10:
         82:58:0c:4d:1f:e5:1b:b4:55:8b:44:e1:af:4b:29:24:ae:1f:
         33:a3:7e:e1:c4:17:47:a9:b7:08:be:fc:cf:36:4b:f8:f2:d6:
         03:32:34:0b:ce:78:44:ed:f3:9e:66:f3:fb:a5:9a:ea:a3:f2:
         ec:28:11:32:3f:0c:c4:1c:0d:93:68:2a:00:79:41:15:bf:87:
         4f:a8:41:8e:bc:8e:18:00:1f:f3:03:c6:86:00:f4:f1:5c:58:
         52:b4:a5:9d:b6:61:0a:b9:8c:ea:92:57:6a:c6:a1:10:df:85:
         b5:2a:51:92:9d:2c:c9:12:3c:b3:b4:ef:aa:f2:14:80:7b:78:
         0c:38:df:ca:af:4b:54:44:63:08:d1:00:07:5a:73:6e:7c:8f:
         6b:02:f7:fc:10:bb:5a:c2:38:22:3d:66:90:38:4e:27:df:22:
         3b:8b:31:e1
-----BEGIN CERTIFICATE-----
MIIDXDCCAkSgAwIBAgIQO2bcneNr3yGMqICe00Q9KzANBgkqhkiG9w0BAQsFADAW
MRQwEgYDVQQDDAt0ZWFtNjc0LW5ldDAeFw0yMjA1MTgyMzE2MzVaFw0yNTA1MDIy
MzE2MzVaMBkxFzAVBgNVBAMMDnRlYW02NzQtY2xpZW50MIIBIjANBgkqhkiG9w0B
AQEFAAOCAQ8AMIIBCgKCAQEAvj2zCJtH63sG6W4e1Fbe4YsE1YBeCZCemW92gRIc
v6KG7CF11PTX5LudVrYUzRUGcnLBnWmRh1YqJO18vOYhy5rrvavKfZcqYW7OG2xv
vKzdW6lNhr0jR93WhekPmA+gFbLxony3o45jLRCCrLfV28RL73pRw9rPUGqShTHj
1OfYmn5GAiFFNMtakPGHlc8ciTgePUTq0NWGIFSg6o5/6VhJlGgBPgVwLFT8lqlj
aBgdt0KHh/LSb4Prmgdob3Vkr/n1Faa04Jn1gbOb3hDQHza2JoV/Ptl8N77DKbwl
tqjj57doo25YRVSf1jMQE0/IjNLcKaPJK4GRZn6mpZuhQwIDAQABo4GiMIGfMAkG
A1UdEwQCMAAwHQYDVR0OBBYEFAg5yx+p9JhIQwnif3W8F6GRw8TDMFEGA1UdIwRK
MEiAFJFAXLKzZW4JPv+RRo83sQrWUuk/oRqkGDAWMRQwEgYDVQQDDAt0ZWFtNjc0
LW5ldIIUDOByvMqZPihEBijnMXptG9rOsU8wEwYDVR0lBAwwCgYIKwYBBQUHAwIw
CwYDVR0PBAQDAgeAMA0GCSqGSIb3DQEBCwUAA4IBAQANQau5kCgX7QycnnoBf85J
CxXduFf0nyyx+faF8ZAqGPwADytyTdQxAyd6XPoZRUsd5eh1cINSDpIPFhPXSjbz
mK7q4RkARcKGHiU/haot9dFW7SfedEsrcxCCWAxNH+UbtFWLROGvSykkrh8zo37h
xBdHqbcIvvzPNkv48tYDMjQLznhE7fOeZvP7pZrqo/LsKBEyPwzEHA2TaCoAeUEV
v4dPqEGOvI4YAB/zA8aGAPTxXFhStKWdtmEKuYzqkldqxqEQ34W1KlGSnSzJEjyz
tO+q8hSAe3gMON/Kr0tURGMI0QAHWnNufI9rAvf8ELtawjgiPWaQOE4n3yI7izHh
-----END CERTIFICATE-----
