Certificate:
    Data:
        Version: 3 (0x2)
        Serial Number:
            d5:89:7f:5f:0f:6a:cb:f3:29:60:58:6a:3b:db:0c:b1
        Signature Algorithm: sha256WithRSAEncryption
        Issuer: CN=team603-net
        Validity
            Not Before: May 18 22:42:48 2022 GMT
            Not After : May  2 22:42:48 2025 GMT
        Subject: CN=team603-server
        Subject Public Key Info:
            Public Key Algorithm: rsaEncryption
                RSA Public-Key: (2048 bit)
                Modulus:
                    00:9e:8d:6a:e5:55:b2:69:4f:aa:28:a8:7c:b5:1b:
                    a6:30:74:17:2a:fd:a5:76:e7:54:aa:76:2c:99:2a:
                    3f:fb:94:84:23:6b:d6:7d:c7:a9:b2:75:c7:2a:5a:
                    61:6f:32:75:0f:94:f7:43:f2:8b:21:6a:8c:56:25:
                    ed:7e:48:9d:d0:e7:ab:e8:a4:4f:46:66:bf:7d:f9:
                    a2:bc:ea:eb:14:95:87:14:dc:74:58:03:be:e9:ba:
                    42:14:aa:bb:a7:a2:a9:77:5e:d2:52:10:e3:f1:08:
                    1e:29:61:83:2d:8f:b1:c0:d7:4c:00:da:25:ca:3b:
                    ef:e0:89:3e:71:8a:a5:26:d9:74:05:50:f4:50:50:
                    7b:b1:7d:28:6d:72:b6:9c:2a:f3:8c:d3:fb:f5:3b:
                    48:14:60:82:1f:42:0f:20:85:8a:e7:ce:8c:ba:fd:
                    d5:27:4d:29:99:ca:ff:de:2e:0f:b6:a6:9f:f0:c3:
                    79:be:61:18:ad:03:f6:71:0e:1b:96:e5:41:4e:99:
                    ec:4a:fc:76:65:7f:d9:fb:f9:64:56:93:4c:b5:a7:
                    5f:bf:46:02:45:c7:84:ca:ae:85:34:32:8e:c9:c5:
                    ee:6d:29:27:66:df:87:1d:a3:b1:83:19:0a:cf:9e:
                    85:0e:ca:cd:5e:25:19:9f:10:25:70:c0:34:b9:49:
                    48:3d
                Exponent: 65537 (0x10001)
        X509v3 extensions:
            X509v3 Basic Constraints: 
                CA:FALSE
            X509v3 Subject Key Identifier: 
                C4:C9:74:E2:77:80:97:54:AB:C7:A4:3E:43:D3:B0:E9:9E:E2:A8:26
            X509v3 Authority Key Identifier: 
                keyid:1D:AF:71:AA:49:4B:A6:B8:1C:8C:45:D8:50:E8:3E:1E:D0:B5:44:68
                DirName:/CN=team603-net
                serial:1E:68:12:70:62:61:A6:01:AD:FB:CE:B6:6F:C5:61:A9:C6:37:33:EF

            X509v3 Extended Key Usage: 
                TLS Web Server Authentication
            X509v3 Key Usage: 
                Digital Signature, Key Encipherment
            X509v3 Subject Alternative Name: 
                DNS:team603-server
    Signature Algorithm: sha256WithRSAEncryption
         26:1a:3c:01:63:02:3c:b0:8a:79:39:7c:02:a9:72:74:94:a9:
         5c:47:3c:aa:7b:28:67:38:ae:11:ef:8b:40:93:bc:2d:85:60:
         80:17:69:a0:8d:15:cd:ad:c0:d9:79:9e:9f:8a:e7:a9:b5:c9:
         99:e7:b4:af:b2:7f:08:d8:d5:c3:90:bb:a5:af:bd:4e:1a:81:
         ea:0d:c3:5e:2d:5e:51:d3:2b:00:89:6a:51:92:a4:fe:96:46:
         60:f0:12:59:60:dd:3c:5a:df:52:00:84:ae:0a:8f:a2:50:7f:
         14:41:61:20:86:53:f4:f5:8e:b1:a9:0a:59:49:5f:12:76:82:
         5b:22:05:b8:c7:84:98:88:60:4f:8a:2c:f2:45:f2:a5:8a:93:
         c4:55:56:ec:d1:dd:d2:da:e2:22:57:6e:06:83:bb:0a:c4:5e:
         ba:28:fa:f8:0b:83:01:27:42:e9:9b:ce:f5:6b:34:f2:73:ea:
         18:ce:dc:8d:ee:e3:1e:54:2a:64:0c:87:b6:f5:38:ea:ea:ec:
         09:e9:32:8b:21:11:58:2e:65:70:22:f7:da:77:c2:1b:fa:ad:
         f2:e0:49:f0:f2:92:2f:30:fc:b9:3f:7c:9a:61:48:bc:5b:60:
         0f:94:33:22:80:68:1a:e0:8b:a5:45:de:bb:21:b1:bf:93:b4:
         00:0a:ee:e8
-----BEGIN CERTIFICATE-----
MIIDeDCCAmCgAwIBAgIRANWJf18PasvzKWBYajvbDLEwDQYJKoZIhvcNAQELBQAw
FjEUMBIGA1UEAwwLdGVhbTYwMy1uZXQwHhcNMjIwNTE4MjI0MjQ4WhcNMjUwNTAy
MjI0MjQ4WjAZMRcwFQYDVQQDDA50ZWFtNjAzLXNlcnZlcjCCASIwDQYJKoZIhvcN
AQEBBQADggEPADCCAQoCggEBAJ6NauVVsmlPqiiofLUbpjB0Fyr9pXbnVKp2LJkq
P/uUhCNr1n3HqbJ1xypaYW8ydQ+U90PyiyFqjFYl7X5IndDnq+ikT0Zmv335orzq
6xSVhxTcdFgDvum6QhSqu6eiqXde0lIQ4/EIHilhgy2PscDXTADaJco77+CJPnGK
pSbZdAVQ9FBQe7F9KG1ytpwq84zT+/U7SBRggh9CDyCFiufOjLr91SdNKZnK/94u
D7amn/DDeb5hGK0D9nEOG5blQU6Z7Er8dmV/2fv5ZFaTTLWnX79GAkXHhMquhTQy
jsnF7m0pJ2bfhx2jsYMZCs+ehQ7KzV4lGZ8QJXDANLlJSD0CAwEAAaOBvTCBujAJ
BgNVHRMEAjAAMB0GA1UdDgQWBBTEyXTid4CXVKvHpD5D07DpnuKoJjBRBgNVHSME
SjBIgBQdr3GqSUumuByMRdhQ6D4e0LVEaKEapBgwFjEUMBIGA1UEAwwLdGVhbTYw
My1uZXSCFB5oEnBiYaYBrfvOtm/FYanGNzPvMBMGA1UdJQQMMAoGCCsGAQUFBwMB
MAsGA1UdDwQEAwIFoDAZBgNVHREEEjAQgg50ZWFtNjAzLXNlcnZlcjANBgkqhkiG
9w0BAQsFAAOCAQEAJho8AWMCPLCKeTl8AqlydJSpXEc8qnsoZziuEe+LQJO8LYVg
gBdpoI0Vza3A2Xmen4rnqbXJmee0r7J/CNjVw5C7pa+9ThqB6g3DXi1eUdMrAIlq
UZKk/pZGYPASWWDdPFrfUgCErgqPolB/FEFhIIZT9PWOsakKWUlfEnaCWyIFuMeE
mIhgT4os8kXypYqTxFVW7NHd0triIlduBoO7CsReuij6+AuDASdC6ZvO9Ws08nPq
GM7cje7jHlQqZAyHtvU46ursCekyiyERWC5lcCL32nfCG/qt8uBJ8PKSLzD8uT98
mmFIvFtgD5QzIoBoGuCLpUXeuyGxv5O0AAru6A==
-----END CERTIFICATE-----
