Certificate:
    Data:
        Version: 3 (0x2)
        Serial Number:
            35:8d:6f:a8:b4:cd:18:69:60:61:89:5d:60:8d:64:85
        Signature Algorithm: sha256WithRSAEncryption
        Issuer: CN=team212-net
        Validity
            Not Before: May 18 19:16:17 2022 GMT
            Not After : May  2 19:16:17 2025 GMT
        Subject: CN=team212-client
        Subject Public Key Info:
            Public Key Algorithm: rsaEncryption
                RSA Public-Key: (2048 bit)
                Modulus:
                    00:9f:f7:db:36:ad:0a:bc:40:14:51:31:9e:f9:54:
                    9e:63:42:08:93:c7:d1:df:43:3f:e6:2b:b7:30:a1:
                    19:da:7a:cf:d1:f0:ca:40:50:ab:b9:26:09:28:8f:
                    85:cd:39:34:7d:b9:ff:91:9c:80:85:01:83:bd:7e:
                    b0:84:0f:49:ca:b1:08:e9:87:8d:59:08:7d:ca:ab:
                    cc:76:b5:00:d9:d2:36:e3:44:6a:32:c8:58:54:fb:
                    ea:de:55:f6:6a:e2:96:e8:0c:89:62:8f:ac:d8:45:
                    48:56:5f:12:7c:47:be:7d:c1:4c:bf:4c:5b:38:cf:
                    8f:fa:68:52:32:17:95:27:90:dd:7e:03:51:00:a8:
                    f8:65:1b:bf:ee:35:7d:0c:a0:10:60:cc:23:f1:a4:
                    27:a5:c4:77:86:5d:ab:d3:63:d7:b6:82:ae:a9:b0:
                    a7:9f:08:e3:f6:d2:ec:ba:1c:73:74:3c:8a:d7:8e:
                    bf:5a:b6:7c:f0:51:5c:43:bf:8b:0c:80:64:53:8f:
                    72:0d:50:7f:5c:10:e8:46:b8:cc:53:27:df:b4:c7:
                    6e:55:25:ec:8b:5d:fe:ab:89:0e:50:9e:02:45:25:
                    5a:ed:01:f2:ca:30:c7:d6:d4:08:0a:17:5e:f4:0e:
                    dd:9a:59:4b:f5:27:17:c1:45:c9:f7:9e:17:ff:c7:
                    fa:fb
                Exponent: 65537 (0x10001)
        X509v3 extensions:
            X509v3 Basic Constraints: 
                CA:FALSE
            X509v3 Subject Key Identifier: 
                BB:22:C4:76:D0:C3:77:D7:10:0B:D4:06:9F:E3:93:6B:FC:5C:1B:6C
            X509v3 Authority Key Identifier: 
                keyid:51:E3:DE:2D:C9:C9:71:FD:E8:48:85:5B:61:8F:DC:C4:9A:69:AF:21
                DirName:/CN=team212-net
                serial:0D:66:41:5D:C2:50:8B:9D:27:02:10:14:79:A8:A4:C9:AF:E6:86:55

            X509v3 Extended Key Usage: 
                TLS Web Client Authentication
            X509v3 Key Usage: 
                Digital Signature
    Signature Algorithm: sha256WithRSAEncryption
         89:db:f6:3c:58:62:38:90:01:b1:b7:7f:53:09:ec:b2:45:58:
         88:7d:da:f0:f2:9c:bd:bd:ee:22:89:de:78:0e:c0:2f:97:f7:
         3a:ce:82:1a:5e:38:34:de:b2:87:ab:f2:ab:c2:df:f4:70:7a:
         0a:c2:ea:16:d0:21:04:6c:65:ee:db:35:9e:4a:da:f7:ac:78:
         4f:55:61:47:69:70:05:4a:8e:1a:f7:df:4c:8c:17:b9:c6:4c:
         82:1f:70:ea:43:75:93:65:81:46:4e:1e:a0:2b:b0:64:c1:52:
         8b:5a:6c:92:27:90:0f:60:61:c1:c9:9e:c5:72:6a:a4:b1:37:
         e6:fe:80:fb:37:32:d3:5b:17:b4:83:44:b8:f5:dd:ad:be:04:
         e8:8d:d3:c0:15:7b:8c:60:35:cc:19:0a:3e:c4:44:c1:20:bb:
         e2:95:53:44:9a:91:3c:92:49:4b:75:c3:f7:ef:15:27:fd:5f:
         91:58:c2:14:45:66:b8:a2:72:74:85:46:d2:66:06:dc:fc:d9:
         eb:0d:0d:0c:1f:a4:c1:14:6a:1f:c1:5a:07:f1:93:b4:3b:3c:
         35:2b:6f:1c:69:8c:9a:27:b5:61:8b:b6:28:26:d9:c8:7a:75:
         7e:d6:04:ed:19:8e:dc:ad:5b:1f:61:b5:dd:8f:be:98:9d:05:
         1b:ed:39:18
-----BEGIN CERTIFICATE-----
MIIDXDCCAkSgAwIBAgIQNY1vqLTNGGlgYYldYI1khTANBgkqhkiG9w0BAQsFADAW
MRQwEgYDVQQDDAt0ZWFtMjEyLW5ldDAeFw0yMjA1MTgxOTE2MTdaFw0yNTA1MDIx
OTE2MTdaMBkxFzAVBgNVBAMMDnRlYW0yMTItY2xpZW50MIIBIjANBgkqhkiG9w0B
AQEFAAOCAQ8AMIIBCgKCAQEAn/fbNq0KvEAUUTGe+VSeY0IIk8fR30M/5iu3MKEZ
2nrP0fDKQFCruSYJKI+FzTk0fbn/kZyAhQGDvX6whA9JyrEI6YeNWQh9yqvMdrUA
2dI240RqMshYVPvq3lX2auKW6AyJYo+s2EVIVl8SfEe+fcFMv0xbOM+P+mhSMheV
J5DdfgNRAKj4ZRu/7jV9DKAQYMwj8aQnpcR3hl2r02PXtoKuqbCnnwjj9tLsuhxz
dDyK146/WrZ88FFcQ7+LDIBkU49yDVB/XBDoRrjMUyfftMduVSXsi13+q4kOUJ4C
RSVa7QHyyjDH1tQIChde9A7dmllL9ScXwUXJ954X/8f6+wIDAQABo4GiMIGfMAkG
A1UdEwQCMAAwHQYDVR0OBBYEFLsixHbQw3fXEAvUBp/jk2v8XBtsMFEGA1UdIwRK
MEiAFFHj3i3JyXH96EiFW2GP3MSaaa8hoRqkGDAWMRQwEgYDVQQDDAt0ZWFtMjEy
LW5ldIIUDWZBXcJQi50nAhAUeaikya/mhlUwEwYDVR0lBAwwCgYIKwYBBQUHAwIw
CwYDVR0PBAQDAgeAMA0GCSqGSIb3DQEBCwUAA4IBAQCJ2/Y8WGI4kAGxt39TCeyy
RViIfdrw8py9ve4iid54DsAvl/c6zoIaXjg03rKHq/Krwt/0cHoKwuoW0CEEbGXu
2zWeStr3rHhPVWFHaXAFSo4a999MjBe5xkyCH3DqQ3WTZYFGTh6gK7BkwVKLWmyS
J5APYGHByZ7FcmqksTfm/oD7NzLTWxe0g0S49d2tvgTojdPAFXuMYDXMGQo+xETB
ILvilVNEmpE8kklLdcP37xUn/V+RWMIURWa4onJ0hUbSZgbc/NnrDQ0MH6TBFGof
wVoH8ZO0Ozw1K28caYyaJ7Vhi7YoJtnIenV+1gTtGY7crVsfYbXdj76YnQUb7TkY
-----END CERTIFICATE-----
