Certificate:
    Data:
        Version: 3 (0x2)
        Serial Number:
            d4:20:08:5a:e2:f2:63:bc:bc:70:e4:87:31:d1:1f:bd
        Signature Algorithm: sha256WithRSAEncryption
        Issuer: CN=team212-net
        Validity
            Not Before: May 18 19:16:17 2022 GMT
            Not After : May  2 19:16:17 2025 GMT
        Subject: CN=team212-server
        Subject Public Key Info:
            Public Key Algorithm: rsaEncryption
                RSA Public-Key: (2048 bit)
                Modulus:
                    00:d5:08:e3:1f:8f:f9:35:4b:57:a3:40:94:8c:27:
                    b2:9e:97:84:d3:18:cf:ba:97:b1:e1:06:7f:cc:e6:
                    87:18:19:4e:7b:8c:90:5a:81:df:f6:89:6f:b6:6a:
                    a9:d8:66:14:0a:84:c6:53:43:2f:4c:24:b8:30:83:
                    e8:b8:52:0a:ff:df:db:b9:9d:4e:f1:e5:27:b8:2b:
                    3f:ec:3a:11:1b:e4:f0:7b:0a:8e:f7:fe:2d:d6:9f:
                    72:24:2d:c4:84:bf:78:7f:db:57:7d:76:d4:8a:72:
                    ff:f8:4a:15:91:c1:c2:dc:5d:25:0e:4a:57:a1:7e:
                    0d:e8:b8:8b:97:39:b4:d5:92:b5:35:46:2f:6e:9a:
                    dc:20:b6:c1:77:d0:e9:5a:32:e0:bd:a0:27:b0:9d:
                    51:48:69:c7:1a:09:2c:50:c2:4d:16:f5:53:d2:68:
                    fe:ca:47:1b:23:60:2c:9f:71:72:e1:24:a2:6f:b9:
                    f1:6b:e3:ef:b7:50:98:88:52:37:73:64:b1:7b:6c:
                    36:b8:31:2b:ff:7b:a0:51:da:f0:8a:73:db:10:ea:
                    8d:96:9e:9c:5e:ad:18:5d:75:86:a7:74:cc:44:ff:
                    26:6e:76:46:66:64:9a:d0:45:14:b2:dc:f3:95:24:
                    a6:30:81:08:cc:06:0b:f7:3a:0c:05:40:c5:3a:2f:
                    e5:03
                Exponent: 65537 (0x10001)
        X509v3 extensions:
            X509v3 Basic Constraints: 
                CA:FALSE
            X509v3 Subject Key Identifier: 
                D0:DB:FF:AB:9B:C2:58:92:23:2C:C0:4E:F2:F6:6E:30:4A:E6:9E:BD
            X509v3 Authority Key Identifier: 
                keyid:51:E3:DE:2D:C9:C9:71:FD:E8:48:85:5B:61:8F:DC:C4:9A:69:AF:21
                DirName:/CN=team212-net
                serial:0D:66:41:5D:C2:50:8B:9D:27:02:10:14:79:A8:A4:C9:AF:E6:86:55

            X509v3 Extended Key Usage: 
                TLS Web Server Authentication
            X509v3 Key Usage: 
                Digital Signature, Key Encipherment
            X509v3 Subject Alternative Name: 
                DNS:team212-server
    Signature Algorithm: sha256WithRSAEncryption
         23:26:38:48:87:38:5b:06:83:5c:6c:c3:25:69:27:3b:5b:54:
         38:de:51:78:73:87:05:cc:01:a4:54:3f:b1:bd:18:c8:e8:3e:
         b0:89:86:d6:78:a0:c4:79:64:19:78:bb:20:f3:2c:68:8a:b6:
         8e:50:e8:e9:fd:9f:38:57:c6:f0:bf:af:0c:29:9f:a0:16:66:
         d2:df:83:cd:30:60:78:19:f9:fb:77:c4:ab:41:31:cb:21:53:
         b0:82:92:6f:1e:f7:9f:19:6f:21:f7:81:0c:1b:a8:91:cc:6b:
         da:f3:2d:58:f6:59:cb:35:d0:e3:ba:d5:34:32:09:cd:d5:c9:
         95:5d:d3:4e:44:68:35:b9:3f:df:b1:52:17:85:a2:11:7c:70:
         ca:66:b2:66:41:c5:d1:f7:b5:d3:d4:59:2a:67:4e:5a:c9:89:
         e8:e1:44:09:88:43:ec:8d:44:ea:fc:42:d4:dd:b8:aa:c4:86:
         9b:06:df:f5:c2:a2:ec:ed:76:4a:9f:10:3a:01:a2:1f:19:db:
         e4:1e:07:bf:3b:53:82:87:41:91:e7:93:eb:93:04:90:fd:71:
         64:ec:ae:11:e6:e2:7d:c0:c0:47:35:b7:15:9a:5e:44:f3:37:
         20:b0:ad:eb:0d:77:84:05:c4:c7:1e:65:db:0a:f7:fa:ec:da:
         09:51:6a:3d
-----BEGIN CERTIFICATE-----
MIIDeDCCAmCgAwIBAgIRANQgCFri8mO8vHDkhzHRH70wDQYJKoZIhvcNAQELBQAw
FjEUMBIGA1UEAwwLdGVhbTIxMi1uZXQwHhcNMjIwNTE4MTkxNjE3WhcNMjUwNTAy
MTkxNjE3WjAZMRcwFQYDVQQDDA50ZWFtMjEyLXNlcnZlcjCCASIwDQYJKoZIhvcN
AQEBBQADggEPADCCAQoCggEBANUI4x+P+TVLV6NAlIwnsp6XhNMYz7qXseEGf8zm
hxgZTnuMkFqB3/aJb7ZqqdhmFAqExlNDL0wkuDCD6LhSCv/f27mdTvHlJ7grP+w6
ERvk8HsKjvf+LdafciQtxIS/eH/bV3121Ipy//hKFZHBwtxdJQ5KV6F+Dei4i5c5
tNWStTVGL26a3CC2wXfQ6Voy4L2gJ7CdUUhpxxoJLFDCTRb1U9Jo/spHGyNgLJ9x
cuEkom+58Wvj77dQmIhSN3NksXtsNrgxK/97oFHa8Ipz2xDqjZaenF6tGF11hqd0
zET/Jm52RmZkmtBFFLLc85UkpjCBCMwGC/c6DAVAxTov5QMCAwEAAaOBvTCBujAJ
BgNVHRMEAjAAMB0GA1UdDgQWBBTQ2/+rm8JYkiMswE7y9m4wSuaevTBRBgNVHSME
SjBIgBRR494tyclx/ehIhVthj9zEmmmvIaEapBgwFjEUMBIGA1UEAwwLdGVhbTIx
Mi1uZXSCFA1mQV3CUIudJwIQFHmopMmv5oZVMBMGA1UdJQQMMAoGCCsGAQUFBwMB
MAsGA1UdDwQEAwIFoDAZBgNVHREEEjAQgg50ZWFtMjEyLXNlcnZlcjANBgkqhkiG
9w0BAQsFAAOCAQEAIyY4SIc4WwaDXGzDJWknO1tUON5ReHOHBcwBpFQ/sb0YyOg+
sImG1nigxHlkGXi7IPMsaIq2jlDo6f2fOFfG8L+vDCmfoBZm0t+DzTBgeBn5+3fE
q0ExyyFTsIKSbx73nxlvIfeBDBuokcxr2vMtWPZZyzXQ47rVNDIJzdXJlV3TTkRo
Nbk/37FSF4WiEXxwymayZkHF0fe109RZKmdOWsmJ6OFECYhD7I1E6vxC1N24qsSG
mwbf9cKi7O12Sp8QOgGiHxnb5B4HvztTgodBkeeT65MEkP1xZOyuEebifcDARzW3
FZpeRPM3ILCt6w13hAXExx5l2wr3+uzaCVFqPQ==
-----END CERTIFICATE-----
