Certificate:
    Data:
        Version: 3 (0x2)
        Serial Number:
            eb:71:50:81:b2:0f:29:87:09:80:cf:25:d4:7f:41:e9
        Signature Algorithm: sha256WithRSAEncryption
        Issuer: CN=team720-net
        Validity
            Not Before: May 18 23:56:14 2022 GMT
            Not After : May  2 23:56:14 2025 GMT
        Subject: CN=team720-client
        Subject Public Key Info:
            Public Key Algorithm: rsaEncryption
                RSA Public-Key: (2048 bit)
                Modulus:
                    00:db:49:b7:a4:5b:10:e1:98:8b:a8:8d:b4:03:de:
                    8a:e1:32:17:48:8a:af:55:6e:49:94:80:bb:0e:e5:
                    70:33:7a:7a:0c:83:65:fc:5d:e2:7e:b0:31:7b:13:
                    af:b0:9c:06:d5:05:ee:23:6f:dc:c3:35:b2:bb:a7:
                    0f:a1:ce:f0:4d:19:ea:86:ae:ee:3f:6b:09:b4:53:
                    2e:69:0d:0b:78:1d:76:ea:58:c3:3e:c7:97:17:75:
                    d2:6b:3d:f7:82:83:a1:bc:12:dd:8e:19:57:91:78:
                    87:a3:37:53:14:11:78:a1:2b:20:bc:88:76:27:b0:
                    06:a0:d8:90:d8:ac:f8:69:4f:53:86:1f:b0:60:b9:
                    9e:a4:b1:10:09:c5:bd:2f:d2:bf:16:e6:53:8f:ab:
                    c5:60:01:ca:fd:9f:70:01:ed:d3:64:3d:69:0a:db:
                    54:39:ec:52:56:26:24:78:84:5c:37:ce:3c:c1:dd:
                    db:d5:e1:89:14:01:e3:ea:67:f7:ea:32:b6:60:e0:
                    1a:91:64:6e:6d:bf:35:7e:8a:58:c8:20:0a:9e:81:
                    c2:7a:36:17:e2:8f:dd:92:1d:db:75:9b:88:5f:da:
                    18:0d:df:b0:01:0c:7d:c4:d7:a5:f8:34:95:46:33:
                    e1:72:c5:9e:f5:cc:a9:2a:22:c7:b5:70:5d:fe:1f:
                    c4:89
                Exponent: 65537 (0x10001)
        X509v3 extensions:
            X509v3 Basic Constraints: 
                CA:FALSE
            X509v3 Subject Key Identifier: 
                F9:75:E0:57:53:7F:3C:0B:13:4C:D3:40:AB:90:E6:99:11:6E:58:28
            X509v3 Authority Key Identifier: 
                keyid:F0:07:3A:D6:E5:DC:B9:B0:74:EB:46:5D:A7:B8:86:6B:FB:D7:B4:6F
                DirName:/CN=team720-net
                serial:56:42:9E:D2:4E:6F:A7:17:0B:AA:4B:8C:89:C4:47:37:BC:29:A0:16

            X509v3 Extended Key Usage: 
                TLS Web Client Authentication
            X509v3 Key Usage: 
                Digital Signature
    Signature Algorithm: sha256WithRSAEncryption
         9f:d7:5c:2c:f3:3a:6c:c3:44:b5:4b:69:24:ed:fd:8b:51:8e:
         a5:76:f9:87:76:5a:da:d4:ff:3a:30:8a:b9:18:4d:36:c5:29:
         e3:c5:54:c1:70:87:eb:18:2d:10:fd:9e:b5:be:80:dc:1d:5e:
         0b:33:a9:36:27:65:05:df:4a:1e:11:d8:2d:d3:76:cd:8f:2f:
         41:51:eb:41:96:64:28:96:b8:c9:b1:97:e8:b0:c1:6d:ba:40:
         61:14:45:6f:56:c8:72:81:2f:06:9a:3a:eb:05:c7:89:25:53:
         ee:2f:e1:6e:27:98:b5:91:78:eb:06:81:c2:fd:34:5d:42:b4:
         33:37:dd:36:29:49:c9:31:87:1b:c2:ed:80:ec:be:08:47:3d:
         84:5c:93:e6:54:49:70:d2:c6:e7:f5:3e:b4:e3:83:df:97:91:
         c2:2b:7f:e5:b5:6d:e5:de:57:e7:f9:b5:75:97:39:f4:85:71:
         8d:f5:c4:62:b7:87:10:c0:07:4d:7a:4a:fc:ed:a6:7a:88:52:
         fa:6b:75:c9:4c:bc:da:32:f3:3c:e4:dc:be:73:25:d7:20:b5:
         1f:3c:4a:8a:29:a4:77:36:a9:02:76:25:8d:f8:a3:33:01:45:
         a6:2c:f2:81:35:11:7c:53:03:fe:dd:39:fc:a2:f3:a2:20:90:
         59:f1:fd:83
-----BEGIN CERTIFICATE-----
MIIDXTCCAkWgAwIBAgIRAOtxUIGyDymHCYDPJdR/QekwDQYJKoZIhvcNAQELBQAw
FjEUMBIGA1UEAwwLdGVhbTcyMC1uZXQwHhcNMjIwNTE4MjM1NjE0WhcNMjUwNTAy
MjM1NjE0WjAZMRcwFQYDVQQDDA50ZWFtNzIwLWNsaWVudDCCASIwDQYJKoZIhvcN
AQEBBQADggEPADCCAQoCggEBANtJt6RbEOGYi6iNtAPeiuEyF0iKr1VuSZSAuw7l
cDN6egyDZfxd4n6wMXsTr7CcBtUF7iNv3MM1srunD6HO8E0Z6oau7j9rCbRTLmkN
C3gddupYwz7Hlxd10ms994KDobwS3Y4ZV5F4h6M3UxQReKErILyIdiewBqDYkNis
+GlPU4YfsGC5nqSxEAnFvS/SvxbmU4+rxWAByv2fcAHt02Q9aQrbVDnsUlYmJHiE
XDfOPMHd29XhiRQB4+pn9+oytmDgGpFkbm2/NX6KWMggCp6Bwno2F+KP3ZId23Wb
iF/aGA3fsAEMfcTXpfg0lUYz4XLFnvXMqSoix7VwXf4fxIkCAwEAAaOBojCBnzAJ
BgNVHRMEAjAAMB0GA1UdDgQWBBT5deBXU388CxNM00CrkOaZEW5YKDBRBgNVHSME
SjBIgBTwBzrW5dy5sHTrRl2nuIZr+9e0b6EapBgwFjEUMBIGA1UEAwwLdGVhbTcy
MC1uZXSCFFZCntJOb6cXC6pLjInERze8KaAWMBMGA1UdJQQMMAoGCCsGAQUFBwMC
MAsGA1UdDwQEAwIHgDANBgkqhkiG9w0BAQsFAAOCAQEAn9dcLPM6bMNEtUtpJO39
i1GOpXb5h3Za2tT/OjCKuRhNNsUp48VUwXCH6xgtEP2etb6A3B1eCzOpNidlBd9K
HhHYLdN2zY8vQVHrQZZkKJa4ybGX6LDBbbpAYRRFb1bIcoEvBpo66wXHiSVT7i/h
bieYtZF46waBwv00XUK0MzfdNilJyTGHG8LtgOy+CEc9hFyT5lRJcNLG5/U+tOOD
35eRwit/5bVt5d5X5/m1dZc59IVxjfXEYreHEMAHTXpK/O2meohS+mt1yUy82jLz
POTcvnMl1yC1HzxKiimkdzapAnYljfijMwFFpizygTURfFMD/t05/KLzoiCQWfH9
gw==
-----END CERTIFICATE-----
