Certificate:
    Data:
        Version: 3 (0x2)
        Serial Number:
            77:4b:0d:3c:2f:98:54:63:59:44:84:49:d3:d0:fc:68
        Signature Algorithm: sha256WithRSAEncryption
        Issuer: CN=team322-net
        Validity
            Not Before: May 18 20:22:23 2022 GMT
            Not After : May  2 20:22:23 2025 GMT
        Subject: CN=team322-client
        Subject Public Key Info:
            Public Key Algorithm: rsaEncryption
                RSA Public-Key: (2048 bit)
                Modulus:
                    00:a4:05:0f:f8:72:b6:cf:55:46:91:54:9d:e2:ef:
                    89:bb:c0:43:a1:0e:54:4d:f5:fb:16:63:63:90:1c:
                    84:41:d2:30:88:c3:ca:1e:ab:47:28:86:5c:08:7d:
                    21:59:a2:98:e7:13:b0:11:10:45:04:38:29:7f:2c:
                    b3:fe:b3:93:03:f9:79:04:d6:72:49:01:51:94:92:
                    bd:68:d8:3a:b2:a3:04:0f:3d:49:03:15:ed:98:b7:
                    e7:93:4a:3f:5b:14:00:06:62:7c:55:05:ba:98:de:
                    1c:7d:21:e5:08:2c:aa:ce:26:7c:43:14:7a:f2:85:
                    70:1d:a2:cc:32:74:5b:5d:79:a6:16:91:fb:16:1d:
                    67:c2:01:b2:00:87:46:44:99:96:94:39:68:90:67:
                    0c:e8:f9:c7:8e:fe:79:c3:9b:05:87:9d:7d:af:7a:
                    26:0b:ce:07:6a:1b:2b:b3:4e:42:f9:23:62:b2:ea:
                    1e:96:c7:4c:a8:07:93:9b:98:76:ad:0f:40:73:40:
                    95:9e:6d:b4:5a:18:fa:f3:84:5d:0e:26:68:fa:fe:
                    a9:f8:aa:70:ba:5f:8c:28:06:e5:12:81:c1:ca:37:
                    b5:cd:e2:f8:c2:0a:17:d2:48:26:c8:ab:7d:d0:38:
                    e4:50:e9:ab:97:56:e0:1f:c3:8d:15:a8:b8:92:37:
                    7d:21
                Exponent: 65537 (0x10001)
        X509v3 extensions:
            X509v3 Basic Constraints: 
                CA:FALSE
            X509v3 Subject Key Identifier: 
                22:A2:DC:00:A9:68:AD:55:BB:D4:19:F8:8A:B9:19:E2:77:C2:EE:F7
            X509v3 Authority Key Identifier: 
                keyid:1F:69:45:8C:B6:A9:A9:4C:81:9D:74:5C:8F:16:9B:D7:A7:57:7B:D8
                DirName:/CN=team322-net
                serial:76:31:8D:7F:F6:A9:62:B0:50:0F:C0:0F:73:E4:DD:86:E6:3C:D0:31

            X509v3 Extended Key Usage: 
                TLS Web Client Authentication
            X509v3 Key Usage: 
                Digital Signature
    Signature Algorithm: sha256WithRSAEncryption
         0e:72:1a:91:d3:fb:ea:a7:5e:89:4f:44:51:42:2f:b9:6e:bb:
         df:6c:dc:53:e2:f2:20:5d:47:28:3a:df:73:a1:2b:6b:f7:d5:
         7c:69:9b:ec:c8:09:25:0d:30:29:b6:3e:9b:87:20:f4:d4:4c:
         a4:fe:6a:a8:70:46:6c:00:a9:ff:14:28:75:2d:2d:be:5a:c4:
         7d:29:28:35:52:da:91:ae:75:49:64:3d:b9:87:01:1c:18:38:
         76:67:a2:38:d1:29:2f:c3:d4:ff:e6:ee:19:fa:a9:07:56:9a:
         7a:ac:f9:72:16:e1:f6:c1:9e:96:ae:80:44:10:8c:06:1a:f9:
         f1:0b:6d:9d:dc:a8:2c:29:96:ad:ab:87:01:11:d3:f9:03:ec:
         b6:cf:4e:cb:26:41:db:42:59:8a:c1:99:b1:28:3a:47:1f:13:
         10:a6:f5:9b:6a:0a:21:6f:ed:b2:c8:69:5d:cd:59:f5:e0:e9:
         3a:be:dd:56:d4:83:01:09:04:b6:77:e6:c1:b6:3e:79:38:1c:
         f9:c5:ee:50:62:f1:87:5b:54:49:26:ed:8d:06:e8:0f:60:83:
         c6:89:1a:a1:ff:12:69:95:81:80:8b:bc:bb:54:02:85:0c:67:
         73:7c:ea:b8:3e:96:7d:cc:7b:81:88:a7:81:e5:1a:24:08:0b:
         66:59:7e:a5
-----BEGIN CERTIFICATE-----
MIIDXDCCAkSgAwIBAgIQd0sNPC+YVGNZRIRJ09D8aDANBgkqhkiG9w0BAQsFADAW
MRQwEgYDVQQDDAt0ZWFtMzIyLW5ldDAeFw0yMjA1MTgyMDIyMjNaFw0yNTA1MDIy
MDIyMjNaMBkxFzAVBgNVBAMMDnRlYW0zMjItY2xpZW50MIIBIjANBgkqhkiG9w0B
AQEFAAOCAQ8AMIIBCgKCAQEApAUP+HK2z1VGkVSd4u+Ju8BDoQ5UTfX7FmNjkByE
QdIwiMPKHqtHKIZcCH0hWaKY5xOwERBFBDgpfyyz/rOTA/l5BNZySQFRlJK9aNg6
sqMEDz1JAxXtmLfnk0o/WxQABmJ8VQW6mN4cfSHlCCyqziZ8QxR68oVwHaLMMnRb
XXmmFpH7Fh1nwgGyAIdGRJmWlDlokGcM6PnHjv55w5sFh519r3omC84Hahsrs05C
+SNisuoelsdMqAeTm5h2rQ9Ac0CVnm20Whj684RdDiZo+v6p+Kpwul+MKAblEoHB
yje1zeL4wgoX0kgmyKt90DjkUOmrl1bgH8ONFai4kjd9IQIDAQABo4GiMIGfMAkG
A1UdEwQCMAAwHQYDVR0OBBYEFCKi3ACpaK1Vu9QZ+Iq5GeJ3wu73MFEGA1UdIwRK
MEiAFB9pRYy2qalMgZ10XI8Wm9enV3vYoRqkGDAWMRQwEgYDVQQDDAt0ZWFtMzIy
LW5ldIIUdjGNf/apYrBQD8APc+TdhuY80DEwEwYDVR0lBAwwCgYIKwYBBQUHAwIw
CwYDVR0PBAQDAgeAMA0GCSqGSIb3DQEBCwUAA4IBAQAOchqR0/vqp16JT0RRQi+5
brvfbNxT4vIgXUcoOt9zoStr99V8aZvsyAklDTAptj6bhyD01Eyk/mqocEZsAKn/
FCh1LS2+WsR9KSg1UtqRrnVJZD25hwEcGDh2Z6I40Skvw9T/5u4Z+qkHVpp6rPly
FuH2wZ6WroBEEIwGGvnxC22d3KgsKZatq4cBEdP5A+y2z07LJkHbQlmKwZmxKDpH
HxMQpvWbagohb+2yyGldzVn14Ok6vt1W1IMBCQS2d+bBtj55OBz5xe5QYvGHW1RJ
Ju2NBugPYIPGiRqh/xJplYGAi7y7VAKFDGdzfOq4PpZ9zHuBiKeB5RokCAtmWX6l
-----END CERTIFICATE-----
