Certificate:
    Data:
        Version: 3 (0x2)
        Serial Number:
            58:b4:35:00:7e:a0:20:85:ec:1f:82:76:46:e6:0d:0a
        Signature Algorithm: sha256WithRSAEncryption
        Issuer: CN=team650-net
        Validity
            Not Before: May 18 23:18:48 2022 GMT
            Not After : May  2 23:18:48 2025 GMT
        Subject: CN=team650-client
        Subject Public Key Info:
            Public Key Algorithm: rsaEncryption
                RSA Public-Key: (2048 bit)
                Modulus:
                    00:ac:78:22:d9:e7:85:2d:f2:9d:b0:3a:80:9d:6d:
                    60:d0:f0:27:4e:a8:81:dc:6d:94:12:e5:6e:3b:30:
                    fd:b1:35:c3:f9:77:b8:17:22:24:62:97:8f:8a:90:
                    27:ee:69:13:e3:08:24:0a:0a:f9:8e:bf:fd:dc:ed:
                    d2:f8:66:a2:e5:76:5d:03:db:08:cd:98:97:19:45:
                    20:ac:9b:ae:1e:58:b3:fd:5d:c2:8e:68:00:e5:1c:
                    22:22:99:c7:c8:ba:86:82:98:58:b8:9f:42:6d:0f:
                    94:6f:70:2b:ae:18:aa:8d:5c:5b:16:5a:fb:2e:d9:
                    22:40:05:a5:47:e6:05:c1:2f:83:6b:52:b7:5e:d0:
                    cd:39:a6:ec:14:00:52:14:4d:3b:1c:1e:d0:ab:b6:
                    dd:7b:28:2e:92:ec:e6:93:69:7f:47:21:a6:5e:dc:
                    1e:3c:88:81:de:e9:2b:c3:f9:9e:54:85:e2:4a:5e:
                    c8:93:dc:86:bb:56:35:9d:e7:86:30:a0:1a:1c:d1:
                    64:a4:1e:bf:21:96:4c:25:69:bd:31:fe:35:8c:63:
                    17:f7:e8:10:91:d0:9a:8e:ae:63:16:b6:5a:9d:b3:
                    63:5d:2b:2d:6a:22:ff:e8:cf:b0:3d:47:dc:d1:2b:
                    00:26:36:11:f1:d4:fa:95:d0:cd:d4:70:60:de:a2:
                    ec:5d
                Exponent: 65537 (0x10001)
        X509v3 extensions:
            X509v3 Basic Constraints: 
                CA:FALSE
            X509v3 Subject Key Identifier: 
                87:B7:0A:0B:13:97:CE:E1:7D:48:42:86:A0:00:AF:4B:B5:DA:90:E1
            X509v3 Authority Key Identifier: 
                keyid:58:06:9B:F5:33:73:A0:9B:67:C0:8D:24:D4:6F:E8:78:D6:7B:AA:0D
                DirName:/CN=team650-net
                serial:38:C6:88:F4:B4:25:DD:A6:22:85:7C:C0:EB:9A:CE:E5:BB:5B:E8:CD

            X509v3 Extended Key Usage: 
                TLS Web Client Authentication
            X509v3 Key Usage: 
                Digital Signature
    Signature Algorithm: sha256WithRSAEncryption
         7f:9e:24:76:68:b6:21:a7:a0:43:29:c2:87:9a:5c:ba:9b:25:
         ef:73:f9:b9:2d:52:23:92:71:81:b5:49:e3:f1:7c:89:b6:a6:
         38:02:7f:1e:86:9f:e5:21:b2:1d:d0:ac:e0:73:7a:47:d8:9e:
         96:31:c7:44:81:e3:2a:3b:7c:e4:31:f9:85:db:5e:96:99:4e:
         75:3b:44:2c:4f:25:74:54:d2:b1:93:06:c3:f2:5e:16:75:62:
         ca:f1:df:f8:12:3b:7c:8a:c7:80:55:86:41:7d:5d:b0:08:fb:
         01:26:0d:dd:c6:e6:b2:bb:29:a3:42:86:94:cc:0d:76:d3:3e:
         d2:02:89:bb:8c:5e:69:e2:88:09:a8:e9:ee:22:36:e8:60:25:
         6d:8b:cd:18:61:c1:e2:dd:55:28:18:28:0e:39:15:c9:a2:e6:
         44:14:13:78:9c:5a:69:51:dc:d2:7f:4a:42:50:aa:bc:72:33:
         c5:07:db:80:8c:d7:e9:d4:65:1a:43:4a:4f:d3:98:10:d5:49:
         aa:89:c1:e4:95:73:c5:9c:ea:a8:1f:5b:54:35:fd:24:c3:86:
         98:18:10:a1:dc:88:0b:f0:ff:35:fd:7f:49:25:86:94:11:06:
         5d:c9:cf:03:99:a5:36:ed:b7:e4:f0:c2:4e:90:db:6b:7e:b8:
         c0:08:60:fc
-----BEGIN CERTIFICATE-----
MIIDXDCCAkSgAwIBAgIQWLQ1AH6gIIXsH4J2RuYNCjANBgkqhkiG9w0BAQsFADAW
MRQwEgYDVQQDDAt0ZWFtNjUwLW5ldDAeFw0yMjA1MTgyMzE4NDhaFw0yNTA1MDIy
MzE4NDhaMBkxFzAVBgNVBAMMDnRlYW02NTAtY2xpZW50MIIBIjANBgkqhkiG9w0B
AQEFAAOCAQ8AMIIBCgKCAQEArHgi2eeFLfKdsDqAnW1g0PAnTqiB3G2UEuVuOzD9
sTXD+Xe4FyIkYpePipAn7mkT4wgkCgr5jr/93O3S+Gai5XZdA9sIzZiXGUUgrJuu
Hliz/V3CjmgA5RwiIpnHyLqGgphYuJ9CbQ+Ub3ArrhiqjVxbFlr7LtkiQAWlR+YF
wS+Da1K3XtDNOabsFABSFE07HB7Qq7bdeygukuzmk2l/RyGmXtwePIiB3ukrw/me
VIXiSl7Ik9yGu1Y1neeGMKAaHNFkpB6/IZZMJWm9Mf41jGMX9+gQkdCajq5jFrZa
nbNjXSstaiL/6M+wPUfc0SsAJjYR8dT6ldDN1HBg3qLsXQIDAQABo4GiMIGfMAkG
A1UdEwQCMAAwHQYDVR0OBBYEFIe3CgsTl87hfUhChqAAr0u12pDhMFEGA1UdIwRK
MEiAFFgGm/Uzc6CbZ8CNJNRv6HjWe6oNoRqkGDAWMRQwEgYDVQQDDAt0ZWFtNjUw
LW5ldIIUOMaI9LQl3aYihXzA65rO5btb6M0wEwYDVR0lBAwwCgYIKwYBBQUHAwIw
CwYDVR0PBAQDAgeAMA0GCSqGSIb3DQEBCwUAA4IBAQB/niR2aLYhp6BDKcKHmly6
myXvc/m5LVIjknGBtUnj8XyJtqY4An8ehp/lIbId0Kzgc3pH2J6WMcdEgeMqO3zk
MfmF216WmU51O0QsTyV0VNKxkwbD8l4WdWLK8d/4Ejt8iseAVYZBfV2wCPsBJg3d
xuayuymjQoaUzA120z7SAom7jF5p4ogJqOnuIjboYCVti80YYcHi3VUoGCgOORXJ
ouZEFBN4nFppUdzSf0pCUKq8cjPFB9uAjNfp1GUaQ0pP05gQ1UmqicHklXPFnOqo
H1tUNf0kw4aYGBCh3IgL8P81/X9JJYaUEQZdyc8DmaU27bfk8MJOkNtrfrjACGD8
-----END CERTIFICATE-----
