Certificate:
    Data:
        Version: 3 (0x2)
        Serial Number:
            e9:f0:dd:98:a4:e9:80:0e:6d:8d:f6:f5:01:4f:d0:01
        Signature Algorithm: sha256WithRSAEncryption
        Issuer: CN=team650-net
        Validity
            Not Before: May 18 23:18:48 2022 GMT
            Not After : May  2 23:18:48 2025 GMT
        Subject: CN=team650-server
        Subject Public Key Info:
            Public Key Algorithm: rsaEncryption
                RSA Public-Key: (2048 bit)
                Modulus:
                    00:e6:50:e8:9c:32:f4:3c:2a:dd:ab:21:bc:eb:75:
                    8e:97:ed:61:56:ba:1e:9a:80:50:0b:7b:b7:ef:51:
                    b3:a2:aa:f0:c8:66:52:06:cc:13:c8:ca:c5:bd:21:
                    2d:82:e7:62:5c:fb:5b:a6:06:16:10:80:8a:43:52:
                    ca:26:b9:53:e3:6a:05:aa:44:67:6d:a6:4c:66:92:
                    2a:f9:fb:26:d0:21:d2:3a:8f:57:a3:b5:32:78:f4:
                    9a:d9:8b:11:b5:63:fd:5a:e0:66:50:60:83:d4:76:
                    84:31:8a:97:e5:49:d4:21:01:bb:33:ab:2a:4f:13:
                    35:8e:2e:61:04:a2:f6:15:d6:5d:00:62:94:5b:61:
                    4f:ff:1f:3a:1b:ba:29:72:86:10:64:f1:e3:9b:51:
                    a9:6a:1d:4d:70:e7:54:fc:08:d0:ed:02:f9:94:69:
                    61:06:4f:e9:49:ee:f6:06:ee:cf:50:99:d8:75:cc:
                    df:3a:77:81:51:0c:f8:4a:26:86:a7:6e:8f:b3:b8:
                    ed:72:10:99:e7:d6:b5:c5:c1:3a:b2:72:43:8f:ee:
                    ec:d7:43:f8:36:be:8a:49:84:36:78:cd:1b:6a:f3:
                    51:13:13:3a:45:04:37:af:05:7f:d0:c2:5f:13:62:
                    73:cb:4d:21:f2:88:54:ca:da:46:52:30:8e:6d:2a:
                    69:a1
                Exponent: 65537 (0x10001)
        X509v3 extensions:
            X509v3 Basic Constraints: 
                CA:FALSE
            X509v3 Subject Key Identifier: 
                DE:72:BD:DB:3B:9A:2C:3D:3E:92:51:05:C3:60:F0:9C:69:47:91:2F
            X509v3 Authority Key Identifier: 
                keyid:58:06:9B:F5:33:73:A0:9B:67:C0:8D:24:D4:6F:E8:78:D6:7B:AA:0D
                DirName:/CN=team650-net
                serial:38:C6:88:F4:B4:25:DD:A6:22:85:7C:C0:EB:9A:CE:E5:BB:5B:E8:CD

            X509v3 Extended Key Usage: 
                TLS Web Server Authentication
            X509v3 Key Usage: 
                Digital Signature, Key Encipherment
            X509v3 Subject Alternative Name: 
                DNS:team650-server
    Signature Algorithm: sha256WithRSAEncryption
         9f:e7:50:00:db:20:c7:36:93:2a:71:bf:cf:c9:49:31:5c:55:
         6d:39:9b:fe:10:49:04:d7:35:ad:04:34:e7:3b:18:9f:5a:3c:
         a1:cb:2c:b8:53:dd:71:54:a1:74:09:f0:0f:32:34:78:63:5c:
         0f:73:43:37:b7:cd:46:15:40:c0:b7:cf:12:64:c6:3f:23:c6:
         ae:4e:89:b9:f1:94:04:f6:31:c7:6a:48:c3:c4:a7:1c:e8:ee:
         48:15:a4:e9:d2:3f:fb:dd:f9:d7:c8:b7:74:e7:6c:13:d0:8b:
         5f:72:82:af:6c:bd:a5:12:c0:8f:e3:af:5b:19:08:1d:3e:e7:
         99:19:11:d5:99:d8:6b:73:cc:2f:30:e5:1d:60:c3:2c:2c:dc:
         7c:fb:7a:95:84:a0:39:80:29:6c:16:56:7f:a0:5e:bb:23:5e:
         5e:90:d8:35:05:f9:48:29:38:8e:ce:3d:7e:45:51:06:95:69:
         cd:63:85:90:3c:f5:b5:19:77:ac:f6:12:8f:a6:21:b7:ee:0a:
         95:4a:46:b9:fe:6e:e0:9b:e3:40:5c:93:32:0a:24:b3:4b:77:
         27:2c:f6:8a:58:12:ed:d1:97:6e:c9:8e:ac:68:1e:a0:14:01:
         e8:a6:72:70:9e:42:fc:69:a9:3b:c6:91:f8:79:61:45:b2:be:
         e7:49:5d:4a
-----BEGIN CERTIFICATE-----
MIIDeDCCAmCgAwIBAgIRAOnw3Zik6YAObY329QFP0AEwDQYJKoZIhvcNAQELBQAw
FjEUMBIGA1UEAwwLdGVhbTY1MC1uZXQwHhcNMjIwNTE4MjMxODQ4WhcNMjUwNTAy
MjMxODQ4WjAZMRcwFQYDVQQDDA50ZWFtNjUwLXNlcnZlcjCCASIwDQYJKoZIhvcN
AQEBBQADggEPADCCAQoCggEBAOZQ6Jwy9Dwq3ashvOt1jpftYVa6HpqAUAt7t+9R
s6Kq8MhmUgbME8jKxb0hLYLnYlz7W6YGFhCAikNSyia5U+NqBapEZ22mTGaSKvn7
JtAh0jqPV6O1Mnj0mtmLEbVj/VrgZlBgg9R2hDGKl+VJ1CEBuzOrKk8TNY4uYQSi
9hXWXQBilFthT/8fOhu6KXKGEGTx45tRqWodTXDnVPwI0O0C+ZRpYQZP6Unu9gbu
z1CZ2HXM3zp3gVEM+Eomhqduj7O47XIQmefWtcXBOrJyQ4/u7NdD+Da+ikmENnjN
G2rzURMTOkUEN68Ff9DCXxNic8tNIfKIVMraRlIwjm0qaaECAwEAAaOBvTCBujAJ
BgNVHRMEAjAAMB0GA1UdDgQWBBTecr3bO5osPT6SUQXDYPCcaUeRLzBRBgNVHSME
SjBIgBRYBpv1M3Ogm2fAjSTUb+h41nuqDaEapBgwFjEUMBIGA1UEAwwLdGVhbTY1
MC1uZXSCFDjGiPS0Jd2mIoV8wOuazuW7W+jNMBMGA1UdJQQMMAoGCCsGAQUFBwMB
MAsGA1UdDwQEAwIFoDAZBgNVHREEEjAQgg50ZWFtNjUwLXNlcnZlcjANBgkqhkiG
9w0BAQsFAAOCAQEAn+dQANsgxzaTKnG/z8lJMVxVbTmb/hBJBNc1rQQ05zsYn1o8
ocssuFPdcVShdAnwDzI0eGNcD3NDN7fNRhVAwLfPEmTGPyPGrk6JufGUBPYxx2pI
w8SnHOjuSBWk6dI/+93518i3dOdsE9CLX3KCr2y9pRLAj+OvWxkIHT7nmRkR1ZnY
a3PMLzDlHWDDLCzcfPt6lYSgOYApbBZWf6BeuyNeXpDYNQX5SCk4js49fkVRBpVp
zWOFkDz1tRl3rPYSj6Yht+4KlUpGuf5u4JvjQFyTMgoks0t3Jyz2ilgS7dGXbsmO
rGgeoBQB6KZycJ5C/GmpO8aR+HlhRbK+50ldSg==
-----END CERTIFICATE-----
