Certificate:
    Data:
        Version: 3 (0x2)
        Serial Number:
            4d:67:9d:e7:f7:23:f4:92:35:15:91:cd:92:f2:c4:db
        Signature Algorithm: sha256WithRSAEncryption
        Issuer: CN=team372-net
        Validity
            Not Before: May 18 20:49:55 2022 GMT
            Not After : May  2 20:49:55 2025 GMT
        Subject: CN=team372-client
        Subject Public Key Info:
            Public Key Algorithm: rsaEncryption
                RSA Public-Key: (2048 bit)
                Modulus:
                    00:af:0d:ff:58:b1:c8:c3:b4:8d:a5:6d:76:bf:2d:
                    0c:b5:e9:fb:b4:04:56:04:2b:2e:e3:7a:ff:9b:27:
                    52:c9:45:c3:8f:7c:8d:f0:54:49:83:27:c9:0b:35:
                    0a:7f:05:9a:87:1a:6e:f6:ee:53:b4:d9:4e:ac:90:
                    46:1c:a0:f8:12:da:c3:62:71:fd:59:83:9c:0b:1f:
                    a3:64:6d:d7:fd:ba:dc:23:91:a1:d9:c2:e9:eb:8f:
                    b8:f4:26:95:fb:8c:1b:04:82:fc:37:a1:37:54:81:
                    7b:39:59:96:0c:45:22:d7:4d:ca:90:f6:6f:f7:28:
                    b6:f6:cc:3b:b2:b8:25:1c:07:0c:aa:a3:5c:9f:8a:
                    1e:da:51:52:19:07:cd:91:e0:2f:e9:4a:bb:f5:15:
                    08:20:5a:79:58:8a:bb:cd:a8:8b:dc:ca:d3:52:2c:
                    13:62:43:26:00:5a:88:e8:0e:e0:46:47:1f:20:27:
                    a9:7b:e4:80:0a:46:f6:89:90:6a:9f:44:38:47:f4:
                    94:8e:ec:65:fa:00:e8:89:a7:81:de:b3:f7:b2:ef:
                    62:0d:f9:66:32:19:04:9f:0d:7c:d9:1f:d5:7e:5e:
                    34:73:22:0f:25:5a:34:a8:bb:4d:b7:3a:5c:d9:13:
                    46:ab:d5:71:7e:a9:99:bc:9e:13:31:c2:f6:f6:36:
                    c5:c7
                Exponent: 65537 (0x10001)
        X509v3 extensions:
            X509v3 Basic Constraints: 
                CA:FALSE
            X509v3 Subject Key Identifier: 
                53:EE:EC:D4:2C:67:A1:E6:A6:14:93:9C:7F:86:65:3A:3F:44:8A:54
            X509v3 Authority Key Identifier: 
                keyid:34:19:04:74:8D:1C:B1:1B:7D:A8:C5:FA:06:32:24:E1:BE:60:4A:67
                DirName:/CN=team372-net
                serial:15:45:5D:5E:A8:D5:97:01:EF:C1:17:85:5E:9E:12:2F:03:00:CD:A3

            X509v3 Extended Key Usage: 
                TLS Web Client Authentication
            X509v3 Key Usage: 
                Digital Signature
    Signature Algorithm: sha256WithRSAEncryption
         6a:8b:14:b6:b3:84:8f:c0:1d:40:91:cc:d4:23:2e:23:bf:93:
         25:89:05:39:48:70:fe:70:35:80:a4:d3:bd:aa:26:d0:2b:d6:
         7a:32:00:20:34:71:a0:a9:21:5b:3c:58:5d:96:49:77:06:b6:
         e5:f9:2a:ef:3e:06:e6:92:54:af:30:1e:f9:5b:9f:8f:84:63:
         ee:4b:b3:84:a4:e3:94:33:c3:08:ed:e8:82:41:e3:9a:2b:bd:
         27:25:57:35:3c:3f:40:b8:1f:6d:5d:87:ba:38:ec:c0:87:6c:
         dd:48:1c:80:8f:12:66:50:6c:a0:da:8a:34:2d:a1:bf:d7:68:
         9e:09:1b:53:5e:67:ad:25:17:77:47:90:f1:1a:bf:aa:b6:f8:
         24:ce:60:53:7c:e0:ab:8a:59:3f:5f:44:9d:af:bd:19:63:a9:
         18:c5:02:13:23:fd:3b:4e:3d:86:26:e0:ca:d7:71:2f:af:11:
         b1:a9:c1:44:4f:e1:ae:87:b1:c3:9b:44:8f:e9:20:05:31:ea:
         f1:05:d2:9c:9a:a9:3c:62:a6:2c:61:32:b0:5e:be:ae:b2:0b:
         16:53:c5:f1:c3:6d:13:cc:8c:5d:da:eb:52:41:48:e7:6a:5f:
         84:ed:21:0e:c7:6d:6e:1e:9f:6c:be:26:09:0a:53:ef:6c:6e:
         dd:67:08:81
-----BEGIN CERTIFICATE-----
MIIDXDCCAkSgAwIBAgIQTWed5/cj9JI1FZHNkvLE2zANBgkqhkiG9w0BAQsFADAW
MRQwEgYDVQQDDAt0ZWFtMzcyLW5ldDAeFw0yMjA1MTgyMDQ5NTVaFw0yNTA1MDIy
MDQ5NTVaMBkxFzAVBgNVBAMMDnRlYW0zNzItY2xpZW50MIIBIjANBgkqhkiG9w0B
AQEFAAOCAQ8AMIIBCgKCAQEArw3/WLHIw7SNpW12vy0Mten7tARWBCsu43r/mydS
yUXDj3yN8FRJgyfJCzUKfwWahxpu9u5TtNlOrJBGHKD4EtrDYnH9WYOcCx+jZG3X
/brcI5Gh2cLp64+49CaV+4wbBIL8N6E3VIF7OVmWDEUi103KkPZv9yi29sw7srgl
HAcMqqNcn4oe2lFSGQfNkeAv6Uq79RUIIFp5WIq7zaiL3MrTUiwTYkMmAFqI6A7g
RkcfICepe+SACkb2iZBqn0Q4R/SUjuxl+gDoiaeB3rP3su9iDflmMhkEnw182R/V
fl40cyIPJVo0qLtNtzpc2RNGq9VxfqmZvJ4TMcL29jbFxwIDAQABo4GiMIGfMAkG
A1UdEwQCMAAwHQYDVR0OBBYEFFPu7NQsZ6HmphSTnH+GZTo/RIpUMFEGA1UdIwRK
MEiAFDQZBHSNHLEbfajF+gYyJOG+YEpnoRqkGDAWMRQwEgYDVQQDDAt0ZWFtMzcy
LW5ldIIUFUVdXqjVlwHvwReFXp4SLwMAzaMwEwYDVR0lBAwwCgYIKwYBBQUHAwIw
CwYDVR0PBAQDAgeAMA0GCSqGSIb3DQEBCwUAA4IBAQBqixS2s4SPwB1AkczUIy4j
v5MliQU5SHD+cDWApNO9qibQK9Z6MgAgNHGgqSFbPFhdlkl3Brbl+SrvPgbmklSv
MB75W5+PhGPuS7OEpOOUM8MI7eiCQeOaK70nJVc1PD9AuB9tXYe6OOzAh2zdSByA
jxJmUGyg2oo0LaG/12ieCRtTXmetJRd3R5DxGr+qtvgkzmBTfOCrilk/X0Sdr70Z
Y6kYxQITI/07Tj2GJuDK13EvrxGxqcFET+Guh7HDm0SP6SAFMerxBdKcmqk8YqYs
YTKwXr6usgsWU8Xxw20TzIxd2utSQUjnal+E7SEOx21uHp9sviYJClPvbG7dZwiB
-----END CERTIFICATE-----
