Certificate:
    Data:
        Version: 3 (0x2)
        Serial Number:
            dc:0a:7f:4e:50:7e:d9:35:5f:18:a7:11:ed:1f:61:ea
        Signature Algorithm: sha256WithRSAEncryption
        Issuer: CN=team406-net
        Validity
            Not Before: May 18 21:04:17 2022 GMT
            Not After : May  2 21:04:17 2025 GMT
        Subject: CN=team406-server
        Subject Public Key Info:
            Public Key Algorithm: rsaEncryption
                RSA Public-Key: (2048 bit)
                Modulus:
                    00:c4:d9:80:1f:0b:b0:36:dc:33:8e:41:2c:cf:5f:
                    a4:2a:56:bb:57:3f:8c:08:6a:9d:91:22:e0:1d:f8:
                    27:ba:c3:11:09:2d:9a:b3:84:b9:ca:7f:b0:e2:8a:
                    c6:8f:14:ef:01:39:c5:a0:07:b9:f7:08:ff:ee:23:
                    d3:5e:c6:68:70:ce:0d:15:a9:a2:f3:1d:46:d8:92:
                    11:26:c0:b6:ef:3d:f0:33:8b:26:ff:a6:24:0d:27:
                    6a:3a:78:2a:86:50:56:d1:bc:02:eb:f3:2c:d1:48:
                    90:2b:9e:64:50:b1:0e:5f:c6:bc:3f:85:61:5e:df:
                    d3:4e:ef:cd:16:e3:64:15:0e:b4:d5:c8:61:33:63:
                    e1:59:01:7a:7d:87:5e:ab:3d:c1:5a:8b:ef:ca:11:
                    fa:27:11:4a:3e:7f:26:cd:95:d4:b4:e5:cd:b4:17:
                    7e:46:83:6b:84:43:09:ad:94:58:61:8f:dd:97:5d:
                    53:15:e4:b3:25:cf:8c:87:dd:e4:9c:59:a2:fd:f5:
                    76:82:8e:ba:da:fe:2f:b3:e0:a7:5a:ca:96:eb:97:
                    83:02:0e:a0:c6:3d:b0:39:7c:a6:2a:c5:96:10:2a:
                    cc:f1:4f:6f:21:fe:ac:d5:24:ce:be:6b:f1:05:d6:
                    9c:9f:44:3f:9d:c0:66:0f:3b:0d:6e:b8:7d:24:26:
                    52:b1
                Exponent: 65537 (0x10001)
        X509v3 extensions:
            X509v3 Basic Constraints: 
                CA:FALSE
            X509v3 Subject Key Identifier: 
                76:0B:02:4A:D0:6C:D9:56:AC:D8:0A:83:C3:C4:83:9E:FE:B4:1D:FE
            X509v3 Authority Key Identifier: 
                keyid:B5:0E:BB:51:F3:64:B3:DC:C9:CB:2B:C9:E4:B8:88:AC:AC:EF:18:5F
                DirName:/CN=team406-net
                serial:53:0C:88:B1:C3:99:67:F9:39:40:CF:70:30:72:10:92:DC:AA:09:FC

            X509v3 Extended Key Usage: 
                TLS Web Server Authentication
            X509v3 Key Usage: 
                Digital Signature, Key Encipherment
            X509v3 Subject Alternative Name: 
                DNS:team406-server
    Signature Algorithm: sha256WithRSAEncryption
         86:01:96:f5:dc:83:9b:06:c5:5d:d2:dd:a0:76:fa:f0:39:c9:
         19:f6:44:77:31:a7:a7:fd:fe:2d:92:06:fc:fd:16:90:c6:9e:
         9e:d5:ef:d1:45:bb:51:a0:b4:fd:74:f3:65:70:9c:3a:ac:8f:
         83:80:90:12:6f:a5:ca:e4:74:bd:83:32:3b:e3:8f:d5:67:73:
         b0:1c:f9:9c:c7:70:59:81:11:59:98:3f:07:4f:70:89:f3:cb:
         25:09:ef:4a:bb:2e:7f:5c:a9:fd:e7:0c:4a:4e:cb:9f:18:bc:
         95:4f:f3:15:7f:38:6c:ea:68:89:13:e7:a9:2f:92:be:e1:77:
         6f:59:9a:da:9a:15:25:34:e7:70:ac:e8:54:92:db:fa:d6:f8:
         bb:3b:8a:c4:d7:c0:78:51:09:14:37:f2:65:5d:e7:be:3b:b9:
         dd:88:43:0f:eb:7c:00:7f:98:71:7d:6f:ef:8c:ac:4e:28:4e:
         cb:fe:6b:a1:6a:65:28:0e:a0:76:3b:7d:d3:2c:b9:82:69:e1:
         bf:3a:c8:83:5f:76:04:19:19:23:30:eb:e0:cf:01:ae:7b:bc:
         4e:b2:c7:3e:ff:83:c3:07:1b:09:d8:f7:1b:18:38:2d:83:c9:
         c0:a8:d1:38:a2:2b:ab:b8:34:8c:54:ce:c6:32:9e:2b:95:87:
         c0:4e:c9:67
-----BEGIN CERTIFICATE-----
MIIDeDCCAmCgAwIBAgIRANwKf05Qftk1XxinEe0fYeowDQYJKoZIhvcNAQELBQAw
FjEUMBIGA1UEAwwLdGVhbTQwNi1uZXQwHhcNMjIwNTE4MjEwNDE3WhcNMjUwNTAy
MjEwNDE3WjAZMRcwFQYDVQQDDA50ZWFtNDA2LXNlcnZlcjCCASIwDQYJKoZIhvcN
AQEBBQADggEPADCCAQoCggEBAMTZgB8LsDbcM45BLM9fpCpWu1c/jAhqnZEi4B34
J7rDEQktmrOEucp/sOKKxo8U7wE5xaAHufcI/+4j017GaHDODRWpovMdRtiSESbA
tu898DOLJv+mJA0najp4KoZQVtG8AuvzLNFIkCueZFCxDl/GvD+FYV7f007vzRbj
ZBUOtNXIYTNj4VkBen2HXqs9wVqL78oR+icRSj5/Js2V1LTlzbQXfkaDa4RDCa2U
WGGP3ZddUxXksyXPjIfd5JxZov31doKOutr+L7Pgp1rKluuXgwIOoMY9sDl8pirF
lhAqzPFPbyH+rNUkzr5r8QXWnJ9EP53AZg87DW64fSQmUrECAwEAAaOBvTCBujAJ
BgNVHRMEAjAAMB0GA1UdDgQWBBR2CwJK0GzZVqzYCoPDxIOe/rQd/jBRBgNVHSME
SjBIgBS1DrtR82Sz3MnLK8nkuIisrO8YX6EapBgwFjEUMBIGA1UEAwwLdGVhbTQw
Ni1uZXSCFFMMiLHDmWf5OUDPcDByEJLcqgn8MBMGA1UdJQQMMAoGCCsGAQUFBwMB
MAsGA1UdDwQEAwIFoDAZBgNVHREEEjAQgg50ZWFtNDA2LXNlcnZlcjANBgkqhkiG
9w0BAQsFAAOCAQEAhgGW9dyDmwbFXdLdoHb68DnJGfZEdzGnp/3+LZIG/P0WkMae
ntXv0UW7UaC0/XTzZXCcOqyPg4CQEm+lyuR0vYMyO+OP1WdzsBz5nMdwWYERWZg/
B09wifPLJQnvSrsuf1yp/ecMSk7Lnxi8lU/zFX84bOpoiRPnqS+SvuF3b1ma2poV
JTTncKzoVJLb+tb4uzuKxNfAeFEJFDfyZV3nvju53YhDD+t8AH+YcX1v74ysTihO
y/5roWplKA6gdjt90yy5gmnhvzrIg192BBkZIzDr4M8Brnu8TrLHPv+DwwcbCdj3
Gxg4LYPJwKjROKIrq7g0jFTOxjKeK5WHwE7JZw==
-----END CERTIFICATE-----
