Certificate:
    Data:
        Version: 3 (0x2)
        Serial Number:
            50:b4:79:57:55:bb:66:4f:c2:ac:e0:da:79:3b:84:7c
        Signature Algorithm: sha256WithRSAEncryption
        Issuer: CN=team448-net
        Validity
            Not Before: May 18 21:19:59 2022 GMT
            Not After : May  2 21:19:59 2025 GMT
        Subject: CN=team448-client
        Subject Public Key Info:
            Public Key Algorithm: rsaEncryption
                RSA Public-Key: (2048 bit)
                Modulus:
                    00:f0:11:9a:03:56:ca:49:0d:a1:c5:bd:ff:7d:2e:
                    6a:9f:67:23:d9:a8:b8:ad:b4:11:99:63:c8:36:bd:
                    82:a6:fa:14:c4:eb:a6:1a:c0:a2:cd:bb:af:a6:b0:
                    3a:de:ab:b1:a2:2b:ca:ab:8c:ac:a5:52:d7:38:78:
                    50:cc:18:c1:cd:6c:7a:3c:64:eb:98:f0:82:e9:50:
                    01:a9:56:8a:13:fb:7e:88:52:ef:97:9d:b8:4b:ac:
                    45:36:90:69:6e:39:ac:19:cc:07:2e:9f:d4:ab:1e:
                    d2:26:04:c9:2b:21:cb:03:ee:47:ba:aa:72:24:db:
                    b8:21:4b:9e:cc:93:2e:b2:d1:d0:96:56:dc:52:1c:
                    91:54:f8:30:bd:67:81:1a:e8:b1:cd:f6:8e:fb:88:
                    b1:09:21:e5:0e:cd:3b:35:f9:01:41:ce:3b:a1:b2:
                    43:b7:f6:d2:d5:8d:60:54:99:79:5d:2c:fd:db:f0:
                    c7:c4:89:4a:ab:b2:2b:af:5c:fc:56:d3:7c:51:52:
                    b9:da:0a:4d:d0:8d:d7:52:af:ef:8d:00:2b:28:2e:
                    f0:c4:27:98:b8:83:dc:1e:c2:a7:2f:ba:a9:96:8b:
                    5d:df:d8:b0:1a:03:18:4b:c9:92:b7:81:7c:11:5d:
                    d5:e8:02:81:ed:45:a6:a3:40:6f:82:32:9f:0a:95:
                    85:3d
                Exponent: 65537 (0x10001)
        X509v3 extensions:
            X509v3 Basic Constraints: 
                CA:FALSE
            X509v3 Subject Key Identifier: 
                36:7A:D4:79:27:5A:FC:1F:D9:AC:FC:78:8B:0C:59:E3:7B:5D:BC:E6
            X509v3 Authority Key Identifier: 
                keyid:98:03:84:43:63:33:FB:6B:E6:48:35:1D:D2:63:7C:BA:4E:B3:72:BD
                DirName:/CN=team448-net
                serial:74:94:F2:86:FC:C4:F6:95:ED:83:F8:48:26:26:32:2C:FB:8E:CE:14

            X509v3 Extended Key Usage: 
                TLS Web Client Authentication
            X509v3 Key Usage: 
                Digital Signature
    Signature Algorithm: sha256WithRSAEncryption
         c2:7b:02:04:e4:e2:3f:16:d9:6f:ac:e3:1f:21:b5:1f:5d:61:
         fb:df:35:a9:f4:ce:7f:77:c6:09:64:81:d8:8a:d5:1c:86:9a:
         e5:68:40:73:dd:17:01:54:0c:ff:b7:67:64:36:ec:03:8c:ee:
         ed:49:d1:88:17:99:67:a5:ad:3b:1a:08:6b:7f:7b:6e:d1:eb:
         b6:c3:25:92:34:23:47:b6:6c:fd:ff:fc:81:f0:18:12:39:e3:
         16:3d:cb:20:b1:7e:ea:f4:8a:26:48:30:3c:75:e9:04:76:86:
         60:83:60:66:2a:00:da:96:99:45:f8:c3:b4:ea:0f:33:b1:ce:
         99:0a:79:a6:ec:eb:40:83:c5:91:e4:30:41:0e:1f:c3:12:65:
         e3:a4:e2:42:59:a7:48:2e:cd:30:fb:ed:1e:d9:84:03:5a:15:
         50:ed:9e:f3:2c:26:1f:31:b3:80:40:43:87:79:1c:b0:e7:8a:
         c9:92:42:27:03:96:b5:4a:56:7f:cd:9b:81:46:ad:62:b5:41:
         c8:e8:a6:2e:29:4a:eb:c9:1c:86:0b:ae:0d:c1:e1:e8:08:21:
         d2:52:84:02:38:d5:6a:b4:f9:7e:98:13:a6:c4:15:2f:eb:12:
         53:dc:3b:95:72:e6:cb:d6:c0:37:21:4b:b3:bf:df:d2:d2:cc:
         7c:1c:f2:8a
-----BEGIN CERTIFICATE-----
MIIDXDCCAkSgAwIBAgIQULR5V1W7Zk/CrODaeTuEfDANBgkqhkiG9w0BAQsFADAW
MRQwEgYDVQQDDAt0ZWFtNDQ4LW5ldDAeFw0yMjA1MTgyMTE5NTlaFw0yNTA1MDIy
MTE5NTlaMBkxFzAVBgNVBAMMDnRlYW00NDgtY2xpZW50MIIBIjANBgkqhkiG9w0B
AQEFAAOCAQ8AMIIBCgKCAQEA8BGaA1bKSQ2hxb3/fS5qn2cj2ai4rbQRmWPINr2C
pvoUxOumGsCizbuvprA63quxoivKq4yspVLXOHhQzBjBzWx6PGTrmPCC6VABqVaK
E/t+iFLvl524S6xFNpBpbjmsGcwHLp/Uqx7SJgTJKyHLA+5HuqpyJNu4IUuezJMu
stHQllbcUhyRVPgwvWeBGuixzfaO+4ixCSHlDs07NfkBQc47obJDt/bS1Y1gVJl5
XSz92/DHxIlKq7Irr1z8VtN8UVK52gpN0I3XUq/vjQArKC7wxCeYuIPcHsKnL7qp
lotd39iwGgMYS8mSt4F8EV3V6AKB7UWmo0BvgjKfCpWFPQIDAQABo4GiMIGfMAkG
A1UdEwQCMAAwHQYDVR0OBBYEFDZ61HknWvwf2az8eIsMWeN7XbzmMFEGA1UdIwRK
MEiAFJgDhENjM/tr5kg1HdJjfLpOs3K9oRqkGDAWMRQwEgYDVQQDDAt0ZWFtNDQ4
LW5ldIIUdJTyhvzE9pXtg/hIJiYyLPuOzhQwEwYDVR0lBAwwCgYIKwYBBQUHAwIw
CwYDVR0PBAQDAgeAMA0GCSqGSIb3DQEBCwUAA4IBAQDCewIE5OI/FtlvrOMfIbUf
XWH73zWp9M5/d8YJZIHYitUchprlaEBz3RcBVAz/t2dkNuwDjO7tSdGIF5lnpa07
Gghrf3tu0eu2wyWSNCNHtmz9//yB8BgSOeMWPcsgsX7q9IomSDA8dekEdoZgg2Bm
KgDalplF+MO06g8zsc6ZCnmm7OtAg8WR5DBBDh/DEmXjpOJCWadILs0w++0e2YQD
WhVQ7Z7zLCYfMbOAQEOHeRyw54rJkkInA5a1SlZ/zZuBRq1itUHI6KYuKUrryRyG
C64NweHoCCHSUoQCONVqtPl+mBOmxBUv6xJT3DuVcubL1sA3IUuzv9/S0sx8HPKK
-----END CERTIFICATE-----
