Certificate:
    Data:
        Version: 3 (0x2)
        Serial Number:
            38:0f:dd:68:a9:52:1a:5f:73:17:10:6c:35:25:81:f0
        Signature Algorithm: sha256WithRSAEncryption
        Issuer: CN=team182-net
        Validity
            Not Before: May 18 18:52:45 2022 GMT
            Not After : May  2 18:52:45 2025 GMT
        Subject: CN=team182-server
        Subject Public Key Info:
            Public Key Algorithm: rsaEncryption
                RSA Public-Key: (2048 bit)
                Modulus:
                    00:ca:18:38:67:52:44:cf:3b:89:94:f3:70:dd:fc:
                    4f:85:2e:05:82:23:1f:6b:65:15:81:98:72:d1:3f:
                    cb:03:25:3c:95:ab:b8:08:36:3a:dd:1e:02:00:68:
                    f0:2b:18:4e:98:79:6c:9b:04:35:98:a9:69:a4:46:
                    9c:b1:1c:7d:b9:99:bc:e1:cb:65:a2:7a:f8:f6:14:
                    de:2c:d1:59:18:17:04:e6:22:e4:ca:7f:d2:e7:8c:
                    fe:a9:38:c5:16:ae:1b:1f:91:fa:cd:95:be:00:90:
                    b3:e6:58:97:ca:c9:59:63:96:e1:4d:80:56:6b:e5:
                    a5:89:de:f0:34:36:76:a1:f2:1d:57:cd:56:7c:97:
                    b1:18:03:fb:ec:6e:0f:44:e3:89:72:41:96:a2:97:
                    13:89:46:67:5c:d7:be:9d:e4:39:a5:8d:e8:7c:9a:
                    03:b7:74:2a:8b:4e:c6:a5:0f:32:f0:7e:72:45:56:
                    90:38:2d:8d:a1:a2:91:c2:00:d2:db:e0:ef:e7:66:
                    8d:f3:27:26:f1:f5:6e:bf:07:77:7e:11:2c:9c:93:
                    27:ab:79:9c:9f:4d:da:64:fc:6b:c7:82:f0:28:c9:
                    ed:67:eb:25:ee:9f:72:71:9c:ce:df:a1:fe:76:93:
                    1e:f6:de:1b:f4:3e:3d:29:f4:8f:fa:3b:bb:96:43:
                    28:c1
                Exponent: 65537 (0x10001)
        X509v3 extensions:
            X509v3 Basic Constraints: 
                CA:FALSE
            X509v3 Subject Key Identifier: 
                2F:EC:8D:90:81:29:9F:15:51:E6:23:B0:57:0C:A3:2F:02:82:0F:BB
            X509v3 Authority Key Identifier: 
                keyid:6D:C3:6B:8A:41:C1:25:CF:F5:A8:BB:15:2D:7A:62:AF:71:BD:F8:81
                DirName:/CN=team182-net
                serial:78:C3:0B:9C:9A:25:E4:8C:37:16:41:9A:F2:A2:40:98:27:1C:B1:7A

            X509v3 Extended Key Usage: 
                TLS Web Server Authentication
            X509v3 Key Usage: 
                Digital Signature, Key Encipherment
            X509v3 Subject Alternative Name: 
                DNS:team182-server
    Signature Algorithm: sha256WithRSAEncryption
         8a:3f:8d:21:86:3d:86:cf:70:e4:a4:ad:77:de:2e:cc:c8:63:
         19:38:3a:86:9a:eb:ac:5e:00:18:da:f2:94:3e:ca:56:26:22:
         98:b3:8f:be:a1:eb:f5:0c:71:1e:a6:5c:b4:3b:9a:f4:60:1f:
         66:3e:21:61:34:23:60:21:f6:0e:6d:c0:dc:3c:67:3c:6f:57:
         d7:38:b7:fe:fc:78:cd:4c:35:40:bb:8a:e7:f6:02:99:71:62:
         b9:c4:07:53:78:62:00:36:9c:07:0c:73:77:70:40:4a:7d:ef:
         35:94:22:44:00:bc:54:31:74:de:67:3a:68:d3:f2:7a:4d:51:
         b2:61:0d:2f:1d:25:22:0c:92:4c:15:1b:89:c5:30:23:f7:28:
         c5:c1:9a:ec:16:aa:0c:a1:69:e7:68:a3:97:87:9f:c6:90:70:
         69:7c:19:bd:41:a2:37:a1:d6:16:e4:c2:80:e9:c7:df:08:12:
         d1:6c:ad:f8:0c:aa:34:0e:27:c4:b7:fd:ac:48:78:9b:ce:65:
         18:c9:f6:cf:77:e4:c9:98:59:ae:6a:bc:54:69:cc:f1:43:40:
         e0:dc:79:06:1a:03:b2:9f:b3:6f:26:e7:3f:c5:28:d5:c2:7a:
         09:16:2a:3e:c0:8a:18:9a:e7:e4:07:e5:f4:a6:25:10:9a:14:
         4b:26:52:09
-----BEGIN CERTIFICATE-----
MIIDdzCCAl+gAwIBAgIQOA/daKlSGl9zFxBsNSWB8DANBgkqhkiG9w0BAQsFADAW
MRQwEgYDVQQDDAt0ZWFtMTgyLW5ldDAeFw0yMjA1MTgxODUyNDVaFw0yNTA1MDIx
ODUyNDVaMBkxFzAVBgNVBAMMDnRlYW0xODItc2VydmVyMIIBIjANBgkqhkiG9w0B
AQEFAAOCAQ8AMIIBCgKCAQEAyhg4Z1JEzzuJlPNw3fxPhS4FgiMfa2UVgZhy0T/L
AyU8lau4CDY63R4CAGjwKxhOmHlsmwQ1mKlppEacsRx9uZm84ctlonr49hTeLNFZ
GBcE5iLkyn/S54z+qTjFFq4bH5H6zZW+AJCz5liXyslZY5bhTYBWa+Wlid7wNDZ2
ofIdV81WfJexGAP77G4PROOJckGWopcTiUZnXNe+neQ5pY3ofJoDt3Qqi07GpQ8y
8H5yRVaQOC2NoaKRwgDS2+Dv52aN8ycm8fVuvwd3fhEsnJMnq3mcn03aZPxrx4Lw
KMntZ+sl7p9ycZzO36H+dpMe9t4b9D49KfSP+ju7lkMowQIDAQABo4G9MIG6MAkG
A1UdEwQCMAAwHQYDVR0OBBYEFC/sjZCBKZ8VUeYjsFcMoy8Cgg+7MFEGA1UdIwRK
MEiAFG3Da4pBwSXP9ai7FS16Yq9xvfiBoRqkGDAWMRQwEgYDVQQDDAt0ZWFtMTgy
LW5ldIIUeMMLnJol5Iw3FkGa8qJAmCccsXowEwYDVR0lBAwwCgYIKwYBBQUHAwEw
CwYDVR0PBAQDAgWgMBkGA1UdEQQSMBCCDnRlYW0xODItc2VydmVyMA0GCSqGSIb3
DQEBCwUAA4IBAQCKP40hhj2Gz3DkpK133i7MyGMZODqGmuusXgAY2vKUPspWJiKY
s4++oev1DHEeply0O5r0YB9mPiFhNCNgIfYObcDcPGc8b1fXOLf+/HjNTDVAu4rn
9gKZcWK5xAdTeGIANpwHDHN3cEBKfe81lCJEALxUMXTeZzpo0/J6TVGyYQ0vHSUi
DJJMFRuJxTAj9yjFwZrsFqoMoWnnaKOXh5/GkHBpfBm9QaI3odYW5MKA6cffCBLR
bK34DKo0DifEt/2sSHibzmUYyfbPd+TJmFmuarxUaczxQ0Dg3HkGGgOyn7NvJuc/
xSjVwnoJFio+wIoYmufkB+X0piUQmhRLJlIJ
-----END CERTIFICATE-----
