Certificate:
    Data:
        Version: 3 (0x2)
        Serial Number:
            7f:3f:bf:8d:75:8c:87:e6:2d:79:60:bb:45:22:eb:ec
        Signature Algorithm: sha256WithRSAEncryption
        Issuer: CN=team698-net
        Validity
            Not Before: May 18 23:45:21 2022 GMT
            Not After : May  2 23:45:21 2025 GMT
        Subject: CN=team698-server
        Subject Public Key Info:
            Public Key Algorithm: rsaEncryption
                RSA Public-Key: (2048 bit)
                Modulus:
                    00:e7:15:a9:85:21:4e:26:53:fc:d2:ba:f7:6c:51:
                    6e:12:1a:f5:d3:00:07:1a:ea:2b:06:59:c3:84:8d:
                    46:34:43:4d:c2:76:38:e9:f6:8b:af:11:24:69:6d:
                    a3:53:46:dc:a2:6e:c5:30:7f:3a:ee:61:32:9d:07:
                    00:c3:a5:87:96:77:13:02:bc:ab:15:68:24:30:19:
                    e5:dc:a1:3b:21:a3:05:9b:22:4d:24:93:e8:89:d6:
                    60:ac:7f:eb:16:4e:33:93:dd:4b:fa:43:3c:54:5e:
                    90:fe:e1:d5:96:9f:4f:4d:9b:58:bc:cf:b4:e5:4d:
                    82:15:a0:37:4b:65:fb:d3:d8:ac:4b:d7:12:f3:e5:
                    5d:94:d7:9f:33:97:08:6e:03:82:d0:94:67:3f:bb:
                    06:8f:43:5a:e1:29:c4:66:a4:7e:a9:ac:d3:ce:45:
                    e6:d5:21:7f:36:5d:a2:fe:96:87:7e:5a:5e:51:75:
                    58:e8:e0:99:6b:56:a1:67:2c:00:d5:96:3c:73:5c:
                    96:91:52:4f:fc:f9:fe:f3:7f:fb:64:a4:9e:bf:c3:
                    76:5b:db:2b:fb:d8:6e:ed:9c:e7:57:a0:7c:fa:42:
                    e9:cc:21:0a:21:f4:e0:1b:8c:5d:f8:8b:84:0a:7e:
                    0c:2e:03:7a:c9:a4:18:bf:37:8a:3c:79:e0:32:b7:
                    2d:03
                Exponent: 65537 (0x10001)
        X509v3 extensions:
            X509v3 Basic Constraints: 
                CA:FALSE
            X509v3 Subject Key Identifier: 
                7D:16:92:3E:74:C8:96:CE:1D:CC:61:6E:73:D9:D4:58:D9:B4:BF:64
            X509v3 Authority Key Identifier: 
                keyid:F2:00:9D:0C:55:83:2E:56:68:7A:52:FB:BB:DF:F6:8C:03:70:DD:43
                DirName:/CN=team698-net
                serial:4D:32:CB:BB:32:61:51:5E:76:22:B7:40:E1:4C:F2:A7:D3:EB:11:D4

            X509v3 Extended Key Usage: 
                TLS Web Server Authentication
            X509v3 Key Usage: 
                Digital Signature, Key Encipherment
            X509v3 Subject Alternative Name: 
                DNS:team698-server
    Signature Algorithm: sha256WithRSAEncryption
         1d:c8:ca:60:68:53:7b:f6:7e:03:12:77:ee:00:9b:27:85:5d:
         d9:9e:db:4b:d3:85:5e:f7:42:f1:9d:d9:ae:4e:af:01:63:f7:
         6e:3a:1c:da:51:0f:6c:1b:eb:79:2f:1c:ca:ba:fa:35:84:f0:
         a1:1e:00:ef:01:92:b1:64:7c:7c:93:0f:29:c1:73:ad:6d:38:
         22:38:56:8d:02:b8:86:2f:70:c4:d9:19:c7:6a:5e:e8:0e:73:
         cf:28:12:24:dd:99:6a:04:10:49:8e:a3:94:98:0e:62:0e:d9:
         7f:04:59:30:d3:f6:11:23:8e:09:c6:3d:99:17:48:0b:17:3d:
         6f:a7:aa:05:61:92:3f:8b:78:a1:6c:ec:63:ee:f4:1d:7d:98:
         2e:93:67:4a:49:73:77:f2:95:0c:fb:29:07:c0:6c:9e:c4:61:
         6d:f0:74:1a:47:7a:fe:cb:f7:af:20:bb:25:82:24:87:e4:0b:
         6b:b4:6c:fb:21:86:93:64:f9:33:f1:e6:78:cd:71:65:9e:7c:
         05:16:6d:62:e0:12:75:e5:ee:99:7b:ca:2b:d2:97:31:70:bc:
         95:09:86:a7:45:fb:22:78:7c:7c:8c:7a:1f:ae:28:ce:48:85:
         68:bf:5a:1d:ac:c8:57:59:71:7a:65:3b:a0:7a:ab:eb:74:27:
         51:72:53:8f
-----BEGIN CERTIFICATE-----
MIIDdzCCAl+gAwIBAgIQfz+/jXWMh+YteWC7RSLr7DANBgkqhkiG9w0BAQsFADAW
MRQwEgYDVQQDDAt0ZWFtNjk4LW5ldDAeFw0yMjA1MTgyMzQ1MjFaFw0yNTA1MDIy
MzQ1MjFaMBkxFzAVBgNVBAMMDnRlYW02OTgtc2VydmVyMIIBIjANBgkqhkiG9w0B
AQEFAAOCAQ8AMIIBCgKCAQEA5xWphSFOJlP80rr3bFFuEhr10wAHGuorBlnDhI1G
NENNwnY46faLrxEkaW2jU0bcom7FMH867mEynQcAw6WHlncTAryrFWgkMBnl3KE7
IaMFmyJNJJPoidZgrH/rFk4zk91L+kM8VF6Q/uHVlp9PTZtYvM+05U2CFaA3S2X7
09isS9cS8+VdlNefM5cIbgOC0JRnP7sGj0Na4SnEZqR+qazTzkXm1SF/Nl2i/paH
flpeUXVY6OCZa1ahZywA1ZY8c1yWkVJP/Pn+83/7ZKSev8N2W9sr+9hu7ZznV6B8
+kLpzCEKIfTgG4xd+IuECn4MLgN6yaQYvzeKPHngMrctAwIDAQABo4G9MIG6MAkG
A1UdEwQCMAAwHQYDVR0OBBYEFH0Wkj50yJbOHcxhbnPZ1FjZtL9kMFEGA1UdIwRK
MEiAFPIAnQxVgy5WaHpS+7vf9owDcN1DoRqkGDAWMRQwEgYDVQQDDAt0ZWFtNjk4
LW5ldIIUTTLLuzJhUV52IrdA4Uzyp9PrEdQwEwYDVR0lBAwwCgYIKwYBBQUHAwEw
CwYDVR0PBAQDAgWgMBkGA1UdEQQSMBCCDnRlYW02OTgtc2VydmVyMA0GCSqGSIb3
DQEBCwUAA4IBAQAdyMpgaFN79n4DEnfuAJsnhV3ZnttL04Ve90LxndmuTq8BY/du
OhzaUQ9sG+t5LxzKuvo1hPChHgDvAZKxZHx8kw8pwXOtbTgiOFaNAriGL3DE2RnH
al7oDnPPKBIk3ZlqBBBJjqOUmA5iDtl/BFkw0/YRI44Jxj2ZF0gLFz1vp6oFYZI/
i3ihbOxj7vQdfZguk2dKSXN38pUM+ykHwGyexGFt8HQaR3r+y/evILslgiSH5Atr
tGz7IYaTZPkz8eZ4zXFlnnwFFm1i4BJ15e6Ze8or0pcxcLyVCYanRfsieHx8jHof
rijOSIVov1odrMhXWXF6ZTugeqvrdCdRclOP
-----END CERTIFICATE-----
