Certificate:
    Data:
        Version: 3 (0x2)
        Serial Number:
            12:cf:57:d9:99:a8:e9:4d:2e:ae:6f:1d:97:24:7d:2d
        Signature Algorithm: sha256WithRSAEncryption
        Issuer: CN=team432-net
        Validity
            Not Before: May 18 21:14:13 2022 GMT
            Not After : May  2 21:14:13 2025 GMT
        Subject: CN=team432-client
        Subject Public Key Info:
            Public Key Algorithm: rsaEncryption
                RSA Public-Key: (2048 bit)
                Modulus:
                    00:bb:06:d8:51:d8:84:bf:15:04:19:75:11:9b:d5:
                    0d:ef:e0:7e:3c:97:4d:9e:86:2b:7c:af:4b:7e:fe:
                    cd:df:c5:33:20:f3:34:19:ea:a6:8c:9d:33:64:e5:
                    0f:b9:d8:fd:b4:24:26:09:75:6c:1e:37:f4:05:a4:
                    0d:1f:1f:d3:e8:49:9b:da:9f:cb:bb:20:e5:ea:90:
                    99:77:76:3f:69:bd:8d:8b:f1:98:a5:69:63:31:16:
                    8f:e4:17:bf:9e:99:25:d6:0b:f7:9c:0b:70:64:37:
                    d7:4c:2b:f9:b1:72:f0:ee:31:6f:ba:01:b1:1c:a7:
                    8b:02:d7:07:fa:62:57:4a:5c:43:51:4d:39:ee:bf:
                    de:8c:f3:56:14:97:cd:ad:ec:6c:ed:63:b5:9e:fd:
                    0c:72:ef:ad:54:a0:37:86:cf:ab:d9:06:0b:0a:2c:
                    1c:bb:99:95:f2:dd:3a:4f:e2:a7:ea:12:9a:b1:47:
                    1c:7d:8e:5f:c9:8c:13:34:30:74:b1:f9:68:9c:0e:
                    af:99:16:4a:fe:a1:13:2b:81:63:b5:bd:8d:3d:20:
                    d2:5b:43:ef:da:29:3a:0c:12:43:c9:e2:56:78:59:
                    6c:a6:8a:42:b4:ff:01:07:54:fe:98:ca:08:b6:40:
                    01:a2:a2:73:1c:15:a0:50:37:18:74:57:23:40:6c:
                    5e:bf
                Exponent: 65537 (0x10001)
        X509v3 extensions:
            X509v3 Basic Constraints: 
                CA:FALSE
            X509v3 Subject Key Identifier: 
                49:8D:B4:2E:C3:FF:D5:1F:86:C6:DE:95:5B:37:71:34:C5:50:46:33
            X509v3 Authority Key Identifier: 
                keyid:37:94:92:8D:67:A4:51:17:EC:75:97:CA:BB:31:A6:02:3B:B8:1D:76
                DirName:/CN=team432-net
                serial:50:C8:E7:1E:3C:42:EF:84:D0:88:67:AE:5C:C5:95:DC:AF:77:40:BE

            X509v3 Extended Key Usage: 
                TLS Web Client Authentication
            X509v3 Key Usage: 
                Digital Signature
    Signature Algorithm: sha256WithRSAEncryption
         a5:b7:a8:0c:57:38:9d:f5:ea:0f:f5:51:67:13:7d:52:aa:41:
         4b:35:ba:f4:30:cc:a0:f7:6a:94:e0:f6:c4:81:15:5c:ed:b0:
         9c:15:23:ef:39:1c:d0:95:af:dc:14:7c:5a:f1:ea:25:4c:6e:
         e2:f9:ec:0d:b2:5d:e8:ad:1e:51:2b:e2:92:ae:d9:91:9f:5a:
         84:7e:12:58:af:4f:d9:2f:f3:8d:8f:ec:01:89:bf:05:6f:2a:
         3d:86:21:c9:55:17:47:cb:14:ea:1e:d5:d8:52:84:97:d5:62:
         b9:fe:12:70:92:88:37:a6:02:56:f0:76:aa:91:99:d0:13:f4:
         f6:44:99:de:9a:b6:83:3c:88:d0:63:65:4e:d6:61:b7:c9:e4:
         9c:f5:8e:b0:f1:7c:78:5a:b3:6c:08:9e:c2:26:5f:a1:b4:84:
         a3:b6:c0:61:ce:b7:68:72:ed:b0:57:88:cc:39:8f:fd:09:75:
         8e:af:06:16:da:7f:93:b3:3c:9b:a5:e5:7f:32:e5:18:07:df:
         2c:39:31:4a:7c:d0:cf:02:7b:12:7d:ca:37:af:92:a1:ea:a2:
         94:d0:d9:04:58:ae:41:0e:3b:8e:2c:18:19:bd:04:1b:fc:92:
         83:7f:b2:b0:34:ed:b3:de:7a:47:f1:02:dc:9c:ee:52:61:25:
         aa:d5:69:02
-----BEGIN CERTIFICATE-----
MIIDXDCCAkSgAwIBAgIQEs9X2Zmo6U0urm8dlyR9LTANBgkqhkiG9w0BAQsFADAW
MRQwEgYDVQQDDAt0ZWFtNDMyLW5ldDAeFw0yMjA1MTgyMTE0MTNaFw0yNTA1MDIy
MTE0MTNaMBkxFzAVBgNVBAMMDnRlYW00MzItY2xpZW50MIIBIjANBgkqhkiG9w0B
AQEFAAOCAQ8AMIIBCgKCAQEAuwbYUdiEvxUEGXURm9UN7+B+PJdNnoYrfK9Lfv7N
38UzIPM0GeqmjJ0zZOUPudj9tCQmCXVsHjf0BaQNHx/T6Emb2p/LuyDl6pCZd3Y/
ab2Ni/GYpWljMRaP5Be/npkl1gv3nAtwZDfXTCv5sXLw7jFvugGxHKeLAtcH+mJX
SlxDUU057r/ejPNWFJfNrexs7WO1nv0Mcu+tVKA3hs+r2QYLCiwcu5mV8t06T+Kn
6hKasUccfY5fyYwTNDB0sflonA6vmRZK/qETK4Fjtb2NPSDSW0Pv2ik6DBJDyeJW
eFlspopCtP8BB1T+mMoItkABoqJzHBWgUDcYdFcjQGxevwIDAQABo4GiMIGfMAkG
A1UdEwQCMAAwHQYDVR0OBBYEFEmNtC7D/9UfhsbelVs3cTTFUEYzMFEGA1UdIwRK
MEiAFDeUko1npFEX7HWXyrsxpgI7uB12oRqkGDAWMRQwEgYDVQQDDAt0ZWFtNDMy
LW5ldIIUUMjnHjxC74TQiGeuXMWV3K93QL4wEwYDVR0lBAwwCgYIKwYBBQUHAwIw
CwYDVR0PBAQDAgeAMA0GCSqGSIb3DQEBCwUAA4IBAQClt6gMVzid9eoP9VFnE31S
qkFLNbr0MMyg92qU4PbEgRVc7bCcFSPvORzQla/cFHxa8eolTG7i+ewNsl3orR5R
K+KSrtmRn1qEfhJYr0/ZL/ONj+wBib8Fbyo9hiHJVRdHyxTqHtXYUoSX1WK5/hJw
kog3pgJW8HaqkZnQE/T2RJnemraDPIjQY2VO1mG3yeSc9Y6w8Xx4WrNsCJ7CJl+h
tISjtsBhzrdocu2wV4jMOY/9CXWOrwYW2n+TszybpeV/MuUYB98sOTFKfNDPAnsS
fco3r5Kh6qKU0NkEWK5BDjuOLBgZvQQb/JKDf7KwNO2z3npH8QLcnO5SYSWq1WkC
-----END CERTIFICATE-----
