Certificate:
    Data:
        Version: 3 (0x2)
        Serial Number:
            b8:de:5f:2e:a7:0b:78:75:99:21:37:38:0b:c8:d0:14
        Signature Algorithm: sha256WithRSAEncryption
        Issuer: CN=team432-net
        Validity
            Not Before: May 18 21:14:13 2022 GMT
            Not After : May  2 21:14:13 2025 GMT
        Subject: CN=team432-server
        Subject Public Key Info:
            Public Key Algorithm: rsaEncryption
                RSA Public-Key: (2048 bit)
                Modulus:
                    00:bd:8f:74:6f:3d:55:13:3b:cb:cd:1b:aa:3c:ad:
                    ef:e6:e0:b3:d7:87:53:ac:ad:7e:c6:f5:2b:a4:49:
                    09:71:f5:36:f2:04:0b:d8:ac:c9:b1:28:14:3b:4d:
                    77:4d:8a:df:4f:e8:a1:58:74:33:b3:82:6c:b4:ed:
                    ea:ac:23:d2:2a:64:35:55:e6:5d:85:af:7b:1d:f0:
                    e9:4d:8d:a5:79:4b:5c:ce:36:73:d4:1f:41:3f:d0:
                    b5:a8:90:59:ce:2b:a3:40:12:a5:39:8f:16:8a:d9:
                    73:e5:70:be:49:e7:71:d1:44:dc:fb:40:a4:1a:d1:
                    7a:df:01:ba:f2:ce:63:a0:73:7e:d3:1d:b0:db:51:
                    d2:fd:7a:e3:96:8f:99:17:dc:25:29:36:9d:7c:02:
                    d3:22:3f:0f:d7:be:d8:e5:7d:d5:d6:79:e7:48:71:
                    2d:0d:1c:60:36:d6:03:55:6b:60:62:ab:ae:ae:ac:
                    58:f4:48:fe:16:30:aa:52:a3:21:dc:8b:fb:5a:cb:
                    97:ba:96:b3:7a:88:9a:db:21:32:3a:c5:88:06:ca:
                    b0:b9:1c:df:ec:1d:d7:2b:6d:22:5b:50:20:ed:75:
                    da:dc:5b:08:fc:d6:cb:73:94:49:9f:65:8b:31:ac:
                    fa:87:4e:95:fc:40:38:33:f5:e3:4f:5a:91:87:6d:
                    2d:e3
                Exponent: 65537 (0x10001)
        X509v3 extensions:
            X509v3 Basic Constraints: 
                CA:FALSE
            X509v3 Subject Key Identifier: 
                61:21:64:5B:A1:44:6A:41:33:D0:97:26:D6:E8:7F:4C:36:6C:5A:42
            X509v3 Authority Key Identifier: 
                keyid:37:94:92:8D:67:A4:51:17:EC:75:97:CA:BB:31:A6:02:3B:B8:1D:76
                DirName:/CN=team432-net
                serial:50:C8:E7:1E:3C:42:EF:84:D0:88:67:AE:5C:C5:95:DC:AF:77:40:BE

            X509v3 Extended Key Usage: 
                TLS Web Server Authentication
            X509v3 Key Usage: 
                Digital Signature, Key Encipherment
            X509v3 Subject Alternative Name: 
                DNS:team432-server
    Signature Algorithm: sha256WithRSAEncryption
         4f:96:48:4f:2c:c0:91:f9:1f:5c:fc:ea:db:cc:55:1c:04:c9:
         38:e8:6f:3f:45:fa:5f:41:27:f9:2c:9a:77:a6:58:37:1a:8e:
         8a:73:57:c4:15:42:ef:0f:4a:16:21:d1:78:4f:bd:c0:fd:f5:
         3b:74:59:77:f5:f0:41:b6:e6:83:48:1e:71:9f:34:97:a8:77:
         c1:46:c4:0c:12:52:2b:23:66:4a:97:e3:81:91:55:bd:59:6e:
         3b:01:d8:37:64:7a:e9:fc:01:32:be:02:7e:49:bd:5e:84:5c:
         66:80:1f:58:fa:28:02:c0:53:68:f7:60:bd:da:61:25:b3:23:
         fd:55:a9:40:1f:fb:4d:71:24:97:3f:d5:85:c5:e5:7e:96:3e:
         51:b4:ff:f2:75:d3:12:9e:8f:a7:ef:61:8e:18:60:4d:97:a3:
         e3:63:b0:4f:0f:6f:ae:71:cd:45:dd:ca:59:01:c9:96:89:a7:
         07:16:53:8f:de:52:2d:ad:b3:e3:e1:0a:03:32:16:cf:4e:ca:
         21:ab:7d:b6:be:d8:0a:17:15:ab:e1:ea:1d:20:b7:db:24:51:
         24:22:7b:b8:50:7c:aa:d6:55:92:99:75:2e:dd:cd:60:3d:13:
         21:44:d5:b5:27:47:3e:67:83:28:31:82:9a:05:19:23:17:fc:
         90:f7:26:c4
-----BEGIN CERTIFICATE-----
MIIDeDCCAmCgAwIBAgIRALjeXy6nC3h1mSE3OAvI0BQwDQYJKoZIhvcNAQELBQAw
FjEUMBIGA1UEAwwLdGVhbTQzMi1uZXQwHhcNMjIwNTE4MjExNDEzWhcNMjUwNTAy
MjExNDEzWjAZMRcwFQYDVQQDDA50ZWFtNDMyLXNlcnZlcjCCASIwDQYJKoZIhvcN
AQEBBQADggEPADCCAQoCggEBAL2PdG89VRM7y80bqjyt7+bgs9eHU6ytfsb1K6RJ
CXH1NvIEC9isybEoFDtNd02K30/ooVh0M7OCbLTt6qwj0ipkNVXmXYWvex3w6U2N
pXlLXM42c9QfQT/QtaiQWc4ro0ASpTmPForZc+VwvknncdFE3PtApBrRet8BuvLO
Y6BzftMdsNtR0v1645aPmRfcJSk2nXwC0yI/D9e+2OV91dZ550hxLQ0cYDbWA1Vr
YGKrrq6sWPRI/hYwqlKjIdyL+1rLl7qWs3qImtshMjrFiAbKsLkc3+wd1yttIltQ
IO112txbCPzWy3OUSZ9lizGs+odOlfxAODP1409akYdtLeMCAwEAAaOBvTCBujAJ
BgNVHRMEAjAAMB0GA1UdDgQWBBRhIWRboURqQTPQlybW6H9MNmxaQjBRBgNVHSME
SjBIgBQ3lJKNZ6RRF+x1l8q7MaYCO7gddqEapBgwFjEUMBIGA1UEAwwLdGVhbTQz
Mi1uZXSCFFDI5x48Qu+E0IhnrlzFldyvd0C+MBMGA1UdJQQMMAoGCCsGAQUFBwMB
MAsGA1UdDwQEAwIFoDAZBgNVHREEEjAQgg50ZWFtNDMyLXNlcnZlcjANBgkqhkiG
9w0BAQsFAAOCAQEAT5ZITyzAkfkfXPzq28xVHATJOOhvP0X6X0En+Syad6ZYNxqO
inNXxBVC7w9KFiHReE+9wP31O3RZd/XwQbbmg0gecZ80l6h3wUbEDBJSKyNmSpfj
gZFVvVluOwHYN2R66fwBMr4Cfkm9XoRcZoAfWPooAsBTaPdgvdphJbMj/VWpQB/7
TXEklz/VhcXlfpY+UbT/8nXTEp6Pp+9hjhhgTZej42OwTw9vrnHNRd3KWQHJlomn
BxZTj95SLa2z4+EKAzIWz07KIat9tr7YChcVq+HqHSC32yRRJCJ7uFB8qtZVkpl1
Lt3NYD0TIUTVtSdHPmeDKDGCmgUZIxf8kPcmxA==
-----END CERTIFICATE-----
