Certificate:
    Data:
        Version: 3 (0x2)
        Serial Number:
            c3:70:02:b4:c0:77:c2:9a:44:bd:01:69:d0:09:35:21
        Signature Algorithm: sha256WithRSAEncryption
        Issuer: CN=team722-net
        Validity
            Not Before: May 18 23:45:56 2022 GMT
            Not After : May  2 23:45:56 2025 GMT
        Subject: CN=team722-server
        Subject Public Key Info:
            Public Key Algorithm: rsaEncryption
                RSA Public-Key: (2048 bit)
                Modulus:
                    00:b8:53:12:d0:be:6f:8c:bd:d2:86:ef:4b:99:38:
                    dd:cc:6d:d6:c7:f0:97:4a:cf:bb:59:12:a7:4a:49:
                    c4:bf:6f:eb:a4:1a:b4:f2:ca:a6:2f:ec:b0:83:4f:
                    29:00:ae:f9:ed:98:a8:c6:32:e1:ba:62:6e:ee:77:
                    7c:42:c2:c7:53:06:99:31:ad:2a:8b:71:7f:c7:27:
                    32:52:17:5d:29:98:7d:41:bf:14:91:e6:8e:10:68:
                    e3:d9:be:3b:a4:54:12:a7:d7:0b:bc:5e:37:1d:f2:
                    7f:02:f1:5b:83:45:f1:70:01:51:3d:00:fa:aa:7b:
                    42:30:11:68:2d:d5:a0:b9:cd:d7:b3:0c:7e:59:da:
                    25:69:b5:05:e6:b2:3b:0d:95:99:4d:77:7d:e8:b0:
                    a4:22:c6:fb:ca:52:ee:8c:03:49:31:02:1a:d6:25:
                    22:dc:38:72:9d:ad:06:42:f1:40:06:68:74:90:1f:
                    49:b1:48:78:15:fa:bc:46:4e:b7:47:0a:66:e2:c2:
                    5b:9a:6a:55:12:3e:0a:2e:a9:9d:d9:df:e8:f6:2a:
                    2a:39:35:21:6e:7b:73:b8:00:b6:2d:a1:9b:8b:53:
                    f1:fa:01:a3:74:7e:5a:0b:76:30:26:8b:0f:1e:a1:
                    a0:9d:d2:b6:ce:5b:46:ec:1e:f3:8e:9a:4d:c6:59:
                    e5:71
                Exponent: 65537 (0x10001)
        X509v3 extensions:
            X509v3 Basic Constraints: 
                CA:FALSE
            X509v3 Subject Key Identifier: 
                FF:43:88:0F:1D:44:19:A6:0B:CF:A4:64:D2:28:69:64:C1:46:6A:D6
            X509v3 Authority Key Identifier: 
                keyid:AC:F5:0D:B4:60:1A:64:CB:8E:51:98:5C:E0:22:15:58:35:B9:E9:4B
                DirName:/CN=team722-net
                serial:5E:6B:E8:67:D3:0C:56:97:75:9D:E0:E8:7C:C0:F1:F5:FF:44:B3:95

            X509v3 Extended Key Usage: 
                TLS Web Server Authentication
            X509v3 Key Usage: 
                Digital Signature, Key Encipherment
            X509v3 Subject Alternative Name: 
                DNS:team722-server
    Signature Algorithm: sha256WithRSAEncryption
         43:18:7b:01:7a:9f:c8:ad:1b:7e:19:2d:be:5d:15:71:06:2d:
         50:88:27:ba:28:03:93:d3:91:10:86:34:de:23:f8:a1:f1:3a:
         10:00:71:96:90:2d:03:ac:26:a1:41:61:e2:3c:8f:db:5a:f6:
         9b:0e:d7:ef:d7:74:f8:a9:3c:36:d7:49:fe:ca:3f:47:8e:b6:
         19:3a:5f:11:15:fc:57:1a:9f:72:68:8e:31:ef:b5:a4:6c:fe:
         65:20:72:98:99:b5:d0:56:53:b4:3a:ad:53:bd:b1:cb:b6:4c:
         22:88:c7:fe:02:1c:5a:97:40:37:ff:e7:7a:da:03:21:1c:b1:
         e1:6f:54:64:8f:0a:09:44:72:d0:81:45:3a:62:db:5e:0f:17:
         4c:fe:09:93:f5:4b:1b:67:89:71:c5:00:60:6a:b6:dd:13:f4:
         c3:33:c2:5b:69:df:97:cb:b0:2f:85:45:6d:7f:49:d9:29:0b:
         1c:5d:c2:b4:42:6c:40:c9:b1:f8:3f:05:ad:dd:6f:ab:c9:93:
         dc:10:18:8f:59:63:8c:ee:0f:36:29:ed:21:b0:82:65:61:7b:
         bd:d9:d5:8d:ed:a3:a1:97:3e:64:6e:2b:f4:06:81:be:0d:9c:
         5d:c0:96:45:63:a5:c0:c8:e7:1e:ae:47:82:52:d8:da:f5:1c:
         5c:7e:bc:f0
-----BEGIN CERTIFICATE-----
MIIDeDCCAmCgAwIBAgIRAMNwArTAd8KaRL0BadAJNSEwDQYJKoZIhvcNAQELBQAw
FjEUMBIGA1UEAwwLdGVhbTcyMi1uZXQwHhcNMjIwNTE4MjM0NTU2WhcNMjUwNTAy
MjM0NTU2WjAZMRcwFQYDVQQDDA50ZWFtNzIyLXNlcnZlcjCCASIwDQYJKoZIhvcN
AQEBBQADggEPADCCAQoCggEBALhTEtC+b4y90obvS5k43cxt1sfwl0rPu1kSp0pJ
xL9v66QatPLKpi/ssINPKQCu+e2YqMYy4bpibu53fELCx1MGmTGtKotxf8cnMlIX
XSmYfUG/FJHmjhBo49m+O6RUEqfXC7xeNx3yfwLxW4NF8XABUT0A+qp7QjARaC3V
oLnN17MMflnaJWm1BeayOw2VmU13feiwpCLG+8pS7owDSTECGtYlItw4cp2tBkLx
QAZodJAfSbFIeBX6vEZOt0cKZuLCW5pqVRI+Ci6pndnf6PYqKjk1IW57c7gAti2h
m4tT8foBo3R+Wgt2MCaLDx6hoJ3Sts5bRuwe846aTcZZ5XECAwEAAaOBvTCBujAJ
BgNVHRMEAjAAMB0GA1UdDgQWBBT/Q4gPHUQZpgvPpGTSKGlkwUZq1jBRBgNVHSME
SjBIgBSs9Q20YBpky45RmFzgIhVYNbnpS6EapBgwFjEUMBIGA1UEAwwLdGVhbTcy
Mi1uZXSCFF5r6GfTDFaXdZ3g6HzA8fX/RLOVMBMGA1UdJQQMMAoGCCsGAQUFBwMB
MAsGA1UdDwQEAwIFoDAZBgNVHREEEjAQgg50ZWFtNzIyLXNlcnZlcjANBgkqhkiG
9w0BAQsFAAOCAQEAQxh7AXqfyK0bfhktvl0VcQYtUIgnuigDk9OREIY03iP4ofE6
EABxlpAtA6wmoUFh4jyP21r2mw7X79d0+Kk8NtdJ/so/R462GTpfERX8VxqfcmiO
Me+1pGz+ZSBymJm10FZTtDqtU72xy7ZMIojH/gIcWpdAN//netoDIRyx4W9UZI8K
CURy0IFFOmLbXg8XTP4Jk/VLG2eJccUAYGq23RP0wzPCW2nfl8uwL4VFbX9J2SkL
HF3CtEJsQMmx+D8Frd1vq8mT3BAYj1ljjO4PNintIbCCZWF7vdnVje2joZc+ZG4r
9AaBvg2cXcCWRWOlwMjnHq5HglLY2vUcXH688A==
-----END CERTIFICATE-----
