Certificate:
    Data:
        Version: 3 (0x2)
        Serial Number:
            a0:ca:68:59:9b:0f:f7:57:4b:59:e0:11:bb:a0:0a:33
        Signature Algorithm: sha256WithRSAEncryption
        Issuer: CN=team114-net
        Validity
            Not Before: May 18 14:56:32 2022 GMT
            Not After : May  2 14:56:32 2025 GMT
        Subject: CN=team114-server
        Subject Public Key Info:
            Public Key Algorithm: rsaEncryption
                RSA Public-Key: (2048 bit)
                Modulus:
                    00:f0:77:3b:32:8d:ee:36:69:15:5a:b6:9f:a7:df:
                    13:66:ac:98:02:f9:30:ff:f1:78:af:d9:fa:b5:44:
                    ef:cf:3a:4a:d3:b0:9d:42:aa:36:ee:87:4d:76:72:
                    28:ba:7a:52:0c:c3:1c:a7:f4:07:b3:da:3b:e5:92:
                    b3:f8:a1:ed:58:e4:8c:20:4d:d2:cd:d4:92:bc:be:
                    3a:fa:c2:27:95:ec:88:16:24:ff:9a:d4:e0:83:e0:
                    ce:d5:31:e5:36:e2:5c:20:0c:4b:6b:9e:a3:38:bc:
                    d9:74:e0:3e:77:71:86:ca:9e:d6:e9:73:7d:35:85:
                    1e:d3:c7:dd:79:6c:ad:54:ed:d2:b5:e1:ec:9e:8d:
                    0b:2d:70:6f:63:e0:a3:26:5d:ec:e6:2e:9d:31:5c:
                    53:62:b5:67:76:bf:ea:6d:1b:32:37:72:ef:06:91:
                    0a:8a:d7:dc:b0:e8:a9:68:cb:b8:91:65:3a:90:0c:
                    56:fb:b5:7e:20:63:3e:2c:00:f6:87:cf:69:33:d4:
                    99:8f:9e:02:87:ba:91:6c:f8:5b:60:c1:99:e1:8d:
                    c1:f3:94:c5:c4:38:62:f8:50:18:29:dc:da:f1:2b:
                    6c:78:bd:19:8c:4c:6d:61:34:c8:ab:39:92:df:33:
                    59:75:c7:3a:00:95:98:ae:63:d1:6f:15:37:ca:86:
                    66:67
                Exponent: 65537 (0x10001)
        X509v3 extensions:
            X509v3 Basic Constraints: 
                CA:FALSE
            X509v3 Subject Key Identifier: 
                7C:E1:16:B4:62:D8:83:35:FC:06:AF:E4:45:44:3B:C7:23:E6:52:C1
            X509v3 Authority Key Identifier: 
                keyid:32:EB:6C:86:04:4C:44:2B:BD:0C:5B:69:CB:89:FC:71:0C:BA:C4:5C
                DirName:/CN=team114-net
                serial:06:72:C0:10:6E:83:BB:6C:19:B0:28:66:7A:77:39:DD:6E:67:AF:F5

            X509v3 Extended Key Usage: 
                TLS Web Server Authentication
            X509v3 Key Usage: 
                Digital Signature, Key Encipherment
            X509v3 Subject Alternative Name: 
                DNS:team114-server
    Signature Algorithm: sha256WithRSAEncryption
         2b:30:63:0a:85:7c:e3:73:99:29:ca:9f:92:06:7e:97:1e:d8:
         c3:21:37:46:c0:b1:0f:0f:f1:90:e0:33:5d:79:8d:b3:ef:e0:
         dd:cc:ca:69:32:ad:18:3a:d5:05:2c:bd:f0:17:80:45:02:d2:
         7f:d4:87:83:17:c0:a8:0e:bc:48:b7:b1:d0:b9:03:0f:54:e8:
         ac:10:15:f6:81:f0:cd:9f:64:76:a5:72:d2:78:3d:16:7c:37:
         6f:d2:38:3b:66:e0:7a:b7:6d:5b:27:22:df:cf:5f:c6:a0:4b:
         8d:fc:02:f1:ab:20:22:b3:13:1f:89:f1:11:5e:c8:56:f3:6f:
         eb:0d:22:ae:e5:c1:00:e9:38:29:9b:ea:2f:4c:e1:1e:8e:a1:
         37:1b:bd:e1:c0:e5:fb:04:09:84:eb:56:22:8b:0f:4a:25:a3:
         ff:d2:2c:c1:b6:58:54:1f:07:a5:ff:75:a3:04:26:82:df:f3:
         ed:15:e2:50:56:b3:f7:e1:21:21:c2:08:b6:33:95:13:89:88:
         58:7a:61:3b:b8:b1:62:be:6f:be:9d:8f:7c:25:9a:29:ec:e0:
         25:af:1f:2e:38:b0:e8:88:c9:8d:ba:5c:bd:1c:11:50:4e:1d:
         2e:04:d5:6c:5e:34:d7:c7:ec:3e:0a:45:cc:fb:3d:f9:9e:1f:
         f4:d6:83:f5
-----BEGIN CERTIFICATE-----
MIIDeDCCAmCgAwIBAgIRAKDKaFmbD/dXS1ngEbugCjMwDQYJKoZIhvcNAQELBQAw
FjEUMBIGA1UEAwwLdGVhbTExNC1uZXQwHhcNMjIwNTE4MTQ1NjMyWhcNMjUwNTAy
MTQ1NjMyWjAZMRcwFQYDVQQDDA50ZWFtMTE0LXNlcnZlcjCCASIwDQYJKoZIhvcN
AQEBBQADggEPADCCAQoCggEBAPB3OzKN7jZpFVq2n6ffE2asmAL5MP/xeK/Z+rVE
7886StOwnUKqNu6HTXZyKLp6UgzDHKf0B7PaO+WSs/ih7VjkjCBN0s3Ukry+OvrC
J5XsiBYk/5rU4IPgztUx5TbiXCAMS2ueozi82XTgPndxhsqe1ulzfTWFHtPH3Xls
rVTt0rXh7J6NCy1wb2PgoyZd7OYunTFcU2K1Z3a/6m0bMjdy7waRCorX3LDoqWjL
uJFlOpAMVvu1fiBjPiwA9ofPaTPUmY+eAoe6kWz4W2DBmeGNwfOUxcQ4YvhQGCnc
2vErbHi9GYxMbWE0yKs5kt8zWXXHOgCVmK5j0W8VN8qGZmcCAwEAAaOBvTCBujAJ
BgNVHRMEAjAAMB0GA1UdDgQWBBR84Ra0YtiDNfwGr+RFRDvHI+ZSwTBRBgNVHSME
SjBIgBQy62yGBExEK70MW2nLifxxDLrEXKEapBgwFjEUMBIGA1UEAwwLdGVhbTEx
NC1uZXSCFAZywBBug7tsGbAoZnp3Od1uZ6/1MBMGA1UdJQQMMAoGCCsGAQUFBwMB
MAsGA1UdDwQEAwIFoDAZBgNVHREEEjAQgg50ZWFtMTE0LXNlcnZlcjANBgkqhkiG
9w0BAQsFAAOCAQEAKzBjCoV843OZKcqfkgZ+lx7YwyE3RsCxDw/xkOAzXXmNs+/g
3czKaTKtGDrVBSy98BeARQLSf9SHgxfAqA68SLex0LkDD1TorBAV9oHwzZ9kdqVy
0ng9Fnw3b9I4O2bgerdtWyci389fxqBLjfwC8asgIrMTH4nxEV7IVvNv6w0iruXB
AOk4KZvqL0zhHo6hNxu94cDl+wQJhOtWIosPSiWj/9IswbZYVB8Hpf91owQmgt/z
7RXiUFaz9+EhIcIItjOVE4mIWHphO7ixYr5vvp2PfCWaKezgJa8fLjiw6IjJjbpc
vRwRUE4dLgTVbF4018fsPgpFzPs9+Z4f9NaD9Q==
-----END CERTIFICATE-----
