Certificate:
    Data:
        Version: 3 (0x2)
        Serial Number:
            96:fd:46:f1:c5:a3:1c:d1:72:3d:99:3b:6c:0f:d8:29
        Signature Algorithm: sha256WithRSAEncryption
        Issuer: CN=team386-net
        Validity
            Not Before: May 18 20:54:54 2022 GMT
            Not After : May  2 20:54:54 2025 GMT
        Subject: CN=team386-client
        Subject Public Key Info:
            Public Key Algorithm: rsaEncryption
                RSA Public-Key: (2048 bit)
                Modulus:
                    00:c5:5d:46:2f:9c:28:b6:00:34:b6:6c:f7:64:56:
                    86:72:fa:52:20:90:57:5f:41:5b:3a:10:91:6d:f1:
                    b4:c8:ec:4d:9c:d5:e4:3f:22:e2:6c:08:9d:b3:11:
                    11:ed:78:c0:41:05:13:07:25:9e:b7:8d:e8:eb:bf:
                    d2:5a:90:da:0c:a4:bf:5b:c5:eb:34:67:ce:e3:0f:
                    50:4b:5b:37:3c:32:98:b3:71:fb:f2:8e:5a:6d:0a:
                    80:40:7e:c9:46:a3:eb:3e:5c:5d:14:d1:80:b1:b6:
                    9c:1f:12:85:f9:cc:03:93:65:67:8b:b7:f6:3b:d6:
                    01:91:a7:c2:fb:50:5e:41:a7:ec:fd:d9:d9:3d:33:
                    57:f9:bf:57:c6:36:22:01:d6:2d:23:ea:13:4c:25:
                    40:05:78:46:f7:bb:3b:5b:80:04:79:e6:31:c8:bf:
                    e7:90:b2:a2:ce:a4:41:6b:97:36:73:18:26:33:b5:
                    a9:d3:2e:23:bc:61:ed:1a:77:58:92:13:df:56:2f:
                    68:ca:4b:42:49:6f:3e:24:1e:f8:dd:30:3c:6c:e8:
                    db:cc:9a:c0:b6:0d:24:0f:04:21:3f:75:02:73:0a:
                    e3:38:89:a3:b6:5a:f2:88:c8:6b:1e:3e:83:be:82:
                    ce:47:0a:80:c1:6f:96:c5:dd:b2:e5:2e:cb:bc:21:
                    16:c3
                Exponent: 65537 (0x10001)
        X509v3 extensions:
            X509v3 Basic Constraints: 
                CA:FALSE
            X509v3 Subject Key Identifier: 
                EA:BD:43:F0:A7:9A:53:D7:A5:27:9F:93:EF:13:8A:2E:2F:3E:D5:F2
            X509v3 Authority Key Identifier: 
                keyid:ED:20:3B:00:4F:AC:17:47:56:CD:54:92:0B:40:61:0B:8A:4B:3D:DC
                DirName:/CN=team386-net
                serial:7C:CD:A6:2E:81:7A:66:EE:B6:4F:55:E8:B8:6E:19:B3:86:65:CE:C8

            X509v3 Extended Key Usage: 
                TLS Web Client Authentication
            X509v3 Key Usage: 
                Digital Signature
    Signature Algorithm: sha256WithRSAEncryption
         1e:2c:c4:fb:1f:43:47:0c:cd:6b:06:28:4a:de:c4:3b:46:18:
         72:1a:71:19:04:ce:39:f1:8d:c5:d4:af:0d:56:63:ad:a4:4e:
         6a:ac:ad:81:67:ef:f0:22:0e:be:f1:a8:0d:04:6f:1a:24:d1:
         cb:06:c9:60:4c:f3:8a:e8:9c:70:47:d5:69:ce:35:17:b4:5a:
         01:34:13:38:41:3f:0c:9d:1d:a5:02:d8:df:50:b9:59:82:30:
         00:5b:e4:d8:ba:dd:7c:17:7f:c7:74:f5:72:70:e3:7e:b4:8a:
         f2:2c:47:21:eb:dc:84:1c:c8:d3:1f:2b:8f:2c:04:92:63:92:
         8e:eb:23:c1:4f:aa:bd:8c:2e:ec:ec:f7:ca:4a:09:d2:aa:a5:
         6b:d4:9a:15:c0:14:aa:1a:9e:55:f3:39:f5:53:b8:e3:ae:c8:
         d4:e8:ed:5c:b7:db:9c:5e:e9:4b:b5:26:55:46:26:30:6f:31:
         02:2c:c6:97:9c:65:6e:40:73:cf:c8:61:25:2a:a1:fc:44:d0:
         c9:40:95:17:71:b1:d1:2b:7e:41:9b:e2:98:ca:74:ef:0d:d4:
         6b:f8:ed:68:e0:c8:ae:80:4b:c5:b6:7e:f2:8c:36:60:0e:9d:
         0b:d9:e4:66:2a:db:ab:7c:ae:53:eb:45:a7:90:42:f9:89:67:
         8e:a1:ab:d9
-----BEGIN CERTIFICATE-----
MIIDXTCCAkWgAwIBAgIRAJb9RvHFoxzRcj2ZO2wP2CkwDQYJKoZIhvcNAQELBQAw
FjEUMBIGA1UEAwwLdGVhbTM4Ni1uZXQwHhcNMjIwNTE4MjA1NDU0WhcNMjUwNTAy
MjA1NDU0WjAZMRcwFQYDVQQDDA50ZWFtMzg2LWNsaWVudDCCASIwDQYJKoZIhvcN
AQEBBQADggEPADCCAQoCggEBAMVdRi+cKLYANLZs92RWhnL6UiCQV19BWzoQkW3x
tMjsTZzV5D8i4mwInbMREe14wEEFEwclnreN6Ou/0lqQ2gykv1vF6zRnzuMPUEtb
NzwymLNx+/KOWm0KgEB+yUaj6z5cXRTRgLG2nB8ShfnMA5NlZ4u39jvWAZGnwvtQ
XkGn7P3Z2T0zV/m/V8Y2IgHWLSPqE0wlQAV4Rve7O1uABHnmMci/55Cyos6kQWuX
NnMYJjO1qdMuI7xh7Rp3WJIT31YvaMpLQklvPiQe+N0wPGzo28yawLYNJA8EIT91
AnMK4ziJo7Za8ojIax4+g76CzkcKgMFvlsXdsuUuy7whFsMCAwEAAaOBojCBnzAJ
BgNVHRMEAjAAMB0GA1UdDgQWBBTqvUPwp5pT16Unn5PvE4ouLz7V8jBRBgNVHSME
SjBIgBTtIDsAT6wXR1bNVJILQGELiks93KEapBgwFjEUMBIGA1UEAwwLdGVhbTM4
Ni1uZXSCFHzNpi6Bembutk9V6LhuGbOGZc7IMBMGA1UdJQQMMAoGCCsGAQUFBwMC
MAsGA1UdDwQEAwIHgDANBgkqhkiG9w0BAQsFAAOCAQEAHizE+x9DRwzNawYoSt7E
O0YYchpxGQTOOfGNxdSvDVZjraROaqytgWfv8CIOvvGoDQRvGiTRywbJYEzziuic
cEfVac41F7RaATQTOEE/DJ0dpQLY31C5WYIwAFvk2LrdfBd/x3T1cnDjfrSK8ixH
IevchBzI0x8rjywEkmOSjusjwU+qvYwu7Oz3ykoJ0qqla9SaFcAUqhqeVfM59VO4
467I1OjtXLfbnF7pS7UmVUYmMG8xAizGl5xlbkBzz8hhJSqh/ETQyUCVF3Gx0St+
QZvimMp07w3Ua/jtaODIroBLxbZ+8ow2YA6dC9nkZirbq3yuU+tFp5BC+YlnjqGr
2Q==
-----END CERTIFICATE-----
