Certificate:
    Data:
        Version: 3 (0x2)
        Serial Number:
            b1:5f:31:ec:3b:b6:f5:a6:3a:f9:0e:38:7f:02:a4:5b
        Signature Algorithm: sha256WithRSAEncryption
        Issuer: CN=team536-net
        Validity
            Not Before: May 18 22:08:17 2022 GMT
            Not After : May  2 22:08:17 2025 GMT
        Subject: CN=team536-client
        Subject Public Key Info:
            Public Key Algorithm: rsaEncryption
                RSA Public-Key: (2048 bit)
                Modulus:
                    00:b1:2b:25:ff:97:98:09:da:0c:45:35:0d:ba:8d:
                    cc:d9:a5:30:cb:46:1f:5d:64:b9:ac:f7:cf:69:db:
                    2f:50:73:ac:e5:01:eb:3c:aa:10:9e:99:d2:87:51:
                    26:76:b7:4c:ea:07:28:1a:e0:33:0b:ab:06:7d:02:
                    f5:07:0c:d6:be:96:91:de:1a:1b:8a:0d:5c:e7:d5:
                    1b:11:da:b9:e0:82:31:87:cd:cd:19:1f:47:1d:fe:
                    21:b4:0d:f9:1d:b8:73:7b:5e:d5:3a:57:70:52:a1:
                    00:59:fa:7d:c5:d8:5d:f3:52:e1:8d:e8:9e:00:8d:
                    e6:f6:b9:06:74:c3:37:9c:d7:6a:fa:9f:ed:b9:13:
                    a7:9a:9b:6a:f0:fe:bd:c2:b6:4a:b3:48:76:bc:01:
                    91:ff:fc:cd:10:1d:df:f9:f5:2f:5c:8c:cf:c6:0b:
                    fc:62:81:20:e3:3e:b5:30:6f:52:97:78:fd:19:51:
                    9a:d0:76:d2:d4:61:37:4a:7b:93:0c:5f:d8:7d:cd:
                    8f:cb:c1:ef:91:eb:68:dd:9c:e3:41:f2:99:18:5e:
                    8f:5d:1a:c9:23:00:0c:74:4f:12:d4:4e:19:e4:9f:
                    e2:eb:d5:6b:61:df:6e:39:c7:55:29:c6:29:c3:8c:
                    2f:39:6a:44:10:91:e2:c4:38:eb:e2:70:7a:80:3f:
                    d4:09
                Exponent: 65537 (0x10001)
        X509v3 extensions:
            X509v3 Basic Constraints: 
                CA:FALSE
            X509v3 Subject Key Identifier: 
                1B:60:74:BA:23:97:C8:84:72:36:12:49:8B:35:22:25:85:A8:E0:3C
            X509v3 Authority Key Identifier: 
                keyid:A7:45:3C:72:91:41:58:8C:5C:29:DA:9A:EF:43:8C:D1:C3:3E:FF:3B
                DirName:/CN=team536-net
                serial:79:66:35:C2:83:AB:03:1C:80:64:12:E5:78:CB:BE:EC:EF:7B:D3:94

            X509v3 Extended Key Usage: 
                TLS Web Client Authentication
            X509v3 Key Usage: 
                Digital Signature
    Signature Algorithm: sha256WithRSAEncryption
         8d:c5:bf:73:69:ba:de:db:84:20:43:09:e1:9f:99:fe:a2:bd:
         48:82:23:d3:f9:d9:a1:ed:7f:d7:8b:0c:0e:8e:cf:8f:76:b5:
         36:bb:df:74:ab:98:95:e7:f2:c2:8b:bd:05:80:54:5d:3e:c1:
         29:b6:ed:2c:38:d3:34:7a:02:09:e0:85:b5:ac:19:52:e9:e5:
         2b:f5:25:72:57:a2:ab:c9:01:5f:07:d7:00:be:49:fa:25:41:
         10:ca:f8:72:c8:af:e0:36:1b:79:5c:c9:4b:69:a4:2c:c5:65:
         c0:16:a7:98:e1:f1:f5:3e:12:85:03:ec:35:64:7b:23:52:e3:
         3d:9c:6f:06:22:0d:4e:ae:ab:23:36:8b:17:c2:ce:b0:f7:c9:
         9c:1f:ea:b4:5b:59:15:d3:1c:57:ed:2a:72:be:b5:ec:05:03:
         77:f2:7a:7f:15:9d:09:76:10:07:21:78:4a:7e:50:84:b8:19:
         e6:66:0e:38:12:92:21:83:7d:88:d4:19:42:eb:99:38:bc:a4:
         20:38:05:7b:ff:1c:b8:e2:a5:ef:c0:ed:80:15:94:b8:5a:64:
         23:f5:c1:e0:cb:22:3b:3b:7f:06:b5:3d:3c:1d:74:bf:d5:62:
         1d:b7:6e:14:31:48:49:e7:1d:af:ca:4e:30:78:a9:4d:75:af:
         01:a6:c4:7d
-----BEGIN CERTIFICATE-----
MIIDXTCCAkWgAwIBAgIRALFfMew7tvWmOvkOOH8CpFswDQYJKoZIhvcNAQELBQAw
FjEUMBIGA1UEAwwLdGVhbTUzNi1uZXQwHhcNMjIwNTE4MjIwODE3WhcNMjUwNTAy
MjIwODE3WjAZMRcwFQYDVQQDDA50ZWFtNTM2LWNsaWVudDCCASIwDQYJKoZIhvcN
AQEBBQADggEPADCCAQoCggEBALErJf+XmAnaDEU1DbqNzNmlMMtGH11kuaz3z2nb
L1BzrOUB6zyqEJ6Z0odRJna3TOoHKBrgMwurBn0C9QcM1r6Wkd4aG4oNXOfVGxHa
ueCCMYfNzRkfRx3+IbQN+R24c3te1TpXcFKhAFn6fcXYXfNS4Y3ongCN5va5BnTD
N5zXavqf7bkTp5qbavD+vcK2SrNIdrwBkf/8zRAd3/n1L1yMz8YL/GKBIOM+tTBv
Upd4/RlRmtB20tRhN0p7kwxf2H3Nj8vB75HraN2c40HymRhej10aySMADHRPEtRO
GeSf4uvVa2HfbjnHVSnGKcOMLzlqRBCR4sQ46+JweoA/1AkCAwEAAaOBojCBnzAJ
BgNVHRMEAjAAMB0GA1UdDgQWBBQbYHS6I5fIhHI2EkmLNSIlhajgPDBRBgNVHSME
SjBIgBSnRTxykUFYjFwp2prvQ4zRwz7/O6EapBgwFjEUMBIGA1UEAwwLdGVhbTUz
Ni1uZXSCFHlmNcKDqwMcgGQS5XjLvuzve9OUMBMGA1UdJQQMMAoGCCsGAQUFBwMC
MAsGA1UdDwQEAwIHgDANBgkqhkiG9w0BAQsFAAOCAQEAjcW/c2m63tuEIEMJ4Z+Z
/qK9SIIj0/nZoe1/14sMDo7Pj3a1NrvfdKuYlefywou9BYBUXT7BKbbtLDjTNHoC
CeCFtawZUunlK/Ulcleiq8kBXwfXAL5J+iVBEMr4csiv4DYbeVzJS2mkLMVlwBan
mOHx9T4ShQPsNWR7I1LjPZxvBiINTq6rIzaLF8LOsPfJnB/qtFtZFdMcV+0qcr61
7AUDd/J6fxWdCXYQByF4Sn5QhLgZ5mYOOBKSIYN9iNQZQuuZOLykIDgFe/8cuOKl
78DtgBWUuFpkI/XB4MsiOzt/BrU9PB10v9ViHbduFDFISecdr8pOMHipTXWvAabE
fQ==
-----END CERTIFICATE-----
