Certificate:
    Data:
        Version: 3 (0x2)
        Serial Number:
            30:cd:4a:2f:f6:91:5a:2a:03:09:02:0a:bf:0d:8e:e5
        Signature Algorithm: sha256WithRSAEncryption
        Issuer: CN=team381-net
        Validity
            Not Before: May 18 20:53:25 2022 GMT
            Not After : May  2 20:53:25 2025 GMT
        Subject: CN=team381-client
        Subject Public Key Info:
            Public Key Algorithm: rsaEncryption
                RSA Public-Key: (2048 bit)
                Modulus:
                    00:a7:5d:cb:74:35:c5:d0:19:55:56:98:84:06:f9:
                    26:0e:ef:f9:2d:05:f4:bd:69:e6:c8:e7:cc:e8:32:
                    77:50:ea:55:50:df:ba:ee:9a:81:2c:2a:4f:5a:6a:
                    c8:a2:6e:26:12:0c:8c:99:bb:a9:9c:9c:83:ef:8a:
                    39:95:f7:a0:56:56:e4:af:b7:d7:44:52:8e:94:e4:
                    67:63:d0:e0:5e:e0:ac:ea:a4:4b:bf:21:fc:96:15:
                    2a:49:0e:17:3e:72:e8:27:dc:0c:e5:1e:97:a9:ad:
                    36:f9:a5:ba:33:93:3d:12:0b:ff:31:dd:04:93:f9:
                    d0:e2:51:48:65:11:40:d6:dd:43:6c:f7:51:9a:99:
                    03:cc:8b:ad:76:9b:12:18:86:3c:4f:4b:22:76:dd:
                    2b:a1:b2:fb:d3:d0:a0:2c:14:6b:7e:0a:42:a7:39:
                    d3:5b:a3:bc:d7:fc:b6:bd:be:93:bf:06:bb:25:79:
                    0b:6e:f8:51:29:c8:ab:d6:73:1a:50:ac:a8:08:71:
                    3e:e4:94:bf:13:5c:cd:ca:6d:00:f3:2b:5d:7a:fd:
                    f9:14:4a:66:21:a6:cf:c9:f2:8f:ba:b2:be:d2:e9:
                    e8:9c:4b:9c:37:4b:92:1d:01:f4:a0:26:f4:a6:c7:
                    84:88:52:54:f8:4f:bd:c5:c8:ee:58:d8:40:4d:a8:
                    eb:9d
                Exponent: 65537 (0x10001)
        X509v3 extensions:
            X509v3 Basic Constraints: 
                CA:FALSE
            X509v3 Subject Key Identifier: 
                BE:2F:9F:CA:69:62:63:C4:F8:34:15:14:28:EF:DA:8E:D5:36:F9:C4
            X509v3 Authority Key Identifier: 
                keyid:CF:6C:97:47:5E:E4:A7:64:BD:C7:DF:C7:02:E9:1A:0F:1A:E9:A4:97
                DirName:/CN=team381-net
                serial:06:B2:BA:77:71:67:1E:06:FE:70:5F:40:6C:3C:B1:52:CA:F0:54:27

            X509v3 Extended Key Usage: 
                TLS Web Client Authentication
            X509v3 Key Usage: 
                Digital Signature
    Signature Algorithm: sha256WithRSAEncryption
         aa:29:1a:c8:55:94:34:e5:e4:cf:dd:b9:bd:1e:7b:8e:fe:09:
         46:ac:10:43:d5:fd:4b:93:c0:3b:89:03:86:45:bb:b1:07:2f:
         4b:21:fc:69:8d:fe:0f:ff:9a:85:e1:3d:43:01:46:fc:80:1b:
         18:5a:8d:c8:c7:fb:42:5b:49:39:eb:e9:fe:6b:75:ef:04:68:
         0f:69:8b:2f:d7:e1:8a:ff:b7:f3:f0:ec:e7:2d:ff:65:05:1d:
         93:dc:bf:ff:f0:e5:ca:c3:b6:7c:7a:08:4c:94:fa:b2:a7:8d:
         8f:2e:a6:32:e4:8a:ce:d9:b0:8b:94:fc:24:38:e3:2a:77:f7:
         44:23:db:78:07:f0:0e:1e:ab:03:e5:ab:0f:30:26:6d:52:8d:
         cf:09:ab:14:2f:de:c3:07:c7:3e:be:5f:d1:18:3f:58:84:b8:
         f9:72:a8:92:4f:64:7f:72:ca:26:1e:60:c2:b1:02:e8:db:3a:
         95:75:b5:95:eb:7c:d5:ed:8b:53:18:84:4e:bf:56:ce:da:c2:
         3c:1d:65:fc:b4:35:bb:8f:5c:71:d5:28:03:ff:81:42:5c:66:
         3f:a3:32:1d:49:a0:64:a5:60:a4:06:93:87:cd:c6:6d:ca:e6:
         51:db:dc:8a:52:cb:9f:c5:e4:7d:7d:f4:90:3f:bf:26:60:a8:
         ad:87:24:fc
-----BEGIN CERTIFICATE-----
MIIDXDCCAkSgAwIBAgIQMM1KL/aRWioDCQIKvw2O5TANBgkqhkiG9w0BAQsFADAW
MRQwEgYDVQQDDAt0ZWFtMzgxLW5ldDAeFw0yMjA1MTgyMDUzMjVaFw0yNTA1MDIy
MDUzMjVaMBkxFzAVBgNVBAMMDnRlYW0zODEtY2xpZW50MIIBIjANBgkqhkiG9w0B
AQEFAAOCAQ8AMIIBCgKCAQEAp13LdDXF0BlVVpiEBvkmDu/5LQX0vWnmyOfM6DJ3
UOpVUN+67pqBLCpPWmrIom4mEgyMmbupnJyD74o5lfegVlbkr7fXRFKOlORnY9Dg
XuCs6qRLvyH8lhUqSQ4XPnLoJ9wM5R6Xqa02+aW6M5M9Egv/Md0Ek/nQ4lFIZRFA
1t1DbPdRmpkDzIutdpsSGIY8T0sidt0robL709CgLBRrfgpCpznTW6O81/y2vb6T
vwa7JXkLbvhRKcir1nMaUKyoCHE+5JS/E1zNym0A8ytdev35FEpmIabPyfKPurK+
0unonEucN0uSHQH0oCb0pseEiFJU+E+9xcjuWNhATajrnQIDAQABo4GiMIGfMAkG
A1UdEwQCMAAwHQYDVR0OBBYEFL4vn8ppYmPE+DQVFCjv2o7VNvnEMFEGA1UdIwRK
MEiAFM9sl0de5KdkvcffxwLpGg8a6aSXoRqkGDAWMRQwEgYDVQQDDAt0ZWFtMzgx
LW5ldIIUBrK6d3FnHgb+cF9AbDyxUsrwVCcwEwYDVR0lBAwwCgYIKwYBBQUHAwIw
CwYDVR0PBAQDAgeAMA0GCSqGSIb3DQEBCwUAA4IBAQCqKRrIVZQ05eTP3bm9HnuO
/glGrBBD1f1Lk8A7iQOGRbuxBy9LIfxpjf4P/5qF4T1DAUb8gBsYWo3Ix/tCW0k5
6+n+a3XvBGgPaYsv1+GK/7fz8OznLf9lBR2T3L//8OXKw7Z8eghMlPqyp42PLqYy
5IrO2bCLlPwkOOMqd/dEI9t4B/AOHqsD5asPMCZtUo3PCasUL97DB8c+vl/RGD9Y
hLj5cqiST2R/csomHmDCsQLo2zqVdbWV63zV7YtTGIROv1bO2sI8HWX8tDW7j1xx
1SgD/4FCXGY/ozIdSaBkpWCkBpOHzcZtyuZR29yKUsufxeR9ffSQP78mYKithyT8
-----END CERTIFICATE-----
