Certificate:
    Data:
        Version: 3 (0x2)
        Serial Number:
            45:7d:f2:68:a9:f0:21:c4:01:54:95:6e:6a:e0:aa:93
        Signature Algorithm: sha256WithRSAEncryption
        Issuer: CN=team576-net
        Validity
            Not Before: May 18 22:33:04 2022 GMT
            Not After : May  2 22:33:04 2025 GMT
        Subject: CN=team576-client
        Subject Public Key Info:
            Public Key Algorithm: rsaEncryption
                RSA Public-Key: (2048 bit)
                Modulus:
                    00:b5:ac:43:e6:3b:f1:20:80:48:9e:23:c2:6a:e8:
                    b0:f1:bb:40:ec:a2:85:89:e3:cf:44:25:ec:cd:60:
                    20:5c:62:ee:54:80:08:0b:3e:ef:5c:9e:fc:70:48:
                    88:7f:3a:ee:18:34:f1:63:6e:10:98:57:8a:9e:aa:
                    da:23:de:eb:b1:a7:22:24:86:2a:91:43:59:b8:87:
                    5e:f0:f1:09:8e:6e:00:2a:a7:5c:03:5c:d8:ad:31:
                    3d:96:cf:45:9f:fd:76:39:9e:5a:5f:2f:1c:da:4e:
                    89:7d:d6:86:5d:ae:bd:ed:8a:aa:03:f8:6c:bc:bb:
                    1d:00:34:c3:13:57:40:90:1d:b3:9b:bd:7d:f6:74:
                    9a:5a:f6:51:a1:b6:0d:6f:84:62:e3:45:1b:5f:84:
                    7a:4b:e7:ca:e8:09:ba:20:8b:72:f4:90:33:f8:16:
                    af:2e:9a:6f:27:2f:ad:ac:14:b6:31:d6:94:dc:d8:
                    bc:be:20:33:2c:e2:db:23:03:ac:78:7b:50:b6:d6:
                    3d:67:f7:0c:f1:1b:1f:b7:90:fe:32:eb:16:e2:d0:
                    8b:ee:db:72:61:ec:1d:61:76:c2:d9:e6:ce:b3:b9:
                    ed:71:bf:72:32:79:56:cc:f0:33:fa:51:fb:8b:f8:
                    3b:e3:01:d5:5d:5d:5d:33:96:d8:f0:78:f9:23:7b:
                    18:c1
                Exponent: 65537 (0x10001)
        X509v3 extensions:
            X509v3 Basic Constraints: 
                CA:FALSE
            X509v3 Subject Key Identifier: 
                80:30:C0:8E:15:04:21:42:52:87:D3:BB:E0:90:54:0F:73:8E:53:2E
            X509v3 Authority Key Identifier: 
                keyid:DF:7A:42:6A:B2:C9:5E:9A:F5:8C:5A:69:E3:83:DE:2F:5D:79:E7:48
                DirName:/CN=team576-net
                serial:7D:32:F2:E8:40:3E:2D:51:8D:2C:3A:5F:31:65:4E:FE:96:42:FE:62

            X509v3 Extended Key Usage: 
                TLS Web Client Authentication
            X509v3 Key Usage: 
                Digital Signature
    Signature Algorithm: sha256WithRSAEncryption
         61:bb:4b:76:40:c2:9a:00:f5:32:39:d6:ea:34:c3:70:56:3e:
         7c:54:6b:c7:cd:84:f8:6a:87:85:0b:72:b1:44:90:e3:e5:a2:
         ac:87:fa:86:8c:e2:0c:a2:5f:bf:d0:cb:0d:39:f7:55:fb:7a:
         60:19:1f:02:b8:40:48:ba:48:43:3c:a8:aa:b8:e0:58:90:b1:
         a4:7f:37:d9:18:57:9b:3d:c1:3a:0f:96:1b:f7:40:43:dc:41:
         42:6b:9e:ea:b9:7b:b0:b4:05:3e:e9:46:56:d3:fb:24:3b:0c:
         ea:98:1b:db:1c:72:a7:56:32:0a:27:11:25:36:ff:2c:dc:48:
         a7:1f:d6:42:fa:1e:22:f1:48:b8:69:ef:7f:7d:32:15:39:ed:
         71:8c:42:22:9f:35:bb:56:94:31:d6:61:7e:d3:bd:a8:19:88:
         0f:b1:11:17:8d:4e:cb:f5:8e:bc:02:cf:b8:34:cb:ab:c6:0d:
         f4:c8:1c:4f:4a:8a:55:5c:fb:75:d6:a8:d6:4c:44:17:8d:45:
         e3:0b:8d:e1:aa:35:9e:de:a0:40:93:7e:7e:5a:98:ed:87:fe:
         72:7e:87:d0:ed:33:da:eb:f8:4f:88:1d:0a:f1:0e:dc:4e:78:
         28:d2:90:94:31:22:97:72:fa:95:92:ba:54:f9:84:84:0a:11:
         c0:10:63:66
-----BEGIN CERTIFICATE-----
MIIDXDCCAkSgAwIBAgIQRX3yaKnwIcQBVJVuauCqkzANBgkqhkiG9w0BAQsFADAW
MRQwEgYDVQQDDAt0ZWFtNTc2LW5ldDAeFw0yMjA1MTgyMjMzMDRaFw0yNTA1MDIy
MjMzMDRaMBkxFzAVBgNVBAMMDnRlYW01NzYtY2xpZW50MIIBIjANBgkqhkiG9w0B
AQEFAAOCAQ8AMIIBCgKCAQEAtaxD5jvxIIBIniPCauiw8btA7KKFiePPRCXszWAg
XGLuVIAICz7vXJ78cEiIfzruGDTxY24QmFeKnqraI97rsaciJIYqkUNZuIde8PEJ
jm4AKqdcA1zYrTE9ls9Fn/12OZ5aXy8c2k6JfdaGXa697YqqA/hsvLsdADTDE1dA
kB2zm7199nSaWvZRobYNb4Ri40UbX4R6S+fK6Am6IIty9JAz+BavLppvJy+trBS2
MdaU3Ni8viAzLOLbIwOseHtQttY9Z/cM8Rsft5D+MusW4tCL7ttyYewdYXbC2ebO
s7ntcb9yMnlWzPAz+lH7i/g74wHVXV1dM5bY8Hj5I3sYwQIDAQABo4GiMIGfMAkG
A1UdEwQCMAAwHQYDVR0OBBYEFIAwwI4VBCFCUofTu+CQVA9zjlMuMFEGA1UdIwRK
MEiAFN96QmqyyV6a9YxaaeOD3i9deedIoRqkGDAWMRQwEgYDVQQDDAt0ZWFtNTc2
LW5ldIIUfTLy6EA+LVGNLDpfMWVO/pZC/mIwEwYDVR0lBAwwCgYIKwYBBQUHAwIw
CwYDVR0PBAQDAgeAMA0GCSqGSIb3DQEBCwUAA4IBAQBhu0t2QMKaAPUyOdbqNMNw
Vj58VGvHzYT4aoeFC3KxRJDj5aKsh/qGjOIMol+/0MsNOfdV+3pgGR8CuEBIukhD
PKiquOBYkLGkfzfZGFebPcE6D5Yb90BD3EFCa57quXuwtAU+6UZW0/skOwzqmBvb
HHKnVjIKJxElNv8s3EinH9ZC+h4i8Ui4ae9/fTIVOe1xjEIinzW7VpQx1mF+072o
GYgPsREXjU7L9Y68As+4NMurxg30yBxPSopVXPt11qjWTEQXjUXjC43hqjWe3qBA
k35+Wpjth/5yfofQ7TPa6/hPiB0K8Q7cTngo0pCUMSKXcvqVkrpU+YSEChHAEGNm
-----END CERTIFICATE-----
