Certificate:
    Data:
        Version: 3 (0x2)
        Serial Number:
            de:d0:22:cd:d9:06:08:b6:b4:9b:f0:ad:d1:cf:24:52
        Signature Algorithm: sha256WithRSAEncryption
        Issuer: CN=team428-net
        Validity
            Not Before: May 18 21:07:24 2022 GMT
            Not After : May  2 21:07:24 2025 GMT
        Subject: CN=team428-client
        Subject Public Key Info:
            Public Key Algorithm: rsaEncryption
                RSA Public-Key: (2048 bit)
                Modulus:
                    00:da:0b:33:7c:6f:22:99:6a:82:0e:f8:bc:5a:12:
                    c4:c5:3f:c6:21:5e:d5:8a:de:5f:c3:68:39:84:5f:
                    82:dd:41:80:b5:a6:44:15:80:68:fc:5a:ad:8f:3c:
                    6b:d5:4b:1d:b4:a7:78:8c:b4:f6:69:58:da:35:e3:
                    72:6f:ba:d9:dc:42:9a:1e:80:6e:b7:42:7d:3a:17:
                    57:de:4f:42:ab:00:84:7b:fd:36:20:62:fd:31:bb:
                    68:6e:bb:be:70:c9:7c:86:f4:ea:3f:d6:8b:f0:1b:
                    5e:f2:c9:0f:22:ce:bb:72:7a:0c:1b:04:f0:05:51:
                    61:d6:7d:2b:6d:db:43:91:11:e3:aa:93:c0:c6:f1:
                    c6:2c:0a:69:0c:47:f9:91:4c:35:c7:70:68:d0:b3:
                    bc:6c:2a:5d:f4:2a:4e:58:3a:86:45:5e:18:52:f4:
                    30:6f:d2:f5:ac:61:3a:98:89:43:21:0d:6e:ad:ad:
                    d6:5d:fa:26:b8:6d:a2:b1:3e:f8:9f:c0:50:72:98:
                    55:5f:b9:02:3e:53:74:a2:7a:30:3e:1e:aa:87:3a:
                    a1:71:b2:a1:10:6e:e2:85:ba:91:2d:95:d1:04:67:
                    38:8c:b9:9a:35:22:22:c9:d0:f8:71:c7:9f:52:5d:
                    1b:96:03:9a:44:3f:33:14:62:74:e8:19:68:9f:9b:
                    ad:97
                Exponent: 65537 (0x10001)
        X509v3 extensions:
            X509v3 Basic Constraints: 
                CA:FALSE
            X509v3 Subject Key Identifier: 
                7C:2B:7D:63:3C:0C:3C:93:C0:EA:C2:F2:9E:AA:AA:DA:2B:3E:62:CA
            X509v3 Authority Key Identifier: 
                keyid:C6:F2:E4:62:46:68:FF:27:07:3C:C0:B9:38:A3:C9:C0:CD:2E:B0:E6
                DirName:/CN=team428-net
                serial:51:EC:90:08:B5:FC:7A:71:6F:3E:A9:F7:23:97:A9:86:73:C9:1E:B9

            X509v3 Extended Key Usage: 
                TLS Web Client Authentication
            X509v3 Key Usage: 
                Digital Signature
    Signature Algorithm: sha256WithRSAEncryption
         39:5a:7c:02:ad:95:8e:7c:a4:22:a7:84:36:e2:8a:a4:e7:af:
         0e:78:12:51:a6:a3:f6:42:3c:e8:54:4b:a9:f0:b9:2e:e6:80:
         d8:f5:34:39:4f:90:f9:3d:48:eb:16:2c:f1:a2:8c:a5:f9:25:
         4a:f7:12:64:98:89:b9:58:ad:16:13:23:d7:de:41:26:e5:e1:
         a7:30:34:a1:5b:55:3c:b7:44:3a:10:3f:90:f5:c6:c0:f7:bf:
         5e:db:5e:2c:01:3e:40:6f:ae:92:ab:29:f2:47:51:a1:14:49:
         f2:64:e2:82:f0:3a:03:5f:12:8c:a4:4a:94:24:fe:c1:88:5f:
         86:a9:2a:67:22:02:4f:09:83:21:f7:68:47:aa:95:82:16:c7:
         b5:dd:54:cd:b4:3a:31:58:b6:37:7b:85:20:5b:b1:04:11:6c:
         07:62:46:3b:f6:23:2d:59:f0:14:ea:f9:3c:48:0d:81:6a:99:
         1e:cd:a1:5c:78:bc:b4:f6:10:76:5c:44:0c:52:24:55:ec:7d:
         4c:2c:a1:cf:d1:b9:5f:df:7b:2a:d1:45:b0:54:0d:73:37:fb:
         9a:ca:4c:ca:2e:40:00:5c:68:6d:ff:5e:2d:53:da:df:6c:ff:
         3a:c6:39:48:f3:69:a0:70:d8:1f:d0:45:7d:29:4d:14:7f:70:
         c0:58:39:af
-----BEGIN CERTIFICATE-----
MIIDXTCCAkWgAwIBAgIRAN7QIs3ZBgi2tJvwrdHPJFIwDQYJKoZIhvcNAQELBQAw
FjEUMBIGA1UEAwwLdGVhbTQyOC1uZXQwHhcNMjIwNTE4MjEwNzI0WhcNMjUwNTAy
MjEwNzI0WjAZMRcwFQYDVQQDDA50ZWFtNDI4LWNsaWVudDCCASIwDQYJKoZIhvcN
AQEBBQADggEPADCCAQoCggEBANoLM3xvIplqgg74vFoSxMU/xiFe1YreX8NoOYRf
gt1BgLWmRBWAaPxarY88a9VLHbSneIy09mlY2jXjcm+62dxCmh6AbrdCfToXV95P
QqsAhHv9NiBi/TG7aG67vnDJfIb06j/Wi/AbXvLJDyLOu3J6DBsE8AVRYdZ9K23b
Q5ER46qTwMbxxiwKaQxH+ZFMNcdwaNCzvGwqXfQqTlg6hkVeGFL0MG/S9axhOpiJ
QyENbq2t1l36JrhtorE++J/AUHKYVV+5Aj5TdKJ6MD4eqoc6oXGyoRBu4oW6kS2V
0QRnOIy5mjUiIsnQ+HHHn1JdG5YDmkQ/MxRidOgZaJ+brZcCAwEAAaOBojCBnzAJ
BgNVHRMEAjAAMB0GA1UdDgQWBBR8K31jPAw8k8DqwvKeqqraKz5iyjBRBgNVHSME
SjBIgBTG8uRiRmj/Jwc8wLk4o8nAzS6w5qEapBgwFjEUMBIGA1UEAwwLdGVhbTQy
OC1uZXSCFFHskAi1/Hpxbz6p9yOXqYZzyR65MBMGA1UdJQQMMAoGCCsGAQUFBwMC
MAsGA1UdDwQEAwIHgDANBgkqhkiG9w0BAQsFAAOCAQEAOVp8Aq2VjnykIqeENuKK
pOevDngSUaaj9kI86FRLqfC5LuaA2PU0OU+Q+T1I6xYs8aKMpfklSvcSZJiJuVit
FhMj195BJuXhpzA0oVtVPLdEOhA/kPXGwPe/XtteLAE+QG+ukqsp8kdRoRRJ8mTi
gvA6A18SjKRKlCT+wYhfhqkqZyICTwmDIfdoR6qVghbHtd1UzbQ6MVi2N3uFIFux
BBFsB2JGO/YjLVnwFOr5PEgNgWqZHs2hXHi8tPYQdlxEDFIkVex9TCyhz9G5X997
KtFFsFQNczf7mspMyi5AAFxobf9eLVPa32z/OsY5SPNpoHDYH9BFfSlNFH9wwFg5
rw==
-----END CERTIFICATE-----
