Certificate:
    Data:
        Version: 3 (0x2)
        Serial Number:
            62:60:a8:fc:05:9a:e2:43:9d:a1:e4:53:09:fc:b5:83
        Signature Algorithm: sha256WithRSAEncryption
        Issuer: CN=team420-net
        Validity
            Not Before: May 18 21:10:03 2022 GMT
            Not After : May  2 21:10:03 2025 GMT
        Subject: CN=team420-server
        Subject Public Key Info:
            Public Key Algorithm: rsaEncryption
                RSA Public-Key: (2048 bit)
                Modulus:
                    00:cd:49:2c:24:71:30:d1:c2:f9:b2:d4:11:a2:92:
                    8b:61:f0:24:3c:00:c2:d5:79:3e:ab:9c:2e:46:b9:
                    87:9d:fe:25:70:b6:ff:57:86:2f:d7:79:d5:ed:a1:
                    ea:f2:ba:07:f2:60:a1:b7:de:c1:60:d6:26:f6:1c:
                    56:55:b1:4e:24:f3:99:c9:dc:32:9b:3e:76:22:2b:
                    f1:b0:7e:1c:2b:41:1d:47:49:0d:1c:db:f2:1c:a6:
                    c4:4c:54:15:c7:06:d7:cf:60:33:db:c6:0f:99:7e:
                    6b:f6:b4:b0:36:c5:76:6c:d7:91:fc:8e:98:1b:a1:
                    63:29:a2:18:fe:dd:61:0e:ce:60:04:cc:ed:97:a7:
                    2d:6a:31:fa:12:57:3e:a4:17:54:90:85:8d:15:93:
                    60:02:98:11:20:31:9a:59:3a:bb:8b:36:d7:b4:48:
                    49:35:9c:e1:fc:e7:ec:f9:bc:32:fe:6f:6a:d9:82:
                    94:7f:69:45:89:28:ea:bc:95:62:6a:38:c9:bb:2d:
                    30:b7:cf:35:1f:d5:3d:49:7e:6a:0e:9c:9c:cb:31:
                    82:9f:59:ab:c3:2f:7c:2f:ad:31:b6:3f:04:87:02:
                    65:1d:80:f0:da:88:87:f2:3e:1d:08:db:da:fc:a0:
                    e1:ce:38:6e:79:06:df:f2:86:a8:8b:7c:be:f1:9a:
                    65:7b
                Exponent: 65537 (0x10001)
        X509v3 extensions:
            X509v3 Basic Constraints: 
                CA:FALSE
            X509v3 Subject Key Identifier: 
                0F:29:3E:71:A7:19:BC:B8:48:D6:EF:88:91:39:3D:AA:34:54:C5:B7
            X509v3 Authority Key Identifier: 
                keyid:30:29:0C:C1:14:7B:93:75:08:C6:A7:0D:48:76:D5:B7:83:D4:20:6D
                DirName:/CN=team420-net
                serial:15:28:49:69:87:3B:C9:01:0A:C1:17:E8:7F:2A:AB:62:E3:B0:97:DD

            X509v3 Extended Key Usage: 
                TLS Web Server Authentication
            X509v3 Key Usage: 
                Digital Signature, Key Encipherment
            X509v3 Subject Alternative Name: 
                DNS:team420-server
    Signature Algorithm: sha256WithRSAEncryption
         0a:1b:fc:77:22:28:55:0d:44:6f:11:6f:87:93:b7:81:8f:53:
         56:66:e0:21:00:06:ae:dc:e9:21:43:61:f3:b6:76:1f:8c:31:
         68:50:fc:8c:61:b0:c1:c3:cb:f9:a3:ad:95:bf:1c:96:28:74:
         25:b0:6f:2b:28:6f:2e:00:e5:5e:49:6b:37:6c:d7:fe:55:53:
         1b:b3:8b:c9:0e:9f:3e:c6:5f:47:24:32:6e:e1:fc:a6:5a:91:
         c5:58:76:68:7a:12:77:4c:9f:8a:65:54:0a:4e:17:07:99:d3:
         52:58:96:b7:e0:8b:57:5f:55:a3:9f:eb:34:f5:f5:25:a5:44:
         98:22:ca:e3:43:f0:a9:27:05:64:a0:af:e6:36:33:34:15:8c:
         f2:59:99:a9:ec:78:ff:a4:b3:7a:f0:fd:5c:90:1b:93:92:a0:
         10:ad:89:e5:81:b4:d5:15:32:83:bb:49:9c:d5:f9:99:be:41:
         8d:3c:44:82:87:25:9b:70:29:60:81:08:09:8b:6e:88:1f:81:
         3d:5f:cf:7e:45:78:05:41:31:13:85:7d:5d:ae:36:be:15:06:
         72:9b:32:f3:0b:5d:17:3e:be:b5:5c:0c:60:74:0c:bb:88:8b:
         38:2c:db:69:6a:28:1a:44:9b:ea:58:30:46:bb:ca:be:2f:3a:
         d3:2f:5d:4d
-----BEGIN CERTIFICATE-----
MIIDdzCCAl+gAwIBAgIQYmCo/AWa4kOdoeRTCfy1gzANBgkqhkiG9w0BAQsFADAW
MRQwEgYDVQQDDAt0ZWFtNDIwLW5ldDAeFw0yMjA1MTgyMTEwMDNaFw0yNTA1MDIy
MTEwMDNaMBkxFzAVBgNVBAMMDnRlYW00MjAtc2VydmVyMIIBIjANBgkqhkiG9w0B
AQEFAAOCAQ8AMIIBCgKCAQEAzUksJHEw0cL5stQRopKLYfAkPADC1Xk+q5wuRrmH
nf4lcLb/V4Yv13nV7aHq8roH8mCht97BYNYm9hxWVbFOJPOZydwymz52IivxsH4c
K0EdR0kNHNvyHKbETFQVxwbXz2Az28YPmX5r9rSwNsV2bNeR/I6YG6FjKaIY/t1h
Ds5gBMztl6ctajH6Elc+pBdUkIWNFZNgApgRIDGaWTq7izbXtEhJNZzh/Ofs+bwy
/m9q2YKUf2lFiSjqvJViajjJuy0wt881H9U9SX5qDpycyzGCn1mrwy98L60xtj8E
hwJlHYDw2oiH8j4dCNva/KDhzjhueQbf8oaoi3y+8ZplewIDAQABo4G9MIG6MAkG
A1UdEwQCMAAwHQYDVR0OBBYEFA8pPnGnGby4SNbviJE5Pao0VMW3MFEGA1UdIwRK
MEiAFDApDMEUe5N1CManDUh21beD1CBtoRqkGDAWMRQwEgYDVQQDDAt0ZWFtNDIw
LW5ldIIUFShJaYc7yQEKwRfofyqrYuOwl90wEwYDVR0lBAwwCgYIKwYBBQUHAwEw
CwYDVR0PBAQDAgWgMBkGA1UdEQQSMBCCDnRlYW00MjAtc2VydmVyMA0GCSqGSIb3
DQEBCwUAA4IBAQAKG/x3IihVDURvEW+Hk7eBj1NWZuAhAAau3OkhQ2HztnYfjDFo
UPyMYbDBw8v5o62VvxyWKHQlsG8rKG8uAOVeSWs3bNf+VVMbs4vJDp8+xl9HJDJu
4fymWpHFWHZoehJ3TJ+KZVQKThcHmdNSWJa34ItXX1Wjn+s09fUlpUSYIsrjQ/Cp
JwVkoK/mNjM0FYzyWZmp7Hj/pLN68P1ckBuTkqAQrYnlgbTVFTKDu0mc1fmZvkGN
PESChyWbcClggQgJi26IH4E9X89+RXgFQTEThX1drja+FQZymzLzC10XPr61XAxg
dAy7iIs4LNtpaigaRJvqWDBGu8q+LzrTL11N
-----END CERTIFICATE-----
