Certificate:
    Data:
        Version: 3 (0x2)
        Serial Number:
            9f:aa:c6:47:6d:ca:c0:d0:d5:c0:c9:6a:88:a7:bc:de
        Signature Algorithm: sha256WithRSAEncryption
        Issuer: CN=team231-net
        Validity
            Not Before: May 18 19:20:06 2022 GMT
            Not After : May  2 19:20:06 2025 GMT
        Subject: CN=team231-server
        Subject Public Key Info:
            Public Key Algorithm: rsaEncryption
                RSA Public-Key: (2048 bit)
                Modulus:
                    00:db:4b:d3:fb:79:02:2c:35:31:22:a1:f0:f8:9b:
                    e6:c8:ad:91:c6:2b:a0:c7:2c:10:b1:88:0f:b7:4f:
                    9a:9b:ad:7b:62:11:80:84:d0:ce:59:47:84:ac:85:
                    03:60:ca:6d:ad:a2:8f:47:8f:62:d9:e1:f9:ab:78:
                    75:cb:f0:ed:e5:69:80:e9:41:0f:19:8b:7d:80:5d:
                    6f:8c:03:77:db:f3:74:f4:47:2f:81:b2:4d:4f:e4:
                    46:b0:93:4a:12:f4:3f:4c:2a:26:19:4a:68:f1:f3:
                    4f:56:17:9e:05:5d:eb:fc:a6:f0:fa:87:cd:0c:cb:
                    4c:de:ce:4b:ad:17:38:28:93:4f:b5:c0:46:ac:50:
                    b7:cf:3d:ac:62:a8:17:95:e9:50:2e:05:6a:46:8a:
                    a9:13:b3:b4:50:32:53:5d:b5:e6:a4:27:b1:0b:13:
                    11:7d:d5:1f:a3:81:f3:59:2c:e7:e0:b7:73:b6:ba:
                    49:e7:22:83:b7:11:0a:b5:6a:ab:52:6c:f1:a3:82:
                    ee:0b:6b:a7:93:d4:ac:21:52:01:7b:9c:e2:6d:7d:
                    2a:51:12:89:d5:94:f9:f3:73:36:1e:55:dc:b9:15:
                    b8:bb:68:66:f2:f6:45:a6:37:8d:a3:ab:8b:0f:06:
                    6f:83:12:6a:a9:3e:af:70:05:ca:48:18:fe:81:41:
                    70:7f
                Exponent: 65537 (0x10001)
        X509v3 extensions:
            X509v3 Basic Constraints: 
                CA:FALSE
            X509v3 Subject Key Identifier: 
                A7:FB:5A:2C:D6:AF:41:F3:11:32:7C:43:C3:AB:AC:7F:02:8C:E1:96
            X509v3 Authority Key Identifier: 
                keyid:D4:19:8E:B1:4E:11:51:6C:67:0B:AE:AA:7C:45:87:B5:1E:6C:ED:88
                DirName:/CN=team231-net
                serial:2E:34:AD:ED:B8:48:C8:E3:0E:37:37:DF:D5:4A:78:6A:B0:F2:AD:C2

            X509v3 Extended Key Usage: 
                TLS Web Server Authentication
            X509v3 Key Usage: 
                Digital Signature, Key Encipherment
            X509v3 Subject Alternative Name: 
                DNS:team231-server
    Signature Algorithm: sha256WithRSAEncryption
         45:c7:90:e5:d0:43:c0:4b:38:13:51:8c:10:54:ec:fe:13:c3:
         ae:f9:c5:5e:eb:d5:72:fc:9d:a9:cd:f1:6e:28:85:a9:f5:d9:
         84:30:ca:c6:91:4f:b2:f2:c8:7c:ae:2b:c4:31:1c:8a:60:bf:
         39:85:55:e3:3d:dd:c5:e1:75:ee:0b:3a:8d:f5:e2:01:94:cc:
         52:f5:71:6b:ad:1a:02:27:cb:6a:60:3a:ee:38:87:83:e6:2c:
         58:0c:6b:3d:bd:19:95:cf:d7:0a:b4:35:94:33:1a:8c:62:82:
         ce:40:cd:2c:82:09:9d:73:cf:97:89:cf:b9:0e:99:24:5f:3e:
         43:49:04:bc:09:51:38:60:3e:4a:75:b9:86:c8:52:e3:84:92:
         32:58:43:c9:4d:db:7d:d8:58:87:7f:0c:12:f1:3a:af:0e:67:
         82:a8:ff:94:b5:4c:96:11:74:20:44:64:3e:db:62:c1:ca:ed:
         01:43:1b:e6:e4:ef:40:25:8a:09:8b:ec:ad:9c:d2:d5:9a:6f:
         d5:17:a8:3b:ca:80:cd:49:08:e5:a8:12:9d:cb:91:c2:0d:81:
         23:f9:c6:20:1d:d2:ca:ca:26:46:b6:e8:30:f8:0a:d7:12:2a:
         39:08:1b:ea:3b:8e:b9:9d:db:46:15:30:10:56:2d:9f:a2:e8:
         fd:41:cb:aa
-----BEGIN CERTIFICATE-----
MIIDeDCCAmCgAwIBAgIRAJ+qxkdtysDQ1cDJaoinvN4wDQYJKoZIhvcNAQELBQAw
FjEUMBIGA1UEAwwLdGVhbTIzMS1uZXQwHhcNMjIwNTE4MTkyMDA2WhcNMjUwNTAy
MTkyMDA2WjAZMRcwFQYDVQQDDA50ZWFtMjMxLXNlcnZlcjCCASIwDQYJKoZIhvcN
AQEBBQADggEPADCCAQoCggEBANtL0/t5Aiw1MSKh8Pib5sitkcYroMcsELGID7dP
mpute2IRgITQzllHhKyFA2DKba2ij0ePYtnh+at4dcvw7eVpgOlBDxmLfYBdb4wD
d9vzdPRHL4GyTU/kRrCTShL0P0wqJhlKaPHzT1YXngVd6/ym8PqHzQzLTN7OS60X
OCiTT7XARqxQt889rGKoF5XpUC4FakaKqROztFAyU1215qQnsQsTEX3VH6OB81ks
5+C3c7a6Secig7cRCrVqq1Js8aOC7gtrp5PUrCFSAXuc4m19KlESidWU+fNzNh5V
3LkVuLtoZvL2RaY3jaOriw8Gb4MSaqk+r3AFykgY/oFBcH8CAwEAAaOBvTCBujAJ
BgNVHRMEAjAAMB0GA1UdDgQWBBSn+1os1q9B8xEyfEPDq6x/AozhljBRBgNVHSME
SjBIgBTUGY6xThFRbGcLrqp8RYe1HmztiKEapBgwFjEUMBIGA1UEAwwLdGVhbTIz
MS1uZXSCFC40re24SMjjDjc339VKeGqw8q3CMBMGA1UdJQQMMAoGCCsGAQUFBwMB
MAsGA1UdDwQEAwIFoDAZBgNVHREEEjAQgg50ZWFtMjMxLXNlcnZlcjANBgkqhkiG
9w0BAQsFAAOCAQEARceQ5dBDwEs4E1GMEFTs/hPDrvnFXuvVcvydqc3xbiiFqfXZ
hDDKxpFPsvLIfK4rxDEcimC/OYVV4z3dxeF17gs6jfXiAZTMUvVxa60aAifLamA6
7jiHg+YsWAxrPb0Zlc/XCrQ1lDMajGKCzkDNLIIJnXPPl4nPuQ6ZJF8+Q0kEvAlR
OGA+SnW5hshS44SSMlhDyU3bfdhYh38MEvE6rw5ngqj/lLVMlhF0IERkPttiwcrt
AUMb5uTvQCWKCYvsrZzS1Zpv1ReoO8qAzUkI5agSncuRwg2BI/nGIB3SysomRrbo
MPgK1xIqOQgb6juOuZ3bRhUwEFYtn6Lo/UHLqg==
-----END CERTIFICATE-----
