Certificate:
    Data:
        Version: 3 (0x2)
        Serial Number:
            82:83:e9:f7:cb:4c:a6:80:2a:1b:74:aa:2f:23:df:48
        Signature Algorithm: sha256WithRSAEncryption
        Issuer: CN=team627-net
        Validity
            Not Before: May 18 22:53:27 2022 GMT
            Not After : May  2 22:53:27 2025 GMT
        Subject: CN=team627-server
        Subject Public Key Info:
            Public Key Algorithm: rsaEncryption
                RSA Public-Key: (2048 bit)
                Modulus:
                    00:c5:a9:38:67:9c:de:b0:63:1c:31:6c:ff:d0:a2:
                    8e:6f:c1:fe:6e:24:96:ab:f2:6e:08:28:05:83:d2:
                    5f:57:5f:5e:ef:bf:6c:c1:93:53:02:8c:b0:07:30:
                    34:f7:76:e5:98:23:a7:42:4c:e8:b7:64:57:4d:0f:
                    84:39:f9:77:20:7b:b4:e3:49:8d:b5:92:e5:fc:56:
                    94:75:1a:1f:ad:56:6d:31:f4:22:86:72:0e:1c:26:
                    23:5b:27:2f:3c:e3:d2:80:31:74:bd:fc:91:ce:2f:
                    3a:72:88:7d:f3:f9:54:99:de:48:f2:3d:a1:38:01:
                    ae:3c:ae:ca:a8:c7:a5:a3:8c:25:ec:e4:b8:74:86:
                    07:37:82:87:45:43:36:1a:93:12:52:da:ec:45:ae:
                    26:a3:0a:b5:da:c3:e2:62:4e:41:56:bb:36:fb:bd:
                    a9:d2:97:4e:05:19:7d:01:05:1d:96:ce:cf:79:a5:
                    08:7d:06:c3:d3:ca:b9:40:b1:5b:11:85:21:62:72:
                    24:24:65:4b:13:31:ee:dc:f8:78:71:40:ea:18:30:
                    9e:8b:01:80:49:66:f0:5a:a8:19:b1:45:8d:c5:66:
                    81:5c:7f:53:a3:79:e8:bb:d1:c6:e8:a4:ba:a4:c2:
                    6b:7a:bf:d1:f5:32:11:3d:39:d7:9c:d5:d4:95:de:
                    74:37
                Exponent: 65537 (0x10001)
        X509v3 extensions:
            X509v3 Basic Constraints: 
                CA:FALSE
            X509v3 Subject Key Identifier: 
                F6:ED:38:21:9C:CF:7B:72:D9:FC:6F:35:B7:66:95:80:45:F4:B4:0F
            X509v3 Authority Key Identifier: 
                keyid:18:8E:24:8D:1C:B9:1E:63:0E:81:A5:DE:94:82:96:5E:23:8B:33:01
                DirName:/CN=team627-net
                serial:28:49:5D:76:CB:FF:C7:F6:41:52:B8:68:6D:07:43:70:E5:AA:49:E2

            X509v3 Extended Key Usage: 
                TLS Web Server Authentication
            X509v3 Key Usage: 
                Digital Signature, Key Encipherment
            X509v3 Subject Alternative Name: 
                DNS:team627-server
    Signature Algorithm: sha256WithRSAEncryption
         83:ef:54:b9:85:f6:4f:05:e0:a6:58:1a:5e:d9:cd:35:5f:95:
         05:b9:99:b3:d7:d4:57:0d:5e:ea:55:3e:e7:07:79:19:47:8f:
         23:87:ca:a7:9f:13:82:9b:3f:52:f6:95:69:16:80:b2:22:e3:
         36:31:70:a5:38:1c:69:98:d7:a2:08:6f:d5:05:73:25:71:48:
         6a:c1:08:67:61:52:25:12:5d:2b:de:35:fc:b9:5a:63:4a:20:
         68:f7:d7:4e:98:29:ca:b0:6c:a7:5d:cc:45:38:36:e9:53:43:
         69:16:e6:f2:c6:14:2c:75:7c:24:2d:5a:ce:d1:aa:36:c5:0b:
         98:9e:77:31:c9:e5:6a:c2:be:2d:5e:58:ff:47:9a:eb:c8:c1:
         0f:a8:4e:ac:b1:70:fa:fc:e9:f5:57:1e:05:2b:1c:d4:bd:b0:
         02:a0:8a:d8:4c:0d:cd:85:90:25:ef:ee:ae:16:d6:76:27:8f:
         5d:2f:3b:0c:0e:22:cc:0c:0f:0c:92:e6:f2:ef:31:e7:61:e8:
         84:36:0b:10:f9:47:32:f2:bc:de:7f:61:c5:b1:6a:59:ef:1b:
         2a:4d:90:6d:bd:87:bd:b9:8c:b9:8b:d1:ce:f4:1b:75:7d:b3:
         4a:3f:62:ba:40:a3:21:e0:55:ec:8c:b2:0d:fb:06:78:29:c1:
         98:7e:33:68
-----BEGIN CERTIFICATE-----
MIIDeDCCAmCgAwIBAgIRAIKD6ffLTKaAKht0qi8j30gwDQYJKoZIhvcNAQELBQAw
FjEUMBIGA1UEAwwLdGVhbTYyNy1uZXQwHhcNMjIwNTE4MjI1MzI3WhcNMjUwNTAy
MjI1MzI3WjAZMRcwFQYDVQQDDA50ZWFtNjI3LXNlcnZlcjCCASIwDQYJKoZIhvcN
AQEBBQADggEPADCCAQoCggEBAMWpOGec3rBjHDFs/9Cijm/B/m4klqvybggoBYPS
X1dfXu+/bMGTUwKMsAcwNPd25Zgjp0JM6LdkV00PhDn5dyB7tONJjbWS5fxWlHUa
H61WbTH0IoZyDhwmI1snLzzj0oAxdL38kc4vOnKIffP5VJneSPI9oTgBrjyuyqjH
paOMJezkuHSGBzeCh0VDNhqTElLa7EWuJqMKtdrD4mJOQVa7Nvu9qdKXTgUZfQEF
HZbOz3mlCH0Gw9PKuUCxWxGFIWJyJCRlSxMx7tz4eHFA6hgwnosBgElm8FqoGbFF
jcVmgVx/U6N56LvRxuikuqTCa3q/0fUyET0515zV1JXedDcCAwEAAaOBvTCBujAJ
BgNVHRMEAjAAMB0GA1UdDgQWBBT27TghnM97ctn8bzW3ZpWARfS0DzBRBgNVHSME
SjBIgBQYjiSNHLkeYw6Bpd6UgpZeI4szAaEapBgwFjEUMBIGA1UEAwwLdGVhbTYy
Ny1uZXSCFChJXXbL/8f2QVK4aG0HQ3DlqkniMBMGA1UdJQQMMAoGCCsGAQUFBwMB
MAsGA1UdDwQEAwIFoDAZBgNVHREEEjAQgg50ZWFtNjI3LXNlcnZlcjANBgkqhkiG
9w0BAQsFAAOCAQEAg+9UuYX2TwXgplgaXtnNNV+VBbmZs9fUVw1e6lU+5wd5GUeP
I4fKp58Tgps/UvaVaRaAsiLjNjFwpTgcaZjXoghv1QVzJXFIasEIZ2FSJRJdK941
/LlaY0ogaPfXTpgpyrBsp13MRTg26VNDaRbm8sYULHV8JC1aztGqNsULmJ53Mcnl
asK+LV5Y/0ea68jBD6hOrLFw+vzp9VceBSsc1L2wAqCK2EwNzYWQJe/urhbWdieP
XS87DA4izAwPDJLm8u8x52HohDYLEPlHMvK83n9hxbFqWe8bKk2Qbb2HvbmMuYvR
zvQbdX2zSj9iukCjIeBV7IyyDfsGeCnBmH4zaA==
-----END CERTIFICATE-----
