Certificate:
    Data:
        Version: 3 (0x2)
        Serial Number:
            b5:22:e4:63:88:5f:b2:b3:e6:e8:1e:72:2a:41:0d:2c
        Signature Algorithm: sha256WithRSAEncryption
        Issuer: CN=team464-net
        Validity
            Not Before: May 18 21:31:47 2022 GMT
            Not After : May  2 21:31:47 2025 GMT
        Subject: CN=team464-server
        Subject Public Key Info:
            Public Key Algorithm: rsaEncryption
                RSA Public-Key: (2048 bit)
                Modulus:
                    00:cc:ce:02:d3:29:75:43:18:35:c4:23:87:76:3a:
                    40:b7:0a:4a:9e:55:83:00:71:27:c2:64:36:58:da:
                    f0:e0:9a:5e:3b:04:de:22:b8:f5:c2:6a:47:1a:01:
                    e8:f2:49:fd:bd:cb:10:d5:e3:97:20:6d:9a:50:7b:
                    60:96:15:79:59:aa:42:da:9f:87:c0:d0:c4:03:83:
                    e3:17:07:08:11:8c:b5:cb:a1:3b:76:1a:a3:1d:d9:
                    7a:0a:f3:27:4c:4d:b6:85:97:7a:a8:c3:d5:2f:24:
                    95:07:41:03:8e:86:c5:69:92:f6:e3:6d:dd:2c:53:
                    a2:92:ab:c9:b1:c6:c4:4f:47:61:be:a5:cb:43:6d:
                    13:02:16:28:24:7b:2c:e7:6e:4d:a6:54:f5:bf:e8:
                    26:89:f7:91:31:d5:3b:3b:93:ca:5d:a2:ec:dc:43:
                    62:1d:87:5f:13:bd:a4:22:91:20:5c:5f:ed:1c:e7:
                    29:6f:c7:d0:98:04:5f:ec:1b:c0:c4:e4:45:9a:7a:
                    5f:5a:11:f9:80:ba:1f:ef:cb:74:e4:7e:f9:2c:51:
                    18:e9:21:2d:8a:c2:27:71:d6:28:9d:af:05:de:d5:
                    d4:d6:2d:e7:3e:71:83:17:72:01:ff:b6:2c:01:26:
                    a6:fb:e5:2b:24:63:f4:f5:92:53:77:b9:28:b9:02:
                    74:75
                Exponent: 65537 (0x10001)
        X509v3 extensions:
            X509v3 Basic Constraints: 
                CA:FALSE
            X509v3 Subject Key Identifier: 
                EF:BB:56:DE:0A:50:67:75:4A:C8:C3:2B:25:1A:77:C4:E4:03:E1:B8
            X509v3 Authority Key Identifier: 
                keyid:35:19:47:72:5C:7F:0C:6F:F4:C6:8B:81:D7:05:98:96:44:D0:E0:7B
                DirName:/CN=team464-net
                serial:6D:43:95:42:25:86:ED:B7:99:EB:6B:78:51:70:7A:CA:60:E8:72:6A

            X509v3 Extended Key Usage: 
                TLS Web Server Authentication
            X509v3 Key Usage: 
                Digital Signature, Key Encipherment
            X509v3 Subject Alternative Name: 
                DNS:team464-server
    Signature Algorithm: sha256WithRSAEncryption
         47:e0:70:54:59:40:a0:e8:30:ac:ad:ef:76:31:f7:ec:df:b4:
         3f:17:70:d9:63:e4:61:c7:56:f1:fa:1f:16:3c:21:12:29:88:
         8b:85:54:e7:7b:27:6d:33:4c:82:ce:5f:9d:36:0b:41:3e:7f:
         7f:ad:b4:a0:f8:89:67:31:30:5b:a5:80:57:9a:32:9d:2a:c9:
         8e:53:7f:25:76:68:99:c3:3c:5b:87:35:0d:5a:07:72:68:34:
         cd:06:65:00:ea:6a:54:03:9f:00:6b:94:e5:ef:c3:75:a3:9d:
         fa:a1:a1:5e:7b:99:8c:c4:9d:48:28:96:8c:e4:6f:2e:af:0f:
         79:73:99:53:6a:0b:14:60:a9:ba:5b:88:4e:be:22:56:b6:f1:
         30:c9:69:8f:ab:86:54:99:8a:49:52:1c:d9:33:87:e1:2c:4d:
         f8:c9:42:bc:7d:dc:d3:5c:5e:e1:5e:2e:aa:8b:93:7f:9a:be:
         a1:24:20:76:cb:66:76:28:59:95:e8:2e:3b:82:c5:dd:cc:4e:
         5e:48:06:8f:ce:42:2a:39:1c:c2:eb:60:07:a6:76:3e:c5:e3:
         f8:f3:e8:39:87:5e:3b:d1:26:9b:01:c8:97:1d:77:38:ca:07:
         2b:4d:40:1c:7f:0f:d8:f4:a6:93:8d:08:0d:c8:65:fc:79:19:
         3f:19:eb:24
-----BEGIN CERTIFICATE-----
MIIDeDCCAmCgAwIBAgIRALUi5GOIX7Kz5ugecipBDSwwDQYJKoZIhvcNAQELBQAw
FjEUMBIGA1UEAwwLdGVhbTQ2NC1uZXQwHhcNMjIwNTE4MjEzMTQ3WhcNMjUwNTAy
MjEzMTQ3WjAZMRcwFQYDVQQDDA50ZWFtNDY0LXNlcnZlcjCCASIwDQYJKoZIhvcN
AQEBBQADggEPADCCAQoCggEBAMzOAtMpdUMYNcQjh3Y6QLcKSp5VgwBxJ8JkNlja
8OCaXjsE3iK49cJqRxoB6PJJ/b3LENXjlyBtmlB7YJYVeVmqQtqfh8DQxAOD4xcH
CBGMtcuhO3Yaox3ZegrzJ0xNtoWXeqjD1S8klQdBA46GxWmS9uNt3SxTopKrybHG
xE9HYb6ly0NtEwIWKCR7LOduTaZU9b/oJon3kTHVOzuTyl2i7NxDYh2HXxO9pCKR
IFxf7RznKW/H0JgEX+wbwMTkRZp6X1oR+YC6H+/LdOR++SxRGOkhLYrCJ3HWKJ2v
Bd7V1NYt5z5xgxdyAf+2LAEmpvvlKyRj9PWSU3e5KLkCdHUCAwEAAaOBvTCBujAJ
BgNVHRMEAjAAMB0GA1UdDgQWBBTvu1beClBndUrIwyslGnfE5APhuDBRBgNVHSME
SjBIgBQ1GUdyXH8Mb/TGi4HXBZiWRNDge6EapBgwFjEUMBIGA1UEAwwLdGVhbTQ2
NC1uZXSCFG1DlUIlhu23metreFFwespg6HJqMBMGA1UdJQQMMAoGCCsGAQUFBwMB
MAsGA1UdDwQEAwIFoDAZBgNVHREEEjAQgg50ZWFtNDY0LXNlcnZlcjANBgkqhkiG
9w0BAQsFAAOCAQEAR+BwVFlAoOgwrK3vdjH37N+0Pxdw2WPkYcdW8fofFjwhEimI
i4VU53snbTNMgs5fnTYLQT5/f620oPiJZzEwW6WAV5oynSrJjlN/JXZomcM8W4c1
DVoHcmg0zQZlAOpqVAOfAGuU5e/DdaOd+qGhXnuZjMSdSCiWjORvLq8PeXOZU2oL
FGCpuluITr4iVrbxMMlpj6uGVJmKSVIc2TOH4SxN+MlCvH3c01xe4V4uqouTf5q+
oSQgdstmdihZleguO4LF3cxOXkgGj85CKjkcwutgB6Z2PsXj+PPoOYdeO9EmmwHI
lx13OMoHK01AHH8P2PSmk40IDchl/HkZPxnrJA==
-----END CERTIFICATE-----
