Certificate:
    Data:
        Version: 3 (0x2)
        Serial Number:
            77:c4:4a:9d:7f:d1:dd:16:c5:e1:e9:0e:19:46:d4:44
        Signature Algorithm: sha256WithRSAEncryption
        Issuer: CN=team49-net
        Validity
            Not Before: May 18 14:22:02 2022 GMT
            Not After : May  2 14:22:02 2025 GMT
        Subject: CN=team49-client
        Subject Public Key Info:
            Public Key Algorithm: rsaEncryption
                RSA Public-Key: (2048 bit)
                Modulus:
                    00:d6:76:60:aa:71:6b:29:a5:44:9e:1b:ac:2d:4b:
                    1b:61:81:7e:9c:b7:48:a0:81:b5:f1:71:1f:a7:f9:
                    d4:b5:e5:f9:5f:1c:e5:c6:03:68:b9:2d:b3:be:79:
                    b6:15:59:f5:5a:37:f5:a9:54:83:a6:1f:73:08:70:
                    83:ea:93:01:e6:04:ea:13:e9:5c:4a:d3:8d:b3:ae:
                    98:cc:ab:0e:0d:5a:a6:13:8c:41:de:4f:54:89:ef:
                    42:5c:75:67:b0:f8:32:6f:1e:0a:8f:df:45:77:b0:
                    64:bf:20:9e:eb:96:dd:5c:f4:3c:8b:a5:92:4a:82:
                    ee:af:f9:d5:a6:55:6f:35:8a:50:79:11:55:fc:c5:
                    3f:e2:7f:cc:fd:dd:7d:d3:a0:d6:3d:c0:c4:33:c3:
                    27:b9:61:5f:e4:99:94:1c:a3:4e:9f:7d:6a:7b:66:
                    f5:11:e7:e0:29:90:be:2b:80:25:ca:d6:ec:a1:15:
                    f5:e4:c7:1c:90:07:a7:47:8b:d7:89:b8:d3:a4:07:
                    c8:90:8f:ff:c6:f2:c3:3b:93:40:53:78:30:68:01:
                    7a:30:e5:5c:00:a6:c0:37:a8:01:bc:94:9a:de:27:
                    b2:33:50:04:b1:d5:8f:73:ab:ab:c6:cc:9b:c5:d5:
                    bd:85:9d:f6:4e:06:26:25:91:c8:76:5b:f9:5a:95:
                    ab:f9
                Exponent: 65537 (0x10001)
        X509v3 extensions:
            X509v3 Basic Constraints: 
                CA:FALSE
            X509v3 Subject Key Identifier: 
                D9:EE:B6:B0:E1:EE:19:3A:26:31:22:C1:D8:FA:9D:0B:3D:DC:15:08
            X509v3 Authority Key Identifier: 
                keyid:3C:B1:63:6A:40:DF:EA:CA:CA:D0:5C:D1:00:D8:E6:5D:4C:2B:7B:E3
                DirName:/CN=team49-net
                serial:35:2A:78:EC:15:E7:4B:A1:E3:5E:E7:84:AE:EA:C6:3B:71:B9:3E:DE

            X509v3 Extended Key Usage: 
                TLS Web Client Authentication
            X509v3 Key Usage: 
                Digital Signature
    Signature Algorithm: sha256WithRSAEncryption
         26:4f:a4:5d:a9:b8:c5:b3:bc:a9:ba:69:1f:06:9c:68:0a:75:
         89:0d:06:9a:f8:c6:15:f0:e3:d3:06:cd:51:f2:b6:de:c1:a9:
         f0:4a:bc:19:15:01:68:d1:f3:90:44:83:37:1d:9d:33:0e:85:
         39:e3:69:e0:99:99:15:4d:bb:85:2a:d8:85:5e:c5:ee:50:df:
         d0:71:9f:0c:f5:0e:bd:2e:27:ff:90:d1:89:59:1e:8e:d3:da:
         25:16:9f:c2:93:91:64:5a:65:c1:23:0c:f7:af:d6:5a:de:ff:
         19:2a:a5:c9:a4:33:67:0b:c4:03:18:4d:7b:23:f1:46:03:3b:
         2b:4c:9f:d5:83:6f:1e:9a:5f:7f:ed:99:d0:eb:4c:a6:75:d5:
         15:c3:ba:78:64:33:5b:8a:d3:12:57:98:04:a4:9f:c2:f0:c9:
         85:ab:ab:20:84:40:24:d5:09:07:13:a7:13:b8:a3:18:91:c6:
         40:14:10:6b:02:a1:a5:ee:a1:15:7f:1e:a6:b2:43:5e:a2:3d:
         6f:61:66:6b:97:52:d7:2f:b5:7a:e5:6b:86:e4:05:c1:0d:f7:
         5d:22:44:35:f5:c1:5b:1f:9d:90:6a:fc:7d:2b:38:b1:67:3b:
         fe:6b:67:e4:05:e7:34:4a:39:10:39:22:da:e3:31:ee:e5:49:
         61:71:ad:51
-----BEGIN CERTIFICATE-----
MIIDWTCCAkGgAwIBAgIQd8RKnX/R3RbF4ekOGUbURDANBgkqhkiG9w0BAQsFADAV
MRMwEQYDVQQDDAp0ZWFtNDktbmV0MB4XDTIyMDUxODE0MjIwMloXDTI1MDUwMjE0
MjIwMlowGDEWMBQGA1UEAwwNdGVhbTQ5LWNsaWVudDCCASIwDQYJKoZIhvcNAQEB
BQADggEPADCCAQoCggEBANZ2YKpxaymlRJ4brC1LG2GBfpy3SKCBtfFxH6f51LXl
+V8c5cYDaLkts755thVZ9Vo39alUg6Yfcwhwg+qTAeYE6hPpXErTjbOumMyrDg1a
phOMQd5PVInvQlx1Z7D4Mm8eCo/fRXewZL8gnuuW3Vz0PIulkkqC7q/51aZVbzWK
UHkRVfzFP+J/zP3dfdOg1j3AxDPDJ7lhX+SZlByjTp99antm9RHn4CmQviuAJcrW
7KEV9eTHHJAHp0eL14m406QHyJCP/8bywzuTQFN4MGgBejDlXACmwDeoAbyUmt4n
sjNQBLHVj3Orq8bMm8XVvYWd9k4GJiWRyHZb+VqVq/kCAwEAAaOBoTCBnjAJBgNV
HRMEAjAAMB0GA1UdDgQWBBTZ7raw4e4ZOiYxIsHY+p0LPdwVCDBQBgNVHSMESTBH
gBQ8sWNqQN/qysrQXNEA2OZdTCt746EZpBcwFTETMBEGA1UEAwwKdGVhbTQ5LW5l
dIIUNSp47BXnS6HjXueErurGO3G5Pt4wEwYDVR0lBAwwCgYIKwYBBQUHAwIwCwYD
VR0PBAQDAgeAMA0GCSqGSIb3DQEBCwUAA4IBAQAmT6RdqbjFs7ypumkfBpxoCnWJ
DQaa+MYV8OPTBs1R8rbewanwSrwZFQFo0fOQRIM3HZ0zDoU542ngmZkVTbuFKtiF
XsXuUN/QcZ8M9Q69Lif/kNGJWR6O09olFp/Ck5FkWmXBIwz3r9Za3v8ZKqXJpDNn
C8QDGE17I/FGAzsrTJ/Vg28eml9/7ZnQ60ymddUVw7p4ZDNbitMSV5gEpJ/C8MmF
q6sghEAk1QkHE6cTuKMYkcZAFBBrAqGl7qEVfx6mskNeoj1vYWZrl1LXL7V65WuG
5AXBDfddIkQ19cFbH52Qavx9KzixZzv+a2fkBec0SjkQOSLa4zHu5Ulhca1R
-----END CERTIFICATE-----
