Certificate:
    Data:
        Version: 3 (0x2)
        Serial Number:
            32:2c:3f:9a:6f:8b:f3:c0:51:98:93:b3:ce:12:37:36
        Signature Algorithm: sha256WithRSAEncryption
        Issuer: CN=team156-net
        Validity
            Not Before: May 18 18:39:05 2022 GMT
            Not After : May  2 18:39:05 2025 GMT
        Subject: CN=team156-server
        Subject Public Key Info:
            Public Key Algorithm: rsaEncryption
                RSA Public-Key: (2048 bit)
                Modulus:
                    00:c6:c8:5e:f6:f2:e0:5e:f7:58:d9:0c:69:ef:fb:
                    1a:9e:cf:86:7b:64:c5:6a:cf:3f:33:42:c3:5b:59:
                    e2:19:b5:35:9d:69:47:12:a9:77:67:a6:f2:5b:a9:
                    68:34:d7:ef:39:88:e7:bb:e0:e5:9a:90:39:ea:cc:
                    81:5c:0b:89:47:e6:90:44:ea:d4:58:d5:5c:11:84:
                    1c:93:0c:03:e9:e1:46:38:9a:1d:52:9c:d0:ba:78:
                    1c:5d:a5:99:aa:97:da:71:b3:d3:9f:22:22:73:1e:
                    12:cd:4a:4b:3a:af:17:26:02:cf:b9:19:7f:2c:76:
                    76:36:da:fb:8e:8f:99:03:0a:1d:b6:2a:02:39:fa:
                    0a:88:6e:db:0b:42:9c:75:c7:0b:dd:9c:c9:7a:fd:
                    dc:f7:a6:72:69:29:09:6a:c2:1a:03:f5:80:63:3e:
                    ea:a9:b8:79:ce:e4:b6:79:20:c8:5b:6a:26:75:10:
                    d9:4c:dc:0c:06:39:19:d8:01:b3:91:1c:a1:cc:4d:
                    bb:14:59:9a:5c:c9:3c:60:52:6e:eb:25:b5:cf:9c:
                    97:f1:64:2c:16:ed:8d:9a:43:27:a1:68:68:7b:75:
                    ed:c0:6e:41:66:88:eb:0f:f0:7f:a9:2a:4e:70:ff:
                    76:dd:7a:4f:96:65:fa:c7:77:a6:57:a8:13:1a:d4:
                    7f:97
                Exponent: 65537 (0x10001)
        X509v3 extensions:
            X509v3 Basic Constraints: 
                CA:FALSE
            X509v3 Subject Key Identifier: 
                A5:48:ED:85:1C:06:A7:B0:20:9F:85:6A:19:F1:D3:55:6F:31:CE:DA
            X509v3 Authority Key Identifier: 
                keyid:7E:93:6C:77:25:D7:62:31:B8:81:F5:DA:4D:22:C5:19:B6:A0:B7:EA
                DirName:/CN=team156-net
                serial:7A:95:CA:63:40:81:B4:C6:D0:B4:06:E5:18:68:3F:E6:C3:CF:EE:18

            X509v3 Extended Key Usage: 
                TLS Web Server Authentication
            X509v3 Key Usage: 
                Digital Signature, Key Encipherment
            X509v3 Subject Alternative Name: 
                DNS:team156-server
    Signature Algorithm: sha256WithRSAEncryption
         a4:cb:41:d2:03:a0:ce:3a:ec:7d:b0:15:a0:2e:a9:68:2c:3a:
         eb:36:f8:3a:4b:e3:07:9c:19:6f:2f:62:eb:73:dd:15:a7:77:
         d4:e0:d6:ba:4f:1c:3b:3c:0a:6b:ef:78:6c:f6:6d:a5:e1:d9:
         d6:31:31:af:19:df:74:e3:92:4c:e3:dc:8d:64:9c:be:36:28:
         85:26:70:dd:95:e8:a5:99:f4:02:7b:d7:0d:84:60:1f:63:17:
         98:ff:47:d6:ac:07:e8:35:65:33:80:39:90:1c:fe:b4:a5:1c:
         89:31:d8:a0:de:68:8c:df:f0:08:e2:ff:63:cf:7c:de:51:48:
         77:a8:17:b4:74:5f:0c:b2:ab:c7:1a:3b:66:62:c4:55:76:27:
         fd:2a:0c:36:6a:33:a3:a4:fc:f6:ee:88:44:13:0e:9e:2f:fe:
         06:a9:5e:2c:2d:a1:8f:22:6f:1e:14:ef:2b:43:37:ce:45:b7:
         c2:be:44:27:7d:2a:a3:fb:9d:b0:d1:14:55:f0:b3:02:fc:92:
         1a:1d:be:4a:4b:51:3a:4f:a9:27:b9:81:de:52:41:6c:34:c4:
         09:2a:94:aa:32:c8:7b:a2:07:75:f3:95:22:9b:ec:88:dc:3b:
         91:75:ea:38:09:2c:ce:1a:57:19:7b:ab:c4:f8:50:c6:ee:a4:
         99:10:92:f6
-----BEGIN CERTIFICATE-----
MIIDdzCCAl+gAwIBAgIQMiw/mm+L88BRmJOzzhI3NjANBgkqhkiG9w0BAQsFADAW
MRQwEgYDVQQDDAt0ZWFtMTU2LW5ldDAeFw0yMjA1MTgxODM5MDVaFw0yNTA1MDIx
ODM5MDVaMBkxFzAVBgNVBAMMDnRlYW0xNTYtc2VydmVyMIIBIjANBgkqhkiG9w0B
AQEFAAOCAQ8AMIIBCgKCAQEAxshe9vLgXvdY2Qxp7/sans+Ge2TFas8/M0LDW1ni
GbU1nWlHEql3Z6byW6loNNfvOYjnu+DlmpA56syBXAuJR+aQROrUWNVcEYQckwwD
6eFGOJodUpzQungcXaWZqpfacbPTnyIicx4SzUpLOq8XJgLPuRl/LHZ2Ntr7jo+Z
AwodtioCOfoKiG7bC0KcdccL3ZzJev3c96ZyaSkJasIaA/WAYz7qqbh5zuS2eSDI
W2omdRDZTNwMBjkZ2AGzkRyhzE27FFmaXMk8YFJu6yW1z5yX8WQsFu2NmkMnoWho
e3XtwG5BZojrD/B/qSpOcP923XpPlmX6x3emV6gTGtR/lwIDAQABo4G9MIG6MAkG
A1UdEwQCMAAwHQYDVR0OBBYEFKVI7YUcBqewIJ+Fahnx01VvMc7aMFEGA1UdIwRK
MEiAFH6TbHcl12IxuIH12k0ixRm2oLfqoRqkGDAWMRQwEgYDVQQDDAt0ZWFtMTU2
LW5ldIIUepXKY0CBtMbQtAblGGg/5sPP7hgwEwYDVR0lBAwwCgYIKwYBBQUHAwEw
CwYDVR0PBAQDAgWgMBkGA1UdEQQSMBCCDnRlYW0xNTYtc2VydmVyMA0GCSqGSIb3
DQEBCwUAA4IBAQCky0HSA6DOOux9sBWgLqloLDrrNvg6S+MHnBlvL2Lrc90Vp3fU
4Na6Txw7PApr73hs9m2l4dnWMTGvGd9045JM49yNZJy+NiiFJnDdleilmfQCe9cN
hGAfYxeY/0fWrAfoNWUzgDmQHP60pRyJMdig3miM3/AI4v9jz3zeUUh3qBe0dF8M
sqvHGjtmYsRVdif9Kgw2ajOjpPz27ohEEw6eL/4GqV4sLaGPIm8eFO8rQzfORbfC
vkQnfSqj+52w0RRV8LMC/JIaHb5KS1E6T6knuYHeUkFsNMQJKpSqMsh7ogd185Ui
m+yI3DuRdeo4CSzOGlcZe6vE+FDG7qSZEJL2
-----END CERTIFICATE-----
