Certificate:
    Data:
        Version: 3 (0x2)
        Serial Number:
            9a:6c:65:45:e4:f8:38:61:da:b1:81:fa:6c:c0:c6:f5
        Signature Algorithm: sha256WithRSAEncryption
        Issuer: CN=team156-net
        Validity
            Not Before: May 18 18:39:05 2022 GMT
            Not After : May  2 18:39:05 2025 GMT
        Subject: CN=team156-client
        Subject Public Key Info:
            Public Key Algorithm: rsaEncryption
                RSA Public-Key: (2048 bit)
                Modulus:
                    00:b6:27:14:55:14:6c:d1:ab:7a:88:34:79:0d:a7:
                    a4:03:56:4c:1f:94:e9:ef:20:a7:b5:7d:22:c8:c2:
                    e3:f0:12:98:1f:8c:73:24:27:5c:06:6a:49:e2:3b:
                    e6:78:e5:3f:85:ca:be:72:4a:e5:e7:e8:ab:7b:c0:
                    a3:9a:a9:01:5b:17:90:31:f5:ec:25:c4:c0:af:aa:
                    00:88:9c:fb:4e:5d:46:a9:6f:cc:07:7f:b0:61:56:
                    31:ae:54:21:37:0c:e5:60:29:e6:57:6c:7a:55:dd:
                    74:f1:43:f3:4b:33:14:3d:f0:0b:00:84:b0:5d:20:
                    9a:45:b5:f6:95:c5:95:70:11:d8:0b:d1:42:97:3f:
                    be:f5:0e:18:1f:01:fa:bd:14:fc:d9:41:0c:0d:8b:
                    c3:91:9d:5f:2b:fb:e4:5f:fe:6e:cd:31:b0:31:ab:
                    af:01:13:b5:95:42:dc:13:f0:5a:fc:2b:0e:57:99:
                    76:91:56:b6:10:36:27:34:97:b1:e4:c1:0d:19:9a:
                    c1:7a:b4:49:16:c6:f5:2b:07:6c:3e:85:41:82:60:
                    9a:2c:68:90:53:3d:ed:7b:43:95:b0:cc:60:75:fb:
                    a9:d4:54:8f:60:7f:53:03:88:43:13:30:78:2b:65:
                    c3:bb:9a:12:ae:12:30:a0:3f:05:95:69:bc:f4:d0:
                    d2:51
                Exponent: 65537 (0x10001)
        X509v3 extensions:
            X509v3 Basic Constraints: 
                CA:FALSE
            X509v3 Subject Key Identifier: 
                AA:AB:8C:20:EC:FF:15:06:12:DC:A9:45:27:BC:2D:DD:D4:4F:CA:0D
            X509v3 Authority Key Identifier: 
                keyid:7E:93:6C:77:25:D7:62:31:B8:81:F5:DA:4D:22:C5:19:B6:A0:B7:EA
                DirName:/CN=team156-net
                serial:7A:95:CA:63:40:81:B4:C6:D0:B4:06:E5:18:68:3F:E6:C3:CF:EE:18

            X509v3 Extended Key Usage: 
                TLS Web Client Authentication
            X509v3 Key Usage: 
                Digital Signature
    Signature Algorithm: sha256WithRSAEncryption
         a3:3c:8d:94:10:9b:12:b4:f9:7e:ba:25:90:75:51:19:52:99:
         0e:a1:0f:ae:cb:25:f7:3f:54:72:9c:f7:3d:63:6a:93:02:cf:
         2f:33:35:df:a8:8f:c6:9a:25:68:8c:55:11:d1:7c:d3:40:53:
         4b:52:0c:cd:ee:b7:ce:3f:c7:da:07:4b:0b:7e:0e:f2:f8:53:
         f6:eb:62:6f:7f:1d:81:f2:e6:7e:6f:62:b2:56:b6:5b:84:4e:
         2a:72:a5:9d:84:70:4e:59:f4:76:a1:d6:ad:4b:24:0f:f3:92:
         53:b3:7c:83:db:0f:48:e8:6a:d8:6a:93:00:cb:b6:bd:9c:f0:
         c3:05:02:cc:c8:4b:21:8e:89:04:44:99:91:5d:7d:68:1e:8b:
         ee:e1:0a:a2:b5:01:e9:04:32:c6:17:13:d5:29:95:25:ec:23:
         9b:31:6b:8e:4e:89:e5:06:0e:06:93:cd:05:e0:6f:f6:de:28:
         77:dc:0d:a9:bd:f6:39:15:49:a7:e6:ac:0c:03:85:75:8e:b1:
         2d:7d:4d:ae:a4:51:89:7e:11:bd:e2:2d:86:71:ef:6d:74:48:
         d6:9a:23:9b:03:75:86:cd:c9:65:ba:e2:25:f0:9b:57:f3:4d:
         3a:35:68:fe:c0:6a:77:2c:1c:d8:24:bc:31:be:07:68:7e:46:
         4c:e7:37:35
-----BEGIN CERTIFICATE-----
MIIDXTCCAkWgAwIBAgIRAJpsZUXk+Dhh2rGB+mzAxvUwDQYJKoZIhvcNAQELBQAw
FjEUMBIGA1UEAwwLdGVhbTE1Ni1uZXQwHhcNMjIwNTE4MTgzOTA1WhcNMjUwNTAy
MTgzOTA1WjAZMRcwFQYDVQQDDA50ZWFtMTU2LWNsaWVudDCCASIwDQYJKoZIhvcN
AQEBBQADggEPADCCAQoCggEBALYnFFUUbNGreog0eQ2npANWTB+U6e8gp7V9IsjC
4/ASmB+McyQnXAZqSeI75njlP4XKvnJK5efoq3vAo5qpAVsXkDH17CXEwK+qAIic
+05dRqlvzAd/sGFWMa5UITcM5WAp5ldselXddPFD80szFD3wCwCEsF0gmkW19pXF
lXAR2AvRQpc/vvUOGB8B+r0U/NlBDA2Lw5GdXyv75F/+bs0xsDGrrwETtZVC3BPw
WvwrDleZdpFWthA2JzSXseTBDRmawXq0SRbG9SsHbD6FQYJgmixokFM97XtDlbDM
YHX7qdRUj2B/UwOIQxMweCtlw7uaEq4SMKA/BZVpvPTQ0lECAwEAAaOBojCBnzAJ
BgNVHRMEAjAAMB0GA1UdDgQWBBSqq4wg7P8VBhLcqUUnvC3d1E/KDTBRBgNVHSME
SjBIgBR+k2x3JddiMbiB9dpNIsUZtqC36qEapBgwFjEUMBIGA1UEAwwLdGVhbTE1
Ni1uZXSCFHqVymNAgbTG0LQG5RhoP+bDz+4YMBMGA1UdJQQMMAoGCCsGAQUFBwMC
MAsGA1UdDwQEAwIHgDANBgkqhkiG9w0BAQsFAAOCAQEAozyNlBCbErT5frolkHVR
GVKZDqEPrssl9z9Ucpz3PWNqkwLPLzM136iPxpolaIxVEdF800BTS1IMze63zj/H
2gdLC34O8vhT9utib38dgfLmfm9isla2W4ROKnKlnYRwTln0dqHWrUskD/OSU7N8
g9sPSOhq2GqTAMu2vZzwwwUCzMhLIY6JBESZkV19aB6L7uEKorUB6QQyxhcT1SmV
JewjmzFrjk6J5QYOBpPNBeBv9t4od9wNqb32ORVJp+asDAOFdY6xLX1NrqRRiX4R
veIthnHvbXRI1pojmwN1hs3JZbriJfCbV/NNOjVo/sBqdywc2CS8Mb4HaH5GTOc3
NQ==
-----END CERTIFICATE-----
