Certificate:
    Data:
        Version: 3 (0x2)
        Serial Number:
            94:34:ee:da:fa:54:05:de:79:89:b5:99:e9:31:d3:a2
        Signature Algorithm: sha256WithRSAEncryption
        Issuer: CN=team317-net
        Validity
            Not Before: May 18 20:16:38 2022 GMT
            Not After : May  2 20:16:38 2025 GMT
        Subject: CN=team317-server
        Subject Public Key Info:
            Public Key Algorithm: rsaEncryption
                RSA Public-Key: (2048 bit)
                Modulus:
                    00:ae:ba:56:15:4a:2d:74:e8:b9:78:00:0d:08:9d:
                    8c:4a:f4:52:88:6c:b1:35:d1:73:5f:e3:02:d4:6e:
                    8d:fa:ac:41:49:43:9e:67:b3:0c:8c:20:1e:67:e2:
                    d2:3a:9f:cd:3d:7b:22:60:08:91:ae:57:9a:f0:22:
                    06:6f:ea:b2:b2:18:45:e7:18:f5:8d:3c:f6:01:9d:
                    c9:77:a5:c2:24:9e:8c:83:0f:31:9a:23:41:2a:15:
                    f5:e6:8d:cf:20:5c:b4:16:f1:1c:fe:6b:1a:79:f9:
                    ae:04:6e:74:d5:bb:6d:30:76:71:30:0b:6c:0a:05:
                    9e:3a:1f:0d:48:d3:7c:cf:69:22:28:fb:e5:4e:e0:
                    95:18:c6:56:42:39:72:1e:39:f6:8c:fd:94:5a:92:
                    f4:3f:cc:71:5d:51:93:ca:13:48:07:6c:2c:8d:65:
                    45:63:16:ed:3e:2f:43:d9:55:19:cb:a8:74:96:4c:
                    20:ef:3e:3a:48:6c:fc:ca:b1:63:a1:ba:2a:d4:68:
                    39:84:a2:dd:7b:a8:d5:5f:ac:b6:44:37:3d:b7:db:
                    0c:e2:eb:93:2a:5c:d8:71:24:ce:67:a1:a3:93:32:
                    64:bd:92:8e:a3:35:50:28:5a:fe:1e:c6:35:55:c5:
                    45:27:e4:b3:20:b7:c7:39:8f:bd:78:cb:b4:9f:bd:
                    a2:e5
                Exponent: 65537 (0x10001)
        X509v3 extensions:
            X509v3 Basic Constraints: 
                CA:FALSE
            X509v3 Subject Key Identifier: 
                EE:EA:E2:A9:55:BC:6F:E2:FA:8B:1C:CB:3A:65:C7:E1:67:30:CE:3E
            X509v3 Authority Key Identifier: 
                keyid:A6:E2:BA:5F:69:1F:DF:9C:09:26:2D:7E:63:D8:C2:7E:62:3D:94:85
                DirName:/CN=team317-net
                serial:33:B2:0F:0D:0B:EE:F9:ED:BC:93:F8:C4:EA:17:71:6A:B5:D8:81:8C

            X509v3 Extended Key Usage: 
                TLS Web Server Authentication
            X509v3 Key Usage: 
                Digital Signature, Key Encipherment
            X509v3 Subject Alternative Name: 
                DNS:team317-server
    Signature Algorithm: sha256WithRSAEncryption
         97:d9:98:00:12:2c:c2:ac:c5:47:0c:65:92:7c:75:fe:64:6a:
         ff:c4:be:b9:3e:d8:50:54:f6:98:1a:ea:0f:c7:2e:df:42:11:
         58:12:8b:b5:3d:d5:96:92:1d:01:64:4b:bd:9c:5f:ba:c4:71:
         4e:34:31:c4:2f:a9:b2:fc:ca:1b:c2:25:38:fd:b3:3b:17:13:
         ac:5c:59:26:97:df:04:0e:71:39:90:97:9f:53:94:87:9c:2b:
         0d:4c:94:96:ad:71:be:3d:bf:78:93:83:37:f3:8c:92:e2:75:
         97:8b:a3:58:07:b7:29:97:cc:64:1e:28:bb:d9:d6:5b:9a:e3:
         99:c2:22:1a:7e:13:e1:ae:ca:80:0b:21:ff:ac:5a:f7:6c:67:
         7e:26:66:bd:0b:99:15:b9:4b:f1:ca:03:89:70:fa:89:bc:9c:
         39:23:3b:08:6c:17:a3:28:bc:0a:b0:e1:c7:77:89:38:a4:74:
         73:3d:53:e0:13:ee:cc:13:5b:46:39:04:6a:e1:fb:e2:57:d6:
         84:32:1d:fa:21:19:e9:8c:ca:fb:f0:4c:af:1c:1b:3f:58:c1:
         bf:50:95:96:e5:55:ec:c6:6a:e8:5b:c7:1a:e1:5a:1c:5a:44:
         48:41:df:19:c1:1d:2f:f3:4c:68:11:70:26:ee:35:71:ef:86:
         15:d5:5f:0a
-----BEGIN CERTIFICATE-----
MIIDeDCCAmCgAwIBAgIRAJQ07tr6VAXeeYm1mekx06IwDQYJKoZIhvcNAQELBQAw
FjEUMBIGA1UEAwwLdGVhbTMxNy1uZXQwHhcNMjIwNTE4MjAxNjM4WhcNMjUwNTAy
MjAxNjM4WjAZMRcwFQYDVQQDDA50ZWFtMzE3LXNlcnZlcjCCASIwDQYJKoZIhvcN
AQEBBQADggEPADCCAQoCggEBAK66VhVKLXTouXgADQidjEr0UohssTXRc1/jAtRu
jfqsQUlDnmezDIwgHmfi0jqfzT17ImAIka5XmvAiBm/qsrIYRecY9Y089gGdyXel
wiSejIMPMZojQSoV9eaNzyBctBbxHP5rGnn5rgRudNW7bTB2cTALbAoFnjofDUjT
fM9pIij75U7glRjGVkI5ch459oz9lFqS9D/McV1Rk8oTSAdsLI1lRWMW7T4vQ9lV
GcuodJZMIO8+Okhs/MqxY6G6KtRoOYSi3Xuo1V+stkQ3PbfbDOLrkypc2HEkzmeh
o5MyZL2SjqM1UCha/h7GNVXFRSfksyC3xzmPvXjLtJ+9ouUCAwEAAaOBvTCBujAJ
BgNVHRMEAjAAMB0GA1UdDgQWBBTu6uKpVbxv4vqLHMs6ZcfhZzDOPjBRBgNVHSME
SjBIgBSm4rpfaR/fnAkmLX5j2MJ+Yj2UhaEapBgwFjEUMBIGA1UEAwwLdGVhbTMx
Ny1uZXSCFDOyDw0L7vntvJP4xOoXcWq12IGMMBMGA1UdJQQMMAoGCCsGAQUFBwMB
MAsGA1UdDwQEAwIFoDAZBgNVHREEEjAQgg50ZWFtMzE3LXNlcnZlcjANBgkqhkiG
9w0BAQsFAAOCAQEAl9mYABIswqzFRwxlknx1/mRq/8S+uT7YUFT2mBrqD8cu30IR
WBKLtT3VlpIdAWRLvZxfusRxTjQxxC+psvzKG8IlOP2zOxcTrFxZJpffBA5xOZCX
n1OUh5wrDUyUlq1xvj2/eJODN/OMkuJ1l4ujWAe3KZfMZB4ou9nWW5rjmcIiGn4T
4a7KgAsh/6xa92xnfiZmvQuZFblL8coDiXD6ibycOSM7CGwXoyi8CrDhx3eJOKR0
cz1T4BPuzBNbRjkEauH74lfWhDId+iEZ6YzK+/BMrxwbP1jBv1CVluVV7MZq6FvH
GuFaHFpESEHfGcEdL/NMaBFwJu41ce+GFdVfCg==
-----END CERTIFICATE-----
