Certificate:
    Data:
        Version: 3 (0x2)
        Serial Number:
            c4:2f:3e:cb:36:e6:20:79:13:8c:0f:e9:7a:7f:33:6e
        Signature Algorithm: sha256WithRSAEncryption
        Issuer: CN=team327-net
        Validity
            Not Before: May 18 20:13:57 2022 GMT
            Not After : May  2 20:13:57 2025 GMT
        Subject: CN=team327-server
        Subject Public Key Info:
            Public Key Algorithm: rsaEncryption
                RSA Public-Key: (2048 bit)
                Modulus:
                    00:bd:d1:40:1f:56:92:80:d5:b4:da:7b:c9:f4:f2:
                    b4:88:c0:77:a1:3b:c4:e0:95:eb:9d:84:d3:49:e8:
                    d7:3d:28:af:2b:ab:7d:17:41:c8:24:53:a9:3c:82:
                    bd:33:6d:cd:02:38:3a:e3:b9:c5:b3:9b:24:6d:76:
                    0c:f9:1e:e2:ad:12:b7:84:d1:fe:04:c8:47:9b:42:
                    57:c5:cb:92:83:97:6d:df:2c:15:44:d0:6c:e8:ef:
                    19:c0:95:9c:64:00:e6:11:ba:e1:91:e4:33:81:69:
                    59:b0:0d:bc:eb:12:68:63:26:35:cb:c4:99:d6:33:
                    3a:4a:e1:70:32:b5:3c:e0:f0:26:23:69:c8:1c:2f:
                    8d:b6:f5:cb:f0:25:27:e9:50:fc:86:cf:96:1f:1f:
                    30:da:7c:f2:bb:25:d6:80:ae:c6:01:c2:02:e7:b3:
                    39:43:a8:6f:2f:ad:e6:cd:10:16:e7:4b:d0:33:70:
                    c8:9c:d0:ab:b5:e1:e6:3b:3c:e1:85:bd:21:ed:eb:
                    7e:93:8d:7a:0e:06:82:19:d2:f1:07:3d:04:15:f5:
                    8f:04:08:ad:63:9e:fe:9e:52:ff:f8:e2:4f:90:e1:
                    50:15:4d:b8:a9:ab:78:8f:f0:e3:76:14:ac:3e:35:
                    6f:83:a9:bd:f5:13:64:48:37:20:62:90:6c:b1:57:
                    7a:b3
                Exponent: 65537 (0x10001)
        X509v3 extensions:
            X509v3 Basic Constraints: 
                CA:FALSE
            X509v3 Subject Key Identifier: 
                A4:26:76:41:73:22:22:1A:10:96:46:F9:DA:8A:1F:8B:FD:8B:63:E7
            X509v3 Authority Key Identifier: 
                keyid:83:4E:E2:0C:89:18:D1:53:A1:41:24:4D:FF:1E:2B:08:35:B9:7F:04
                DirName:/CN=team327-net
                serial:55:96:4B:B5:0A:D2:01:32:E6:8B:AD:B4:28:22:64:C2:09:8C:8C:AB

            X509v3 Extended Key Usage: 
                TLS Web Server Authentication
            X509v3 Key Usage: 
                Digital Signature, Key Encipherment
            X509v3 Subject Alternative Name: 
                DNS:team327-server
    Signature Algorithm: sha256WithRSAEncryption
         b0:ac:22:7e:b9:65:9b:dd:a8:98:7d:32:11:67:9f:52:a7:25:
         8e:fc:e3:29:5c:93:f2:e9:34:ce:41:9d:37:f6:1a:d5:97:78:
         45:5a:e6:79:ce:80:b3:cb:b7:41:99:98:63:2e:43:ba:c0:0d:
         de:b9:91:bd:4d:9b:7c:d2:51:99:9c:5a:f4:35:ad:b2:13:ce:
         20:d5:c0:72:3d:38:04:0d:f7:b2:d9:be:f6:ac:eb:27:ff:40:
         5e:ee:c8:01:d2:b0:47:ba:96:3a:b3:45:d0:5d:25:e5:9c:9a:
         6f:d4:60:78:65:d9:ba:0e:54:99:15:f7:59:c9:91:32:6d:6b:
         7f:30:2d:41:92:71:5f:f0:45:86:f5:23:c2:06:62:ce:91:aa:
         49:5f:fd:c1:dc:eb:0f:e2:e0:ae:4d:db:57:3e:41:01:e7:40:
         09:f4:23:88:7c:40:dc:a5:e0:d2:a3:e4:38:63:ac:cd:68:a7:
         ad:3a:23:b9:b3:14:3b:4b:e7:b6:c4:be:82:74:f1:6c:ca:58:
         90:21:ba:2d:3e:0a:db:a9:d8:8d:3f:d0:fb:d8:c8:24:29:56:
         bf:80:38:1e:7e:d4:dd:95:6a:77:d8:9d:72:13:3c:81:60:19:
         3c:92:70:9e:5f:12:b8:60:b1:4c:57:95:34:5c:72:aa:94:8f:
         ba:06:02:a0
-----BEGIN CERTIFICATE-----
MIIDeDCCAmCgAwIBAgIRAMQvPss25iB5E4wP6Xp/M24wDQYJKoZIhvcNAQELBQAw
FjEUMBIGA1UEAwwLdGVhbTMyNy1uZXQwHhcNMjIwNTE4MjAxMzU3WhcNMjUwNTAy
MjAxMzU3WjAZMRcwFQYDVQQDDA50ZWFtMzI3LXNlcnZlcjCCASIwDQYJKoZIhvcN
AQEBBQADggEPADCCAQoCggEBAL3RQB9WkoDVtNp7yfTytIjAd6E7xOCV652E00no
1z0oryurfRdByCRTqTyCvTNtzQI4OuO5xbObJG12DPke4q0St4TR/gTIR5tCV8XL
koOXbd8sFUTQbOjvGcCVnGQA5hG64ZHkM4FpWbANvOsSaGMmNcvEmdYzOkrhcDK1
PODwJiNpyBwvjbb1y/AlJ+lQ/IbPlh8fMNp88rsl1oCuxgHCAuezOUOoby+t5s0Q
FudL0DNwyJzQq7Xh5js84YW9Ie3rfpONeg4GghnS8Qc9BBX1jwQIrWOe/p5S//ji
T5DhUBVNuKmreI/w43YUrD41b4OpvfUTZEg3IGKQbLFXerMCAwEAAaOBvTCBujAJ
BgNVHRMEAjAAMB0GA1UdDgQWBBSkJnZBcyIiGhCWRvnaih+L/Ytj5zBRBgNVHSME
SjBIgBSDTuIMiRjRU6FBJE3/HisINbl/BKEapBgwFjEUMBIGA1UEAwwLdGVhbTMy
Ny1uZXSCFFWWS7UK0gEy5outtCgiZMIJjIyrMBMGA1UdJQQMMAoGCCsGAQUFBwMB
MAsGA1UdDwQEAwIFoDAZBgNVHREEEjAQgg50ZWFtMzI3LXNlcnZlcjANBgkqhkiG
9w0BAQsFAAOCAQEAsKwifrllm92omH0yEWefUqcljvzjKVyT8uk0zkGdN/Ya1Zd4
RVrmec6As8u3QZmYYy5DusAN3rmRvU2bfNJRmZxa9DWtshPOINXAcj04BA33stm+
9qzrJ/9AXu7IAdKwR7qWOrNF0F0l5Zyab9RgeGXZug5UmRX3WcmRMm1rfzAtQZJx
X/BFhvUjwgZizpGqSV/9wdzrD+Lgrk3bVz5BAedACfQjiHxA3KXg0qPkOGOszWin
rTojubMUO0vntsS+gnTxbMpYkCG6LT4K26nYjT/Q+9jIJClWv4A4Hn7U3ZVqd9id
chM8gWAZPJJwnl8SuGCxTFeVNFxyqpSPugYCoA==
-----END CERTIFICATE-----
