Certificate:
    Data:
        Version: 3 (0x2)
        Serial Number:
            92:08:a8:be:52:87:11:59:b3:38:6d:b1:d0:c9:19:78
        Signature Algorithm: sha256WithRSAEncryption
        Issuer: CN=team50-net
        Validity
            Not Before: May 18 14:23:41 2022 GMT
            Not After : May  2 14:23:41 2025 GMT
        Subject: CN=team50-server
        Subject Public Key Info:
            Public Key Algorithm: rsaEncryption
                RSA Public-Key: (2048 bit)
                Modulus:
                    00:af:43:db:a2:4d:d2:b6:2b:f1:30:b0:93:ea:e5:
                    53:a5:4c:52:53:74:b4:41:3e:f9:8a:6b:b2:9b:c9:
                    f2:d4:d8:48:4a:45:51:90:23:1c:8d:c3:13:bf:fa:
                    b5:e3:77:75:55:f1:e9:a5:62:26:41:1a:a6:a9:a0:
                    34:7a:3c:ac:63:77:4c:0e:91:86:40:c9:e1:ad:b4:
                    10:eb:0e:72:24:bb:97:31:c9:8e:d0:2e:49:c0:d1:
                    1a:7d:de:96:7d:cf:ab:99:34:a6:f6:39:2a:83:67:
                    6e:13:02:d8:70:1f:9b:0d:fb:09:17:cd:04:b4:3c:
                    fe:de:f8:20:c4:16:b3:4b:56:29:4a:50:ea:50:43:
                    1f:68:42:be:2e:55:f7:c0:ed:c7:d1:f2:df:fc:97:
                    09:5c:8f:c0:6d:3b:f2:04:3e:88:63:aa:80:f3:62:
                    7a:e5:0e:23:22:9f:99:0d:c1:97:bf:2a:54:0d:2b:
                    a6:0a:41:8f:5f:76:b4:8a:70:3b:e9:5e:6f:42:ad:
                    00:18:e0:83:15:78:ba:c2:4f:21:b4:9c:7a:b5:c4:
                    fa:21:66:8d:9b:59:ca:7c:64:ab:43:c3:6e:6c:0b:
                    73:ad:92:d2:1c:d0:9a:e6:26:51:ea:9f:e3:09:5a:
                    7a:28:9f:e9:ce:0a:24:fd:17:a3:47:36:f9:b1:09:
                    2c:e5
                Exponent: 65537 (0x10001)
        X509v3 extensions:
            X509v3 Basic Constraints: 
                CA:FALSE
            X509v3 Subject Key Identifier: 
                D0:E8:94:29:CB:D1:5D:D0:82:8E:9F:C0:59:8C:D4:4D:FC:E2:C9:7E
            X509v3 Authority Key Identifier: 
                keyid:BB:0A:89:D1:00:5F:A4:A0:27:CC:64:BC:95:16:01:86:5D:90:08:AD
                DirName:/CN=team50-net
                serial:40:6C:D5:BE:A9:8D:CB:B3:03:F9:CA:A9:32:D5:62:C8:BD:7C:BE:4E

            X509v3 Extended Key Usage: 
                TLS Web Server Authentication
            X509v3 Key Usage: 
                Digital Signature, Key Encipherment
            X509v3 Subject Alternative Name: 
                DNS:team50-server
    Signature Algorithm: sha256WithRSAEncryption
         bd:ca:e4:6c:56:79:f5:bb:ae:15:39:1b:96:6a:c3:38:67:e9:
         ed:27:05:a8:ae:b5:04:ef:f6:f6:c1:e3:46:eb:04:9e:16:0c:
         d1:c9:2a:06:82:27:c7:59:73:86:6a:c5:e5:a3:6d:4a:8f:ae:
         d3:a7:31:1c:d9:8c:dc:84:83:08:0d:1d:25:75:f3:31:f8:2a:
         78:0f:e7:31:60:79:15:ab:ca:e6:33:bc:08:11:40:6b:62:0e:
         25:76:71:d9:10:ed:39:3d:2d:20:77:9d:82:d2:94:46:1d:8f:
         07:2a:86:2d:97:63:71:88:20:1d:76:2f:00:08:b5:69:45:ec:
         aa:d5:e7:ac:85:2b:4c:7a:23:b2:93:af:3d:41:8e:98:1e:58:
         51:02:db:39:0e:1c:6d:b1:05:ce:f1:f5:9a:14:a1:f6:b0:da:
         b2:6a:75:8a:7f:a9:18:c4:6d:1f:92:89:d1:da:17:80:8b:bb:
         a8:ea:39:b5:95:de:c3:e2:1b:1b:9f:66:38:ed:3c:8d:ad:cc:
         bd:ad:c2:af:57:67:08:d2:9f:9b:7a:ab:c1:50:c2:dd:cd:b2:
         fb:32:cc:5f:a7:22:16:d8:cc:76:d8:12:04:a3:68:4f:c8:a5:
         5d:4e:42:0e:27:10:68:8d:b1:58:92:47:da:bb:d8:a8:83:11:
         1f:cd:4f:e9
-----BEGIN CERTIFICATE-----
MIIDdDCCAlygAwIBAgIRAJIIqL5ShxFZszhtsdDJGXgwDQYJKoZIhvcNAQELBQAw
FTETMBEGA1UEAwwKdGVhbTUwLW5ldDAeFw0yMjA1MTgxNDIzNDFaFw0yNTA1MDIx
NDIzNDFaMBgxFjAUBgNVBAMMDXRlYW01MC1zZXJ2ZXIwggEiMA0GCSqGSIb3DQEB
AQUAA4IBDwAwggEKAoIBAQCvQ9uiTdK2K/EwsJPq5VOlTFJTdLRBPvmKa7KbyfLU
2EhKRVGQIxyNwxO/+rXjd3VV8emlYiZBGqapoDR6PKxjd0wOkYZAyeGttBDrDnIk
u5cxyY7QLknA0Rp93pZ9z6uZNKb2OSqDZ24TAthwH5sN+wkXzQS0PP7e+CDEFrNL
VilKUOpQQx9oQr4uVffA7cfR8t/8lwlcj8BtO/IEPohjqoDzYnrlDiMin5kNwZe/
KlQNK6YKQY9fdrSKcDvpXm9CrQAY4IMVeLrCTyG0nHq1xPohZo2bWcp8ZKtDw25s
C3OtktIc0JrmJlHqn+MJWnoon+nOCiT9F6NHNvmxCSzlAgMBAAGjgbswgbgwCQYD
VR0TBAIwADAdBgNVHQ4EFgQU0OiUKcvRXdCCjp/AWYzUTfziyX4wUAYDVR0jBEkw
R4AUuwqJ0QBfpKAnzGS8lRYBhl2QCK2hGaQXMBUxEzARBgNVBAMMCnRlYW01MC1u
ZXSCFEBs1b6pjcuzA/nKqTLVYsi9fL5OMBMGA1UdJQQMMAoGCCsGAQUFBwMBMAsG
A1UdDwQEAwIFoDAYBgNVHREEETAPgg10ZWFtNTAtc2VydmVyMA0GCSqGSIb3DQEB
CwUAA4IBAQC9yuRsVnn1u64VORuWasM4Z+ntJwWorrUE7/b2weNG6wSeFgzRySoG
gifHWXOGasXlo21Kj67TpzEc2YzchIMIDR0ldfMx+Cp4D+cxYHkVq8rmM7wIEUBr
Yg4ldnHZEO05PS0gd52C0pRGHY8HKoYtl2NxiCAddi8ACLVpReyq1eeshStMeiOy
k689QY6YHlhRAts5DhxtsQXO8fWaFKH2sNqyanWKf6kYxG0fkonR2heAi7uo6jm1
ld7D4hsbn2Y47TyNrcy9rcKvV2cI0p+beqvBUMLdzbL7MsxfpyIW2Mx22BIEo2hP
yKVdTkIOJxBojbFYkkfau9iogxEfzU/p
-----END CERTIFICATE-----
