Certificate:
    Data:
        Version: 3 (0x2)
        Serial Number:
            f5:88:b3:33:c0:1b:bf:c4:66:76:0b:d0:13:1e:2d:3a
        Signature Algorithm: sha256WithRSAEncryption
        Issuer: CN=team615-net
        Validity
            Not Before: May 18 23:00:06 2022 GMT
            Not After : May  2 23:00:06 2025 GMT
        Subject: CN=team615-server
        Subject Public Key Info:
            Public Key Algorithm: rsaEncryption
                RSA Public-Key: (2048 bit)
                Modulus:
                    00:d2:5e:9d:ae:2b:6c:ad:11:d7:d9:6d:0f:62:07:
                    32:53:3f:56:9f:ca:44:fe:ee:a4:02:47:b2:d7:21:
                    ce:3b:ab:62:a1:c4:94:2c:78:dc:3f:45:01:99:67:
                    70:e1:88:9b:03:40:c1:e0:68:3b:e4:90:d7:ca:42:
                    54:7b:68:07:4d:77:f2:a6:c3:c3:b9:4c:12:71:74:
                    39:23:06:6f:bd:43:b3:07:8d:67:51:55:7c:92:9a:
                    5e:a3:11:75:22:46:b1:79:da:77:c1:b2:98:16:ad:
                    50:ef:7f:2c:ca:b5:3d:89:4f:5b:9a:27:c7:e3:b3:
                    7e:d8:eb:ca:60:a5:8e:fe:b9:00:9d:9f:2b:64:a2:
                    5a:7c:53:df:c0:48:b8:f5:3e:e6:54:24:d7:7b:c2:
                    94:de:0e:8a:b9:a9:f8:67:d1:51:00:cd:0b:37:07:
                    a9:23:06:72:6a:c4:13:97:be:ad:74:ac:54:26:5d:
                    2a:7c:ba:75:dd:74:c3:fd:19:29:c3:8b:fa:8e:20:
                    1e:6b:86:74:ab:09:d6:9c:3d:a8:8d:0a:5a:9e:ac:
                    47:d3:fe:fd:b4:34:4d:3f:56:e4:38:be:91:7c:b7:
                    8b:36:5a:9c:93:a7:a6:11:67:62:d9:da:cd:d7:7f:
                    b2:a9:94:1a:c6:cb:66:f0:40:17:70:02:75:0e:e4:
                    cc:a1
                Exponent: 65537 (0x10001)
        X509v3 extensions:
            X509v3 Basic Constraints: 
                CA:FALSE
            X509v3 Subject Key Identifier: 
                94:B4:77:5F:9A:1A:6D:47:2C:69:AB:72:06:07:91:21:D6:F1:6D:71
            X509v3 Authority Key Identifier: 
                keyid:11:A4:06:C2:FD:12:B1:6A:2B:C7:30:85:45:F3:8C:1B:97:DB:CB:86
                DirName:/CN=team615-net
                serial:1F:18:30:9D:DA:C4:84:F0:E3:0C:CB:01:EF:7D:64:EF:5E:D7:58:EB

            X509v3 Extended Key Usage: 
                TLS Web Server Authentication
            X509v3 Key Usage: 
                Digital Signature, Key Encipherment
            X509v3 Subject Alternative Name: 
                DNS:team615-server
    Signature Algorithm: sha256WithRSAEncryption
         37:8f:76:f7:cb:91:bf:bc:d7:67:87:47:8b:9a:10:e9:8f:24:
         bb:be:fa:a2:bb:ac:68:24:13:1e:3a:ae:99:f0:0c:66:ee:d6:
         5e:6c:0b:b2:0d:65:07:49:d9:b9:f6:ad:d1:ca:7b:a0:67:90:
         be:5f:a7:8b:4f:19:8a:f7:7a:f3:34:3c:cb:fb:ef:9f:6a:94:
         4a:ce:6e:2c:39:9e:e2:98:1d:fe:e8:df:ca:17:1c:8f:43:8a:
         a4:7b:a7:d9:fc:af:a3:b2:2f:24:26:ba:a9:fa:0b:75:b9:25:
         c5:21:9b:1e:85:53:1b:c2:7b:d0:f9:5f:dd:e6:62:d3:ea:67:
         bf:e8:11:43:3d:43:91:fb:c0:22:ce:c2:47:d6:f4:bd:c9:d4:
         dc:35:3e:bc:c6:cf:d8:ba:55:5f:0e:f7:50:80:5a:20:cd:3f:
         d8:f7:7e:9f:b2:9c:a6:ed:4f:8b:3a:e0:56:a2:46:7f:b1:7a:
         7f:e1:5b:be:b4:c1:fc:db:65:ee:15:ad:65:34:67:48:d6:c1:
         94:7a:36:78:48:eb:c5:69:e5:1f:a4:f2:b8:ab:21:32:dc:a0:
         45:0d:6a:f2:7b:b8:93:d2:36:3a:4f:8f:71:d6:bc:58:34:66:
         27:a9:71:28:d1:04:9a:dc:84:c1:a8:6a:8b:d8:19:a3:b8:8e:
         65:4f:74:1b
-----BEGIN CERTIFICATE-----
MIIDeDCCAmCgAwIBAgIRAPWIszPAG7/EZnYL0BMeLTowDQYJKoZIhvcNAQELBQAw
FjEUMBIGA1UEAwwLdGVhbTYxNS1uZXQwHhcNMjIwNTE4MjMwMDA2WhcNMjUwNTAy
MjMwMDA2WjAZMRcwFQYDVQQDDA50ZWFtNjE1LXNlcnZlcjCCASIwDQYJKoZIhvcN
AQEBBQADggEPADCCAQoCggEBANJena4rbK0R19ltD2IHMlM/Vp/KRP7upAJHstch
zjurYqHElCx43D9FAZlncOGImwNAweBoO+SQ18pCVHtoB0138qbDw7lMEnF0OSMG
b71DsweNZ1FVfJKaXqMRdSJGsXnad8GymBatUO9/LMq1PYlPW5onx+OzftjrymCl
jv65AJ2fK2SiWnxT38BIuPU+5lQk13vClN4Oirmp+GfRUQDNCzcHqSMGcmrEE5e+
rXSsVCZdKny6dd10w/0ZKcOL+o4gHmuGdKsJ1pw9qI0KWp6sR9P+/bQ0TT9W5Di+
kXy3izZanJOnphFnYtnazdd/sqmUGsbLZvBAF3ACdQ7kzKECAwEAAaOBvTCBujAJ
BgNVHRMEAjAAMB0GA1UdDgQWBBSUtHdfmhptRyxpq3IGB5Eh1vFtcTBRBgNVHSME
SjBIgBQRpAbC/RKxaivHMIVF84wbl9vLhqEapBgwFjEUMBIGA1UEAwwLdGVhbTYx
NS1uZXSCFB8YMJ3axITw4wzLAe99ZO9e11jrMBMGA1UdJQQMMAoGCCsGAQUFBwMB
MAsGA1UdDwQEAwIFoDAZBgNVHREEEjAQgg50ZWFtNjE1LXNlcnZlcjANBgkqhkiG
9w0BAQsFAAOCAQEAN49298uRv7zXZ4dHi5oQ6Y8ku776orusaCQTHjqumfAMZu7W
XmwLsg1lB0nZufat0cp7oGeQvl+ni08Zivd68zQ8y/vvn2qUSs5uLDme4pgd/ujf
yhccj0OKpHun2fyvo7IvJCa6qfoLdbklxSGbHoVTG8J70Plf3eZi0+pnv+gRQz1D
kfvAIs7CR9b0vcnU3DU+vMbP2LpVXw73UIBaIM0/2Pd+n7Kcpu1PizrgVqJGf7F6
f+FbvrTB/Ntl7hWtZTRnSNbBlHo2eEjrxWnlH6TyuKshMtygRQ1q8nu4k9I2Ok+P
cda8WDRmJ6lxKNEEmtyEwahqi9gZo7iOZU90Gw==
-----END CERTIFICATE-----
