Certificate:
    Data:
        Version: 3 (0x2)
        Serial Number:
            fd:d1:cb:d8:01:c4:a8:bf:67:54:63:be:b9:76:48:cf
        Signature Algorithm: sha256WithRSAEncryption
        Issuer: CN=team430-net
        Validity
            Not Before: May 18 21:07:52 2022 GMT
            Not After : May  2 21:07:52 2025 GMT
        Subject: CN=team430-client
        Subject Public Key Info:
            Public Key Algorithm: rsaEncryption
                RSA Public-Key: (2048 bit)
                Modulus:
                    00:96:6d:37:4c:43:5c:9e:58:c6:74:40:32:60:cc:
                    68:3b:9c:1b:bf:01:9a:e0:47:2b:49:3b:db:66:33:
                    f7:74:c4:b2:71:59:9f:f1:77:7c:fd:ac:04:5e:4d:
                    9a:d2:a2:95:6c:50:f9:d8:4a:2b:d3:c1:19:eb:3d:
                    d2:5a:db:5d:67:db:32:48:0d:2f:3f:95:b3:2e:67:
                    cb:81:74:9e:ab:19:13:44:e1:da:c6:af:3d:d2:3b:
                    df:57:ba:f9:9c:1f:76:f0:f4:bf:e4:7a:44:cb:52:
                    c2:9a:61:5e:a4:5a:84:9e:6e:22:7e:1a:28:ca:b0:
                    a2:89:ee:61:7e:14:32:9f:27:8a:35:6f:11:ae:e5:
                    b9:5f:f4:85:3e:7e:c9:25:9b:06:50:34:de:ae:5c:
                    d8:eb:43:06:e4:ca:f0:ee:a9:92:48:8d:ea:5f:28:
                    1a:25:60:1d:8f:cf:5a:8b:35:17:d6:38:0a:e6:d5:
                    49:28:49:a5:af:53:f2:a2:d5:0e:29:a5:fe:7d:fc:
                    0c:e8:59:1a:95:16:44:4f:38:83:e3:9c:4d:07:9c:
                    05:0b:fd:84:48:88:1d:a8:0c:e7:8b:07:36:d1:68:
                    d6:9e:e0:f0:a2:ff:3d:c0:33:05:3d:b9:a5:19:e7:
                    69:25:9f:80:6a:c1:fa:7c:d8:e0:0a:8e:7f:ed:dd:
                    8f:e1
                Exponent: 65537 (0x10001)
        X509v3 extensions:
            X509v3 Basic Constraints: 
                CA:FALSE
            X509v3 Subject Key Identifier: 
                19:AD:D3:BB:BA:C2:5B:F3:FE:64:10:1A:C6:45:24:00:1D:AA:7F:B4
            X509v3 Authority Key Identifier: 
                keyid:80:98:80:87:B9:18:C8:E4:C0:21:AB:37:34:AB:E0:5F:8D:2C:F8:AA
                DirName:/CN=team430-net
                serial:6E:57:AA:E5:4B:50:AA:C1:A5:57:42:DE:85:5B:5F:84:97:EB:3E:A7

            X509v3 Extended Key Usage: 
                TLS Web Client Authentication
            X509v3 Key Usage: 
                Digital Signature
    Signature Algorithm: sha256WithRSAEncryption
         48:8d:31:b2:01:b4:ce:b2:95:ec:5c:e1:a2:9d:75:5f:ec:6f:
         a6:02:13:a0:eb:d7:54:26:37:ab:c3:21:9a:e7:9f:47:db:17:
         a4:a1:c0:77:80:4b:31:4b:1f:8c:83:44:0c:83:99:39:e8:b6:
         3d:fa:d8:01:e7:e2:a1:44:2b:1b:a3:18:59:e1:5f:b0:3a:1b:
         f7:cf:dc:e8:e0:e4:90:a9:84:eb:bd:21:97:e1:e9:e9:b8:79:
         5e:81:c4:78:57:11:82:e5:b1:9a:9c:0d:02:79:a9:f9:4f:cf:
         b3:71:a9:5a:2c:4f:03:f3:15:df:73:7b:3e:52:b3:1b:3f:b3:
         ca:3b:f4:2a:dd:cf:8b:f5:9a:54:ad:29:2c:49:f8:b2:1a:fb:
         56:46:7e:86:5f:d3:5e:4c:ef:89:71:26:9c:eb:8b:08:98:10:
         03:ff:a6:84:40:cf:d5:aa:bf:bf:9e:eb:ac:9a:28:f4:77:d9:
         3d:d2:48:ec:0c:cb:b1:4a:cf:c5:f8:bc:e1:cb:c4:42:8a:6e:
         0f:ea:34:e1:d6:cc:86:e7:85:ab:7d:16:34:d7:d3:3b:93:26:
         0a:d4:24:ad:21:d1:f4:65:d0:1b:4c:ff:88:3f:58:94:64:1b:
         15:d1:47:d3:f6:b2:11:11:1f:c9:91:d8:49:41:3c:0b:6f:e4:
         76:da:32:fc
-----BEGIN CERTIFICATE-----
MIIDXTCCAkWgAwIBAgIRAP3Ry9gBxKi/Z1Rjvrl2SM8wDQYJKoZIhvcNAQELBQAw
FjEUMBIGA1UEAwwLdGVhbTQzMC1uZXQwHhcNMjIwNTE4MjEwNzUyWhcNMjUwNTAy
MjEwNzUyWjAZMRcwFQYDVQQDDA50ZWFtNDMwLWNsaWVudDCCASIwDQYJKoZIhvcN
AQEBBQADggEPADCCAQoCggEBAJZtN0xDXJ5YxnRAMmDMaDucG78BmuBHK0k722Yz
93TEsnFZn/F3fP2sBF5NmtKilWxQ+dhKK9PBGes90lrbXWfbMkgNLz+Vsy5ny4F0
nqsZE0Th2savPdI731e6+ZwfdvD0v+R6RMtSwpphXqRahJ5uIn4aKMqwoonuYX4U
Mp8nijVvEa7luV/0hT5+ySWbBlA03q5c2OtDBuTK8O6pkkiN6l8oGiVgHY/PWos1
F9Y4CubVSShJpa9T8qLVDiml/n38DOhZGpUWRE84g+OcTQecBQv9hEiIHagM54sH
NtFo1p7g8KL/PcAzBT25pRnnaSWfgGrB+nzY4AqOf+3dj+ECAwEAAaOBojCBnzAJ
BgNVHRMEAjAAMB0GA1UdDgQWBBQZrdO7usJb8/5kEBrGRSQAHap/tDBRBgNVHSME
SjBIgBSAmICHuRjI5MAhqzc0q+BfjSz4qqEapBgwFjEUMBIGA1UEAwwLdGVhbTQz
MC1uZXSCFG5XquVLUKrBpVdC3oVbX4SX6z6nMBMGA1UdJQQMMAoGCCsGAQUFBwMC
MAsGA1UdDwQEAwIHgDANBgkqhkiG9w0BAQsFAAOCAQEASI0xsgG0zrKV7Fzhop11
X+xvpgIToOvXVCY3q8MhmuefR9sXpKHAd4BLMUsfjINEDIOZOei2PfrYAefioUQr
G6MYWeFfsDob98/c6ODkkKmE670hl+Hp6bh5XoHEeFcRguWxmpwNAnmp+U/Ps3Gp
WixPA/MV33N7PlKzGz+zyjv0Kt3Pi/WaVK0pLEn4shr7VkZ+hl/TXkzviXEmnOuL
CJgQA/+mhEDP1aq/v57rrJoo9HfZPdJI7AzLsUrPxfi84cvEQopuD+o04dbMhueF
q30WNNfTO5MmCtQkrSHR9GXQG0z/iD9YlGQbFdFH0/ayEREfyZHYSUE8C2/kdtoy
/A==
-----END CERTIFICATE-----
