Certificate:
    Data:
        Version: 3 (0x2)
        Serial Number:
            ce:35:00:ac:25:89:ce:4c:c7:36:83:98:a7:a2:9a:32
        Signature Algorithm: sha256WithRSAEncryption
        Issuer: CN=team425-net
        Validity
            Not Before: May 18 21:05:26 2022 GMT
            Not After : May  2 21:05:26 2025 GMT
        Subject: CN=team425-client
        Subject Public Key Info:
            Public Key Algorithm: rsaEncryption
                RSA Public-Key: (2048 bit)
                Modulus:
                    00:e2:50:1d:fc:cd:ee:2d:64:db:9a:18:ae:80:58:
                    62:f2:7d:a5:b6:be:69:97:bc:a2:cb:52:95:f1:74:
                    67:7b:8f:74:3a:50:9a:31:b6:52:fe:78:5f:d1:fa:
                    e8:63:28:07:8a:93:e7:ee:ef:f1:23:0c:6c:42:0e:
                    12:5c:d3:4f:7c:7d:08:bf:41:e9:24:83:f9:08:4f:
                    9a:0f:14:84:6d:8c:84:ff:9a:6d:7a:16:f4:e1:0a:
                    6d:f0:32:3d:c7:19:4b:34:bd:59:ca:76:01:91:93:
                    66:80:eb:63:cc:88:14:81:da:51:fe:d8:48:ec:17:
                    d9:3f:8d:72:ca:80:01:50:e8:68:74:3d:9a:a5:32:
                    df:12:70:87:16:2c:e7:27:ed:98:2b:20:ca:82:31:
                    ed:5a:50:40:9d:63:81:cd:e8:4e:e8:bd:9c:52:9f:
                    2f:25:6b:81:e7:cb:0b:08:bc:0f:f9:c6:19:c1:87:
                    e4:b3:a2:f0:a3:22:61:33:c0:08:cd:47:6a:4d:48:
                    4a:0f:ea:6a:a7:a3:54:2f:6f:d6:fa:33:38:b1:65:
                    f4:1e:8c:0e:81:d7:57:20:32:53:79:ec:8e:ce:cc:
                    47:b6:63:f0:70:bc:17:db:7b:94:ae:5e:c3:94:2a:
                    20:c4:dd:6d:a7:44:94:f9:13:66:63:58:d1:22:eb:
                    6b:e9
                Exponent: 65537 (0x10001)
        X509v3 extensions:
            X509v3 Basic Constraints: 
                CA:FALSE
            X509v3 Subject Key Identifier: 
                12:B7:19:8E:34:59:03:5F:26:3A:8D:CB:81:A5:9C:7D:36:4D:B0:C6
            X509v3 Authority Key Identifier: 
                keyid:26:FF:93:39:5C:A7:9E:14:12:4C:13:8E:FD:26:BD:47:CB:FA:21:E2
                DirName:/CN=team425-net
                serial:6A:66:8C:A4:73:84:6A:4E:20:1C:A0:ED:1A:D2:B5:68:80:C9:87:41

            X509v3 Extended Key Usage: 
                TLS Web Client Authentication
            X509v3 Key Usage: 
                Digital Signature
    Signature Algorithm: sha256WithRSAEncryption
         7a:39:2d:cc:e6:38:1f:9f:81:77:10:93:e2:83:61:99:6c:b9:
         39:7c:1d:8f:78:eb:b8:ab:99:b1:59:17:98:d6:6f:39:de:10:
         15:19:e3:54:29:18:b1:7a:ab:06:25:7a:10:2e:77:36:64:6e:
         07:36:57:fe:ee:e0:48:aa:10:6c:e3:d1:78:a9:00:79:65:87:
         69:15:20:0b:cc:d0:07:83:3e:fc:a4:dd:77:48:00:62:95:4f:
         f2:95:79:92:da:9d:d5:66:71:57:9b:14:14:02:44:80:99:c6:
         14:1a:96:e6:ea:1a:4e:af:16:f3:25:6c:80:6b:a5:e6:02:64:
         6c:7b:77:1c:07:e7:76:11:64:53:10:31:ab:44:31:82:07:bb:
         d7:dc:06:76:b6:c8:38:c0:bc:33:a1:35:17:39:1d:fc:ff:44:
         fc:5f:01:ac:e8:bd:57:e6:5e:98:18:cc:70:d0:5e:48:5f:de:
         ed:f2:a4:a1:85:c2:58:dc:6a:6b:43:97:33:04:b8:75:6a:64:
         82:31:76:c5:5e:6d:24:f1:ef:e3:81:73:9b:21:44:19:42:7b:
         f2:77:b0:72:91:ed:54:7f:bb:6c:01:14:75:25:e8:90:0a:6b:
         cf:c2:f1:7d:22:af:38:37:b7:02:25:9d:f4:f8:7a:89:05:f3:
         1a:1b:9f:09
-----BEGIN CERTIFICATE-----
MIIDXTCCAkWgAwIBAgIRAM41AKwlic5MxzaDmKeimjIwDQYJKoZIhvcNAQELBQAw
FjEUMBIGA1UEAwwLdGVhbTQyNS1uZXQwHhcNMjIwNTE4MjEwNTI2WhcNMjUwNTAy
MjEwNTI2WjAZMRcwFQYDVQQDDA50ZWFtNDI1LWNsaWVudDCCASIwDQYJKoZIhvcN
AQEBBQADggEPADCCAQoCggEBAOJQHfzN7i1k25oYroBYYvJ9pba+aZe8ostSlfF0
Z3uPdDpQmjG2Uv54X9H66GMoB4qT5+7v8SMMbEIOElzTT3x9CL9B6SSD+QhPmg8U
hG2MhP+abXoW9OEKbfAyPccZSzS9Wcp2AZGTZoDrY8yIFIHaUf7YSOwX2T+NcsqA
AVDoaHQ9mqUy3xJwhxYs5yftmCsgyoIx7VpQQJ1jgc3oTui9nFKfLyVrgefLCwi8
D/nGGcGH5LOi8KMiYTPACM1Hak1ISg/qaqejVC9v1vozOLFl9B6MDoHXVyAyU3ns
js7MR7Zj8HC8F9t7lK5ew5QqIMTdbadElPkTZmNY0SLra+kCAwEAAaOBojCBnzAJ
BgNVHRMEAjAAMB0GA1UdDgQWBBQStxmONFkDXyY6jcuBpZx9Nk2wxjBRBgNVHSME
SjBIgBQm/5M5XKeeFBJME479Jr1Hy/oh4qEapBgwFjEUMBIGA1UEAwwLdGVhbTQy
NS1uZXSCFGpmjKRzhGpOIByg7RrStWiAyYdBMBMGA1UdJQQMMAoGCCsGAQUFBwMC
MAsGA1UdDwQEAwIHgDANBgkqhkiG9w0BAQsFAAOCAQEAejktzOY4H5+BdxCT4oNh
mWy5OXwdj3jruKuZsVkXmNZvOd4QFRnjVCkYsXqrBiV6EC53NmRuBzZX/u7gSKoQ
bOPReKkAeWWHaRUgC8zQB4M+/KTdd0gAYpVP8pV5ktqd1WZxV5sUFAJEgJnGFBqW
5uoaTq8W8yVsgGul5gJkbHt3HAfndhFkUxAxq0Qxgge719wGdrbIOMC8M6E1Fzkd
/P9E/F8BrOi9V+ZemBjMcNBeSF/e7fKkoYXCWNxqa0OXMwS4dWpkgjF2xV5tJPHv
44FzmyFEGUJ78newcpHtVH+7bAEUdSXokAprz8LxfSKvODe3AiWd9Ph6iQXzGhuf
CQ==
-----END CERTIFICATE-----
