Certificate:
    Data:
        Version: 3 (0x2)
        Serial Number:
            cf:94:c1:24:66:ce:02:bb:71:89:ef:02:40:54:43:a9
        Signature Algorithm: sha256WithRSAEncryption
        Issuer: CN=team194-net
        Validity
            Not Before: May 18 19:05:13 2022 GMT
            Not After : May  2 19:05:13 2025 GMT
        Subject: CN=team194-client
        Subject Public Key Info:
            Public Key Algorithm: rsaEncryption
                RSA Public-Key: (2048 bit)
                Modulus:
                    00:dd:00:a7:eb:c2:cb:c9:10:3d:a9:2a:2b:ff:eb:
                    07:ae:85:68:b2:2c:10:db:47:17:49:95:d5:a8:d7:
                    8d:3e:7d:da:90:12:d9:e1:d4:af:45:44:73:db:eb:
                    01:63:12:22:f4:c9:e5:fc:99:18:80:82:f4:a8:4d:
                    56:99:2d:de:20:2b:91:2c:5a:e2:a2:c3:cb:26:cd:
                    4b:75:48:cd:e6:1c:bc:67:74:ce:a5:33:d5:1e:30:
                    d3:83:60:0e:f7:fa:f2:c7:59:b6:f2:4b:f6:93:8f:
                    eb:94:ab:11:77:67:7d:ea:d7:0b:23:b5:79:dc:45:
                    06:96:6f:99:4e:9d:59:0d:93:09:7f:6d:fc:3a:1c:
                    5b:6b:7a:c0:a6:14:74:cc:b8:fc:9c:9d:5d:9c:89:
                    8e:01:55:bd:e1:8c:ae:3a:03:09:f5:a8:c0:85:d2:
                    4e:ac:2d:0d:36:65:a2:71:a5:bd:82:f5:89:30:ef:
                    98:f2:06:f5:b2:11:61:b5:c8:a3:3b:1f:66:27:29:
                    90:d3:8c:9d:ed:56:f5:8d:9e:23:f9:de:05:4b:2e:
                    94:44:0b:38:30:b0:13:30:d5:bb:1a:c2:d8:32:37:
                    1a:ee:12:de:07:a6:6e:2e:ad:d6:d5:08:69:fb:e2:
                    77:29:64:38:1e:fc:81:d9:3b:f5:81:6e:ad:5f:ec:
                    50:9d
                Exponent: 65537 (0x10001)
        X509v3 extensions:
            X509v3 Basic Constraints: 
                CA:FALSE
            X509v3 Subject Key Identifier: 
                7D:33:4D:F4:D4:6C:25:E7:AD:8A:94:97:51:8D:3E:5D:44:8A:61:B5
            X509v3 Authority Key Identifier: 
                keyid:61:AF:05:F6:A5:6D:B4:57:10:B3:79:2D:53:B3:EF:85:A7:47:89:AC
                DirName:/CN=team194-net
                serial:05:83:B0:0A:DB:A2:0F:A8:5D:70:10:18:FA:5A:6E:1E:A6:D2:9F:EE

            X509v3 Extended Key Usage: 
                TLS Web Client Authentication
            X509v3 Key Usage: 
                Digital Signature
    Signature Algorithm: sha256WithRSAEncryption
         97:05:74:8b:71:01:3e:af:25:ff:1c:ca:7a:e2:f7:67:76:aa:
         84:ec:c1:a4:0f:31:7c:c4:23:dc:00:02:88:aa:be:5d:d0:4c:
         fa:b4:8b:ac:d4:63:b7:cf:d8:70:cf:ee:23:dd:f1:d1:f7:c4:
         5b:d0:c8:c5:5d:8c:bf:67:1e:a4:c7:82:62:f8:4e:4f:0b:c9:
         e6:2b:3f:fb:7d:fe:d1:96:63:d3:f4:68:e3:38:8b:4b:6e:22:
         1f:e1:64:dd:85:1b:a7:58:74:59:71:06:eb:67:8e:2d:9d:c6:
         9a:84:c2:b0:88:11:84:d6:ca:5b:8d:a0:ec:8e:9d:85:19:6e:
         07:53:24:e2:25:77:f4:a1:27:6f:58:51:5d:3e:26:d7:9d:a7:
         88:7a:77:36:36:76:ea:12:9c:c9:92:46:2d:9c:c8:57:13:a2:
         78:30:25:58:17:32:62:ba:ca:3a:27:79:d9:20:f2:27:64:7d:
         50:55:25:22:93:fe:79:81:0f:8b:4d:b3:2f:bb:a7:73:ba:48:
         ef:1f:0a:a3:26:31:12:6e:e4:96:63:f3:de:60:c3:e8:15:3e:
         82:51:81:0a:55:71:98:f3:b0:78:c5:56:0e:5d:d7:07:9e:3b:
         dd:ab:6a:b6:5c:65:47:35:8a:89:0e:ec:4c:86:2e:dd:12:5b:
         92:61:62:05
-----BEGIN CERTIFICATE-----
MIIDXTCCAkWgAwIBAgIRAM+UwSRmzgK7cYnvAkBUQ6kwDQYJKoZIhvcNAQELBQAw
FjEUMBIGA1UEAwwLdGVhbTE5NC1uZXQwHhcNMjIwNTE4MTkwNTEzWhcNMjUwNTAy
MTkwNTEzWjAZMRcwFQYDVQQDDA50ZWFtMTk0LWNsaWVudDCCASIwDQYJKoZIhvcN
AQEBBQADggEPADCCAQoCggEBAN0Ap+vCy8kQPakqK//rB66FaLIsENtHF0mV1ajX
jT592pAS2eHUr0VEc9vrAWMSIvTJ5fyZGICC9KhNVpkt3iArkSxa4qLDyybNS3VI
zeYcvGd0zqUz1R4w04NgDvf68sdZtvJL9pOP65SrEXdnferXCyO1edxFBpZvmU6d
WQ2TCX9t/DocW2t6wKYUdMy4/JydXZyJjgFVveGMrjoDCfWowIXSTqwtDTZlonGl
vYL1iTDvmPIG9bIRYbXIozsfZicpkNOMne1W9Y2eI/neBUsulEQLODCwEzDVuxrC
2DI3Gu4S3gembi6t1tUIafvidylkOB78gdk79YFurV/sUJ0CAwEAAaOBojCBnzAJ
BgNVHRMEAjAAMB0GA1UdDgQWBBR9M0301Gwl562KlJdRjT5dRIphtTBRBgNVHSME
SjBIgBRhrwX2pW20VxCzeS1Ts++Fp0eJrKEapBgwFjEUMBIGA1UEAwwLdGVhbTE5
NC1uZXSCFAWDsArbog+oXXAQGPpabh6m0p/uMBMGA1UdJQQMMAoGCCsGAQUFBwMC
MAsGA1UdDwQEAwIHgDANBgkqhkiG9w0BAQsFAAOCAQEAlwV0i3EBPq8l/xzKeuL3
Z3aqhOzBpA8xfMQj3AACiKq+XdBM+rSLrNRjt8/YcM/uI93x0ffEW9DIxV2Mv2ce
pMeCYvhOTwvJ5is/+33+0ZZj0/Ro4ziLS24iH+Fk3YUbp1h0WXEG62eOLZ3GmoTC
sIgRhNbKW42g7I6dhRluB1Mk4iV39KEnb1hRXT4m152niHp3NjZ26hKcyZJGLZzI
VxOieDAlWBcyYrrKOid52SDyJ2R9UFUlIpP+eYEPi02zL7unc7pI7x8KoyYxEm7k
lmPz3mDD6BU+glGBClVxmPOweMVWDl3XB5473atqtlxlRzWKiQ7sTIYu3RJbkmFi
BQ==
-----END CERTIFICATE-----
