Certificate:
    Data:
        Version: 3 (0x2)
        Serial Number:
            ef:08:da:f0:ba:85:ad:6c:65:36:f4:eb:cb:0b:11:e9
        Signature Algorithm: sha256WithRSAEncryption
        Issuer: CN=team74-net
        Validity
            Not Before: May 18 14:31:21 2022 GMT
            Not After : May  2 14:31:21 2025 GMT
        Subject: CN=team74-server
        Subject Public Key Info:
            Public Key Algorithm: rsaEncryption
                RSA Public-Key: (2048 bit)
                Modulus:
                    00:c9:8e:38:29:ce:49:d4:10:7e:54:c1:36:69:a8:
                    3d:b4:9f:40:a6:66:aa:2f:26:48:fa:e1:a2:c8:1a:
                    e5:f1:67:93:51:31:a0:ef:53:e3:bd:fe:e8:15:59:
                    78:e1:59:3e:2d:9f:59:03:0a:fd:14:31:11:08:72:
                    9d:46:3a:b5:26:a6:20:6a:c7:b6:f0:09:f3:90:11:
                    28:86:90:2a:6b:2a:29:33:fd:8f:f3:7a:53:2e:fb:
                    54:b9:69:cd:38:37:d8:6a:98:bf:09:ca:f4:7b:63:
                    d9:98:c9:a1:e3:62:8e:c5:d1:9e:20:e4:03:9f:ab:
                    b9:0f:30:3f:07:b9:18:95:12:cf:95:49:0b:6d:28:
                    f7:15:92:15:5f:08:8c:20:e9:2a:51:3a:58:ad:61:
                    38:20:ae:83:5c:79:af:95:26:24:47:5e:07:d8:6f:
                    e4:9d:d3:d8:19:78:df:56:81:f4:e7:a3:a2:38:e7:
                    57:38:d7:b2:16:4e:fa:fe:be:81:aa:19:50:0b:ff:
                    f4:5a:98:ca:38:7f:00:9e:a7:a0:90:e0:a4:66:36:
                    00:43:70:21:57:ad:0f:17:76:b5:36:55:37:74:6b:
                    83:cf:c8:47:e3:36:64:05:26:6c:50:2b:4d:29:6e:
                    15:73:a8:38:86:ac:65:0a:78:ec:81:bd:4e:82:7d:
                    dc:97
                Exponent: 65537 (0x10001)
        X509v3 extensions:
            X509v3 Basic Constraints: 
                CA:FALSE
            X509v3 Subject Key Identifier: 
                51:0F:89:57:6B:47:28:89:A2:43:82:71:FB:D7:10:5B:98:FC:DC:20
            X509v3 Authority Key Identifier: 
                keyid:20:47:94:B4:2E:DA:EE:82:84:EE:84:6B:20:5E:64:FD:E7:46:7D:10
                DirName:/CN=team74-net
                serial:7B:9D:98:A6:88:B0:AB:04:5E:7E:60:6A:89:DC:30:66:AB:E2:05:1C

            X509v3 Extended Key Usage: 
                TLS Web Server Authentication
            X509v3 Key Usage: 
                Digital Signature, Key Encipherment
            X509v3 Subject Alternative Name: 
                DNS:team74-server
    Signature Algorithm: sha256WithRSAEncryption
         36:79:a5:a0:60:20:76:ae:61:9a:f1:3f:f7:ef:55:9b:d1:ac:
         37:5c:c8:82:2c:ad:1e:e2:70:7d:05:8e:5d:b0:b8:62:2c:32:
         c0:c8:73:73:3c:c8:2b:8f:e9:4f:0b:5e:35:c2:91:b6:39:cc:
         91:a8:7b:54:cd:e4:c0:ab:ab:88:4d:b5:6f:70:3f:90:a8:52:
         71:42:29:9b:ce:95:84:e2:d6:92:29:5c:07:77:13:44:8c:4a:
         69:5a:67:59:a4:98:81:68:60:72:4e:93:c6:51:a3:6a:0c:53:
         0b:9c:39:20:91:4e:e2:71:95:5f:2b:9a:7e:3c:62:31:c9:5d:
         9f:36:cc:7a:36:44:57:c1:2c:4b:a4:b3:e8:6f:65:b0:fc:d1:
         c7:60:73:4b:b0:38:fa:aa:85:94:c6:25:39:32:5b:90:3e:b7:
         0d:8b:a9:34:8c:d6:3e:6a:1f:f7:49:3b:12:81:d9:3e:02:d4:
         08:57:c4:43:d5:e4:5f:6b:30:bb:c8:5e:2c:6a:12:b3:e1:3f:
         0a:ec:e1:e8:eb:0a:3a:91:7d:c9:38:8e:8d:14:d6:d3:09:3a:
         88:c5:3d:78:07:b7:38:f5:70:ff:76:f1:10:a7:7d:ad:b3:c3:
         7d:43:f8:aa:16:19:41:5b:ae:11:f8:96:00:c2:e0:f9:8b:d8:
         ac:1d:6a:f5
-----BEGIN CERTIFICATE-----
MIIDdDCCAlygAwIBAgIRAO8I2vC6ha1sZTb068sLEekwDQYJKoZIhvcNAQELBQAw
FTETMBEGA1UEAwwKdGVhbTc0LW5ldDAeFw0yMjA1MTgxNDMxMjFaFw0yNTA1MDIx
NDMxMjFaMBgxFjAUBgNVBAMMDXRlYW03NC1zZXJ2ZXIwggEiMA0GCSqGSIb3DQEB
AQUAA4IBDwAwggEKAoIBAQDJjjgpzknUEH5UwTZpqD20n0CmZqovJkj64aLIGuXx
Z5NRMaDvU+O9/ugVWXjhWT4tn1kDCv0UMREIcp1GOrUmpiBqx7bwCfOQESiGkCpr
Kikz/Y/zelMu+1S5ac04N9hqmL8JyvR7Y9mYyaHjYo7F0Z4g5AOfq7kPMD8HuRiV
Es+VSQttKPcVkhVfCIwg6SpROlitYTggroNcea+VJiRHXgfYb+Sd09gZeN9WgfTn
o6I451c417IWTvr+voGqGVAL//RamMo4fwCep6CQ4KRmNgBDcCFXrQ8XdrU2VTd0
a4PPyEfjNmQFJmxQK00pbhVzqDiGrGUKeOyBvU6CfdyXAgMBAAGjgbswgbgwCQYD
VR0TBAIwADAdBgNVHQ4EFgQUUQ+JV2tHKImiQ4Jx+9cQW5j83CAwUAYDVR0jBEkw
R4AUIEeUtC7a7oKE7oRrIF5k/edGfRChGaQXMBUxEzARBgNVBAMMCnRlYW03NC1u
ZXSCFHudmKaIsKsEXn5gaoncMGar4gUcMBMGA1UdJQQMMAoGCCsGAQUFBwMBMAsG
A1UdDwQEAwIFoDAYBgNVHREEETAPgg10ZWFtNzQtc2VydmVyMA0GCSqGSIb3DQEB
CwUAA4IBAQA2eaWgYCB2rmGa8T/371Wb0aw3XMiCLK0e4nB9BY5dsLhiLDLAyHNz
PMgrj+lPC141wpG2OcyRqHtUzeTAq6uITbVvcD+QqFJxQimbzpWE4taSKVwHdxNE
jEppWmdZpJiBaGByTpPGUaNqDFMLnDkgkU7icZVfK5p+PGIxyV2fNsx6NkRXwSxL
pLPob2Ww/NHHYHNLsDj6qoWUxiU5MluQPrcNi6k0jNY+ah/3STsSgdk+AtQIV8RD
1eRfazC7yF4sahKz4T8K7OHo6wo6kX3JOI6NFNbTCTqIxT14B7c49XD/dvEQp32t
s8N9Q/iqFhlBW64R+JYAwuD5i9isHWr1
-----END CERTIFICATE-----
