Certificate:
    Data:
        Version: 3 (0x2)
        Serial Number:
            ab:ba:92:df:fc:fa:ad:a0:23:69:9a:b7:47:c1:c4:d2
        Signature Algorithm: sha256WithRSAEncryption
        Issuer: CN=team582-net
        Validity
            Not Before: May 18 22:32:59 2022 GMT
            Not After : May  2 22:32:59 2025 GMT
        Subject: CN=team582-server
        Subject Public Key Info:
            Public Key Algorithm: rsaEncryption
                RSA Public-Key: (2048 bit)
                Modulus:
                    00:b8:aa:df:47:c1:b1:7e:23:0a:0c:3f:37:c9:e6:
                    21:d8:4a:a8:88:c2:7f:3d:7d:bc:7e:37:10:d4:4f:
                    38:0e:9d:72:08:af:f0:65:2f:b1:17:2d:9e:37:a2:
                    b6:f5:7d:f7:78:4d:4b:d7:8f:f2:36:12:d7:1e:a4:
                    d6:5a:40:3b:19:a0:d8:6e:16:55:65:eb:cc:27:95:
                    ae:c9:05:65:93:58:a9:03:45:84:ea:63:ca:13:3f:
                    3b:32:9a:60:ae:84:d6:2c:90:bd:aa:fd:d4:36:70:
                    a8:14:5c:1c:fb:f1:8e:f3:52:9e:e8:be:46:ad:10:
                    5b:22:f7:ee:f4:63:b5:c4:65:a9:98:d7:e5:4e:92:
                    8e:2c:1f:15:a3:c6:07:50:8b:1c:b6:5c:b4:7d:0c:
                    2b:76:94:60:3b:58:52:37:92:76:2a:ac:cd:72:cb:
                    b3:7a:6a:c1:0a:2e:09:aa:98:42:67:3b:31:4d:94:
                    d6:3b:e2:26:73:ac:b0:9f:c5:66:25:40:43:c4:7d:
                    97:dc:88:e6:b0:fc:3f:85:57:31:ca:ec:be:fc:30:
                    c6:f4:d5:ed:a7:55:3c:4c:7c:a0:22:27:b6:01:5b:
                    c0:28:8c:69:7b:19:5e:a9:60:0a:26:15:78:4e:68:
                    1a:73:22:b3:03:54:27:ca:43:9e:fe:0e:32:08:7f:
                    78:0b
                Exponent: 65537 (0x10001)
        X509v3 extensions:
            X509v3 Basic Constraints: 
                CA:FALSE
            X509v3 Subject Key Identifier: 
                5B:CB:F1:F1:65:6B:9C:87:E4:94:6B:95:71:D6:93:E4:9D:CD:1E:D1
            X509v3 Authority Key Identifier: 
                keyid:DC:D4:CA:7C:B5:77:C8:23:09:91:CC:73:50:8D:FF:0C:68:1F:FA:C7
                DirName:/CN=team582-net
                serial:7F:98:AD:C8:0C:6E:98:78:12:6A:84:96:68:F5:48:BA:88:11:F1:34

            X509v3 Extended Key Usage: 
                TLS Web Server Authentication
            X509v3 Key Usage: 
                Digital Signature, Key Encipherment
            X509v3 Subject Alternative Name: 
                DNS:team582-server
    Signature Algorithm: sha256WithRSAEncryption
         94:d5:b3:bf:b0:46:b6:96:b8:60:8b:d1:6d:0e:fd:af:ca:7a:
         35:7d:05:39:f3:0b:61:88:fa:e8:d7:72:c3:fa:6c:70:aa:80:
         21:d9:f4:80:a0:3f:a7:f7:ca:65:9a:3c:72:4e:3f:e6:82:58:
         01:96:bc:94:43:0c:76:26:99:d4:b1:7e:d6:b9:f7:95:14:7e:
         a2:fa:32:ed:66:5c:c3:73:aa:6c:1d:c7:07:2a:b5:25:c2:14:
         7c:a8:ed:22:48:83:00:4b:cf:d6:26:b2:e5:06:f5:63:bb:ee:
         45:24:6b:5b:dd:fa:71:3e:4a:22:22:03:bf:57:09:0e:c1:60:
         a0:b1:5b:96:9a:97:e2:7f:5f:ed:a3:5c:a8:c3:a2:dd:c5:62:
         2b:60:c6:0f:3b:8d:6a:9a:20:22:54:bc:7f:22:2d:9d:c0:af:
         e2:84:42:83:ad:7c:94:ef:4d:a3:aa:1f:f3:cc:e2:03:67:12:
         7c:b0:27:1a:da:04:b4:09:bf:ac:b4:a9:d8:98:2f:65:90:eb:
         d8:18:13:be:05:5a:c0:4f:28:a3:27:e4:d7:ab:e2:60:19:09:
         8e:ef:54:38:e5:fd:4c:37:9d:5c:db:54:fa:38:d2:b5:69:ad:
         68:28:2c:12:18:4e:ac:86:ca:0b:d6:37:a9:ab:f4:11:c2:9c:
         b9:f9:55:6f
-----BEGIN CERTIFICATE-----
MIIDeDCCAmCgAwIBAgIRAKu6kt/8+q2gI2mat0fBxNIwDQYJKoZIhvcNAQELBQAw
FjEUMBIGA1UEAwwLdGVhbTU4Mi1uZXQwHhcNMjIwNTE4MjIzMjU5WhcNMjUwNTAy
MjIzMjU5WjAZMRcwFQYDVQQDDA50ZWFtNTgyLXNlcnZlcjCCASIwDQYJKoZIhvcN
AQEBBQADggEPADCCAQoCggEBALiq30fBsX4jCgw/N8nmIdhKqIjCfz19vH43ENRP
OA6dcgiv8GUvsRctnjeitvV993hNS9eP8jYS1x6k1lpAOxmg2G4WVWXrzCeVrskF
ZZNYqQNFhOpjyhM/OzKaYK6E1iyQvar91DZwqBRcHPvxjvNSnui+Rq0QWyL37vRj
tcRlqZjX5U6SjiwfFaPGB1CLHLZctH0MK3aUYDtYUjeSdiqszXLLs3pqwQouCaqY
Qmc7MU2U1jviJnOssJ/FZiVAQ8R9l9yI5rD8P4VXMcrsvvwwxvTV7adVPEx8oCIn
tgFbwCiMaXsZXqlgCiYVeE5oGnMiswNUJ8pDnv4OMgh/eAsCAwEAAaOBvTCBujAJ
BgNVHRMEAjAAMB0GA1UdDgQWBBRby/HxZWuch+SUa5Vx1pPknc0e0TBRBgNVHSME
SjBIgBTc1Mp8tXfIIwmRzHNQjf8MaB/6x6EapBgwFjEUMBIGA1UEAwwLdGVhbTU4
Mi1uZXSCFH+YrcgMbph4EmqElmj1SLqIEfE0MBMGA1UdJQQMMAoGCCsGAQUFBwMB
MAsGA1UdDwQEAwIFoDAZBgNVHREEEjAQgg50ZWFtNTgyLXNlcnZlcjANBgkqhkiG
9w0BAQsFAAOCAQEAlNWzv7BGtpa4YIvRbQ79r8p6NX0FOfMLYYj66Ndyw/pscKqA
Idn0gKA/p/fKZZo8ck4/5oJYAZa8lEMMdiaZ1LF+1rn3lRR+ovoy7WZcw3OqbB3H
Byq1JcIUfKjtIkiDAEvP1iay5Qb1Y7vuRSRrW936cT5KIiIDv1cJDsFgoLFblpqX
4n9f7aNcqMOi3cViK2DGDzuNapogIlS8fyItncCv4oRCg618lO9No6of88ziA2cS
fLAnGtoEtAm/rLSp2JgvZZDr2BgTvgVawE8ooyfk16viYBkJju9UOOX9TDedXNtU
+jjStWmtaCgsEhhOrIbKC9Y3qav0EcKcuflVbw==
-----END CERTIFICATE-----
