Certificate:
    Data:
        Version: 3 (0x2)
        Serial Number:
            ad:6d:cb:41:b0:6b:5f:a6:26:2b:6a:22:3a:2e:32:4f
        Signature Algorithm: sha256WithRSAEncryption
        Issuer: CN=team231-net
        Validity
            Not Before: May 18 19:28:35 2022 GMT
            Not After : May  2 19:28:35 2025 GMT
        Subject: CN=team231-client
        Subject Public Key Info:
            Public Key Algorithm: rsaEncryption
                RSA Public-Key: (2048 bit)
                Modulus:
                    00:ac:8f:b1:a2:a0:01:d6:30:a3:bd:87:57:15:0e:
                    da:fd:fd:ac:9a:c8:6d:3b:70:3a:2a:8e:91:d9:90:
                    a9:bb:4e:33:cc:65:87:95:a4:8a:c1:61:f9:15:d9:
                    39:8b:b7:cf:94:b0:36:eb:59:26:5e:5a:7d:ef:37:
                    d0:90:db:3b:34:a1:56:b0:b6:88:de:17:bb:71:14:
                    31:ad:c4:c7:66:2d:3b:89:c0:2b:eb:f5:ef:9c:81:
                    5f:a4:6d:45:07:17:3b:c7:07:83:ce:bd:3c:d1:22:
                    fb:ea:b9:4c:64:3a:20:66:65:7b:7c:c2:a7:c6:55:
                    4b:ec:ee:96:e2:aa:cd:d4:61:1b:87:be:51:2f:ef:
                    ef:8b:0e:7a:bc:6e:eb:f9:35:75:8f:a5:f6:7d:3d:
                    cd:c6:fd:07:66:bd:5d:3d:6f:12:9f:78:ea:1f:a2:
                    38:09:a1:c2:c1:0f:3d:b3:2d:4d:2a:5d:fe:60:1d:
                    de:96:51:9a:9b:31:76:9c:d1:f0:b5:1a:1b:0a:a6:
                    9c:4a:00:d7:fb:2a:0c:78:09:a9:22:36:b0:6b:25:
                    3b:56:e7:7e:99:08:36:0b:7e:eb:17:93:c8:29:5a:
                    98:ea:79:8e:49:fa:b1:91:aa:5b:cf:2c:34:9e:e1:
                    d3:76:26:60:9c:a2:ab:a9:94:e1:0d:55:da:0a:35:
                    d3:a1
                Exponent: 65537 (0x10001)
        X509v3 extensions:
            X509v3 Basic Constraints: 
                CA:FALSE
            X509v3 Subject Key Identifier: 
                55:2A:B9:76:BC:C0:BB:F7:AD:51:43:5A:E3:68:06:C9:4D:FB:3E:2D
            X509v3 Authority Key Identifier: 
                keyid:2F:E8:31:A3:87:B1:C8:F1:40:42:25:53:19:3D:CB:82:CD:33:38:EF
                DirName:/CN=team231-net
                serial:04:E5:E2:8A:F7:99:C2:21:53:41:65:68:0B:55:00:C6:02:C8:AC:B5

            X509v3 Extended Key Usage: 
                TLS Web Client Authentication
            X509v3 Key Usage: 
                Digital Signature
    Signature Algorithm: sha256WithRSAEncryption
         ee:b6:68:42:24:d0:82:f5:d8:97:33:04:cc:48:00:e8:39:69:
         e6:89:11:f5:73:69:70:03:63:82:65:d0:e0:c0:98:3f:dc:a2:
         04:6c:55:77:39:6c:7b:73:8b:c5:3a:56:6d:1f:e1:ad:dc:8c:
         63:01:92:c5:df:fa:41:31:80:32:46:7b:23:86:ff:b1:26:cc:
         5f:6a:bf:07:ba:c5:e6:1d:29:5d:60:25:cc:25:ce:8a:dc:1b:
         6f:63:2f:bf:e5:03:f4:9c:4a:62:1c:b8:df:bf:f5:4e:97:d9:
         16:af:1e:7f:4a:7a:c5:b5:75:a8:f9:f1:82:3d:dd:3d:56:6f:
         1a:ff:60:cf:16:47:33:b9:fb:27:07:7e:1d:69:af:7a:b2:d4:
         77:d8:2b:e5:2f:32:95:ea:b6:5c:92:74:9a:47:03:2b:e8:13:
         2c:cd:aa:52:e0:73:ba:3a:f4:91:73:80:4f:a0:1e:c7:38:3d:
         74:11:ae:a2:68:78:53:15:4d:77:42:68:54:c6:73:f8:2b:56:
         08:82:4c:2c:44:eb:6b:6f:9f:6e:68:02:46:7f:fa:0a:6b:4f:
         7c:ff:eb:b4:fb:93:7e:44:be:ce:61:05:1f:3b:ef:f2:d1:b6:
         9c:8f:92:f7:c8:1f:5e:4c:09:80:a8:b3:f4:3d:a7:28:f8:7e:
         36:e8:bd:20
-----BEGIN CERTIFICATE-----
MIIDXTCCAkWgAwIBAgIRAK1ty0Gwa1+mJitqIjouMk8wDQYJKoZIhvcNAQELBQAw
FjEUMBIGA1UEAwwLdGVhbTIzMS1uZXQwHhcNMjIwNTE4MTkyODM1WhcNMjUwNTAy
MTkyODM1WjAZMRcwFQYDVQQDDA50ZWFtMjMxLWNsaWVudDCCASIwDQYJKoZIhvcN
AQEBBQADggEPADCCAQoCggEBAKyPsaKgAdYwo72HVxUO2v39rJrIbTtwOiqOkdmQ
qbtOM8xlh5WkisFh+RXZOYu3z5SwNutZJl5afe830JDbOzShVrC2iN4Xu3EUMa3E
x2YtO4nAK+v175yBX6RtRQcXO8cHg869PNEi++q5TGQ6IGZle3zCp8ZVS+zuluKq
zdRhG4e+US/v74sOerxu6/k1dY+l9n09zcb9B2a9XT1vEp946h+iOAmhwsEPPbMt
TSpd/mAd3pZRmpsxdpzR8LUaGwqmnEoA1/sqDHgJqSI2sGslO1bnfpkINgt+6xeT
yClamOp5jkn6sZGqW88sNJ7h03YmYJyiq6mU4Q1V2go106ECAwEAAaOBojCBnzAJ
BgNVHRMEAjAAMB0GA1UdDgQWBBRVKrl2vMC7961RQ1rjaAbJTfs+LTBRBgNVHSME
SjBIgBQv6DGjh7HI8UBCJVMZPcuCzTM476EapBgwFjEUMBIGA1UEAwwLdGVhbTIz
MS1uZXSCFATl4or3mcIhU0FlaAtVAMYCyKy1MBMGA1UdJQQMMAoGCCsGAQUFBwMC
MAsGA1UdDwQEAwIHgDANBgkqhkiG9w0BAQsFAAOCAQEA7rZoQiTQgvXYlzMEzEgA
6Dlp5okR9XNpcANjgmXQ4MCYP9yiBGxVdzlse3OLxTpWbR/hrdyMYwGSxd/6QTGA
MkZ7I4b/sSbMX2q/B7rF5h0pXWAlzCXOitwbb2Mvv+UD9JxKYhy437/1TpfZFq8e
f0p6xbV1qPnxgj3dPVZvGv9gzxZHM7n7Jwd+HWmverLUd9gr5S8yleq2XJJ0mkcD
K+gTLM2qUuBzujr0kXOAT6Aexzg9dBGuomh4UxVNd0JoVMZz+CtWCIJMLETra2+f
bmgCRn/6CmtPfP/rtPuTfkS+zmEFHzvv8tG2nI+S98gfXkwJgKiz9D2nKPh+Nui9
IA==
-----END CERTIFICATE-----
