Certificate:
    Data:
        Version: 3 (0x2)
        Serial Number:
            b5:de:da:76:d3:2a:e3:02:85:f4:ac:14:82:1c:8a:77
        Signature Algorithm: sha256WithRSAEncryption
        Issuer: CN=team151-net
        Validity
            Not Before: May 18 18:37:13 2022 GMT
            Not After : May  2 18:37:13 2025 GMT
        Subject: CN=team151-client
        Subject Public Key Info:
            Public Key Algorithm: rsaEncryption
                RSA Public-Key: (2048 bit)
                Modulus:
                    00:dc:80:18:54:c6:13:35:9f:41:e0:9d:93:0d:dd:
                    8e:5b:5c:2b:64:7d:72:95:81:a9:dd:31:20:cc:81:
                    8c:55:72:88:31:b0:4d:93:90:59:d5:f1:88:8d:2e:
                    14:d2:02:39:0d:91:f9:9a:e3:60:6b:e2:27:12:d4:
                    99:f7:ab:9f:2e:39:99:2d:83:80:4c:76:41:fe:de:
                    59:e0:f2:0f:8a:84:b6:57:50:7f:9a:1f:f2:c1:16:
                    da:53:7d:f9:8a:a5:01:b4:bd:84:fe:17:43:32:6f:
                    1f:81:84:90:9b:9e:7f:db:19:68:5e:e0:6c:c3:d1:
                    23:4f:1a:61:20:c1:af:e5:6a:ad:25:f1:a3:f6:10:
                    4b:6b:3a:0b:c0:9e:40:cb:38:90:58:21:df:9d:93:
                    d5:67:08:28:a9:95:16:98:07:1c:59:b9:9c:08:ab:
                    1a:ab:83:52:48:e5:95:54:0d:6e:c2:d9:37:1b:d7:
                    45:a3:b8:56:5e:2e:f3:37:f6:6b:d9:cc:c3:e0:c7:
                    13:6d:10:15:8c:c9:a2:c9:19:51:09:e1:61:2c:b3:
                    71:44:cf:16:aa:71:47:5a:59:a2:e1:6f:f1:c1:f5:
                    ac:a7:33:ce:05:3d:cc:c4:be:96:21:91:3e:19:9c:
                    7f:13:76:72:d6:f0:39:8e:21:a0:c7:6d:97:ea:eb:
                    0b:73
                Exponent: 65537 (0x10001)
        X509v3 extensions:
            X509v3 Basic Constraints: 
                CA:FALSE
            X509v3 Subject Key Identifier: 
                CB:8C:B5:39:70:6D:2B:7A:E4:0F:55:6C:A5:63:08:65:06:13:C6:82
            X509v3 Authority Key Identifier: 
                keyid:82:9C:76:BD:98:87:0D:D8:EF:B7:9C:1C:89:F6:6E:1B:9B:33:B7:5F
                DirName:/CN=team151-net
                serial:7C:9C:AC:92:13:0B:41:F4:6A:69:CD:92:14:A1:33:46:86:E6:A5:CC

            X509v3 Extended Key Usage: 
                TLS Web Client Authentication
            X509v3 Key Usage: 
                Digital Signature
    Signature Algorithm: sha256WithRSAEncryption
         93:88:e1:c4:ca:d3:8e:d4:e1:51:42:e3:b2:d1:a7:cd:61:c4:
         e1:b6:2a:1a:df:05:82:06:f1:56:16:20:e0:c1:df:d2:b9:03:
         50:f5:9f:c1:27:f8:8b:a4:ad:fe:a3:20:4f:40:4c:78:c7:c8:
         8a:ee:e5:21:37:ea:ea:45:3b:9d:9b:44:ea:13:96:89:7b:04:
         62:b3:35:f3:e5:c5:72:9a:c2:b7:5c:29:e3:1d:de:47:19:9b:
         37:0f:55:67:14:99:1b:d1:77:a8:8f:57:24:1f:f0:bb:1c:b3:
         21:37:e6:b0:01:6e:a7:60:c4:21:56:f9:73:1d:22:de:ff:1a:
         94:11:0b:e0:1b:a7:cf:b8:29:eb:4e:85:bc:f7:82:d3:36:e1:
         ae:be:92:f8:fe:12:1d:d5:09:d3:dd:94:5c:ae:26:3c:3b:ae:
         49:07:b8:89:6a:b5:34:a3:74:26:01:cf:e5:0d:ed:75:7b:2f:
         b1:32:7b:84:2f:6e:a1:36:29:01:23:fe:d1:eb:2c:69:92:f4:
         c8:6c:cf:a9:b1:b6:10:5a:8b:5b:93:ed:ef:bb:a5:fe:d9:0a:
         21:fc:37:1d:6e:f4:38:21:5d:13:1d:33:aa:40:e0:62:90:f3:
         c7:31:e2:db:26:91:0c:d4:1b:29:28:e1:f4:6f:38:ae:c2:1e:
         b4:74:9e:cb
-----BEGIN CERTIFICATE-----
MIIDXTCCAkWgAwIBAgIRALXe2nbTKuMChfSsFIIcincwDQYJKoZIhvcNAQELBQAw
FjEUMBIGA1UEAwwLdGVhbTE1MS1uZXQwHhcNMjIwNTE4MTgzNzEzWhcNMjUwNTAy
MTgzNzEzWjAZMRcwFQYDVQQDDA50ZWFtMTUxLWNsaWVudDCCASIwDQYJKoZIhvcN
AQEBBQADggEPADCCAQoCggEBANyAGFTGEzWfQeCdkw3djltcK2R9cpWBqd0xIMyB
jFVyiDGwTZOQWdXxiI0uFNICOQ2R+ZrjYGviJxLUmferny45mS2DgEx2Qf7eWeDy
D4qEtldQf5of8sEW2lN9+YqlAbS9hP4XQzJvH4GEkJuef9sZaF7gbMPRI08aYSDB
r+VqrSXxo/YQS2s6C8CeQMs4kFgh352T1WcIKKmVFpgHHFm5nAirGquDUkjllVQN
bsLZNxvXRaO4Vl4u8zf2a9nMw+DHE20QFYzJoskZUQnhYSyzcUTPFqpxR1pZouFv
8cH1rKczzgU9zMS+liGRPhmcfxN2ctbwOY4hoMdtl+rrC3MCAwEAAaOBojCBnzAJ
BgNVHRMEAjAAMB0GA1UdDgQWBBTLjLU5cG0reuQPVWylYwhlBhPGgjBRBgNVHSME
SjBIgBSCnHa9mIcN2O+3nByJ9m4bmzO3X6EapBgwFjEUMBIGA1UEAwwLdGVhbTE1
MS1uZXSCFHycrJITC0H0amnNkhShM0aG5qXMMBMGA1UdJQQMMAoGCCsGAQUFBwMC
MAsGA1UdDwQEAwIHgDANBgkqhkiG9w0BAQsFAAOCAQEAk4jhxMrTjtThUULjstGn
zWHE4bYqGt8FggbxVhYg4MHf0rkDUPWfwSf4i6St/qMgT0BMeMfIiu7lITfq6kU7
nZtE6hOWiXsEYrM18+XFcprCt1wp4x3eRxmbNw9VZxSZG9F3qI9XJB/wuxyzITfm
sAFup2DEIVb5cx0i3v8alBEL4Bunz7gp606FvPeC0zbhrr6S+P4SHdUJ092UXK4m
PDuuSQe4iWq1NKN0JgHP5Q3tdXsvsTJ7hC9uoTYpASP+0essaZL0yGzPqbG2EFqL
W5Pt77ul/tkKIfw3HW70OCFdEx0zqkDgYpDzxzHi2yaRDNQbKSjh9G84rsIetHSe
yw==
-----END CERTIFICATE-----
