Certificate:
    Data:
        Version: 3 (0x2)
        Serial Number:
            36:d8:c5:3b:b2:ea:4b:92:bc:42:a5:35:2a:53:a5:cf
        Signature Algorithm: sha256WithRSAEncryption
        Issuer: CN=team721-net
        Validity
            Not Before: May 18 23:57:16 2022 GMT
            Not After : May  2 23:57:16 2025 GMT
        Subject: CN=team721-server
        Subject Public Key Info:
            Public Key Algorithm: rsaEncryption
                RSA Public-Key: (2048 bit)
                Modulus:
                    00:b2:59:d5:87:d0:49:a9:6c:1a:6a:a2:9d:d1:02:
                    53:cd:75:d1:10:32:9d:cf:34:9c:5d:29:6c:25:38:
                    dc:2e:3d:01:aa:b9:c7:e4:1a:c6:2c:93:a6:6b:49:
                    52:4b:3e:61:7d:ba:10:b1:68:e8:1a:c0:f6:8f:99:
                    c6:fd:6f:83:81:77:3b:53:12:2e:e5:3a:4e:a8:d9:
                    a3:be:6d:bd:4d:24:54:f7:9c:9e:5d:04:5f:b7:bb:
                    f6:6b:2c:ba:5d:08:0a:47:49:82:d3:4a:fb:f4:84:
                    48:86:80:f2:50:01:ec:d7:f2:f7:62:d4:cc:3e:4e:
                    30:49:11:28:25:f7:2f:0d:53:34:9c:91:a8:d6:6f:
                    e2:76:11:b4:9c:74:25:ad:87:a0:0e:25:c8:1d:05:
                    9a:46:86:d8:9d:82:1c:81:7a:aa:ef:b3:0c:a3:c3:
                    e1:46:e1:19:b8:f3:6f:47:f1:99:12:4b:59:7c:64:
                    46:bb:a1:81:5a:41:26:ee:1d:ae:56:78:39:71:2f:
                    b9:07:02:1c:03:18:85:b3:28:01:d4:70:52:b8:bb:
                    53:11:b7:b3:7a:c7:f2:0b:8b:89:9d:cb:3a:88:47:
                    9e:96:e3:53:ec:72:f0:da:0c:47:08:b2:fe:5f:93:
                    82:49:0f:5b:cf:f6:41:9b:42:e1:61:d4:dc:91:ca:
                    85:b3
                Exponent: 65537 (0x10001)
        X509v3 extensions:
            X509v3 Basic Constraints: 
                CA:FALSE
            X509v3 Subject Key Identifier: 
                99:A2:1B:98:41:34:9D:D7:3C:BD:CC:11:44:33:87:15:B4:62:52:93
            X509v3 Authority Key Identifier: 
                keyid:79:4F:AD:78:45:9C:44:91:BE:05:35:2A:DB:96:9E:2D:BA:50:3E:06
                DirName:/CN=team721-net
                serial:52:B1:7F:F3:28:D7:C2:75:0A:66:4F:DE:8D:61:97:A3:A2:5B:A5:EC

            X509v3 Extended Key Usage: 
                TLS Web Server Authentication
            X509v3 Key Usage: 
                Digital Signature, Key Encipherment
            X509v3 Subject Alternative Name: 
                DNS:team721-server
    Signature Algorithm: sha256WithRSAEncryption
         a2:be:29:b6:e5:37:d4:05:0d:61:38:06:db:1d:42:a9:ce:20:
         c4:61:32:6f:11:4e:b0:1b:fa:ae:d7:f5:6b:e9:be:20:e2:69:
         88:95:0d:b4:ec:41:d1:57:f9:11:73:22:8c:d5:5a:5d:96:52:
         f6:a1:c1:58:48:ad:7e:95:db:6b:0e:f4:24:20:57:23:d0:1d:
         8e:c3:2c:c4:be:6b:d2:6b:77:40:50:5c:7c:8b:3c:9a:c9:ea:
         e5:ba:70:1d:33:39:fb:8e:ea:ea:a6:c1:2a:d2:a0:2d:e4:85:
         f5:6f:01:9c:8b:bc:6f:ef:ef:e7:fb:20:fe:a5:e6:19:72:6c:
         13:be:73:ed:98:35:10:06:4b:95:e0:3f:40:48:a9:d0:bb:fb:
         51:43:74:c5:60:db:38:fa:76:d4:22:63:1c:bc:79:85:aa:a1:
         80:2e:e9:79:77:04:1c:66:4e:2b:8b:9b:91:9d:46:fe:41:55:
         fc:68:20:6e:2a:dd:f3:a1:7e:71:08:27:ba:74:d8:57:92:8a:
         82:e1:80:12:df:6a:5d:18:ec:41:5a:df:f3:4b:69:5e:f4:d6:
         93:b6:b8:c9:1c:30:ed:8f:be:37:a4:b4:db:1b:0b:fc:c6:9f:
         d3:c4:7e:55:d2:64:4a:ca:63:f5:d0:9b:a8:85:91:45:57:50:
         4c:c7:8b:e6
-----BEGIN CERTIFICATE-----
MIIDdzCCAl+gAwIBAgIQNtjFO7LqS5K8QqU1KlOlzzANBgkqhkiG9w0BAQsFADAW
MRQwEgYDVQQDDAt0ZWFtNzIxLW5ldDAeFw0yMjA1MTgyMzU3MTZaFw0yNTA1MDIy
MzU3MTZaMBkxFzAVBgNVBAMMDnRlYW03MjEtc2VydmVyMIIBIjANBgkqhkiG9w0B
AQEFAAOCAQ8AMIIBCgKCAQEAslnVh9BJqWwaaqKd0QJTzXXREDKdzzScXSlsJTjc
Lj0BqrnH5BrGLJOma0lSSz5hfboQsWjoGsD2j5nG/W+DgXc7UxIu5TpOqNmjvm29
TSRU95yeXQRft7v2ayy6XQgKR0mC00r79IRIhoDyUAHs1/L3YtTMPk4wSREoJfcv
DVM0nJGo1m/idhG0nHQlrYegDiXIHQWaRobYnYIcgXqq77MMo8PhRuEZuPNvR/GZ
EktZfGRGu6GBWkEm7h2uVng5cS+5BwIcAxiFsygB1HBSuLtTEbezesfyC4uJncs6
iEeeluNT7HLw2gxHCLL+X5OCSQ9bz/ZBm0LhYdTckcqFswIDAQABo4G9MIG6MAkG
A1UdEwQCMAAwHQYDVR0OBBYEFJmiG5hBNJ3XPL3MEUQzhxW0YlKTMFEGA1UdIwRK
MEiAFHlPrXhFnESRvgU1KtuWni26UD4GoRqkGDAWMRQwEgYDVQQDDAt0ZWFtNzIx
LW5ldIIUUrF/8yjXwnUKZk/ejWGXo6JbpewwEwYDVR0lBAwwCgYIKwYBBQUHAwEw
CwYDVR0PBAQDAgWgMBkGA1UdEQQSMBCCDnRlYW03MjEtc2VydmVyMA0GCSqGSIb3
DQEBCwUAA4IBAQCivim25TfUBQ1hOAbbHUKpziDEYTJvEU6wG/qu1/Vr6b4g4mmI
lQ207EHRV/kRcyKM1VpdllL2ocFYSK1+ldtrDvQkIFcj0B2OwyzEvmvSa3dAUFx8
izyayerlunAdMzn7jurqpsEq0qAt5IX1bwGci7xv7+/n+yD+peYZcmwTvnPtmDUQ
BkuV4D9ASKnQu/tRQ3TFYNs4+nbUImMcvHmFqqGALul5dwQcZk4ri5uRnUb+QVX8
aCBuKt3zoX5xCCe6dNhXkoqC4YAS32pdGOxBWt/zS2le9NaTtrjJHDDtj743pLTb
Gwv8xp/TxH5V0mRKymP10JuohZFFV1BMx4vm
-----END CERTIFICATE-----
