Certificate:
    Data:
        Version: 3 (0x2)
        Serial Number:
            fb:f4:2c:ac:0c:69:78:91:ab:e3:c5:53:e7:01:f3:15
        Signature Algorithm: sha256WithRSAEncryption
        Issuer: CN=team721-net
        Validity
            Not Before: May 18 23:57:16 2022 GMT
            Not After : May  2 23:57:16 2025 GMT
        Subject: CN=team721-client
        Subject Public Key Info:
            Public Key Algorithm: rsaEncryption
                RSA Public-Key: (2048 bit)
                Modulus:
                    00:db:f3:b0:d7:4c:ec:1f:8f:7f:d8:b2:9a:15:c9:
                    43:fc:42:56:eb:d0:7c:e4:9e:0a:92:37:95:17:e6:
                    65:64:f0:7d:ef:c6:c6:5c:a0:f9:1a:48:e1:f8:ae:
                    99:90:bc:6a:a7:2b:ed:27:32:fd:ed:8c:5c:35:d3:
                    14:28:d1:4a:b3:d0:5e:d0:1f:c0:70:e6:b1:7a:ae:
                    95:8d:43:57:0d:e1:c3:fb:f3:47:dd:1d:36:db:13:
                    f9:7d:05:11:6e:f0:49:ac:01:10:bf:c4:2d:44:51:
                    c6:a1:9a:ce:81:3a:87:ca:98:cb:9b:97:0e:7a:2d:
                    61:8c:55:87:ac:1b:71:bd:f3:d0:fd:c5:4b:53:aa:
                    eb:aa:a3:e4:3b:5a:e2:15:d7:e3:f8:cd:7a:57:e0:
                    52:6c:42:41:07:c1:53:ef:9f:e2:e4:c2:d1:36:08:
                    8b:57:0e:bb:c0:4c:b7:c2:74:95:9a:c3:0c:1e:e8:
                    c5:f7:4a:49:2c:c4:ef:81:5b:38:0b:1d:ff:20:9e:
                    30:65:00:27:e5:0a:eb:87:bd:22:fc:94:87:2e:de:
                    e2:8a:3f:4a:34:15:39:63:2d:66:66:88:e0:30:0f:
                    11:a3:1b:3c:4f:34:85:27:88:e5:aa:c4:95:9d:c1:
                    91:ee:99:c5:6b:70:88:1d:fe:40:22:82:69:f8:22:
                    cb:af
                Exponent: 65537 (0x10001)
        X509v3 extensions:
            X509v3 Basic Constraints: 
                CA:FALSE
            X509v3 Subject Key Identifier: 
                5C:74:2B:27:92:01:F6:8A:95:87:11:9A:C8:89:EE:F2:16:AE:41:CC
            X509v3 Authority Key Identifier: 
                keyid:79:4F:AD:78:45:9C:44:91:BE:05:35:2A:DB:96:9E:2D:BA:50:3E:06
                DirName:/CN=team721-net
                serial:52:B1:7F:F3:28:D7:C2:75:0A:66:4F:DE:8D:61:97:A3:A2:5B:A5:EC

            X509v3 Extended Key Usage: 
                TLS Web Client Authentication
            X509v3 Key Usage: 
                Digital Signature
    Signature Algorithm: sha256WithRSAEncryption
         99:85:a9:d5:34:c9:46:8b:2a:91:5b:77:ee:a1:ae:67:f4:1c:
         ab:00:68:0b:93:00:85:b4:00:e8:93:4f:c3:2d:5a:da:d0:35:
         64:44:24:ce:ac:f7:a3:38:12:af:ae:5e:1d:6e:82:ac:a3:1a:
         ae:5b:b4:ff:69:b6:63:35:2f:58:67:1c:53:2b:bb:cb:8b:bd:
         b9:42:23:8f:07:09:b9:15:06:52:77:d4:c0:03:bf:a5:78:f0:
         3f:9e:91:c7:65:e5:2c:0d:8b:02:6f:8b:69:0a:62:62:84:03:
         09:68:96:6e:73:64:b5:3b:ec:dd:18:f0:3c:dc:8c:12:b4:fe:
         e7:71:a3:2e:27:51:7c:70:f4:1f:51:23:45:2f:12:bc:7a:24:
         15:82:44:e6:3e:3a:66:6f:83:3c:81:8a:14:1e:98:e9:28:29:
         1f:08:44:16:32:93:88:fc:08:5f:92:34:b9:52:e9:31:e4:72:
         5b:e4:12:0f:90:17:52:52:b9:b8:c2:a1:8f:ab:c7:f7:69:4a:
         12:7b:ac:eb:9c:3b:4c:4c:89:55:41:7c:6b:99:40:ca:54:c2:
         be:ad:7b:ba:7e:59:34:27:10:d4:5e:75:cd:e2:2f:d7:ad:f0:
         24:ea:78:2b:a9:fc:d5:70:cc:65:aa:43:32:9e:44:8d:b9:3a:
         cc:41:6f:02
-----BEGIN CERTIFICATE-----
MIIDXTCCAkWgAwIBAgIRAPv0LKwMaXiRq+PFU+cB8xUwDQYJKoZIhvcNAQELBQAw
FjEUMBIGA1UEAwwLdGVhbTcyMS1uZXQwHhcNMjIwNTE4MjM1NzE2WhcNMjUwNTAy
MjM1NzE2WjAZMRcwFQYDVQQDDA50ZWFtNzIxLWNsaWVudDCCASIwDQYJKoZIhvcN
AQEBBQADggEPADCCAQoCggEBANvzsNdM7B+Pf9iymhXJQ/xCVuvQfOSeCpI3lRfm
ZWTwfe/Gxlyg+RpI4fiumZC8aqcr7Scy/e2MXDXTFCjRSrPQXtAfwHDmsXqulY1D
Vw3hw/vzR90dNtsT+X0FEW7wSawBEL/ELURRxqGazoE6h8qYy5uXDnotYYxVh6wb
cb3z0P3FS1Oq66qj5Dta4hXX4/jNelfgUmxCQQfBU++f4uTC0TYIi1cOu8BMt8J0
lZrDDB7oxfdKSSzE74FbOAsd/yCeMGUAJ+UK64e9IvyUhy7e4oo/SjQVOWMtZmaI
4DAPEaMbPE80hSeI5arElZ3Bke6ZxWtwiB3+QCKCafgiy68CAwEAAaOBojCBnzAJ
BgNVHRMEAjAAMB0GA1UdDgQWBBRcdCsnkgH2ipWHEZrIie7yFq5BzDBRBgNVHSME
SjBIgBR5T614RZxEkb4FNSrblp4tulA+BqEapBgwFjEUMBIGA1UEAwwLdGVhbTcy
MS1uZXSCFFKxf/Mo18J1CmZP3o1hl6OiW6XsMBMGA1UdJQQMMAoGCCsGAQUFBwMC
MAsGA1UdDwQEAwIHgDANBgkqhkiG9w0BAQsFAAOCAQEAmYWp1TTJRosqkVt37qGu
Z/QcqwBoC5MAhbQA6JNPwy1a2tA1ZEQkzqz3ozgSr65eHW6CrKMarlu0/2m2YzUv
WGccUyu7y4u9uUIjjwcJuRUGUnfUwAO/pXjwP56Rx2XlLA2LAm+LaQpiYoQDCWiW
bnNktTvs3RjwPNyMErT+53GjLidRfHD0H1EjRS8SvHokFYJE5j46Zm+DPIGKFB6Y
6SgpHwhEFjKTiPwIX5I0uVLpMeRyW+QSD5AXUlK5uMKhj6vH92lKEnus65w7TEyJ
VUF8a5lAylTCvq17un5ZNCcQ1F51zeIv163wJOp4K6n81XDMZapDMp5Ejbk6zEFv
Ag==
-----END CERTIFICATE-----
