Certificate:
    Data:
        Version: 3 (0x2)
        Serial Number:
            28:b7:38:ca:ac:ee:01:8e:17:69:48:47:f9:11:ed:00
        Signature Algorithm: sha256WithRSAEncryption
        Issuer: CN=team507-net
        Validity
            Not Before: May 18 21:49:59 2022 GMT
            Not After : May  2 21:49:59 2025 GMT
        Subject: CN=team507-client
        Subject Public Key Info:
            Public Key Algorithm: rsaEncryption
                RSA Public-Key: (2048 bit)
                Modulus:
                    00:bd:25:9a:10:fe:37:d3:b2:45:b8:b8:11:34:95:
                    73:c0:9a:e0:b4:9b:cc:95:16:5e:bc:7d:7f:c4:4d:
                    90:f8:92:e0:89:db:a5:43:bd:58:9d:9e:e4:47:ec:
                    30:c6:85:b9:6a:71:2f:3b:06:50:4e:43:27:c5:f2:
                    ef:8c:94:0e:6a:e5:8b:e8:88:75:83:e4:04:b5:c7:
                    cc:8e:56:03:27:6e:3f:67:2e:da:b2:15:bc:b3:a0:
                    b9:0e:3f:e7:db:b9:a3:e5:5f:02:99:68:04:74:74:
                    e1:6c:b9:a7:7c:d4:d3:19:38:d8:41:69:9b:d8:88:
                    26:4b:7b:3c:ae:00:20:17:b6:21:ff:98:5f:71:fc:
                    ab:07:80:87:7f:c1:a0:d8:40:02:12:53:57:9e:ab:
                    d3:72:68:66:14:b4:59:13:be:99:bb:b7:99:75:b8:
                    8e:d2:ed:a9:31:b0:3c:0a:b8:13:61:f1:05:05:b4:
                    3f:70:53:54:2f:fd:2c:fa:0d:44:eb:5f:f0:ef:1f:
                    00:0a:5d:2e:4e:af:e6:ef:ff:63:2c:95:ac:58:67:
                    94:0f:a7:54:7f:be:83:0c:9e:99:80:e1:ba:af:05:
                    08:6b:3a:1b:94:3e:60:83:f8:38:5d:7c:75:6a:de:
                    12:36:db:67:f5:30:40:cd:d0:d8:e4:e7:7a:28:7b:
                    e5:ad
                Exponent: 65537 (0x10001)
        X509v3 extensions:
            X509v3 Basic Constraints: 
                CA:FALSE
            X509v3 Subject Key Identifier: 
                A4:AE:65:28:36:AF:6A:A6:4B:19:90:A6:FB:C2:92:A2:80:71:4A:3A
            X509v3 Authority Key Identifier: 
                keyid:19:B9:09:13:A8:66:A1:C2:87:50:CB:D8:EB:5A:A7:C7:20:9C:61:FE
                DirName:/CN=team507-net
                serial:22:9F:4F:05:F1:A8:DA:05:E2:D7:61:FA:2B:8A:71:32:28:20:45:F1

            X509v3 Extended Key Usage: 
                TLS Web Client Authentication
            X509v3 Key Usage: 
                Digital Signature
    Signature Algorithm: sha256WithRSAEncryption
         a4:d7:91:f4:e1:40:9c:d6:19:74:32:a2:4e:98:33:05:f5:af:
         6e:e4:ce:17:c0:b4:aa:ba:93:37:33:82:6c:cf:6e:67:0a:4d:
         1e:f8:42:9a:11:d2:e0:55:d8:1a:8d:99:f4:d5:7f:3c:84:38:
         71:33:52:e8:97:c1:e1:63:90:5c:fb:05:a9:83:70:d4:f3:49:
         a3:f3:a4:9b:36:63:65:cf:62:b6:c9:4b:de:ab:b2:b3:b9:6b:
         fd:20:18:5f:b7:04:b7:7c:0c:14:24:8d:1f:83:ff:48:d8:76:
         5b:cb:68:e0:21:4e:01:5b:e2:ef:10:1a:1f:98:7b:90:7a:4c:
         9a:39:96:08:e2:e7:7c:98:7b:9b:13:93:26:5c:e7:1c:da:e1:
         89:70:48:3b:fc:da:3f:56:70:be:12:21:78:2f:9f:a0:70:f4:
         b3:46:ad:98:2d:8a:65:f8:f4:91:72:4a:68:95:dd:f3:02:ce:
         28:eb:01:2d:82:a7:fc:cb:7f:f1:4e:04:b2:7d:5f:6e:28:57:
         a3:fb:2c:50:23:20:93:6c:5a:e7:a8:a4:9c:64:86:4d:80:d9:
         6a:e5:d4:26:32:27:5e:89:2c:fc:cf:5b:e5:bf:63:0d:21:f4:
         73:ed:08:d1:18:4e:fa:5b:c7:06:87:45:b0:cf:c6:ec:ea:9a:
         bb:06:ec:12
-----BEGIN CERTIFICATE-----
MIIDXDCCAkSgAwIBAgIQKLc4yqzuAY4XaUhH+RHtADANBgkqhkiG9w0BAQsFADAW
MRQwEgYDVQQDDAt0ZWFtNTA3LW5ldDAeFw0yMjA1MTgyMTQ5NTlaFw0yNTA1MDIy
MTQ5NTlaMBkxFzAVBgNVBAMMDnRlYW01MDctY2xpZW50MIIBIjANBgkqhkiG9w0B
AQEFAAOCAQ8AMIIBCgKCAQEAvSWaEP4307JFuLgRNJVzwJrgtJvMlRZevH1/xE2Q
+JLgidulQ71YnZ7kR+wwxoW5anEvOwZQTkMnxfLvjJQOauWL6Ih1g+QEtcfMjlYD
J24/Zy7ashW8s6C5Dj/n27mj5V8CmWgEdHThbLmnfNTTGTjYQWmb2IgmS3s8rgAg
F7Yh/5hfcfyrB4CHf8Gg2EACElNXnqvTcmhmFLRZE76Zu7eZdbiO0u2pMbA8CrgT
YfEFBbQ/cFNUL/0s+g1E61/w7x8ACl0uTq/m7/9jLJWsWGeUD6dUf76DDJ6ZgOG6
rwUIazoblD5gg/g4XXx1at4SNttn9TBAzdDY5Od6KHvlrQIDAQABo4GiMIGfMAkG
A1UdEwQCMAAwHQYDVR0OBBYEFKSuZSg2r2qmSxmQpvvCkqKAcUo6MFEGA1UdIwRK
MEiAFBm5CROoZqHCh1DL2Otap8cgnGH+oRqkGDAWMRQwEgYDVQQDDAt0ZWFtNTA3
LW5ldIIUIp9PBfGo2gXi12H6K4pxMiggRfEwEwYDVR0lBAwwCgYIKwYBBQUHAwIw
CwYDVR0PBAQDAgeAMA0GCSqGSIb3DQEBCwUAA4IBAQCk15H04UCc1hl0MqJOmDMF
9a9u5M4XwLSqupM3M4Jsz25nCk0e+EKaEdLgVdgajZn01X88hDhxM1Lol8HhY5Bc
+wWpg3DU80mj86SbNmNlz2K2yUveq7KzuWv9IBhftwS3fAwUJI0fg/9I2HZby2jg
IU4BW+LvEBofmHuQekyaOZYI4ud8mHubE5MmXOcc2uGJcEg7/No/VnC+EiF4L5+g
cPSzRq2YLYpl+PSRckpold3zAs4o6wEtgqf8y3/xTgSyfV9uKFej+yxQIyCTbFrn
qKScZIZNgNlq5dQmMideiSz8z1vlv2MNIfRz7QjRGE76W8cGh0Wwz8bs6pq7BuwS
-----END CERTIFICATE-----
