Certificate:
    Data:
        Version: 3 (0x2)
        Serial Number:
            40:57:1a:3f:a6:44:e1:a5:5c:80:0d:59:73:21:e5:0b
        Signature Algorithm: sha256WithRSAEncryption
        Issuer: CN=team132-net
        Validity
            Not Before: May 18 15:13:50 2022 GMT
            Not After : May  2 15:13:50 2025 GMT
        Subject: CN=team132-client
        Subject Public Key Info:
            Public Key Algorithm: rsaEncryption
                RSA Public-Key: (2048 bit)
                Modulus:
                    00:c5:1c:8a:6c:75:e2:34:31:e2:76:a7:3f:92:06:
                    20:fa:30:3b:70:2f:cd:e3:05:72:52:b9:e1:c2:b3:
                    10:a2:93:ba:22:10:08:7f:e2:66:50:67:2f:74:6a:
                    8e:a8:fe:95:67:8f:ca:8d:a4:1e:0f:34:1d:e1:2a:
                    68:80:15:fc:3f:62:f9:64:0e:6b:d1:e0:ed:00:14:
                    f0:3f:f9:25:e7:14:b7:0d:14:9e:27:64:c8:76:c6:
                    70:10:db:6c:8a:35:51:df:5f:1e:0c:f6:63:22:44:
                    0d:04:25:49:75:13:92:f9:97:2f:73:4b:f5:c1:00:
                    c3:c0:ba:8c:46:4b:18:33:84:44:d3:e2:37:43:dd:
                    b3:a6:d2:da:e2:d9:c5:81:6d:13:f2:0d:04:a3:c0:
                    a5:8d:ab:cf:1b:71:61:32:fc:1c:08:4a:f9:10:b0:
                    f2:c5:63:0c:9f:27:97:fa:6f:81:27:71:b7:73:f7:
                    4e:71:dc:e5:13:af:bb:f2:e0:d9:93:e4:99:11:1e:
                    6a:fe:f2:e8:01:e2:39:29:07:5d:d4:28:a4:d1:b7:
                    18:ef:7a:50:39:d5:fa:6b:7a:3d:f0:4e:78:5f:fd:
                    42:ed:d8:5d:74:79:30:c0:36:2a:8b:1d:52:b1:38:
                    f9:56:90:8c:ae:0d:52:25:ac:20:4c:fa:6e:f6:47:
                    0f:27
                Exponent: 65537 (0x10001)
        X509v3 extensions:
            X509v3 Basic Constraints: 
                CA:FALSE
            X509v3 Subject Key Identifier: 
                EE:F1:2D:C4:46:29:E6:6D:FA:F9:D8:EF:2D:5B:2F:0A:9F:B9:C9:B0
            X509v3 Authority Key Identifier: 
                keyid:DD:52:2E:92:97:51:73:26:7C:B2:8B:7A:6E:AC:91:F3:A7:4B:F7:25
                DirName:/CN=team132-net
                serial:19:F9:B3:B5:59:94:0F:BC:04:94:E9:B7:0F:10:72:E8:A3:3F:8E:FA

            X509v3 Extended Key Usage: 
                TLS Web Client Authentication
            X509v3 Key Usage: 
                Digital Signature
    Signature Algorithm: sha256WithRSAEncryption
         c7:98:ec:69:20:fd:7c:1d:fb:34:b6:25:97:a9:3c:79:e7:de:
         49:d7:11:35:03:d6:c1:34:1f:43:47:b5:36:30:c0:c1:34:dd:
         ff:aa:c0:2b:a1:9b:85:3b:8a:f5:17:d7:70:62:b6:74:53:76:
         55:75:7c:a0:88:4f:dc:49:1e:57:f6:e7:50:85:c8:f2:09:b2:
         0e:3a:67:81:83:49:de:31:fa:98:b4:73:04:3b:24:30:3d:fd:
         23:ab:6f:d5:6a:f0:2a:c3:85:ae:0e:13:ee:0a:c3:58:0a:80:
         13:12:5c:f3:04:9f:5c:54:d5:e8:1d:40:25:0e:9f:c3:ff:b0:
         a0:89:a8:ed:43:39:08:9a:f6:b2:72:ae:15:09:bd:ab:c7:29:
         32:c5:81:b0:79:c7:7c:25:29:e0:5b:6a:07:1e:82:f4:09:63:
         df:d9:2c:2d:86:b3:d6:96:1d:12:ec:31:43:0d:44:ed:f7:1d:
         bc:0c:cb:86:14:bb:1e:5d:43:ab:60:c8:c6:ef:16:6a:8f:fa:
         4e:9d:b8:6a:bf:a2:52:f7:aa:ed:17:88:fe:e2:bb:b5:6f:6c:
         e4:54:d7:49:2a:25:68:12:f5:56:57:1d:04:5c:17:dc:b4:3b:
         d7:23:19:48:41:52:8d:a4:38:49:02:ec:d4:5f:27:16:37:7b:
         cb:d9:da:78
-----BEGIN CERTIFICATE-----
MIIDXDCCAkSgAwIBAgIQQFcaP6ZE4aVcgA1ZcyHlCzANBgkqhkiG9w0BAQsFADAW
MRQwEgYDVQQDDAt0ZWFtMTMyLW5ldDAeFw0yMjA1MTgxNTEzNTBaFw0yNTA1MDIx
NTEzNTBaMBkxFzAVBgNVBAMMDnRlYW0xMzItY2xpZW50MIIBIjANBgkqhkiG9w0B
AQEFAAOCAQ8AMIIBCgKCAQEAxRyKbHXiNDHidqc/kgYg+jA7cC/N4wVyUrnhwrMQ
opO6IhAIf+JmUGcvdGqOqP6VZ4/KjaQeDzQd4SpogBX8P2L5ZA5r0eDtABTwP/kl
5xS3DRSeJ2TIdsZwENtsijVR318eDPZjIkQNBCVJdROS+Zcvc0v1wQDDwLqMRksY
M4RE0+I3Q92zptLa4tnFgW0T8g0Eo8CljavPG3FhMvwcCEr5ELDyxWMMnyeX+m+B
J3G3c/dOcdzlE6+78uDZk+SZER5q/vLoAeI5KQdd1Cik0bcY73pQOdX6a3o98E54
X/1C7dhddHkwwDYqix1SsTj5VpCMrg1SJawgTPpu9kcPJwIDAQABo4GiMIGfMAkG
A1UdEwQCMAAwHQYDVR0OBBYEFO7xLcRGKeZt+vnY7y1bLwqfucmwMFEGA1UdIwRK
MEiAFN1SLpKXUXMmfLKLem6skfOnS/cloRqkGDAWMRQwEgYDVQQDDAt0ZWFtMTMy
LW5ldIIUGfmztVmUD7wElOm3DxBy6KM/jvowEwYDVR0lBAwwCgYIKwYBBQUHAwIw
CwYDVR0PBAQDAgeAMA0GCSqGSIb3DQEBCwUAA4IBAQDHmOxpIP18Hfs0tiWXqTx5
595J1xE1A9bBNB9DR7U2MMDBNN3/qsAroZuFO4r1F9dwYrZ0U3ZVdXygiE/cSR5X
9udQhcjyCbIOOmeBg0neMfqYtHMEOyQwPf0jq2/VavAqw4WuDhPuCsNYCoATElzz
BJ9cVNXoHUAlDp/D/7CgiajtQzkImvaycq4VCb2rxykyxYGwecd8JSngW2oHHoL0
CWPf2SwthrPWlh0S7DFDDUTt9x28DMuGFLseXUOrYMjG7xZqj/pOnbhqv6JS96rt
F4j+4ru1b2zkVNdJKiVoEvVWVx0EXBfctDvXIxlIQVKNpDhJAuzUXycWN3vL2dp4
-----END CERTIFICATE-----
