Certificate:
    Data:
        Version: 3 (0x2)
        Serial Number:
            c1:18:6c:c1:b3:c7:3e:a4:a0:e8:5a:d9:9e:f4:c8:68
        Signature Algorithm: sha256WithRSAEncryption
        Issuer: CN=team132-net
        Validity
            Not Before: May 18 15:13:50 2022 GMT
            Not After : May  2 15:13:50 2025 GMT
        Subject: CN=team132-server
        Subject Public Key Info:
            Public Key Algorithm: rsaEncryption
                RSA Public-Key: (2048 bit)
                Modulus:
                    00:e8:7a:e8:25:39:a7:a9:90:e3:4b:01:00:62:8d:
                    65:07:ba:b4:ee:3c:2a:af:f7:2b:2d:53:a9:97:15:
                    cd:b9:1a:70:e9:01:4b:f1:4e:d2:93:1f:18:af:c7:
                    b4:40:c8:18:36:f7:ec:b7:a8:03:59:94:9d:57:2e:
                    f0:b3:73:31:2a:ac:bd:c9:ff:b9:b3:ed:2b:96:81:
                    93:42:89:0b:7c:77:c5:6e:e9:91:33:19:2c:45:ed:
                    d6:e4:e0:6e:31:92:a0:2e:39:0d:6c:5b:a0:74:5c:
                    d6:c9:a3:52:2c:36:d0:77:59:bd:dc:78:3c:38:f4:
                    b7:a1:ad:7b:d9:c8:70:b8:49:2c:06:df:db:d2:46:
                    4b:99:1b:ed:d5:86:20:f4:0a:bf:37:fe:fa:e6:70:
                    e2:79:fe:a0:95:05:d9:30:b1:cd:c5:f5:38:98:eb:
                    ad:1a:d8:86:72:63:8f:2b:93:0f:9d:e4:f2:37:dd:
                    33:3e:8a:44:69:37:f4:56:9d:f4:14:34:02:c2:ac:
                    81:f1:14:21:3b:27:bc:90:e0:ae:8d:66:d7:3c:53:
                    eb:21:07:4c:97:2f:03:22:cb:a5:df:55:e2:bf:9c:
                    2f:61:34:f5:f6:04:2c:0d:48:3c:ca:ef:22:f1:31:
                    4a:72:eb:7c:30:f2:d5:68:98:6f:e1:63:ca:27:5a:
                    47:df
                Exponent: 65537 (0x10001)
        X509v3 extensions:
            X509v3 Basic Constraints: 
                CA:FALSE
            X509v3 Subject Key Identifier: 
                50:3D:B8:5F:B6:D2:15:5A:00:41:77:B9:D5:27:90:12:8C:5A:BE:7D
            X509v3 Authority Key Identifier: 
                keyid:DD:52:2E:92:97:51:73:26:7C:B2:8B:7A:6E:AC:91:F3:A7:4B:F7:25
                DirName:/CN=team132-net
                serial:19:F9:B3:B5:59:94:0F:BC:04:94:E9:B7:0F:10:72:E8:A3:3F:8E:FA

            X509v3 Extended Key Usage: 
                TLS Web Server Authentication
            X509v3 Key Usage: 
                Digital Signature, Key Encipherment
            X509v3 Subject Alternative Name: 
                DNS:team132-server
    Signature Algorithm: sha256WithRSAEncryption
         ce:78:8e:cf:b3:27:09:4b:88:b1:ba:08:f7:3e:c5:fc:5a:62:
         5c:9d:b5:1d:10:59:8f:b9:5b:e2:f6:36:7a:20:f1:38:48:91:
         d6:f5:03:80:fe:19:8d:67:af:3d:52:3f:ba:d9:be:58:00:2d:
         36:f5:c2:b0:60:2c:71:a0:1c:08:1f:f2:c9:07:3f:96:36:84:
         b9:56:52:f6:76:6c:ec:3c:9d:d9:e9:8f:a6:e1:59:4f:d7:32:
         f8:db:5f:0b:7a:3a:6f:68:2a:f5:0a:82:10:32:ac:1a:72:3c:
         25:af:4a:e1:dd:04:d5:72:96:87:c8:c5:2e:4b:a2:59:a8:e8:
         cc:8b:25:61:49:ee:7b:24:3f:0a:22:fe:ef:68:16:6c:07:06:
         fc:6d:75:61:dd:64:36:f3:87:d0:2b:a8:ff:9a:e0:3f:bc:e3:
         f7:1f:fb:21:1c:b6:cc:25:ee:a8:21:22:31:2e:bb:6e:bf:42:
         26:44:cc:ce:7a:67:c2:9d:d1:3a:a0:52:c7:f0:75:9c:63:5e:
         47:49:c8:68:37:9a:9d:fc:1f:c5:45:27:35:53:43:0a:96:8f:
         bd:e5:9a:2a:c1:1a:3f:09:2c:93:fe:96:9d:d9:68:35:c8:05:
         02:88:03:9b:df:24:24:4e:84:73:32:b9:96:c9:e0:e8:4f:3e:
         e2:3e:66:a5
-----BEGIN CERTIFICATE-----
MIIDeDCCAmCgAwIBAgIRAMEYbMGzxz6koOha2Z70yGgwDQYJKoZIhvcNAQELBQAw
FjEUMBIGA1UEAwwLdGVhbTEzMi1uZXQwHhcNMjIwNTE4MTUxMzUwWhcNMjUwNTAy
MTUxMzUwWjAZMRcwFQYDVQQDDA50ZWFtMTMyLXNlcnZlcjCCASIwDQYJKoZIhvcN
AQEBBQADggEPADCCAQoCggEBAOh66CU5p6mQ40sBAGKNZQe6tO48Kq/3Ky1TqZcV
zbkacOkBS/FO0pMfGK/HtEDIGDb37LeoA1mUnVcu8LNzMSqsvcn/ubPtK5aBk0KJ
C3x3xW7pkTMZLEXt1uTgbjGSoC45DWxboHRc1smjUiw20HdZvdx4PDj0t6Gte9nI
cLhJLAbf29JGS5kb7dWGIPQKvzf++uZw4nn+oJUF2TCxzcX1OJjrrRrYhnJjjyuT
D53k8jfdMz6KRGk39Fad9BQ0AsKsgfEUITsnvJDgro1m1zxT6yEHTJcvAyLLpd9V
4r+cL2E09fYELA1IPMrvIvExSnLrfDDy1WiYb+FjyidaR98CAwEAAaOBvTCBujAJ
BgNVHRMEAjAAMB0GA1UdDgQWBBRQPbhfttIVWgBBd7nVJ5ASjFq+fTBRBgNVHSME
SjBIgBTdUi6Sl1FzJnyyi3purJHzp0v3JaEapBgwFjEUMBIGA1UEAwwLdGVhbTEz
Mi1uZXSCFBn5s7VZlA+8BJTptw8QcuijP476MBMGA1UdJQQMMAoGCCsGAQUFBwMB
MAsGA1UdDwQEAwIFoDAZBgNVHREEEjAQgg50ZWFtMTMyLXNlcnZlcjANBgkqhkiG
9w0BAQsFAAOCAQEAzniOz7MnCUuIsboI9z7F/FpiXJ21HRBZj7lb4vY2eiDxOEiR
1vUDgP4ZjWevPVI/utm+WAAtNvXCsGAscaAcCB/yyQc/ljaEuVZS9nZs7Dyd2emP
puFZT9cy+NtfC3o6b2gq9QqCEDKsGnI8Ja9K4d0E1XKWh8jFLkuiWajozIslYUnu
eyQ/CiL+72gWbAcG/G11Yd1kNvOH0Cuo/5rgP7zj9x/7IRy2zCXuqCEiMS67br9C
JkTMznpnwp3ROqBSx/B1nGNeR0nIaDeanfwfxUUnNVNDCpaPveWaKsEaPwksk/6W
ndloNcgFAogDm98kJE6EczK5lsng6E8+4j5mpQ==
-----END CERTIFICATE-----
