Certificate:
    Data:
        Version: 3 (0x2)
        Serial Number:
            39:da:ed:6f:49:8a:d6:3c:1c:e0:a9:29:93:6e:d4:a2
        Signature Algorithm: sha256WithRSAEncryption
        Issuer: CN=team164-net
        Validity
            Not Before: May 18 18:47:58 2022 GMT
            Not After : May  2 18:47:58 2025 GMT
        Subject: CN=team164-client
        Subject Public Key Info:
            Public Key Algorithm: rsaEncryption
                RSA Public-Key: (2048 bit)
                Modulus:
                    00:cc:a4:8f:4d:75:9a:fe:93:c6:f5:de:21:b6:9f:
                    1e:dd:62:28:74:03:19:2c:b0:61:36:ed:c2:fa:67:
                    9b:b8:f4:fb:fb:49:7e:1e:ad:e6:f1:7a:fb:4e:d7:
                    75:de:23:f7:9b:e8:ef:8e:b1:ce:18:9e:5e:09:48:
                    f6:9a:dd:d5:5f:c6:d4:f2:ac:3d:f5:9f:1a:b8:52:
                    1d:bf:53:7d:c0:fb:3d:be:b0:6d:1c:4c:5f:f0:ed:
                    25:6d:c1:c3:5e:e7:df:6e:d1:92:b1:fd:48:81:f3:
                    aa:0b:b3:a4:55:e9:f0:fc:a4:92:41:3e:69:8a:4c:
                    85:f4:15:58:82:e4:25:58:f2:d2:67:7b:9d:6e:8e:
                    22:19:3e:39:f5:3a:34:2a:a2:5f:a7:12:08:36:69:
                    07:af:56:b3:b5:8e:f1:61:9c:c2:30:ca:e7:5b:eb:
                    74:20:72:31:5c:41:77:53:36:c1:0d:d5:80:2a:77:
                    3f:5a:3f:6e:e4:d7:11:a3:bc:29:5a:9e:e6:bd:6f:
                    89:40:22:d4:9c:25:f4:79:61:55:44:d3:fd:20:f9:
                    a4:dc:7d:d5:f5:ed:df:9c:f1:f1:d1:8c:f5:d2:95:
                    5c:c5:c0:90:b5:ae:79:be:a1:e8:ea:2f:07:7c:6a:
                    4a:6f:2d:21:96:f2:62:3a:9d:95:3f:19:4b:8f:8a:
                    15:7b
                Exponent: 65537 (0x10001)
        X509v3 extensions:
            X509v3 Basic Constraints: 
                CA:FALSE
            X509v3 Subject Key Identifier: 
                76:21:DD:07:4F:E6:1E:B1:0D:3E:7B:16:71:98:91:B3:49:F8:09:4E
            X509v3 Authority Key Identifier: 
                keyid:85:07:4E:88:AF:90:44:46:F9:0F:BD:F0:86:F7:7F:9E:37:0C:7E:44
                DirName:/CN=team164-net
                serial:12:FE:CB:21:70:09:50:6A:D2:3E:19:8B:0F:C3:04:8A:BD:DF:B5:92

            X509v3 Extended Key Usage: 
                TLS Web Client Authentication
            X509v3 Key Usage: 
                Digital Signature
    Signature Algorithm: sha256WithRSAEncryption
         9c:3c:9b:1d:a6:00:68:5a:f9:c7:cf:af:2c:ae:82:4b:34:f4:
         da:90:a0:be:ea:3c:6b:05:6e:15:b4:95:48:a6:b5:7b:ce:e8:
         09:ba:94:10:d6:f1:91:95:49:73:b2:61:07:01:b6:90:01:2c:
         fa:11:74:81:42:ee:41:14:79:87:43:01:9f:5e:63:a3:ac:67:
         f7:95:da:7e:ea:ef:ca:56:42:67:36:0a:0e:d0:2c:eb:16:9c:
         d0:b9:51:83:30:b2:f5:bf:5b:99:ad:8a:23:ee:e7:71:0b:ad:
         f5:ab:4b:f1:10:34:bd:5d:63:4d:34:10:2e:04:e1:a7:1f:9f:
         70:57:cb:d5:8f:7e:34:b4:eb:43:c9:70:fc:98:23:1d:23:44:
         c3:46:9a:80:06:c5:85:be:95:54:ac:5e:d2:58:cc:32:04:95:
         3b:8d:7a:49:0a:b8:db:00:ec:05:8c:82:f3:92:04:46:59:af:
         8a:93:0b:e8:aa:4d:77:24:1e:5a:7b:35:8e:d7:54:74:fc:b4:
         6f:32:1e:2c:a2:19:e8:cb:09:ed:d7:16:21:88:11:7b:d7:c6:
         4f:c9:0c:c1:3b:df:1a:13:e6:6d:a2:d3:a1:f6:e2:10:cb:04:
         22:1f:d9:3e:db:2e:f2:a6:2d:37:a7:8d:4b:f5:31:33:e9:e8:
         f4:cc:2e:58
-----BEGIN CERTIFICATE-----
MIIDXDCCAkSgAwIBAgIQOdrtb0mK1jwc4Kkpk27UojANBgkqhkiG9w0BAQsFADAW
MRQwEgYDVQQDDAt0ZWFtMTY0LW5ldDAeFw0yMjA1MTgxODQ3NThaFw0yNTA1MDIx
ODQ3NThaMBkxFzAVBgNVBAMMDnRlYW0xNjQtY2xpZW50MIIBIjANBgkqhkiG9w0B
AQEFAAOCAQ8AMIIBCgKCAQEAzKSPTXWa/pPG9d4htp8e3WIodAMZLLBhNu3C+meb
uPT7+0l+Hq3m8Xr7Ttd13iP3m+jvjrHOGJ5eCUj2mt3VX8bU8qw99Z8auFIdv1N9
wPs9vrBtHExf8O0lbcHDXuffbtGSsf1IgfOqC7OkVenw/KSSQT5pikyF9BVYguQl
WPLSZ3udbo4iGT459To0KqJfpxIINmkHr1aztY7xYZzCMMrnW+t0IHIxXEF3UzbB
DdWAKnc/Wj9u5NcRo7wpWp7mvW+JQCLUnCX0eWFVRNP9IPmk3H3V9e3fnPHx0Yz1
0pVcxcCQta55vqHo6i8HfGpKby0hlvJiOp2VPxlLj4oVewIDAQABo4GiMIGfMAkG
A1UdEwQCMAAwHQYDVR0OBBYEFHYh3QdP5h6xDT57FnGYkbNJ+AlOMFEGA1UdIwRK
MEiAFIUHToivkERG+Q+98Ib3f543DH5EoRqkGDAWMRQwEgYDVQQDDAt0ZWFtMTY0
LW5ldIIUEv7LIXAJUGrSPhmLD8MEir3ftZIwEwYDVR0lBAwwCgYIKwYBBQUHAwIw
CwYDVR0PBAQDAgeAMA0GCSqGSIb3DQEBCwUAA4IBAQCcPJsdpgBoWvnHz68sroJL
NPTakKC+6jxrBW4VtJVIprV7zugJupQQ1vGRlUlzsmEHAbaQASz6EXSBQu5BFHmH
QwGfXmOjrGf3ldp+6u/KVkJnNgoO0CzrFpzQuVGDMLL1v1uZrYoj7udxC631q0vx
EDS9XWNNNBAuBOGnH59wV8vVj340tOtDyXD8mCMdI0TDRpqABsWFvpVUrF7SWMwy
BJU7jXpJCrjbAOwFjILzkgRGWa+Kkwvoqk13JB5aezWO11R0/LRvMh4sohnoywnt
1xYhiBF718ZPyQzBO98aE+ZtotOh9uIQywQiH9k+2y7ypi03p41L9TEz6ej0zC5Y
-----END CERTIFICATE-----
