Certificate:
    Data:
        Version: 3 (0x2)
        Serial Number:
            3b:64:a1:bc:8c:ff:ee:65:5e:25:e8:d8:05:95:ce:89
        Signature Algorithm: sha256WithRSAEncryption
        Issuer: CN=team164-net
        Validity
            Not Before: May 18 18:47:58 2022 GMT
            Not After : May  2 18:47:58 2025 GMT
        Subject: CN=team164-server
        Subject Public Key Info:
            Public Key Algorithm: rsaEncryption
                RSA Public-Key: (2048 bit)
                Modulus:
                    00:c7:97:68:6a:1b:c8:fd:94:39:a3:14:03:a0:51:
                    1b:48:6d:e1:f6:f3:96:10:ff:c5:d7:e9:0c:57:1c:
                    e1:ea:fa:64:72:e6:b2:e0:81:84:72:e0:cd:bf:33:
                    17:d8:18:69:bc:b0:50:5a:29:ae:e2:72:58:5e:71:
                    fa:40:c8:b2:7c:c4:53:75:bf:ac:e8:fe:41:be:6c:
                    25:9e:f1:d2:bb:e3:d1:76:f7:23:6f:43:8d:bb:43:
                    c4:b4:a8:ca:cc:6c:90:95:93:ba:a2:03:65:7b:cc:
                    61:28:ea:60:c7:7f:78:aa:43:f9:10:3b:c1:f9:fc:
                    76:a7:59:ae:0e:13:74:7f:a2:d8:07:5b:27:d9:11:
                    3e:86:70:3d:1f:90:22:09:64:16:a2:8e:e9:86:e0:
                    1e:fe:c4:33:0e:50:62:10:c6:34:87:9d:cf:31:d1:
                    9b:38:57:0b:42:97:f5:d5:b2:90:30:fa:a2:5f:05:
                    92:a0:6d:28:6b:72:a9:c3:38:1a:c3:2b:98:da:c3:
                    a4:75:12:82:30:1e:fb:73:b1:e9:62:1e:8a:29:ac:
                    20:59:06:b5:0a:72:19:95:1e:1a:bb:40:c8:3a:b2:
                    7f:ec:ae:ae:69:7f:c8:93:8f:41:1c:18:79:c9:bd:
                    fe:0c:d6:8d:2f:a9:3d:68:f7:02:e5:b5:c2:f2:61:
                    ce:01
                Exponent: 65537 (0x10001)
        X509v3 extensions:
            X509v3 Basic Constraints: 
                CA:FALSE
            X509v3 Subject Key Identifier: 
                79:A5:82:D5:60:AB:FE:77:85:55:03:09:77:BA:8E:BB:AA:F0:10:68
            X509v3 Authority Key Identifier: 
                keyid:85:07:4E:88:AF:90:44:46:F9:0F:BD:F0:86:F7:7F:9E:37:0C:7E:44
                DirName:/CN=team164-net
                serial:12:FE:CB:21:70:09:50:6A:D2:3E:19:8B:0F:C3:04:8A:BD:DF:B5:92

            X509v3 Extended Key Usage: 
                TLS Web Server Authentication
            X509v3 Key Usage: 
                Digital Signature, Key Encipherment
            X509v3 Subject Alternative Name: 
                DNS:team164-server
    Signature Algorithm: sha256WithRSAEncryption
         19:3c:0b:76:2f:6c:03:21:de:d7:1a:ad:51:71:fc:7a:0f:7b:
         33:06:e9:16:51:ab:63:5a:39:93:7d:f9:a8:68:9c:77:4f:21:
         84:88:40:e0:d0:0f:80:38:a8:75:98:29:ad:e0:28:bc:c1:87:
         16:fc:c1:04:52:a0:18:5b:3f:92:dc:84:a2:d1:f9:1a:7d:1d:
         47:e0:48:0f:8f:1f:7a:f4:7d:af:e4:94:92:56:42:dc:da:63:
         d7:2b:e1:f7:56:01:52:2e:88:16:d7:cb:a9:bc:d4:c1:35:54:
         06:13:cd:fc:3a:0e:22:67:09:00:ce:54:41:bd:4e:1f:ec:1d:
         7e:5d:f7:99:e0:be:d3:c6:e7:fb:08:0e:05:13:8b:93:5f:28:
         dd:3e:08:75:d8:10:8f:58:21:38:25:43:f1:fb:9b:c7:03:3d:
         0d:9c:b0:94:60:11:21:f7:d6:46:3a:86:dd:7c:62:c4:cd:d0:
         63:c9:c3:f1:db:e9:a5:6e:05:83:5f:ba:39:6f:27:8c:a2:c2:
         af:84:66:2d:83:93:2f:c2:71:b7:e0:b3:e7:7e:f4:53:f4:38:
         06:01:3e:e3:b0:5b:4a:9e:e7:ff:d7:4f:87:88:54:b4:69:32:
         f7:a5:f4:a9:b8:5c:ee:95:f5:32:91:b2:8a:fa:49:59:fd:a7:
         4e:c3:c3:bf
-----BEGIN CERTIFICATE-----
MIIDdzCCAl+gAwIBAgIQO2ShvIz/7mVeJejYBZXOiTANBgkqhkiG9w0BAQsFADAW
MRQwEgYDVQQDDAt0ZWFtMTY0LW5ldDAeFw0yMjA1MTgxODQ3NThaFw0yNTA1MDIx
ODQ3NThaMBkxFzAVBgNVBAMMDnRlYW0xNjQtc2VydmVyMIIBIjANBgkqhkiG9w0B
AQEFAAOCAQ8AMIIBCgKCAQEAx5doahvI/ZQ5oxQDoFEbSG3h9vOWEP/F1+kMVxzh
6vpkcuay4IGEcuDNvzMX2BhpvLBQWimu4nJYXnH6QMiyfMRTdb+s6P5BvmwlnvHS
u+PRdvcjb0ONu0PEtKjKzGyQlZO6ogNle8xhKOpgx394qkP5EDvB+fx2p1muDhN0
f6LYB1sn2RE+hnA9H5AiCWQWoo7phuAe/sQzDlBiEMY0h53PMdGbOFcLQpf11bKQ
MPqiXwWSoG0oa3KpwzgawyuY2sOkdRKCMB77c7HpYh6KKawgWQa1CnIZlR4au0DI
OrJ/7K6uaX/Ik49BHBh5yb3+DNaNL6k9aPcC5bXC8mHOAQIDAQABo4G9MIG6MAkG
A1UdEwQCMAAwHQYDVR0OBBYEFHmlgtVgq/53hVUDCXe6jruq8BBoMFEGA1UdIwRK
MEiAFIUHToivkERG+Q+98Ib3f543DH5EoRqkGDAWMRQwEgYDVQQDDAt0ZWFtMTY0
LW5ldIIUEv7LIXAJUGrSPhmLD8MEir3ftZIwEwYDVR0lBAwwCgYIKwYBBQUHAwEw
CwYDVR0PBAQDAgWgMBkGA1UdEQQSMBCCDnRlYW0xNjQtc2VydmVyMA0GCSqGSIb3
DQEBCwUAA4IBAQAZPAt2L2wDId7XGq1Rcfx6D3szBukWUatjWjmTffmoaJx3TyGE
iEDg0A+AOKh1mCmt4Ci8wYcW/MEEUqAYWz+S3ISi0fkafR1H4EgPjx969H2v5JSS
VkLc2mPXK+H3VgFSLogW18upvNTBNVQGE838Og4iZwkAzlRBvU4f7B1+XfeZ4L7T
xuf7CA4FE4uTXyjdPgh12BCPWCE4JUPx+5vHAz0NnLCUYBEh99ZGOobdfGLEzdBj
ycPx2+mlbgWDX7o5byeMosKvhGYtg5MvwnG34LPnfvRT9DgGAT7jsFtKnuf/10+H
iFS0aTL3pfSpuFzulfUykbKK+klZ/adOw8O/
-----END CERTIFICATE-----
