Certificate:
    Data:
        Version: 3 (0x2)
        Serial Number:
            09:19:ec:bc:a6:27:2c:3c:ec:0a:85:40:77:b5:e1:e2
        Signature Algorithm: sha256WithRSAEncryption
        Issuer: CN=team613-net
        Validity
            Not Before: May 18 22:59:53 2022 GMT
            Not After : May  2 22:59:53 2025 GMT
        Subject: CN=team613-server
        Subject Public Key Info:
            Public Key Algorithm: rsaEncryption
                RSA Public-Key: (2048 bit)
                Modulus:
                    00:ae:77:19:00:57:aa:9d:8e:44:d7:b4:48:fd:7e:
                    42:78:50:27:f2:26:a1:de:0f:46:e4:22:33:3b:b9:
                    5f:8d:62:21:91:7a:c0:31:55:93:7b:b7:11:33:db:
                    ce:18:99:24:98:61:77:89:ce:b4:1f:cc:8b:81:bb:
                    a8:ea:a0:c1:21:6f:c8:7c:97:f1:f0:7b:71:d6:20:
                    23:dd:31:f1:67:01:2c:0b:15:10:3c:04:74:95:12:
                    ec:5d:20:88:b7:79:17:6d:b5:a8:80:1e:ca:b3:e0:
                    9b:ef:d0:72:48:d1:d3:ed:ec:5f:09:52:25:c2:95:
                    cd:bc:41:cc:88:ca:39:91:a5:44:6c:6e:db:71:1e:
                    18:81:8d:d7:38:b5:81:09:ad:39:af:f7:fc:b2:13:
                    9a:d3:3b:a7:52:c7:1f:85:1b:ff:59:32:28:96:22:
                    a3:b9:a9:b5:1e:2a:ad:bb:1b:a7:40:21:64:f5:59:
                    c0:f6:70:38:b7:91:03:cd:f2:3a:0b:b0:3a:30:5c:
                    5b:3a:b9:c4:17:1c:5e:39:35:68:9c:55:2c:20:78:
                    b1:a0:62:79:9e:05:b6:eb:c2:c6:71:2b:e6:86:2b:
                    de:52:6a:18:32:3e:08:50:8d:31:54:37:75:cd:e5:
                    22:ed:67:12:be:df:b6:3d:a7:64:48:6a:9e:20:8a:
                    c5:ad
                Exponent: 65537 (0x10001)
        X509v3 extensions:
            X509v3 Basic Constraints: 
                CA:FALSE
            X509v3 Subject Key Identifier: 
                E7:28:4D:00:90:2D:0A:03:2A:11:0E:A8:FF:83:61:89:31:47:CD:D5
            X509v3 Authority Key Identifier: 
                keyid:0B:A9:E8:BD:35:90:96:A8:E0:9F:57:88:4F:2F:AA:B6:89:BA:AE:4A
                DirName:/CN=team613-net
                serial:5A:11:1F:90:A2:7D:A5:DE:27:07:CA:49:AA:40:2C:3C:8C:BF:4A:80

            X509v3 Extended Key Usage: 
                TLS Web Server Authentication
            X509v3 Key Usage: 
                Digital Signature, Key Encipherment
            X509v3 Subject Alternative Name: 
                DNS:team613-server
    Signature Algorithm: sha256WithRSAEncryption
         73:d3:8b:20:05:70:83:03:db:43:5a:78:a0:d8:01:cb:73:fe:
         77:e1:66:51:b0:50:34:60:95:7b:88:6d:4d:52:cd:60:43:9a:
         54:3b:6d:ae:b4:6f:c2:1d:59:63:4b:2d:50:75:92:04:a9:aa:
         b4:85:3b:2d:11:37:96:e3:52:54:a8:de:2b:3c:cc:c1:02:84:
         65:e7:b2:88:82:6b:97:05:d8:d5:ac:75:d1:4d:f2:90:86:14:
         8b:cb:7c:7a:5f:03:81:3d:a2:f8:5b:74:fe:af:9a:20:2a:78:
         1d:6f:6c:52:8d:ec:ec:54:9d:39:7b:82:6b:20:c0:57:a2:c1:
         98:72:10:6e:44:ca:be:20:f5:50:8d:81:ba:45:0f:d8:cb:ff:
         4b:c4:55:76:76:11:e1:c7:41:f4:1d:77:3f:53:ee:96:02:b5:
         d1:d7:d5:99:c1:37:63:20:37:22:4f:f0:d9:1c:fe:5e:23:b4:
         8a:26:d7:7d:ff:ac:2f:ac:ba:59:cc:7f:d2:7b:da:6f:70:42:
         ee:a5:80:91:75:2a:6a:0e:0a:55:a8:f6:f2:3a:ce:18:41:f9:
         fe:9a:44:b2:4a:f7:4c:46:1f:d0:67:1b:dd:83:c7:93:1e:fb:
         94:5e:9c:20:a8:28:16:7a:7c:12:09:c7:2e:c7:a4:60:8c:c6:
         f3:a7:8e:7a
-----BEGIN CERTIFICATE-----
MIIDdzCCAl+gAwIBAgIQCRnsvKYnLDzsCoVAd7Xh4jANBgkqhkiG9w0BAQsFADAW
MRQwEgYDVQQDDAt0ZWFtNjEzLW5ldDAeFw0yMjA1MTgyMjU5NTNaFw0yNTA1MDIy
MjU5NTNaMBkxFzAVBgNVBAMMDnRlYW02MTMtc2VydmVyMIIBIjANBgkqhkiG9w0B
AQEFAAOCAQ8AMIIBCgKCAQEArncZAFeqnY5E17RI/X5CeFAn8iah3g9G5CIzO7lf
jWIhkXrAMVWTe7cRM9vOGJkkmGF3ic60H8yLgbuo6qDBIW/IfJfx8Htx1iAj3THx
ZwEsCxUQPAR0lRLsXSCIt3kXbbWogB7Ks+Cb79BySNHT7exfCVIlwpXNvEHMiMo5
kaVEbG7bcR4YgY3XOLWBCa05r/f8shOa0zunUscfhRv/WTIoliKjuam1Hiqtuxun
QCFk9VnA9nA4t5EDzfI6C7A6MFxbOrnEFxxeOTVonFUsIHixoGJ5ngW268LGcSvm
hiveUmoYMj4IUI0xVDd1zeUi7WcSvt+2PadkSGqeIIrFrQIDAQABo4G9MIG6MAkG
A1UdEwQCMAAwHQYDVR0OBBYEFOcoTQCQLQoDKhEOqP+DYYkxR83VMFEGA1UdIwRK
MEiAFAup6L01kJao4J9XiE8vqraJuq5KoRqkGDAWMRQwEgYDVQQDDAt0ZWFtNjEz
LW5ldIIUWhEfkKJ9pd4nB8pJqkAsPIy/SoAwEwYDVR0lBAwwCgYIKwYBBQUHAwEw
CwYDVR0PBAQDAgWgMBkGA1UdEQQSMBCCDnRlYW02MTMtc2VydmVyMA0GCSqGSIb3
DQEBCwUAA4IBAQBz04sgBXCDA9tDWnig2AHLc/534WZRsFA0YJV7iG1NUs1gQ5pU
O22utG/CHVljSy1QdZIEqaq0hTstETeW41JUqN4rPMzBAoRl57KIgmuXBdjVrHXR
TfKQhhSLy3x6XwOBPaL4W3T+r5ogKngdb2xSjezsVJ05e4JrIMBXosGYchBuRMq+
IPVQjYG6RQ/Yy/9LxFV2dhHhx0H0HXc/U+6WArXR19WZwTdjIDciT/DZHP5eI7SK
Jtd9/6wvrLpZzH/Se9pvcELupYCRdSpqDgpVqPbyOs4YQfn+mkSySvdMRh/QZxvd
g8eTHvuUXpwgqCgWenwSCccux6RgjMbzp456
-----END CERTIFICATE-----
