Certificate:
    Data:
        Version: 3 (0x2)
        Serial Number:
            b7:93:f5:37:5e:b3:0b:17:17:93:84:c1:e1:1f:0c:62
        Signature Algorithm: sha256WithRSAEncryption
        Issuer: CN=team123-net
        Validity
            Not Before: May 18 15:03:28 2022 GMT
            Not After : May  2 15:03:28 2025 GMT
        Subject: CN=team123-server
        Subject Public Key Info:
            Public Key Algorithm: rsaEncryption
                RSA Public-Key: (2048 bit)
                Modulus:
                    00:9c:2e:1a:70:a2:8d:37:1e:c5:ff:12:87:15:c9:
                    94:83:95:9a:f0:36:75:09:0e:8a:c5:90:68:f5:c2:
                    0e:7c:8a:69:4f:2b:d4:c2:48:50:e5:0d:68:11:bf:
                    18:88:c2:5f:c5:44:58:d2:ea:9f:86:22:e0:d8:df:
                    90:97:7f:30:4e:78:00:cc:27:b9:09:05:3e:e4:10:
                    14:67:da:e8:11:64:1e:45:1b:2c:b5:80:e0:2d:24:
                    76:b7:3f:17:90:51:34:93:62:a5:8f:0e:d1:32:6e:
                    df:14:e1:8f:77:6d:55:0f:f4:34:58:7b:cb:aa:56:
                    40:b4:04:fe:93:fe:3c:8d:1e:c0:2f:0c:49:1d:39:
                    92:e1:79:e2:03:66:42:23:46:58:92:e2:96:87:8c:
                    d7:f2:af:4e:e3:35:e5:fd:d9:6c:70:28:64:05:c0:
                    b3:7d:33:9d:30:24:6b:c4:0a:86:99:0e:db:49:f4:
                    04:fe:7e:17:fc:1b:ec:bc:f1:0f:2f:03:97:0d:90:
                    d7:b0:54:88:49:29:49:71:06:08:f9:68:02:59:21:
                    37:00:fe:de:de:ef:8b:60:57:f4:c1:b4:d7:43:5d:
                    d6:a4:97:31:e9:fa:da:5e:19:95:a5:c3:04:5e:06:
                    90:f8:9c:b4:6d:02:5e:ef:63:cb:29:ee:da:c5:96:
                    c5:9d
                Exponent: 65537 (0x10001)
        X509v3 extensions:
            X509v3 Basic Constraints: 
                CA:FALSE
            X509v3 Subject Key Identifier: 
                9F:CC:F1:C7:C0:F4:7E:0A:E9:B9:8B:3D:1D:50:9B:49:7C:18:11:27
            X509v3 Authority Key Identifier: 
                keyid:A3:EF:BA:93:60:2F:D0:CF:EA:D7:67:CF:F9:72:44:C8:9E:CF:24:37
                DirName:/CN=team123-net
                serial:4F:C5:FE:33:78:4F:B6:7B:D3:8E:35:68:8D:10:26:07:22:95:54:97

            X509v3 Extended Key Usage: 
                TLS Web Server Authentication
            X509v3 Key Usage: 
                Digital Signature, Key Encipherment
            X509v3 Subject Alternative Name: 
                DNS:team123-server
    Signature Algorithm: sha256WithRSAEncryption
         4b:72:b9:be:64:10:fc:98:25:64:ac:08:1b:4a:fe:be:5d:4e:
         55:ef:2e:71:1a:bd:7e:90:67:f6:72:e1:5e:73:22:c2:a1:b7:
         92:c7:f1:e4:c9:65:c4:1e:c7:1a:2b:a2:b3:ae:69:ec:46:25:
         e6:b7:26:ea:f7:64:1e:2d:bf:a8:43:44:d0:ed:00:6e:20:03:
         43:92:b1:b4:fa:ef:a3:28:ff:e4:cf:34:73:c0:0f:db:04:f0:
         38:56:73:7f:94:16:8d:17:c0:f2:59:ad:d3:7c:94:81:4c:e1:
         36:20:45:a7:0b:dd:9a:b4:88:ab:b1:36:4b:70:50:d3:42:d8:
         44:53:5f:a1:64:9b:f0:da:85:a1:f2:49:1c:a6:8e:36:96:4f:
         60:86:5c:c0:35:9e:fd:b8:f2:d2:9c:0e:6a:14:53:26:f6:ab:
         c9:38:48:e3:96:05:3b:97:78:99:de:65:52:76:1f:3e:2a:6b:
         18:cf:46:ac:0e:7d:62:0a:e6:05:a5:68:1b:75:c9:0b:13:f0:
         af:16:d1:19:f1:0a:52:09:af:35:ce:9e:94:c9:de:97:ac:03:
         89:50:5a:42:c2:2b:60:0e:8f:17:4a:4b:26:84:cd:c7:2f:44:
         5f:bb:4d:57:28:e3:75:b0:f7:8d:94:06:1b:f4:1f:15:fb:93:
         49:74:63:b7
-----BEGIN CERTIFICATE-----
MIIDeDCCAmCgAwIBAgIRALeT9TdeswsXF5OEweEfDGIwDQYJKoZIhvcNAQELBQAw
FjEUMBIGA1UEAwwLdGVhbTEyMy1uZXQwHhcNMjIwNTE4MTUwMzI4WhcNMjUwNTAy
MTUwMzI4WjAZMRcwFQYDVQQDDA50ZWFtMTIzLXNlcnZlcjCCASIwDQYJKoZIhvcN
AQEBBQADggEPADCCAQoCggEBAJwuGnCijTcexf8ShxXJlIOVmvA2dQkOisWQaPXC
DnyKaU8r1MJIUOUNaBG/GIjCX8VEWNLqn4Yi4NjfkJd/ME54AMwnuQkFPuQQFGfa
6BFkHkUbLLWA4C0kdrc/F5BRNJNipY8O0TJu3xThj3dtVQ/0NFh7y6pWQLQE/pP+
PI0ewC8MSR05kuF54gNmQiNGWJLiloeM1/KvTuM15f3ZbHAoZAXAs30znTAka8QK
hpkO20n0BP5+F/wb7LzxDy8Dlw2Q17BUiEkpSXEGCPloAlkhNwD+3t7vi2BX9MG0
10Nd1qSXMen62l4ZlaXDBF4GkPictG0CXu9jyynu2sWWxZ0CAwEAAaOBvTCBujAJ
BgNVHRMEAjAAMB0GA1UdDgQWBBSfzPHHwPR+Cum5iz0dUJtJfBgRJzBRBgNVHSME
SjBIgBSj77qTYC/Qz+rXZ8/5ckTIns8kN6EapBgwFjEUMBIGA1UEAwwLdGVhbTEy
My1uZXSCFE/F/jN4T7Z70441aI0QJgcilVSXMBMGA1UdJQQMMAoGCCsGAQUFBwMB
MAsGA1UdDwQEAwIFoDAZBgNVHREEEjAQgg50ZWFtMTIzLXNlcnZlcjANBgkqhkiG
9w0BAQsFAAOCAQEAS3K5vmQQ/JglZKwIG0r+vl1OVe8ucRq9fpBn9nLhXnMiwqG3
ksfx5MllxB7HGiuis65p7EYl5rcm6vdkHi2/qENE0O0AbiADQ5KxtPrvoyj/5M80
c8AP2wTwOFZzf5QWjRfA8lmt03yUgUzhNiBFpwvdmrSIq7E2S3BQ00LYRFNfoWSb
8NqFofJJHKaONpZPYIZcwDWe/bjy0pwOahRTJvaryThI45YFO5d4md5lUnYfPipr
GM9GrA59YgrmBaVoG3XJCxPwrxbRGfEKUgmvNc6elMnel6wDiVBaQsIrYA6PF0pL
JoTNxy9EX7tNVyjjdbD3jZQGG/QfFfuTSXRjtw==
-----END CERTIFICATE-----
