Certificate:
    Data:
        Version: 3 (0x2)
        Serial Number:
            dd:67:f7:95:5a:ff:e4:d1:36:93:5a:0d:8c:1c:f9:d3
        Signature Algorithm: sha256WithRSAEncryption
        Issuer: CN=team137-net
        Validity
            Not Before: May 18 15:12:23 2022 GMT
            Not After : May  2 15:12:23 2025 GMT
        Subject: CN=team137-client
        Subject Public Key Info:
            Public Key Algorithm: rsaEncryption
                RSA Public-Key: (2048 bit)
                Modulus:
                    00:bb:a4:58:16:c3:5d:c2:39:5f:78:95:e7:36:81:
                    6d:30:df:1c:da:ff:f0:4d:de:7e:db:5f:9e:7c:67:
                    41:d9:ad:ce:36:85:ad:81:23:70:11:75:67:1d:b2:
                    9a:4e:06:94:50:4d:ed:54:6d:52:70:fa:ad:97:a1:
                    ce:3a:77:ef:e3:83:bc:b2:93:12:dd:af:07:2e:79:
                    65:85:fb:f4:8b:cc:9b:09:12:13:04:62:3c:00:d0:
                    a6:36:0a:bb:03:91:14:bf:e0:fe:63:f0:be:75:65:
                    44:1c:97:90:31:9f:c0:aa:a4:13:26:16:e8:27:2b:
                    0e:0a:cb:9c:a4:e8:94:c3:e4:fa:67:9f:f0:c3:ad:
                    ec:33:ac:aa:a0:3c:1e:14:6e:9d:a8:75:0a:0d:ba:
                    73:14:1f:33:cb:3b:38:b7:9c:85:b1:74:46:25:3a:
                    c8:98:c9:2a:ac:ac:7d:eb:f6:32:44:8e:a7:80:5f:
                    90:ae:c2:69:c9:30:8b:ff:37:34:28:62:c6:bf:fb:
                    d3:4f:70:71:c1:cf:3d:b1:d8:bc:21:ee:b6:ab:8c:
                    fe:83:db:7a:67:68:a5:98:76:98:14:e4:76:09:a4:
                    7d:b4:15:47:02:39:af:ff:9d:42:0a:f0:f4:2c:45:
                    d8:8d:b3:66:5d:8c:1c:5f:ff:b6:49:b5:5c:28:78:
                    63:73
                Exponent: 65537 (0x10001)
        X509v3 extensions:
            X509v3 Basic Constraints: 
                CA:FALSE
            X509v3 Subject Key Identifier: 
                CA:06:5B:4C:7C:70:D5:75:65:73:E2:BE:0B:15:D4:07:9A:DE:A2:AB
            X509v3 Authority Key Identifier: 
                keyid:71:B0:0E:16:64:7D:93:5E:20:4A:4A:D1:AF:85:48:66:C4:F9:B8:BB
                DirName:/CN=team137-net
                serial:27:5B:8F:0E:ED:1E:C9:F9:64:E6:0B:5B:3C:1F:52:92:0B:D9:61:00

            X509v3 Extended Key Usage: 
                TLS Web Client Authentication
            X509v3 Key Usage: 
                Digital Signature
    Signature Algorithm: sha256WithRSAEncryption
         18:f3:5c:36:28:3e:66:32:74:68:8b:ad:b7:15:0d:5b:cd:b0:
         c2:a3:c9:eb:ab:0c:a2:84:c4:ee:4a:47:a4:6c:fb:5a:2b:26:
         26:98:18:ff:cb:ab:51:cc:8d:b3:88:25:5d:5e:d2:4e:00:d1:
         ea:1b:f4:d3:91:a2:96:b4:a7:f3:81:34:a1:d2:73:c8:3f:82:
         f5:1b:4b:19:3a:74:b9:eb:97:e0:85:a6:96:3f:8e:43:d5:49:
         16:ea:36:8d:b0:1a:6f:de:1f:52:63:a0:ab:19:0e:8c:7e:93:
         2b:ad:f4:9e:af:66:e7:61:80:4d:b9:16:03:3d:63:5a:21:da:
         8e:bc:f7:ad:28:ef:91:c5:74:62:fa:bb:fb:c5:ff:d7:76:90:
         6e:e4:1e:dc:65:3c:9f:b7:d6:6e:d2:b1:94:de:20:e9:fd:14:
         31:f1:c4:54:f7:1d:b0:07:ef:ac:e8:07:5b:73:16:14:03:68:
         4a:dd:c8:13:fe:c3:50:bc:7d:bf:c3:7e:82:65:a3:2d:b3:4b:
         25:95:5b:43:47:6c:41:09:0f:52:de:8a:e9:e4:b8:2e:d2:87:
         62:9c:73:a0:39:44:be:bd:be:fb:60:82:57:4f:4e:d9:0b:78:
         7d:ad:f4:91:d2:b5:67:28:22:e0:12:d5:b5:3e:df:24:76:42:
         3c:24:9a:d6
-----BEGIN CERTIFICATE-----
MIIDXTCCAkWgAwIBAgIRAN1n95Va/+TRNpNaDYwc+dMwDQYJKoZIhvcNAQELBQAw
FjEUMBIGA1UEAwwLdGVhbTEzNy1uZXQwHhcNMjIwNTE4MTUxMjIzWhcNMjUwNTAy
MTUxMjIzWjAZMRcwFQYDVQQDDA50ZWFtMTM3LWNsaWVudDCCASIwDQYJKoZIhvcN
AQEBBQADggEPADCCAQoCggEBALukWBbDXcI5X3iV5zaBbTDfHNr/8E3efttfnnxn
QdmtzjaFrYEjcBF1Zx2ymk4GlFBN7VRtUnD6rZehzjp37+ODvLKTEt2vBy55ZYX7
9IvMmwkSEwRiPADQpjYKuwORFL/g/mPwvnVlRByXkDGfwKqkEyYW6CcrDgrLnKTo
lMPk+mef8MOt7DOsqqA8HhRunah1Cg26cxQfM8s7OLechbF0RiU6yJjJKqysfev2
MkSOp4BfkK7Cackwi/83NChixr/7009wccHPPbHYvCHutquM/oPbemdopZh2mBTk
dgmkfbQVRwI5r/+dQgrw9CxF2I2zZl2MHF//tkm1XCh4Y3MCAwEAAaOBojCBnzAJ
BgNVHRMEAjAAMB0GA1UdDgQWBBTKBltMfHDVdWVz4r4LFdQHmt6iqzBRBgNVHSME
SjBIgBRxsA4WZH2TXiBKStGvhUhmxPm4u6EapBgwFjEUMBIGA1UEAwwLdGVhbTEz
Ny1uZXSCFCdbjw7tHsn5ZOYLWzwfUpIL2WEAMBMGA1UdJQQMMAoGCCsGAQUFBwMC
MAsGA1UdDwQEAwIHgDANBgkqhkiG9w0BAQsFAAOCAQEAGPNcNig+ZjJ0aIuttxUN
W82wwqPJ66sMooTE7kpHpGz7WismJpgY/8urUcyNs4glXV7STgDR6hv005GilrSn
84E0odJzyD+C9RtLGTp0ueuX4IWmlj+OQ9VJFuo2jbAab94fUmOgqxkOjH6TK630
nq9m52GATbkWAz1jWiHajrz3rSjvkcV0Yvq7+8X/13aQbuQe3GU8n7fWbtKxlN4g
6f0UMfHEVPcdsAfvrOgHW3MWFANoSt3IE/7DULx9v8N+gmWjLbNLJZVbQ0dsQQkP
Ut6K6eS4LtKHYpxzoDlEvr2++2CCV09O2Qt4fa30kdK1Zygi4BLVtT7fJHZCPCSa
1g==
-----END CERTIFICATE-----
