Certificate:
    Data:
        Version: 3 (0x2)
        Serial Number:
            f1:bc:2b:c0:5f:05:f0:dd:3e:2e:5f:c5:73:1b:91:a2
        Signature Algorithm: sha256WithRSAEncryption
        Issuer: CN=team642-net
        Validity
            Not Before: May 18 23:15:19 2022 GMT
            Not After : May  2 23:15:19 2025 GMT
        Subject: CN=team642-client
        Subject Public Key Info:
            Public Key Algorithm: rsaEncryption
                RSA Public-Key: (2048 bit)
                Modulus:
                    00:dd:f7:2d:f6:c6:7f:a4:46:a5:f4:88:e5:4b:45:
                    59:9b:5b:75:29:87:bd:4b:e3:a2:1a:c8:04:1d:3d:
                    ad:ed:3b:df:f4:18:86:6e:b3:af:09:96:18:a5:42:
                    7f:ff:12:b8:40:e4:f3:9b:7f:5c:01:47:57:b5:3e:
                    c8:6a:0a:ba:4f:6b:77:8b:28:00:16:aa:fd:17:18:
                    56:29:fa:ee:56:4e:dd:ed:f7:c6:4b:fe:76:58:b4:
                    ba:3b:44:4c:5e:b0:3f:97:8e:ab:1d:5b:c9:4e:4e:
                    0a:24:b3:94:d6:ae:af:1b:15:a4:d3:b0:34:25:e2:
                    9b:80:1e:02:14:ea:53:36:0e:b4:78:04:3c:b9:4a:
                    f0:9e:8a:c3:76:7b:91:5a:7c:17:e9:84:d0:8d:a8:
                    b7:82:2e:08:19:b5:45:5e:2a:4a:d0:02:7f:ad:e2:
                    e7:d3:7c:dc:9b:cd:6d:80:8e:84:ae:e9:a4:c7:ba:
                    9b:1e:c0:89:7a:a0:a9:ca:48:45:49:74:db:52:a1:
                    d3:b4:5d:96:8b:9d:3d:62:e2:f3:36:62:68:9d:74:
                    96:78:47:b5:36:e0:5f:ee:7d:a8:c5:2c:d7:3e:a5:
                    ea:93:1f:b9:18:8e:ce:8a:f5:7b:2b:bf:6a:94:7c:
                    48:fc:c9:89:3f:7b:84:45:7a:cb:23:3a:fe:23:94:
                    43:b7
                Exponent: 65537 (0x10001)
        X509v3 extensions:
            X509v3 Basic Constraints: 
                CA:FALSE
            X509v3 Subject Key Identifier: 
                F2:EF:83:CD:08:9C:72:DB:F0:8D:12:2A:9B:6B:B1:27:A0:54:3D:FD
            X509v3 Authority Key Identifier: 
                keyid:EC:4D:DB:D1:2B:14:21:A7:BB:A7:33:48:19:01:C3:A7:3C:5F:E6:66
                DirName:/CN=team642-net
                serial:08:42:A9:2F:E5:DB:69:D6:AA:B8:28:11:F6:4D:7E:0F:97:38:37:3A

            X509v3 Extended Key Usage: 
                TLS Web Client Authentication
            X509v3 Key Usage: 
                Digital Signature
    Signature Algorithm: sha256WithRSAEncryption
         16:45:c3:2e:44:18:af:44:bd:d1:e6:b3:56:6a:d8:3a:bb:7a:
         f3:be:4e:78:53:5a:0d:1c:75:b0:bc:80:6f:0e:27:2b:36:d9:
         06:41:70:80:f0:ee:d8:79:2f:63:4b:ec:c7:93:29:ea:90:d9:
         b7:9a:8a:74:1c:48:23:7a:ec:1a:43:7d:69:4b:b7:16:81:a6:
         96:1d:7b:ba:df:13:96:7e:7f:f1:49:4b:51:86:35:4a:de:0e:
         11:47:42:92:c4:0d:bd:7f:f3:b1:02:6d:f8:44:af:06:aa:90:
         b5:66:69:4d:8e:ce:05:cb:52:e7:96:38:21:c1:b9:84:e4:be:
         b6:c6:65:57:4f:58:2c:1c:a0:64:f4:a3:55:96:0d:93:bd:ca:
         c1:88:c2:94:10:48:98:e7:fc:56:00:48:44:96:16:7c:36:20:
         b6:d3:c9:62:b5:7f:0c:eb:d2:33:ad:0f:71:a2:ff:a2:f9:fa:
         b8:8f:19:3f:af:39:47:5e:22:54:eb:5e:e2:ca:27:3e:c6:91:
         6a:4d:3d:e5:b1:8b:0d:a4:fe:ec:4a:59:04:0c:1a:0f:eb:93:
         15:b4:fb:b3:e4:1a:71:6a:7c:b2:44:17:37:e5:fb:eb:d4:be:
         46:33:03:6d:12:3a:b7:6b:19:fa:75:41:41:35:3d:a9:38:9a:
         3d:ad:80:67
-----BEGIN CERTIFICATE-----
MIIDXTCCAkWgAwIBAgIRAPG8K8BfBfDdPi5fxXMbkaIwDQYJKoZIhvcNAQELBQAw
FjEUMBIGA1UEAwwLdGVhbTY0Mi1uZXQwHhcNMjIwNTE4MjMxNTE5WhcNMjUwNTAy
MjMxNTE5WjAZMRcwFQYDVQQDDA50ZWFtNjQyLWNsaWVudDCCASIwDQYJKoZIhvcN
AQEBBQADggEPADCCAQoCggEBAN33LfbGf6RGpfSI5UtFWZtbdSmHvUvjohrIBB09
re073/QYhm6zrwmWGKVCf/8SuEDk85t/XAFHV7U+yGoKuk9rd4soABaq/RcYVin6
7lZO3e33xkv+dli0ujtETF6wP5eOqx1byU5OCiSzlNaurxsVpNOwNCXim4AeAhTq
UzYOtHgEPLlK8J6Kw3Z7kVp8F+mE0I2ot4IuCBm1RV4qStACf63i59N83JvNbYCO
hK7ppMe6mx7AiXqgqcpIRUl021Kh07RdloudPWLi8zZiaJ10lnhHtTbgX+59qMUs
1z6l6pMfuRiOzor1eyu/apR8SPzJiT97hEV6yyM6/iOUQ7cCAwEAAaOBojCBnzAJ
BgNVHRMEAjAAMB0GA1UdDgQWBBTy74PNCJxy2/CNEiqba7EnoFQ9/TBRBgNVHSME
SjBIgBTsTdvRKxQhp7unM0gZAcOnPF/mZqEapBgwFjEUMBIGA1UEAwwLdGVhbTY0
Mi1uZXSCFAhCqS/l22nWqrgoEfZNfg+XODc6MBMGA1UdJQQMMAoGCCsGAQUFBwMC
MAsGA1UdDwQEAwIHgDANBgkqhkiG9w0BAQsFAAOCAQEAFkXDLkQYr0S90eazVmrY
Ort6875OeFNaDRx1sLyAbw4nKzbZBkFwgPDu2HkvY0vsx5Mp6pDZt5qKdBxII3rs
GkN9aUu3FoGmlh17ut8Tln5/8UlLUYY1St4OEUdCksQNvX/zsQJt+ESvBqqQtWZp
TY7OBctS55Y4IcG5hOS+tsZlV09YLBygZPSjVZYNk73KwYjClBBImOf8VgBIRJYW
fDYgttPJYrV/DOvSM60PcaL/ovn6uI8ZP685R14iVOte4sonPsaRak095bGLDaT+
7EpZBAwaD+uTFbT7s+QacWp8skQXN+X769S+RjMDbRI6t2sZ+nVBQTU9qTiaPa2A
Zw==
-----END CERTIFICATE-----
