Certificate:
    Data:
        Version: 3 (0x2)
        Serial Number:
            8f:61:8e:d2:da:5a:c4:03:30:dd:fa:00:72:27:80:d9
        Signature Algorithm: sha256WithRSAEncryption
        Issuer: CN=team622-net
        Validity
            Not Before: May 18 22:51:54 2022 GMT
            Not After : May  2 22:51:54 2025 GMT
        Subject: CN=team622-client
        Subject Public Key Info:
            Public Key Algorithm: rsaEncryption
                RSA Public-Key: (2048 bit)
                Modulus:
                    00:bd:9f:95:75:58:4e:13:2e:4b:90:d7:4c:00:ba:
                    44:bc:70:43:09:0f:39:1f:e8:a8:1e:49:d6:c7:92:
                    9e:69:10:a0:95:4e:90:73:40:55:f2:4b:18:02:a6:
                    d6:1f:02:b6:00:f4:48:f1:c8:0c:64:0a:f6:3d:18:
                    71:02:c7:69:14:59:79:b6:b6:0f:72:b6:0f:97:a9:
                    14:12:54:4e:86:1b:7a:b7:9a:c3:76:1a:2f:ff:3f:
                    e1:ba:4a:c7:c4:14:64:04:96:fa:4b:f1:1f:88:40:
                    4d:d7:b3:b9:db:1a:01:b7:f2:c9:38:9a:c2:52:68:
                    ef:ed:72:0d:c5:bd:83:1b:60:77:a8:82:13:3c:27:
                    68:3d:7f:3c:a4:73:ff:ba:04:24:2e:66:1f:6c:7a:
                    10:ae:24:3e:ee:09:fc:a6:3d:c0:5b:e5:8f:e1:74:
                    be:42:95:dd:75:c5:be:c0:fa:48:1f:be:07:d6:30:
                    ed:cd:a0:27:f8:84:6b:2a:0e:b0:89:c2:f8:32:59:
                    6b:2e:97:e2:be:88:d3:12:d9:d0:44:20:ab:f6:80:
                    06:3b:19:da:1a:61:dc:bc:7f:d8:36:93:cb:2a:0b:
                    f4:f6:1a:df:f2:d8:1a:05:89:f7:05:61:1d:a6:22:
                    af:95:81:3a:c3:16:05:3d:f1:58:cd:76:3e:85:b4:
                    17:eb
                Exponent: 65537 (0x10001)
        X509v3 extensions:
            X509v3 Basic Constraints: 
                CA:FALSE
            X509v3 Subject Key Identifier: 
                C7:5F:CC:53:46:5A:11:52:A3:35:22:4C:4A:F9:A9:A0:F1:86:94:CF
            X509v3 Authority Key Identifier: 
                keyid:9E:5F:E0:06:19:E7:A9:F2:CB:4D:21:5E:93:7F:71:DD:E8:D3:D9:D3
                DirName:/CN=team622-net
                serial:40:A8:F7:7F:F4:8A:A7:D0:DF:B2:E7:1F:EF:AE:DF:F9:60:D7:D4:53

            X509v3 Extended Key Usage: 
                TLS Web Client Authentication
            X509v3 Key Usage: 
                Digital Signature
    Signature Algorithm: sha256WithRSAEncryption
         06:98:69:12:01:b0:a9:87:b5:f2:9d:83:dc:2b:e6:60:fc:69:
         e0:bb:c0:eb:4c:5d:73:f9:9d:b2:b3:ea:aa:1e:73:57:d2:98:
         9b:2d:35:63:b2:83:20:51:f1:ee:be:97:42:b2:65:58:29:24:
         fe:14:ae:8b:aa:d6:f6:21:18:33:52:fe:57:e3:b2:22:56:50:
         2e:5d:04:4a:b3:c0:90:7a:42:b0:c0:c1:b3:95:1b:0b:1e:0a:
         f7:1e:6a:48:28:27:ff:7f:f2:2a:d6:55:28:52:21:a0:59:be:
         47:4f:32:2f:51:6a:82:79:8b:0c:d8:48:71:83:67:0d:25:a2:
         36:20:f7:cb:c7:7b:28:2d:76:50:0f:26:2f:a3:9f:e5:38:6c:
         1b:82:ab:b8:ac:e4:b7:a8:4f:3f:df:26:ee:09:c7:ec:5e:18:
         da:50:b4:1a:a9:e6:ba:42:18:9f:ae:5a:a9:42:d6:1e:85:b8:
         9f:cc:44:f5:aa:ca:90:2d:ec:5d:34:7a:bd:4e:d1:e4:f4:1d:
         d5:8a:ef:8b:16:ab:4a:b5:06:12:5b:e6:14:d4:94:01:eb:38:
         ea:1f:30:ff:1c:9c:2f:df:98:f2:ca:77:85:89:82:06:59:72:
         bb:1d:34:46:a0:ad:12:f6:48:fe:a2:2f:ee:fc:a2:bb:5e:16:
         f2:a1:76:57
-----BEGIN CERTIFICATE-----
MIIDXTCCAkWgAwIBAgIRAI9hjtLaWsQDMN36AHIngNkwDQYJKoZIhvcNAQELBQAw
FjEUMBIGA1UEAwwLdGVhbTYyMi1uZXQwHhcNMjIwNTE4MjI1MTU0WhcNMjUwNTAy
MjI1MTU0WjAZMRcwFQYDVQQDDA50ZWFtNjIyLWNsaWVudDCCASIwDQYJKoZIhvcN
AQEBBQADggEPADCCAQoCggEBAL2flXVYThMuS5DXTAC6RLxwQwkPOR/oqB5J1seS
nmkQoJVOkHNAVfJLGAKm1h8CtgD0SPHIDGQK9j0YcQLHaRRZeba2D3K2D5epFBJU
ToYbereaw3YaL/8/4bpKx8QUZASW+kvxH4hATdezudsaAbfyyTiawlJo7+1yDcW9
gxtgd6iCEzwnaD1/PKRz/7oEJC5mH2x6EK4kPu4J/KY9wFvlj+F0vkKV3XXFvsD6
SB++B9Yw7c2gJ/iEayoOsInC+DJZay6X4r6I0xLZ0EQgq/aABjsZ2hph3Lx/2DaT
yyoL9PYa3/LYGgWJ9wVhHaYir5WBOsMWBT3xWM12PoW0F+sCAwEAAaOBojCBnzAJ
BgNVHRMEAjAAMB0GA1UdDgQWBBTHX8xTRloRUqM1IkxK+amg8YaUzzBRBgNVHSME
SjBIgBSeX+AGGeep8stNIV6Tf3Hd6NPZ06EapBgwFjEUMBIGA1UEAwwLdGVhbTYy
Mi1uZXSCFECo93/0iqfQ37LnH++u3/lg19RTMBMGA1UdJQQMMAoGCCsGAQUFBwMC
MAsGA1UdDwQEAwIHgDANBgkqhkiG9w0BAQsFAAOCAQEABphpEgGwqYe18p2D3Cvm
YPxp4LvA60xdc/mdsrPqqh5zV9KYmy01Y7KDIFHx7r6XQrJlWCkk/hSui6rW9iEY
M1L+V+OyIlZQLl0ESrPAkHpCsMDBs5UbCx4K9x5qSCgn/3/yKtZVKFIhoFm+R08y
L1FqgnmLDNhIcYNnDSWiNiD3y8d7KC12UA8mL6Of5ThsG4KruKzkt6hPP98m7gnH
7F4Y2lC0GqnmukIYn65aqULWHoW4n8xE9arKkC3sXTR6vU7R5PQd1YrvixarSrUG
ElvmFNSUAes46h8w/xycL9+Y8sp3hYmCBllyux00RqCtEvZI/qIv7vyiu14W8qF2
Vw==
-----END CERTIFICATE-----
