Certificate:
    Data:
        Version: 3 (0x2)
        Serial Number:
            03:15:d6:f0:66:88:c4:09:d7:26:59:57:08:e3:66:d7
        Signature Algorithm: sha256WithRSAEncryption
        Issuer: CN=team230-net
        Validity
            Not Before: May 18 19:26:47 2022 GMT
            Not After : May  2 19:26:47 2025 GMT
        Subject: CN=team230-server
        Subject Public Key Info:
            Public Key Algorithm: rsaEncryption
                RSA Public-Key: (2048 bit)
                Modulus:
                    00:d5:02:e5:b7:c2:df:09:ba:5e:8a:ab:88:3b:59:
                    e0:a3:74:b1:69:58:2b:9b:48:08:0d:34:26:ed:0e:
                    44:06:7f:0d:3c:98:23:dc:b1:6e:40:e2:ac:b7:7b:
                    9d:15:d6:53:ee:02:fb:b6:a9:e5:23:50:21:fe:4c:
                    3d:cf:f2:76:9e:22:4b:a9:2b:bf:34:19:a0:e5:67:
                    1d:17:2b:1a:e3:b2:4d:16:9f:c2:2d:1d:2f:ca:ba:
                    8e:69:ce:bb:63:7d:df:20:70:94:e1:02:62:00:74:
                    20:54:22:07:37:48:cb:6c:35:09:2b:4b:52:c6:4d:
                    31:ae:e0:3f:a8:8c:85:2f:14:c1:6f:d3:93:08:28:
                    68:02:13:a0:dc:a5:d4:91:d7:2b:44:c7:03:28:b7:
                    14:29:8f:bc:3f:e0:43:78:70:38:4d:35:1b:95:a7:
                    09:6d:3d:e7:c5:39:6a:ee:95:15:13:97:a1:cf:d1:
                    5a:74:e7:cb:62:1c:bd:42:8c:4e:0e:ab:c3:24:08:
                    c6:05:98:d2:21:a3:5e:dc:b4:c8:55:26:04:6c:3b:
                    62:a8:cd:e1:b1:aa:65:56:83:44:40:99:7c:73:24:
                    9f:16:88:c8:b8:0f:ee:6a:e2:74:3f:fa:51:5c:c7:
                    0b:31:3b:bb:21:52:6c:df:7a:6e:83:d4:e1:7c:f1:
                    0c:df
                Exponent: 65537 (0x10001)
        X509v3 extensions:
            X509v3 Basic Constraints: 
                CA:FALSE
            X509v3 Subject Key Identifier: 
                CC:FD:42:37:25:2F:26:03:7F:65:BA:E2:97:41:DB:5B:F1:58:FF:12
            X509v3 Authority Key Identifier: 
                keyid:14:29:D6:05:D0:44:D4:BA:BB:F9:5A:61:6E:7E:CE:CF:A2:B5:6E:1E
                DirName:/CN=team230-net
                serial:5C:37:69:E2:9C:05:A0:99:2B:61:15:9D:BB:A0:77:2E:6E:55:4B:C7

            X509v3 Extended Key Usage: 
                TLS Web Server Authentication
            X509v3 Key Usage: 
                Digital Signature, Key Encipherment
            X509v3 Subject Alternative Name: 
                DNS:team230-server
    Signature Algorithm: sha256WithRSAEncryption
         39:91:d4:fb:54:6c:35:e0:5f:96:57:7a:69:92:ce:bf:4c:37:
         45:f0:82:72:25:da:81:22:53:1f:4f:a7:c0:6a:47:ee:e8:7c:
         d6:a9:33:77:3f:09:5c:25:c2:5e:fd:7b:61:ad:06:2a:79:1d:
         f2:c8:f7:96:6f:e8:ec:52:c9:e3:5c:ff:42:dc:b8:cc:68:64:
         61:b3:5e:0a:ed:87:ea:fc:a5:55:66:96:dc:6b:68:3b:25:73:
         dc:2f:a8:ef:0e:6c:24:e9:be:22:83:c3:fd:6b:c3:ba:3f:0f:
         1b:ca:8d:d3:6a:19:6d:82:7a:83:1d:05:71:6b:9e:bd:e8:09:
         7e:fc:78:8f:66:cb:4f:0c:db:05:8d:4d:de:4b:f7:7f:00:0e:
         03:d4:e2:12:65:5f:68:9f:e6:6f:ac:51:68:76:9f:12:f6:c2:
         f6:bb:60:67:46:7d:de:84:35:dd:3b:21:c3:d1:69:e1:63:26:
         00:93:03:f4:bc:36:2d:f0:12:3b:6c:16:1c:07:83:3e:66:2a:
         84:64:ae:e4:c2:1e:2e:92:0d:93:5f:ba:1a:c1:64:63:04:53:
         04:36:bb:da:e1:aa:6c:26:7b:62:ee:b9:62:19:84:c7:34:97:
         6a:22:2b:69:63:ed:50:1c:c7:9b:45:57:4e:3d:c8:e1:fc:0c:
         35:b3:6b:97
-----BEGIN CERTIFICATE-----
MIIDdzCCAl+gAwIBAgIQAxXW8GaIxAnXJllXCONm1zANBgkqhkiG9w0BAQsFADAW
MRQwEgYDVQQDDAt0ZWFtMjMwLW5ldDAeFw0yMjA1MTgxOTI2NDdaFw0yNTA1MDIx
OTI2NDdaMBkxFzAVBgNVBAMMDnRlYW0yMzAtc2VydmVyMIIBIjANBgkqhkiG9w0B
AQEFAAOCAQ8AMIIBCgKCAQEA1QLlt8LfCbpeiquIO1ngo3SxaVgrm0gIDTQm7Q5E
Bn8NPJgj3LFuQOKst3udFdZT7gL7tqnlI1Ah/kw9z/J2niJLqSu/NBmg5WcdFysa
47JNFp/CLR0vyrqOac67Y33fIHCU4QJiAHQgVCIHN0jLbDUJK0tSxk0xruA/qIyF
LxTBb9OTCChoAhOg3KXUkdcrRMcDKLcUKY+8P+BDeHA4TTUblacJbT3nxTlq7pUV
E5ehz9FadOfLYhy9QoxODqvDJAjGBZjSIaNe3LTIVSYEbDtiqM3hsaplVoNEQJl8
cySfFojIuA/uauJ0P/pRXMcLMTu7IVJs33pug9ThfPEM3wIDAQABo4G9MIG6MAkG
A1UdEwQCMAAwHQYDVR0OBBYEFMz9QjclLyYDf2W64pdB21vxWP8SMFEGA1UdIwRK
MEiAFBQp1gXQRNS6u/laYW5+zs+itW4eoRqkGDAWMRQwEgYDVQQDDAt0ZWFtMjMw
LW5ldIIUXDdp4pwFoJkrYRWdu6B3Lm5VS8cwEwYDVR0lBAwwCgYIKwYBBQUHAwEw
CwYDVR0PBAQDAgWgMBkGA1UdEQQSMBCCDnRlYW0yMzAtc2VydmVyMA0GCSqGSIb3
DQEBCwUAA4IBAQA5kdT7VGw14F+WV3ppks6/TDdF8IJyJdqBIlMfT6fAakfu6HzW
qTN3PwlcJcJe/XthrQYqeR3yyPeWb+jsUsnjXP9C3LjMaGRhs14K7Yfq/KVVZpbc
a2g7JXPcL6jvDmwk6b4ig8P9a8O6Pw8byo3TahltgnqDHQVxa5696Al+/HiPZstP
DNsFjU3eS/d/AA4D1OISZV9on+ZvrFFodp8S9sL2u2BnRn3ehDXdOyHD0WnhYyYA
kwP0vDYt8BI7bBYcB4M+ZiqEZK7kwh4ukg2TX7oawWRjBFMENrva4apsJnti7rli
GYTHNJdqIitpY+1QHMebRVdOPcjh/Aw1s2uX
-----END CERTIFICATE-----
