Certificate:
    Data:
        Version: 3 (0x2)
        Serial Number:
            fa:a2:b4:1b:98:06:a3:5f:1d:46:82:ce:4a:a9:8b:22
        Signature Algorithm: sha256WithRSAEncryption
        Issuer: CN=team230-net
        Validity
            Not Before: May 18 19:26:47 2022 GMT
            Not After : May  2 19:26:47 2025 GMT
        Subject: CN=team230-client
        Subject Public Key Info:
            Public Key Algorithm: rsaEncryption
                RSA Public-Key: (2048 bit)
                Modulus:
                    00:af:2e:e9:59:f3:a2:01:a4:eb:bb:fd:32:41:a8:
                    de:9f:1b:a7:94:31:3d:47:91:53:8f:3f:4b:44:25:
                    36:a5:70:0d:9d:78:f8:32:e9:24:1d:11:37:ff:01:
                    b8:93:a5:02:72:d5:ce:10:21:5a:b8:71:99:d4:3c:
                    b0:d9:68:a6:a9:97:0f:cf:7a:13:d9:21:e8:6c:27:
                    b2:a8:83:30:2c:1a:96:e1:e2:ca:d1:07:24:25:f8:
                    1d:27:25:4a:3c:3a:46:6e:b9:a2:f2:5e:ce:57:29:
                    29:83:59:29:0c:d2:32:76:41:c4:ca:34:fd:fe:86:
                    a5:db:50:9c:87:71:1e:cc:6f:8b:6a:1b:74:55:53:
                    f8:d0:61:1b:ae:97:79:f3:f0:27:64:c0:83:74:18:
                    87:2a:57:41:0e:de:61:40:bf:68:f4:31:2a:37:9c:
                    d5:c1:47:16:7e:09:58:0b:72:77:68:7b:3b:60:36:
                    52:5a:cd:97:60:90:6e:8d:b2:e0:ec:fd:47:c1:f9:
                    6a:02:39:60:6e:98:23:42:d1:34:4e:f1:eb:dc:69:
                    1e:65:a1:84:1e:6c:f2:14:cf:b5:37:e4:fa:a8:35:
                    23:26:39:3e:38:f2:8a:f1:6f:7b:fe:32:30:d9:82:
                    f4:19:a9:a3:6a:7a:83:6a:31:0d:d5:ed:a3:35:4f:
                    43:05
                Exponent: 65537 (0x10001)
        X509v3 extensions:
            X509v3 Basic Constraints: 
                CA:FALSE
            X509v3 Subject Key Identifier: 
                C0:86:75:D0:BE:89:AC:5D:82:B9:8B:7F:AC:DD:1E:5A:40:6A:C4:CE
            X509v3 Authority Key Identifier: 
                keyid:14:29:D6:05:D0:44:D4:BA:BB:F9:5A:61:6E:7E:CE:CF:A2:B5:6E:1E
                DirName:/CN=team230-net
                serial:5C:37:69:E2:9C:05:A0:99:2B:61:15:9D:BB:A0:77:2E:6E:55:4B:C7

            X509v3 Extended Key Usage: 
                TLS Web Client Authentication
            X509v3 Key Usage: 
                Digital Signature
    Signature Algorithm: sha256WithRSAEncryption
         77:40:cb:a4:71:fc:40:4f:fb:ab:58:03:c2:27:56:5a:2c:68:
         10:cd:ef:d1:8e:67:9d:a4:35:ce:4b:11:d5:f6:b8:71:17:1c:
         95:44:b2:88:fc:94:81:db:d0:7c:83:ed:bc:c9:65:80:26:c6:
         d0:78:9f:29:41:d9:62:0f:16:9f:c6:ee:d0:33:79:37:3c:41:
         32:4e:f1:9a:a9:dd:ac:d5:2a:9c:13:e9:1c:f9:22:5d:f4:2d:
         f4:ea:df:2b:11:61:09:71:7f:cb:f6:4a:02:04:f2:93:24:06:
         90:64:aa:65:28:fb:d2:8d:6c:51:81:96:57:26:2b:53:42:16:
         1d:e9:98:73:20:0d:e1:05:c8:27:a1:5b:87:3c:67:fd:dd:75:
         9f:88:3f:b7:25:96:f3:7b:cf:9c:ca:39:01:a3:b7:4e:2c:bb:
         20:f2:7a:22:27:07:bb:78:c8:ea:ec:c9:3a:1b:4a:52:8e:b0:
         c5:bf:26:80:39:dc:b6:fc:db:65:8d:fa:df:1c:d4:44:6f:9e:
         a6:cd:5f:fb:61:b5:15:18:6f:93:36:4b:21:18:99:d3:f8:f1:
         05:5f:c4:e0:a6:28:b4:96:79:2c:4c:23:c4:49:52:76:6d:be:
         4a:eb:36:63:c0:40:4a:59:9d:4c:c6:6c:32:3c:0a:d9:76:b7:
         7d:dd:12:3f
-----BEGIN CERTIFICATE-----
MIIDXTCCAkWgAwIBAgIRAPqitBuYBqNfHUaCzkqpiyIwDQYJKoZIhvcNAQELBQAw
FjEUMBIGA1UEAwwLdGVhbTIzMC1uZXQwHhcNMjIwNTE4MTkyNjQ3WhcNMjUwNTAy
MTkyNjQ3WjAZMRcwFQYDVQQDDA50ZWFtMjMwLWNsaWVudDCCASIwDQYJKoZIhvcN
AQEBBQADggEPADCCAQoCggEBAK8u6VnzogGk67v9MkGo3p8bp5QxPUeRU48/S0Ql
NqVwDZ14+DLpJB0RN/8BuJOlAnLVzhAhWrhxmdQ8sNlopqmXD896E9kh6GwnsqiD
MCwaluHiytEHJCX4HSclSjw6Rm65ovJezlcpKYNZKQzSMnZBxMo0/f6GpdtQnIdx
Hsxvi2obdFVT+NBhG66XefPwJ2TAg3QYhypXQQ7eYUC/aPQxKjec1cFHFn4JWAty
d2h7O2A2UlrNl2CQbo2y4Oz9R8H5agI5YG6YI0LRNE7x69xpHmWhhB5s8hTPtTfk
+qg1IyY5PjjyivFve/4yMNmC9Bmpo2p6g2oxDdXtozVPQwUCAwEAAaOBojCBnzAJ
BgNVHRMEAjAAMB0GA1UdDgQWBBTAhnXQvomsXYK5i3+s3R5aQGrEzjBRBgNVHSME
SjBIgBQUKdYF0ETUurv5WmFufs7PorVuHqEapBgwFjEUMBIGA1UEAwwLdGVhbTIz
MC1uZXSCFFw3aeKcBaCZK2EVnbugdy5uVUvHMBMGA1UdJQQMMAoGCCsGAQUFBwMC
MAsGA1UdDwQEAwIHgDANBgkqhkiG9w0BAQsFAAOCAQEAd0DLpHH8QE/7q1gDwidW
WixoEM3v0Y5nnaQ1zksR1fa4cRcclUSyiPyUgdvQfIPtvMllgCbG0HifKUHZYg8W
n8bu0DN5NzxBMk7xmqndrNUqnBPpHPkiXfQt9OrfKxFhCXF/y/ZKAgTykyQGkGSq
ZSj70o1sUYGWVyYrU0IWHemYcyAN4QXIJ6Fbhzxn/d11n4g/tyWW83vPnMo5AaO3
Tiy7IPJ6IicHu3jI6uzJOhtKUo6wxb8mgDnctvzbZY363xzURG+eps1f+2G1FRhv
kzZLIRiZ0/jxBV/E4KYotJZ5LEwjxElSdm2+Sus2Y8BASlmdTMZsMjwK2Xa3fd0S
Pw==
-----END CERTIFICATE-----
