Certificate:
    Data:
        Version: 3 (0x2)
        Serial Number:
            ce:a9:85:8f:8d:45:80:4f:45:1b:67:ab:27:ce:72:37
        Signature Algorithm: sha256WithRSAEncryption
        Issuer: CN=team301-net
        Validity
            Not Before: May 18 20:08:13 2022 GMT
            Not After : May  2 20:08:13 2025 GMT
        Subject: CN=team301-client
        Subject Public Key Info:
            Public Key Algorithm: rsaEncryption
                RSA Public-Key: (2048 bit)
                Modulus:
                    00:ca:86:51:79:5e:59:d3:09:7a:17:06:b4:42:dc:
                    17:b8:2f:13:b8:79:f8:dc:26:83:1a:d6:ad:23:78:
                    e7:58:fa:2e:45:a4:33:78:5a:a2:25:80:83:14:f2:
                    4d:82:4d:99:27:23:03:fd:06:b6:5f:a8:37:74:ef:
                    b7:a7:fd:84:8d:9d:3f:e3:c2:69:a8:92:ee:dd:16:
                    17:f2:1c:a3:0f:05:4c:7d:29:4d:65:2e:23:80:8b:
                    cc:df:9e:77:c8:07:b1:34:2f:e8:2f:88:22:2e:41:
                    5a:e0:ff:f5:f8:17:46:19:95:c7:9b:1c:74:fa:41:
                    d2:09:a1:6c:52:6f:94:5e:60:63:40:ba:19:02:18:
                    c4:b7:01:d7:f6:d6:93:df:91:c8:1c:ff:c0:d6:bb:
                    ab:11:4b:c3:41:94:32:bb:44:b2:99:58:f0:c2:4e:
                    43:64:cc:00:bb:52:19:2f:dc:9e:1a:dd:a8:66:49:
                    aa:f7:28:44:bc:26:32:84:2c:03:68:d6:db:51:37:
                    3b:28:4f:91:5d:28:61:0e:77:21:26:59:91:3a:6e:
                    89:b0:ca:06:88:be:bc:7f:d3:e0:ce:a5:3d:8d:a8:
                    62:78:80:57:b3:c8:ab:29:02:4d:09:4f:32:cc:e4:
                    a9:2e:22:14:cd:3f:cd:23:7f:6e:c6:fb:d8:dd:09:
                    92:4b
                Exponent: 65537 (0x10001)
        X509v3 extensions:
            X509v3 Basic Constraints: 
                CA:FALSE
            X509v3 Subject Key Identifier: 
                48:6B:7E:1D:B2:D1:19:E5:20:03:9C:C5:AC:4D:4C:CD:66:B7:E1:65
            X509v3 Authority Key Identifier: 
                keyid:55:A5:AA:B4:74:A6:19:8B:A3:B4:82:F2:79:24:57:2B:AA:9B:0B:56
                DirName:/CN=team301-net
                serial:28:0B:CF:7E:5D:5E:25:A1:E6:F0:5D:6F:C4:DD:19:41:C6:00:CA:02

            X509v3 Extended Key Usage: 
                TLS Web Client Authentication
            X509v3 Key Usage: 
                Digital Signature
    Signature Algorithm: sha256WithRSAEncryption
         79:35:95:29:e4:1a:2b:63:c8:89:0c:b6:7d:11:d1:c4:19:4c:
         a4:ce:fe:9a:3e:f2:a9:3a:d2:52:9d:ec:92:b1:e9:6d:20:6c:
         f1:3d:32:65:f9:a3:87:63:4e:4f:11:1b:af:ca:8d:b4:b4:be:
         55:cf:50:b9:3c:bf:d3:ca:13:28:76:12:bc:ba:bb:e6:74:d0:
         54:4a:f2:33:e7:d2:79:a4:f9:cc:8f:29:8b:a7:a7:36:ac:d3:
         d0:4c:b6:82:51:23:22:fe:48:b4:1f:e8:f1:d1:3e:ba:a2:65:
         88:28:bb:ab:07:a6:cb:ac:4f:c2:9e:44:bb:85:ba:f7:d3:cd:
         27:27:35:22:c2:54:61:86:3f:98:16:ab:32:ba:ee:bf:4e:3b:
         e4:67:18:ae:a1:32:a3:4c:0a:16:6b:31:63:9f:e3:6d:55:d7:
         0a:bb:20:a6:59:94:3e:a3:e8:ff:26:68:e6:b8:34:17:59:db:
         9b:dc:bc:95:5c:46:a3:99:14:54:1e:71:80:bb:2a:f3:0c:bc:
         b9:02:0f:f3:1d:67:da:e0:62:61:66:bf:f2:fd:d8:9c:6d:f5:
         da:c2:98:8d:c7:67:33:2e:c3:70:89:a9:53:b9:6a:fd:28:9b:
         5c:e8:76:dc:a9:84:c5:16:47:0d:34:4d:89:c2:a9:e4:f0:d4:
         05:1d:a7:4f
-----BEGIN CERTIFICATE-----
MIIDXTCCAkWgAwIBAgIRAM6phY+NRYBPRRtnqyfOcjcwDQYJKoZIhvcNAQELBQAw
FjEUMBIGA1UEAwwLdGVhbTMwMS1uZXQwHhcNMjIwNTE4MjAwODEzWhcNMjUwNTAy
MjAwODEzWjAZMRcwFQYDVQQDDA50ZWFtMzAxLWNsaWVudDCCASIwDQYJKoZIhvcN
AQEBBQADggEPADCCAQoCggEBAMqGUXleWdMJehcGtELcF7gvE7h5+NwmgxrWrSN4
51j6LkWkM3haoiWAgxTyTYJNmScjA/0Gtl+oN3Tvt6f9hI2dP+PCaaiS7t0WF/Ic
ow8FTH0pTWUuI4CLzN+ed8gHsTQv6C+IIi5BWuD/9fgXRhmVx5scdPpB0gmhbFJv
lF5gY0C6GQIYxLcB1/bWk9+RyBz/wNa7qxFLw0GUMrtEsplY8MJOQ2TMALtSGS/c
nhrdqGZJqvcoRLwmMoQsA2jW21E3OyhPkV0oYQ53ISZZkTpuibDKBoi+vH/T4M6l
PY2oYniAV7PIqykCTQlPMszkqS4iFM0/zSN/bsb72N0JkksCAwEAAaOBojCBnzAJ
BgNVHRMEAjAAMB0GA1UdDgQWBBRIa34dstEZ5SADnMWsTUzNZrfhZTBRBgNVHSME
SjBIgBRVpaq0dKYZi6O0gvJ5JFcrqpsLVqEapBgwFjEUMBIGA1UEAwwLdGVhbTMw
MS1uZXSCFCgLz35dXiWh5vBdb8TdGUHGAMoCMBMGA1UdJQQMMAoGCCsGAQUFBwMC
MAsGA1UdDwQEAwIHgDANBgkqhkiG9w0BAQsFAAOCAQEAeTWVKeQaK2PIiQy2fRHR
xBlMpM7+mj7yqTrSUp3skrHpbSBs8T0yZfmjh2NOTxEbr8qNtLS+Vc9QuTy/08oT
KHYSvLq75nTQVEryM+fSeaT5zI8pi6enNqzT0Ey2glEjIv5ItB/o8dE+uqJliCi7
qwemy6xPwp5Eu4W699PNJyc1IsJUYYY/mBarMrruv0475GcYrqEyo0wKFmsxY5/j
bVXXCrsgplmUPqPo/yZo5rg0F1nbm9y8lVxGo5kUVB5xgLsq8wy8uQIP8x1n2uBi
YWa/8v3YnG312sKYjcdnMy7DcImpU7lq/SibXOh23KmExRZHDTRNicKp5PDUBR2n
Tw==
-----END CERTIFICATE-----
