Certificate:
    Data:
        Version: 3 (0x2)
        Serial Number:
            40:6e:ea:ae:e0:bf:67:5b:b4:47:c5:e9:a4:e8:aa:3e
        Signature Algorithm: sha256WithRSAEncryption
        Issuer: CN=team212-net
        Validity
            Not Before: May 18 19:08:02 2022 GMT
            Not After : May  2 19:08:02 2025 GMT
        Subject: CN=team212-client
        Subject Public Key Info:
            Public Key Algorithm: rsaEncryption
                RSA Public-Key: (2048 bit)
                Modulus:
                    00:d5:2e:45:04:13:2c:1d:33:59:54:52:b7:e6:2c:
                    09:6e:71:72:f9:37:ad:3f:d0:63:09:a4:ac:83:07:
                    72:33:f9:fc:79:5a:b7:30:ef:11:7a:a6:26:5a:e1:
                    36:b0:b5:7a:7a:fe:2a:e8:3c:7e:ec:19:82:8a:45:
                    8b:0b:93:35:a0:88:9a:3a:1c:23:38:43:9c:68:b1:
                    42:4a:7c:b2:bc:77:30:be:08:33:19:4f:ac:f6:6e:
                    1e:41:b6:27:5d:e0:5c:62:e9:dc:2c:36:26:76:d4:
                    91:b3:6a:5f:39:62:ac:1c:b2:41:df:68:dc:34:db:
                    4f:ea:b4:7f:16:bc:5e:5d:98:2a:b5:dc:35:56:25:
                    4c:fd:a0:1e:22:c2:de:82:6e:87:7e:84:7f:21:80:
                    36:db:b7:fb:a0:ba:ac:cf:1f:55:17:ee:a3:82:3c:
                    bf:aa:08:3e:1a:b1:c6:bf:25:f5:95:0d:f6:f0:cc:
                    ef:5b:13:17:41:71:b4:70:38:88:3c:c1:ea:1f:5d:
                    29:a0:44:28:5b:d9:32:79:f2:b3:ed:6f:3d:a2:38:
                    89:83:4b:06:2e:09:24:4a:b3:37:dc:06:35:97:d2:
                    b9:c6:a6:88:5a:1c:37:45:06:73:a0:14:f3:6b:24:
                    34:38:dc:85:ce:42:8d:01:9e:f7:70:43:7a:cd:c7:
                    4f:0b
                Exponent: 65537 (0x10001)
        X509v3 extensions:
            X509v3 Basic Constraints: 
                CA:FALSE
            X509v3 Subject Key Identifier: 
                E0:BC:25:81:26:D0:2B:EA:90:15:0A:26:DC:1B:F4:F4:1B:8E:7C:EA
            X509v3 Authority Key Identifier: 
                keyid:95:7C:0C:FC:A8:AC:43:D3:DE:FD:AC:59:27:06:81:8F:5E:72:3C:DB
                DirName:/CN=team212-net
                serial:1B:34:B9:22:56:EB:BD:86:59:8F:1C:D8:E2:D4:13:4A:13:9A:01:FB

            X509v3 Extended Key Usage: 
                TLS Web Client Authentication
            X509v3 Key Usage: 
                Digital Signature
    Signature Algorithm: sha256WithRSAEncryption
         86:25:72:f3:94:26:78:d5:8a:f2:de:ce:18:c5:8c:3b:78:ed:
         8e:d5:98:17:56:56:9f:73:83:e9:2f:b0:eb:b4:77:97:d1:d5:
         1e:03:7f:ba:d3:b5:59:ef:fa:8d:79:6d:e0:73:41:ea:f7:c2:
         b9:96:0c:ac:06:9a:f6:83:bd:df:d5:e2:7c:b3:b9:7c:4b:b1:
         d9:47:e5:ab:e2:d2:f5:80:eb:30:24:cb:57:93:aa:64:f8:8f:
         72:3a:0d:09:86:e6:37:da:42:ba:c5:df:0d:25:9f:74:c1:1e:
         c7:99:85:b4:0e:86:e6:ae:b3:79:30:f8:ee:63:1d:37:08:a6:
         3b:5c:2d:43:cb:49:25:d5:d9:74:3e:6c:cc:33:4d:14:74:c7:
         cf:ee:2b:ec:26:51:bf:26:31:58:14:4d:a4:c4:0b:f2:0c:6d:
         01:c7:87:4a:37:2c:2c:17:1c:c1:c2:ca:88:a6:28:9f:4a:b4:
         d1:03:58:3d:ce:fb:03:c1:fd:98:1d:e8:64:6d:57:a6:0e:0d:
         29:0a:b3:36:d9:90:a2:cf:d1:12:65:56:71:f8:47:34:fd:24:
         b5:c1:fd:40:d8:1e:56:92:e3:d4:59:ef:cb:87:8d:8b:75:43:
         5b:55:74:ca:9c:28:ac:9d:7d:1c:a3:de:3a:b3:89:12:cf:27:
         b2:81:ec:bf
-----BEGIN CERTIFICATE-----
MIIDXDCCAkSgAwIBAgIQQG7qruC/Z1u0R8XppOiqPjANBgkqhkiG9w0BAQsFADAW
MRQwEgYDVQQDDAt0ZWFtMjEyLW5ldDAeFw0yMjA1MTgxOTA4MDJaFw0yNTA1MDIx
OTA4MDJaMBkxFzAVBgNVBAMMDnRlYW0yMTItY2xpZW50MIIBIjANBgkqhkiG9w0B
AQEFAAOCAQ8AMIIBCgKCAQEA1S5FBBMsHTNZVFK35iwJbnFy+TetP9BjCaSsgwdy
M/n8eVq3MO8ReqYmWuE2sLV6ev4q6Dx+7BmCikWLC5M1oIiaOhwjOEOcaLFCSnyy
vHcwvggzGU+s9m4eQbYnXeBcYuncLDYmdtSRs2pfOWKsHLJB32jcNNtP6rR/Frxe
XZgqtdw1ViVM/aAeIsLegm6HfoR/IYA227f7oLqszx9VF+6jgjy/qgg+GrHGvyX1
lQ328MzvWxMXQXG0cDiIPMHqH10poEQoW9kyefKz7W89ojiJg0sGLgkkSrM33AY1
l9K5xqaIWhw3RQZzoBTzayQ0ONyFzkKNAZ73cEN6zcdPCwIDAQABo4GiMIGfMAkG
A1UdEwQCMAAwHQYDVR0OBBYEFOC8JYEm0CvqkBUKJtwb9PQbjnzqMFEGA1UdIwRK
MEiAFJV8DPyorEPT3v2sWScGgY9ecjzboRqkGDAWMRQwEgYDVQQDDAt0ZWFtMjEy
LW5ldIIUGzS5IlbrvYZZjxzY4tQTShOaAfswEwYDVR0lBAwwCgYIKwYBBQUHAwIw
CwYDVR0PBAQDAgeAMA0GCSqGSIb3DQEBCwUAA4IBAQCGJXLzlCZ41Yry3s4YxYw7
eO2O1ZgXVlafc4PpL7DrtHeX0dUeA3+607VZ7/qNeW3gc0Hq98K5lgysBpr2g73f
1eJ8s7l8S7HZR+Wr4tL1gOswJMtXk6pk+I9yOg0JhuY32kK6xd8NJZ90wR7HmYW0
DobmrrN5MPjuYx03CKY7XC1Dy0kl1dl0PmzMM00UdMfP7ivsJlG/JjFYFE2kxAvy
DG0Bx4dKNywsFxzBwsqIpiifSrTRA1g9zvsDwf2YHehkbVemDg0pCrM22ZCiz9ES
ZVZx+Ec0/SS1wf1A2B5WkuPUWe/Lh42LdUNbVXTKnCisnX0co946s4kSzyeygey/
-----END CERTIFICATE-----
