Certificate:
    Data:
        Version: 3 (0x2)
        Serial Number:
            9d:5d:9b:73:e3:43:e4:29:ae:0b:6b:4c:82:0b:a4:b6
        Signature Algorithm: sha256WithRSAEncryption
        Issuer: CN=team212-net
        Validity
            Not Before: May 18 19:08:02 2022 GMT
            Not After : May  2 19:08:02 2025 GMT
        Subject: CN=team212-server
        Subject Public Key Info:
            Public Key Algorithm: rsaEncryption
                RSA Public-Key: (2048 bit)
                Modulus:
                    00:e0:5d:ba:88:de:0c:c4:dc:60:b5:28:7b:24:3a:
                    90:a9:b5:43:ad:b6:be:66:34:69:6b:61:10:29:ed:
                    df:60:7b:05:b3:19:7d:e9:5c:1a:31:11:75:c2:ef:
                    f3:7e:43:51:c2:40:86:b2:e5:01:9e:77:b7:70:9b:
                    41:7c:41:60:e3:1c:35:9b:1e:39:90:37:81:54:d9:
                    9d:9d:82:94:7d:89:1e:52:bf:1d:1c:b6:e7:7d:81:
                    9c:40:0f:34:7c:74:c2:39:fa:58:9b:ee:8e:0b:64:
                    76:ef:46:1d:9f:c5:31:a5:6e:35:bb:5b:ca:97:9a:
                    90:b5:62:87:14:a0:d6:12:4a:3c:99:32:be:25:e1:
                    40:c6:16:ae:63:80:23:80:b0:55:08:b9:dd:e5:e9:
                    54:84:c1:d7:bf:fc:24:a2:71:0a:36:98:34:e5:0e:
                    17:a7:b1:70:0c:74:85:ed:77:36:5c:03:1d:6e:80:
                    da:56:eb:75:16:6c:e4:dc:7e:50:04:1f:16:2b:4b:
                    ac:15:c0:ae:82:d9:c0:12:e0:42:d4:5c:ca:cb:28:
                    59:0c:8d:b3:44:b4:79:d0:c4:5f:9a:5f:af:ea:a6:
                    61:25:e1:45:f3:b3:da:df:4f:86:3b:d3:81:30:06:
                    61:38:87:b9:f0:23:30:77:9f:d7:22:24:5b:12:fb:
                    68:5f
                Exponent: 65537 (0x10001)
        X509v3 extensions:
            X509v3 Basic Constraints: 
                CA:FALSE
            X509v3 Subject Key Identifier: 
                5A:A5:28:A0:4D:78:65:5F:98:FA:1C:C5:B1:D8:7D:C4:34:5E:B8:F1
            X509v3 Authority Key Identifier: 
                keyid:95:7C:0C:FC:A8:AC:43:D3:DE:FD:AC:59:27:06:81:8F:5E:72:3C:DB
                DirName:/CN=team212-net
                serial:1B:34:B9:22:56:EB:BD:86:59:8F:1C:D8:E2:D4:13:4A:13:9A:01:FB

            X509v3 Extended Key Usage: 
                TLS Web Server Authentication
            X509v3 Key Usage: 
                Digital Signature, Key Encipherment
            X509v3 Subject Alternative Name: 
                DNS:team212-server
    Signature Algorithm: sha256WithRSAEncryption
         a2:12:da:7a:08:1f:c4:37:7e:2d:0b:d5:9f:63:78:f7:48:6e:
         47:2d:80:42:3f:e4:e5:72:95:93:e9:94:95:16:96:4c:59:68:
         fa:c3:95:29:e4:56:82:94:97:9d:82:fc:1b:d6:3b:05:49:af:
         ae:10:19:46:93:cf:d2:d8:4c:1d:2f:f0:f1:6e:bb:87:68:bb:
         0a:d8:0d:01:f4:ad:c6:a7:89:bd:3a:fd:b6:ff:33:67:2e:7a:
         b8:e2:6b:5e:a5:4d:b8:b9:d1:da:55:a9:14:f1:52:72:c5:30:
         60:3a:f9:d6:61:22:c7:23:13:15:e9:72:fb:3e:65:4f:53:6c:
         2b:c0:7a:8f:e9:f2:b0:48:58:1c:19:9b:03:2a:d3:f4:df:f3:
         fa:55:48:31:45:ca:d6:67:f1:46:97:c4:36:58:9e:36:9d:b6:
         99:d2:76:e7:4d:9f:a7:d3:fa:77:3a:82:1a:14:bf:1d:0f:d8:
         95:11:68:df:32:a7:5d:ef:18:c9:b1:b8:c2:75:15:a2:10:61:
         31:d3:09:11:f2:1e:0c:ea:95:7c:6c:71:0c:c5:67:ed:01:75:
         a4:b8:83:48:a7:1d:f8:65:fc:d6:dd:9d:48:0d:aa:ec:16:08:
         4c:46:b0:9e:6a:bb:d9:bc:c3:a8:c6:d4:34:80:39:c0:eb:3d:
         9d:a3:a9:8d
-----BEGIN CERTIFICATE-----
MIIDeDCCAmCgAwIBAgIRAJ1dm3PjQ+QprgtrTIILpLYwDQYJKoZIhvcNAQELBQAw
FjEUMBIGA1UEAwwLdGVhbTIxMi1uZXQwHhcNMjIwNTE4MTkwODAyWhcNMjUwNTAy
MTkwODAyWjAZMRcwFQYDVQQDDA50ZWFtMjEyLXNlcnZlcjCCASIwDQYJKoZIhvcN
AQEBBQADggEPADCCAQoCggEBAOBduojeDMTcYLUoeyQ6kKm1Q622vmY0aWthECnt
32B7BbMZfelcGjERdcLv835DUcJAhrLlAZ53t3CbQXxBYOMcNZseOZA3gVTZnZ2C
lH2JHlK/HRy2532BnEAPNHx0wjn6WJvujgtkdu9GHZ/FMaVuNbtbypeakLVihxSg
1hJKPJkyviXhQMYWrmOAI4CwVQi53eXpVITB17/8JKJxCjaYNOUOF6excAx0he13
NlwDHW6A2lbrdRZs5Nx+UAQfFitLrBXAroLZwBLgQtRcyssoWQyNs0S0edDEX5pf
r+qmYSXhRfOz2t9PhjvTgTAGYTiHufAjMHef1yIkWxL7aF8CAwEAAaOBvTCBujAJ
BgNVHRMEAjAAMB0GA1UdDgQWBBRapSigTXhlX5j6HMWx2H3ENF648TBRBgNVHSME
SjBIgBSVfAz8qKxD0979rFknBoGPXnI826EapBgwFjEUMBIGA1UEAwwLdGVhbTIx
Mi1uZXSCFBs0uSJW672GWY8c2OLUE0oTmgH7MBMGA1UdJQQMMAoGCCsGAQUFBwMB
MAsGA1UdDwQEAwIFoDAZBgNVHREEEjAQgg50ZWFtMjEyLXNlcnZlcjANBgkqhkiG
9w0BAQsFAAOCAQEAohLaeggfxDd+LQvVn2N490huRy2AQj/k5XKVk+mUlRaWTFlo
+sOVKeRWgpSXnYL8G9Y7BUmvrhAZRpPP0thMHS/w8W67h2i7CtgNAfStxqeJvTr9
tv8zZy56uOJrXqVNuLnR2lWpFPFScsUwYDr51mEixyMTFely+z5lT1NsK8B6j+ny
sEhYHBmbAyrT9N/z+lVIMUXK1mfxRpfENlieNp22mdJ2502fp9P6dzqCGhS/HQ/Y
lRFo3zKnXe8YybG4wnUVohBhMdMJEfIeDOqVfGxxDMVn7QF1pLiDSKcd+GX81t2d
SA2q7BYITEawnmq72bzDqMbUNIA5wOs9naOpjQ==
-----END CERTIFICATE-----
