Certificate:
    Data:
        Version: 3 (0x2)
        Serial Number:
            83:bc:b7:4f:5e:76:57:36:8b:c5:75:fa:37:ed:d8:fc
        Signature Algorithm: sha256WithRSAEncryption
        Issuer: CN=team21-net
        Validity
            Not Before: May 18 14:08:54 2022 GMT
            Not After : May  2 14:08:54 2025 GMT
        Subject: CN=team21-server
        Subject Public Key Info:
            Public Key Algorithm: rsaEncryption
                RSA Public-Key: (2048 bit)
                Modulus:
                    00:de:35:a1:83:7f:2e:f0:1e:1a:04:b2:da:e1:a8:
                    e7:0f:4c:37:a3:52:f0:67:6e:84:f3:7a:69:22:ee:
                    7d:2f:28:5b:b3:30:87:d0:a9:0c:09:bf:be:6e:e1:
                    69:f8:c3:c3:6c:02:00:b8:a7:af:b4:de:90:7a:35:
                    06:71:5c:be:12:1e:a9:a7:3d:9c:f6:f1:87:c2:50:
                    44:54:0f:83:44:a2:2c:1d:53:ba:28:6c:a6:82:0e:
                    96:a7:22:67:71:6f:e6:d6:bc:2d:fd:0d:6a:58:e1:
                    85:99:5f:bc:06:7c:d2:47:67:2a:65:0c:88:98:a6:
                    c0:a8:75:d6:75:d0:65:15:89:87:ff:02:d7:e4:95:
                    c5:1e:96:b3:a0:8c:fc:f2:2d:a1:a3:80:6c:d0:84:
                    f2:ab:a7:90:1f:ed:4e:fc:f9:3d:4e:2f:28:b4:2d:
                    68:4c:ae:d6:2f:37:9a:bd:69:a4:6c:d9:5c:21:b9:
                    fd:53:e6:d7:dc:de:d5:94:6a:d6:c3:28:8a:4a:82:
                    fc:99:c9:81:42:b1:44:98:60:8c:95:86:78:61:c7:
                    d3:28:f7:40:45:63:a1:cd:8b:41:5f:dd:96:e2:e7:
                    8c:2f:5d:8d:72:a2:f4:ac:e1:0e:12:9d:18:23:63:
                    10:60:c2:b5:66:f2:d8:77:f9:8f:70:f2:a6:6b:4c:
                    b6:77
                Exponent: 65537 (0x10001)
        X509v3 extensions:
            X509v3 Basic Constraints: 
                CA:FALSE
            X509v3 Subject Key Identifier: 
                41:27:F0:5F:C7:8C:8F:06:43:71:C9:84:B6:1E:AD:0A:DC:42:0E:8F
            X509v3 Authority Key Identifier: 
                keyid:B6:BA:78:2A:0F:87:FD:7F:A3:B8:23:8F:1F:8A:D1:FE:3A:80:11:CD
                DirName:/CN=team21-net
                serial:36:61:3F:73:9F:D5:A7:41:B3:D3:76:2E:51:C3:3F:36:BA:18:B0:11

            X509v3 Extended Key Usage: 
                TLS Web Server Authentication
            X509v3 Key Usage: 
                Digital Signature, Key Encipherment
            X509v3 Subject Alternative Name: 
                DNS:team21-server
    Signature Algorithm: sha256WithRSAEncryption
         97:c5:13:8c:39:53:d4:7a:cb:eb:e3:14:ea:89:90:5a:b9:22:
         b8:f8:09:0a:8b:da:b0:6e:c3:6d:1b:68:91:8d:dd:2d:c9:49:
         ba:0c:cb:86:c7:ad:c3:74:d6:77:ca:9b:f4:76:02:aa:c7:bc:
         07:44:78:03:29:76:d6:bc:be:79:34:f7:21:76:d4:e4:a9:e8:
         83:48:ed:18:ef:71:04:5f:98:b4:82:7a:26:a4:4d:ce:db:af:
         55:21:12:c8:dc:5f:a7:6e:17:ff:70:9e:c0:6f:66:71:88:dd:
         c6:21:3f:68:0d:67:ce:9a:35:41:01:88:f5:44:31:25:79:79:
         63:96:51:b0:82:8b:be:ba:9f:63:16:e6:08:a3:af:10:8a:bc:
         08:08:bd:8e:58:4e:91:e1:6a:7d:3b:71:53:e5:5a:26:91:99:
         fe:b3:2f:22:42:28:4e:27:d0:30:5b:99:2b:bc:88:59:f3:ef:
         02:ce:d9:06:5f:8b:29:d4:5f:6f:1e:a3:cb:2c:0e:a7:90:b2:
         03:13:9b:05:cc:2a:a3:31:1b:79:a4:ff:7f:6f:61:ed:21:a5:
         ee:7c:64:e5:85:77:09:21:a6:dd:2d:11:12:4a:55:9a:47:0c:
         97:48:7b:34:48:86:12:99:c8:ee:99:12:33:dd:55:ba:3b:ce:
         4d:18:47:2f
-----BEGIN CERTIFICATE-----
MIIDdDCCAlygAwIBAgIRAIO8t09edlc2i8V1+jft2PwwDQYJKoZIhvcNAQELBQAw
FTETMBEGA1UEAwwKdGVhbTIxLW5ldDAeFw0yMjA1MTgxNDA4NTRaFw0yNTA1MDIx
NDA4NTRaMBgxFjAUBgNVBAMMDXRlYW0yMS1zZXJ2ZXIwggEiMA0GCSqGSIb3DQEB
AQUAA4IBDwAwggEKAoIBAQDeNaGDfy7wHhoEstrhqOcPTDejUvBnboTzemki7n0v
KFuzMIfQqQwJv75u4Wn4w8NsAgC4p6+03pB6NQZxXL4SHqmnPZz28YfCUERUD4NE
oiwdU7oobKaCDpanImdxb+bWvC39DWpY4YWZX7wGfNJHZyplDIiYpsCoddZ10GUV
iYf/AtfklcUelrOgjPzyLaGjgGzQhPKrp5Af7U78+T1OLyi0LWhMrtYvN5q9aaRs
2Vwhuf1T5tfc3tWUatbDKIpKgvyZyYFCsUSYYIyVhnhhx9Mo90BFY6HNi0Ff3Zbi
54wvXY1yovSs4Q4SnRgjYxBgwrVm8th3+Y9w8qZrTLZ3AgMBAAGjgbswgbgwCQYD
VR0TBAIwADAdBgNVHQ4EFgQUQSfwX8eMjwZDccmEth6tCtxCDo8wUAYDVR0jBEkw
R4AUtrp4Kg+H/X+juCOPH4rR/jqAEc2hGaQXMBUxEzARBgNVBAMMCnRlYW0yMS1u
ZXSCFDZhP3Of1adBs9N2LlHDPza6GLARMBMGA1UdJQQMMAoGCCsGAQUFBwMBMAsG
A1UdDwQEAwIFoDAYBgNVHREEETAPgg10ZWFtMjEtc2VydmVyMA0GCSqGSIb3DQEB
CwUAA4IBAQCXxROMOVPUesvr4xTqiZBauSK4+AkKi9qwbsNtG2iRjd0tyUm6DMuG
x63DdNZ3ypv0dgKqx7wHRHgDKXbWvL55NPchdtTkqeiDSO0Y73EEX5i0gnompE3O
269VIRLI3F+nbhf/cJ7Ab2ZxiN3GIT9oDWfOmjVBAYj1RDEleXljllGwgou+up9j
FuYIo68QirwICL2OWE6R4Wp9O3FT5VomkZn+sy8iQihOJ9AwW5krvIhZ8+8CztkG
X4sp1F9vHqPLLA6nkLIDE5sFzCqjMRt5pP9/b2HtIaXufGTlhXcJIabdLRESSlWa
RwyXSHs0SIYSmcjumRIz3VW6O85NGEcv
-----END CERTIFICATE-----
