Certificate:
    Data:
        Version: 3 (0x2)
        Serial Number:
            17:0f:5b:ab:12:85:53:aa:d5:42:ba:e9:da:c8:e0:be
        Signature Algorithm: sha256WithRSAEncryption
        Issuer: CN=team78-net
        Validity
            Not Before: May 18 14:34:23 2022 GMT
            Not After : May  2 14:34:23 2025 GMT
        Subject: CN=team78-server
        Subject Public Key Info:
            Public Key Algorithm: rsaEncryption
                RSA Public-Key: (2048 bit)
                Modulus:
                    00:ad:fe:44:0e:82:c5:54:6a:fc:c5:3d:49:41:ef:
                    1c:2c:4a:6b:0a:f7:5a:56:64:36:51:6e:f5:c3:25:
                    7e:29:c5:17:c0:9e:4f:27:19:97:b0:1a:41:ff:23:
                    96:e6:04:9d:62:7e:cd:0b:e4:e2:ce:64:ca:35:c5:
                    94:78:e9:40:fe:92:a6:96:2c:4a:a9:ce:b7:db:96:
                    a2:f8:e0:57:8e:d5:eb:d6:11:ad:fa:80:54:b9:ee:
                    3b:15:ce:2b:12:e7:6f:df:b9:e9:f4:ad:c1:f2:d8:
                    d6:52:80:cd:14:f9:cf:0d:f5:f8:64:08:45:55:95:
                    a6:f7:f6:ce:b9:4b:ad:0b:0f:09:4c:f8:ba:04:e7:
                    f0:53:fb:7d:bc:56:83:ad:24:30:b6:3a:46:65:35:
                    73:0e:8f:14:74:57:e0:2f:a6:7d:15:f9:9a:f0:92:
                    90:b0:fa:02:b5:ad:ca:22:63:bc:da:73:46:20:9f:
                    aa:9f:fa:db:32:33:26:46:47:06:f0:0f:da:28:9f:
                    8e:36:5d:ce:d9:c6:66:9e:63:50:b5:d2:1e:25:21:
                    fd:56:07:af:bf:73:b5:6c:2d:c8:18:03:f9:ac:48:
                    8f:58:1e:1d:a6:bd:a7:52:06:6c:d3:b7:25:06:25:
                    55:c9:8c:dc:ed:50:b8:e4:ac:f7:b9:1d:9d:35:d5:
                    14:17
                Exponent: 65537 (0x10001)
        X509v3 extensions:
            X509v3 Basic Constraints: 
                CA:FALSE
            X509v3 Subject Key Identifier: 
                62:39:EC:A2:C6:E2:1F:9F:9A:1B:84:D3:C4:7C:CC:46:8E:14:17:9E
            X509v3 Authority Key Identifier: 
                keyid:87:F3:48:47:53:42:F1:6E:B7:58:13:EC:A7:28:F2:0F:23:8D:00:12
                DirName:/CN=team78-net
                serial:0B:56:ED:81:05:BB:9B:95:C8:E7:37:0D:D0:03:9A:CA:99:08:54:DD

            X509v3 Extended Key Usage: 
                TLS Web Server Authentication
            X509v3 Key Usage: 
                Digital Signature, Key Encipherment
            X509v3 Subject Alternative Name: 
                DNS:team78-server
    Signature Algorithm: sha256WithRSAEncryption
         45:84:28:02:17:2f:76:47:d5:62:ab:fa:8f:c8:1c:1b:af:40:
         6f:47:2d:5d:6b:18:1d:ac:a0:ec:c1:df:45:b5:20:c8:fc:ba:
         3b:ea:3a:83:f5:ac:62:9b:8e:c5:35:a4:55:91:66:4a:b9:1c:
         20:bd:ac:f6:03:6c:29:b6:7c:87:50:5d:53:c5:bb:ce:89:b1:
         33:66:7e:e5:07:6e:8b:80:de:bd:98:6d:6f:20:16:ac:5d:d6:
         89:b0:5c:00:01:12:c4:9d:fb:73:ff:59:66:67:40:98:ab:2a:
         da:08:37:ed:4e:c1:a5:d0:dd:ca:33:84:98:67:52:39:4c:65:
         ab:b2:ce:ca:94:aa:e2:2a:e3:62:36:9d:cb:75:7e:d3:66:10:
         94:cb:20:de:20:30:79:69:1f:73:a6:8f:a7:21:63:bf:fd:29:
         ef:e4:21:79:1a:6f:c6:86:e7:98:80:a9:c0:2c:03:de:17:9d:
         33:81:bf:d3:3f:ad:64:70:65:8a:d6:30:fa:58:0b:28:34:38:
         44:ca:08:9e:31:68:1f:79:c6:bb:d9:41:16:b9:31:cb:e6:5d:
         5c:19:30:51:e3:cc:4d:be:7c:23:f6:b8:a2:04:be:fe:8a:b7:
         63:fd:1d:79:28:87:c3:b7:ed:c1:7a:71:a6:e5:35:36:ab:40:
         86:40:86:b4
-----BEGIN CERTIFICATE-----
MIIDczCCAlugAwIBAgIQFw9bqxKFU6rVQrrp2sjgvjANBgkqhkiG9w0BAQsFADAV
MRMwEQYDVQQDDAp0ZWFtNzgtbmV0MB4XDTIyMDUxODE0MzQyM1oXDTI1MDUwMjE0
MzQyM1owGDEWMBQGA1UEAwwNdGVhbTc4LXNlcnZlcjCCASIwDQYJKoZIhvcNAQEB
BQADggEPADCCAQoCggEBAK3+RA6CxVRq/MU9SUHvHCxKawr3WlZkNlFu9cMlfinF
F8CeTycZl7AaQf8jluYEnWJ+zQvk4s5kyjXFlHjpQP6SppYsSqnOt9uWovjgV47V
69YRrfqAVLnuOxXOKxLnb9+56fStwfLY1lKAzRT5zw31+GQIRVWVpvf2zrlLrQsP
CUz4ugTn8FP7fbxWg60kMLY6RmU1cw6PFHRX4C+mfRX5mvCSkLD6ArWtyiJjvNpz
RiCfqp/62zIzJkZHBvAP2iifjjZdztnGZp5jULXSHiUh/VYHr79ztWwtyBgD+axI
j1geHaa9p1IGbNO3JQYlVcmM3O1QuOSs97kdnTXVFBcCAwEAAaOBuzCBuDAJBgNV
HRMEAjAAMB0GA1UdDgQWBBRiOeyixuIfn5obhNPEfMxGjhQXnjBQBgNVHSMESTBH
gBSH80hHU0LxbrdYE+ynKPIPI40AEqEZpBcwFTETMBEGA1UEAwwKdGVhbTc4LW5l
dIIUC1btgQW7m5XI5zcN0AOaypkIVN0wEwYDVR0lBAwwCgYIKwYBBQUHAwEwCwYD
VR0PBAQDAgWgMBgGA1UdEQQRMA+CDXRlYW03OC1zZXJ2ZXIwDQYJKoZIhvcNAQEL
BQADggEBAEWEKAIXL3ZH1WKr+o/IHBuvQG9HLV1rGB2soOzB30W1IMj8ujvqOoP1
rGKbjsU1pFWRZkq5HCC9rPYDbCm2fIdQXVPFu86JsTNmfuUHbouA3r2YbW8gFqxd
1omwXAABEsSd+3P/WWZnQJirKtoIN+1OwaXQ3cozhJhnUjlMZauyzsqUquIq42I2
nct1ftNmEJTLIN4gMHlpH3Omj6chY7/9Ke/kIXkab8aG55iAqcAsA94XnTOBv9M/
rWRwZYrWMPpYCyg0OETKCJ4xaB95xrvZQRa5McvmXVwZMFHjzE2+fCP2uKIEvv6K
t2P9HXkoh8O37cF6cablNTarQIZAhrQ=
-----END CERTIFICATE-----
