Certificate:
    Data:
        Version: 3 (0x2)
        Serial Number:
            bf:c1:80:cf:d1:81:c3:2d:79:4d:3b:9d:d5:3b:fa:d4
        Signature Algorithm: sha256WithRSAEncryption
        Issuer: CN=team730-net
        Validity
            Not Before: May 19 00:01:28 2022 GMT
            Not After : May  3 00:01:28 2025 GMT
        Subject: CN=team730-client
        Subject Public Key Info:
            Public Key Algorithm: rsaEncryption
                RSA Public-Key: (2048 bit)
                Modulus:
                    00:b0:cf:ec:af:b4:19:b9:24:3d:48:29:1b:48:78:
                    74:e9:b5:11:f5:23:fc:4c:bd:01:55:2c:83:7b:e7:
                    59:b8:9d:d4:ae:66:4b:d9:dd:c7:56:af:88:28:54:
                    4a:8c:76:73:00:d2:8e:af:05:98:31:11:86:86:ff:
                    61:7b:81:aa:c4:3f:78:d4:b7:9d:61:e9:0e:a2:7f:
                    ca:3d:27:e3:cc:4a:66:a0:35:8a:5e:b4:d4:3b:7e:
                    89:8e:77:09:48:13:df:ce:8d:67:ec:19:9a:ac:7e:
                    67:24:fc:cb:1a:46:e1:0a:9c:27:75:e0:2b:0b:cf:
                    57:69:c9:f9:a7:5f:e0:c4:0d:5d:06:0e:07:86:3a:
                    cb:00:ba:f2:a8:37:54:6a:a7:ad:08:4f:a5:34:13:
                    bf:d8:a7:f2:b4:5d:18:7d:58:34:10:d8:3e:00:03:
                    25:2b:72:c3:30:84:1a:6d:89:55:db:1d:37:88:44:
                    f8:6a:9c:ef:a3:97:5a:0a:91:5b:ce:af:70:03:1f:
                    cc:ea:82:4b:90:5b:89:39:fa:cf:9c:f0:5e:2c:f2:
                    fd:bb:90:b8:3e:18:b7:4d:97:76:7e:f4:4e:c6:2d:
                    32:60:1a:46:cf:42:e0:d9:80:75:25:41:42:ee:21:
                    74:d4:bb:41:a6:69:8b:34:99:dd:c3:99:41:7d:04:
                    33:05
                Exponent: 65537 (0x10001)
        X509v3 extensions:
            X509v3 Basic Constraints: 
                CA:FALSE
            X509v3 Subject Key Identifier: 
                F3:59:4E:F6:5E:02:52:4F:75:C8:F9:78:70:C7:EB:54:81:E3:5D:87
            X509v3 Authority Key Identifier: 
                keyid:75:E1:D0:D1:A8:E5:FD:55:D1:CD:2E:A8:4F:D6:E2:75:D9:92:14:B1
                DirName:/CN=team730-net
                serial:09:F2:FC:D6:25:9C:4A:27:C3:D0:CC:D1:BB:75:54:5E:C9:EB:F1:1C

            X509v3 Extended Key Usage: 
                TLS Web Client Authentication
            X509v3 Key Usage: 
                Digital Signature
    Signature Algorithm: sha256WithRSAEncryption
         58:7a:45:c3:c9:8d:bc:4f:6c:cf:8c:22:0c:0a:39:69:c1:f8:
         9a:ae:96:95:7f:13:74:06:53:9f:f3:4c:35:1c:63:a0:ca:2b:
         3d:7d:0e:1c:ae:54:29:c9:33:2e:b0:6e:80:c7:d7:09:4d:02:
         3f:56:98:99:d0:4e:51:81:29:70:4a:bc:7f:d8:8f:2c:fa:de:
         58:74:b3:fe:c1:a4:1f:2d:e6:de:27:af:9f:01:88:6e:a4:58:
         f6:32:1b:75:1d:a6:4d:30:fe:78:c1:b2:10:a2:be:4b:be:e6:
         9b:7f:78:b0:92:21:56:d2:27:fc:ba:d8:a1:13:7a:7a:54:ec:
         67:9c:b6:47:fc:7f:9c:3f:cf:88:a3:92:02:72:de:a2:e6:a1:
         65:e0:2c:32:65:5e:05:0e:f4:3b:af:6c:35:71:c6:c0:2c:68:
         ec:e2:a8:f8:1a:5c:ce:e6:cf:26:20:13:73:ba:7d:05:67:ec:
         a8:75:83:3d:5d:d0:32:ce:d5:55:03:e7:1c:67:c1:a3:f2:0c:
         eb:89:cf:57:e4:57:80:2c:4a:19:c6:80:55:10:47:85:4e:9d:
         e8:73:dc:e4:25:33:ac:e5:cc:d3:1e:60:d7:f0:ce:4d:8e:0e:
         3d:1f:4f:2d:53:fc:31:d1:18:84:f7:ad:9d:ac:c8:24:86:39:
         a1:70:58:9b
-----BEGIN CERTIFICATE-----
MIIDXTCCAkWgAwIBAgIRAL/BgM/RgcMteU07ndU7+tQwDQYJKoZIhvcNAQELBQAw
FjEUMBIGA1UEAwwLdGVhbTczMC1uZXQwHhcNMjIwNTE5MDAwMTI4WhcNMjUwNTAz
MDAwMTI4WjAZMRcwFQYDVQQDDA50ZWFtNzMwLWNsaWVudDCCASIwDQYJKoZIhvcN
AQEBBQADggEPADCCAQoCggEBALDP7K+0GbkkPUgpG0h4dOm1EfUj/Ey9AVUsg3vn
Wbid1K5mS9ndx1aviChUSox2cwDSjq8FmDERhob/YXuBqsQ/eNS3nWHpDqJ/yj0n
48xKZqA1il601Dt+iY53CUgT386NZ+wZmqx+ZyT8yxpG4QqcJ3XgKwvPV2nJ+adf
4MQNXQYOB4Y6ywC68qg3VGqnrQhPpTQTv9in8rRdGH1YNBDYPgADJStywzCEGm2J
VdsdN4hE+Gqc76OXWgqRW86vcAMfzOqCS5BbiTn6z5zwXizy/buQuD4Yt02Xdn70
TsYtMmAaRs9C4NmAdSVBQu4hdNS7QaZpizSZ3cOZQX0EMwUCAwEAAaOBojCBnzAJ
BgNVHRMEAjAAMB0GA1UdDgQWBBTzWU72XgJST3XI+Xhwx+tUgeNdhzBRBgNVHSME
SjBIgBR14dDRqOX9VdHNLqhP1uJ12ZIUsaEapBgwFjEUMBIGA1UEAwwLdGVhbTcz
MC1uZXSCFAny/NYlnEonw9DM0bt1VF7J6/EcMBMGA1UdJQQMMAoGCCsGAQUFBwMC
MAsGA1UdDwQEAwIHgDANBgkqhkiG9w0BAQsFAAOCAQEAWHpFw8mNvE9sz4wiDAo5
acH4mq6WlX8TdAZTn/NMNRxjoMorPX0OHK5UKckzLrBugMfXCU0CP1aYmdBOUYEp
cEq8f9iPLPreWHSz/sGkHy3m3ievnwGIbqRY9jIbdR2mTTD+eMGyEKK+S77mm394
sJIhVtIn/LrYoRN6elTsZ5y2R/x/nD/PiKOSAnLeouahZeAsMmVeBQ70O69sNXHG
wCxo7OKo+BpczubPJiATc7p9BWfsqHWDPV3QMs7VVQPnHGfBo/IM64nPV+RXgCxK
GcaAVRBHhU6d6HPc5CUzrOXM0x5g1/DOTY4OPR9PLVP8MdEYhPetnazIJIY5oXBY
mw==
-----END CERTIFICATE-----
