Certificate:
    Data:
        Version: 3 (0x2)
        Serial Number:
            bd:37:92:97:8a:4a:36:d4:8b:bf:2d:4c:6f:b3:a8:ba
        Signature Algorithm: sha256WithRSAEncryption
        Issuer: CN=team722-net
        Validity
            Not Before: May 18 23:45:56 2022 GMT
            Not After : May  2 23:45:56 2025 GMT
        Subject: CN=team722-client
        Subject Public Key Info:
            Public Key Algorithm: rsaEncryption
                RSA Public-Key: (2048 bit)
                Modulus:
                    00:9e:b4:a2:cd:78:09:3d:b2:81:48:c7:54:bb:83:
                    45:6e:84:7f:8e:d8:3f:7b:29:eb:30:cb:c6:ba:9c:
                    2f:2f:17:39:b7:81:76:ef:26:b9:56:37:1a:c4:78:
                    c0:df:e9:d5:3f:7d:c8:67:c3:eb:c5:2e:2a:86:d6:
                    b1:8c:07:d6:f1:e2:ee:e8:8a:55:1c:eb:8e:02:39:
                    c1:7e:eb:14:81:24:64:1e:b3:3d:3b:b8:f7:1d:81:
                    b2:ab:86:47:5f:22:79:87:3f:84:05:15:e3:4c:63:
                    6e:d8:56:91:9e:58:3c:01:21:3d:ee:4c:22:05:15:
                    aa:20:a1:75:27:0b:1c:75:73:91:5a:ab:3d:54:b0:
                    17:53:35:b6:7f:b2:6a:75:0f:f5:9f:32:48:d7:4d:
                    2d:ec:0e:da:4a:e6:c8:30:bb:e9:a1:b1:e8:44:bc:
                    76:4a:c8:aa:48:5f:6f:42:c9:60:ee:f9:77:4b:bf:
                    4b:7f:c5:a8:cc:8b:66:36:d3:19:e3:1a:e6:35:df:
                    46:87:1c:cf:1a:bc:51:4d:88:93:6e:a4:c9:3f:31:
                    7d:07:8f:40:75:63:9c:09:19:a6:68:1f:1f:ef:93:
                    f9:69:22:f4:91:bc:7d:d7:ba:94:29:83:e3:fc:c7:
                    b4:27:89:1c:2a:45:e7:66:e7:00:c1:fd:c9:ac:ca:
                    58:55
                Exponent: 65537 (0x10001)
        X509v3 extensions:
            X509v3 Basic Constraints: 
                CA:FALSE
            X509v3 Subject Key Identifier: 
                AE:EC:4B:87:5F:E6:28:66:19:41:7E:B8:F8:07:11:7F:39:45:0B:46
            X509v3 Authority Key Identifier: 
                keyid:AC:F5:0D:B4:60:1A:64:CB:8E:51:98:5C:E0:22:15:58:35:B9:E9:4B
                DirName:/CN=team722-net
                serial:5E:6B:E8:67:D3:0C:56:97:75:9D:E0:E8:7C:C0:F1:F5:FF:44:B3:95

            X509v3 Extended Key Usage: 
                TLS Web Client Authentication
            X509v3 Key Usage: 
                Digital Signature
    Signature Algorithm: sha256WithRSAEncryption
         55:f7:1d:4e:96:d3:c9:30:e0:ab:0c:8a:2a:19:b4:56:db:f3:
         25:20:00:71:77:8f:0c:48:14:5c:88:80:05:08:bf:93:7f:73:
         91:c2:50:ac:6a:ee:f8:72:02:78:28:20:50:53:38:28:5b:35:
         3d:38:0f:53:ac:70:25:99:46:da:07:cb:da:7f:32:ef:c0:61:
         fa:4e:24:04:d7:ac:da:49:12:5d:89:cc:0d:d1:16:97:83:49:
         8f:35:a2:93:bd:f6:d9:4f:82:14:e5:90:9a:23:fa:d8:b0:53:
         6f:11:87:24:7a:4b:ec:fa:04:e0:9e:73:72:ec:ca:15:5c:93:
         ed:b3:b0:b5:9c:d0:ba:db:c2:38:63:f5:0f:ae:c8:17:a1:0e:
         bf:39:a7:e4:a3:db:ad:94:6e:e4:3d:6b:3b:76:93:a7:39:96:
         3f:85:c7:1d:aa:54:9b:72:13:6b:61:ab:ec:a1:30:6e:b4:88:
         d0:04:f0:c4:04:3e:c6:45:2a:86:1c:0e:7a:89:dd:92:11:1e:
         1c:8a:e9:0e:60:b7:35:39:b2:e8:37:ab:61:a6:f7:3a:41:92:
         a5:d0:18:98:86:4a:97:a7:a1:8e:be:69:0c:59:81:d7:8e:cc:
         95:1a:42:a5:06:ed:ce:e2:68:e0:c3:6f:4f:df:7b:ff:f0:01:
         7d:47:26:c3
-----BEGIN CERTIFICATE-----
MIIDXTCCAkWgAwIBAgIRAL03kpeKSjbUi78tTG+zqLowDQYJKoZIhvcNAQELBQAw
FjEUMBIGA1UEAwwLdGVhbTcyMi1uZXQwHhcNMjIwNTE4MjM0NTU2WhcNMjUwNTAy
MjM0NTU2WjAZMRcwFQYDVQQDDA50ZWFtNzIyLWNsaWVudDCCASIwDQYJKoZIhvcN
AQEBBQADggEPADCCAQoCggEBAJ60os14CT2ygUjHVLuDRW6Ef47YP3sp6zDLxrqc
Ly8XObeBdu8muVY3GsR4wN/p1T99yGfD68UuKobWsYwH1vHi7uiKVRzrjgI5wX7r
FIEkZB6zPTu49x2BsquGR18ieYc/hAUV40xjbthWkZ5YPAEhPe5MIgUVqiChdScL
HHVzkVqrPVSwF1M1tn+yanUP9Z8ySNdNLewO2krmyDC76aGx6ES8dkrIqkhfb0LJ
YO75d0u/S3/FqMyLZjbTGeMa5jXfRocczxq8UU2Ik26kyT8xfQePQHVjnAkZpmgf
H++T+Wki9JG8fde6lCmD4/zHtCeJHCpF52bnAMH9yazKWFUCAwEAAaOBojCBnzAJ
BgNVHRMEAjAAMB0GA1UdDgQWBBSu7EuHX+YoZhlBfrj4BxF/OUULRjBRBgNVHSME
SjBIgBSs9Q20YBpky45RmFzgIhVYNbnpS6EapBgwFjEUMBIGA1UEAwwLdGVhbTcy
Mi1uZXSCFF5r6GfTDFaXdZ3g6HzA8fX/RLOVMBMGA1UdJQQMMAoGCCsGAQUFBwMC
MAsGA1UdDwQEAwIHgDANBgkqhkiG9w0BAQsFAAOCAQEAVfcdTpbTyTDgqwyKKhm0
VtvzJSAAcXePDEgUXIiABQi/k39zkcJQrGru+HICeCggUFM4KFs1PTgPU6xwJZlG
2gfL2n8y78Bh+k4kBNes2kkSXYnMDdEWl4NJjzWik7322U+CFOWQmiP62LBTbxGH
JHpL7PoE4J5zcuzKFVyT7bOwtZzQutvCOGP1D67IF6EOvzmn5KPbrZRu5D1rO3aT
pzmWP4XHHapUm3ITa2Gr7KEwbrSI0ATwxAQ+xkUqhhwOeondkhEeHIrpDmC3NTmy
6DerYab3OkGSpdAYmIZKl6ehjr5pDFmB147MlRpCpQbtzuJo4MNvT997//ABfUcm
ww==
-----END CERTIFICATE-----
