Certificate:
    Data:
        Version: 3 (0x2)
        Serial Number:
            94:1c:14:c7:03:82:3d:4c:1c:ac:de:68:63:3d:a7:ec
        Signature Algorithm: sha256WithRSAEncryption
        Issuer: CN=team377-net
        Validity
            Not Before: May 18 20:39:33 2022 GMT
            Not After : May  2 20:39:33 2025 GMT
        Subject: CN=team377-client
        Subject Public Key Info:
            Public Key Algorithm: rsaEncryption
                RSA Public-Key: (2048 bit)
                Modulus:
                    00:e1:49:16:37:f0:6f:34:fa:71:66:1c:a9:c3:0c:
                    0c:83:b9:83:b5:06:a1:92:17:59:fa:92:7f:71:01:
                    0f:2d:12:c6:8f:9a:ad:2d:0a:1a:92:6f:4c:a1:61:
                    7b:87:8b:1f:de:b0:4b:24:1f:c7:93:84:8c:cf:a4:
                    41:9a:9f:69:2d:d7:90:ea:fe:cb:12:a3:64:a2:63:
                    e2:ff:fb:c1:c0:0e:34:a8:42:bb:b3:33:16:5a:02:
                    bb:45:90:b8:31:93:a1:ba:d2:8b:79:50:f1:5b:0c:
                    cc:a3:a1:94:5e:36:f6:7e:6d:ec:4a:a5:24:2f:47:
                    e1:46:4a:df:5a:8b:57:c3:f7:d6:1c:54:24:d0:91:
                    e0:a8:3f:4a:7c:94:fc:e4:18:ee:7b:c8:f8:a8:38:
                    3c:85:5d:3a:f8:8b:5c:62:60:cc:5c:73:2d:ea:fc:
                    26:8e:18:c3:5d:6b:dc:8e:10:8d:e1:ae:72:0a:4d:
                    ad:8c:7a:8d:93:08:54:da:62:3d:61:95:25:a0:df:
                    eb:78:f9:bc:30:48:97:b8:3d:93:80:96:15:07:f0:
                    6a:38:00:8c:b6:2f:d4:de:d5:3a:f2:92:a4:c8:30:
                    de:3c:24:cb:3f:0e:58:44:ec:9c:8a:e5:77:30:d1:
                    5d:ea:4d:18:ff:c1:6c:80:30:ac:f1:8d:26:10:63:
                    6f:e9
                Exponent: 65537 (0x10001)
        X509v3 extensions:
            X509v3 Basic Constraints: 
                CA:FALSE
            X509v3 Subject Key Identifier: 
                AA:88:5B:F5:A9:E2:FF:85:76:60:E7:CD:C8:89:CA:95:45:FA:4C:78
            X509v3 Authority Key Identifier: 
                keyid:35:69:4A:1A:14:21:3E:8C:85:65:51:D5:6D:87:A2:6A:1D:20:71:7A
                DirName:/CN=team377-net
                serial:1F:50:94:6C:0F:48:20:57:8A:6D:B1:C5:F7:03:A3:A3:19:33:37:1E

            X509v3 Extended Key Usage: 
                TLS Web Client Authentication
            X509v3 Key Usage: 
                Digital Signature
    Signature Algorithm: sha256WithRSAEncryption
         2c:96:e4:97:12:41:5c:df:34:1f:1b:88:c7:da:9f:5f:6c:40:
         05:87:3c:e2:f0:cf:64:25:15:ec:fa:68:03:d5:1b:cb:d8:8c:
         48:2f:0d:b3:ab:09:f2:dc:88:f7:9c:f5:fc:17:6a:45:17:f1:
         0f:34:a9:4c:77:f9:58:af:8e:2a:36:ce:95:72:93:5a:00:40:
         69:74:39:db:18:12:08:44:22:73:04:25:db:1c:e9:83:cc:06:
         e6:95:24:2b:1c:85:00:33:77:24:5f:1e:43:77:33:cd:93:65:
         a4:07:7e:7f:74:7d:05:b7:d5:8e:f9:81:76:bd:4e:3d:27:f5:
         c9:b1:7f:85:b6:d5:3f:0e:b2:3d:25:5c:95:21:8a:a7:91:47:
         fa:70:be:dd:da:a0:1e:7b:41:a0:54:9d:23:5a:79:09:11:cc:
         e5:2d:5c:10:23:d8:38:c0:75:17:63:f8:4e:50:f1:eb:2e:f7:
         0a:53:c5:3d:c8:77:e6:99:2e:62:87:9c:e5:b0:06:9b:ae:b2:
         0f:92:c6:51:8a:02:62:a9:7e:58:25:0e:3d:c0:45:6a:f1:92:
         d0:1e:e2:83:b5:6f:58:e8:8b:91:c3:35:fe:c0:7b:a8:b4:10:
         68:7c:9f:33:76:65:bc:60:46:1d:06:0d:2b:6e:2f:87:b8:13:
         60:9e:38:49
-----BEGIN CERTIFICATE-----
MIIDXTCCAkWgAwIBAgIRAJQcFMcDgj1MHKzeaGM9p+wwDQYJKoZIhvcNAQELBQAw
FjEUMBIGA1UEAwwLdGVhbTM3Ny1uZXQwHhcNMjIwNTE4MjAzOTMzWhcNMjUwNTAy
MjAzOTMzWjAZMRcwFQYDVQQDDA50ZWFtMzc3LWNsaWVudDCCASIwDQYJKoZIhvcN
AQEBBQADggEPADCCAQoCggEBAOFJFjfwbzT6cWYcqcMMDIO5g7UGoZIXWfqSf3EB
Dy0Sxo+arS0KGpJvTKFhe4eLH96wSyQfx5OEjM+kQZqfaS3XkOr+yxKjZKJj4v/7
wcAONKhCu7MzFloCu0WQuDGTobrSi3lQ8VsMzKOhlF429n5t7EqlJC9H4UZK31qL
V8P31hxUJNCR4Kg/SnyU/OQY7nvI+Kg4PIVdOviLXGJgzFxzLer8Jo4Yw11r3I4Q
jeGucgpNrYx6jZMIVNpiPWGVJaDf63j5vDBIl7g9k4CWFQfwajgAjLYv1N7VOvKS
pMgw3jwkyz8OWETsnIrldzDRXepNGP/BbIAwrPGNJhBjb+kCAwEAAaOBojCBnzAJ
BgNVHRMEAjAAMB0GA1UdDgQWBBSqiFv1qeL/hXZg583IicqVRfpMeDBRBgNVHSME
SjBIgBQ1aUoaFCE+jIVlUdVth6JqHSBxeqEapBgwFjEUMBIGA1UEAwwLdGVhbTM3
Ny1uZXSCFB9QlGwPSCBXim2xxfcDo6MZMzceMBMGA1UdJQQMMAoGCCsGAQUFBwMC
MAsGA1UdDwQEAwIHgDANBgkqhkiG9w0BAQsFAAOCAQEALJbklxJBXN80HxuIx9qf
X2xABYc84vDPZCUV7PpoA9Uby9iMSC8Ns6sJ8tyI95z1/BdqRRfxDzSpTHf5WK+O
KjbOlXKTWgBAaXQ52xgSCEQicwQl2xzpg8wG5pUkKxyFADN3JF8eQ3czzZNlpAd+
f3R9BbfVjvmBdr1OPSf1ybF/hbbVPw6yPSVclSGKp5FH+nC+3dqgHntBoFSdI1p5
CRHM5S1cECPYOMB1F2P4TlDx6y73ClPFPch35pkuYoec5bAGm66yD5LGUYoCYql+
WCUOPcBFavGS0B7ig7VvWOiLkcM1/sB7qLQQaHyfM3ZlvGBGHQYNK24vh7gTYJ44
SQ==
-----END CERTIFICATE-----
