Certificate:
    Data:
        Version: 3 (0x2)
        Serial Number:
            f1:72:0c:a9:82:5f:43:0d:0a:42:d5:2e:43:5e:5a:45
        Signature Algorithm: sha256WithRSAEncryption
        Issuer: CN=team220-net
        Validity
            Not Before: May 18 19:21:27 2022 GMT
            Not After : May  2 19:21:27 2025 GMT
        Subject: CN=team220-client
        Subject Public Key Info:
            Public Key Algorithm: rsaEncryption
                RSA Public-Key: (2048 bit)
                Modulus:
                    00:db:1a:92:55:a0:2f:eb:ad:3e:56:47:6f:bd:ee:
                    a5:c2:b5:0e:c5:89:78:0f:3e:71:31:e0:da:41:30:
                    b4:70:45:a0:de:27:23:c7:0c:61:6d:5d:01:d8:bc:
                    a7:d4:55:91:05:aa:62:3b:ab:45:3b:f0:73:19:5e:
                    4d:46:3c:16:e6:b8:1d:85:ba:c4:0b:a0:f7:4b:c1:
                    22:c9:53:b3:36:ad:54:c8:80:02:e4:70:53:60:71:
                    27:3b:9f:93:40:3d:89:49:80:23:58:07:48:ee:0b:
                    42:c6:8d:d0:63:a4:33:41:90:64:ac:a3:3d:29:d2:
                    b1:a1:93:e9:d6:8d:c8:78:fa:70:97:26:13:51:fe:
                    31:9f:51:77:a0:74:ac:f5:1c:0a:68:29:d8:87:70:
                    f3:54:76:d6:62:30:4b:24:2d:77:fc:34:94:b4:be:
                    85:fd:53:25:7f:20:72:fc:30:30:62:9d:e9:2c:64:
                    9e:95:32:29:4a:91:cd:1b:a8:37:08:d2:f8:f1:a8:
                    6e:d1:c6:e3:14:fa:e2:4b:e3:77:4c:d1:69:fa:de:
                    5f:4d:c0:46:c3:31:64:a6:57:d0:9c:92:26:a0:69:
                    8c:b9:46:d8:1b:f7:e4:1d:8a:fd:1c:13:47:86:8a:
                    28:5a:2d:ea:83:87:c0:de:67:51:2a:a7:c2:b8:50:
                    68:31
                Exponent: 65537 (0x10001)
        X509v3 extensions:
            X509v3 Basic Constraints: 
                CA:FALSE
            X509v3 Subject Key Identifier: 
                DD:F3:30:A6:C3:30:53:49:AF:C3:98:4C:F8:6F:6B:E4:F3:45:51:15
            X509v3 Authority Key Identifier: 
                keyid:88:7A:A7:78:DC:50:03:07:D9:37:05:BD:B0:84:92:67:25:1B:00:52
                DirName:/CN=team220-net
                serial:15:B5:BE:96:93:A5:2E:C6:7B:3C:BA:7F:38:9E:04:D7:C3:81:EB:5C

            X509v3 Extended Key Usage: 
                TLS Web Client Authentication
            X509v3 Key Usage: 
                Digital Signature
    Signature Algorithm: sha256WithRSAEncryption
         1f:b3:aa:de:49:54:e0:fd:21:8f:24:0a:1c:e8:49:07:00:13:
         af:36:e7:e3:36:63:5d:5c:d7:2b:aa:23:d3:0d:c6:ff:5f:b4:
         e9:65:fe:ac:64:d1:57:7a:f1:98:dd:17:e9:b8:c2:e6:88:0a:
         d9:3f:1a:69:6d:7d:6c:d0:66:16:69:a7:84:fe:af:44:d8:19:
         09:0c:2c:e2:34:d7:1c:ee:2d:82:71:75:bd:e9:e5:8a:28:4e:
         43:f5:59:8f:7f:c3:b7:ea:43:50:9f:66:98:3e:d4:c3:48:91:
         64:d2:11:b6:6d:95:05:ef:0b:2e:8c:31:83:76:89:cf:7e:5e:
         49:15:16:c2:d0:0f:f8:a1:f3:66:1c:3f:a0:ce:73:be:62:d9:
         f8:70:77:58:ac:c1:ba:d8:02:61:36:11:01:42:7b:d3:2d:0b:
         a1:70:54:cd:e0:de:3f:4d:61:48:c6:43:36:70:92:be:6b:4b:
         d0:db:32:fd:39:6c:96:76:63:a7:e1:55:1e:44:64:2d:d5:59:
         aa:a4:5d:bd:5b:3d:23:d6:70:1f:91:a3:19:3c:c0:a0:d5:6d:
         36:eb:e7:4b:40:ea:fb:a1:2a:22:bb:7b:a0:ac:82:9f:42:c3:
         c0:6d:09:f7:29:a6:03:18:1b:ef:b8:cc:0f:76:66:f4:86:00:
         07:f1:ee:b1
-----BEGIN CERTIFICATE-----
MIIDXTCCAkWgAwIBAgIRAPFyDKmCX0MNCkLVLkNeWkUwDQYJKoZIhvcNAQELBQAw
FjEUMBIGA1UEAwwLdGVhbTIyMC1uZXQwHhcNMjIwNTE4MTkyMTI3WhcNMjUwNTAy
MTkyMTI3WjAZMRcwFQYDVQQDDA50ZWFtMjIwLWNsaWVudDCCASIwDQYJKoZIhvcN
AQEBBQADggEPADCCAQoCggEBANsaklWgL+utPlZHb73upcK1DsWJeA8+cTHg2kEw
tHBFoN4nI8cMYW1dAdi8p9RVkQWqYjurRTvwcxleTUY8Fua4HYW6xAug90vBIslT
szatVMiAAuRwU2BxJzufk0A9iUmAI1gHSO4LQsaN0GOkM0GQZKyjPSnSsaGT6daN
yHj6cJcmE1H+MZ9Rd6B0rPUcCmgp2Idw81R21mIwSyQtd/w0lLS+hf1TJX8gcvww
MGKd6SxknpUyKUqRzRuoNwjS+PGobtHG4xT64kvjd0zRafreX03ARsMxZKZX0JyS
JqBpjLlG2Bv35B2K/RwTR4aKKFot6oOHwN5nUSqnwrhQaDECAwEAAaOBojCBnzAJ
BgNVHRMEAjAAMB0GA1UdDgQWBBTd8zCmwzBTSa/DmEz4b2vk80VRFTBRBgNVHSME
SjBIgBSIeqd43FADB9k3Bb2whJJnJRsAUqEapBgwFjEUMBIGA1UEAwwLdGVhbTIy
MC1uZXSCFBW1vpaTpS7Gezy6fzieBNfDgetcMBMGA1UdJQQMMAoGCCsGAQUFBwMC
MAsGA1UdDwQEAwIHgDANBgkqhkiG9w0BAQsFAAOCAQEAH7Oq3klU4P0hjyQKHOhJ
BwATrzbn4zZjXVzXK6oj0w3G/1+06WX+rGTRV3rxmN0X6bjC5ogK2T8aaW19bNBm
FmmnhP6vRNgZCQws4jTXHO4tgnF1venliihOQ/VZj3/Dt+pDUJ9mmD7Uw0iRZNIR
tm2VBe8LLowxg3aJz35eSRUWwtAP+KHzZhw/oM5zvmLZ+HB3WKzButgCYTYRAUJ7
0y0LoXBUzeDeP01hSMZDNnCSvmtL0Nsy/TlslnZjp+FVHkRkLdVZqqRdvVs9I9Zw
H5GjGTzAoNVtNuvnS0Dq+6EqIrt7oKyCn0LDwG0J9ymmAxgb77jMD3Zm9IYAB/Hu
sQ==
-----END CERTIFICATE-----
