Certificate:
    Data:
        Version: 3 (0x2)
        Serial Number:
            24:4f:39:0c:63:6c:0a:3c:9d:ba:28:ef:a8:f9:21:a7
        Signature Algorithm: sha256WithRSAEncryption
        Issuer: CN=team513-net
        Validity
            Not Before: May 18 22:00:42 2022 GMT
            Not After : May  2 22:00:42 2025 GMT
        Subject: CN=team513-client
        Subject Public Key Info:
            Public Key Algorithm: rsaEncryption
                RSA Public-Key: (2048 bit)
                Modulus:
                    00:a6:d1:35:3b:c3:e7:2d:02:31:c1:6f:2c:83:ad:
                    13:34:11:ac:9d:92:27:d8:b5:56:91:3b:72:5d:74:
                    96:f8:98:73:65:dc:ad:3a:3f:5d:8d:ba:6b:48:0d:
                    9b:01:2c:65:3c:ed:98:a2:db:ea:3e:5b:42:99:d5:
                    34:73:f5:b0:62:f2:53:4b:70:b5:26:0d:3a:d0:0d:
                    17:58:80:eb:18:85:9c:a0:bb:1a:70:14:a8:d5:27:
                    b5:d0:b0:f2:7b:03:60:1d:ac:6c:de:7b:f1:d0:f5:
                    90:1e:23:24:f0:76:9a:19:bc:d6:d6:a4:c6:ab:df:
                    77:c4:b6:9e:56:28:41:9e:d2:fd:d8:f0:e4:4d:de:
                    ca:63:6e:56:da:44:18:01:72:3f:62:53:7a:35:cb:
                    c8:b7:b0:3d:8a:8d:fa:0c:24:1b:b9:90:fc:79:17:
                    a0:61:5a:29:9e:04:39:d6:61:fd:a5:45:08:de:e8:
                    17:a6:91:eb:1f:2a:35:46:b7:9a:f3:e6:22:66:7b:
                    0b:36:0a:c4:58:c7:00:ce:11:1d:61:a5:25:73:5a:
                    7c:70:a0:1a:7a:25:9e:65:61:30:67:ad:48:0c:c6:
                    9f:68:ca:b4:3a:9f:1c:97:02:99:fa:7c:7d:5f:07:
                    bd:ca:56:0c:3e:95:d6:ac:b8:b9:bf:31:d6:e6:84:
                    62:e9
                Exponent: 65537 (0x10001)
        X509v3 extensions:
            X509v3 Basic Constraints: 
                CA:FALSE
            X509v3 Subject Key Identifier: 
                85:1E:9A:AC:46:FD:04:65:54:F8:9E:4A:20:22:6D:E5:FE:AE:2C:3B
            X509v3 Authority Key Identifier: 
                keyid:0B:73:AB:5D:19:73:6A:1B:92:AA:BC:60:77:B4:21:4F:92:C1:CE:D9
                DirName:/CN=team513-net
                serial:60:BB:35:0C:CA:87:F1:40:45:DB:D6:49:1B:F7:29:7A:BB:79:5B:BE

            X509v3 Extended Key Usage: 
                TLS Web Client Authentication
            X509v3 Key Usage: 
                Digital Signature
    Signature Algorithm: sha256WithRSAEncryption
         0d:81:3c:63:c1:bb:29:69:7a:9c:e3:0b:f7:11:5c:87:2a:96:
         41:0b:bc:5d:8e:e3:9b:4d:2c:92:d5:4e:b3:f6:20:84:43:1c:
         39:09:fb:9f:fe:41:ec:f4:c0:3b:b3:41:67:17:20:2a:49:28:
         58:0a:b3:2c:62:4a:d2:87:71:02:4d:5e:20:ab:77:9a:e8:43:
         55:42:9d:af:8c:a6:66:d7:60:54:58:97:0c:1f:48:de:06:12:
         9a:ff:cf:c3:37:85:d1:01:36:d7:5f:a3:b1:a4:17:f7:7c:9c:
         0d:37:67:13:53:e5:72:76:90:a2:4d:34:d8:fa:8e:a5:bb:d9:
         a9:bc:a6:af:49:73:58:0d:7e:a3:23:c0:42:1d:81:e2:31:43:
         28:63:71:4d:90:89:31:15:02:c6:a8:fb:56:dd:2d:56:ba:28:
         cd:19:b0:70:63:62:9f:e8:2d:43:c7:4a:6f:b0:a2:c9:61:c1:
         0b:07:b4:11:0a:31:c5:6c:72:52:21:a7:d9:9e:80:bb:d1:18:
         a5:b6:06:f5:40:a7:64:d7:c4:d3:6a:a5:75:6d:ee:b0:09:1f:
         35:87:6d:c7:93:91:c7:ee:fd:d2:ee:9a:6e:fa:2f:23:e8:02:
         6c:ca:a5:71:f1:7b:cb:cf:bc:10:1f:d0:cd:76:af:aa:d6:8f:
         d9:46:e3:d7
-----BEGIN CERTIFICATE-----
MIIDXDCCAkSgAwIBAgIQJE85DGNsCjyduijvqPkhpzANBgkqhkiG9w0BAQsFADAW
MRQwEgYDVQQDDAt0ZWFtNTEzLW5ldDAeFw0yMjA1MTgyMjAwNDJaFw0yNTA1MDIy
MjAwNDJaMBkxFzAVBgNVBAMMDnRlYW01MTMtY2xpZW50MIIBIjANBgkqhkiG9w0B
AQEFAAOCAQ8AMIIBCgKCAQEAptE1O8PnLQIxwW8sg60TNBGsnZIn2LVWkTtyXXSW
+JhzZdytOj9djbprSA2bASxlPO2YotvqPltCmdU0c/WwYvJTS3C1Jg060A0XWIDr
GIWcoLsacBSo1Se10LDyewNgHaxs3nvx0PWQHiMk8HaaGbzW1qTGq993xLaeVihB
ntL92PDkTd7KY25W2kQYAXI/YlN6NcvIt7A9io36DCQbuZD8eRegYVopngQ51mH9
pUUI3ugXppHrHyo1Rrea8+YiZnsLNgrEWMcAzhEdYaUlc1p8cKAaeiWeZWEwZ61I
DMafaMq0Op8clwKZ+nx9Xwe9ylYMPpXWrLi5vzHW5oRi6QIDAQABo4GiMIGfMAkG
A1UdEwQCMAAwHQYDVR0OBBYEFIUemqxG/QRlVPieSiAibeX+riw7MFEGA1UdIwRK
MEiAFAtzq10Zc2obkqq8YHe0IU+Swc7ZoRqkGDAWMRQwEgYDVQQDDAt0ZWFtNTEz
LW5ldIIUYLs1DMqH8UBF29ZJG/cpert5W74wEwYDVR0lBAwwCgYIKwYBBQUHAwIw
CwYDVR0PBAQDAgeAMA0GCSqGSIb3DQEBCwUAA4IBAQANgTxjwbspaXqc4wv3EVyH
KpZBC7xdjuObTSyS1U6z9iCEQxw5Cfuf/kHs9MA7s0FnFyAqSShYCrMsYkrSh3EC
TV4gq3ea6ENVQp2vjKZm12BUWJcMH0jeBhKa/8/DN4XRATbXX6OxpBf3fJwNN2cT
U+VydpCiTTTY+o6lu9mpvKavSXNYDX6jI8BCHYHiMUMoY3FNkIkxFQLGqPtW3S1W
uijNGbBwY2Kf6C1Dx0pvsKLJYcELB7QRCjHFbHJSIafZnoC70Riltgb1QKdk18TT
aqV1be6wCR81h23Hk5HH7v3S7ppu+i8j6AJsyqVx8XvLz7wQH9DNdq+q1o/ZRuPX
-----END CERTIFICATE-----
