Certificate:
    Data:
        Version: 3 (0x2)
        Serial Number:
            24:4e:cc:a7:dc:8d:65:42:4d:77:12:2d:f1:80:54:ff
        Signature Algorithm: sha256WithRSAEncryption
        Issuer: CN=team338-net
        Validity
            Not Before: May 18 20:30:21 2022 GMT
            Not After : May  2 20:30:21 2025 GMT
        Subject: CN=team338-client
        Subject Public Key Info:
            Public Key Algorithm: rsaEncryption
                RSA Public-Key: (2048 bit)
                Modulus:
                    00:de:4d:c4:52:21:c9:e6:2b:de:d7:0a:71:8a:f8:
                    02:8a:74:e9:8a:5c:8d:31:38:d6:c2:06:82:e0:92:
                    6c:2b:10:4d:6b:f6:03:c2:96:5e:24:17:2f:de:a4:
                    7b:38:f7:08:4c:da:aa:f7:9f:7c:5e:4b:0f:a8:9c:
                    82:57:67:ac:4a:0d:92:c6:bc:ba:f2:c3:0b:10:c5:
                    3e:20:dc:d4:55:10:94:48:44:4a:06:f6:f4:73:fa:
                    cb:45:12:23:9d:45:ed:19:6b:85:ff:31:58:93:6c:
                    6b:4d:b8:00:82:55:13:98:3a:df:30:38:6d:9f:73:
                    82:2a:fc:27:76:87:93:0b:c6:21:2e:0a:3b:f9:73:
                    e4:70:db:76:a9:29:34:3a:45:89:93:2b:0b:b6:96:
                    45:d7:cd:76:9d:11:cd:5a:31:7a:2e:1b:57:0e:b0:
                    73:2b:5d:59:cc:6d:2d:cb:ef:d6:e7:01:ef:30:36:
                    eb:cf:54:96:20:34:25:55:e6:d6:29:39:8e:0f:34:
                    ff:f8:8e:c2:4d:8f:a2:4e:e9:f9:3f:de:47:00:7f:
                    47:c7:a7:1e:53:32:b2:d1:38:be:f9:be:6a:e1:03:
                    9f:e0:28:a5:47:6a:13:b0:c9:52:d7:04:a9:dd:be:
                    0c:e7:a6:c5:bc:46:52:6b:20:8d:14:cd:3d:26:db:
                    31:33
                Exponent: 65537 (0x10001)
        X509v3 extensions:
            X509v3 Basic Constraints: 
                CA:FALSE
            X509v3 Subject Key Identifier: 
                00:01:02:78:40:45:A9:D5:9F:4C:B3:CF:1B:39:27:7A:F1:A0:66:F1
            X509v3 Authority Key Identifier: 
                keyid:39:B6:A2:66:8F:75:7C:5B:CE:CF:FE:9E:CF:49:93:AB:D7:1F:D9:17
                DirName:/CN=team338-net
                serial:3B:65:E3:EB:8C:5D:9E:14:DC:B8:6C:2A:34:39:6E:D2:41:C6:CD:B3

            X509v3 Extended Key Usage: 
                TLS Web Client Authentication
            X509v3 Key Usage: 
                Digital Signature
    Signature Algorithm: sha256WithRSAEncryption
         51:69:92:2b:60:fb:53:2d:da:1f:83:8d:8f:f6:77:5d:7e:8b:
         dc:6a:22:40:5b:ba:f9:6b:dc:69:21:a8:8a:e8:60:ba:3f:80:
         4d:b2:1e:a8:ed:8f:1c:bb:2b:32:fe:62:41:0f:8a:f6:d3:2a:
         8c:81:82:e6:15:1f:c0:74:97:5e:eb:77:40:a4:e2:52:ff:3d:
         79:10:ce:2c:48:aa:ad:88:04:f9:78:8a:64:5c:ed:c5:69:9a:
         52:98:27:a6:54:18:e7:8d:35:d7:c9:2c:9d:fc:2b:39:10:51:
         39:93:3a:5f:c6:e7:55:02:c1:73:dc:96:4a:c6:ab:57:4c:8f:
         af:d0:ef:7c:b2:8d:5e:d9:09:d4:6a:5c:f8:f4:8b:a8:b8:b6:
         e5:19:7a:3d:d5:2e:b6:7d:f2:57:dd:81:44:74:11:ea:45:b6:
         33:c7:cf:e0:ad:d0:eb:99:77:af:09:0b:2b:db:22:24:14:6d:
         70:f6:91:45:25:bc:25:0d:c6:43:36:bd:4e:33:3d:4d:38:e2:
         f2:f2:6c:6d:30:bc:8e:4e:e7:52:42:cc:83:ed:9d:23:bd:36:
         72:05:53:35:e9:ff:1f:0a:5d:5e:f9:47:43:81:fc:1e:74:4a:
         5c:c2:38:6a:17:99:00:9b:4f:15:2a:d6:5e:8a:19:88:29:54:
         be:81:79:8c
-----BEGIN CERTIFICATE-----
MIIDXDCCAkSgAwIBAgIQJE7Mp9yNZUJNdxIt8YBU/zANBgkqhkiG9w0BAQsFADAW
MRQwEgYDVQQDDAt0ZWFtMzM4LW5ldDAeFw0yMjA1MTgyMDMwMjFaFw0yNTA1MDIy
MDMwMjFaMBkxFzAVBgNVBAMMDnRlYW0zMzgtY2xpZW50MIIBIjANBgkqhkiG9w0B
AQEFAAOCAQ8AMIIBCgKCAQEA3k3EUiHJ5ive1wpxivgCinTpilyNMTjWwgaC4JJs
KxBNa/YDwpZeJBcv3qR7OPcITNqq9598XksPqJyCV2esSg2Sxry68sMLEMU+INzU
VRCUSERKBvb0c/rLRRIjnUXtGWuF/zFYk2xrTbgAglUTmDrfMDhtn3OCKvwndoeT
C8YhLgo7+XPkcNt2qSk0OkWJkysLtpZF1812nRHNWjF6LhtXDrBzK11ZzG0ty+/W
5wHvMDbrz1SWIDQlVebWKTmODzT/+I7CTY+iTun5P95HAH9Hx6ceUzKy0Ti++b5q
4QOf4CilR2oTsMlS1wSp3b4M56bFvEZSayCNFM09JtsxMwIDAQABo4GiMIGfMAkG
A1UdEwQCMAAwHQYDVR0OBBYEFAABAnhARanVn0yzzxs5J3rxoGbxMFEGA1UdIwRK
MEiAFDm2omaPdXxbzs/+ns9Jk6vXH9kXoRqkGDAWMRQwEgYDVQQDDAt0ZWFtMzM4
LW5ldIIUO2Xj64xdnhTcuGwqNDlu0kHGzbMwEwYDVR0lBAwwCgYIKwYBBQUHAwIw
CwYDVR0PBAQDAgeAMA0GCSqGSIb3DQEBCwUAA4IBAQBRaZIrYPtTLdofg42P9ndd
fovcaiJAW7r5a9xpIaiK6GC6P4BNsh6o7Y8cuysy/mJBD4r20yqMgYLmFR/AdJde
63dApOJS/z15EM4sSKqtiAT5eIpkXO3FaZpSmCemVBjnjTXXySyd/Cs5EFE5kzpf
xudVAsFz3JZKxqtXTI+v0O98so1e2QnUalz49IuouLblGXo91S62ffJX3YFEdBHq
RbYzx8/grdDrmXevCQsr2yIkFG1w9pFFJbwlDcZDNr1OMz1NOOLy8mxtMLyOTudS
QsyD7Z0jvTZyBVM16f8fCl1e+UdDgfwedEpcwjhqF5kAm08VKtZeihmIKVS+gXmM
-----END CERTIFICATE-----
