Certificate:
    Data:
        Version: 3 (0x2)
        Serial Number:
            e2:38:1b:28:35:e9:db:de:69:02:d4:1f:eb:b5:94:02
        Signature Algorithm: sha256WithRSAEncryption
        Issuer: CN=team237-net
        Validity
            Not Before: May 18 19:22:38 2022 GMT
            Not After : May  2 19:22:38 2025 GMT
        Subject: CN=team237-server
        Subject Public Key Info:
            Public Key Algorithm: rsaEncryption
                RSA Public-Key: (2048 bit)
                Modulus:
                    00:ed:93:99:0a:4f:27:31:40:9f:c4:bf:d3:c9:64:
                    44:84:cc:01:b1:17:e5:c0:6b:01:68:ba:79:d9:5a:
                    82:c2:6e:05:22:be:cb:49:37:ef:18:60:33:69:66:
                    da:3d:42:34:2e:9c:be:0e:13:69:59:ce:36:7a:17:
                    f8:02:0b:d0:17:45:41:77:cb:b0:a9:4b:fc:fe:f7:
                    38:f7:09:41:70:60:08:28:ac:4c:a4:4a:a8:7c:04:
                    b7:22:2b:ee:17:dc:41:aa:13:e0:58:e1:70:dd:12:
                    69:bb:ac:71:37:b1:43:ec:52:80:8f:07:05:08:0d:
                    de:80:6c:87:a4:b0:fc:36:33:60:7f:d9:4f:47:7f:
                    de:45:0e:62:c3:67:42:e0:48:72:0e:56:1c:2d:8a:
                    0e:b9:0c:70:52:38:34:fc:79:84:fa:60:b4:9f:4d:
                    0c:27:97:7b:75:fe:24:47:24:60:0a:b8:00:44:4b:
                    52:d2:d0:f7:27:f3:49:3b:93:c8:75:f0:13:c0:13:
                    86:5e:e1:64:fb:de:2b:32:65:d8:46:a8:40:74:d4:
                    13:ed:ba:65:33:08:11:61:cd:56:2c:93:7d:50:bc:
                    84:2f:9d:32:d3:d6:e7:a4:d0:c9:9d:8c:dc:f7:b6:
                    5c:bc:c4:2e:0f:31:6c:40:56:13:b5:2b:39:d3:03:
                    05:39
                Exponent: 65537 (0x10001)
        X509v3 extensions:
            X509v3 Basic Constraints: 
                CA:FALSE
            X509v3 Subject Key Identifier: 
                E9:7A:6E:EE:AF:5F:97:AE:B5:07:2B:06:72:B5:B5:2E:EE:EB:AB:8B
            X509v3 Authority Key Identifier: 
                keyid:BB:4C:14:99:45:37:D5:82:AF:8C:5C:94:09:2A:45:4F:21:97:10:1D
                DirName:/CN=team237-net
                serial:4F:08:AE:43:B9:A6:34:5C:E9:CE:5D:2F:A8:B7:12:E4:DD:22:E9:44

            X509v3 Extended Key Usage: 
                TLS Web Server Authentication
            X509v3 Key Usage: 
                Digital Signature, Key Encipherment
            X509v3 Subject Alternative Name: 
                DNS:team237-server
    Signature Algorithm: sha256WithRSAEncryption
         a4:c3:c5:9d:9a:2b:34:a3:f1:ea:6f:cc:e1:39:ec:24:67:39:
         93:17:db:cd:dc:2e:9a:87:a7:a5:49:4d:48:54:13:7b:2f:ec:
         76:9d:56:49:dc:09:aa:2c:c2:95:1a:a2:4d:28:48:e6:4c:e8:
         82:55:65:8b:38:a0:8b:71:a1:c5:46:c1:05:84:e0:6e:2b:76:
         d9:41:a3:6d:ca:40:44:13:bc:7b:3b:fa:5c:ad:8c:cb:76:ad:
         8d:a8:d3:28:35:de:05:16:0f:88:91:a6:95:f0:1c:11:ca:09:
         f4:df:32:dd:a0:ab:fb:69:a8:ca:ee:a8:78:6d:50:b2:4d:45:
         a3:b9:ca:d5:a3:61:b0:ba:b2:ae:2e:b7:4e:f6:f5:b8:14:db:
         c1:1f:d6:7a:71:95:3e:70:3c:d7:5f:1d:3b:cc:5f:17:65:ce:
         d0:b1:a9:c2:d1:7d:17:81:46:dd:3b:42:af:8c:2f:67:0b:6d:
         05:7f:36:b8:83:ff:f5:04:fd:aa:5b:9b:87:8a:5e:0d:63:b3:
         a5:8f:1c:a0:87:71:73:85:03:c3:d8:97:6c:50:4d:45:7f:2a:
         c7:c6:01:54:af:79:72:1a:2a:f1:81:75:22:b6:1e:2e:ef:78:
         47:a5:84:cf:14:9d:27:97:90:a7:a6:05:a4:62:14:f3:f8:d8:
         04:0c:44:fa
-----BEGIN CERTIFICATE-----
MIIDeDCCAmCgAwIBAgIRAOI4Gyg16dveaQLUH+u1lAIwDQYJKoZIhvcNAQELBQAw
FjEUMBIGA1UEAwwLdGVhbTIzNy1uZXQwHhcNMjIwNTE4MTkyMjM4WhcNMjUwNTAy
MTkyMjM4WjAZMRcwFQYDVQQDDA50ZWFtMjM3LXNlcnZlcjCCASIwDQYJKoZIhvcN
AQEBBQADggEPADCCAQoCggEBAO2TmQpPJzFAn8S/08lkRITMAbEX5cBrAWi6edla
gsJuBSK+y0k37xhgM2lm2j1CNC6cvg4TaVnONnoX+AIL0BdFQXfLsKlL/P73OPcJ
QXBgCCisTKRKqHwEtyIr7hfcQaoT4FjhcN0SabuscTexQ+xSgI8HBQgN3oBsh6Sw
/DYzYH/ZT0d/3kUOYsNnQuBIcg5WHC2KDrkMcFI4NPx5hPpgtJ9NDCeXe3X+JEck
YAq4AERLUtLQ9yfzSTuTyHXwE8AThl7hZPveKzJl2EaoQHTUE+26ZTMIEWHNViyT
fVC8hC+dMtPW56TQyZ2M3Pe2XLzELg8xbEBWE7UrOdMDBTkCAwEAAaOBvTCBujAJ
BgNVHRMEAjAAMB0GA1UdDgQWBBTpem7ur1+XrrUHKwZytbUu7uurizBRBgNVHSME
SjBIgBS7TBSZRTfVgq+MXJQJKkVPIZcQHaEapBgwFjEUMBIGA1UEAwwLdGVhbTIz
Ny1uZXSCFE8IrkO5pjRc6c5dL6i3EuTdIulEMBMGA1UdJQQMMAoGCCsGAQUFBwMB
MAsGA1UdDwQEAwIFoDAZBgNVHREEEjAQgg50ZWFtMjM3LXNlcnZlcjANBgkqhkiG
9w0BAQsFAAOCAQEApMPFnZorNKPx6m/M4TnsJGc5kxfbzdwumoenpUlNSFQTey/s
dp1WSdwJqizClRqiTShI5kzoglVlizigi3GhxUbBBYTgbit22UGjbcpARBO8ezv6
XK2My3atjajTKDXeBRYPiJGmlfAcEcoJ9N8y3aCr+2moyu6oeG1Qsk1Fo7nK1aNh
sLqyri63Tvb1uBTbwR/WenGVPnA8118dO8xfF2XO0LGpwtF9F4FG3TtCr4wvZwtt
BX82uIP/9QT9qlubh4peDWOzpY8coIdxc4UDw9iXbFBNRX8qx8YBVK95choq8YF1
IrYeLu94R6WEzxSdJ5eQp6YFpGIU8/jYBAxE+g==
-----END CERTIFICATE-----
