Certificate:
    Data:
        Version: 3 (0x2)
        Serial Number:
            5a:f7:e5:68:77:01:50:45:eb:8f:95:80:84:e5:65
        Signature Algorithm: sha256WithRSAEncryption
        Issuer: CN=team695-net
        Validity
            Not Before: May 18 23:29:27 2022 GMT
            Not After : May  2 23:29:27 2025 GMT
        Subject: CN=team695-server
        Subject Public Key Info:
            Public Key Algorithm: rsaEncryption
                RSA Public-Key: (2048 bit)
                Modulus:
                    00:b2:58:1a:5b:e3:a9:27:b4:39:bd:53:b6:2c:19:
                    fe:2f:78:7d:bb:3e:e9:ff:29:61:56:ba:7f:8b:5f:
                    9b:70:65:c9:a8:c5:3e:40:76:2e:fe:4f:29:5b:14:
                    17:f9:02:aa:44:15:4f:38:fe:69:8a:3e:16:c0:81:
                    9b:4b:39:a3:3c:f5:dc:ee:9b:01:71:f5:7d:5b:c4:
                    b6:3b:26:64:da:94:c9:f7:41:a4:b0:bc:cf:46:ec:
                    d5:39:13:66:2e:fa:dd:86:e6:c1:f6:7d:2d:fb:66:
                    22:6b:4c:ee:65:df:1a:0f:94:51:57:bd:15:64:06:
                    ac:a8:64:5d:5c:9a:d5:2d:14:55:6b:db:65:0a:d9:
                    da:bf:ca:01:95:95:26:e6:02:07:fb:4b:8a:f3:fc:
                    51:f0:b5:38:c1:d2:50:05:7f:65:88:53:b7:ee:4e:
                    44:69:a6:38:9d:3c:24:b8:42:ee:16:02:6a:f3:2a:
                    b4:fd:36:44:b6:71:be:3a:bc:23:9e:d9:80:71:c7:
                    b6:b3:19:0e:7c:bb:5e:8e:07:c2:e7:7c:84:c4:7b:
                    96:81:a2:70:c0:e0:c0:cc:b4:04:52:db:fd:a5:70:
                    6c:7c:3b:80:11:b9:97:7e:e1:a5:a8:8b:66:8f:26:
                    fe:f3:27:e2:1d:ef:60:d8:37:ac:4b:9a:b2:62:a5:
                    be:7f
                Exponent: 65537 (0x10001)
        X509v3 extensions:
            X509v3 Basic Constraints: 
                CA:FALSE
            X509v3 Subject Key Identifier: 
                E3:DE:AC:59:A3:44:51:9D:19:E4:99:F0:22:16:E5:3D:FF:3C:C0:E2
            X509v3 Authority Key Identifier: 
                keyid:42:C4:9E:70:AF:06:9F:BA:2B:42:C0:00:DA:06:31:86:09:A0:BD:F1
                DirName:/CN=team695-net
                serial:52:8A:56:A0:22:21:5B:5C:84:AA:25:D5:A8:F8:E9:15:C4:ED:C4:1C

            X509v3 Extended Key Usage: 
                TLS Web Server Authentication
            X509v3 Key Usage: 
                Digital Signature, Key Encipherment
            X509v3 Subject Alternative Name: 
                DNS:team695-server
    Signature Algorithm: sha256WithRSAEncryption
         14:8a:10:68:e2:3d:7e:4b:e8:eb:a6:9f:44:5b:14:3d:09:76:
         eb:87:90:90:f6:9e:80:34:50:a5:b5:ff:57:fd:3b:8e:ee:5f:
         39:e1:96:6a:6a:c6:38:c0:f1:62:0d:97:c3:51:40:2b:47:9e:
         69:91:c4:2d:e8:c5:56:18:d5:e9:d1:5f:35:51:5e:a8:9c:c9:
         53:a0:b7:b1:cc:6d:ff:fb:c6:64:81:01:ef:66:6f:a3:60:7c:
         f4:ef:40:3a:3b:25:d4:f3:f9:7a:73:5a:3b:d2:f5:20:ea:ef:
         da:f0:a0:bb:11:84:86:1d:e7:a8:4b:29:a6:fe:53:8f:9e:bf:
         76:0a:73:2c:cf:46:71:ec:1d:26:7c:ea:57:f9:75:28:61:84:
         86:ae:37:eb:a8:9f:65:83:35:2e:8f:62:58:48:12:67:35:bd:
         3a:58:90:a0:99:76:05:47:05:5b:3e:c9:bc:78:e1:d0:28:97:
         ed:af:73:e6:08:67:c8:23:ce:a6:ae:8e:a4:7c:2a:4f:73:fe:
         f1:84:81:fa:0a:e6:31:a2:a7:e4:a6:20:b3:57:5f:bf:d5:95:
         7d:d9:d9:72:3d:89:7c:c5:a8:75:2a:9f:2a:80:1e:0f:a7:e0:
         8d:65:90:39:65:38:ec:dd:f4:84:0f:07:43:fe:c7:51:6a:e7:
         29:3b:26:83
-----BEGIN CERTIFICATE-----
MIIDdjCCAl6gAwIBAgIPWvflaHcBUEXrj5WAhOVlMA0GCSqGSIb3DQEBCwUAMBYx
FDASBgNVBAMMC3RlYW02OTUtbmV0MB4XDTIyMDUxODIzMjkyN1oXDTI1MDUwMjIz
MjkyN1owGTEXMBUGA1UEAwwOdGVhbTY5NS1zZXJ2ZXIwggEiMA0GCSqGSIb3DQEB
AQUAA4IBDwAwggEKAoIBAQCyWBpb46kntDm9U7YsGf4veH27Pun/KWFWun+LX5tw
ZcmoxT5Adi7+TylbFBf5AqpEFU84/mmKPhbAgZtLOaM89dzumwFx9X1bxLY7JmTa
lMn3QaSwvM9G7NU5E2Yu+t2G5sH2fS37ZiJrTO5l3xoPlFFXvRVkBqyoZF1cmtUt
FFVr22UK2dq/ygGVlSbmAgf7S4rz/FHwtTjB0lAFf2WIU7fuTkRppjidPCS4Qu4W
AmrzKrT9NkS2cb46vCOe2YBxx7azGQ58u16OB8LnfITEe5aBonDA4MDMtARS2/2l
cGx8O4ARuZd+4aWoi2aPJv7zJ+Id72DYN6xLmrJipb5/AgMBAAGjgb0wgbowCQYD
VR0TBAIwADAdBgNVHQ4EFgQU496sWaNEUZ0Z5JnwIhblPf88wOIwUQYDVR0jBEow
SIAUQsSecK8Gn7orQsAA2gYxhgmgvfGhGqQYMBYxFDASBgNVBAMMC3RlYW02OTUt
bmV0ghRSilagIiFbXISqJdWo+OkVxO3EHDATBgNVHSUEDDAKBggrBgEFBQcDATAL
BgNVHQ8EBAMCBaAwGQYDVR0RBBIwEIIOdGVhbTY5NS1zZXJ2ZXIwDQYJKoZIhvcN
AQELBQADggEBABSKEGjiPX5L6Oumn0RbFD0JduuHkJD2noA0UKW1/1f9O47uXznh
lmpqxjjA8WINl8NRQCtHnmmRxC3oxVYY1enRXzVRXqicyVOgt7HMbf/7xmSBAe9m
b6NgfPTvQDo7JdTz+XpzWjvS9SDq79rwoLsRhIYd56hLKab+U4+ev3YKcyzPRnHs
HSZ86lf5dShhhIauN+uon2WDNS6PYlhIEmc1vTpYkKCZdgVHBVs+ybx44dAol+2v
c+YIZ8gjzqaujqR8Kk9z/vGEgfoK5jGip+SmILNXX7/VlX3Z2XI9iXzFqHUqnyqA
Hg+n4I1lkDllOOzd9IQPB0P+x1Fq5yk7JoM=
-----END CERTIFICATE-----
