Certificate:
    Data:
        Version: 3 (0x2)
        Serial Number:
            79:1b:e3:c7:c2:c0:5c:8e:f3:82:93:d4:08:2e:58:2b
        Signature Algorithm: sha256WithRSAEncryption
        Issuer: CN=team579-net
        Validity
            Not Before: May 18 22:30:43 2022 GMT
            Not After : May  2 22:30:43 2025 GMT
        Subject: CN=team579-client
        Subject Public Key Info:
            Public Key Algorithm: rsaEncryption
                RSA Public-Key: (2048 bit)
                Modulus:
                    00:c6:db:ab:49:b2:00:29:68:75:ac:be:af:c0:8e:
                    63:98:da:1b:6f:55:3b:ff:33:3f:5d:92:d3:8a:11:
                    13:1f:70:5e:c8:41:6f:51:25:11:12:45:84:75:c9:
                    ba:77:dc:bc:61:a8:a7:64:ce:14:7c:0d:20:ff:94:
                    5a:9f:40:84:99:3a:4b:2e:4d:f2:cf:60:9f:2a:e1:
                    97:ba:ba:3a:41:6d:1b:a0:dc:da:33:5d:c0:0e:a4:
                    85:7e:fb:13:4d:f7:c1:24:e2:d5:8c:0d:81:3c:6d:
                    e8:1b:b9:29:ba:c8:fa:5e:7f:46:f6:be:f9:88:08:
                    b8:bb:86:1e:a5:69:b4:6c:a1:27:68:73:bc:c8:6b:
                    d4:f9:ca:7a:78:c4:a4:40:a0:d6:7b:6f:15:e8:b8:
                    91:8f:a9:06:4e:66:c8:5b:dd:91:2d:78:f2:ce:dd:
                    c1:74:35:83:bb:02:af:38:66:e9:a5:8a:67:ad:11:
                    e0:d2:70:2d:04:59:2d:53:4a:58:be:44:e0:60:12:
                    82:a7:2b:5e:25:f8:2b:d2:3a:19:56:23:44:4c:5e:
                    66:eb:81:f4:46:9f:23:e3:8b:5e:57:ea:00:fa:cc:
                    d7:0b:65:22:ac:1d:dc:2d:95:47:a8:63:16:bf:7b:
                    a1:d4:a0:bb:cf:7e:72:f5:9a:d3:83:d8:8b:0f:71:
                    b7:1f
                Exponent: 65537 (0x10001)
        X509v3 extensions:
            X509v3 Basic Constraints: 
                CA:FALSE
            X509v3 Subject Key Identifier: 
                50:8A:54:40:85:E2:6E:8F:35:DB:F1:FA:E8:A7:9F:3C:A5:86:D3:29
            X509v3 Authority Key Identifier: 
                keyid:60:67:93:92:DF:E4:9D:58:9D:ED:19:AE:D3:62:05:8E:9E:3D:43:DA
                DirName:/CN=team579-net
                serial:08:E6:56:65:1C:D5:92:BD:C5:EF:5F:E7:F2:39:47:95:E0:5D:A2:54

            X509v3 Extended Key Usage: 
                TLS Web Client Authentication
            X509v3 Key Usage: 
                Digital Signature
    Signature Algorithm: sha256WithRSAEncryption
         54:2b:18:3b:8c:b4:19:b0:62:1a:52:7f:47:06:cd:53:d0:9d:
         42:1a:b1:a7:9a:27:11:be:c5:1c:9b:f0:af:2e:d3:51:49:51:
         ba:03:fe:a9:b8:c6:70:6e:b7:b5:1a:6d:f3:8e:39:c2:17:17:
         b1:1f:85:87:de:ff:b2:fa:cc:5b:29:1c:25:27:97:ab:8e:48:
         15:3d:3c:1f:a0:8d:57:a6:f5:f9:3f:26:45:12:01:76:f6:d9:
         14:76:50:f2:38:45:f2:48:d1:60:eb:5a:9c:d2:1e:db:83:32:
         9c:2b:2a:fc:13:9b:f8:1d:d2:fb:47:29:cb:62:8c:b2:42:ad:
         55:27:91:0b:76:a7:53:d3:60:db:d4:c8:cf:d9:92:fd:db:97:
         c1:c1:ea:95:f5:9a:c4:97:27:f8:42:cf:bf:be:63:18:28:a8:
         82:d8:09:33:00:6a:92:fb:b1:af:d6:98:7b:9e:59:05:2e:f7:
         b4:75:55:c0:5e:41:c4:32:8e:a7:aa:f8:60:ce:7e:03:c1:42:
         e0:52:53:e3:97:8b:60:40:4e:98:b5:91:9d:72:93:9d:67:13:
         20:6c:11:b9:56:22:99:72:50:58:49:20:80:46:e4:72:61:31:
         b0:c2:97:b1:03:f1:73:c4:dd:2f:45:f2:fd:03:ef:0a:65:73:
         a6:cb:5b:d3
-----BEGIN CERTIFICATE-----
MIIDXDCCAkSgAwIBAgIQeRvjx8LAXI7zgpPUCC5YKzANBgkqhkiG9w0BAQsFADAW
MRQwEgYDVQQDDAt0ZWFtNTc5LW5ldDAeFw0yMjA1MTgyMjMwNDNaFw0yNTA1MDIy
MjMwNDNaMBkxFzAVBgNVBAMMDnRlYW01NzktY2xpZW50MIIBIjANBgkqhkiG9w0B
AQEFAAOCAQ8AMIIBCgKCAQEAxturSbIAKWh1rL6vwI5jmNobb1U7/zM/XZLTihET
H3BeyEFvUSUREkWEdcm6d9y8YainZM4UfA0g/5Ran0CEmTpLLk3yz2CfKuGXuro6
QW0boNzaM13ADqSFfvsTTffBJOLVjA2BPG3oG7kpusj6Xn9G9r75iAi4u4YepWm0
bKEnaHO8yGvU+cp6eMSkQKDWe28V6LiRj6kGTmbIW92RLXjyzt3BdDWDuwKvOGbp
pYpnrRHg0nAtBFktU0pYvkTgYBKCpyteJfgr0joZViNETF5m64H0Rp8j44teV+oA
+szXC2UirB3cLZVHqGMWv3uh1KC7z35y9ZrTg9iLD3G3HwIDAQABo4GiMIGfMAkG
A1UdEwQCMAAwHQYDVR0OBBYEFFCKVECF4m6PNdvx+uinnzylhtMpMFEGA1UdIwRK
MEiAFGBnk5Lf5J1Yne0ZrtNiBY6ePUPaoRqkGDAWMRQwEgYDVQQDDAt0ZWFtNTc5
LW5ldIIUCOZWZRzVkr3F71/n8jlHleBdolQwEwYDVR0lBAwwCgYIKwYBBQUHAwIw
CwYDVR0PBAQDAgeAMA0GCSqGSIb3DQEBCwUAA4IBAQBUKxg7jLQZsGIaUn9HBs1T
0J1CGrGnmicRvsUcm/CvLtNRSVG6A/6puMZwbre1Gm3zjjnCFxexH4WH3v+y+sxb
KRwlJ5erjkgVPTwfoI1XpvX5PyZFEgF29tkUdlDyOEXySNFg61qc0h7bgzKcKyr8
E5v4HdL7RynLYoyyQq1VJ5ELdqdT02Db1MjP2ZL925fBweqV9ZrElyf4Qs+/vmMY
KKiC2AkzAGqS+7Gv1ph7nlkFLve0dVXAXkHEMo6nqvhgzn4DwULgUlPjl4tgQE6Y
tZGdcpOdZxMgbBG5ViKZclBYSSCARuRyYTGwwpexA/FzxN0vRfL9A+8KZXOmy1vT
-----END CERTIFICATE-----
