Certificate:
    Data:
        Version: 3 (0x2)
        Serial Number:
            82:4e:3e:e9:40:af:7f:0a:b0:41:85:80:76:92:4d:7e
        Signature Algorithm: sha256WithRSAEncryption
        Issuer: CN=team579-net
        Validity
            Not Before: May 18 22:30:43 2022 GMT
            Not After : May  2 22:30:43 2025 GMT
        Subject: CN=team579-server
        Subject Public Key Info:
            Public Key Algorithm: rsaEncryption
                RSA Public-Key: (2048 bit)
                Modulus:
                    00:b6:af:41:3c:ff:08:16:63:83:cb:f3:14:d9:e6:
                    eb:f2:40:9e:b7:0b:72:5e:c4:49:b6:23:82:81:90:
                    24:a5:7f:b2:5b:f7:08:67:83:0b:3c:ce:e9:09:fb:
                    52:92:5e:73:6e:ac:e4:fe:a0:f1:f6:74:e0:a3:cf:
                    8d:2c:5a:39:2d:f6:d3:75:0e:08:6f:7d:82:5d:5a:
                    ab:db:b0:99:3c:cc:6f:43:c4:8a:6d:75:2c:d9:19:
                    77:0a:b3:51:ee:91:2b:26:af:23:bb:63:39:6e:55:
                    ce:1b:37:90:1c:75:78:5e:1e:f8:73:ed:fc:33:33:
                    5b:a5:bc:de:73:43:bf:d8:a5:d7:58:51:5a:34:3e:
                    50:8b:ad:8d:16:85:22:6b:37:c6:85:4c:72:90:44:
                    fe:61:f3:a6:6d:99:21:2d:ac:26:ac:54:7e:cd:96:
                    b4:55:67:a4:64:b7:47:17:0d:61:6d:e7:8a:c9:77:
                    85:bd:a4:6e:cb:26:a3:69:79:bb:7a:27:9c:10:50:
                    94:14:60:de:45:3f:ba:92:2d:ad:76:5e:ba:71:b9:
                    a0:88:08:27:9d:28:88:cb:6c:e7:5a:72:cd:02:da:
                    6d:fb:5e:df:50:7d:3e:b3:93:bd:07:88:f6:f8:66:
                    84:50:4e:47:b4:3a:06:f7:87:a5:96:7d:4f:be:8c:
                    ea:05
                Exponent: 65537 (0x10001)
        X509v3 extensions:
            X509v3 Basic Constraints: 
                CA:FALSE
            X509v3 Subject Key Identifier: 
                19:0A:43:E3:86:1B:81:5F:E4:E4:3D:CE:59:88:29:2A:CF:65:DF:6D
            X509v3 Authority Key Identifier: 
                keyid:60:67:93:92:DF:E4:9D:58:9D:ED:19:AE:D3:62:05:8E:9E:3D:43:DA
                DirName:/CN=team579-net
                serial:08:E6:56:65:1C:D5:92:BD:C5:EF:5F:E7:F2:39:47:95:E0:5D:A2:54

            X509v3 Extended Key Usage: 
                TLS Web Server Authentication
            X509v3 Key Usage: 
                Digital Signature, Key Encipherment
            X509v3 Subject Alternative Name: 
                DNS:team579-server
    Signature Algorithm: sha256WithRSAEncryption
         2e:24:05:9a:8a:48:e7:89:ab:e3:a0:2f:3d:67:00:e6:17:25:
         ed:8e:73:65:69:b4:93:d2:2a:40:60:e8:f5:44:60:d8:5b:31:
         11:66:b9:72:a5:73:81:2a:b5:9b:3e:65:01:92:6d:54:f4:5c:
         a4:1e:5b:30:c8:74:9f:36:f6:da:3d:83:c8:f4:e5:10:b5:a5:
         82:5d:dd:de:a8:5a:f9:85:7d:a8:32:0c:2e:70:b3:8c:2a:57:
         f2:d7:3c:b3:a6:32:59:05:74:79:f1:39:ae:38:4f:be:56:b0:
         09:50:07:0f:e7:92:8c:cd:34:07:79:b9:53:4f:dd:fa:a1:1e:
         28:1f:a3:ab:ba:e4:ef:a4:15:6a:65:cb:13:9a:2b:94:a0:55:
         e4:73:ba:27:a5:da:df:38:02:cd:2d:ce:44:e7:a0:64:c2:b8:
         41:e2:0b:2b:98:0a:3b:11:2e:b5:b4:56:57:6a:6f:fd:e7:27:
         52:ee:a9:70:8f:7b:60:cf:15:49:0d:bc:6b:df:f8:1d:67:25:
         18:32:7e:b7:dc:e6:44:9f:53:46:6a:00:1f:23:7b:21:95:ff:
         21:65:ad:5b:85:14:f6:9e:99:63:7c:18:0d:c8:18:16:c2:25:
         77:90:ac:ad:64:33:5f:e4:a8:4b:aa:37:3e:61:f0:bf:d0:e3:
         4e:7e:fb:90
-----BEGIN CERTIFICATE-----
MIIDeDCCAmCgAwIBAgIRAIJOPulAr38KsEGFgHaSTX4wDQYJKoZIhvcNAQELBQAw
FjEUMBIGA1UEAwwLdGVhbTU3OS1uZXQwHhcNMjIwNTE4MjIzMDQzWhcNMjUwNTAy
MjIzMDQzWjAZMRcwFQYDVQQDDA50ZWFtNTc5LXNlcnZlcjCCASIwDQYJKoZIhvcN
AQEBBQADggEPADCCAQoCggEBALavQTz/CBZjg8vzFNnm6/JAnrcLcl7ESbYjgoGQ
JKV/slv3CGeDCzzO6Qn7UpJec26s5P6g8fZ04KPPjSxaOS3203UOCG99gl1aq9uw
mTzMb0PEim11LNkZdwqzUe6RKyavI7tjOW5Vzhs3kBx1eF4e+HPt/DMzW6W83nND
v9il11hRWjQ+UIutjRaFIms3xoVMcpBE/mHzpm2ZIS2sJqxUfs2WtFVnpGS3RxcN
YW3nisl3hb2kbssmo2l5u3onnBBQlBRg3kU/upItrXZeunG5oIgIJ50oiMts51py
zQLabfte31B9PrOTvQeI9vhmhFBOR7Q6BveHpZZ9T76M6gUCAwEAAaOBvTCBujAJ
BgNVHRMEAjAAMB0GA1UdDgQWBBQZCkPjhhuBX+TkPc5ZiCkqz2XfbTBRBgNVHSME
SjBIgBRgZ5OS3+SdWJ3tGa7TYgWOnj1D2qEapBgwFjEUMBIGA1UEAwwLdGVhbTU3
OS1uZXSCFAjmVmUc1ZK9xe9f5/I5R5XgXaJUMBMGA1UdJQQMMAoGCCsGAQUFBwMB
MAsGA1UdDwQEAwIFoDAZBgNVHREEEjAQgg50ZWFtNTc5LXNlcnZlcjANBgkqhkiG
9w0BAQsFAAOCAQEALiQFmopI54mr46AvPWcA5hcl7Y5zZWm0k9IqQGDo9URg2Fsx
EWa5cqVzgSq1mz5lAZJtVPRcpB5bMMh0nzb22j2DyPTlELWlgl3d3qha+YV9qDIM
LnCzjCpX8tc8s6YyWQV0efE5rjhPvlawCVAHD+eSjM00B3m5U0/d+qEeKB+jq7rk
76QVamXLE5orlKBV5HO6J6Xa3zgCzS3OROegZMK4QeILK5gKOxEutbRWV2pv/ecn
Uu6pcI97YM8VSQ28a9/4HWclGDJ+t9zmRJ9TRmoAHyN7IZX/IWWtW4UU9p6ZY3wY
DcgYFsIld5CsrWQzX+SoS6o3PmHwv9DjTn77kA==
-----END CERTIFICATE-----
