Certificate:
    Data:
        Version: 3 (0x2)
        Serial Number:
            8f:91:88:ed:41:d6:42:c0:ab:c8:cc:3c:eb:19:3b:e2
        Signature Algorithm: sha256WithRSAEncryption
        Issuer: CN=team550-net
        Validity
            Not Before: May 18 22:12:52 2022 GMT
            Not After : May  2 22:12:52 2025 GMT
        Subject: CN=team550-server
        Subject Public Key Info:
            Public Key Algorithm: rsaEncryption
                RSA Public-Key: (2048 bit)
                Modulus:
                    00:ba:a9:10:86:97:cb:4d:8a:24:8b:0a:ec:43:d5:
                    f4:ca:3f:ad:b1:65:01:89:b1:8e:af:fd:13:7f:c5:
                    7f:dc:08:1a:2b:f5:c3:a4:9e:c2:6c:90:22:c3:8e:
                    e3:c4:19:1f:5c:53:af:ff:a1:72:9a:3f:aa:77:0e:
                    a3:7b:f5:a9:55:a5:76:84:b3:f0:07:91:94:7d:37:
                    cb:0d:89:9b:d0:2f:99:d2:0e:96:95:7d:70:b0:c1:
                    75:88:66:04:c0:91:bb:04:78:50:0f:ee:d8:cd:9a:
                    67:09:4e:88:93:df:fb:c8:33:34:f9:c4:2f:99:bf:
                    fc:34:66:39:71:21:8b:45:dc:70:10:94:62:03:01:
                    81:4d:f5:d4:4b:8a:a5:86:9e:f1:25:af:26:91:35:
                    0a:19:76:89:ed:63:5b:26:58:5a:72:52:ac:32:52:
                    80:77:e7:f8:50:ce:93:3f:ae:a3:bf:cb:c7:86:60:
                    8e:ae:d6:ef:bc:b0:7d:6c:79:0a:7f:5a:05:5f:bd:
                    56:90:d2:4a:d6:7c:fd:18:c0:01:f1:0a:21:f4:09:
                    0b:da:c7:3d:d9:57:87:0b:63:7a:8e:43:d5:a9:4c:
                    8e:82:32:6f:4b:87:9d:c5:2b:de:cc:20:63:12:ad:
                    4d:2e:4f:8e:47:3a:5d:cd:ad:5c:cb:b9:c7:3c:27:
                    16:1d
                Exponent: 65537 (0x10001)
        X509v3 extensions:
            X509v3 Basic Constraints: 
                CA:FALSE
            X509v3 Subject Key Identifier: 
                AD:9E:71:2A:E8:4F:23:56:55:ED:45:F1:18:47:90:CF:7A:AF:2A:B9
            X509v3 Authority Key Identifier: 
                keyid:3A:07:EF:B2:B1:53:78:B4:7D:91:0D:40:11:67:9C:91:B6:B6:76:E0
                DirName:/CN=team550-net
                serial:65:CE:A8:7B:D7:0D:E8:19:92:AC:E0:1C:16:B6:34:1B:BD:ED:8F:76

            X509v3 Extended Key Usage: 
                TLS Web Server Authentication
            X509v3 Key Usage: 
                Digital Signature, Key Encipherment
            X509v3 Subject Alternative Name: 
                DNS:team550-server
    Signature Algorithm: sha256WithRSAEncryption
         96:0c:b1:e5:6d:fc:e6:a2:dd:c4:d0:75:0d:86:85:7a:de:ec:
         c4:03:c5:7d:83:9f:7e:5e:91:e4:22:53:48:1e:69:9d:13:54:
         38:82:5b:47:94:2e:bc:cd:7b:6c:4e:c1:76:bd:df:a2:02:be:
         ee:e7:20:f3:7b:3d:88:ff:d2:fa:4b:aa:10:92:1e:d3:c5:f1:
         d2:0f:e7:45:32:e7:00:9d:83:c9:ab:3f:1c:ae:3c:c3:fa:56:
         e8:84:b5:1a:c5:5c:2d:c0:9d:5a:35:56:9e:4f:bd:c3:e6:b7:
         89:88:ff:ab:75:13:cd:e1:3c:d7:34:0b:90:5d:ad:b6:ab:d0:
         0e:67:2e:5d:87:55:56:d6:14:ce:c5:3a:5d:3c:e4:73:a3:2e:
         3f:15:fd:1e:73:d8:d8:c3:2a:8b:1a:ee:84:70:9c:51:35:62:
         06:7a:7a:fc:9a:22:5a:55:34:25:47:69:51:16:38:ee:f8:67:
         8b:9e:1f:3d:06:7f:5e:59:2e:5d:95:43:28:23:06:ad:f6:3f:
         53:21:5e:e9:28:7e:0d:5e:a4:b7:33:45:77:77:9b:e4:d9:64:
         d3:8e:b5:8e:b0:be:b8:40:a3:f6:e2:ac:11:d0:53:bf:11:2c:
         dd:d7:14:b9:5b:b3:de:7e:91:c1:62:9c:83:9f:cb:29:55:ed:
         e6:87:90:3d
-----BEGIN CERTIFICATE-----
MIIDeDCCAmCgAwIBAgIRAI+RiO1B1kLAq8jMPOsZO+IwDQYJKoZIhvcNAQELBQAw
FjEUMBIGA1UEAwwLdGVhbTU1MC1uZXQwHhcNMjIwNTE4MjIxMjUyWhcNMjUwNTAy
MjIxMjUyWjAZMRcwFQYDVQQDDA50ZWFtNTUwLXNlcnZlcjCCASIwDQYJKoZIhvcN
AQEBBQADggEPADCCAQoCggEBALqpEIaXy02KJIsK7EPV9Mo/rbFlAYmxjq/9E3/F
f9wIGiv1w6SewmyQIsOO48QZH1xTr/+hcpo/qncOo3v1qVWldoSz8AeRlH03yw2J
m9AvmdIOlpV9cLDBdYhmBMCRuwR4UA/u2M2aZwlOiJPf+8gzNPnEL5m//DRmOXEh
i0XccBCUYgMBgU311EuKpYae8SWvJpE1Chl2ie1jWyZYWnJSrDJSgHfn+FDOkz+u
o7/Lx4Zgjq7W77ywfWx5Cn9aBV+9VpDSStZ8/RjAAfEKIfQJC9rHPdlXhwtjeo5D
1alMjoIyb0uHncUr3swgYxKtTS5Pjkc6Xc2tXMu5xzwnFh0CAwEAAaOBvTCBujAJ
BgNVHRMEAjAAMB0GA1UdDgQWBBStnnEq6E8jVlXtRfEYR5DPeq8quTBRBgNVHSME
SjBIgBQ6B++ysVN4tH2RDUARZ5yRtrZ24KEapBgwFjEUMBIGA1UEAwwLdGVhbTU1
MC1uZXSCFGXOqHvXDegZkqzgHBa2NBu97Y92MBMGA1UdJQQMMAoGCCsGAQUFBwMB
MAsGA1UdDwQEAwIFoDAZBgNVHREEEjAQgg50ZWFtNTUwLXNlcnZlcjANBgkqhkiG
9w0BAQsFAAOCAQEAlgyx5W385qLdxNB1DYaFet7sxAPFfYOffl6R5CJTSB5pnRNU
OIJbR5QuvM17bE7Bdr3fogK+7ucg83s9iP/S+kuqEJIe08Xx0g/nRTLnAJ2Dyas/
HK48w/pW6IS1GsVcLcCdWjVWnk+9w+a3iYj/q3UTzeE81zQLkF2ttqvQDmcuXYdV
VtYUzsU6XTzkc6MuPxX9HnPY2MMqixruhHCcUTViBnp6/JoiWlU0JUdpURY47vhn
i54fPQZ/XlkuXZVDKCMGrfY/UyFe6Sh+DV6ktzNFd3eb5Nlk0461jrC+uECj9uKs
EdBTvxEs3dcUuVuz3n6RwWKcg5/LKVXt5oeQPQ==
-----END CERTIFICATE-----
