Certificate:
    Data:
        Version: 3 (0x2)
        Serial Number:
            fd:c6:4d:ff:c5:a1:91:34:d2:3d:e2:8d:fe:25:41:37
        Signature Algorithm: sha256WithRSAEncryption
        Issuer: CN=team155-net
        Validity
            Not Before: May 18 18:44:35 2022 GMT
            Not After : May  2 18:44:35 2025 GMT
        Subject: CN=team155-client
        Subject Public Key Info:
            Public Key Algorithm: rsaEncryption
                RSA Public-Key: (2048 bit)
                Modulus:
                    00:ad:a9:f9:96:69:4d:d3:dc:cf:09:4d:6a:4c:a6:
                    3f:95:71:86:b4:c1:ce:ef:c7:1d:f1:f5:d8:5c:ac:
                    a0:6e:ad:d8:26:40:73:2f:ef:4f:29:03:f0:67:83:
                    1e:b1:5d:8f:71:c1:35:c5:15:61:20:bd:63:4e:94:
                    d1:cc:bf:1d:c3:eb:8f:24:39:8d:c5:ae:18:5f:f5:
                    e3:1d:23:e2:6c:ab:26:fd:95:90:96:76:5b:e0:00:
                    4c:d5:f7:e3:c9:0d:b3:a8:bc:fb:cd:43:8d:19:56:
                    c1:cf:67:16:8a:86:c5:57:8c:c1:f3:e5:5b:ea:5b:
                    cf:4c:55:e9:90:99:d0:01:16:f1:85:f6:c2:1c:ea:
                    f1:4b:19:64:ab:96:06:12:b7:e1:87:ad:87:05:11:
                    ec:0e:80:2c:33:36:c3:58:b9:b5:2d:bc:32:c4:47:
                    7f:e2:f2:ee:7c:90:b5:17:28:86:d1:48:9f:c6:8e:
                    c8:46:b1:65:62:17:f0:f6:ac:74:b1:b0:34:6e:86:
                    44:eb:6f:64:48:66:d7:19:6b:90:65:9b:07:c7:13:
                    08:19:52:b8:ee:e2:ba:6c:09:f2:3e:29:57:22:b2:
                    cd:77:54:2a:3e:79:5f:b5:4c:19:78:6b:5c:fd:f3:
                    d0:a9:31:05:81:72:e1:c1:eb:e7:d0:57:81:c0:b9:
                    66:e5
                Exponent: 65537 (0x10001)
        X509v3 extensions:
            X509v3 Basic Constraints: 
                CA:FALSE
            X509v3 Subject Key Identifier: 
                2D:A2:8D:7E:51:56:71:8C:F3:5B:2F:8A:AC:3A:41:93:35:E3:8F:C7
            X509v3 Authority Key Identifier: 
                keyid:60:C2:86:2E:7B:5A:68:B0:3D:69:D4:FF:DA:51:E0:69:D6:EE:3F:A6
                DirName:/CN=team155-net
                serial:30:8D:4B:4C:1D:99:B7:D9:B1:72:D6:9C:16:6D:C4:E9:C8:30:63:FF

            X509v3 Extended Key Usage: 
                TLS Web Client Authentication
            X509v3 Key Usage: 
                Digital Signature
    Signature Algorithm: sha256WithRSAEncryption
         47:2b:8c:01:39:27:da:19:8a:f2:d5:66:c7:84:42:18:b2:45:
         1b:02:ad:90:39:c5:b8:78:2b:96:33:60:55:e3:9f:a0:35:3b:
         c0:be:dc:0d:c4:6f:63:b2:b3:b4:91:1d:7b:05:af:64:01:dd:
         d6:4f:25:34:65:20:1f:3c:9c:1d:22:c9:a8:d8:2a:2a:f6:4c:
         0d:df:0f:6c:ee:55:69:64:6c:39:df:87:0b:b9:56:36:c4:e7:
         61:01:d0:9a:ce:f6:75:d9:54:91:09:a7:46:49:ba:67:49:a1:
         cd:fd:90:cf:d2:0a:09:44:89:5d:55:51:b1:48:78:e3:99:48:
         6e:90:4c:32:36:e8:a4:4c:6f:cc:50:54:ab:37:5b:f8:df:2c:
         66:b8:da:e2:98:79:a8:55:88:2f:75:77:92:a6:32:d8:a0:1c:
         77:2f:c0:c5:00:e5:26:2a:8e:34:3b:d2:c9:f8:84:d4:0d:09:
         7c:9d:17:32:0b:24:31:fd:d3:e3:40:35:f7:e2:8e:77:c4:2b:
         f9:6d:90:d6:c8:70:86:9c:9b:12:01:ce:fa:db:df:8f:4f:15:
         e4:a0:c4:3a:86:de:e4:b6:df:37:84:ff:14:7f:53:12:6e:85:
         66:ba:f5:a8:0a:c5:d1:2d:32:ad:87:df:cf:04:66:de:22:34:
         5a:09:48:9f
-----BEGIN CERTIFICATE-----
MIIDXTCCAkWgAwIBAgIRAP3GTf/FoZE00j3ijf4lQTcwDQYJKoZIhvcNAQELBQAw
FjEUMBIGA1UEAwwLdGVhbTE1NS1uZXQwHhcNMjIwNTE4MTg0NDM1WhcNMjUwNTAy
MTg0NDM1WjAZMRcwFQYDVQQDDA50ZWFtMTU1LWNsaWVudDCCASIwDQYJKoZIhvcN
AQEBBQADggEPADCCAQoCggEBAK2p+ZZpTdPczwlNakymP5VxhrTBzu/HHfH12Fys
oG6t2CZAcy/vTykD8GeDHrFdj3HBNcUVYSC9Y06U0cy/HcPrjyQ5jcWuGF/14x0j
4myrJv2VkJZ2W+AATNX348kNs6i8+81DjRlWwc9nFoqGxVeMwfPlW+pbz0xV6ZCZ
0AEW8YX2whzq8UsZZKuWBhK34YethwUR7A6ALDM2w1i5tS28MsRHf+Ly7nyQtRco
htFIn8aOyEaxZWIX8PasdLGwNG6GROtvZEhm1xlrkGWbB8cTCBlSuO7iumwJ8j4p
VyKyzXdUKj55X7VMGXhrXP3z0KkxBYFy4cHr59BXgcC5ZuUCAwEAAaOBojCBnzAJ
BgNVHRMEAjAAMB0GA1UdDgQWBBQtoo1+UVZxjPNbL4qsOkGTNeOPxzBRBgNVHSME
SjBIgBRgwoYue1posD1p1P/aUeBp1u4/pqEapBgwFjEUMBIGA1UEAwwLdGVhbTE1
NS1uZXSCFDCNS0wdmbfZsXLWnBZtxOnIMGP/MBMGA1UdJQQMMAoGCCsGAQUFBwMC
MAsGA1UdDwQEAwIHgDANBgkqhkiG9w0BAQsFAAOCAQEARyuMATkn2hmK8tVmx4RC
GLJFGwKtkDnFuHgrljNgVeOfoDU7wL7cDcRvY7KztJEdewWvZAHd1k8lNGUgHzyc
HSLJqNgqKvZMDd8PbO5VaWRsOd+HC7lWNsTnYQHQms72ddlUkQmnRkm6Z0mhzf2Q
z9IKCUSJXVVRsUh445lIbpBMMjbopExvzFBUqzdb+N8sZrja4ph5qFWIL3V3kqYy
2KAcdy/AxQDlJiqONDvSyfiE1A0JfJ0XMgskMf3T40A19+KOd8Qr+W2Q1shwhpyb
EgHO+tvfj08V5KDEOobe5LbfN4T/FH9TEm6FZrr1qArF0S0yrYffzwRm3iI0WglI
nw==
-----END CERTIFICATE-----
