Certificate:
    Data:
        Version: 3 (0x2)
        Serial Number:
            07:a2:6a:af:ad:d2:c9:3f:44:ae:cf:2f:f6:7d:17:a0
        Signature Algorithm: sha256WithRSAEncryption
        Issuer: CN=team649-net
        Validity
            Not Before: May 18 23:02:34 2022 GMT
            Not After : May  2 23:02:34 2025 GMT
        Subject: CN=team649-client
        Subject Public Key Info:
            Public Key Algorithm: rsaEncryption
                RSA Public-Key: (2048 bit)
                Modulus:
                    00:eb:f5:7f:be:e4:dc:80:9d:10:1e:8c:9a:f3:b7:
                    67:d1:27:a4:d0:35:87:b9:61:16:77:5b:f5:38:bc:
                    c6:e6:d9:01:01:6c:d1:bc:aa:d4:5c:66:4c:77:62:
                    e2:20:59:0e:0c:94:39:7f:8a:19:96:73:7a:23:17:
                    08:0f:0a:a5:4c:59:7e:2e:a2:43:c1:95:44:b8:37:
                    ae:d7:56:6d:78:7f:f1:23:e3:4a:12:8e:77:46:31:
                    1b:85:f1:31:54:df:3d:21:63:ff:02:35:a8:c8:30:
                    d8:e6:73:86:92:9d:a3:24:8c:4c:b4:55:3c:28:07:
                    76:63:09:ea:9f:2d:90:34:ba:f4:b6:ec:a3:e2:78:
                    07:15:60:ae:1a:07:44:f4:6d:3a:70:a1:b7:fe:7b:
                    e7:25:d2:36:75:09:30:d0:02:47:b3:ae:f6:0b:3f:
                    6d:e0:20:56:46:98:79:c3:ee:d6:31:87:f5:8b:1e:
                    39:cd:3d:c3:69:cf:dd:dc:c3:9a:4d:52:63:7b:34:
                    20:75:0d:06:b1:62:07:48:72:04:fa:03:b6:94:43:
                    fe:ab:df:53:b0:d8:e8:86:e1:f2:89:41:bc:e0:24:
                    5c:7f:78:b3:f0:d1:fe:66:89:c9:31:e2:95:8e:a9:
                    0c:72:90:43:c9:76:da:b0:42:09:e9:a5:45:59:66:
                    64:5d
                Exponent: 65537 (0x10001)
        X509v3 extensions:
            X509v3 Basic Constraints: 
                CA:FALSE
            X509v3 Subject Key Identifier: 
                91:61:1F:B7:A9:0D:9E:88:94:DD:B4:71:40:0E:52:D9:9B:94:01:83
            X509v3 Authority Key Identifier: 
                keyid:0F:2E:5C:90:4D:44:84:F8:E0:DF:57:5E:AC:0A:D3:00:D6:8D:90:1B
                DirName:/CN=team649-net
                serial:03:48:DB:97:8F:C7:AB:E4:94:1C:43:2A:F6:8A:C0:C6:07:A8:19:BD

            X509v3 Extended Key Usage: 
                TLS Web Client Authentication
            X509v3 Key Usage: 
                Digital Signature
    Signature Algorithm: sha256WithRSAEncryption
         c1:cc:35:6c:ae:48:02:da:a0:3b:e5:cb:1c:41:c3:61:3d:71:
         7d:a5:61:2b:95:be:b6:75:73:c4:63:ab:46:d2:9d:d3:ae:be:
         c2:8d:09:43:a8:32:f1:a9:9c:57:1a:11:c9:bf:67:38:3c:44:
         6c:b3:cf:03:57:30:ca:46:3b:36:10:cb:58:ca:b1:f4:5b:36:
         47:3b:15:23:35:15:7b:1c:8b:25:78:ed:68:7a:4b:9a:88:d8:
         d7:f8:76:3d:e1:10:64:c1:93:b0:d5:81:cd:4f:28:c3:cc:5e:
         47:2c:ee:ef:7d:78:a0:90:40:f5:0b:d0:10:60:7a:7e:02:ea:
         68:b8:c5:35:e6:0b:b7:c4:ae:a8:3f:48:ba:85:7e:64:be:09:
         52:2a:53:95:0c:90:48:76:59:3f:a7:42:30:bd:20:7f:ad:4d:
         df:61:49:d2:ca:eb:a3:f2:75:b1:c8:73:cc:86:66:3a:b7:80:
         9e:8c:7a:af:16:eb:af:29:3f:2e:bf:d3:a8:bb:a5:0f:38:35:
         4e:b5:4e:aa:f6:e8:d3:60:fa:6c:4f:80:a9:0e:b6:fa:ab:a0:
         07:a0:22:86:89:50:ac:44:0a:89:24:0d:d8:18:f8:ce:43:be:
         0c:ca:57:cc:55:21:48:0b:72:31:a0:e3:9d:f5:ac:ed:70:18:
         7b:b5:e7:64
-----BEGIN CERTIFICATE-----
MIIDXDCCAkSgAwIBAgIQB6Jqr63SyT9Ers8v9n0XoDANBgkqhkiG9w0BAQsFADAW
MRQwEgYDVQQDDAt0ZWFtNjQ5LW5ldDAeFw0yMjA1MTgyMzAyMzRaFw0yNTA1MDIy
MzAyMzRaMBkxFzAVBgNVBAMMDnRlYW02NDktY2xpZW50MIIBIjANBgkqhkiG9w0B
AQEFAAOCAQ8AMIIBCgKCAQEA6/V/vuTcgJ0QHoya87dn0Sek0DWHuWEWd1v1OLzG
5tkBAWzRvKrUXGZMd2LiIFkODJQ5f4oZlnN6IxcIDwqlTFl+LqJDwZVEuDeu11Zt
eH/xI+NKEo53RjEbhfExVN89IWP/AjWoyDDY5nOGkp2jJIxMtFU8KAd2Ywnqny2Q
NLr0tuyj4ngHFWCuGgdE9G06cKG3/nvnJdI2dQkw0AJHs672Cz9t4CBWRph5w+7W
MYf1ix45zT3Dac/d3MOaTVJjezQgdQ0GsWIHSHIE+gO2lEP+q99TsNjohuHyiUG8
4CRcf3iz8NH+ZonJMeKVjqkMcpBDyXbasEIJ6aVFWWZkXQIDAQABo4GiMIGfMAkG
A1UdEwQCMAAwHQYDVR0OBBYEFJFhH7epDZ6IlN20cUAOUtmblAGDMFEGA1UdIwRK
MEiAFA8uXJBNRIT44N9XXqwK0wDWjZAboRqkGDAWMRQwEgYDVQQDDAt0ZWFtNjQ5
LW5ldIIUA0jbl4/Hq+SUHEMq9orAxgeoGb0wEwYDVR0lBAwwCgYIKwYBBQUHAwIw
CwYDVR0PBAQDAgeAMA0GCSqGSIb3DQEBCwUAA4IBAQDBzDVsrkgC2qA75cscQcNh
PXF9pWErlb62dXPEY6tG0p3Trr7CjQlDqDLxqZxXGhHJv2c4PERss88DVzDKRjs2
EMtYyrH0WzZHOxUjNRV7HIsleO1oekuaiNjX+HY94RBkwZOw1YHNTyjDzF5HLO7v
fXigkED1C9AQYHp+AupouMU15gu3xK6oP0i6hX5kvglSKlOVDJBIdlk/p0IwvSB/
rU3fYUnSyuuj8nWxyHPMhmY6t4CejHqvFuuvKT8uv9Oou6UPODVOtU6q9ujTYPps
T4CpDrb6q6AHoCKGiVCsRAqJJA3YGPjOQ74MylfMVSFIC3IxoOOd9aztcBh7tedk
-----END CERTIFICATE-----
