Certificate:
    Data:
        Version: 3 (0x2)
        Serial Number:
            43:de:79:59:ee:3d:13:b3:55:dd:4a:1d:a0:17:37:b4
        Signature Algorithm: sha256WithRSAEncryption
        Issuer: CN=team223-net
        Validity
            Not Before: May 18 19:13:51 2022 GMT
            Not After : May  2 19:13:51 2025 GMT
        Subject: CN=team223-server
        Subject Public Key Info:
            Public Key Algorithm: rsaEncryption
                RSA Public-Key: (2048 bit)
                Modulus:
                    00:d4:3b:ae:90:a9:13:2f:1c:4b:c8:d5:6f:1d:89:
                    49:05:e5:b4:26:74:6e:35:19:43:3b:b1:f1:c3:b4:
                    22:78:17:47:67:4b:60:34:14:27:28:86:56:d4:5f:
                    f0:26:3d:77:53:cd:f7:db:fa:e7:63:fc:17:46:a8:
                    48:15:dc:06:2f:2b:a6:3f:67:c0:21:43:02:f5:1f:
                    ff:74:c4:f9:31:d9:77:1e:87:6c:ed:b1:a5:15:d8:
                    96:1c:9b:74:53:05:3f:6c:6b:98:6e:b2:5c:2e:e1:
                    df:82:f4:20:cd:16:e2:70:b4:81:1b:45:60:67:23:
                    c3:d0:87:8a:e1:e2:bb:9b:b7:e6:37:8d:9d:04:6c:
                    e0:a3:41:16:12:d9:74:a5:75:cb:ab:b5:fd:0d:03:
                    43:9d:14:a0:98:47:ba:d7:99:38:4e:03:7a:c6:12:
                    ab:7f:1d:ad:ae:c2:be:ce:fb:d2:09:09:32:d4:48:
                    d0:01:f9:bb:7e:ed:12:87:1b:c9:48:ec:69:65:4f:
                    61:64:e9:c9:13:4f:28:80:82:e8:6a:a6:ab:c9:94:
                    4c:60:0f:11:20:24:da:75:8e:1a:c3:1e:8d:ef:3d:
                    f3:7a:b5:78:50:35:c5:eb:5a:a0:46:04:67:35:70:
                    d0:f7:0a:63:21:d9:4b:92:87:9e:cc:50:21:94:f9:
                    49:f9
                Exponent: 65537 (0x10001)
        X509v3 extensions:
            X509v3 Basic Constraints: 
                CA:FALSE
            X509v3 Subject Key Identifier: 
                AF:8B:EC:3E:60:B1:85:A3:C9:C3:33:B6:29:45:54:2C:D7:1C:77:A5
            X509v3 Authority Key Identifier: 
                keyid:FB:DD:C6:0C:72:23:5B:22:23:D6:B9:F9:49:10:3A:5F:6B:52:0C:76
                DirName:/CN=team223-net
                serial:2D:38:0F:67:79:DD:56:62:76:96:9C:75:39:B4:E4:7A:F9:3A:9C:8F

            X509v3 Extended Key Usage: 
                TLS Web Server Authentication
            X509v3 Key Usage: 
                Digital Signature, Key Encipherment
            X509v3 Subject Alternative Name: 
                DNS:team223-server
    Signature Algorithm: sha256WithRSAEncryption
         8a:29:44:31:ef:68:13:34:a1:33:c7:4a:6c:91:2d:5a:c2:8c:
         15:2c:61:89:16:25:c9:86:71:69:40:fe:5e:b3:6d:d8:89:75:
         f5:f8:d0:2b:0a:fa:41:b3:e1:3d:b7:88:72:8c:be:ae:28:50:
         78:7e:05:74:a0:ad:37:c7:1a:1f:49:28:aa:ae:9c:57:04:3e:
         b1:c2:fb:b2:06:65:3f:67:d3:ad:b6:fa:fa:99:d0:ab:43:42:
         fe:49:b6:01:e6:a3:0a:7a:a2:47:04:43:f5:c1:df:33:d4:01:
         44:43:e4:97:a3:18:7d:c0:2a:e6:09:3a:98:43:53:23:62:50:
         4d:96:b0:59:73:d5:0e:d4:ec:3a:f3:1b:d2:60:b0:25:2e:20:
         a9:6f:e8:f3:e5:cd:72:34:d6:16:07:54:a7:0f:00:35:08:d0:
         f2:a4:d3:b7:76:75:b7:e8:7d:0c:dd:92:46:5e:5e:8f:41:9d:
         03:13:e8:94:86:0f:7a:c3:13:81:42:86:62:dd:e0:01:f4:25:
         be:f5:f3:d7:ba:be:bf:35:12:44:16:04:48:7e:12:fa:82:3c:
         b4:8c:61:7d:47:6c:12:bf:29:34:5a:94:56:35:a9:5a:65:9e:
         96:a1:78:4c:4b:47:dd:09:60:8f:56:72:96:2b:01:d2:18:98:
         b6:e5:7c:6d
-----BEGIN CERTIFICATE-----
MIIDdzCCAl+gAwIBAgIQQ955We49E7NV3UodoBc3tDANBgkqhkiG9w0BAQsFADAW
MRQwEgYDVQQDDAt0ZWFtMjIzLW5ldDAeFw0yMjA1MTgxOTEzNTFaFw0yNTA1MDIx
OTEzNTFaMBkxFzAVBgNVBAMMDnRlYW0yMjMtc2VydmVyMIIBIjANBgkqhkiG9w0B
AQEFAAOCAQ8AMIIBCgKCAQEA1DuukKkTLxxLyNVvHYlJBeW0JnRuNRlDO7Hxw7Qi
eBdHZ0tgNBQnKIZW1F/wJj13U8332/rnY/wXRqhIFdwGLyumP2fAIUMC9R//dMT5
Mdl3Hods7bGlFdiWHJt0UwU/bGuYbrJcLuHfgvQgzRbicLSBG0VgZyPD0IeK4eK7
m7fmN42dBGzgo0EWEtl0pXXLq7X9DQNDnRSgmEe615k4TgN6xhKrfx2trsK+zvvS
CQky1EjQAfm7fu0ShxvJSOxpZU9hZOnJE08ogILoaqaryZRMYA8RICTadY4awx6N
7z3zerV4UDXF61qgRgRnNXDQ9wpjIdlLkoeezFAhlPlJ+QIDAQABo4G9MIG6MAkG
A1UdEwQCMAAwHQYDVR0OBBYEFK+L7D5gsYWjycMztilFVCzXHHelMFEGA1UdIwRK
MEiAFPvdxgxyI1siI9a5+UkQOl9rUgx2oRqkGDAWMRQwEgYDVQQDDAt0ZWFtMjIz
LW5ldIIULTgPZ3ndVmJ2lpx1ObTkevk6nI8wEwYDVR0lBAwwCgYIKwYBBQUHAwEw
CwYDVR0PBAQDAgWgMBkGA1UdEQQSMBCCDnRlYW0yMjMtc2VydmVyMA0GCSqGSIb3
DQEBCwUAA4IBAQCKKUQx72gTNKEzx0pskS1awowVLGGJFiXJhnFpQP5es23YiXX1
+NArCvpBs+E9t4hyjL6uKFB4fgV0oK03xxofSSiqrpxXBD6xwvuyBmU/Z9Ottvr6
mdCrQ0L+SbYB5qMKeqJHBEP1wd8z1AFEQ+SXoxh9wCrmCTqYQ1MjYlBNlrBZc9UO
1Ow68xvSYLAlLiCpb+jz5c1yNNYWB1SnDwA1CNDypNO3dnW36H0M3ZJGXl6PQZ0D
E+iUhg96wxOBQoZi3eAB9CW+9fPXur6/NRJEFgRIfhL6gjy0jGF9R2wSvyk0WpRW
NalaZZ6WoXhMS0fdCWCPVnKWKwHSGJi25Xxt
-----END CERTIFICATE-----
