Certificate:
    Data:
        Version: 3 (0x2)
        Serial Number:
            79:eb:42:8a:97:34:f5:fa:d1:73:7b:5f:a7:73:61:05
        Signature Algorithm: sha256WithRSAEncryption
        Issuer: CN=team218-net
        Validity
            Not Before: May 18 19:21:15 2022 GMT
            Not After : May  2 19:21:15 2025 GMT
        Subject: CN=team218-client
        Subject Public Key Info:
            Public Key Algorithm: rsaEncryption
                RSA Public-Key: (2048 bit)
                Modulus:
                    00:a2:94:1a:6c:7d:d7:25:ea:37:e4:0a:b7:28:de:
                    d3:85:d1:f8:0b:29:1d:71:a7:9d:6f:28:63:9d:c8:
                    36:ca:1d:d6:6f:8c:0e:ed:69:86:5c:47:87:45:63:
                    ad:43:8c:92:98:69:c4:ea:2a:22:23:98:ec:30:50:
                    ac:29:99:a6:e3:2d:d7:58:ac:ae:66:02:30:5b:8f:
                    c0:f3:03:56:39:cb:33:94:a6:ad:c0:1f:cb:d5:1b:
                    9d:48:6d:a6:ab:cb:e3:92:dd:e0:f7:83:68:07:f2:
                    4a:44:b7:a8:8e:15:a4:13:9e:a9:50:32:ef:22:c5:
                    8b:81:9c:61:54:2a:6c:63:50:6e:90:8e:ce:bf:d0:
                    eb:e3:8e:6f:0e:3e:cd:1e:3a:1a:f2:0f:0e:7b:08:
                    8e:d7:71:a3:75:74:24:69:99:e5:d4:85:3b:0a:f0:
                    c9:9c:dc:39:57:bb:91:80:f1:ff:63:dd:c7:4a:c1:
                    57:ee:e1:35:49:2b:22:b5:01:76:6e:62:6c:31:d6:
                    50:ae:21:87:f6:9d:01:a4:61:b7:16:33:a9:0c:e6:
                    92:e3:f9:6f:10:63:0a:15:74:95:fb:d8:83:3c:0c:
                    45:0c:79:66:8c:b7:fe:36:30:ca:0e:8c:5c:1c:c3:
                    c1:97:bb:b3:b8:43:da:cc:45:41:05:4b:e1:ad:b5:
                    2a:1f
                Exponent: 65537 (0x10001)
        X509v3 extensions:
            X509v3 Basic Constraints: 
                CA:FALSE
            X509v3 Subject Key Identifier: 
                ED:A8:B2:BA:C3:C5:D2:AF:E6:AA:99:63:E1:5B:B0:75:86:98:03:DC
            X509v3 Authority Key Identifier: 
                keyid:7D:A6:D8:38:91:77:B0:D1:45:A6:E2:AF:13:D3:1D:7F:50:4C:FC:ED
                DirName:/CN=team218-net
                serial:05:BA:67:6B:8B:CD:35:41:0A:FC:6A:BC:C8:C5:35:86:62:AC:AB:C6

            X509v3 Extended Key Usage: 
                TLS Web Client Authentication
            X509v3 Key Usage: 
                Digital Signature
    Signature Algorithm: sha256WithRSAEncryption
         38:b8:eb:b1:e3:06:d6:9d:77:87:47:56:74:a9:15:59:4d:60:
         b1:28:4f:ae:0b:88:b0:a0:b7:69:c9:aa:70:01:2e:a8:89:b1:
         b2:36:d6:e4:24:30:f0:08:5d:0c:26:1b:a5:08:8e:7f:9b:92:
         70:d9:ab:02:23:fc:a4:c3:4f:79:2d:f6:62:1b:f5:d2:cb:3a:
         38:3d:7c:59:d7:bb:05:86:9b:7f:b7:9d:3a:02:4b:6e:9f:5b:
         e6:fe:57:5c:2b:a1:50:10:d7:07:2b:cd:5c:2e:20:f4:07:bf:
         06:60:0d:1d:b2:4f:7f:aa:c6:44:68:3c:a6:73:04:35:7a:a8:
         6c:46:cb:b9:e1:5b:46:dd:e0:71:6c:d1:87:7c:5d:80:b1:f8:
         68:71:e4:72:7e:e7:19:a9:b0:36:9d:e8:b3:57:4a:06:8a:b9:
         7e:86:5a:e7:57:aa:ea:76:b9:11:bb:64:3f:89:b1:16:58:1b:
         bd:f1:3f:51:9d:c9:2f:11:1a:13:57:9c:6f:c6:ea:76:02:67:
         42:e7:1e:71:bf:9e:c7:af:21:2e:10:9f:96:70:0b:f1:78:09:
         4b:d3:50:e9:12:3a:4d:d8:af:32:d1:61:2e:7c:1b:f0:08:fb:
         0f:53:40:6d:73:1e:16:ce:ed:1d:5d:e3:1f:2e:56:12:6d:6b:
         e8:90:81:b4
-----BEGIN CERTIFICATE-----
MIIDXDCCAkSgAwIBAgIQeetCipc09frRc3tfp3NhBTANBgkqhkiG9w0BAQsFADAW
MRQwEgYDVQQDDAt0ZWFtMjE4LW5ldDAeFw0yMjA1MTgxOTIxMTVaFw0yNTA1MDIx
OTIxMTVaMBkxFzAVBgNVBAMMDnRlYW0yMTgtY2xpZW50MIIBIjANBgkqhkiG9w0B
AQEFAAOCAQ8AMIIBCgKCAQEAopQabH3XJeo35Aq3KN7ThdH4Cykdcaedbyhjncg2
yh3Wb4wO7WmGXEeHRWOtQ4ySmGnE6ioiI5jsMFCsKZmm4y3XWKyuZgIwW4/A8wNW
OcszlKatwB/L1RudSG2mq8vjkt3g94NoB/JKRLeojhWkE56pUDLvIsWLgZxhVCps
Y1BukI7Ov9Dr445vDj7NHjoa8g8OewiO13GjdXQkaZnl1IU7CvDJnNw5V7uRgPH/
Y93HSsFX7uE1SSsitQF2bmJsMdZQriGH9p0BpGG3FjOpDOaS4/lvEGMKFXSV+9iD
PAxFDHlmjLf+NjDKDoxcHMPBl7uzuEPazEVBBUvhrbUqHwIDAQABo4GiMIGfMAkG
A1UdEwQCMAAwHQYDVR0OBBYEFO2osrrDxdKv5qqZY+FbsHWGmAPcMFEGA1UdIwRK
MEiAFH2m2DiRd7DRRabirxPTHX9QTPztoRqkGDAWMRQwEgYDVQQDDAt0ZWFtMjE4
LW5ldIIUBbpna4vNNUEK/Gq8yMU1hmKsq8YwEwYDVR0lBAwwCgYIKwYBBQUHAwIw
CwYDVR0PBAQDAgeAMA0GCSqGSIb3DQEBCwUAA4IBAQA4uOux4wbWnXeHR1Z0qRVZ
TWCxKE+uC4iwoLdpyapwAS6oibGyNtbkJDDwCF0MJhulCI5/m5Jw2asCI/ykw095
LfZiG/XSyzo4PXxZ17sFhpt/t506Aktun1vm/ldcK6FQENcHK81cLiD0B78GYA0d
sk9/qsZEaDymcwQ1eqhsRsu54VtG3eBxbNGHfF2AsfhoceRyfucZqbA2neizV0oG
irl+hlrnV6rqdrkRu2Q/ibEWWBu98T9RnckvERoTV5xvxup2AmdC5x5xv57HryEu
EJ+WcAvxeAlL01DpEjpN2K8y0WEufBvwCPsPU0Btcx4Wzu0dXeMfLlYSbWvokIG0
-----END CERTIFICATE-----
