Certificate:
    Data:
        Version: 3 (0x2)
        Serial Number:
            94:2e:66:8c:79:e2:8c:6d:e2:ed:56:50:37:40:a6:10
        Signature Algorithm: sha256WithRSAEncryption
        Issuer: CN=team26-net
        Validity
            Not Before: May 18 14:04:56 2022 GMT
            Not After : May  2 14:04:56 2025 GMT
        Subject: CN=team26-client
        Subject Public Key Info:
            Public Key Algorithm: rsaEncryption
                RSA Public-Key: (2048 bit)
                Modulus:
                    00:ce:d6:de:69:f7:17:51:ad:e6:c6:06:48:bf:62:
                    d1:a7:2d:aa:cd:4d:8e:d0:8f:79:53:6d:43:93:f7:
                    1f:63:58:f2:81:c0:69:b4:5f:7c:37:18:83:7f:3a:
                    d5:95:1b:15:fa:8f:ef:b1:c8:db:49:ba:77:a9:d7:
                    05:ed:82:b1:f5:d4:aa:13:d8:92:89:54:6b:73:05:
                    87:28:6f:6c:c2:86:c3:53:69:90:c9:0f:a0:b4:55:
                    01:11:cd:0a:ff:06:d3:09:9a:e8:70:22:8a:1e:96:
                    70:06:54:c6:94:b5:c1:fc:0f:27:eb:2f:92:47:10:
                    af:31:45:c9:1f:3b:ef:11:b9:30:1d:7b:7b:93:ea:
                    fc:ad:ef:b8:c7:fb:c5:98:e6:11:e7:43:aa:2b:f4:
                    f6:f4:6b:66:a4:2b:76:6a:8f:26:a0:64:0a:8a:eb:
                    07:09:f6:85:ed:83:a1:aa:80:3f:52:32:b3:92:30:
                    f8:d1:ab:b9:97:ed:13:61:01:6f:64:21:f5:44:c4:
                    1f:76:03:6c:46:37:c6:0a:61:1b:56:70:15:3c:b6:
                    6d:4c:4c:51:6d:bc:ae:cb:4a:7c:7f:4f:45:d1:35:
                    8c:4b:d0:09:89:86:99:8b:46:a4:6a:3b:a3:e1:e1:
                    06:8c:21:a4:ee:05:20:4b:f7:14:45:58:b2:7f:7e:
                    06:0f
                Exponent: 65537 (0x10001)
        X509v3 extensions:
            X509v3 Basic Constraints: 
                CA:FALSE
            X509v3 Subject Key Identifier: 
                B6:CF:DE:BF:15:A6:75:90:FC:64:AF:9F:AB:7E:67:B9:54:18:EF:48
            X509v3 Authority Key Identifier: 
                keyid:DA:D6:7F:20:34:45:23:1E:3F:B9:B1:3C:A7:5B:B9:55:48:6C:CB:51
                DirName:/CN=team26-net
                serial:01:2B:DC:72:A3:D5:97:8C:CD:CD:F1:57:39:8D:30:D6:D1:DA:FC:7C

            X509v3 Extended Key Usage: 
                TLS Web Client Authentication
            X509v3 Key Usage: 
                Digital Signature
    Signature Algorithm: sha256WithRSAEncryption
         17:8f:7f:cc:26:12:ea:4e:dc:a3:f7:2e:d7:fd:8f:10:1d:6f:
         61:75:b7:4c:c6:66:6d:0d:77:dc:be:0c:62:4d:d0:c9:a7:4b:
         ab:62:cb:33:c8:47:0c:5d:07:39:71:6f:f7:d1:43:d7:02:e2:
         d6:1c:ef:24:cd:90:68:10:13:29:d3:c2:77:a4:f0:02:e4:ad:
         98:a8:24:9d:b2:64:5d:26:b7:f0:95:ff:57:f1:1f:4e:77:39:
         52:c3:28:99:6e:d7:91:a1:3f:68:09:7b:a3:80:1a:8d:47:c4:
         05:c5:14:03:85:8f:12:f9:91:68:5b:c5:b6:56:4b:fe:dc:0a:
         19:bb:8e:96:95:8d:c1:dc:d0:ce:ef:65:a4:14:2e:ff:91:96:
         50:46:cb:33:f6:cd:2f:e9:65:3d:60:12:21:d9:df:c9:e5:c0:
         98:0a:50:4a:26:c5:3c:ae:17:70:6a:d0:16:10:20:d6:f9:30:
         99:36:f4:a3:48:ad:a5:d0:05:a9:5d:67:65:54:9e:9d:93:9a:
         62:42:ee:5c:e4:7f:29:a2:b1:7d:3d:96:e4:a3:51:ab:a4:a3:
         2b:d0:ed:aa:8e:a6:31:7c:f8:5c:ac:e4:f5:dc:a2:c5:76:1a:
         4e:11:9e:f1:81:37:e6:92:9d:70:cc:f9:d2:07:56:5f:76:51:
         62:b2:ff:4b
-----BEGIN CERTIFICATE-----
MIIDWjCCAkKgAwIBAgIRAJQuZox54oxt4u1WUDdAphAwDQYJKoZIhvcNAQELBQAw
FTETMBEGA1UEAwwKdGVhbTI2LW5ldDAeFw0yMjA1MTgxNDA0NTZaFw0yNTA1MDIx
NDA0NTZaMBgxFjAUBgNVBAMMDXRlYW0yNi1jbGllbnQwggEiMA0GCSqGSIb3DQEB
AQUAA4IBDwAwggEKAoIBAQDO1t5p9xdRrebGBki/YtGnLarNTY7Qj3lTbUOT9x9j
WPKBwGm0X3w3GIN/OtWVGxX6j++xyNtJunep1wXtgrH11KoT2JKJVGtzBYcob2zC
hsNTaZDJD6C0VQERzQr/BtMJmuhwIooelnAGVMaUtcH8DyfrL5JHEK8xRckfO+8R
uTAde3uT6vyt77jH+8WY5hHnQ6or9Pb0a2akK3ZqjyagZAqK6wcJ9oXtg6GqgD9S
MrOSMPjRq7mX7RNhAW9kIfVExB92A2xGN8YKYRtWcBU8tm1MTFFtvK7LSnx/T0XR
NYxL0AmJhpmLRqRqO6Ph4QaMIaTuBSBL9xRFWLJ/fgYPAgMBAAGjgaEwgZ4wCQYD
VR0TBAIwADAdBgNVHQ4EFgQUts/evxWmdZD8ZK+fq35nuVQY70gwUAYDVR0jBEkw
R4AU2tZ/IDRFIx4/ubE8p1u5VUhsy1GhGaQXMBUxEzARBgNVBAMMCnRlYW0yNi1u
ZXSCFAEr3HKj1ZeMzc3xVzmNMNbR2vx8MBMGA1UdJQQMMAoGCCsGAQUFBwMCMAsG
A1UdDwQEAwIHgDANBgkqhkiG9w0BAQsFAAOCAQEAF49/zCYS6k7co/cu1/2PEB1v
YXW3TMZmbQ133L4MYk3QyadLq2LLM8hHDF0HOXFv99FD1wLi1hzvJM2QaBATKdPC
d6TwAuStmKgknbJkXSa38JX/V/EfTnc5UsMomW7XkaE/aAl7o4AajUfEBcUUA4WP
EvmRaFvFtlZL/twKGbuOlpWNwdzQzu9lpBQu/5GWUEbLM/bNL+llPWASIdnfyeXA
mApQSibFPK4XcGrQFhAg1vkwmTb0o0itpdAFqV1nZVSenZOaYkLuXOR/KaKxfT2W
5KNRq6SjK9Dtqo6mMXz4XKzk9dyixXYaThGe8YE35pKdcMz50gdWX3ZRYrL/Sw==
-----END CERTIFICATE-----
