Certificate:
    Data:
        Version: 3 (0x2)
        Serial Number:
            f8:60:bb:86:4d:39:71:a4:da:1c:bb:e0:f7:88:7f:39
        Signature Algorithm: sha256WithRSAEncryption
        Issuer: CN=team577-net
        Validity
            Not Before: May 18 22:33:05 2022 GMT
            Not After : May  2 22:33:05 2025 GMT
        Subject: CN=team577-server
        Subject Public Key Info:
            Public Key Algorithm: rsaEncryption
                RSA Public-Key: (2048 bit)
                Modulus:
                    00:ce:df:13:ed:77:e1:d2:f6:51:3e:ec:3e:a0:1e:
                    1f:95:4d:52:ac:86:42:f7:3d:43:69:e5:de:44:7b:
                    08:5a:ca:62:e7:4f:a7:16:52:5c:05:06:55:98:e2:
                    ad:cc:87:a7:53:15:26:a0:e2:fd:54:d2:33:73:a6:
                    12:4a:8e:ed:98:b4:67:1d:84:a9:fe:9b:1c:ca:74:
                    9b:d1:9e:fb:61:2d:f3:82:00:c5:7b:6a:44:72:b6:
                    14:18:5f:75:d7:1b:b3:6b:4c:42:3c:dd:00:7b:37:
                    43:c8:89:22:34:57:3a:75:05:bd:e2:b0:02:dc:b1:
                    86:fe:b5:1c:e1:a4:51:e2:46:86:4d:3d:bd:a6:e8:
                    23:eb:34:42:89:58:45:5d:55:64:ca:dc:ae:32:27:
                    71:29:2a:97:c3:c5:28:45:99:35:50:01:d2:55:df:
                    18:ff:58:b5:d3:64:3f:80:d3:8c:2f:61:c6:cc:a7:
                    53:50:f1:a3:fc:b8:25:37:96:28:60:b0:17:5d:1b:
                    bf:b8:af:42:32:d0:7b:7b:92:dd:e1:bc:51:a8:ec:
                    c2:40:b9:d4:e5:b4:11:bd:30:27:d9:0a:4c:10:30:
                    3f:3d:3c:26:a9:c5:3b:50:75:23:f2:2d:d0:3b:5f:
                    b1:f2:2a:ba:2c:6d:49:b1:e7:b8:d8:72:b0:dc:b4:
                    33:db
                Exponent: 65537 (0x10001)
        X509v3 extensions:
            X509v3 Basic Constraints: 
                CA:FALSE
            X509v3 Subject Key Identifier: 
                81:43:83:CC:6C:3E:9E:EA:06:C4:BD:E2:62:49:0E:A8:F1:7A:EE:81
            X509v3 Authority Key Identifier: 
                keyid:45:11:1C:72:39:6A:95:BF:6D:77:22:68:3C:58:E4:DB:57:8E:54:4A
                DirName:/CN=team577-net
                serial:41:92:75:12:55:49:53:63:12:47:69:D9:72:66:DC:25:91:67:1B:29

            X509v3 Extended Key Usage: 
                TLS Web Server Authentication
            X509v3 Key Usage: 
                Digital Signature, Key Encipherment
            X509v3 Subject Alternative Name: 
                DNS:team577-server
    Signature Algorithm: sha256WithRSAEncryption
         0a:d3:fa:73:55:d9:a7:fc:50:19:24:07:e9:41:61:15:37:a0:
         fb:ce:d2:27:9d:49:13:99:26:1a:2f:93:f5:31:4c:c7:15:ea:
         d4:1e:54:53:b6:b9:82:7a:3d:ed:78:f7:f6:91:93:b4:ba:23:
         ac:c8:a5:44:28:20:70:75:80:de:25:de:6c:8a:a9:02:87:9c:
         db:c0:9d:d1:a5:96:bc:8f:a8:f9:9b:01:36:67:de:b3:fe:e8:
         90:32:a1:47:d4:22:db:72:64:cc:a3:70:a1:b3:1e:e6:da:b6:
         b7:d2:9f:6d:f1:7a:d9:3a:a6:23:ac:c8:bf:92:51:08:a4:20:
         d7:22:c6:21:94:27:af:50:ed:d5:fb:67:03:7e:3c:6a:bf:da:
         be:b2:f0:dd:af:4d:c8:73:7d:37:50:e1:e5:62:37:3e:9c:ea:
         89:0c:8c:ad:73:ea:3b:ec:66:4d:4d:49:99:f0:73:74:a5:9f:
         2e:47:49:6e:62:06:32:06:3b:ab:46:df:32:15:14:0c:62:0f:
         8e:49:54:89:e2:d8:3b:19:fc:86:11:a9:31:d8:d0:9c:d5:c9:
         d7:d0:c0:22:b0:f7:2c:bd:23:69:4e:e6:04:af:7c:f1:4c:25:
         3b:d8:ff:e1:9e:b3:5c:90:1d:a7:c0:51:e8:09:2d:76:95:c9:
         d1:de:88:32
-----BEGIN CERTIFICATE-----
MIIDeDCCAmCgAwIBAgIRAPhgu4ZNOXGk2hy74PeIfzkwDQYJKoZIhvcNAQELBQAw
FjEUMBIGA1UEAwwLdGVhbTU3Ny1uZXQwHhcNMjIwNTE4MjIzMzA1WhcNMjUwNTAy
MjIzMzA1WjAZMRcwFQYDVQQDDA50ZWFtNTc3LXNlcnZlcjCCASIwDQYJKoZIhvcN
AQEBBQADggEPADCCAQoCggEBAM7fE+134dL2UT7sPqAeH5VNUqyGQvc9Q2nl3kR7
CFrKYudPpxZSXAUGVZjircyHp1MVJqDi/VTSM3OmEkqO7Zi0Zx2Eqf6bHMp0m9Ge
+2Et84IAxXtqRHK2FBhfddcbs2tMQjzdAHs3Q8iJIjRXOnUFveKwAtyxhv61HOGk
UeJGhk09vaboI+s0QolYRV1VZMrcrjIncSkql8PFKEWZNVAB0lXfGP9YtdNkP4DT
jC9hxsynU1Dxo/y4JTeWKGCwF10bv7ivQjLQe3uS3eG8UajswkC51OW0Eb0wJ9kK
TBAwPz08JqnFO1B1I/It0DtfsfIquixtSbHnuNhysNy0M9sCAwEAAaOBvTCBujAJ
BgNVHRMEAjAAMB0GA1UdDgQWBBSBQ4PMbD6e6gbEveJiSQ6o8XrugTBRBgNVHSME
SjBIgBRFERxyOWqVv213Img8WOTbV45USqEapBgwFjEUMBIGA1UEAwwLdGVhbTU3
Ny1uZXSCFEGSdRJVSVNjEkdp2XJm3CWRZxspMBMGA1UdJQQMMAoGCCsGAQUFBwMB
MAsGA1UdDwQEAwIFoDAZBgNVHREEEjAQgg50ZWFtNTc3LXNlcnZlcjANBgkqhkiG
9w0BAQsFAAOCAQEACtP6c1XZp/xQGSQH6UFhFTeg+87SJ51JE5kmGi+T9TFMxxXq
1B5UU7a5gno97Xj39pGTtLojrMilRCggcHWA3iXebIqpAoec28Cd0aWWvI+o+ZsB
Nmfes/7okDKhR9Qi23JkzKNwobMe5tq2t9KfbfF62TqmI6zIv5JRCKQg1yLGIZQn
r1Dt1ftnA348ar/avrLw3a9NyHN9N1Dh5WI3PpzqiQyMrXPqO+xmTU1JmfBzdKWf
LkdJbmIGMgY7q0bfMhUUDGIPjklUieLYOxn8hhGpMdjQnNXJ19DAIrD3LL0jaU7m
BK988UwlO9j/4Z6zXJAdp8BR6AktdpXJ0d6IMg==
-----END CERTIFICATE-----
