Certificate:
    Data:
        Version: 3 (0x2)
        Serial Number:
            3e:f9:55:27:4b:60:e8:95:90:13:af:6e:ca:fe:a6:6e
        Signature Algorithm: sha256WithRSAEncryption
        Issuer: CN=team334-net
        Validity
            Not Before: May 18 20:28:25 2022 GMT
            Not After : May  2 20:28:25 2025 GMT
        Subject: CN=team334-server
        Subject Public Key Info:
            Public Key Algorithm: rsaEncryption
                RSA Public-Key: (2048 bit)
                Modulus:
                    00:bb:4b:05:c7:d5:65:64:c2:02:33:ff:a5:60:bd:
                    96:99:c8:5e:aa:c3:1b:ed:73:2b:de:9e:3b:0e:94:
                    05:32:07:3d:ce:ac:3e:7f:90:c7:16:7b:d7:8e:05:
                    44:9b:52:df:51:90:a9:d3:35:29:5b:e3:a3:3e:c2:
                    53:37:62:72:21:89:4a:53:b0:84:f9:b6:7b:a4:29:
                    46:fe:2a:10:d8:d1:72:86:2f:5c:87:17:e8:00:75:
                    60:f8:f7:92:fc:c2:42:82:1e:e2:f2:af:9e:d5:e4:
                    56:8d:48:2f:e6:7f:cb:c0:45:e0:ed:8e:f0:97:09:
                    bf:ea:c2:a9:b4:50:b6:61:01:44:58:6b:4a:d8:af:
                    30:e0:02:04:c7:d4:9d:1b:cc:73:19:0f:1f:bc:16:
                    b2:e0:f5:e4:a2:98:c8:53:ad:6b:0f:55:1f:95:a2:
                    6b:7c:7c:38:de:ec:a7:8b:a3:4e:b6:77:c3:af:27:
                    29:92:9b:39:72:14:23:ac:cd:0b:6b:27:19:98:85:
                    94:d5:d7:00:37:b3:5b:65:ad:b7:52:07:50:cc:97:
                    36:6d:d1:6a:dd:4d:46:65:d4:8d:07:27:7d:72:8b:
                    25:a0:97:83:3e:5e:f6:92:90:fb:ef:88:5a:f5:af:
                    82:67:ae:b2:62:94:18:9e:66:c4:22:0f:c5:09:92:
                    96:db
                Exponent: 65537 (0x10001)
        X509v3 extensions:
            X509v3 Basic Constraints: 
                CA:FALSE
            X509v3 Subject Key Identifier: 
                F6:69:A4:59:20:01:27:A0:16:10:92:E5:2D:BE:CD:0E:49:D2:09:27
            X509v3 Authority Key Identifier: 
                keyid:2A:23:97:1F:0B:CB:0D:0C:43:71:4C:15:E2:F8:67:AE:11:17:D5:F7
                DirName:/CN=team334-net
                serial:66:B1:B2:EF:51:97:0E:FE:CA:02:E4:6B:16:86:1F:A5:ED:E5:6C:AD

            X509v3 Extended Key Usage: 
                TLS Web Server Authentication
            X509v3 Key Usage: 
                Digital Signature, Key Encipherment
            X509v3 Subject Alternative Name: 
                DNS:team334-server
    Signature Algorithm: sha256WithRSAEncryption
         a0:5b:a1:c4:ff:a1:94:91:48:09:76:da:fd:95:0a:15:1e:cc:
         1e:c1:a9:b5:ad:79:09:21:2a:dd:48:ba:cb:1c:16:d9:f2:64:
         8a:e4:a8:9a:7c:98:c3:6e:32:c1:a1:e7:81:5a:9d:11:72:2b:
         92:f3:fe:bb:f7:44:84:9d:8a:84:b8:5b:ea:a2:94:85:bd:99:
         9a:e6:94:9d:5a:0a:da:f5:b9:2f:15:ab:95:b0:f3:d4:c1:8a:
         3e:76:5e:8f:72:08:eb:02:4b:1d:91:ca:53:71:e9:37:d3:c2:
         ac:22:c3:0b:ec:8a:c9:62:a5:41:f1:8e:83:7a:23:9c:2b:36:
         45:b3:f8:e5:8b:5e:94:c4:12:46:c1:36:a4:fa:4d:e5:a0:49:
         65:1c:c7:b4:85:dc:a8:20:8a:8a:2d:8e:58:ac:c3:5a:83:56:
         a6:aa:93:e9:12:0f:e5:0f:79:4a:ff:a8:00:90:99:26:36:5e:
         18:bd:ff:d2:ac:f8:77:3c:10:4b:06:bf:4c:f3:85:83:8f:57:
         30:50:50:d5:c8:f3:6c:79:54:ed:f5:29:82:c1:b9:8f:3b:bf:
         b1:c4:ff:d1:ed:81:3c:35:af:01:da:24:05:e0:28:a1:fe:58:
         a4:18:64:77:83:af:ea:a8:a9:f1:00:21:47:41:55:a8:98:8a:
         73:b0:88:19
-----BEGIN CERTIFICATE-----
MIIDdzCCAl+gAwIBAgIQPvlVJ0tg6JWQE69uyv6mbjANBgkqhkiG9w0BAQsFADAW
MRQwEgYDVQQDDAt0ZWFtMzM0LW5ldDAeFw0yMjA1MTgyMDI4MjVaFw0yNTA1MDIy
MDI4MjVaMBkxFzAVBgNVBAMMDnRlYW0zMzQtc2VydmVyMIIBIjANBgkqhkiG9w0B
AQEFAAOCAQ8AMIIBCgKCAQEAu0sFx9VlZMICM/+lYL2WmcheqsMb7XMr3p47DpQF
Mgc9zqw+f5DHFnvXjgVEm1LfUZCp0zUpW+OjPsJTN2JyIYlKU7CE+bZ7pClG/ioQ
2NFyhi9chxfoAHVg+PeS/MJCgh7i8q+e1eRWjUgv5n/LwEXg7Y7wlwm/6sKptFC2
YQFEWGtK2K8w4AIEx9SdG8xzGQ8fvBay4PXkopjIU61rD1UflaJrfHw43uyni6NO
tnfDrycpkps5chQjrM0LaycZmIWU1dcAN7NbZa23UgdQzJc2bdFq3U1GZdSNByd9
cosloJeDPl72kpD774ha9a+CZ66yYpQYnmbEIg/FCZKW2wIDAQABo4G9MIG6MAkG
A1UdEwQCMAAwHQYDVR0OBBYEFPZppFkgASegFhCS5S2+zQ5J0gknMFEGA1UdIwRK
MEiAFCojlx8Lyw0MQ3FMFeL4Z64RF9X3oRqkGDAWMRQwEgYDVQQDDAt0ZWFtMzM0
LW5ldIIUZrGy71GXDv7KAuRrFoYfpe3lbK0wEwYDVR0lBAwwCgYIKwYBBQUHAwEw
CwYDVR0PBAQDAgWgMBkGA1UdEQQSMBCCDnRlYW0zMzQtc2VydmVyMA0GCSqGSIb3
DQEBCwUAA4IBAQCgW6HE/6GUkUgJdtr9lQoVHswewam1rXkJISrdSLrLHBbZ8mSK
5KiafJjDbjLBoeeBWp0RciuS8/6790SEnYqEuFvqopSFvZma5pSdWgra9bkvFauV
sPPUwYo+dl6PcgjrAksdkcpTcek308KsIsML7IrJYqVB8Y6DeiOcKzZFs/jli16U
xBJGwTak+k3loEllHMe0hdyoIIqKLY5YrMNag1amqpPpEg/lD3lK/6gAkJkmNl4Y
vf/SrPh3PBBLBr9M84WDj1cwUFDVyPNseVTt9SmCwbmPO7+xxP/R7YE8Na8B2iQF
4Cih/likGGR3g6/qqKnxACFHQVWomIpzsIgZ
-----END CERTIFICATE-----
