Certificate:
    Data:
        Version: 3 (0x2)
        Serial Number:
            76:05:bd:57:0f:54:ce:1b:e3:ba:93:5d:10:d7:e5:93
        Signature Algorithm: sha256WithRSAEncryption
        Issuer: CN=team334-net
        Validity
            Not Before: May 18 20:28:25 2022 GMT
            Not After : May  2 20:28:25 2025 GMT
        Subject: CN=team334-client
        Subject Public Key Info:
            Public Key Algorithm: rsaEncryption
                RSA Public-Key: (2048 bit)
                Modulus:
                    00:b3:0c:12:19:0a:d8:9b:df:43:a6:7d:9f:d2:18:
                    78:76:2d:1b:0e:29:8f:83:33:05:87:df:f2:a2:f3:
                    69:46:19:49:0f:98:55:fb:8b:e5:0e:62:59:c4:47:
                    87:96:e4:2f:e6:06:90:75:09:75:9a:57:f8:bb:00:
                    25:f7:98:b0:41:8e:91:87:8d:4a:24:fa:11:0a:be:
                    cf:c0:02:39:2f:3f:54:85:90:4e:9d:93:b1:bd:e4:
                    77:82:fe:e8:ea:ac:1f:f4:59:51:28:c1:f3:d2:75:
                    f7:41:93:21:9a:e0:aa:f8:1b:f2:55:a2:d4:fe:7f:
                    a3:5d:5a:5f:09:d6:c3:99:aa:a9:9f:4c:3e:7c:8d:
                    c6:53:f6:23:58:1e:a8:47:91:59:9c:2f:8e:00:5f:
                    98:69:bc:4a:73:d5:a4:3a:73:3b:df:18:6e:58:4c:
                    61:e0:4f:3b:6f:d8:c3:53:81:88:bc:a0:4f:c0:c7:
                    b7:28:6b:ee:df:5a:06:36:e8:74:17:bc:44:e1:2f:
                    a1:e0:e9:9a:d8:e0:ef:61:57:2e:98:6b:c5:c2:34:
                    5b:76:fb:7a:0e:60:4a:1b:f2:d1:20:ce:67:26:e2:
                    30:9a:eb:f7:56:b0:83:a9:2c:9d:78:50:32:6a:ec:
                    63:22:17:94:07:82:1e:cf:38:cb:91:90:6c:6a:20:
                    ba:b9
                Exponent: 65537 (0x10001)
        X509v3 extensions:
            X509v3 Basic Constraints: 
                CA:FALSE
            X509v3 Subject Key Identifier: 
                BD:1C:21:23:F7:0F:FD:95:78:AA:41:A7:D8:0C:DD:3A:0C:C9:23:7C
            X509v3 Authority Key Identifier: 
                keyid:2A:23:97:1F:0B:CB:0D:0C:43:71:4C:15:E2:F8:67:AE:11:17:D5:F7
                DirName:/CN=team334-net
                serial:66:B1:B2:EF:51:97:0E:FE:CA:02:E4:6B:16:86:1F:A5:ED:E5:6C:AD

            X509v3 Extended Key Usage: 
                TLS Web Client Authentication
            X509v3 Key Usage: 
                Digital Signature
    Signature Algorithm: sha256WithRSAEncryption
         c5:84:17:07:7b:86:0f:0f:bd:18:ce:dc:3e:28:8b:c4:76:69:
         6c:84:6b:06:c7:3c:a1:a4:63:b1:cf:2c:c6:6d:af:5d:9e:32:
         21:0b:f3:96:40:d7:25:76:d0:4d:19:8a:9e:9a:80:c9:3a:7a:
         14:e2:a3:25:42:4a:75:51:29:fd:38:fb:53:7c:f9:73:de:97:
         85:54:28:aa:53:d4:46:00:36:0f:d4:97:11:81:82:a1:ba:a8:
         f5:f6:79:d7:12:69:41:20:fa:a6:52:76:90:0b:f0:f4:86:cc:
         09:59:cf:37:db:8d:55:6a:ca:9f:bc:e7:2f:33:1e:e3:97:18:
         05:6c:b5:b7:57:9e:ec:4b:b0:80:8d:e2:97:99:a6:eb:a7:54:
         7d:63:2d:8e:aa:22:39:45:93:26:ab:95:3c:c3:b5:aa:86:8a:
         92:7b:a5:2e:5e:ab:d9:8a:a9:f5:89:29:81:bc:17:72:f9:0e:
         55:0b:3e:67:8e:db:70:3b:36:9f:66:d3:b3:3f:40:81:23:41:
         cd:db:5e:8a:d2:bf:4f:00:00:a9:b1:5d:3c:0c:6e:59:04:85:
         1a:03:c6:6a:92:7f:6e:07:56:74:bf:19:d4:af:ba:c9:f0:95:
         08:8a:ab:31:b9:42:d2:dc:d1:db:bc:22:12:bd:2a:f1:63:df:
         24:5b:90:33
-----BEGIN CERTIFICATE-----
MIIDXDCCAkSgAwIBAgIQdgW9Vw9UzhvjupNdENflkzANBgkqhkiG9w0BAQsFADAW
MRQwEgYDVQQDDAt0ZWFtMzM0LW5ldDAeFw0yMjA1MTgyMDI4MjVaFw0yNTA1MDIy
MDI4MjVaMBkxFzAVBgNVBAMMDnRlYW0zMzQtY2xpZW50MIIBIjANBgkqhkiG9w0B
AQEFAAOCAQ8AMIIBCgKCAQEAswwSGQrYm99Dpn2f0hh4di0bDimPgzMFh9/yovNp
RhlJD5hV+4vlDmJZxEeHluQv5gaQdQl1mlf4uwAl95iwQY6Rh41KJPoRCr7PwAI5
Lz9UhZBOnZOxveR3gv7o6qwf9FlRKMHz0nX3QZMhmuCq+BvyVaLU/n+jXVpfCdbD
maqpn0w+fI3GU/YjWB6oR5FZnC+OAF+YabxKc9WkOnM73xhuWExh4E87b9jDU4GI
vKBPwMe3KGvu31oGNuh0F7xE4S+h4Oma2ODvYVcumGvFwjRbdvt6DmBKG/LRIM5n
JuIwmuv3VrCDqSydeFAyauxjIheUB4IezzjLkZBsaiC6uQIDAQABo4GiMIGfMAkG
A1UdEwQCMAAwHQYDVR0OBBYEFL0cISP3D/2VeKpBp9gM3ToMySN8MFEGA1UdIwRK
MEiAFCojlx8Lyw0MQ3FMFeL4Z64RF9X3oRqkGDAWMRQwEgYDVQQDDAt0ZWFtMzM0
LW5ldIIUZrGy71GXDv7KAuRrFoYfpe3lbK0wEwYDVR0lBAwwCgYIKwYBBQUHAwIw
CwYDVR0PBAQDAgeAMA0GCSqGSIb3DQEBCwUAA4IBAQDFhBcHe4YPD70Yztw+KIvE
dmlshGsGxzyhpGOxzyzGba9dnjIhC/OWQNcldtBNGYqemoDJOnoU4qMlQkp1USn9
OPtTfPlz3peFVCiqU9RGADYP1JcRgYKhuqj19nnXEmlBIPqmUnaQC/D0hswJWc83
241VasqfvOcvMx7jlxgFbLW3V57sS7CAjeKXmabrp1R9Yy2OqiI5RZMmq5U8w7Wq
hoqSe6UuXqvZiqn1iSmBvBdy+Q5VCz5njttwOzafZtOzP0CBI0HN216K0r9PAACp
sV08DG5ZBIUaA8Zqkn9uB1Z0vxnUr7rJ8JUIiqsxuULS3NHbvCISvSrxY98kW5Az
-----END CERTIFICATE-----
