Certificate:
    Data:
        Version: 3 (0x2)
        Serial Number:
            a8:df:6a:af:4e:05:ef:d0:20:d7:22:f7:cb:c7:5e:72
        Signature Algorithm: sha256WithRSAEncryption
        Issuer: CN=team507-net
        Validity
            Not Before: May 18 21:56:19 2022 GMT
            Not After : May  2 21:56:19 2025 GMT
        Subject: CN=team507-client
        Subject Public Key Info:
            Public Key Algorithm: rsaEncryption
                RSA Public-Key: (2048 bit)
                Modulus:
                    00:c6:da:1b:e7:a3:17:8a:b2:73:e4:dd:eb:c8:f7:
                    ef:94:bd:a8:c0:5b:7c:1a:29:66:f5:62:8c:2c:7a:
                    d9:20:8f:9f:67:fe:3f:b4:03:56:98:1f:05:70:0c:
                    0a:40:fc:63:14:0f:51:1d:4a:18:20:61:f0:36:20:
                    5d:9e:85:92:27:fd:36:30:9f:36:76:32:e3:56:0f:
                    22:52:0c:f2:bd:02:bd:5a:71:4d:c3:30:3f:3d:16:
                    e4:60:cf:10:d9:f7:3f:78:f4:39:ee:23:f9:d3:0a:
                    80:34:13:82:19:5a:ef:b2:7b:e7:c4:f7:b6:0f:d1:
                    87:6a:bb:93:df:45:13:da:8c:b5:7e:37:7f:b5:a1:
                    c8:c6:22:a9:1f:b5:d1:54:d9:56:95:34:34:0f:35:
                    1e:8e:b8:41:13:37:6a:f4:89:d8:0c:2f:63:e3:29:
                    2d:46:44:e2:24:75:f9:0e:36:87:26:e6:a2:ed:92:
                    3d:cf:fc:89:a6:d9:48:eb:a9:70:c5:8e:1e:88:98:
                    f6:e5:f8:85:46:ab:34:86:8d:75:bf:f8:8d:24:06:
                    9f:b1:b4:69:81:f4:8e:b2:57:7d:64:8b:f6:f8:bc:
                    40:1c:02:8e:de:fb:bd:c0:26:61:a0:7b:79:e2:35:
                    4a:eb:7a:3d:3e:57:84:74:b5:c3:56:63:08:22:07:
                    0d:4b
                Exponent: 65537 (0x10001)
        X509v3 extensions:
            X509v3 Basic Constraints: 
                CA:FALSE
            X509v3 Subject Key Identifier: 
                57:F5:28:34:86:76:A0:E2:6F:76:79:B9:2E:E7:69:4A:D3:F6:AC:D1
            X509v3 Authority Key Identifier: 
                keyid:4C:AC:8F:09:9E:72:20:6C:1A:01:E4:81:A8:7F:EA:B9:12:7F:FE:A7
                DirName:/CN=team507-net
                serial:3D:86:E5:0C:09:1E:33:C4:11:60:99:B6:0C:B9:A9:CD:FE:4F:D5:BD

            X509v3 Extended Key Usage: 
                TLS Web Client Authentication
            X509v3 Key Usage: 
                Digital Signature
    Signature Algorithm: sha256WithRSAEncryption
         3d:40:ce:19:94:c8:b1:a0:c7:a0:b8:53:d0:1a:be:13:e0:d0:
         46:c5:0d:99:41:48:01:de:3f:c3:32:52:dc:ea:e9:3f:9c:75:
         b2:b1:97:67:ee:27:a3:64:33:35:6f:58:88:14:90:c0:6d:a1:
         4e:c2:33:09:c3:34:a6:be:26:a4:82:52:d7:e3:9e:53:b2:fa:
         e1:9b:96:16:ac:ac:30:9e:83:2d:f8:ee:f2:62:67:2e:37:ec:
         de:6e:22:c2:da:0a:85:95:bc:e6:7e:fc:57:ae:4c:f7:8f:3a:
         f1:25:47:aa:bb:31:61:7d:69:95:ef:70:94:54:bc:37:b5:e2:
         81:32:47:3a:29:4a:54:27:a7:9e:25:c5:39:58:c9:e4:3b:da:
         35:bf:d4:60:35:1e:36:d0:45:07:3d:e1:44:0b:35:0c:7e:25:
         17:99:a7:56:de:cf:ba:c0:4e:79:00:6c:17:8b:0c:7b:66:57:
         2e:04:e9:ad:a6:39:f8:a2:dd:ff:b8:ee:f2:dd:6f:4e:aa:bb:
         bc:21:18:ae:a5:07:44:77:8f:a1:e9:2a:54:0b:c9:1f:07:79:
         77:ef:7f:da:66:5d:e3:7f:7c:57:fd:23:fb:44:cb:4b:ed:c6:
         26:7c:43:db:bf:46:3d:f3:9a:a5:2a:c4:d5:bc:5f:56:a9:71:
         87:d2:9f:db
-----BEGIN CERTIFICATE-----
MIIDXTCCAkWgAwIBAgIRAKjfaq9OBe/QINci98vHXnIwDQYJKoZIhvcNAQELBQAw
FjEUMBIGA1UEAwwLdGVhbTUwNy1uZXQwHhcNMjIwNTE4MjE1NjE5WhcNMjUwNTAy
MjE1NjE5WjAZMRcwFQYDVQQDDA50ZWFtNTA3LWNsaWVudDCCASIwDQYJKoZIhvcN
AQEBBQADggEPADCCAQoCggEBAMbaG+ejF4qyc+Td68j375S9qMBbfBopZvVijCx6
2SCPn2f+P7QDVpgfBXAMCkD8YxQPUR1KGCBh8DYgXZ6Fkif9NjCfNnYy41YPIlIM
8r0CvVpxTcMwPz0W5GDPENn3P3j0Oe4j+dMKgDQTghla77J758T3tg/Rh2q7k99F
E9qMtX43f7WhyMYiqR+10VTZVpU0NA81Ho64QRM3avSJ2AwvY+MpLUZE4iR1+Q42
hybmou2SPc/8iabZSOupcMWOHoiY9uX4hUarNIaNdb/4jSQGn7G0aYH0jrJXfWSL
9vi8QBwCjt77vcAmYaB7eeI1Sut6PT5XhHS1w1ZjCCIHDUsCAwEAAaOBojCBnzAJ
BgNVHRMEAjAAMB0GA1UdDgQWBBRX9Sg0hnag4m92ebku52lK0/as0TBRBgNVHSME
SjBIgBRMrI8JnnIgbBoB5IGof+q5En/+p6EapBgwFjEUMBIGA1UEAwwLdGVhbTUw
Ny1uZXSCFD2G5QwJHjPEEWCZtgy5qc3+T9W9MBMGA1UdJQQMMAoGCCsGAQUFBwMC
MAsGA1UdDwQEAwIHgDANBgkqhkiG9w0BAQsFAAOCAQEAPUDOGZTIsaDHoLhT0Bq+
E+DQRsUNmUFIAd4/wzJS3OrpP5x1srGXZ+4no2QzNW9YiBSQwG2hTsIzCcM0pr4m
pIJS1+OeU7L64ZuWFqysMJ6DLfju8mJnLjfs3m4iwtoKhZW85n78V65M94868SVH
qrsxYX1ple9wlFS8N7XigTJHOilKVCenniXFOVjJ5DvaNb/UYDUeNtBFBz3hRAs1
DH4lF5mnVt7PusBOeQBsF4sMe2ZXLgTpraY5+KLd/7ju8t1vTqq7vCEYrqUHRHeP
oekqVAvJHwd5d+9/2mZd4398V/0j+0TLS+3GJnxD279GPfOapSrE1bxfVqlxh9Kf
2w==
-----END CERTIFICATE-----
