Certificate:
    Data:
        Version: 3 (0x2)
        Serial Number:
            d7:65:17:c0:5f:4d:80:45:0d:96:ff:f9:77:ab:1b:11
        Signature Algorithm: sha256WithRSAEncryption
        Issuer: CN=team478-net
        Validity
            Not Before: May 18 21:30:57 2022 GMT
            Not After : May  2 21:30:57 2025 GMT
        Subject: CN=team478-client
        Subject Public Key Info:
            Public Key Algorithm: rsaEncryption
                RSA Public-Key: (2048 bit)
                Modulus:
                    00:f4:ac:e6:3c:2d:bd:d2:db:4e:27:bb:4f:62:0e:
                    6b:a7:b5:e3:6b:07:38:35:a6:2d:37:3c:35:9f:4d:
                    90:45:f0:43:a0:20:a6:56:be:d8:16:c7:66:a0:d5:
                    77:36:60:2d:3b:01:dc:e8:7b:9f:c1:42:73:c1:93:
                    11:b4:87:47:4e:7c:52:e8:6f:f0:03:54:86:3c:81:
                    38:e6:c4:b6:cf:c1:b3:24:1d:a5:d0:e0:6a:59:4c:
                    52:2f:b5:d5:c6:ba:62:7b:d2:30:db:5e:56:55:7a:
                    f3:85:b2:9b:f7:6c:b0:4a:55:f1:ba:7b:dd:48:e3:
                    e6:6e:92:f6:54:8b:ad:c0:27:c7:3a:40:52:60:b2:
                    25:c9:19:65:92:68:b9:96:a6:dc:9e:8f:06:15:c5:
                    13:32:0d:ae:ee:ef:78:5f:13:4d:2c:1d:ef:dc:c5:
                    6b:db:2b:54:0a:9b:ad:15:d8:42:79:2d:d9:07:67:
                    e2:68:d2:c9:56:82:ed:fd:23:a1:43:ea:13:1f:4b:
                    ab:1a:d5:4d:20:74:a2:1d:3a:74:b0:1b:83:60:73:
                    ff:0d:bf:b6:73:83:1b:13:5c:9b:61:c1:59:28:c1:
                    66:3c:6e:73:bb:33:07:42:31:7a:df:e5:a9:63:20:
                    1f:73:e6:b1:fa:eb:8e:ac:ea:30:bb:14:b6:15:29:
                    a5:55
                Exponent: 65537 (0x10001)
        X509v3 extensions:
            X509v3 Basic Constraints: 
                CA:FALSE
            X509v3 Subject Key Identifier: 
                1C:5D:04:E8:F1:83:1F:FF:89:1F:87:26:D8:99:BA:47:A8:97:95:CF
            X509v3 Authority Key Identifier: 
                keyid:06:3A:31:55:42:60:DC:00:E4:66:58:16:A0:EC:CF:C8:F8:FE:65:57
                DirName:/CN=team478-net
                serial:04:9F:1D:47:77:B6:A8:30:59:C3:4B:77:0A:43:82:5F:35:FC:DF:6A

            X509v3 Extended Key Usage: 
                TLS Web Client Authentication
            X509v3 Key Usage: 
                Digital Signature
    Signature Algorithm: sha256WithRSAEncryption
         c1:27:25:4d:a4:15:6b:b8:c8:7a:5f:ec:83:fd:e7:9a:85:1a:
         3c:a6:99:3c:64:bd:74:8f:4f:17:51:61:d1:82:5f:0a:73:bb:
         93:40:26:63:9d:4f:9c:da:d8:f4:d5:5c:0f:d2:87:a3:0d:de:
         32:51:38:d0:69:55:ee:fa:82:02:36:f1:70:bf:d3:d2:c2:fc:
         28:29:1b:8a:57:6d:7e:4e:fa:e1:b1:3a:e3:ef:8c:17:79:9f:
         24:b8:e7:98:93:26:33:ed:32:25:1f:90:eb:d1:d0:0a:de:a5:
         56:1f:a9:47:5c:a0:4f:57:07:99:51:56:70:34:75:7b:d8:27:
         d7:f3:1f:b1:66:ad:71:9d:14:21:1d:5d:b6:c1:11:32:de:41:
         4f:01:3c:9a:71:ba:71:bf:ff:0c:60:2e:60:39:8f:cb:03:1a:
         a7:02:fb:cb:3d:6b:fb:7f:91:d2:9a:39:12:e5:1d:a8:10:33:
         bd:11:b4:e6:42:a3:e1:f3:af:ea:32:21:f7:8c:7f:dc:a6:a5:
         83:ab:c4:32:8a:7e:f9:4c:6d:ed:4e:09:f9:41:10:fa:da:af:
         64:47:88:a3:a3:a8:e2:d5:d2:a3:ec:5c:8b:f6:5e:5e:dc:0e:
         d4:a9:7e:cd:4f:f2:2b:bf:cf:8c:02:d3:cd:93:15:10:ff:73:
         fa:42:22:98
-----BEGIN CERTIFICATE-----
MIIDXTCCAkWgAwIBAgIRANdlF8BfTYBFDZb/+XerGxEwDQYJKoZIhvcNAQELBQAw
FjEUMBIGA1UEAwwLdGVhbTQ3OC1uZXQwHhcNMjIwNTE4MjEzMDU3WhcNMjUwNTAy
MjEzMDU3WjAZMRcwFQYDVQQDDA50ZWFtNDc4LWNsaWVudDCCASIwDQYJKoZIhvcN
AQEBBQADggEPADCCAQoCggEBAPSs5jwtvdLbTie7T2IOa6e142sHODWmLTc8NZ9N
kEXwQ6Agpla+2BbHZqDVdzZgLTsB3Oh7n8FCc8GTEbSHR058Uuhv8ANUhjyBOObE
ts/BsyQdpdDgallMUi+11ca6YnvSMNteVlV684Wym/dssEpV8bp73Ujj5m6S9lSL
rcAnxzpAUmCyJckZZZJouZam3J6PBhXFEzINru7veF8TTSwd79zFa9srVAqbrRXY
Qnkt2Qdn4mjSyVaC7f0joUPqEx9LqxrVTSB0oh06dLAbg2Bz/w2/tnODGxNcm2HB
WSjBZjxuc7szB0Ixet/lqWMgH3PmsfrrjqzqMLsUthUppVUCAwEAAaOBojCBnzAJ
BgNVHRMEAjAAMB0GA1UdDgQWBBQcXQTo8YMf/4kfhybYmbpHqJeVzzBRBgNVHSME
SjBIgBQGOjFVQmDcAORmWBag7M/I+P5lV6EapBgwFjEUMBIGA1UEAwwLdGVhbTQ3
OC1uZXSCFASfHUd3tqgwWcNLdwpDgl81/N9qMBMGA1UdJQQMMAoGCCsGAQUFBwMC
MAsGA1UdDwQEAwIHgDANBgkqhkiG9w0BAQsFAAOCAQEAwSclTaQVa7jIel/sg/3n
moUaPKaZPGS9dI9PF1Fh0YJfCnO7k0AmY51PnNrY9NVcD9KHow3eMlE40GlV7vqC
AjbxcL/T0sL8KCkbildtfk764bE64++MF3mfJLjnmJMmM+0yJR+Q69HQCt6lVh+p
R1ygT1cHmVFWcDR1e9gn1/MfsWatcZ0UIR1dtsERMt5BTwE8mnG6cb//DGAuYDmP
ywMapwL7yz1r+3+R0po5EuUdqBAzvRG05kKj4fOv6jIh94x/3Kalg6vEMop++Uxt
7U4J+UEQ+tqvZEeIo6Oo4tXSo+xci/ZeXtwO1Kl+zU/yK7/PjALTzZMVEP9z+kIi
mA==
-----END CERTIFICATE-----
