Certificate:
    Data:
        Version: 3 (0x2)
        Serial Number:
            a1:33:e6:8f:09:0d:26:ef:9c:c0:2d:1e:b6:7c:13:72
        Signature Algorithm: sha256WithRSAEncryption
        Issuer: CN=team548-net
        Validity
            Not Before: May 18 22:11:44 2022 GMT
            Not After : May  2 22:11:44 2025 GMT
        Subject: CN=team548-client
        Subject Public Key Info:
            Public Key Algorithm: rsaEncryption
                RSA Public-Key: (2048 bit)
                Modulus:
                    00:ba:4b:ec:00:64:be:08:2f:c4:23:b8:d1:71:77:
                    c2:f6:2b:c0:6c:a2:b2:84:1c:9c:92:6d:c0:7e:ca:
                    26:b3:e1:3d:6a:76:b1:6b:94:1a:9c:c3:c4:af:68:
                    8b:bc:fb:c5:10:e6:96:de:d5:cd:f2:5a:eb:84:56:
                    96:3e:0a:7c:8c:db:6c:e6:e8:c0:6e:99:f9:c4:8c:
                    04:90:73:d1:63:c7:7c:83:04:72:36:8a:88:81:76:
                    1f:2b:15:db:9e:ce:5f:70:63:aa:ae:52:6f:e3:6b:
                    b9:a6:e4:96:34:40:f3:38:dc:45:62:b5:f3:08:9d:
                    72:a7:1d:a2:6d:af:15:09:35:ea:db:05:a1:b2:31:
                    64:6b:a4:84:c0:80:d0:dd:af:be:b8:fb:2a:52:58:
                    0c:b0:ff:d9:d5:7e:8d:6f:27:b6:b6:5c:55:17:11:
                    65:83:df:ae:74:b8:99:31:5b:26:32:96:a6:54:99:
                    5c:b0:b5:52:65:72:bc:05:74:63:87:6f:cf:b3:64:
                    65:ba:18:31:38:ea:b6:ce:c0:92:91:82:51:cb:4b:
                    ad:af:6f:ae:2b:5e:78:14:6b:d3:a8:4d:73:c4:3a:
                    e9:2f:a7:c0:bc:7e:1b:38:09:8a:e6:1d:c2:e7:51:
                    ba:0f:2b:f5:29:50:9a:be:aa:d3:0e:15:00:29:27:
                    7f:fb
                Exponent: 65537 (0x10001)
        X509v3 extensions:
            X509v3 Basic Constraints: 
                CA:FALSE
            X509v3 Subject Key Identifier: 
                AA:8A:18:A3:EE:2C:B9:B2:AA:14:6F:80:73:14:D0:6A:78:BC:C7:D7
            X509v3 Authority Key Identifier: 
                keyid:23:AD:7D:FB:B9:64:07:14:7C:BD:85:4A:B1:1D:2B:C8:05:CC:27:E1
                DirName:/CN=team548-net
                serial:21:90:AD:83:CD:02:6A:DE:A9:F7:06:EF:57:E5:51:22:4E:B6:D6:8A

            X509v3 Extended Key Usage: 
                TLS Web Client Authentication
            X509v3 Key Usage: 
                Digital Signature
    Signature Algorithm: sha256WithRSAEncryption
         00:26:f7:41:03:6f:38:cb:a6:e4:52:f7:c1:53:aa:be:ea:b6:
         01:8a:81:a7:bd:06:48:08:1b:82:00:04:ab:c6:e9:59:e0:c3:
         80:26:cc:9a:b4:95:c7:99:50:fa:0e:b2:0a:39:76:b0:74:37:
         11:a1:4d:16:ec:4f:dd:ff:d1:2b:87:04:c1:32:4a:6d:9c:67:
         44:7e:09:43:f1:36:26:d5:c5:39:81:27:50:12:37:c1:e0:ac:
         71:84:4d:e2:34:0a:11:e4:c5:03:1a:1a:d6:b0:40:e3:f6:bc:
         74:0a:a0:a8:6c:92:4b:b5:9f:f0:b1:10:bb:6c:7f:ef:2b:8f:
         4e:a8:d1:53:88:24:47:e8:37:c0:f2:6c:86:b7:70:ca:31:b8:
         92:de:10:c9:72:89:34:9d:90:8f:3b:46:08:36:5b:6f:fa:3a:
         22:92:ff:fc:a6:d3:97:4e:31:5f:9b:e7:77:76:3a:23:86:03:
         26:77:77:ca:11:0b:f9:08:4f:dd:17:ec:08:11:de:35:da:92:
         97:56:b1:c0:4a:ea:91:ad:2b:fa:86:7e:6f:cb:29:75:a3:ce:
         64:e5:d7:0a:68:2b:9e:9a:1f:ee:00:51:7b:cf:9e:87:16:90:
         b2:c3:6d:e5:a7:79:db:d2:9b:9e:30:89:6d:e8:fd:60:f4:07:
         27:ef:22:62
-----BEGIN CERTIFICATE-----
MIIDXTCCAkWgAwIBAgIRAKEz5o8JDSbvnMAtHrZ8E3IwDQYJKoZIhvcNAQELBQAw
FjEUMBIGA1UEAwwLdGVhbTU0OC1uZXQwHhcNMjIwNTE4MjIxMTQ0WhcNMjUwNTAy
MjIxMTQ0WjAZMRcwFQYDVQQDDA50ZWFtNTQ4LWNsaWVudDCCASIwDQYJKoZIhvcN
AQEBBQADggEPADCCAQoCggEBALpL7ABkvggvxCO40XF3wvYrwGyisoQcnJJtwH7K
JrPhPWp2sWuUGpzDxK9oi7z7xRDmlt7VzfJa64RWlj4KfIzbbObowG6Z+cSMBJBz
0WPHfIMEcjaKiIF2HysV257OX3Bjqq5Sb+NruabkljRA8zjcRWK18widcqcdom2v
FQk16tsFobIxZGukhMCA0N2vvrj7KlJYDLD/2dV+jW8ntrZcVRcRZYPfrnS4mTFb
JjKWplSZXLC1UmVyvAV0Y4dvz7NkZboYMTjqts7AkpGCUctLra9vriteeBRr06hN
c8Q66S+nwLx+GzgJiuYdwudRug8r9SlQmr6q0w4VACknf/sCAwEAAaOBojCBnzAJ
BgNVHRMEAjAAMB0GA1UdDgQWBBSqihij7iy5sqoUb4BzFNBqeLzH1zBRBgNVHSME
SjBIgBQjrX37uWQHFHy9hUqxHSvIBcwn4aEapBgwFjEUMBIGA1UEAwwLdGVhbTU0
OC1uZXSCFCGQrYPNAmreqfcG71flUSJOttaKMBMGA1UdJQQMMAoGCCsGAQUFBwMC
MAsGA1UdDwQEAwIHgDANBgkqhkiG9w0BAQsFAAOCAQEAACb3QQNvOMum5FL3wVOq
vuq2AYqBp70GSAgbggAEq8bpWeDDgCbMmrSVx5lQ+g6yCjl2sHQ3EaFNFuxP3f/R
K4cEwTJKbZxnRH4JQ/E2JtXFOYEnUBI3weCscYRN4jQKEeTFAxoa1rBA4/a8dAqg
qGySS7Wf8LEQu2x/7yuPTqjRU4gkR+g3wPJshrdwyjG4kt4QyXKJNJ2QjztGCDZb
b/o6IpL//KbTl04xX5vnd3Y6I4YDJnd3yhEL+QhP3RfsCBHeNdqSl1axwErqka0r
+oZ+b8spdaPOZOXXCmgrnpof7gBRe8+ehxaQssNt5ad529KbnjCJbej9YPQHJ+8i
Yg==
-----END CERTIFICATE-----
