Certificate:
    Data:
        Version: 3 (0x2)
        Serial Number:
            d8:e8:2d:1b:96:b9:67:af:89:75:f3:45:91:a5:6d:24
        Signature Algorithm: sha256WithRSAEncryption
        Issuer: CN=team592-net
        Validity
            Not Before: May 18 22:37:08 2022 GMT
            Not After : May  2 22:37:08 2025 GMT
        Subject: CN=team592-client
        Subject Public Key Info:
            Public Key Algorithm: rsaEncryption
                RSA Public-Key: (2048 bit)
                Modulus:
                    00:b1:4e:9b:81:1f:36:e7:85:20:0e:45:54:d2:01:
                    31:82:48:4c:6e:25:12:c3:30:a9:9e:37:a1:13:c7:
                    b7:7c:52:ca:ed:a2:9f:fe:14:75:66:23:56:cd:89:
                    52:1d:5f:66:86:e7:3d:b7:24:6c:1c:c1:9f:c9:2c:
                    1b:6c:cd:ac:e9:65:f1:e8:2e:e0:3c:fa:91:49:fd:
                    36:aa:1a:33:e3:d9:e0:78:e3:70:ab:4f:58:01:b5:
                    18:29:10:29:70:0c:22:c3:1e:25:fc:ca:73:31:1e:
                    21:58:cc:a7:26:02:4b:2d:7c:95:40:f9:4f:ea:54:
                    ff:cf:ca:2b:3b:5b:07:ef:07:b0:f8:8a:b1:12:48:
                    d2:21:1d:84:da:bc:09:fc:02:06:76:f0:06:14:e0:
                    41:e7:a2:71:65:12:a8:12:80:8e:f9:8d:ba:c0:a6:
                    1d:76:58:b3:eb:ab:e7:57:dd:2f:f4:65:c6:43:9b:
                    42:bd:eb:41:1f:d7:57:75:3e:6e:90:3c:96:a8:d2:
                    a5:af:ad:5b:cb:23:72:67:71:79:0f:fb:12:c7:92:
                    c7:75:bb:61:3b:90:fd:6f:dd:fb:2f:5f:71:e1:7f:
                    24:12:13:31:6f:a5:b7:69:d7:ab:da:5e:66:c1:10:
                    e4:ba:2f:8d:75:ed:93:ce:81:99:b3:fd:dd:28:90:
                    9c:e3
                Exponent: 65537 (0x10001)
        X509v3 extensions:
            X509v3 Basic Constraints: 
                CA:FALSE
            X509v3 Subject Key Identifier: 
                45:07:82:5D:80:59:0B:EC:46:FA:9F:09:0C:C1:D4:74:3C:BA:0C:82
            X509v3 Authority Key Identifier: 
                keyid:A7:E6:8F:14:25:EA:66:AE:69:16:8C:31:A7:49:55:E5:7D:F5:16:F1
                DirName:/CN=team592-net
                serial:5B:84:1A:CA:BE:D9:5E:A0:B4:32:18:1C:53:CB:01:E9:CF:64:BA:E1

            X509v3 Extended Key Usage: 
                TLS Web Client Authentication
            X509v3 Key Usage: 
                Digital Signature
    Signature Algorithm: sha256WithRSAEncryption
         1f:55:8d:09:3d:d3:a3:2c:25:48:fd:28:39:37:2f:61:cd:58:
         fa:e8:f6:8e:27:d0:59:fc:63:00:f1:b8:dd:7c:a8:c1:99:63:
         7a:fc:2d:97:0e:85:bf:95:6a:dc:cb:d0:bc:a5:c6:be:5a:3a:
         f0:9c:01:2c:5d:ee:56:ac:b1:ed:e0:42:e9:7c:ea:ec:41:3b:
         01:91:0c:37:fe:7e:0f:bc:1a:a1:87:54:93:92:a6:ff:3e:93:
         c3:4f:18:06:88:04:50:86:6f:f1:74:36:cc:7d:ba:bc:b2:01:
         dc:80:f4:cb:bc:a4:4d:ee:7d:c5:3e:04:c5:26:cf:eb:ac:a3:
         bf:b0:20:b0:e8:e2:bf:88:61:0a:f1:c6:dd:c1:c3:02:47:d7:
         4b:34:41:98:b8:aa:11:6a:fb:e1:c0:3e:c4:f6:a4:c6:51:a5:
         c4:35:07:6b:c1:eb:3f:8e:84:6b:74:b7:d2:ab:41:5c:34:8a:
         76:b7:f1:d1:bb:54:96:21:c0:ae:1f:8d:8f:d5:60:76:73:c5:
         86:ca:a1:0a:64:8a:50:a3:57:49:ea:82:cd:e3:26:11:19:c6:
         21:c1:dc:52:23:fe:29:1b:bc:61:b5:7c:48:5b:77:b8:03:de:
         c5:04:7b:c6:1d:44:c8:53:7c:b4:70:ef:29:42:2b:ec:89:db:
         46:50:77:e7
-----BEGIN CERTIFICATE-----
MIIDXTCCAkWgAwIBAgIRANjoLRuWuWeviXXzRZGlbSQwDQYJKoZIhvcNAQELBQAw
FjEUMBIGA1UEAwwLdGVhbTU5Mi1uZXQwHhcNMjIwNTE4MjIzNzA4WhcNMjUwNTAy
MjIzNzA4WjAZMRcwFQYDVQQDDA50ZWFtNTkyLWNsaWVudDCCASIwDQYJKoZIhvcN
AQEBBQADggEPADCCAQoCggEBALFOm4EfNueFIA5FVNIBMYJITG4lEsMwqZ43oRPH
t3xSyu2in/4UdWYjVs2JUh1fZobnPbckbBzBn8ksG2zNrOll8egu4Dz6kUn9Nqoa
M+PZ4HjjcKtPWAG1GCkQKXAMIsMeJfzKczEeIVjMpyYCSy18lUD5T+pU/8/KKztb
B+8HsPiKsRJI0iEdhNq8CfwCBnbwBhTgQeeicWUSqBKAjvmNusCmHXZYs+ur51fd
L/RlxkObQr3rQR/XV3U+bpA8lqjSpa+tW8sjcmdxeQ/7EseSx3W7YTuQ/W/d+y9f
ceF/JBITMW+lt2nXq9peZsEQ5LovjXXtk86BmbP93SiQnOMCAwEAAaOBojCBnzAJ
BgNVHRMEAjAAMB0GA1UdDgQWBBRFB4JdgFkL7Eb6nwkMwdR0PLoMgjBRBgNVHSME
SjBIgBSn5o8UJepmrmkWjDGnSVXlffUW8aEapBgwFjEUMBIGA1UEAwwLdGVhbTU5
Mi1uZXSCFFuEGsq+2V6gtDIYHFPLAenPZLrhMBMGA1UdJQQMMAoGCCsGAQUFBwMC
MAsGA1UdDwQEAwIHgDANBgkqhkiG9w0BAQsFAAOCAQEAH1WNCT3ToywlSP0oOTcv
Yc1Y+uj2jifQWfxjAPG43XyowZljevwtlw6Fv5Vq3MvQvKXGvlo68JwBLF3uVqyx
7eBC6Xzq7EE7AZEMN/5+D7waoYdUk5Km/z6Tw08YBogEUIZv8XQ2zH26vLIB3ID0
y7ykTe59xT4ExSbP66yjv7AgsOjiv4hhCvHG3cHDAkfXSzRBmLiqEWr74cA+xPak
xlGlxDUHa8HrP46Ea3S30qtBXDSKdrfx0btUliHArh+Nj9VgdnPFhsqhCmSKUKNX
SeqCzeMmERnGIcHcUiP+KRu8YbV8SFt3uAPexQR7xh1EyFN8tHDvKUIr7InbRlB3
5w==
-----END CERTIFICATE-----
