Certificate:
    Data:
        Version: 3 (0x2)
        Serial Number:
            6c:db:d1:4d:2f:73:39:02:5f:14:de:61:83:13:35:f3
        Signature Algorithm: sha256WithRSAEncryption
        Issuer: CN=team226-net
        Validity
            Not Before: May 18 19:17:28 2022 GMT
            Not After : May  2 19:17:28 2025 GMT
        Subject: CN=team226-client
        Subject Public Key Info:
            Public Key Algorithm: rsaEncryption
                RSA Public-Key: (2048 bit)
                Modulus:
                    00:bf:2e:a9:01:f2:ea:fc:cf:24:ad:cf:fb:e1:a4:
                    32:bf:81:87:9a:bc:66:68:d4:db:60:7b:26:66:e4:
                    54:bc:69:7c:a4:fb:4e:9b:64:16:b2:de:14:b8:9b:
                    a8:5c:47:99:f8:cd:fb:e0:5f:53:f8:53:60:fd:7b:
                    66:78:94:84:5a:7c:d9:ba:1e:3c:79:91:bc:bd:13:
                    cc:67:e4:f5:ce:16:76:3f:13:7b:1a:33:79:2e:5d:
                    7a:71:a6:60:a7:7e:de:54:7c:7f:8b:f8:5b:1a:03:
                    7d:c9:a1:88:58:f7:ae:91:c0:e6:20:93:5d:a6:82:
                    e6:bf:41:74:68:6a:00:f4:f8:dc:50:d5:d6:87:e9:
                    22:e7:e0:24:52:0d:78:70:38:17:a9:99:19:17:76:
                    ce:9e:54:a7:25:49:fe:bc:3f:d3:7d:09:b8:dc:20:
                    99:46:0f:03:36:9d:4e:a3:e3:36:37:2b:d2:e3:f7:
                    f5:1c:3f:53:c8:ac:65:2a:e3:8e:31:e3:82:be:14:
                    a9:fd:e7:0b:27:b9:2b:53:24:2d:ba:f7:37:a1:8f:
                    5e:46:21:5b:8f:7e:49:b2:40:92:71:22:ca:80:da:
                    7f:e3:8f:12:25:ea:66:90:db:3f:8c:ce:f9:39:4e:
                    ee:32:a2:34:f9:f1:64:13:65:70:17:6d:fd:f0:9c:
                    f5:a1
                Exponent: 65537 (0x10001)
        X509v3 extensions:
            X509v3 Basic Constraints: 
                CA:FALSE
            X509v3 Subject Key Identifier: 
                C0:CC:E0:DF:FC:81:A9:3D:09:4E:B1:12:02:DD:37:32:F2:C4:5D:16
            X509v3 Authority Key Identifier: 
                keyid:FC:54:A6:82:6C:EB:27:3E:1C:86:1A:79:BE:2C:20:68:16:84:4B:05
                DirName:/CN=team226-net
                serial:42:3B:A8:7E:F9:2D:22:55:E0:5E:6D:CD:A4:2B:C7:48:0A:9B:20:68

            X509v3 Extended Key Usage: 
                TLS Web Client Authentication
            X509v3 Key Usage: 
                Digital Signature
    Signature Algorithm: sha256WithRSAEncryption
         27:db:99:bf:e5:6e:6c:b6:fd:dd:11:07:39:3c:65:9a:5e:66:
         07:2c:35:e6:e3:4e:4a:00:00:0d:10:bc:2c:ff:31:80:23:0e:
         77:ec:43:6c:f2:ea:49:66:20:50:07:68:0b:27:fa:8f:58:fc:
         e7:d9:1e:8e:ab:86:a0:80:4b:aa:1b:80:1e:4b:2f:f5:43:c1:
         49:0e:a8:a4:c5:a3:ac:a1:99:fc:d3:f8:1f:73:bc:a5:38:6d:
         d2:1a:3f:d0:0f:c2:e9:b4:43:6b:18:cb:85:34:82:87:0c:dd:
         46:50:6f:f1:67:90:88:21:a5:da:54:9f:04:be:40:28:83:7b:
         b4:1f:4c:4c:82:33:14:cc:be:f0:19:fc:8e:4d:ce:c3:53:35:
         2b:46:50:c3:7d:4f:e7:1b:91:3d:29:39:9d:77:60:9e:8e:51:
         43:c0:2b:1a:fc:f1:24:ea:f0:3c:95:2b:b6:7e:e3:bb:03:b8:
         46:90:4f:67:08:30:71:2a:a4:8a:97:ed:81:45:7d:da:86:f6:
         2f:75:cf:6a:05:70:7a:04:1c:b7:6b:9c:23:cc:56:76:78:c4:
         71:5a:10:5f:da:3b:96:5b:51:f2:64:31:52:68:c1:79:78:87:
         b8:d1:df:6f:dc:d9:74:6d:21:98:50:39:13:cd:6d:84:a8:58:
         7c:81:08:63
-----BEGIN CERTIFICATE-----
MIIDXDCCAkSgAwIBAgIQbNvRTS9zOQJfFN5hgxM18zANBgkqhkiG9w0BAQsFADAW
MRQwEgYDVQQDDAt0ZWFtMjI2LW5ldDAeFw0yMjA1MTgxOTE3MjhaFw0yNTA1MDIx
OTE3MjhaMBkxFzAVBgNVBAMMDnRlYW0yMjYtY2xpZW50MIIBIjANBgkqhkiG9w0B
AQEFAAOCAQ8AMIIBCgKCAQEAvy6pAfLq/M8krc/74aQyv4GHmrxmaNTbYHsmZuRU
vGl8pPtOm2QWst4UuJuoXEeZ+M374F9T+FNg/XtmeJSEWnzZuh48eZG8vRPMZ+T1
zhZ2PxN7GjN5Ll16caZgp37eVHx/i/hbGgN9yaGIWPeukcDmIJNdpoLmv0F0aGoA
9PjcUNXWh+ki5+AkUg14cDgXqZkZF3bOnlSnJUn+vD/TfQm43CCZRg8DNp1Oo+M2
NyvS4/f1HD9TyKxlKuOOMeOCvhSp/ecLJ7krUyQtuvc3oY9eRiFbj35JskCScSLK
gNp/448SJepmkNs/jM75OU7uMqI0+fFkE2VwF2398Jz1oQIDAQABo4GiMIGfMAkG
A1UdEwQCMAAwHQYDVR0OBBYEFMDM4N/8gak9CU6xEgLdNzLyxF0WMFEGA1UdIwRK
MEiAFPxUpoJs6yc+HIYaeb4sIGgWhEsFoRqkGDAWMRQwEgYDVQQDDAt0ZWFtMjI2
LW5ldIIUQjuofvktIlXgXm3NpCvHSAqbIGgwEwYDVR0lBAwwCgYIKwYBBQUHAwIw
CwYDVR0PBAQDAgeAMA0GCSqGSIb3DQEBCwUAA4IBAQAn25m/5W5stv3dEQc5PGWa
XmYHLDXm405KAAANELws/zGAIw537ENs8upJZiBQB2gLJ/qPWPzn2R6Oq4aggEuq
G4AeSy/1Q8FJDqikxaOsoZn80/gfc7ylOG3SGj/QD8LptENrGMuFNIKHDN1GUG/x
Z5CIIaXaVJ8EvkAog3u0H0xMgjMUzL7wGfyOTc7DUzUrRlDDfU/nG5E9KTmdd2Ce
jlFDwCsa/PEk6vA8lSu2fuO7A7hGkE9nCDBxKqSKl+2BRX3ahvYvdc9qBXB6BBy3
a5wjzFZ2eMRxWhBf2juWW1HyZDFSaMF5eIe40d9v3Nl0bSGYUDkTzW2EqFh8gQhj
-----END CERTIFICATE-----
