Certificate:
    Data:
        Version: 3 (0x2)
        Serial Number:
            9d:db:5a:ed:a1:ac:38:86:de:a1:74:4a:8c:04:d6:dc
        Signature Algorithm: sha256WithRSAEncryption
        Issuer: CN=team465-net
        Validity
            Not Before: May 18 21:31:48 2022 GMT
            Not After : May  2 21:31:48 2025 GMT
        Subject: CN=team465-server
        Subject Public Key Info:
            Public Key Algorithm: rsaEncryption
                RSA Public-Key: (2048 bit)
                Modulus:
                    00:99:8e:47:6d:5b:4e:cd:5f:77:1f:4c:e0:ba:7e:
                    db:b2:e0:f4:af:8c:ba:dc:00:61:94:20:03:8d:d9:
                    f7:ee:71:ce:41:a7:10:0e:da:f0:82:36:32:32:b5:
                    d8:6f:63:a6:47:55:f5:16:4c:7e:c6:75:a1:a8:74:
                    0d:1e:f6:c6:cf:2f:e6:4a:0d:a6:e6:b5:6c:12:86:
                    1a:f1:2f:bd:8b:5c:35:01:57:b7:fb:76:0d:4a:e9:
                    61:9b:f0:d4:bb:fd:31:8d:06:c8:9e:b2:5c:07:44:
                    b5:f8:78:d5:30:19:b0:75:a5:5b:31:98:e5:dc:e3:
                    15:24:71:15:6c:0d:d0:6f:1d:c6:e7:94:63:43:69:
                    1d:f6:0e:79:7a:22:0e:57:d3:cc:7c:ac:74:47:89:
                    0e:da:9c:3c:4b:8d:1a:c3:75:ef:b2:b7:ae:72:1d:
                    f2:78:17:ea:9e:b6:ce:27:0b:a3:0c:95:03:86:7b:
                    96:30:b4:0d:b5:d2:34:c4:e0:cb:0c:29:58:15:f5:
                    36:ac:e0:b2:03:ad:69:67:d0:47:ab:c0:9d:85:b0:
                    43:5e:4e:97:54:79:50:ec:14:e6:34:23:0c:f2:db:
                    ea:89:98:f8:88:85:ec:fb:12:30:cc:06:44:64:21:
                    6a:f6:e4:5e:16:b1:af:f7:61:13:cf:1e:33:62:3b:
                    d1:df
                Exponent: 65537 (0x10001)
        X509v3 extensions:
            X509v3 Basic Constraints: 
                CA:FALSE
            X509v3 Subject Key Identifier: 
                CB:E2:99:21:F4:76:BA:BD:62:89:9C:42:E5:F1:1B:90:09:7F:66:78
            X509v3 Authority Key Identifier: 
                keyid:61:4F:02:68:03:EE:15:A5:F5:03:6B:89:EA:B7:6B:68:74:08:21:3D
                DirName:/CN=team465-net
                serial:01:A9:CA:1F:2A:E3:83:22:7E:06:C1:C0:31:DC:A5:33:B9:66:33:B4

            X509v3 Extended Key Usage: 
                TLS Web Server Authentication
            X509v3 Key Usage: 
                Digital Signature, Key Encipherment
            X509v3 Subject Alternative Name: 
                DNS:team465-server
    Signature Algorithm: sha256WithRSAEncryption
         47:cd:c5:4e:2f:f1:be:de:d3:92:3b:d0:c8:47:16:e7:f7:4d:
         e3:32:59:20:a4:68:95:08:b6:49:6b:f6:df:63:3b:da:43:cd:
         16:a3:49:23:1f:f8:c2:04:94:82:64:57:10:a5:56:b4:2f:57:
         25:8d:f4:e3:42:a5:9c:1f:a2:63:02:33:65:a1:b8:bb:22:f2:
         83:19:d1:93:ab:aa:32:25:22:b3:3e:d8:42:c4:a3:b9:9e:bb:
         fe:7a:20:43:0c:60:3e:96:e1:d7:82:95:c0:2f:55:3a:db:a3:
         46:09:68:a8:e8:5c:18:eb:42:45:f1:7e:1c:bc:9c:34:29:21:
         1a:ad:d4:ee:05:0f:d2:4b:e6:53:cf:d0:00:f5:cd:61:61:e0:
         e6:fa:c5:99:69:52:11:ad:52:e2:74:29:88:3d:0f:a4:47:cf:
         8e:91:e0:6e:5a:30:ae:84:33:21:7b:37:19:43:a6:df:c8:b0:
         7b:1d:5a:a9:0a:90:23:44:75:8a:74:7d:7a:48:91:f7:da:33:
         d6:48:6f:6f:8e:fe:31:93:df:84:b3:49:db:5c:de:e0:c3:8a:
         7c:a1:04:bc:ed:14:89:8c:07:0a:16:81:bb:a6:19:4f:9c:8d:
         85:6c:c2:df:55:98:6a:66:4d:1d:c7:26:36:c4:ec:c5:90:95:
         54:6a:ed:c8
-----BEGIN CERTIFICATE-----
MIIDeDCCAmCgAwIBAgIRAJ3bWu2hrDiG3qF0SowE1twwDQYJKoZIhvcNAQELBQAw
FjEUMBIGA1UEAwwLdGVhbTQ2NS1uZXQwHhcNMjIwNTE4MjEzMTQ4WhcNMjUwNTAy
MjEzMTQ4WjAZMRcwFQYDVQQDDA50ZWFtNDY1LXNlcnZlcjCCASIwDQYJKoZIhvcN
AQEBBQADggEPADCCAQoCggEBAJmOR21bTs1fdx9M4Lp+27Lg9K+MutwAYZQgA43Z
9+5xzkGnEA7a8II2MjK12G9jpkdV9RZMfsZ1oah0DR72xs8v5koNpua1bBKGGvEv
vYtcNQFXt/t2DUrpYZvw1Lv9MY0GyJ6yXAdEtfh41TAZsHWlWzGY5dzjFSRxFWwN
0G8dxueUY0NpHfYOeXoiDlfTzHysdEeJDtqcPEuNGsN177K3rnId8ngX6p62zicL
owyVA4Z7ljC0DbXSNMTgywwpWBX1NqzgsgOtaWfQR6vAnYWwQ15Ol1R5UOwU5jQj
DPLb6omY+IiF7PsSMMwGRGQhavbkXhaxr/dhE88eM2I70d8CAwEAAaOBvTCBujAJ
BgNVHRMEAjAAMB0GA1UdDgQWBBTL4pkh9Ha6vWKJnELl8RuQCX9meDBRBgNVHSME
SjBIgBRhTwJoA+4VpfUDa4nqt2todAghPaEapBgwFjEUMBIGA1UEAwwLdGVhbTQ2
NS1uZXSCFAGpyh8q44MifgbBwDHcpTO5ZjO0MBMGA1UdJQQMMAoGCCsGAQUFBwMB
MAsGA1UdDwQEAwIFoDAZBgNVHREEEjAQgg50ZWFtNDY1LXNlcnZlcjANBgkqhkiG
9w0BAQsFAAOCAQEAR83FTi/xvt7TkjvQyEcW5/dN4zJZIKRolQi2SWv232M72kPN
FqNJIx/4wgSUgmRXEKVWtC9XJY3040KlnB+iYwIzZaG4uyLygxnRk6uqMiUisz7Y
QsSjuZ67/nogQwxgPpbh14KVwC9VOtujRgloqOhcGOtCRfF+HLycNCkhGq3U7gUP
0kvmU8/QAPXNYWHg5vrFmWlSEa1S4nQpiD0PpEfPjpHgblowroQzIXs3GUOm38iw
ex1aqQqQI0R1inR9ekiR99oz1khvb47+MZPfhLNJ21ze4MOKfKEEvO0UiYwHChaB
u6YZT5yNhWzC31WYamZNHccmNsTsxZCVVGrtyA==
-----END CERTIFICATE-----
