Certificate:
    Data:
        Version: 3 (0x2)
        Serial Number:
            04:66:5c:72:4b:55:68:9e:d2:a7:20:71:80:68:10:00
        Signature Algorithm: sha256WithRSAEncryption
        Issuer: CN=team450-net
        Validity
            Not Before: May 18 21:14:47 2022 GMT
            Not After : May  2 21:14:47 2025 GMT
        Subject: CN=team450-server
        Subject Public Key Info:
            Public Key Algorithm: rsaEncryption
                RSA Public-Key: (2048 bit)
                Modulus:
                    00:ca:fa:39:8b:24:e5:b9:a0:43:cc:c3:b5:db:f9:
                    24:eb:d9:fa:30:62:cc:7e:1d:3a:b1:21:83:98:92:
                    1f:ba:a0:ef:d5:53:ce:1e:f3:3f:6a:bb:6d:80:55:
                    64:b5:76:3f:45:d2:bc:a1:1e:63:93:b4:74:de:6f:
                    a4:f9:16:99:f3:ca:db:f7:d5:a1:7c:84:e1:e6:6d:
                    9d:82:22:cc:69:9a:6f:ce:bb:e7:fc:ca:f1:bf:e4:
                    12:91:9e:80:7d:cb:af:b8:7a:b7:77:db:bb:2c:7d:
                    c8:70:75:ab:e4:14:de:09:09:be:e7:7f:9e:60:4b:
                    47:29:f9:76:eb:15:2d:3a:75:e9:14:0f:15:7c:f5:
                    f5:33:9d:67:40:c5:c5:21:a7:a2:39:04:a8:37:f8:
                    52:e2:8c:e9:4d:a5:b0:98:f5:90:e9:6c:6a:8b:67:
                    5c:46:e9:4c:5a:45:d9:2f:bb:89:bc:0b:f0:02:a0:
                    5d:92:90:2f:ae:0a:c8:e2:83:0b:67:9c:b2:ea:c7:
                    37:5d:bc:6b:9d:ad:8c:b5:22:90:79:42:e4:6e:5c:
                    9a:68:2e:58:12:53:d6:1e:b7:c1:45:bb:f9:10:6e:
                    df:d0:b0:00:20:92:87:5b:1d:2c:01:c3:08:ef:54:
                    47:2f:f8:96:e6:86:90:2b:75:2a:bd:2e:02:d2:11:
                    01:25
                Exponent: 65537 (0x10001)
        X509v3 extensions:
            X509v3 Basic Constraints: 
                CA:FALSE
            X509v3 Subject Key Identifier: 
                FB:42:EE:8B:EA:69:43:7F:EC:3E:A9:3F:30:FA:0D:D8:DE:03:47:CE
            X509v3 Authority Key Identifier: 
                keyid:8A:9C:06:8C:44:1D:B6:F6:FF:C0:9F:BA:55:3A:D7:74:9D:FA:B0:E4
                DirName:/CN=team450-net
                serial:4F:6B:AE:31:64:3E:55:E8:10:CF:84:6F:8C:C2:32:8E:76:5C:0F:8F

            X509v3 Extended Key Usage: 
                TLS Web Server Authentication
            X509v3 Key Usage: 
                Digital Signature, Key Encipherment
            X509v3 Subject Alternative Name: 
                DNS:team450-server
    Signature Algorithm: sha256WithRSAEncryption
         d4:66:79:76:69:f4:31:7a:a2:43:a2:89:7e:d5:31:7c:a8:e3:
         1b:53:3e:11:a9:cd:7e:a0:4e:a9:2c:d3:c4:53:01:c5:e4:77:
         fd:91:3b:d6:7d:26:a7:a6:58:a7:d0:fc:bc:7a:e9:6f:4e:bd:
         c7:8a:b5:d2:b2:76:d5:6c:8b:89:c0:45:c6:1b:af:b1:4b:fe:
         ff:de:e1:f5:d1:d3:fb:30:57:fe:84:96:4b:33:76:3b:61:95:
         fd:b4:6a:ea:c6:c9:e4:08:3a:42:08:32:5f:cf:e8:e4:6b:76:
         ee:7e:1d:00:8f:e8:36:05:9d:36:15:d3:f5:d0:8b:12:7e:0c:
         1c:74:1d:82:fb:f3:1d:28:3d:14:d4:7b:b0:de:1d:05:af:f2:
         c9:4c:a3:30:cf:36:ae:b1:a4:df:3a:b5:90:77:85:a3:f8:66:
         f2:22:a2:ad:1d:87:c3:f1:f5:9a:3f:4d:6c:32:38:08:3c:d7:
         db:ba:4a:f9:af:8c:4e:26:0b:9a:c5:e3:3f:be:e5:b1:dd:a0:
         5b:55:0f:f8:9d:51:47:bc:be:23:e3:9c:a0:33:5e:b7:02:f3:
         15:9e:b9:a5:3d:b6:9e:be:d8:1c:06:31:1c:ef:35:39:bb:e7:
         98:78:a6:8e:82:52:fd:b1:f3:c4:1b:09:e3:ae:7e:9b:11:fc:
         7b:48:e8:b8
-----BEGIN CERTIFICATE-----
MIIDdzCCAl+gAwIBAgIQBGZccktVaJ7SpyBxgGgQADANBgkqhkiG9w0BAQsFADAW
MRQwEgYDVQQDDAt0ZWFtNDUwLW5ldDAeFw0yMjA1MTgyMTE0NDdaFw0yNTA1MDIy
MTE0NDdaMBkxFzAVBgNVBAMMDnRlYW00NTAtc2VydmVyMIIBIjANBgkqhkiG9w0B
AQEFAAOCAQ8AMIIBCgKCAQEAyvo5iyTluaBDzMO12/kk69n6MGLMfh06sSGDmJIf
uqDv1VPOHvM/arttgFVktXY/RdK8oR5jk7R03m+k+RaZ88rb99WhfITh5m2dgiLM
aZpvzrvn/Mrxv+QSkZ6AfcuvuHq3d9u7LH3IcHWr5BTeCQm+53+eYEtHKfl26xUt
OnXpFA8VfPX1M51nQMXFIaeiOQSoN/hS4ozpTaWwmPWQ6Wxqi2dcRulMWkXZL7uJ
vAvwAqBdkpAvrgrI4oMLZ5yy6sc3Xbxrna2MtSKQeULkblyaaC5YElPWHrfBRbv5
EG7f0LAAIJKHWx0sAcMI71RHL/iW5oaQK3UqvS4C0hEBJQIDAQABo4G9MIG6MAkG
A1UdEwQCMAAwHQYDVR0OBBYEFPtC7ovqaUN/7D6pPzD6DdjeA0fOMFEGA1UdIwRK
MEiAFIqcBoxEHbb2/8CfulU613Sd+rDkoRqkGDAWMRQwEgYDVQQDDAt0ZWFtNDUw
LW5ldIIUT2uuMWQ+VegQz4RvjMIyjnZcD48wEwYDVR0lBAwwCgYIKwYBBQUHAwEw
CwYDVR0PBAQDAgWgMBkGA1UdEQQSMBCCDnRlYW00NTAtc2VydmVyMA0GCSqGSIb3
DQEBCwUAA4IBAQDUZnl2afQxeqJDool+1TF8qOMbUz4Rqc1+oE6pLNPEUwHF5Hf9
kTvWfSanplin0Py8eulvTr3HirXSsnbVbIuJwEXGG6+xS/7/3uH10dP7MFf+hJZL
M3Y7YZX9tGrqxsnkCDpCCDJfz+jka3bufh0Aj+g2BZ02FdP10IsSfgwcdB2C+/Md
KD0U1Huw3h0Fr/LJTKMwzzausaTfOrWQd4Wj+GbyIqKtHYfD8fWaP01sMjgIPNfb
ukr5r4xOJguaxeM/vuWx3aBbVQ/4nVFHvL4j45ygM163AvMVnrmlPbaevtgcBjEc
7zU5u+eYeKaOglL9sfPEGwnjrn6bEfx7SOi4
-----END CERTIFICATE-----
