Certificate:
    Data:
        Version: 3 (0x2)
        Serial Number:
            75:a9:60:92:c4:7e:5d:09:e5:46:aa:ee:37:6c:f6:00
        Signature Algorithm: sha256WithRSAEncryption
        Issuer: CN=team208-net
        Validity
            Not Before: May 18 19:04:51 2022 GMT
            Not After : May  2 19:04:51 2025 GMT
        Subject: CN=team208-client
        Subject Public Key Info:
            Public Key Algorithm: rsaEncryption
                RSA Public-Key: (2048 bit)
                Modulus:
                    00:c4:02:d8:5a:49:68:a3:42:0c:65:96:5f:e2:9f:
                    14:7c:f7:33:3f:6d:d0:06:ff:30:f0:5b:ec:82:5e:
                    7f:ae:b4:1f:5a:f8:82:6b:84:0b:d0:15:d4:b7:c2:
                    4a:8e:8f:94:6b:fa:8a:c1:fb:87:b6:a8:3b:67:6c:
                    10:3e:36:3d:59:fd:47:a7:6a:46:68:c4:d9:a5:9a:
                    94:7a:3b:3c:23:3a:38:f5:ee:d6:98:1e:28:9c:91:
                    51:6f:2c:bc:ba:0b:56:25:57:9c:0a:da:43:37:73:
                    63:5e:9f:9e:d3:ea:8e:47:0e:0e:ba:69:9e:7b:ba:
                    57:af:9a:b0:e9:19:11:bf:e8:1a:5b:4c:97:51:47:
                    9d:48:7e:51:09:99:f2:2f:63:76:c4:42:45:1f:05:
                    ca:1d:26:6b:f1:76:4a:97:76:82:8f:e0:37:85:31:
                    c3:f2:02:dc:64:70:83:71:51:c7:5c:b5:2a:7b:66:
                    df:44:8f:64:5a:fa:eb:6b:f1:c5:4c:df:86:4d:a6:
                    d9:14:e7:b4:7b:2e:d9:01:b5:4f:56:80:c7:25:95:
                    b9:83:0c:d9:9b:c0:f5:cc:cc:25:af:71:97:88:8b:
                    1a:91:84:bf:6c:85:38:22:b7:0e:69:60:5d:0f:d4:
                    dd:2a:93:dd:7d:bd:e7:5b:33:fe:52:0c:e5:0f:07:
                    ab:b7
                Exponent: 65537 (0x10001)
        X509v3 extensions:
            X509v3 Basic Constraints: 
                CA:FALSE
            X509v3 Subject Key Identifier: 
                CF:B1:5A:CB:38:9E:93:A3:BE:EB:95:F7:39:F0:E8:4F:06:B3:45:DE
            X509v3 Authority Key Identifier: 
                keyid:9C:1A:E6:2B:F8:9B:A9:81:72:F7:F4:87:58:FA:7C:88:FF:D6:25:05
                DirName:/CN=team208-net
                serial:7C:C5:72:8C:05:8C:8F:75:F2:6B:4D:69:E3:25:CC:B3:F8:30:95:3D

            X509v3 Extended Key Usage: 
                TLS Web Client Authentication
            X509v3 Key Usage: 
                Digital Signature
    Signature Algorithm: sha256WithRSAEncryption
         43:4b:69:68:f7:8c:f2:a9:33:08:c8:bd:cc:3d:c7:26:e2:7a:
         cb:b2:4d:31:5a:cc:c5:2a:5a:8f:0e:b0:c6:cf:dc:a3:90:96:
         52:d7:18:a3:e4:5e:b2:a9:91:e7:e5:f7:c1:08:e1:22:99:9a:
         96:7e:0c:ca:4c:db:e5:63:28:b7:46:5a:69:be:06:26:04:21:
         8a:e7:32:9e:56:aa:2b:c6:42:9b:41:2b:be:17:94:10:fd:25:
         65:24:bb:a4:88:dc:2e:76:65:e2:d3:f0:a1:b4:b1:5a:32:34:
         40:76:36:1b:5d:4b:99:98:c8:a2:c9:3f:9e:06:7f:f5:0a:7f:
         3b:4f:ac:03:2d:cf:71:dc:6e:3d:cd:dd:48:ae:ef:26:34:b1:
         a3:d9:8b:28:4d:5d:df:af:c7:d9:b3:12:24:5e:92:cc:d9:3f:
         01:c8:6e:1f:4c:e9:1c:06:df:be:12:15:5d:0c:05:15:42:45:
         6e:5d:f9:e8:58:4e:10:3b:16:ad:e8:5e:22:3a:f4:ee:c3:b8:
         d9:7b:ad:ad:43:3c:d6:13:16:48:f4:35:9b:8c:f4:0c:34:c7:
         57:af:0f:09:ba:b6:d5:a1:81:98:95:43:c2:8e:a9:fe:4d:06:
         c0:1d:10:b5:4c:20:83:63:a4:64:b5:d9:3f:95:87:dc:ec:eb:
         06:a8:f3:61
-----BEGIN CERTIFICATE-----
MIIDXDCCAkSgAwIBAgIQdalgksR+XQnlRqruN2z2ADANBgkqhkiG9w0BAQsFADAW
MRQwEgYDVQQDDAt0ZWFtMjA4LW5ldDAeFw0yMjA1MTgxOTA0NTFaFw0yNTA1MDIx
OTA0NTFaMBkxFzAVBgNVBAMMDnRlYW0yMDgtY2xpZW50MIIBIjANBgkqhkiG9w0B
AQEFAAOCAQ8AMIIBCgKCAQEAxALYWkloo0IMZZZf4p8UfPczP23QBv8w8Fvsgl5/
rrQfWviCa4QL0BXUt8JKjo+Ua/qKwfuHtqg7Z2wQPjY9Wf1Hp2pGaMTZpZqUejs8
Izo49e7WmB4onJFRbyy8ugtWJVecCtpDN3NjXp+e0+qORw4Oummee7pXr5qw6RkR
v+gaW0yXUUedSH5RCZnyL2N2xEJFHwXKHSZr8XZKl3aCj+A3hTHD8gLcZHCDcVHH
XLUqe2bfRI9kWvrra/HFTN+GTabZFOe0ey7ZAbVPVoDHJZW5gwzZm8D1zMwlr3GX
iIsakYS/bIU4IrcOaWBdD9TdKpPdfb3nWzP+UgzlDwertwIDAQABo4GiMIGfMAkG
A1UdEwQCMAAwHQYDVR0OBBYEFM+xWss4npOjvuuV9znw6E8Gs0XeMFEGA1UdIwRK
MEiAFJwa5iv4m6mBcvf0h1j6fIj/1iUFoRqkGDAWMRQwEgYDVQQDDAt0ZWFtMjA4
LW5ldIIUfMVyjAWMj3Xya01p4yXMs/gwlT0wEwYDVR0lBAwwCgYIKwYBBQUHAwIw
CwYDVR0PBAQDAgeAMA0GCSqGSIb3DQEBCwUAA4IBAQBDS2lo94zyqTMIyL3MPccm
4nrLsk0xWszFKlqPDrDGz9yjkJZS1xij5F6yqZHn5ffBCOEimZqWfgzKTNvlYyi3
RlppvgYmBCGK5zKeVqorxkKbQSu+F5QQ/SVlJLukiNwudmXi0/ChtLFaMjRAdjYb
XUuZmMiiyT+eBn/1Cn87T6wDLc9x3G49zd1Iru8mNLGj2YsoTV3fr8fZsxIkXpLM
2T8ByG4fTOkcBt++EhVdDAUVQkVuXfnoWE4QOxat6F4iOvTuw7jZe62tQzzWExZI
9DWbjPQMNMdXrw8JurbVoYGYlUPCjqn+TQbAHRC1TCCDY6Rktdk/lYfc7OsGqPNh
-----END CERTIFICATE-----
