Certificate:
    Data:
        Version: 3 (0x2)
        Serial Number:
            04:06:a1:45:80:03:c8:49:a0:d9:ee:a0:92:ee:57:de
        Signature Algorithm: sha256WithRSAEncryption
        Issuer: CN=team360-net
        Validity
            Not Before: May 18 20:33:49 2022 GMT
            Not After : May  2 20:33:49 2025 GMT
        Subject: CN=team360-server
        Subject Public Key Info:
            Public Key Algorithm: rsaEncryption
                RSA Public-Key: (2048 bit)
                Modulus:
                    00:c3:f4:3d:90:6e:72:2b:10:76:53:a4:3f:78:22:
                    f0:12:5f:67:12:d6:36:bb:c8:cd:4e:a9:a7:6a:42:
                    cd:ea:22:4c:8a:b7:d6:31:cf:01:97:6f:ed:ab:a3:
                    2a:2e:40:01:a3:b9:cc:14:50:23:a8:7d:ff:ab:8a:
                    0e:2f:50:ab:35:41:91:8b:aa:26:a2:a2:5a:13:a1:
                    44:2d:9a:7c:03:8d:8d:30:5b:b1:05:c4:1f:24:bf:
                    e2:97:09:58:6c:fe:1b:e9:a6:ab:c4:bf:c8:6c:69:
                    39:da:25:8b:8e:ff:86:f7:c5:66:ec:21:cf:9b:41:
                    4a:98:ad:31:83:11:00:5d:79:23:43:1b:39:51:c2:
                    64:05:64:04:50:b8:f3:eb:95:8d:42:46:5e:b4:3f:
                    89:42:4b:ac:c8:9d:25:0d:18:53:4d:e1:7c:3b:17:
                    39:38:7f:7f:54:54:09:88:e0:a3:a0:d9:40:df:66:
                    05:a0:f3:c0:9c:e9:99:a7:fb:3f:64:e0:90:a0:5d:
                    4e:0e:dc:d6:93:cd:c2:cd:dc:68:92:cf:4b:6e:e0:
                    0a:86:52:6f:e0:15:48:1e:3e:7c:a2:e3:ea:52:05:
                    38:1a:1b:57:65:43:d2:1d:e4:d3:d1:ed:ea:4a:38:
                    0e:24:99:0d:6f:41:2b:05:a9:53:be:9a:b6:36:d1:
                    ec:29
                Exponent: 65537 (0x10001)
        X509v3 extensions:
            X509v3 Basic Constraints: 
                CA:FALSE
            X509v3 Subject Key Identifier: 
                1A:51:44:CD:6E:20:8E:E3:D6:A7:20:71:43:45:2E:F5:89:D7:F2:09
            X509v3 Authority Key Identifier: 
                keyid:30:6E:79:E5:AB:CC:9B:E4:EE:FA:E4:FE:0D:4E:A7:CD:19:E5:0D:4D
                DirName:/CN=team360-net
                serial:50:E9:51:FF:7D:9A:96:67:ED:65:B5:B6:B7:0F:85:54:18:BD:57:DC

            X509v3 Extended Key Usage: 
                TLS Web Server Authentication
            X509v3 Key Usage: 
                Digital Signature, Key Encipherment
            X509v3 Subject Alternative Name: 
                DNS:team360-server
    Signature Algorithm: sha256WithRSAEncryption
         61:33:3e:af:d8:41:23:a5:a6:8a:c5:c3:a3:de:1a:33:7c:86:
         22:0e:2c:33:6f:c9:54:12:a5:dd:37:23:f3:a2:8f:ec:2b:6d:
         8e:5c:9d:ea:ad:ba:c4:40:8d:0f:26:78:55:5a:48:b8:48:75:
         34:2a:be:38:14:2a:24:89:4b:d8:07:80:b2:e3:89:78:64:6a:
         f8:00:14:b1:18:62:ab:97:7d:5a:dc:91:94:ea:23:76:69:17:
         79:4f:b4:1b:8b:d6:f7:4c:1c:f7:af:20:2f:1c:b2:62:29:d9:
         8e:13:bb:97:42:36:77:7d:97:a6:b6:d5:77:bf:f7:53:66:33:
         f4:63:86:13:99:e7:7b:98:a7:1b:42:f7:1e:bd:cb:4e:9d:e2:
         ea:ea:18:a2:1d:2d:18:3a:52:9a:0f:a9:e9:a7:d1:04:25:92:
         3c:8b:88:2b:c5:81:34:aa:6c:cd:28:82:b6:fe:77:a5:13:7f:
         27:4f:a7:4a:c7:32:4a:99:5f:6e:26:9a:bc:60:b8:6f:03:ce:
         b4:5b:67:60:12:1d:f2:83:0d:bc:f9:e0:94:35:98:b5:e9:15:
         33:e6:8d:d1:7c:91:6b:e2:d5:bd:ea:7a:12:0e:d3:ca:f1:57:
         ec:cf:be:31:0c:30:2f:c8:96:1f:8c:4a:3d:b2:f0:0b:53:05:
         d9:08:a9:eb
-----BEGIN CERTIFICATE-----
MIIDdzCCAl+gAwIBAgIQBAahRYADyEmg2e6gku5X3jANBgkqhkiG9w0BAQsFADAW
MRQwEgYDVQQDDAt0ZWFtMzYwLW5ldDAeFw0yMjA1MTgyMDMzNDlaFw0yNTA1MDIy
MDMzNDlaMBkxFzAVBgNVBAMMDnRlYW0zNjAtc2VydmVyMIIBIjANBgkqhkiG9w0B
AQEFAAOCAQ8AMIIBCgKCAQEAw/Q9kG5yKxB2U6Q/eCLwEl9nEtY2u8jNTqmnakLN
6iJMirfWMc8Bl2/tq6MqLkABo7nMFFAjqH3/q4oOL1CrNUGRi6omoqJaE6FELZp8
A42NMFuxBcQfJL/ilwlYbP4b6aarxL/IbGk52iWLjv+G98Vm7CHPm0FKmK0xgxEA
XXkjQxs5UcJkBWQEULjz65WNQkZetD+JQkusyJ0lDRhTTeF8Oxc5OH9/VFQJiOCj
oNlA32YFoPPAnOmZp/s/ZOCQoF1ODtzWk83Czdxoks9LbuAKhlJv4BVIHj58ouPq
UgU4GhtXZUPSHeTT0e3qSjgOJJkNb0ErBalTvpq2NtHsKQIDAQABo4G9MIG6MAkG
A1UdEwQCMAAwHQYDVR0OBBYEFBpRRM1uII7j1qcgcUNFLvWJ1/IJMFEGA1UdIwRK
MEiAFDBueeWrzJvk7vrk/g1Op80Z5Q1NoRqkGDAWMRQwEgYDVQQDDAt0ZWFtMzYw
LW5ldIIUUOlR/32almftZbW2tw+FVBi9V9wwEwYDVR0lBAwwCgYIKwYBBQUHAwEw
CwYDVR0PBAQDAgWgMBkGA1UdEQQSMBCCDnRlYW0zNjAtc2VydmVyMA0GCSqGSIb3
DQEBCwUAA4IBAQBhMz6v2EEjpaaKxcOj3hozfIYiDiwzb8lUEqXdNyPzoo/sK22O
XJ3qrbrEQI0PJnhVWki4SHU0Kr44FCokiUvYB4Cy44l4ZGr4ABSxGGKrl31a3JGU
6iN2aRd5T7Qbi9b3TBz3ryAvHLJiKdmOE7uXQjZ3fZemttV3v/dTZjP0Y4YTmed7
mKcbQvcevctOneLq6hiiHS0YOlKaD6npp9EEJZI8i4grxYE0qmzNKIK2/nelE38n
T6dKxzJKmV9uJpq8YLhvA860W2dgEh3ygw28+eCUNZi16RUz5o3RfJFr4tW96noS
DtPK8Vfsz74xDDAvyJYfjEo9svALUwXZCKnr
-----END CERTIFICATE-----
