Certificate:
    Data:
        Version: 3 (0x2)
        Serial Number:
            5b:39:60:4f:65:98:f2:19:1a:f4:61:85:f0:69:a9:ae
        Signature Algorithm: sha256WithRSAEncryption
        Issuer: CN=team360-net
        Validity
            Not Before: May 18 20:33:49 2022 GMT
            Not After : May  2 20:33:49 2025 GMT
        Subject: CN=team360-client
        Subject Public Key Info:
            Public Key Algorithm: rsaEncryption
                RSA Public-Key: (2048 bit)
                Modulus:
                    00:c8:ff:06:2f:11:bd:ae:a8:74:be:45:e4:aa:e0:
                    71:25:a2:21:f4:6f:7f:a1:e5:7b:93:d9:f9:b4:ec:
                    8a:f2:58:7c:dc:76:c4:56:03:d4:9a:e1:56:8c:93:
                    2e:88:aa:93:27:11:bc:44:62:cd:24:ca:2a:d3:2a:
                    5a:1a:ba:36:3d:05:c2:22:f1:dd:e4:c5:ae:a5:ed:
                    66:a7:25:9e:a2:4b:8f:f8:fc:24:96:2b:9e:17:85:
                    4e:35:71:a0:b5:12:09:7d:7a:3f:55:53:6a:21:b0:
                    e9:3a:1f:56:71:7c:e2:d7:01:0d:39:43:28:4a:09:
                    40:9e:44:99:71:08:8f:d3:00:97:7a:89:02:b4:22:
                    27:fd:f4:88:e1:a2:0e:95:fc:d1:dd:1f:b5:a7:1d:
                    c0:a8:9d:3e:cd:24:10:f8:2f:ef:61:cd:ea:44:70:
                    f6:87:4c:c8:18:d6:e1:c9:f6:41:cc:8d:e5:4e:94:
                    c8:60:ab:6a:88:5c:8b:a4:1a:ec:5a:7b:0b:bf:ee:
                    78:68:05:16:51:46:9b:32:4f:13:98:02:e7:9c:93:
                    16:65:d3:8b:08:f2:aa:5b:03:d9:6f:d7:04:ff:e7:
                    f4:3f:9e:05:91:9e:4f:ad:fb:c1:a0:7b:86:53:9f:
                    42:83:1e:3d:ec:9b:27:01:ee:03:fe:f1:d4:21:18:
                    87:59
                Exponent: 65537 (0x10001)
        X509v3 extensions:
            X509v3 Basic Constraints: 
                CA:FALSE
            X509v3 Subject Key Identifier: 
                B5:9F:B4:EA:FD:BE:3D:E1:37:8A:E1:BF:C5:10:30:E6:5B:F9:0A:D4
            X509v3 Authority Key Identifier: 
                keyid:30:6E:79:E5:AB:CC:9B:E4:EE:FA:E4:FE:0D:4E:A7:CD:19:E5:0D:4D
                DirName:/CN=team360-net
                serial:50:E9:51:FF:7D:9A:96:67:ED:65:B5:B6:B7:0F:85:54:18:BD:57:DC

            X509v3 Extended Key Usage: 
                TLS Web Client Authentication
            X509v3 Key Usage: 
                Digital Signature
    Signature Algorithm: sha256WithRSAEncryption
         9d:9c:cf:d0:67:ed:dd:f5:96:d4:b3:66:da:90:e6:da:a7:99:
         7f:d8:48:c8:5b:81:c1:cd:a9:f7:29:a9:52:66:5d:21:2b:59:
         85:78:bd:6c:56:42:86:20:28:cf:15:08:df:10:ba:00:48:be:
         70:56:f5:c2:f7:05:a7:fd:3e:ad:c3:81:ba:af:77:fd:95:29:
         2e:a6:10:7d:16:e9:0c:9c:ff:be:af:e1:27:fd:78:f8:3f:a0:
         2b:85:d7:52:04:33:92:a5:ab:1f:07:0e:0c:20:5d:b9:4a:5e:
         28:b4:5d:fa:a8:9e:ec:3c:d3:95:0c:4b:5b:31:0d:bf:25:9b:
         e4:49:1a:fb:76:49:eb:8a:72:85:91:a2:0c:bd:6c:2b:4a:73:
         21:82:e6:21:9f:6e:f6:74:00:c6:40:a3:3f:29:5d:df:bc:24:
         83:2a:49:fe:a2:7f:3d:dc:d5:50:c9:b5:29:1c:fb:0f:49:ca:
         b4:ca:86:83:b0:96:82:9c:bc:f1:be:48:44:c3:04:53:c2:10:
         50:26:ad:63:ab:ef:1f:ea:60:cc:4b:0c:2a:4f:20:d8:e3:8d:
         3f:01:a6:7b:3e:9e:c6:17:37:33:fc:1a:41:64:33:b2:5a:c1:
         4c:35:35:e2:50:3a:3e:8f:1f:db:1f:69:25:71:c7:c8:61:a6:
         34:c6:5b:bc
-----BEGIN CERTIFICATE-----
MIIDXDCCAkSgAwIBAgIQWzlgT2WY8hka9GGF8GmprjANBgkqhkiG9w0BAQsFADAW
MRQwEgYDVQQDDAt0ZWFtMzYwLW5ldDAeFw0yMjA1MTgyMDMzNDlaFw0yNTA1MDIy
MDMzNDlaMBkxFzAVBgNVBAMMDnRlYW0zNjAtY2xpZW50MIIBIjANBgkqhkiG9w0B
AQEFAAOCAQ8AMIIBCgKCAQEAyP8GLxG9rqh0vkXkquBxJaIh9G9/oeV7k9n5tOyK
8lh83HbEVgPUmuFWjJMuiKqTJxG8RGLNJMoq0ypaGro2PQXCIvHd5MWupe1mpyWe
okuP+PwkliueF4VONXGgtRIJfXo/VVNqIbDpOh9WcXzi1wENOUMoSglAnkSZcQiP
0wCXeokCtCIn/fSI4aIOlfzR3R+1px3AqJ0+zSQQ+C/vYc3qRHD2h0zIGNbhyfZB
zI3lTpTIYKtqiFyLpBrsWnsLv+54aAUWUUabMk8TmALnnJMWZdOLCPKqWwPZb9cE
/+f0P54FkZ5PrfvBoHuGU59Cgx497JsnAe4D/vHUIRiHWQIDAQABo4GiMIGfMAkG
A1UdEwQCMAAwHQYDVR0OBBYEFLWftOr9vj3hN4rhv8UQMOZb+QrUMFEGA1UdIwRK
MEiAFDBueeWrzJvk7vrk/g1Op80Z5Q1NoRqkGDAWMRQwEgYDVQQDDAt0ZWFtMzYw
LW5ldIIUUOlR/32almftZbW2tw+FVBi9V9wwEwYDVR0lBAwwCgYIKwYBBQUHAwIw
CwYDVR0PBAQDAgeAMA0GCSqGSIb3DQEBCwUAA4IBAQCdnM/QZ+3d9ZbUs2bakOba
p5l/2EjIW4HBzan3KalSZl0hK1mFeL1sVkKGICjPFQjfELoASL5wVvXC9wWn/T6t
w4G6r3f9lSkuphB9FukMnP++r+En/Xj4P6ArhddSBDOSpasfBw4MIF25Sl4otF36
qJ7sPNOVDEtbMQ2/JZvkSRr7dknrinKFkaIMvWwrSnMhguYhn272dADGQKM/KV3f
vCSDKkn+on893NVQybUpHPsPScq0yoaDsJaCnLzxvkhEwwRTwhBQJq1jq+8f6mDM
SwwqTyDY440/AaZ7Pp7GFzcz/BpBZDOyWsFMNTXiUDo+jx/bH2klccfIYaY0xlu8
-----END CERTIFICATE-----
