Certificate:
    Data:
        Version: 3 (0x2)
        Serial Number:
            7d:af:7a:87:72:e5:d7:9d:91:da:b5:2e:84:2b:71:e9
        Signature Algorithm: sha256WithRSAEncryption
        Issuer: CN=team762-net
        Validity
            Not Before: May 19 00:20:38 2022 GMT
            Not After : May  3 00:20:38 2025 GMT
        Subject: CN=team762-client
        Subject Public Key Info:
            Public Key Algorithm: rsaEncryption
                RSA Public-Key: (2048 bit)
                Modulus:
                    00:e9:0e:5c:64:cc:d9:22:8a:34:10:8b:82:eb:6e:
                    4a:c5:f7:6a:cb:a2:9e:be:6f:61:39:ae:b4:07:d6:
                    52:31:62:5e:12:ff:c2:65:d5:9d:4e:6d:f7:12:1a:
                    85:a7:4a:69:5d:66:cd:78:ce:d2:05:38:ef:6b:fe:
                    58:5b:d0:4e:e1:46:64:c2:c9:fe:d6:68:31:fe:2b:
                    48:55:f8:32:cc:2a:e1:99:0b:7f:c1:4f:0b:bd:a4:
                    93:72:b0:1a:00:16:b6:fd:1e:fd:3a:c8:e1:0c:f5:
                    c6:83:6a:55:ae:68:db:41:4b:73:7d:0d:8b:67:56:
                    45:b9:b2:ae:22:5c:e3:32:25:0f:07:2e:ed:29:7c:
                    e9:fa:a8:1c:a9:0e:e8:92:12:ae:fd:97:3b:83:c5:
                    d9:23:83:87:61:b6:d0:52:7f:56:32:67:bf:56:70:
                    56:cd:0f:88:36:58:ac:a8:c7:ec:b3:8a:8b:1b:da:
                    05:a5:79:6a:58:1a:71:3f:42:d9:29:88:a1:ab:76:
                    25:ac:d7:7f:17:56:d2:bc:72:ce:7a:89:5f:00:fb:
                    74:3a:2a:b1:9c:d7:6b:b1:87:2a:34:4d:78:ef:41:
                    92:86:a7:ad:32:d6:90:2a:b2:2d:ca:e6:a9:ce:eb:
                    3d:39:18:74:b8:04:22:56:93:21:52:05:7c:06:2b:
                    29:9b
                Exponent: 65537 (0x10001)
        X509v3 extensions:
            X509v3 Basic Constraints: 
                CA:FALSE
            X509v3 Subject Key Identifier: 
                2B:06:D8:D8:22:F7:B4:49:EE:B0:0E:7D:B8:2A:39:55:3F:4B:0E:C1
            X509v3 Authority Key Identifier: 
                keyid:F7:BB:10:12:3F:9A:E3:0A:16:B3:F0:20:BA:73:E2:F2:2F:8C:FF:08
                DirName:/CN=team762-net
                serial:54:1F:82:1A:03:0D:DB:F6:30:1F:44:42:44:4E:BE:5A:57:C1:BE:58

            X509v3 Extended Key Usage: 
                TLS Web Client Authentication
            X509v3 Key Usage: 
                Digital Signature
    Signature Algorithm: sha256WithRSAEncryption
         75:81:48:b1:3c:40:d7:02:e6:c5:1a:a9:5b:25:7e:64:c3:92:
         4d:71:2b:63:f0:fc:22:1f:32:2b:b3:2e:4f:0e:89:3f:16:c1:
         d2:9b:43:ea:96:b6:6a:4f:10:71:82:88:de:76:13:55:7f:37:
         ce:7b:03:e5:3c:39:18:cb:ed:2c:cd:e1:fd:cb:51:b1:d1:53:
         2a:e6:7a:8f:75:37:b2:03:e2:70:6d:ab:0a:7d:53:e5:8c:1f:
         a1:fa:df:d7:0c:cc:85:8d:9c:ed:f7:3b:0d:f8:62:5c:d8:6c:
         92:2e:4c:6c:20:d8:66:ab:6a:35:e4:89:b0:c6:c3:04:b1:ca:
         08:e9:a3:b8:bb:8a:b8:a6:b3:a7:81:ff:e4:33:06:71:48:5b:
         11:99:c5:1a:2c:54:0c:b6:5b:4c:ae:0b:32:1c:cd:6b:e6:55:
         0a:ec:8f:f3:38:ef:8e:3f:16:ff:fd:b5:b0:1f:42:97:30:89:
         e4:4b:c5:3b:1b:20:73:9c:9b:4c:48:34:06:3f:9a:8c:ac:b9:
         47:8d:ca:e8:07:fc:2e:dd:41:e1:fe:41:1d:e4:ea:5e:fe:ef:
         70:ed:d2:4d:f1:6d:ff:fb:b1:f9:b6:9d:71:06:30:34:68:88:
         f7:21:72:cc:d7:68:aa:32:15:8c:1a:9d:c8:4c:b7:38:56:54:
         93:4b:e0:79
-----BEGIN CERTIFICATE-----
MIIDXDCCAkSgAwIBAgIQfa96h3Ll152R2rUuhCtx6TANBgkqhkiG9w0BAQsFADAW
MRQwEgYDVQQDDAt0ZWFtNzYyLW5ldDAeFw0yMjA1MTkwMDIwMzhaFw0yNTA1MDMw
MDIwMzhaMBkxFzAVBgNVBAMMDnRlYW03NjItY2xpZW50MIIBIjANBgkqhkiG9w0B
AQEFAAOCAQ8AMIIBCgKCAQEA6Q5cZMzZIoo0EIuC625Kxfdqy6Kevm9hOa60B9ZS
MWJeEv/CZdWdTm33EhqFp0ppXWbNeM7SBTjva/5YW9BO4UZkwsn+1mgx/itIVfgy
zCrhmQt/wU8LvaSTcrAaABa2/R79OsjhDPXGg2pVrmjbQUtzfQ2LZ1ZFubKuIlzj
MiUPBy7tKXzp+qgcqQ7okhKu/Zc7g8XZI4OHYbbQUn9WMme/VnBWzQ+INlisqMfs
s4qLG9oFpXlqWBpxP0LZKYihq3YlrNd/F1bSvHLOeolfAPt0OiqxnNdrsYcqNE14
70GShqetMtaQKrItyuapzus9ORh0uAQiVpMhUgV8BispmwIDAQABo4GiMIGfMAkG
A1UdEwQCMAAwHQYDVR0OBBYEFCsG2Ngi97RJ7rAOfbgqOVU/Sw7BMFEGA1UdIwRK
MEiAFPe7EBI/muMKFrPwILpz4vIvjP8IoRqkGDAWMRQwEgYDVQQDDAt0ZWFtNzYy
LW5ldIIUVB+CGgMN2/YwH0RCRE6+WlfBvlgwEwYDVR0lBAwwCgYIKwYBBQUHAwIw
CwYDVR0PBAQDAgeAMA0GCSqGSIb3DQEBCwUAA4IBAQB1gUixPEDXAubFGqlbJX5k
w5JNcStj8PwiHzIrsy5PDok/FsHSm0PqlrZqTxBxgojedhNVfzfOewPlPDkYy+0s
zeH9y1Gx0VMq5nqPdTeyA+JwbasKfVPljB+h+t/XDMyFjZzt9zsN+GJc2GySLkxs
INhmq2o15ImwxsMEscoI6aO4u4q4prOngf/kMwZxSFsRmcUaLFQMtltMrgsyHM1r
5lUK7I/zOO+OPxb//bWwH0KXMInkS8U7GyBznJtMSDQGP5qMrLlHjcroB/wu3UHh
/kEd5Ope/u9w7dJN8W3/+7H5tp1xBjA0aIj3IXLM12iqMhWMGp3ITLc4VlSTS+B5
-----END CERTIFICATE-----
