Certificate:
    Data:
        Version: 3 (0x2)
        Serial Number:
            80:d9:3b:91:e6:eb:07:1d:9f:be:1d:f8:37:f6:84:0f
        Signature Algorithm: sha256WithRSAEncryption
        Issuer: CN=team294-net
        Validity
            Not Before: May 18 20:02:16 2022 GMT
            Not After : May  2 20:02:16 2025 GMT
        Subject: CN=team294-server
        Subject Public Key Info:
            Public Key Algorithm: rsaEncryption
                RSA Public-Key: (2048 bit)
                Modulus:
                    00:b6:f8:a1:52:e3:cc:25:96:4a:13:b2:59:f0:18:
                    8c:60:4e:a3:5a:43:bc:46:ff:80:36:d7:10:02:0e:
                    c4:fd:2b:c8:6f:15:bd:81:f9:e9:73:5c:35:d8:25:
                    2a:7d:b7:a5:f4:16:66:0b:45:59:25:ff:f5:06:d8:
                    7e:9b:21:66:31:47:7f:98:0c:90:72:66:7f:d8:42:
                    24:a6:0a:4f:a5:f3:55:27:7f:9b:9f:dc:81:90:91:
                    48:4d:f3:0d:87:e6:7d:72:cf:92:65:8e:2c:d9:b8:
                    e3:06:c3:ef:1d:ad:93:15:c6:c6:ca:3e:b3:a1:56:
                    53:00:bc:bb:74:bf:0f:d2:bf:95:0d:72:5c:0b:db:
                    49:58:37:39:3e:86:8c:3f:11:7b:4c:7a:e4:31:ac:
                    72:0b:5a:2d:0b:0a:0a:99:90:2d:25:01:72:00:53:
                    98:f9:39:f4:48:3c:26:ba:f8:5c:83:ef:fd:e7:ab:
                    96:80:86:d0:75:b5:f8:05:d6:f9:42:09:f9:ab:90:
                    63:6a:a9:59:ce:1b:16:0a:e8:60:e4:52:5f:17:4f:
                    c4:b3:dd:93:52:cf:c0:0a:da:84:90:4d:37:6d:7a:
                    fb:db:6b:a6:2d:fc:41:37:cd:bd:c5:f2:dc:e7:2c:
                    fa:0e:eb:c6:fe:bf:bc:43:fd:41:63:d9:28:8e:e3:
                    d9:a5
                Exponent: 65537 (0x10001)
        X509v3 extensions:
            X509v3 Basic Constraints: 
                CA:FALSE
            X509v3 Subject Key Identifier: 
                FF:CC:81:90:BE:E0:DF:1F:26:B9:31:71:7C:E5:70:85:18:19:FB:2B
            X509v3 Authority Key Identifier: 
                keyid:2D:5C:B5:E5:7A:76:80:EB:48:20:51:AD:8A:C3:E1:1E:44:C7:AE:4C
                DirName:/CN=team294-net
                serial:24:7C:64:E7:55:BB:56:56:74:43:FF:C9:3C:28:79:BB:1F:E1:F0:9F

            X509v3 Extended Key Usage: 
                TLS Web Server Authentication
            X509v3 Key Usage: 
                Digital Signature, Key Encipherment
            X509v3 Subject Alternative Name: 
                DNS:team294-server
    Signature Algorithm: sha256WithRSAEncryption
         22:65:39:c0:f9:d0:ef:4a:8f:51:c8:e9:f5:9b:d6:54:98:26:
         3a:8b:ed:3a:87:b2:55:73:a4:2f:d2:64:02:ec:96:2e:65:83:
         c2:55:36:bf:7b:b7:0e:6e:83:75:32:de:b7:33:b6:b7:ed:a4:
         87:de:d2:68:ee:ca:1e:a4:d2:5b:f4:2a:b1:de:8f:e9:e5:af:
         09:61:d5:8f:ae:c3:72:b5:db:c4:4f:03:77:a4:b3:aa:64:20:
         ec:81:05:f8:2a:7e:7a:6a:65:88:ab:a4:29:8d:6f:48:b5:6b:
         70:c7:0d:04:c4:d5:0d:6e:ed:35:13:85:38:f6:64:36:92:45:
         9a:bd:8c:34:17:bd:8d:f8:81:26:6c:04:69:e4:88:c6:90:be:
         e1:f5:97:c0:ae:c2:1a:0c:6a:f2:d2:3f:ff:c9:58:1a:37:7b:
         f1:ef:e2:35:0f:5f:55:3d:98:e4:06:e3:49:01:a2:04:be:49:
         a6:20:a3:6c:eb:d8:30:d6:8f:a1:1c:b9:ba:03:40:d2:c4:e2:
         92:44:43:c4:c2:8a:a3:45:83:86:89:19:ab:62:e0:fd:da:43:
         a5:4b:3c:1d:aa:80:22:a1:45:d7:1f:a3:0d:f1:3a:41:10:6d:
         97:fd:73:29:87:e5:ce:2b:94:a2:e4:79:04:7c:11:48:af:4d:
         9b:9d:9e:ff
-----BEGIN CERTIFICATE-----
MIIDeDCCAmCgAwIBAgIRAIDZO5Hm6wcdn74d+Df2hA8wDQYJKoZIhvcNAQELBQAw
FjEUMBIGA1UEAwwLdGVhbTI5NC1uZXQwHhcNMjIwNTE4MjAwMjE2WhcNMjUwNTAy
MjAwMjE2WjAZMRcwFQYDVQQDDA50ZWFtMjk0LXNlcnZlcjCCASIwDQYJKoZIhvcN
AQEBBQADggEPADCCAQoCggEBALb4oVLjzCWWShOyWfAYjGBOo1pDvEb/gDbXEAIO
xP0ryG8VvYH56XNcNdglKn23pfQWZgtFWSX/9QbYfpshZjFHf5gMkHJmf9hCJKYK
T6XzVSd/m5/cgZCRSE3zDYfmfXLPkmWOLNm44wbD7x2tkxXGxso+s6FWUwC8u3S/
D9K/lQ1yXAvbSVg3OT6GjD8Re0x65DGscgtaLQsKCpmQLSUBcgBTmPk59Eg8Jrr4
XIPv/eerloCG0HW1+AXW+UIJ+auQY2qpWc4bFgroYORSXxdPxLPdk1LPwArahJBN
N216+9trpi38QTfNvcXy3Ocs+g7rxv6/vEP9QWPZKI7j2aUCAwEAAaOBvTCBujAJ
BgNVHRMEAjAAMB0GA1UdDgQWBBT/zIGQvuDfHya5MXF85XCFGBn7KzBRBgNVHSME
SjBIgBQtXLXlenaA60ggUa2Kw+EeRMeuTKEapBgwFjEUMBIGA1UEAwwLdGVhbTI5
NC1uZXSCFCR8ZOdVu1ZWdEP/yTwoebsf4fCfMBMGA1UdJQQMMAoGCCsGAQUFBwMB
MAsGA1UdDwQEAwIFoDAZBgNVHREEEjAQgg50ZWFtMjk0LXNlcnZlcjANBgkqhkiG
9w0BAQsFAAOCAQEAImU5wPnQ70qPUcjp9ZvWVJgmOovtOoeyVXOkL9JkAuyWLmWD
wlU2v3u3Dm6DdTLetzO2t+2kh97SaO7KHqTSW/Qqsd6P6eWvCWHVj67DcrXbxE8D
d6SzqmQg7IEF+Cp+empliKukKY1vSLVrcMcNBMTVDW7tNROFOPZkNpJFmr2MNBe9
jfiBJmwEaeSIxpC+4fWXwK7CGgxq8tI//8lYGjd78e/iNQ9fVT2Y5AbjSQGiBL5J
piCjbOvYMNaPoRy5ugNA0sTikkRDxMKKo0WDhokZq2Lg/dpDpUs8HaqAIqFF1x+j
DfE6QRBtl/1zKYflziuUouR5BHwRSK9Nm52e/w==
-----END CERTIFICATE-----
