Certificate:
    Data:
        Version: 3 (0x2)
        Serial Number:
            66:3e:04:8c:6a:21:76:6f:b3:38:55:33:7e:ee:fd:23
        Signature Algorithm: sha256WithRSAEncryption
        Issuer: CN=team135-net
        Validity
            Not Before: May 18 15:11:30 2022 GMT
            Not After : May  2 15:11:30 2025 GMT
        Subject: CN=team135-client
        Subject Public Key Info:
            Public Key Algorithm: rsaEncryption
                RSA Public-Key: (2048 bit)
                Modulus:
                    00:d4:3b:8e:a3:bd:b8:00:45:21:c4:55:01:d2:63:
                    0e:e4:0c:49:4e:c0:3c:71:b4:6c:23:ac:f0:3e:35:
                    6c:84:d7:05:36:b2:26:9f:0f:dd:31:b8:b1:12:0e:
                    39:62:50:c4:f0:52:67:16:da:2b:11:cf:5e:cc:51:
                    30:6a:20:18:1b:6d:52:83:ea:07:73:9e:70:36:d1:
                    01:3a:f9:4c:0c:66:a4:60:e3:d7:1a:cf:7e:0d:a7:
                    05:1e:50:8d:d4:16:5c:72:87:e2:82:6c:82:9a:15:
                    4d:93:ae:e8:a6:ff:2c:e2:9d:57:5f:80:8f:40:51:
                    c7:f2:ee:63:af:a1:76:82:29:f9:c5:10:99:e3:36:
                    6e:bf:8e:87:22:63:f2:d3:36:0b:10:8a:13:ca:8d:
                    fa:84:a4:a6:bc:6e:0a:83:6d:e2:54:88:9c:19:f0:
                    ce:ce:7c:f2:22:7f:5a:b9:c4:72:b0:b2:55:18:b8:
                    37:c0:25:01:ea:99:24:5a:c6:5a:01:96:f8:47:d8:
                    cd:4e:35:45:eb:11:af:15:54:40:96:c2:dd:8e:30:
                    82:96:12:f7:3d:fe:42:e4:11:94:7e:5c:0a:3d:3d:
                    e8:91:c8:a5:65:5f:de:99:e7:2e:1d:0a:0f:dd:5d:
                    e8:f1:42:a9:ee:fe:79:13:7a:64:d1:a7:64:a4:f6:
                    85:43
                Exponent: 65537 (0x10001)
        X509v3 extensions:
            X509v3 Basic Constraints: 
                CA:FALSE
            X509v3 Subject Key Identifier: 
                FE:6B:96:16:58:5A:93:B4:D5:13:39:49:E1:1B:69:FB:5E:7E:06:74
            X509v3 Authority Key Identifier: 
                keyid:6A:A4:89:95:7E:E9:EF:12:9D:C4:1E:B5:31:6D:FB:A7:0F:6B:D6:14
                DirName:/CN=team135-net
                serial:0B:D8:72:0E:BC:6D:41:46:86:71:C3:82:3A:5E:2F:C4:53:AE:22:18

            X509v3 Extended Key Usage: 
                TLS Web Client Authentication
            X509v3 Key Usage: 
                Digital Signature
    Signature Algorithm: sha256WithRSAEncryption
         4c:a4:a6:1c:00:e7:75:0d:fe:70:5b:11:e9:43:25:17:5f:6f:
         15:de:95:f6:42:67:fd:3a:c4:df:19:a7:f8:3f:f0:8b:cf:1d:
         02:c4:ab:c1:2b:01:dd:57:e6:86:7c:07:5b:ad:ab:3e:67:72:
         ea:23:60:a0:28:84:64:2c:c1:d8:bf:be:42:d4:1a:82:f4:39:
         bf:22:b6:55:d5:0d:ad:b0:bc:03:06:06:28:6f:3c:08:2b:29:
         37:ec:22:ed:87:6d:94:b3:cf:b2:ad:fb:29:00:44:45:a2:61:
         6b:30:4e:c2:91:47:73:a9:f2:a7:40:79:ee:08:9c:73:88:21:
         5a:47:c3:c0:0e:e9:e7:1b:c0:fd:25:b5:8b:21:08:2d:1a:62:
         b7:39:32:8e:8b:5f:37:7a:9b:23:2e:bf:0d:d8:5e:ba:62:5e:
         73:ce:32:fc:70:7f:91:10:ac:12:5e:36:57:f3:7c:56:8d:ba:
         4f:33:d8:03:bb:8c:10:8d:17:e9:b9:c9:46:e1:72:c2:cf:1d:
         1e:d3:ee:f1:4e:1e:b0:b9:2d:00:1e:2b:c6:e2:be:2f:ad:0e:
         39:4f:32:64:43:df:6a:42:3c:61:28:88:b3:d7:c3:4d:b7:b6:
         b2:2a:fc:20:76:2a:e9:e1:f8:98:fd:7f:4c:83:c8:f0:c4:f1:
         71:9c:32:92
-----BEGIN CERTIFICATE-----
MIIDXDCCAkSgAwIBAgIQZj4EjGohdm+zOFUzfu79IzANBgkqhkiG9w0BAQsFADAW
MRQwEgYDVQQDDAt0ZWFtMTM1LW5ldDAeFw0yMjA1MTgxNTExMzBaFw0yNTA1MDIx
NTExMzBaMBkxFzAVBgNVBAMMDnRlYW0xMzUtY2xpZW50MIIBIjANBgkqhkiG9w0B
AQEFAAOCAQ8AMIIBCgKCAQEA1DuOo724AEUhxFUB0mMO5AxJTsA8cbRsI6zwPjVs
hNcFNrImnw/dMbixEg45YlDE8FJnFtorEc9ezFEwaiAYG21Sg+oHc55wNtEBOvlM
DGakYOPXGs9+DacFHlCN1BZccofigmyCmhVNk67opv8s4p1XX4CPQFHH8u5jr6F2
gin5xRCZ4zZuv46HImPy0zYLEIoTyo36hKSmvG4Kg23iVIicGfDOznzyIn9aucRy
sLJVGLg3wCUB6pkkWsZaAZb4R9jNTjVF6xGvFVRAlsLdjjCClhL3Pf5C5BGUflwK
PT3okcilZV/emecuHQoP3V3o8UKp7v55E3pk0adkpPaFQwIDAQABo4GiMIGfMAkG
A1UdEwQCMAAwHQYDVR0OBBYEFP5rlhZYWpO01RM5SeEbaftefgZ0MFEGA1UdIwRK
MEiAFGqkiZV+6e8SncQetTFt+6cPa9YUoRqkGDAWMRQwEgYDVQQDDAt0ZWFtMTM1
LW5ldIIUC9hyDrxtQUaGccOCOl4vxFOuIhgwEwYDVR0lBAwwCgYIKwYBBQUHAwIw
CwYDVR0PBAQDAgeAMA0GCSqGSIb3DQEBCwUAA4IBAQBMpKYcAOd1Df5wWxHpQyUX
X28V3pX2Qmf9OsTfGaf4P/CLzx0CxKvBKwHdV+aGfAdbras+Z3LqI2CgKIRkLMHY
v75C1BqC9Dm/IrZV1Q2tsLwDBgYobzwIKyk37CLth22Us8+yrfspAERFomFrME7C
kUdzqfKnQHnuCJxziCFaR8PADunnG8D9JbWLIQgtGmK3OTKOi183epsjLr8N2F66
Yl5zzjL8cH+REKwSXjZX83xWjbpPM9gDu4wQjRfpuclG4XLCzx0e0+7xTh6wuS0A
HivG4r4vrQ45TzJkQ99qQjxhKIiz18NNt7ayKvwgdirp4fiY/X9Mg8jwxPFxnDKS
-----END CERTIFICATE-----
