Certificate:
    Data:
        Version: 3 (0x2)
        Serial Number:
            30:0a:5f:98:13:50:bd:a3:66:94:3b:37:9d:cf:6f:15
        Signature Algorithm: sha256WithRSAEncryption
        Issuer: CN=team249-net
        Validity
            Not Before: May 18 19:29:05 2022 GMT
            Not After : May  2 19:29:05 2025 GMT
        Subject: CN=team249-server
        Subject Public Key Info:
            Public Key Algorithm: rsaEncryption
                RSA Public-Key: (2048 bit)
                Modulus:
                    00:c6:53:45:0f:70:d2:a7:d4:39:b3:d5:ed:9e:a3:
                    e4:f7:4b:10:d0:ff:b4:09:6e:e5:a8:56:0e:e4:44:
                    5d:d8:fe:4f:d2:75:19:be:92:ae:7b:42:8c:45:e7:
                    b9:a0:0b:06:cd:ee:48:13:53:f4:04:83:13:6c:b7:
                    74:91:91:dc:c7:1c:ad:07:5d:dd:cb:0d:8d:e6:ff:
                    35:c4:d7:88:fb:f1:af:d5:9a:96:88:43:28:06:85:
                    70:43:8a:0a:52:ca:81:05:30:d8:39:76:c1:24:20:
                    e0:5b:0a:76:67:8c:74:b2:0f:28:91:87:3a:c1:e9:
                    fd:1d:bb:98:77:c9:9c:aa:f6:6b:fe:a6:fe:5d:62:
                    3e:80:5a:24:05:21:63:69:45:f0:c9:46:99:77:29:
                    84:ae:83:17:0a:b3:18:8e:22:1a:92:41:82:54:69:
                    5b:5f:45:c9:ba:eb:b1:87:dc:a7:ff:23:ed:6d:70:
                    18:bb:c9:02:0f:99:e0:37:26:ea:dc:29:a7:ab:bb:
                    07:d8:93:64:2c:ae:7e:8c:71:de:c5:ed:01:a2:04:
                    29:ee:3a:24:a3:53:9a:9d:35:88:17:8a:c2:ed:fb:
                    ba:70:74:8d:f1:31:c1:d9:49:11:a7:f7:7f:11:b0:
                    40:43:0c:7a:8f:85:b7:59:68:b3:9c:42:a2:b4:c1:
                    83:71
                Exponent: 65537 (0x10001)
        X509v3 extensions:
            X509v3 Basic Constraints: 
                CA:FALSE
            X509v3 Subject Key Identifier: 
                42:53:1B:B6:E9:EC:A8:33:01:E1:A5:97:B0:1B:09:CC:92:F0:5B:7C
            X509v3 Authority Key Identifier: 
                keyid:C1:2A:06:3D:B7:B9:22:48:14:31:20:54:28:1B:57:C5:FA:40:D3:05
                DirName:/CN=team249-net
                serial:66:C0:F5:EC:7F:0A:8F:EC:D2:DD:78:41:A1:CC:48:83:BE:C0:C3:CE

            X509v3 Extended Key Usage: 
                TLS Web Server Authentication
            X509v3 Key Usage: 
                Digital Signature, Key Encipherment
            X509v3 Subject Alternative Name: 
                DNS:team249-server
    Signature Algorithm: sha256WithRSAEncryption
         22:67:4f:76:d4:62:1d:cc:ba:34:1f:db:f9:fb:c5:1c:58:8c:
         06:07:33:82:f6:8a:8e:f0:f6:28:6e:7f:19:78:1b:7f:74:58:
         20:52:f4:07:b5:cd:f3:05:01:26:01:dc:da:1a:fc:cf:8e:24:
         d0:e0:57:c6:b9:6b:b3:9f:8a:c8:34:50:51:c1:8f:73:a6:af:
         fd:83:06:b6:5f:55:ab:de:fe:8d:9c:84:e2:b7:3d:d1:44:8e:
         c8:53:c3:cb:33:09:d9:b1:50:a7:12:18:73:7b:82:ff:ef:7e:
         73:8e:c7:1f:b2:ad:b2:e8:02:ea:73:62:8b:eb:51:9f:e7:59:
         c1:06:65:65:c6:be:8a:62:c7:3f:e9:77:3f:e5:95:22:ba:6e:
         88:8a:04:fb:3e:d6:c1:67:79:e0:e6:f9:9a:8b:07:8a:41:5c:
         28:26:f8:f8:50:ff:f5:6c:0b:8d:e9:d2:d5:a4:36:9a:4e:17:
         2e:f4:00:34:af:5f:17:a8:93:2a:f1:e4:2e:66:e0:b5:3d:6f:
         16:b9:b3:0a:2f:95:58:4a:89:62:9a:f8:91:95:65:01:22:42:
         4f:3a:50:1b:4a:46:be:12:60:73:5f:b6:56:bd:b8:8c:cc:a6:
         7c:cc:90:58:26:76:a0:5e:48:95:a8:e2:68:f4:ec:25:b8:de:
         d5:02:8a:b1
-----BEGIN CERTIFICATE-----
MIIDdzCCAl+gAwIBAgIQMApfmBNQvaNmlDs3nc9vFTANBgkqhkiG9w0BAQsFADAW
MRQwEgYDVQQDDAt0ZWFtMjQ5LW5ldDAeFw0yMjA1MTgxOTI5MDVaFw0yNTA1MDIx
OTI5MDVaMBkxFzAVBgNVBAMMDnRlYW0yNDktc2VydmVyMIIBIjANBgkqhkiG9w0B
AQEFAAOCAQ8AMIIBCgKCAQEAxlNFD3DSp9Q5s9XtnqPk90sQ0P+0CW7lqFYO5ERd
2P5P0nUZvpKue0KMRee5oAsGze5IE1P0BIMTbLd0kZHcxxytB13dyw2N5v81xNeI
+/Gv1ZqWiEMoBoVwQ4oKUsqBBTDYOXbBJCDgWwp2Z4x0sg8okYc6wen9HbuYd8mc
qvZr/qb+XWI+gFokBSFjaUXwyUaZdymEroMXCrMYjiIakkGCVGlbX0XJuuuxh9yn
/yPtbXAYu8kCD5ngNybq3Cmnq7sH2JNkLK5+jHHexe0BogQp7joko1OanTWIF4rC
7fu6cHSN8THB2UkRp/d/EbBAQwx6j4W3WWiznEKitMGDcQIDAQABo4G9MIG6MAkG
A1UdEwQCMAAwHQYDVR0OBBYEFEJTG7bp7KgzAeGll7AbCcyS8Ft8MFEGA1UdIwRK
MEiAFMEqBj23uSJIFDEgVCgbV8X6QNMFoRqkGDAWMRQwEgYDVQQDDAt0ZWFtMjQ5
LW5ldIIUZsD17H8Kj+zS3XhBocxIg77Aw84wEwYDVR0lBAwwCgYIKwYBBQUHAwEw
CwYDVR0PBAQDAgWgMBkGA1UdEQQSMBCCDnRlYW0yNDktc2VydmVyMA0GCSqGSIb3
DQEBCwUAA4IBAQAiZ0921GIdzLo0H9v5+8UcWIwGBzOC9oqO8PYobn8ZeBt/dFgg
UvQHtc3zBQEmAdzaGvzPjiTQ4FfGuWuzn4rINFBRwY9zpq/9gwa2X1Wr3v6NnITi
tz3RRI7IU8PLMwnZsVCnEhhze4L/735zjscfsq2y6ALqc2KL61Gf51nBBmVlxr6K
Ysc/6Xc/5ZUium6IigT7PtbBZ3ng5vmaiweKQVwoJvj4UP/1bAuN6dLVpDaaThcu
9AA0r18XqJMq8eQuZuC1PW8WubMKL5VYSolimviRlWUBIkJPOlAbSka+EmBzX7ZW
vbiMzKZ8zJBYJnagXkiVqOJo9OwluN7VAoqx
-----END CERTIFICATE-----
