Certificate:
    Data:
        Version: 3 (0x2)
        Serial Number:
            4b:08:0e:5a:1c:06:51:a3:1e:11:c1:20:d3:b4:e3:c6
        Signature Algorithm: sha256WithRSAEncryption
        Issuer: CN=team629-net
        Validity
            Not Before: May 18 23:06:55 2022 GMT
            Not After : May  2 23:06:55 2025 GMT
        Subject: CN=team629-client
        Subject Public Key Info:
            Public Key Algorithm: rsaEncryption
                RSA Public-Key: (2048 bit)
                Modulus:
                    00:bb:ad:4a:2a:8d:fb:ae:81:28:da:c5:11:7d:8f:
                    f6:d5:ea:c7:93:02:cc:03:1b:9c:7d:60:51:dd:60:
                    51:07:7d:7b:14:63:8b:17:cc:fb:99:97:bd:10:04:
                    e6:15:15:42:53:cb:d1:8e:00:7c:28:dc:89:7f:8c:
                    79:47:0a:ad:4a:ff:8d:a4:c9:24:ec:2e:79:ca:04:
                    90:83:8b:1c:6c:6e:8c:e1:6b:e4:4c:a7:c8:c0:6e:
                    b9:f0:a2:22:d6:eb:ca:32:bc:2f:50:01:cb:26:b3:
                    8f:b3:0b:a7:51:79:57:98:49:75:fc:dd:0a:65:1c:
                    a3:b5:2e:21:e7:97:f1:18:11:47:64:21:42:31:30:
                    64:e7:e8:fd:e3:eb:0a:6b:a4:ec:57:bf:98:2d:23:
                    6d:ab:86:bf:08:44:d1:6a:e3:6e:91:da:07:62:51:
                    fb:48:58:f7:a0:a0:7d:5e:ea:86:68:0d:41:a7:71:
                    c6:40:3b:96:82:9a:7f:6b:cb:bb:0c:d3:82:67:99:
                    4a:aa:4b:d4:e4:50:d2:84:29:f5:b9:bf:e6:21:e1:
                    a0:5d:e8:e2:cd:a2:99:44:8b:7e:d2:4b:2e:e8:33:
                    b6:f7:c8:0e:6f:2d:5b:cf:c9:2b:31:55:41:44:e5:
                    55:4e:bc:01:0e:c7:37:81:a8:7d:ac:5a:b5:ca:36:
                    35:2b
                Exponent: 65537 (0x10001)
        X509v3 extensions:
            X509v3 Basic Constraints: 
                CA:FALSE
            X509v3 Subject Key Identifier: 
                F3:3E:A6:DF:80:B6:22:81:DD:05:0B:0E:88:0F:EA:56:4C:FB:E7:63
            X509v3 Authority Key Identifier: 
                keyid:B3:A3:63:B7:AD:43:59:BE:A9:86:76:09:E0:2D:D8:65:C6:7B:E1:74
                DirName:/CN=team629-net
                serial:56:A9:0A:0A:12:F3:C2:D7:06:63:27:91:65:DD:78:0E:32:F0:3F:39

            X509v3 Extended Key Usage: 
                TLS Web Client Authentication
            X509v3 Key Usage: 
                Digital Signature
    Signature Algorithm: sha256WithRSAEncryption
         14:6f:30:04:b1:fd:91:d6:e0:54:b4:cb:bc:b9:ef:db:04:cb:
         8f:07:3f:73:71:1f:0a:f7:f0:26:7f:c7:74:c7:fa:52:1d:f0:
         46:e6:69:ac:a4:ca:20:d9:03:ce:02:bd:4b:c8:42:91:b9:99:
         eb:1e:f4:e9:fd:32:c0:9e:0a:93:b4:20:06:ce:1d:44:46:67:
         33:34:c6:8b:9f:0a:46:7b:f1:62:f7:9e:84:1e:29:80:20:15:
         4a:69:02:15:d6:43:a2:45:0f:2a:fd:b6:f9:7c:40:14:eb:dd:
         60:c8:b8:db:5a:72:a0:20:92:18:59:b3:70:ac:a3:f9:1b:39:
         66:ce:3d:15:14:4c:4c:42:57:9b:72:c4:70:7c:d5:36:f5:b7:
         be:80:07:1a:b8:f6:91:b6:c1:16:52:ec:ea:8e:73:19:d3:e0:
         e9:05:8d:9c:c3:82:d7:fa:20:3f:9a:78:7d:6c:dd:46:c3:f8:
         d6:b4:e1:a9:fb:d2:e6:75:97:5b:64:dc:66:2e:a8:a0:f5:20:
         eb:ff:d8:14:50:89:37:0f:5d:fb:6e:d9:18:f8:2a:08:a2:fb:
         c3:ca:ba:c9:10:57:b9:ad:07:36:7f:8a:93:04:24:81:80:b0:
         a6:3c:45:5b:9e:ac:b6:d1:9a:14:d0:87:3f:68:f2:7f:86:f6:
         d5:0e:0a:0a
-----BEGIN CERTIFICATE-----
MIIDXDCCAkSgAwIBAgIQSwgOWhwGUaMeEcEg07TjxjANBgkqhkiG9w0BAQsFADAW
MRQwEgYDVQQDDAt0ZWFtNjI5LW5ldDAeFw0yMjA1MTgyMzA2NTVaFw0yNTA1MDIy
MzA2NTVaMBkxFzAVBgNVBAMMDnRlYW02MjktY2xpZW50MIIBIjANBgkqhkiG9w0B
AQEFAAOCAQ8AMIIBCgKCAQEAu61KKo37roEo2sURfY/21erHkwLMAxucfWBR3WBR
B317FGOLF8z7mZe9EATmFRVCU8vRjgB8KNyJf4x5RwqtSv+NpMkk7C55ygSQg4sc
bG6M4WvkTKfIwG658KIi1uvKMrwvUAHLJrOPswunUXlXmEl1/N0KZRyjtS4h55fx
GBFHZCFCMTBk5+j94+sKa6TsV7+YLSNtq4a/CETRauNukdoHYlH7SFj3oKB9XuqG
aA1Bp3HGQDuWgpp/a8u7DNOCZ5lKqkvU5FDShCn1ub/mIeGgXejizaKZRIt+0ksu
6DO298gOby1bz8krMVVBROVVTrwBDsc3gah9rFq1yjY1KwIDAQABo4GiMIGfMAkG
A1UdEwQCMAAwHQYDVR0OBBYEFPM+pt+AtiKB3QULDogP6lZM++djMFEGA1UdIwRK
MEiAFLOjY7etQ1m+qYZ2CeAt2GXGe+F0oRqkGDAWMRQwEgYDVQQDDAt0ZWFtNjI5
LW5ldIIUVqkKChLzwtcGYyeRZd14DjLwPzkwEwYDVR0lBAwwCgYIKwYBBQUHAwIw
CwYDVR0PBAQDAgeAMA0GCSqGSIb3DQEBCwUAA4IBAQAUbzAEsf2R1uBUtMu8ue/b
BMuPBz9zcR8K9/Amf8d0x/pSHfBG5mmspMog2QPOAr1LyEKRuZnrHvTp/TLAngqT
tCAGzh1ERmczNMaLnwpGe/Fi956EHimAIBVKaQIV1kOiRQ8q/bb5fEAU691gyLjb
WnKgIJIYWbNwrKP5Gzlmzj0VFExMQlebcsRwfNU29be+gAcauPaRtsEWUuzqjnMZ
0+DpBY2cw4LX+iA/mnh9bN1Gw/jWtOGp+9LmdZdbZNxmLqig9SDr/9gUUIk3D137
btkY+CoIovvDyrrJEFe5rQc2f4qTBCSBgLCmPEVbnqy20ZoU0Ic/aPJ/hvbVDgoK
-----END CERTIFICATE-----
