Certificate:
    Data:
        Version: 3 (0x2)
        Serial Number:
            f9:19:73:e1:a5:b8:bd:30:3f:0a:12:df:46:89:ac:9d
        Signature Algorithm: sha256WithRSAEncryption
        Issuer: CN=team674-net
        Validity
            Not Before: May 18 23:33:52 2022 GMT
            Not After : May  2 23:33:52 2025 GMT
        Subject: CN=team674-client
        Subject Public Key Info:
            Public Key Algorithm: rsaEncryption
                RSA Public-Key: (2048 bit)
                Modulus:
                    00:9f:ee:e6:6f:61:34:aa:38:91:2d:0f:a5:14:84:
                    26:07:01:61:f3:2b:2f:25:d2:cf:57:ef:f9:64:07:
                    f3:06:c8:9b:40:56:89:09:77:29:c8:6e:f6:8b:06:
                    90:6e:0a:f2:c0:6a:8e:42:13:16:d7:b2:42:d3:d3:
                    c4:e8:b2:cc:16:88:b8:11:00:21:76:0b:0d:f3:55:
                    73:80:81:e7:78:5c:8a:f3:b5:08:19:6b:d3:e8:b5:
                    62:42:5e:6c:f8:c6:3f:de:cc:2f:a2:cb:c8:e7:3f:
                    05:89:37:57:fd:2f:1c:dd:e3:3d:83:ab:17:8b:66:
                    5d:a8:ba:92:3f:e0:05:2c:82:55:35:93:a7:61:2f:
                    32:81:28:ff:77:e1:ee:ef:d0:12:52:b3:ec:d9:70:
                    f4:44:7d:6f:ab:cf:0a:cc:3b:57:d0:a2:42:bb:43:
                    d5:2b:ab:11:fe:d9:57:12:e9:37:75:88:5d:26:cb:
                    17:6b:d3:57:58:7a:65:e0:db:d6:dc:6b:c4:fb:ed:
                    2b:8a:a0:73:05:18:d5:df:21:73:73:15:c4:5a:4d:
                    fa:c3:1d:9c:fa:16:31:70:8e:d6:99:28:44:bb:09:
                    13:91:48:2c:88:32:dd:11:1f:3f:08:15:c9:05:c0:
                    43:55:4c:7f:e2:d9:67:3f:ea:e8:c6:d0:dc:f8:d2:
                    21:53
                Exponent: 65537 (0x10001)
        X509v3 extensions:
            X509v3 Basic Constraints: 
                CA:FALSE
            X509v3 Subject Key Identifier: 
                A6:48:D2:86:19:44:47:04:41:64:69:BA:40:E5:0C:3E:7C:C6:66:7D
            X509v3 Authority Key Identifier: 
                keyid:EB:16:EE:89:4B:66:36:47:7B:C8:39:27:9B:5B:6C:D7:05:4E:93:E5
                DirName:/CN=team674-net
                serial:05:58:07:52:1F:8A:7A:F4:4C:06:DE:FA:F2:60:CF:C3:74:C3:74:08

            X509v3 Extended Key Usage: 
                TLS Web Client Authentication
            X509v3 Key Usage: 
                Digital Signature
    Signature Algorithm: sha256WithRSAEncryption
         b2:ff:5d:22:c5:93:17:b1:6e:e6:ee:4f:b8:ad:cb:33:db:a6:
         a9:71:e3:19:2d:ae:66:23:c4:20:fb:31:f5:bf:9e:e3:81:0a:
         a0:19:fe:3a:9d:45:e0:d9:95:eb:7d:d6:67:13:d1:e2:d5:94:
         b5:0c:1f:5f:cf:7c:f4:1e:d7:a7:16:ef:d7:45:ff:19:08:dc:
         59:22:3d:1f:0a:b3:1b:02:a6:a8:f7:47:17:41:d4:e1:b3:bc:
         30:d2:ef:57:e3:dd:a6:45:9a:2b:ea:81:a0:9a:ce:1a:c3:81:
         1d:79:98:3c:d8:75:fe:68:64:cd:81:da:d5:41:ea:08:cc:80:
         be:ad:18:96:4f:58:a5:66:f9:ed:e0:98:0b:df:e7:3f:e8:4c:
         30:67:da:4b:59:6c:22:dc:1b:e2:6d:3f:1e:28:32:65:5f:16:
         08:85:0c:e0:54:7a:52:03:fe:23:95:16:a0:50:d4:20:e4:ab:
         4b:bd:b1:5d:a9:29:4a:ea:18:51:80:1d:f2:98:c6:8f:a7:c2:
         17:39:c7:99:7a:8e:79:0a:42:7a:b0:01:b2:79:74:76:4c:9c:
         4d:55:16:32:a1:6a:4a:02:cb:94:c9:41:67:f3:41:39:1d:ed:
         02:31:11:0d:d2:18:cb:bd:d6:1e:68:05:41:03:0b:6b:3f:79:
         24:c0:41:a1
-----BEGIN CERTIFICATE-----
MIIDXTCCAkWgAwIBAgIRAPkZc+GluL0wPwoS30aJrJ0wDQYJKoZIhvcNAQELBQAw
FjEUMBIGA1UEAwwLdGVhbTY3NC1uZXQwHhcNMjIwNTE4MjMzMzUyWhcNMjUwNTAy
MjMzMzUyWjAZMRcwFQYDVQQDDA50ZWFtNjc0LWNsaWVudDCCASIwDQYJKoZIhvcN
AQEBBQADggEPADCCAQoCggEBAJ/u5m9hNKo4kS0PpRSEJgcBYfMrLyXSz1fv+WQH
8wbIm0BWiQl3Kchu9osGkG4K8sBqjkITFteyQtPTxOiyzBaIuBEAIXYLDfNVc4CB
53hcivO1CBlr0+i1YkJebPjGP97ML6LLyOc/BYk3V/0vHN3jPYOrF4tmXai6kj/g
BSyCVTWTp2EvMoEo/3fh7u/QElKz7Nlw9ER9b6vPCsw7V9CiQrtD1SurEf7ZVxLp
N3WIXSbLF2vTV1h6ZeDb1txrxPvtK4qgcwUY1d8hc3MVxFpN+sMdnPoWMXCO1pko
RLsJE5FILIgy3REfPwgVyQXAQ1VMf+LZZz/q6MbQ3PjSIVMCAwEAAaOBojCBnzAJ
BgNVHRMEAjAAMB0GA1UdDgQWBBSmSNKGGURHBEFkabpA5Qw+fMZmfTBRBgNVHSME
SjBIgBTrFu6JS2Y2R3vIOSebW2zXBU6T5aEapBgwFjEUMBIGA1UEAwwLdGVhbTY3
NC1uZXSCFAVYB1Ifinr0TAbe+vJgz8N0w3QIMBMGA1UdJQQMMAoGCCsGAQUFBwMC
MAsGA1UdDwQEAwIHgDANBgkqhkiG9w0BAQsFAAOCAQEAsv9dIsWTF7Fu5u5PuK3L
M9umqXHjGS2uZiPEIPsx9b+e44EKoBn+Op1F4NmV633WZxPR4tWUtQwfX8989B7X
pxbv10X/GQjcWSI9HwqzGwKmqPdHF0HU4bO8MNLvV+PdpkWaK+qBoJrOGsOBHXmY
PNh1/mhkzYHa1UHqCMyAvq0Ylk9YpWb57eCYC9/nP+hMMGfaS1lsItwb4m0/Higy
ZV8WCIUM4FR6UgP+I5UWoFDUIOSrS72xXakpSuoYUYAd8pjGj6fCFznHmXqOeQpC
erABsnl0dkycTVUWMqFqSgLLlMlBZ/NBOR3tAjERDdIYy73WHmgFQQMLaz95JMBB
oQ==
-----END CERTIFICATE-----
