Certificate:
    Data:
        Version: 3 (0x2)
        Serial Number:
            0b:a0:31:db:df:90:10:54:0a:e9:be:08:ff:29:6c:3b
        Signature Algorithm: sha256WithRSAEncryption
        Issuer: CN=team752-net
        Validity
            Not Before: May 19 00:04:50 2022 GMT
            Not After : May  3 00:04:50 2025 GMT
        Subject: CN=team752-server
        Subject Public Key Info:
            Public Key Algorithm: rsaEncryption
                RSA Public-Key: (2048 bit)
                Modulus:
                    00:a5:0f:08:01:a3:1f:32:0c:f2:b4:01:8a:68:8d:
                    ab:49:1b:49:5f:20:ca:cd:13:af:4c:fe:b5:c1:d7:
                    80:5f:30:97:93:4a:66:ab:fc:a6:c0:09:44:f5:ec:
                    11:f5:b9:9c:c1:be:01:33:a2:82:7c:19:b7:f4:ad:
                    01:f1:0a:a2:06:4d:ca:92:1d:d9:80:41:da:dd:32:
                    fa:f4:c4:4a:08:80:a9:bb:f8:dd:7f:78:b3:bd:7a:
                    40:bd:8b:8f:48:cc:62:75:5e:50:74:44:8d:d3:a4:
                    73:69:62:0d:6d:48:3d:5a:65:07:95:58:05:0f:0d:
                    49:73:f3:ec:3d:a4:5e:20:16:32:65:9a:9c:d5:2a:
                    b2:23:54:a0:1b:e5:7b:48:1d:02:c3:3e:8e:90:99:
                    8e:77:03:65:82:ee:d5:44:92:c2:ae:12:21:e6:4f:
                    21:10:f1:93:20:f7:05:d3:03:8c:e1:8e:68:66:e5:
                    41:4f:a8:48:4a:81:32:ce:6c:21:9a:f7:f4:8b:0b:
                    7d:45:4f:85:71:f1:14:44:df:fc:90:c9:4f:86:ea:
                    c9:75:fb:6e:7e:5b:b5:40:96:ae:81:50:0b:ab:37:
                    38:a0:f1:dd:3f:ee:98:fd:15:50:2c:16:9f:7f:4e:
                    8c:7c:15:35:80:13:0a:ee:60:9c:4f:b9:36:bd:d1:
                    9b:e9
                Exponent: 65537 (0x10001)
        X509v3 extensions:
            X509v3 Basic Constraints: 
                CA:FALSE
            X509v3 Subject Key Identifier: 
                DB:22:20:26:5A:E9:AF:04:27:A3:49:CD:6A:5E:F1:3E:93:10:CA:EB
            X509v3 Authority Key Identifier: 
                keyid:E2:03:30:86:A2:5B:8C:30:6C:64:AB:4A:5F:BE:12:83:E4:84:B9:5D
                DirName:/CN=team752-net
                serial:46:41:4C:2A:1C:30:05:B7:2A:9D:0D:B4:75:56:4B:8C:5C:F7:1D:AC

            X509v3 Extended Key Usage: 
                TLS Web Server Authentication
            X509v3 Key Usage: 
                Digital Signature, Key Encipherment
            X509v3 Subject Alternative Name: 
                DNS:team752-server
    Signature Algorithm: sha256WithRSAEncryption
         49:a7:e1:c5:ae:f7:45:73:20:1b:f2:81:7e:8f:5b:90:26:08:
         36:31:32:ca:3c:f6:f5:c0:b1:53:91:ea:83:8d:1d:7e:71:2f:
         4c:0c:5a:ad:c8:cb:96:21:13:44:4a:ae:b2:27:b5:f7:42:58:
         dc:62:f9:43:6a:e4:24:7e:a7:51:b2:47:01:8d:24:cd:9f:dc:
         c3:98:55:ca:9e:a8:a1:97:ac:7f:67:46:06:8c:b1:5c:bb:67:
         9e:5b:8e:32:40:64:1e:40:1e:6c:6b:4b:a4:0d:37:bc:0a:54:
         aa:76:f3:cd:5e:89:e1:d1:a9:cb:7d:b3:fe:10:61:c1:c9:27:
         e7:87:09:87:cd:e2:30:cc:4e:f0:00:af:3a:2a:f7:1d:8d:78:
         60:d6:da:ca:df:f2:ae:65:00:6f:b0:2d:c7:da:b9:88:d1:ea:
         4b:ed:40:4a:30:a8:da:2c:a9:78:91:16:8f:be:78:15:68:17:
         54:20:21:d5:87:68:90:2f:5c:81:71:c0:56:bd:c9:68:3f:b5:
         14:5c:74:62:04:a4:e8:36:91:1e:89:47:90:f2:49:4a:b5:68:
         7a:de:2e:1b:5b:8c:0a:08:aa:65:c2:6b:e1:c7:b2:82:a5:1c:
         96:53:59:0e:ab:cb:f7:51:c7:18:8c:50:f0:05:92:b6:5c:1d:
         b9:51:62:ab
-----BEGIN CERTIFICATE-----
MIIDdzCCAl+gAwIBAgIQC6Ax29+QEFQK6b4I/ylsOzANBgkqhkiG9w0BAQsFADAW
MRQwEgYDVQQDDAt0ZWFtNzUyLW5ldDAeFw0yMjA1MTkwMDA0NTBaFw0yNTA1MDMw
MDA0NTBaMBkxFzAVBgNVBAMMDnRlYW03NTItc2VydmVyMIIBIjANBgkqhkiG9w0B
AQEFAAOCAQ8AMIIBCgKCAQEApQ8IAaMfMgzytAGKaI2rSRtJXyDKzROvTP61wdeA
XzCXk0pmq/ymwAlE9ewR9bmcwb4BM6KCfBm39K0B8QqiBk3Kkh3ZgEHa3TL69MRK
CICpu/jdf3izvXpAvYuPSMxidV5QdESN06RzaWINbUg9WmUHlVgFDw1Jc/PsPaRe
IBYyZZqc1SqyI1SgG+V7SB0Cwz6OkJmOdwNlgu7VRJLCrhIh5k8hEPGTIPcF0wOM
4Y5oZuVBT6hISoEyzmwhmvf0iwt9RU+FcfEURN/8kMlPhurJdftuflu1QJaugVAL
qzc4oPHdP+6Y/RVQLBaff06MfBU1gBMK7mCcT7k2vdGb6QIDAQABo4G9MIG6MAkG
A1UdEwQCMAAwHQYDVR0OBBYEFNsiICZa6a8EJ6NJzWpe8T6TEMrrMFEGA1UdIwRK
MEiAFOIDMIaiW4wwbGSrSl++EoPkhLldoRqkGDAWMRQwEgYDVQQDDAt0ZWFtNzUy
LW5ldIIURkFMKhwwBbcqnQ20dVZLjFz3HawwEwYDVR0lBAwwCgYIKwYBBQUHAwEw
CwYDVR0PBAQDAgWgMBkGA1UdEQQSMBCCDnRlYW03NTItc2VydmVyMA0GCSqGSIb3
DQEBCwUAA4IBAQBJp+HFrvdFcyAb8oF+j1uQJgg2MTLKPPb1wLFTkeqDjR1+cS9M
DFqtyMuWIRNESq6yJ7X3QljcYvlDauQkfqdRskcBjSTNn9zDmFXKnqihl6x/Z0YG
jLFcu2eeW44yQGQeQB5sa0ukDTe8ClSqdvPNXonh0anLfbP+EGHBySfnhwmHzeIw
zE7wAK86KvcdjXhg1trK3/KuZQBvsC3H2rmI0epL7UBKMKjaLKl4kRaPvngVaBdU
ICHVh2iQL1yBccBWvcloP7UUXHRiBKToNpEeiUeQ8klKtWh63i4bW4wKCKplwmvh
x7KCpRyWU1kOq8v3UccYjFDwBZK2XB25UWKr
-----END CERTIFICATE-----
