Certificate:
    Data:
        Version: 3 (0x2)
        Serial Number:
            d3:54:17:f2:52:89:84:46:94:4d:58:ee:16:2d:0b:ed
        Signature Algorithm: sha256WithRSAEncryption
        Issuer: CN=team752-net
        Validity
            Not Before: May 19 00:04:49 2022 GMT
            Not After : May  3 00:04:49 2025 GMT
        Subject: CN=team752-client
        Subject Public Key Info:
            Public Key Algorithm: rsaEncryption
                RSA Public-Key: (2048 bit)
                Modulus:
                    00:a3:10:21:36:5d:bc:46:c8:be:74:c2:76:27:6b:
                    66:5d:95:30:71:3d:49:99:9a:b7:5d:9e:36:da:10:
                    00:7b:c8:83:6c:78:e9:01:66:20:ae:f9:b8:8c:59:
                    f0:9f:98:77:fb:08:5f:3e:f4:7f:49:4f:13:80:f8:
                    07:d0:85:36:8b:97:b6:3a:45:39:cb:87:60:75:45:
                    eb:de:48:3e:8a:0d:36:e4:2e:d4:37:72:6c:7e:39:
                    d1:e3:0d:72:8d:1d:ad:34:93:ec:51:11:64:7d:64:
                    b9:8e:56:40:b8:3a:91:17:a0:e1:af:40:93:43:d3:
                    d0:6b:fc:a5:d6:11:34:2f:81:dc:eb:27:2b:2a:55:
                    8d:d9:49:d3:07:27:00:d5:11:10:42:b6:87:f1:19:
                    20:e9:39:87:96:fe:31:b3:76:3c:7f:bb:e1:5b:69:
                    b3:42:8d:d5:68:b1:17:39:b3:89:fb:df:aa:f8:96:
                    1b:48:15:7e:6c:80:c2:19:a6:d3:c8:a5:4b:c7:34:
                    0d:ce:a7:cf:5f:9b:25:9e:6d:18:15:2d:45:4b:1e:
                    65:7b:d4:0c:45:ca:8c:aa:21:ad:e6:2f:f8:cf:8c:
                    d3:ca:3e:98:40:00:41:bc:97:1d:93:c4:39:53:c9:
                    2c:ac:38:15:6d:ac:3f:c8:5c:b2:34:2e:a9:ff:52:
                    b8:77
                Exponent: 65537 (0x10001)
        X509v3 extensions:
            X509v3 Basic Constraints: 
                CA:FALSE
            X509v3 Subject Key Identifier: 
                40:46:BC:43:C7:39:A7:43:49:4F:29:07:5D:98:E9:5A:C9:3E:E9:6C
            X509v3 Authority Key Identifier: 
                keyid:E2:03:30:86:A2:5B:8C:30:6C:64:AB:4A:5F:BE:12:83:E4:84:B9:5D
                DirName:/CN=team752-net
                serial:46:41:4C:2A:1C:30:05:B7:2A:9D:0D:B4:75:56:4B:8C:5C:F7:1D:AC

            X509v3 Extended Key Usage: 
                TLS Web Client Authentication
            X509v3 Key Usage: 
                Digital Signature
    Signature Algorithm: sha256WithRSAEncryption
         b3:ab:cc:37:41:e3:c2:90:c0:b0:e3:5a:ed:d1:52:a5:3e:98:
         73:df:2b:0f:38:e1:3a:5c:cc:48:b2:ac:9a:9c:5b:8b:cb:37:
         79:3c:a2:dc:e5:78:7f:41:ff:b5:b1:30:45:60:69:86:fd:44:
         a7:e1:73:6e:b6:17:13:05:b9:ae:e9:81:ae:26:8e:ca:b0:31:
         37:cd:b8:90:5e:38:db:f9:0f:b7:9b:ee:a8:9b:c6:89:38:30:
         2c:b4:46:a1:7d:b9:14:bb:27:af:90:25:1c:ec:29:b4:80:d6:
         29:b9:76:75:e1:af:cc:99:12:b8:e6:75:8c:92:30:75:a9:0e:
         dc:43:c6:8e:2b:61:4f:ca:69:a8:4e:e1:a2:24:66:94:b5:5f:
         43:94:5a:7c:98:aa:61:ee:ad:6e:0f:9c:73:e4:df:b5:dd:bd:
         c2:cb:60:e0:a6:a6:d7:af:55:45:83:8a:16:09:f2:5e:b8:7c:
         5e:53:6c:22:4c:fe:6e:f3:3b:ce:94:87:cd:e3:ba:3c:ea:39:
         2d:b0:c0:78:79:a4:72:ad:ff:8a:99:5d:74:7a:21:41:7d:da:
         29:b0:b4:ad:ff:1a:bd:a0:ba:1a:58:1b:f3:a9:9e:ca:07:d3:
         2a:2f:a2:a2:9d:35:b2:08:2d:b0:21:03:0c:6c:17:5c:0d:be:
         52:ad:e9:cc
-----BEGIN CERTIFICATE-----
MIIDXTCCAkWgAwIBAgIRANNUF/JSiYRGlE1Y7hYtC+0wDQYJKoZIhvcNAQELBQAw
FjEUMBIGA1UEAwwLdGVhbTc1Mi1uZXQwHhcNMjIwNTE5MDAwNDQ5WhcNMjUwNTAz
MDAwNDQ5WjAZMRcwFQYDVQQDDA50ZWFtNzUyLWNsaWVudDCCASIwDQYJKoZIhvcN
AQEBBQADggEPADCCAQoCggEBAKMQITZdvEbIvnTCdidrZl2VMHE9SZmat12eNtoQ
AHvIg2x46QFmIK75uIxZ8J+Yd/sIXz70f0lPE4D4B9CFNouXtjpFOcuHYHVF695I
PooNNuQu1DdybH450eMNco0drTST7FERZH1kuY5WQLg6kReg4a9Ak0PT0Gv8pdYR
NC+B3OsnKypVjdlJ0wcnANUREEK2h/EZIOk5h5b+MbN2PH+74Vtps0KN1WixFzmz
ifvfqviWG0gVfmyAwhmm08ilS8c0Dc6nz1+bJZ5tGBUtRUseZXvUDEXKjKohreYv
+M+M08o+mEAAQbyXHZPEOVPJLKw4FW2sP8hcsjQuqf9SuHcCAwEAAaOBojCBnzAJ
BgNVHRMEAjAAMB0GA1UdDgQWBBRARrxDxzmnQ0lPKQddmOlayT7pbDBRBgNVHSME
SjBIgBTiAzCGoluMMGxkq0pfvhKD5IS5XaEapBgwFjEUMBIGA1UEAwwLdGVhbTc1
Mi1uZXSCFEZBTCocMAW3Kp0NtHVWS4xc9x2sMBMGA1UdJQQMMAoGCCsGAQUFBwMC
MAsGA1UdDwQEAwIHgDANBgkqhkiG9w0BAQsFAAOCAQEAs6vMN0HjwpDAsONa7dFS
pT6Yc98rDzjhOlzMSLKsmpxbi8s3eTyi3OV4f0H/tbEwRWBphv1Ep+FzbrYXEwW5
rumBriaOyrAxN824kF442/kPt5vuqJvGiTgwLLRGoX25FLsnr5AlHOwptIDWKbl2
deGvzJkSuOZ1jJIwdakO3EPGjithT8ppqE7hoiRmlLVfQ5RafJiqYe6tbg+cc+Tf
td29wstg4Kam169VRYOKFgnyXrh8XlNsIkz+bvM7zpSHzeO6POo5LbDAeHmkcq3/
iplddHohQX3aKbC0rf8avaC6Glgb86meygfTKi+iop01sggtsCEDDGwXXA2+Uq3p
zA==
-----END CERTIFICATE-----
