Certificate:
    Data:
        Version: 3 (0x2)
        Serial Number:
            9f:b7:78:9f:bf:0d:f6:b3:70:a5:a5:e8:c6:8a:35:e1
        Signature Algorithm: sha256WithRSAEncryption
        Issuer: CN=team536-net
        Validity
            Not Before: May 18 22:08:17 2022 GMT
            Not After : May  2 22:08:17 2025 GMT
        Subject: CN=team536-server
        Subject Public Key Info:
            Public Key Algorithm: rsaEncryption
                RSA Public-Key: (2048 bit)
                Modulus:
                    00:d8:4a:ed:72:1a:83:4a:08:e4:08:d6:46:8c:a5:
                    2c:66:2b:12:94:ed:7b:50:d5:8e:45:02:91:4e:09:
                    03:ba:84:c9:79:46:6b:0c:cd:ad:c4:12:92:2b:59:
                    0a:f9:c4:37:5d:af:38:e9:24:1e:b2:83:d0:08:95:
                    8a:aa:7c:21:ff:fc:34:4a:1c:5c:21:38:9d:53:80:
                    20:64:3b:6b:8c:32:5a:3c:69:f8:98:25:7b:fa:f7:
                    5b:48:fa:a3:35:03:24:52:4f:d3:01:35:b5:ac:1e:
                    81:60:de:30:3d:d9:a2:06:48:01:d6:70:9b:c6:52:
                    40:ed:59:dd:d1:7d:6e:47:61:f5:25:c6:3b:8c:54:
                    7e:bf:a8:c0:53:90:a2:b2:96:2a:b0:aa:38:d5:05:
                    00:91:7c:6c:6d:b8:98:eb:cc:32:94:d8:13:63:26:
                    e3:ab:12:3a:32:d2:ea:68:70:e5:f3:06:16:fc:ef:
                    10:cf:45:78:e6:11:51:a1:94:56:ff:e5:f7:5e:12:
                    14:2d:15:af:59:0c:87:ca:a0:55:40:fe:44:69:3d:
                    7d:36:51:45:10:da:6a:2a:1e:6c:7b:b9:08:33:da:
                    8d:bf:e9:a2:34:9c:f4:8a:cf:50:ed:8c:e7:af:24:
                    b2:9f:db:46:5d:2a:5c:fe:1f:3f:35:cc:02:da:36:
                    9c:73
                Exponent: 65537 (0x10001)
        X509v3 extensions:
            X509v3 Basic Constraints: 
                CA:FALSE
            X509v3 Subject Key Identifier: 
                27:38:09:8F:31:A6:75:BC:6D:22:E3:FF:54:45:DB:E5:E8:EF:77:32
            X509v3 Authority Key Identifier: 
                keyid:A7:45:3C:72:91:41:58:8C:5C:29:DA:9A:EF:43:8C:D1:C3:3E:FF:3B
                DirName:/CN=team536-net
                serial:79:66:35:C2:83:AB:03:1C:80:64:12:E5:78:CB:BE:EC:EF:7B:D3:94

            X509v3 Extended Key Usage: 
                TLS Web Server Authentication
            X509v3 Key Usage: 
                Digital Signature, Key Encipherment
            X509v3 Subject Alternative Name: 
                DNS:team536-server
    Signature Algorithm: sha256WithRSAEncryption
         0e:a8:c1:18:86:fd:53:75:38:55:7f:8a:0c:80:ad:08:2c:b1:
         c9:52:16:e1:73:d8:ba:ab:fe:d5:77:33:4d:8d:1b:86:59:38:
         6f:a9:76:17:c4:88:4c:29:92:8e:f7:9d:16:71:1e:d6:a9:9b:
         5f:10:83:1e:29:97:76:5c:17:55:9c:a1:55:30:01:14:c6:bf:
         80:35:ce:ea:f8:ca:13:4b:12:b4:1f:df:a2:8a:bd:a1:a2:86:
         98:0e:a8:90:b3:c9:cb:43:65:ad:d9:97:fd:57:5f:4e:1f:45:
         72:cc:23:54:cd:e1:bf:8a:6f:23:f2:16:ba:89:cb:61:c8:f5:
         55:30:f4:20:02:3a:e9:06:fb:20:fd:5f:eb:66:16:d1:6b:fa:
         d6:77:1b:2a:b8:f8:9e:ad:26:46:e3:a6:8b:9b:92:96:64:5f:
         06:de:e3:f8:20:71:72:0b:98:0f:29:3f:46:87:76:c2:36:2e:
         d6:54:44:61:10:79:d5:3e:cc:af:a7:b3:7a:f9:a1:93:f5:17:
         48:e3:5f:92:a9:99:81:fc:41:f8:cc:e0:ea:51:33:bd:49:a5:
         be:42:48:18:6e:e7:c8:1e:84:a2:2a:47:1c:a2:24:9d:92:31:
         48:b3:8e:fb:ba:76:e0:ea:30:69:97:2f:91:95:6a:2f:7c:89:
         92:d7:f2:9b
-----BEGIN CERTIFICATE-----
MIIDeDCCAmCgAwIBAgIRAJ+3eJ+/DfazcKWl6MaKNeEwDQYJKoZIhvcNAQELBQAw
FjEUMBIGA1UEAwwLdGVhbTUzNi1uZXQwHhcNMjIwNTE4MjIwODE3WhcNMjUwNTAy
MjIwODE3WjAZMRcwFQYDVQQDDA50ZWFtNTM2LXNlcnZlcjCCASIwDQYJKoZIhvcN
AQEBBQADggEPADCCAQoCggEBANhK7XIag0oI5AjWRoylLGYrEpTte1DVjkUCkU4J
A7qEyXlGawzNrcQSkitZCvnEN12vOOkkHrKD0AiViqp8If/8NEocXCE4nVOAIGQ7
a4wyWjxp+Jgle/r3W0j6ozUDJFJP0wE1tawegWDeMD3ZogZIAdZwm8ZSQO1Z3dF9
bkdh9SXGO4xUfr+owFOQorKWKrCqONUFAJF8bG24mOvMMpTYE2Mm46sSOjLS6mhw
5fMGFvzvEM9FeOYRUaGUVv/l914SFC0Vr1kMh8qgVUD+RGk9fTZRRRDaaioebHu5
CDPajb/pojSc9IrPUO2M568ksp/bRl0qXP4fPzXMAto2nHMCAwEAAaOBvTCBujAJ
BgNVHRMEAjAAMB0GA1UdDgQWBBQnOAmPMaZ1vG0i4/9URdvl6O93MjBRBgNVHSME
SjBIgBSnRTxykUFYjFwp2prvQ4zRwz7/O6EapBgwFjEUMBIGA1UEAwwLdGVhbTUz
Ni1uZXSCFHlmNcKDqwMcgGQS5XjLvuzve9OUMBMGA1UdJQQMMAoGCCsGAQUFBwMB
MAsGA1UdDwQEAwIFoDAZBgNVHREEEjAQgg50ZWFtNTM2LXNlcnZlcjANBgkqhkiG
9w0BAQsFAAOCAQEADqjBGIb9U3U4VX+KDICtCCyxyVIW4XPYuqv+1XczTY0bhlk4
b6l2F8SITCmSjvedFnEe1qmbXxCDHimXdlwXVZyhVTABFMa/gDXO6vjKE0sStB/f
ooq9oaKGmA6okLPJy0NlrdmX/VdfTh9FcswjVM3hv4pvI/IWuonLYcj1VTD0IAI6
6Qb7IP1f62YW0Wv61ncbKrj4nq0mRuOmi5uSlmRfBt7j+CBxcguYDyk/Rod2wjYu
1lREYRB51T7Mr6ezevmhk/UXSONfkqmZgfxB+Mzg6lEzvUmlvkJIGG7nyB6EoipH
HKIknZIxSLOO+7p24OowaZcvkZVqL3yJktfymw==
-----END CERTIFICATE-----
