Certificate:
    Data:
        Version: 3 (0x2)
        Serial Number:
            52:de:4d:29:61:70:5c:c8:2b:4d:24:f6:85:f5:4f:fe
        Signature Algorithm: sha256WithRSAEncryption
        Issuer: CN=team675-net
        Validity
            Not Before: May 18 23:16:36 2022 GMT
            Not After : May  2 23:16:36 2025 GMT
        Subject: CN=team675-client
        Subject Public Key Info:
            Public Key Algorithm: rsaEncryption
                RSA Public-Key: (2048 bit)
                Modulus:
                    00:ad:50:a5:e1:22:5e:26:77:bd:76:d8:01:89:41:
                    3a:57:e2:ba:83:56:ed:b4:e1:f8:1c:94:b8:19:b4:
                    bd:aa:46:61:06:22:fc:5d:b6:3c:f0:e1:a0:93:10:
                    45:19:9f:45:dd:3b:fc:70:9d:43:13:b9:bc:b0:8f:
                    78:fe:81:99:1e:af:91:46:d3:35:8d:3e:ea:c0:3b:
                    15:41:ad:04:3f:08:01:d0:6a:cd:23:71:cc:a0:16:
                    19:00:7c:13:d4:99:0f:ab:66:87:e5:04:59:19:73:
                    e3:ca:d9:28:58:89:b9:ae:81:44:58:8c:28:44:94:
                    6a:d8:31:89:45:b4:db:8e:d8:d0:dc:93:8e:c0:56:
                    06:60:d8:ef:ef:c6:2a:2e:32:80:88:4b:0e:f8:96:
                    4a:62:ab:71:ad:07:76:e6:c0:04:ee:14:e3:59:a7:
                    29:03:80:bc:ad:ce:b0:8f:44:ff:8b:e0:0e:d2:f5:
                    a1:d8:2d:d7:bd:0e:14:2f:09:6f:9a:e8:42:4a:49:
                    64:ff:8e:1e:92:8c:d7:ef:86:ee:78:f9:c8:94:8e:
                    6b:43:b3:c5:ff:dc:48:86:3e:1d:c3:6d:57:45:8e:
                    e9:88:68:7e:2e:01:c4:a2:93:b8:15:14:32:4b:2e:
                    d9:f9:1d:1b:c7:40:06:cb:21:63:8f:5f:58:5a:6f:
                    29:1f
                Exponent: 65537 (0x10001)
        X509v3 extensions:
            X509v3 Basic Constraints: 
                CA:FALSE
            X509v3 Subject Key Identifier: 
                E3:6F:ED:A0:AD:4A:63:5D:B5:74:83:31:0E:FB:3E:99:CC:87:63:BD
            X509v3 Authority Key Identifier: 
                keyid:30:8B:66:E1:0A:CF:0B:1A:6C:8B:4A:84:66:25:AC:A5:2E:3C:67:6D
                DirName:/CN=team675-net
                serial:76:FA:B5:9C:83:B4:C3:F9:CD:64:3B:C7:82:C9:57:A8:41:A7:EC:5B

            X509v3 Extended Key Usage: 
                TLS Web Client Authentication
            X509v3 Key Usage: 
                Digital Signature
    Signature Algorithm: sha256WithRSAEncryption
         44:26:c5:79:c5:f6:27:0f:20:a7:6f:b7:d3:c7:a2:a7:e8:ab:
         81:d4:fb:3d:e1:48:ec:3f:cc:72:9f:a9:25:b5:66:07:6c:21:
         34:88:43:2c:02:e3:ce:1a:a5:c5:2d:ec:1b:2d:ce:91:7a:fe:
         47:32:c8:86:77:6a:8d:a9:db:9d:fc:a1:2c:b3:93:dd:af:4c:
         75:a9:11:41:53:de:84:13:05:8e:cb:e1:10:58:52:b4:14:b2:
         4a:0b:68:81:82:c0:d8:33:e3:c3:f0:8d:9d:57:44:31:19:f6:
         a6:46:3c:de:b2:20:e1:ad:ef:7a:76:91:28:70:a3:b1:0e:8f:
         20:99:d5:91:69:ee:62:42:e7:e8:61:71:40:ec:6e:b9:6d:af:
         27:24:93:25:1e:84:28:47:fa:40:8e:fe:b8:4e:f8:cf:43:2d:
         92:45:36:d2:c3:cb:1d:d5:4e:df:3d:7c:37:ce:8a:30:59:b5:
         b6:d9:10:c2:00:25:f2:8e:5a:57:c2:ab:62:85:af:16:6d:6c:
         a6:18:c9:c0:5c:4a:48:75:77:d3:64:96:bf:d1:37:ae:fa:45:
         92:7e:75:96:0e:25:57:dd:5b:82:5c:07:a2:20:fa:38:d1:91:
         7a:9f:82:37:6c:27:33:b5:8d:b3:a5:07:04:43:09:8d:8c:76:
         62:7a:be:e0
-----BEGIN CERTIFICATE-----
MIIDXDCCAkSgAwIBAgIQUt5NKWFwXMgrTST2hfVP/jANBgkqhkiG9w0BAQsFADAW
MRQwEgYDVQQDDAt0ZWFtNjc1LW5ldDAeFw0yMjA1MTgyMzE2MzZaFw0yNTA1MDIy
MzE2MzZaMBkxFzAVBgNVBAMMDnRlYW02NzUtY2xpZW50MIIBIjANBgkqhkiG9w0B
AQEFAAOCAQ8AMIIBCgKCAQEArVCl4SJeJne9dtgBiUE6V+K6g1bttOH4HJS4GbS9
qkZhBiL8XbY88OGgkxBFGZ9F3Tv8cJ1DE7m8sI94/oGZHq+RRtM1jT7qwDsVQa0E
PwgB0GrNI3HMoBYZAHwT1JkPq2aH5QRZGXPjytkoWIm5roFEWIwoRJRq2DGJRbTb
jtjQ3JOOwFYGYNjv78YqLjKAiEsO+JZKYqtxrQd25sAE7hTjWacpA4C8rc6wj0T/
i+AO0vWh2C3XvQ4ULwlvmuhCSklk/44ekozX74buePnIlI5rQ7PF/9xIhj4dw21X
RY7piGh+LgHEopO4FRQySy7Z+R0bx0AGyyFjj19YWm8pHwIDAQABo4GiMIGfMAkG
A1UdEwQCMAAwHQYDVR0OBBYEFONv7aCtSmNdtXSDMQ77PpnMh2O9MFEGA1UdIwRK
MEiAFDCLZuEKzwsabItKhGYlrKUuPGdtoRqkGDAWMRQwEgYDVQQDDAt0ZWFtNjc1
LW5ldIIUdvq1nIO0w/nNZDvHgslXqEGn7FswEwYDVR0lBAwwCgYIKwYBBQUHAwIw
CwYDVR0PBAQDAgeAMA0GCSqGSIb3DQEBCwUAA4IBAQBEJsV5xfYnDyCnb7fTx6Kn
6KuB1Ps94UjsP8xyn6kltWYHbCE0iEMsAuPOGqXFLewbLc6Rev5HMsiGd2qNqdud
/KEss5Pdr0x1qRFBU96EEwWOy+EQWFK0FLJKC2iBgsDYM+PD8I2dV0QxGfamRjze
siDhre96dpEocKOxDo8gmdWRae5iQufoYXFA7G65ba8nJJMlHoQoR/pAjv64TvjP
Qy2SRTbSw8sd1U7fPXw3zoowWbW22RDCACXyjlpXwqtiha8WbWymGMnAXEpIdXfT
ZJa/0Teu+kWSfnWWDiVX3VuCXAeiIPo40ZF6n4I3bCcztY2zpQcEQwmNjHZier7g
-----END CERTIFICATE-----
