Certificate:
    Data:
        Version: 3 (0x2)
        Serial Number:
            4a:59:88:5e:4f:66:cc:48:02:81:40:cd:eb:57:28:15
        Signature Algorithm: sha256WithRSAEncryption
        Issuer: CN=team361-net
        Validity
            Not Before: May 18 20:34:46 2022 GMT
            Not After : May  2 20:34:46 2025 GMT
        Subject: CN=team361-client
        Subject Public Key Info:
            Public Key Algorithm: rsaEncryption
                RSA Public-Key: (2048 bit)
                Modulus:
                    00:ab:8d:24:84:1a:46:f5:02:12:5e:04:ff:5b:32:
                    50:41:90:34:ae:2d:74:e3:84:1a:e4:ab:62:cc:93:
                    52:8d:84:e3:ca:f2:ba:b9:63:9a:98:42:1d:4e:93:
                    e6:a2:64:2d:5d:cd:6f:0c:86:f5:88:cc:9b:98:4e:
                    28:24:dd:8a:ba:a7:30:cf:40:d6:47:81:f4:d7:9e:
                    fb:30:65:85:c8:e3:2d:80:ec:18:57:b0:ea:32:bb:
                    0e:19:b8:ed:ac:d9:01:aa:0d:e5:2c:f6:38:03:d6:
                    16:cb:41:6f:5d:bd:a5:c3:aa:ac:8f:a9:5e:a2:a0:
                    19:3a:6c:18:1a:5a:75:fd:61:4c:03:34:c6:8f:ef:
                    23:f6:eb:18:48:3e:db:89:2e:e5:f8:bd:60:5c:b6:
                    a7:58:ce:00:39:32:5a:cf:d7:9a:40:81:de:8c:b2:
                    db:d5:da:04:12:c3:46:e5:53:5a:46:a2:f6:e7:98:
                    fc:fe:e4:62:26:21:06:f9:02:be:c3:a1:d5:8a:e1:
                    94:26:48:57:46:28:72:9a:53:be:33:e0:de:1d:53:
                    f7:63:91:c2:b9:9a:50:0d:a5:1c:22:54:04:d0:99:
                    54:1f:86:bd:31:0c:d2:32:58:6e:f8:71:76:03:04:
                    c8:30:d6:73:a9:d8:c2:79:4a:03:5f:e5:a4:48:32:
                    47:59
                Exponent: 65537 (0x10001)
        X509v3 extensions:
            X509v3 Basic Constraints: 
                CA:FALSE
            X509v3 Subject Key Identifier: 
                31:9E:E5:68:D4:A5:5C:C1:BF:A7:D9:7D:CB:A1:58:F5:7B:D9:CE:70
            X509v3 Authority Key Identifier: 
                keyid:E3:BA:5E:78:74:38:47:25:0D:D1:F8:DD:9F:A7:C5:81:47:E4:31:70
                DirName:/CN=team361-net
                serial:55:66:61:69:77:7E:AA:22:E3:B8:B5:9D:03:73:2C:F3:24:D3:FB:15

            X509v3 Extended Key Usage: 
                TLS Web Client Authentication
            X509v3 Key Usage: 
                Digital Signature
    Signature Algorithm: sha256WithRSAEncryption
         25:38:da:2d:e9:23:b4:a8:40:89:ff:eb:d2:ab:ac:8a:ab:3b:
         59:51:25:73:cc:a3:d8:db:55:a9:af:5a:dd:23:a6:e4:c0:09:
         1c:41:bc:8f:47:3e:df:19:9d:80:f4:be:ba:d5:ee:7f:8e:ad:
         32:4d:30:b7:ab:e7:81:6c:28:24:e6:c2:92:a2:02:5b:3b:a8:
         24:aa:4c:e1:75:a8:f9:4f:ab:f5:d7:c8:b5:af:7e:d0:dc:c0:
         be:2c:92:4f:81:b2:56:12:bd:71:c4:82:8d:1c:6a:61:54:ae:
         26:b9:d0:fb:a6:89:9c:56:4f:4e:93:10:9b:22:e6:34:48:54:
         c6:4e:6b:aa:fb:03:86:7f:c7:1f:4c:fb:c6:cc:e9:f5:dd:01:
         04:31:b9:a0:c1:4e:8e:a1:92:e4:10:6d:ef:c8:54:cd:3a:81:
         3f:7c:8c:25:c4:36:82:f7:da:a7:8d:4a:04:a0:b3:65:ab:04:
         66:6f:3f:5c:fb:ea:c9:09:7a:9a:50:35:72:4b:d6:c5:31:bc:
         57:a8:1d:1c:55:27:a1:e2:e6:c4:da:e7:1b:56:6c:67:6c:8a:
         fe:e9:e3:45:a6:2f:50:f6:14:f6:fc:a1:fa:c1:d4:d0:1d:4e:
         76:87:26:d1:3a:e9:9e:82:da:f9:27:81:10:7b:be:e7:dc:8f:
         47:e1:06:69
-----BEGIN CERTIFICATE-----
MIIDXDCCAkSgAwIBAgIQSlmIXk9mzEgCgUDN61coFTANBgkqhkiG9w0BAQsFADAW
MRQwEgYDVQQDDAt0ZWFtMzYxLW5ldDAeFw0yMjA1MTgyMDM0NDZaFw0yNTA1MDIy
MDM0NDZaMBkxFzAVBgNVBAMMDnRlYW0zNjEtY2xpZW50MIIBIjANBgkqhkiG9w0B
AQEFAAOCAQ8AMIIBCgKCAQEAq40khBpG9QISXgT/WzJQQZA0ri1044Qa5KtizJNS
jYTjyvK6uWOamEIdTpPmomQtXc1vDIb1iMybmE4oJN2Kuqcwz0DWR4H01577MGWF
yOMtgOwYV7DqMrsOGbjtrNkBqg3lLPY4A9YWy0FvXb2lw6qsj6leoqAZOmwYGlp1
/WFMAzTGj+8j9usYSD7biS7l+L1gXLanWM4AOTJaz9eaQIHejLLb1doEEsNG5VNa
RqL255j8/uRiJiEG+QK+w6HViuGUJkhXRihymlO+M+DeHVP3Y5HCuZpQDaUcIlQE
0JlUH4a9MQzSMlhu+HF2AwTIMNZzqdjCeUoDX+WkSDJHWQIDAQABo4GiMIGfMAkG
A1UdEwQCMAAwHQYDVR0OBBYEFDGe5WjUpVzBv6fZfcuhWPV72c5wMFEGA1UdIwRK
MEiAFOO6Xnh0OEclDdH43Z+nxYFH5DFwoRqkGDAWMRQwEgYDVQQDDAt0ZWFtMzYx
LW5ldIIUVWZhaXd+qiLjuLWdA3Ms8yTT+xUwEwYDVR0lBAwwCgYIKwYBBQUHAwIw
CwYDVR0PBAQDAgeAMA0GCSqGSIb3DQEBCwUAA4IBAQAlONot6SO0qECJ/+vSq6yK
qztZUSVzzKPY21Wpr1rdI6bkwAkcQbyPRz7fGZ2A9L661e5/jq0yTTC3q+eBbCgk
5sKSogJbO6gkqkzhdaj5T6v118i1r37Q3MC+LJJPgbJWEr1xxIKNHGphVK4mudD7
pomcVk9OkxCbIuY0SFTGTmuq+wOGf8cfTPvGzOn13QEEMbmgwU6OoZLkEG3vyFTN
OoE/fIwlxDaC99qnjUoEoLNlqwRmbz9c++rJCXqaUDVyS9bFMbxXqB0cVSeh4ubE
2ucbVmxnbIr+6eNFpi9Q9hT2/KH6wdTQHU52hybROumegtr5J4EQe77n3I9H4QZp
-----END CERTIFICATE-----
