Certificate:
    Data:
        Version: 3 (0x2)
        Serial Number:
            f3:2f:59:22:33:a6:66:1f:76:6c:5a:c1:ab:95:78:1c
        Signature Algorithm: sha256WithRSAEncryption
        Issuer: CN=team211-net
        Validity
            Not Before: May 18 19:06:54 2022 GMT
            Not After : May  2 19:06:54 2025 GMT
        Subject: CN=team211-client
        Subject Public Key Info:
            Public Key Algorithm: rsaEncryption
                RSA Public-Key: (2048 bit)
                Modulus:
                    00:bb:34:e0:0e:8a:b5:d0:49:6e:c2:a7:e6:7e:67:
                    b2:82:d9:a1:36:fa:50:2d:f2:d1:b3:b3:c5:81:5b:
                    85:c5:5b:7e:5b:b1:28:d5:b0:26:ed:03:6d:ee:15:
                    3a:ea:21:57:b9:93:05:6b:43:b1:6c:e1:9b:c7:95:
                    b1:08:07:3b:ed:d1:bb:5d:57:14:c4:47:bf:e3:0e:
                    e8:71:53:94:ad:5f:1f:49:ad:89:e6:47:93:d3:d7:
                    52:89:3b:94:b3:2b:e1:91:f9:e5:03:4e:34:b2:b1:
                    32:cb:9b:bb:88:1e:35:30:eb:4b:f5:88:47:b0:98:
                    10:8c:64:55:36:eb:3f:57:f1:7d:5f:d2:c0:9a:87:
                    e0:9b:b7:b2:5e:2d:e6:dd:c3:c3:ac:f5:40:89:29:
                    4e:5e:51:91:51:f7:b3:de:ab:dd:7d:29:a2:8b:05:
                    52:0a:19:ec:c5:4d:5a:94:39:80:20:a8:e2:cf:a4:
                    42:63:75:72:ab:13:1f:96:cb:16:55:90:b7:a5:4e:
                    9f:a6:ce:ed:e5:b9:76:b8:7a:a8:6d:b9:4d:0a:ef:
                    27:0a:e4:8d:60:5e:2f:01:e8:46:3b:57:1c:0c:d0:
                    5a:6f:72:77:79:0a:3b:c6:b8:30:22:40:a8:26:36:
                    bf:f0:8a:2b:60:35:de:5c:78:d3:43:ec:9d:f4:ec:
                    9b:43
                Exponent: 65537 (0x10001)
        X509v3 extensions:
            X509v3 Basic Constraints: 
                CA:FALSE
            X509v3 Subject Key Identifier: 
                7B:BD:88:97:EF:FE:0C:D3:6C:C1:79:3B:05:C1:12:D0:DE:9C:34:EB
            X509v3 Authority Key Identifier: 
                keyid:F3:5E:E4:25:FC:01:34:70:9B:EC:DB:68:C6:2B:70:C2:B8:C5:3A:F8
                DirName:/CN=team211-net
                serial:64:BB:E2:E6:BD:76:7D:35:7B:3E:26:7C:86:3B:0A:93:EE:86:24:31

            X509v3 Extended Key Usage: 
                TLS Web Client Authentication
            X509v3 Key Usage: 
                Digital Signature
    Signature Algorithm: sha256WithRSAEncryption
         6f:f0:84:d6:85:e5:2c:5c:f3:ce:5c:c7:3a:29:da:43:d3:b0:
         e5:76:9a:2c:0d:e9:29:3e:ed:0c:29:32:16:ac:ea:2d:89:ef:
         da:86:e5:01:82:5b:60:96:c9:f2:8c:53:ff:48:68:78:8a:c2:
         c7:99:6d:a6:e1:19:e9:64:b3:d9:22:f5:d2:54:a7:13:05:9c:
         a7:f1:6c:bf:0e:a1:8e:03:4d:00:ca:8c:7b:54:b4:ce:01:5a:
         bc:f7:ec:5b:3e:d0:a4:f2:d0:b3:c8:49:fe:89:9b:cc:18:f1:
         cc:bc:d3:cd:d2:26:9c:d6:76:f5:01:30:39:59:3b:ed:09:f0:
         78:c2:a8:a7:87:a2:99:64:73:4c:3d:ae:b5:e3:54:43:78:35:
         37:9f:a2:b6:0c:53:db:e6:32:75:68:af:19:b5:e2:6a:0c:3e:
         1f:c8:8b:58:33:2b:85:27:23:b3:61:bb:e6:ce:8c:21:6c:52:
         1a:a4:02:e5:51:14:9e:de:4f:32:27:83:e1:d3:ce:79:64:2e:
         22:12:71:50:78:fe:76:34:1a:3f:89:1a:f3:8b:8b:2e:56:b8:
         09:ef:7c:60:1c:ce:3e:9f:74:44:39:84:be:75:cd:f1:38:19:
         46:1c:88:c1:69:2a:89:5b:88:d5:aa:59:c3:98:1e:d1:39:1d:
         93:9c:3d:65
-----BEGIN CERTIFICATE-----
MIIDXTCCAkWgAwIBAgIRAPMvWSIzpmYfdmxawauVeBwwDQYJKoZIhvcNAQELBQAw
FjEUMBIGA1UEAwwLdGVhbTIxMS1uZXQwHhcNMjIwNTE4MTkwNjU0WhcNMjUwNTAy
MTkwNjU0WjAZMRcwFQYDVQQDDA50ZWFtMjExLWNsaWVudDCCASIwDQYJKoZIhvcN
AQEBBQADggEPADCCAQoCggEBALs04A6KtdBJbsKn5n5nsoLZoTb6UC3y0bOzxYFb
hcVbfluxKNWwJu0Dbe4VOuohV7mTBWtDsWzhm8eVsQgHO+3Ru11XFMRHv+MO6HFT
lK1fH0mtieZHk9PXUok7lLMr4ZH55QNONLKxMsubu4geNTDrS/WIR7CYEIxkVTbr
P1fxfV/SwJqH4Ju3sl4t5t3Dw6z1QIkpTl5RkVH3s96r3X0poosFUgoZ7MVNWpQ5
gCCo4s+kQmN1cqsTH5bLFlWQt6VOn6bO7eW5drh6qG25TQrvJwrkjWBeLwHoRjtX
HAzQWm9yd3kKO8a4MCJAqCY2v/CKK2A13lx400PsnfTsm0MCAwEAAaOBojCBnzAJ
BgNVHRMEAjAAMB0GA1UdDgQWBBR7vYiX7/4M02zBeTsFwRLQ3pw06zBRBgNVHSME
SjBIgBTzXuQl/AE0cJvs22jGK3DCuMU6+KEapBgwFjEUMBIGA1UEAwwLdGVhbTIx
MS1uZXSCFGS74ua9dn01ez4mfIY7CpPuhiQxMBMGA1UdJQQMMAoGCCsGAQUFBwMC
MAsGA1UdDwQEAwIHgDANBgkqhkiG9w0BAQsFAAOCAQEAb/CE1oXlLFzzzlzHOina
Q9Ow5XaaLA3pKT7tDCkyFqzqLYnv2oblAYJbYJbJ8oxT/0hoeIrCx5ltpuEZ6WSz
2SL10lSnEwWcp/Fsvw6hjgNNAMqMe1S0zgFavPfsWz7QpPLQs8hJ/ombzBjxzLzT
zdImnNZ29QEwOVk77QnweMKop4eimWRzTD2uteNUQ3g1N5+itgxT2+YydWivGbXi
agw+H8iLWDMrhScjs2G75s6MIWxSGqQC5VEUnt5PMieD4dPOeWQuIhJxUHj+djQa
P4ka84uLLla4Ce98YBzOPp90RDmEvnXN8TgZRhyIwWkqiVuI1apZw5ge0Tkdk5w9
ZQ==
-----END CERTIFICATE-----
