Certificate:
    Data:
        Version: 3 (0x2)
        Serial Number:
            96:ff:d0:79:89:41:a3:22:a8:1c:e6:6e:68:09:a7:7e
        Signature Algorithm: sha256WithRSAEncryption
        Issuer: CN=team163-net
        Validity
            Not Before: May 18 18:47:35 2022 GMT
            Not After : May  2 18:47:35 2025 GMT
        Subject: CN=team163-server
        Subject Public Key Info:
            Public Key Algorithm: rsaEncryption
                RSA Public-Key: (2048 bit)
                Modulus:
                    00:d3:1a:2d:23:cf:9c:ed:34:47:00:92:6c:e9:c8:
                    9d:f2:2c:05:58:ad:00:c8:c2:98:fd:79:7b:54:51:
                    16:7f:fe:ef:49:a2:3a:70:7c:21:b6:e4:90:8f:ce:
                    f4:dc:fa:c8:4e:7a:2f:bb:51:6d:af:7c:6a:39:bc:
                    cb:45:1a:44:7c:23:31:a0:e3:68:44:b7:33:f2:b5:
                    bd:b0:f1:6a:5c:54:db:ad:0d:b1:b4:de:c9:fd:55:
                    32:89:78:d6:e2:98:74:cc:0e:a9:25:27:96:e9:aa:
                    6a:27:5b:d7:a5:39:b6:98:e4:15:3c:c7:b3:3e:f6:
                    fc:83:db:aa:7b:ed:eb:b1:0a:6c:3b:4a:fd:d4:2c:
                    a9:8c:2a:b4:fc:a1:16:2b:dc:f6:66:02:d8:bd:d1:
                    fd:ac:9e:86:96:43:c5:c5:66:c7:01:02:08:02:a4:
                    a0:58:7e:75:ea:d4:ce:0e:29:cf:b4:7a:75:2f:b6:
                    6e:7c:19:16:df:ac:da:1c:4a:ef:0c:60:a9:18:9f:
                    af:3e:77:5c:fa:6d:66:56:f1:9b:c9:74:5d:42:3b:
                    a4:ce:bd:1f:29:76:1b:30:d9:b2:73:fe:0a:33:12:
                    fa:91:2c:86:65:ac:b4:68:f7:50:55:db:98:87:76:
                    64:56:88:d7:c2:84:f6:2d:96:24:b3:6f:83:a3:16:
                    4f:d3
                Exponent: 65537 (0x10001)
        X509v3 extensions:
            X509v3 Basic Constraints: 
                CA:FALSE
            X509v3 Subject Key Identifier: 
                FE:8E:53:21:ED:BF:BC:2A:1A:2B:42:B8:E6:98:F8:AB:20:BC:2C:ED
            X509v3 Authority Key Identifier: 
                keyid:67:3C:6D:DC:6C:EB:F2:C8:B9:D9:29:93:E9:45:64:1C:46:C5:12:8B
                DirName:/CN=team163-net
                serial:78:9E:81:85:D4:78:AE:94:10:F0:7C:93:48:F0:54:6C:32:63:1F:07

            X509v3 Extended Key Usage: 
                TLS Web Server Authentication
            X509v3 Key Usage: 
                Digital Signature, Key Encipherment
            X509v3 Subject Alternative Name: 
                DNS:team163-server
    Signature Algorithm: sha256WithRSAEncryption
         1d:85:db:0d:5c:f3:b2:dd:55:ff:92:17:3b:ed:c1:0b:ca:bb:
         2d:7a:20:41:1e:72:42:4f:c5:36:cb:3d:99:7c:6b:36:9f:02:
         4e:4b:04:26:c6:8d:bf:f7:c1:1c:ac:b6:65:63:d1:58:e1:4f:
         29:bc:9c:c2:c6:da:99:cd:fc:bd:2b:7a:97:90:e4:c9:2b:83:
         8f:d2:7c:26:f6:6a:33:1a:df:0d:5a:be:f1:e3:ca:10:08:95:
         46:51:86:98:e8:b9:d6:2c:a5:e8:b1:f9:8f:6f:eb:3c:9c:46:
         72:d4:76:40:dd:94:f1:77:ae:24:df:5f:3a:a4:48:5a:03:56:
         c6:1e:25:b1:6d:5b:3d:d6:5f:73:1c:2a:a3:a1:12:7c:86:77:
         79:fc:00:b3:cd:41:88:db:49:61:cc:cd:3e:d4:ed:64:87:2c:
         d4:17:86:31:fd:7c:9e:57:c4:36:a6:d1:08:45:32:de:4b:84:
         5e:2a:4e:4c:f4:3e:d4:a6:79:fc:76:dc:ee:fd:d3:41:80:88:
         75:40:3b:e1:a2:4b:9c:41:f8:3e:65:04:13:d7:2c:76:16:54:
         8b:2e:76:15:e2:29:4f:30:16:43:e8:7f:81:86:d3:29:04:2f:
         5d:39:2b:52:04:a3:74:e4:3b:f5:b3:0d:bc:f4:da:a3:2b:29:
         c8:26:3b:c6
-----BEGIN CERTIFICATE-----
MIIDeDCCAmCgAwIBAgIRAJb/0HmJQaMiqBzmbmgJp34wDQYJKoZIhvcNAQELBQAw
FjEUMBIGA1UEAwwLdGVhbTE2My1uZXQwHhcNMjIwNTE4MTg0NzM1WhcNMjUwNTAy
MTg0NzM1WjAZMRcwFQYDVQQDDA50ZWFtMTYzLXNlcnZlcjCCASIwDQYJKoZIhvcN
AQEBBQADggEPADCCAQoCggEBANMaLSPPnO00RwCSbOnInfIsBVitAMjCmP15e1RR
Fn/+70miOnB8IbbkkI/O9Nz6yE56L7tRba98ajm8y0UaRHwjMaDjaES3M/K1vbDx
alxU260NsbTeyf1VMol41uKYdMwOqSUnlumqaidb16U5tpjkFTzHsz72/IPbqnvt
67EKbDtK/dQsqYwqtPyhFivc9mYC2L3R/ayehpZDxcVmxwECCAKkoFh+derUzg4p
z7R6dS+2bnwZFt+s2hxK7wxgqRifrz53XPptZlbxm8l0XUI7pM69Hyl2GzDZsnP+
CjMS+pEshmWstGj3UFXbmId2ZFaI18KE9i2WJLNvg6MWT9MCAwEAAaOBvTCBujAJ
BgNVHRMEAjAAMB0GA1UdDgQWBBT+jlMh7b+8KhorQrjmmPirILws7TBRBgNVHSME
SjBIgBRnPG3cbOvyyLnZKZPpRWQcRsUSi6EapBgwFjEUMBIGA1UEAwwLdGVhbTE2
My1uZXSCFHiegYXUeK6UEPB8k0jwVGwyYx8HMBMGA1UdJQQMMAoGCCsGAQUFBwMB
MAsGA1UdDwQEAwIFoDAZBgNVHREEEjAQgg50ZWFtMTYzLXNlcnZlcjANBgkqhkiG
9w0BAQsFAAOCAQEAHYXbDVzzst1V/5IXO+3BC8q7LXogQR5yQk/FNss9mXxrNp8C
TksEJsaNv/fBHKy2ZWPRWOFPKbycwsbamc38vSt6l5DkySuDj9J8JvZqMxrfDVq+
8ePKEAiVRlGGmOi51iyl6LH5j2/rPJxGctR2QN2U8XeuJN9fOqRIWgNWxh4lsW1b
PdZfcxwqo6ESfIZ3efwAs81BiNtJYczNPtTtZIcs1BeGMf18nlfENqbRCEUy3kuE
XipOTPQ+1KZ5/Hbc7v3TQYCIdUA74aJLnEH4PmUEE9csdhZUiy52FeIpTzAWQ+h/
gYbTKQQvXTkrUgSjdOQ79bMNvPTaoyspyCY7xg==
-----END CERTIFICATE-----
