Certificate:
    Data:
        Version: 3 (0x2)
        Serial Number:
            9d:af:6d:be:b1:11:d1:59:7a:2b:e5:f3:a2:72:d2:eb
        Signature Algorithm: sha256WithRSAEncryption
        Issuer: CN=team80-net
        Validity
            Not Before: May 18 14:35:01 2022 GMT
            Not After : May  2 14:35:01 2025 GMT
        Subject: CN=team80-server
        Subject Public Key Info:
            Public Key Algorithm: rsaEncryption
                RSA Public-Key: (2048 bit)
                Modulus:
                    00:e1:40:a9:91:50:48:11:18:73:e3:78:bc:d4:6f:
                    b2:2a:f2:ae:50:b6:6a:29:40:b9:55:d6:82:3e:84:
                    95:d5:c3:7c:aa:2b:69:de:34:e5:43:e3:db:24:2b:
                    81:de:27:aa:c8:c9:80:fa:72:61:db:6a:9f:76:36:
                    c9:76:ba:60:c0:ea:32:9f:73:57:fd:f7:83:11:67:
                    29:4e:ad:51:a2:e2:f8:d5:8a:73:40:ba:09:bc:80:
                    57:1a:02:d5:87:43:59:f9:93:79:ba:0a:46:5f:f8:
                    d3:b5:8b:68:6a:40:0b:e4:55:dd:b0:0e:46:50:25:
                    63:d0:21:b2:83:8e:c8:2c:a2:b9:7d:78:22:cc:2f:
                    ff:43:e5:dd:1e:9f:21:40:5c:46:d5:45:8d:48:69:
                    77:8b:ea:0b:d0:f0:10:61:4f:25:df:12:be:41:56:
                    1b:da:8e:84:03:2a:cb:e0:76:33:f0:dc:66:9a:ba:
                    19:3b:b4:3b:20:f9:81:a2:86:9f:92:9f:98:e5:ae:
                    84:41:97:14:aa:0b:93:0f:25:48:6f:5f:0d:32:43:
                    1f:85:47:d4:e2:c0:d5:9b:cc:b7:1a:f9:ea:cb:df:
                    2e:25:78:fd:b5:7d:ee:80:20:65:cd:24:5b:0b:e3:
                    0a:1f:65:62:a4:cc:93:9c:fc:1b:00:5d:d8:4e:6f:
                    b9:a5
                Exponent: 65537 (0x10001)
        X509v3 extensions:
            X509v3 Basic Constraints: 
                CA:FALSE
            X509v3 Subject Key Identifier: 
                00:10:16:69:9D:7D:72:93:A0:A9:FD:DA:B7:AF:92:17:81:F8:27:D4
            X509v3 Authority Key Identifier: 
                keyid:12:28:67:08:B9:D0:DE:5D:1F:22:B7:06:A8:24:1E:27:00:34:D2:29
                DirName:/CN=team80-net
                serial:61:5A:BC:6F:43:F6:38:C8:9F:24:BC:D2:9E:25:51:65:89:1C:2A:97

            X509v3 Extended Key Usage: 
                TLS Web Server Authentication
            X509v3 Key Usage: 
                Digital Signature, Key Encipherment
            X509v3 Subject Alternative Name: 
                DNS:team80-server
    Signature Algorithm: sha256WithRSAEncryption
         3e:ef:dd:3d:bc:07:d3:d6:d5:23:88:81:f1:9c:d1:4d:e0:85:
         16:8b:96:eb:71:e7:46:3c:59:78:43:4a:3d:10:63:32:84:e0:
         84:73:d8:6c:0e:3d:92:4d:9f:b8:0a:60:31:ba:ba:4f:da:72:
         49:8e:1c:ad:79:79:5a:8a:1e:ab:d8:3c:fc:9d:5d:fd:db:e9:
         00:b7:72:96:dc:e7:3e:d5:e8:62:19:84:3d:a6:dc:7d:fd:1b:
         b7:7b:5e:ee:f7:7d:c7:a1:ac:4c:4b:16:24:21:42:9a:cc:00:
         7c:ed:4b:0f:71:fd:77:ea:75:87:7a:1e:3f:3f:19:96:a0:c8:
         5f:49:dc:6e:f0:e8:d8:96:ee:0b:ce:4d:e1:5d:de:3d:20:56:
         c2:28:da:ed:7b:89:c8:e1:58:42:9c:1e:f0:0c:33:fb:93:b4:
         1e:02:46:9b:f8:3b:dc:0c:3f:d2:8f:7d:ee:fd:1e:15:51:5f:
         34:61:b8:61:97:89:a8:0a:f1:75:d0:1d:f8:d8:b6:a7:9a:b6:
         c4:b0:15:1c:c9:cb:39:3c:04:42:3a:ee:af:a1:f5:b4:16:c0:
         ee:12:55:75:fd:25:52:6d:22:27:d5:a4:76:74:99:c8:24:0f:
         c3:be:31:41:b6:2c:a7:f1:b3:4b:fa:d9:33:d8:70:44:c5:5e:
         1c:d6:fa:cf
-----BEGIN CERTIFICATE-----
MIIDdDCCAlygAwIBAgIRAJ2vbb6xEdFZeivl86Jy0uswDQYJKoZIhvcNAQELBQAw
FTETMBEGA1UEAwwKdGVhbTgwLW5ldDAeFw0yMjA1MTgxNDM1MDFaFw0yNTA1MDIx
NDM1MDFaMBgxFjAUBgNVBAMMDXRlYW04MC1zZXJ2ZXIwggEiMA0GCSqGSIb3DQEB
AQUAA4IBDwAwggEKAoIBAQDhQKmRUEgRGHPjeLzUb7Iq8q5QtmopQLlV1oI+hJXV
w3yqK2neNOVD49skK4HeJ6rIyYD6cmHbap92Nsl2umDA6jKfc1f994MRZylOrVGi
4vjVinNAugm8gFcaAtWHQ1n5k3m6CkZf+NO1i2hqQAvkVd2wDkZQJWPQIbKDjsgs
orl9eCLML/9D5d0enyFAXEbVRY1IaXeL6gvQ8BBhTyXfEr5BVhvajoQDKsvgdjPw
3Gaauhk7tDsg+YGihp+Sn5jlroRBlxSqC5MPJUhvXw0yQx+FR9TiwNWbzLca+erL
3y4leP21fe6AIGXNJFsL4wofZWKkzJOc/BsAXdhOb7mlAgMBAAGjgbswgbgwCQYD
VR0TBAIwADAdBgNVHQ4EFgQUABAWaZ19cpOgqf3at6+SF4H4J9QwUAYDVR0jBEkw
R4AUEihnCLnQ3l0fIrcGqCQeJwA00imhGaQXMBUxEzARBgNVBAMMCnRlYW04MC1u
ZXSCFGFavG9D9jjInyS80p4lUWWJHCqXMBMGA1UdJQQMMAoGCCsGAQUFBwMBMAsG
A1UdDwQEAwIFoDAYBgNVHREEETAPgg10ZWFtODAtc2VydmVyMA0GCSqGSIb3DQEB
CwUAA4IBAQA+7909vAfT1tUjiIHxnNFN4IUWi5brcedGPFl4Q0o9EGMyhOCEc9hs
Dj2STZ+4CmAxurpP2nJJjhyteXlaih6r2Dz8nV392+kAt3KW3Oc+1ehiGYQ9ptx9
/Ru3e17u933HoaxMSxYkIUKazAB87UsPcf136nWHeh4/PxmWoMhfSdxu8OjYlu4L
zk3hXd49IFbCKNrte4nI4VhCnB7wDDP7k7QeAkab+DvcDD/Sj33u/R4VUV80Ybhh
l4moCvF10B342LanmrbEsBUcycs5PARCOu6vofW0FsDuElV1/SVSbSIn1aR2dJnI
JA/DvjFBtiyn8bNL+tkz2HBExV4c1vrP
-----END CERTIFICATE-----
