Certificate:
    Data:
        Version: 3 (0x2)
        Serial Number:
            67:8d:e4:d2:8b:3a:57:f9:76:58:d6:5b:12:33:d6:7f
        Signature Algorithm: sha256WithRSAEncryption
        Issuer: CN=team270-net
        Validity
            Not Before: May 18 19:40:07 2022 GMT
            Not After : May  2 19:40:07 2025 GMT
        Subject: CN=team270-client
        Subject Public Key Info:
            Public Key Algorithm: rsaEncryption
                RSA Public-Key: (2048 bit)
                Modulus:
                    00:cd:8f:7b:49:50:08:3c:2d:17:d2:1d:69:c9:32:
                    23:45:6d:a1:8d:ac:2d:75:50:67:5b:39:58:e4:ec:
                    13:92:00:0e:36:0d:3f:44:78:b9:9b:2f:06:2d:39:
                    5e:e5:bc:26:51:b2:dd:30:70:7a:be:50:b8:ca:ba:
                    1c:57:f4:87:d7:39:c5:bf:39:c6:e8:bf:86:ca:d5:
                    d6:83:67:a3:0c:16:61:ed:3a:a4:dc:a6:a9:9b:75:
                    f7:3d:30:3c:c7:5b:c6:38:71:71:71:5b:1c:fc:71:
                    23:79:a4:71:54:54:f5:c7:e8:be:32:92:52:db:bc:
                    a1:d5:62:ef:7f:1b:2b:1b:1a:a9:1f:9b:93:5a:b1:
                    5f:e7:83:38:59:80:20:eb:28:40:fa:dc:8d:a3:12:
                    f0:fc:d4:36:ae:3d:80:58:d8:11:3f:f0:5c:ab:0f:
                    16:e1:d0:b9:68:05:f9:5a:5a:13:7c:8d:15:9a:d8:
                    a9:27:67:65:11:fa:eb:fe:97:96:92:27:ff:ce:76:
                    10:91:b7:22:40:05:1d:03:32:37:c0:50:51:72:97:
                    eb:2f:56:71:ad:50:db:20:73:92:e8:eb:84:bb:db:
                    bd:9a:05:c9:5b:d3:46:c0:66:26:c9:63:eb:9e:c0:
                    89:54:41:d4:7a:d3:56:bf:8b:e6:1c:ca:ae:91:68:
                    b7:39
                Exponent: 65537 (0x10001)
        X509v3 extensions:
            X509v3 Basic Constraints: 
                CA:FALSE
            X509v3 Subject Key Identifier: 
                23:31:F8:16:5E:C9:0C:11:3C:CC:65:B0:01:A6:E5:7E:95:A3:69:EF
            X509v3 Authority Key Identifier: 
                keyid:6A:E2:63:D1:9D:B6:2B:17:6D:7D:BA:D9:DC:CE:CD:1B:6F:0C:3B:8E
                DirName:/CN=team270-net
                serial:54:20:9B:F7:3F:00:1B:D0:50:E3:6C:A4:39:F9:CE:76:8B:62:62:D5

            X509v3 Extended Key Usage: 
                TLS Web Client Authentication
            X509v3 Key Usage: 
                Digital Signature
    Signature Algorithm: sha256WithRSAEncryption
         56:98:cb:e6:ac:7a:12:43:24:50:22:ce:45:15:30:21:8c:86:
         88:60:74:57:e0:f1:3a:22:63:8d:54:c1:18:8e:e0:97:15:03:
         1c:72:a6:b7:57:f0:1c:f4:83:cd:66:72:62:5a:1f:e6:56:05:
         3b:e0:a1:50:5b:d4:6c:bf:ec:35:81:54:c4:7b:4b:38:ab:59:
         de:fd:66:0b:26:5f:00:09:bf:f9:51:9d:e5:e8:1c:a6:52:53:
         4f:2c:ee:f3:8c:df:2d:eb:2b:33:50:c0:e9:7d:d1:a3:90:0d:
         88:d1:c2:1f:83:5a:fe:83:7d:ac:f9:0c:c2:da:fd:50:8c:5e:
         2d:13:3a:52:57:c5:96:f6:38:22:40:ff:ae:1d:07:bc:2f:66:
         9d:90:17:ff:ac:45:6f:21:42:ba:f8:1a:80:3d:2f:74:dd:46:
         38:1e:b7:22:fc:5e:49:11:ca:4d:39:5a:ff:4e:e7:80:16:fb:
         8d:41:6e:29:a6:d5:ed:b1:8b:0d:11:40:02:9d:5f:8b:62:4e:
         29:a9:0e:91:ae:ed:a7:c7:d7:4c:73:9d:b3:bc:17:51:2b:08:
         d3:a1:13:d5:ff:79:9e:8c:42:a1:c6:16:a4:be:fe:2b:06:20:
         a3:96:90:c9:03:50:e7:2d:a0:0a:33:70:a8:d0:19:76:a7:ff:
         26:ba:eb:74
-----BEGIN CERTIFICATE-----
MIIDXDCCAkSgAwIBAgIQZ43k0os6V/l2WNZbEjPWfzANBgkqhkiG9w0BAQsFADAW
MRQwEgYDVQQDDAt0ZWFtMjcwLW5ldDAeFw0yMjA1MTgxOTQwMDdaFw0yNTA1MDIx
OTQwMDdaMBkxFzAVBgNVBAMMDnRlYW0yNzAtY2xpZW50MIIBIjANBgkqhkiG9w0B
AQEFAAOCAQ8AMIIBCgKCAQEAzY97SVAIPC0X0h1pyTIjRW2hjawtdVBnWzlY5OwT
kgAONg0/RHi5my8GLTle5bwmUbLdMHB6vlC4yrocV/SH1znFvznG6L+GytXWg2ej
DBZh7Tqk3Kapm3X3PTA8x1vGOHFxcVsc/HEjeaRxVFT1x+i+MpJS27yh1WLvfxsr
GxqpH5uTWrFf54M4WYAg6yhA+tyNoxLw/NQ2rj2AWNgRP/Bcqw8W4dC5aAX5WloT
fI0VmtipJ2dlEfrr/peWkif/znYQkbciQAUdAzI3wFBRcpfrL1ZxrVDbIHOS6OuE
u9u9mgXJW9NGwGYmyWPrnsCJVEHUetNWv4vmHMqukWi3OQIDAQABo4GiMIGfMAkG
A1UdEwQCMAAwHQYDVR0OBBYEFCMx+BZeyQwRPMxlsAGm5X6Vo2nvMFEGA1UdIwRK
MEiAFGriY9GdtisXbX262dzOzRtvDDuOoRqkGDAWMRQwEgYDVQQDDAt0ZWFtMjcw
LW5ldIIUVCCb9z8AG9BQ42ykOfnOdotiYtUwEwYDVR0lBAwwCgYIKwYBBQUHAwIw
CwYDVR0PBAQDAgeAMA0GCSqGSIb3DQEBCwUAA4IBAQBWmMvmrHoSQyRQIs5FFTAh
jIaIYHRX4PE6ImONVMEYjuCXFQMccqa3V/Ac9IPNZnJiWh/mVgU74KFQW9Rsv+w1
gVTEe0s4q1ne/WYLJl8ACb/5UZ3l6BymUlNPLO7zjN8t6yszUMDpfdGjkA2I0cIf
g1r+g32s+QzC2v1QjF4tEzpSV8WW9jgiQP+uHQe8L2adkBf/rEVvIUK6+BqAPS90
3UY4Hrci/F5JEcpNOVr/TueAFvuNQW4pptXtsYsNEUACnV+LYk4pqQ6Rru2nx9dM
c52zvBdRKwjToRPV/3mejEKhxhakvv4rBiCjlpDJA1DnLaAKM3Co0Bl2p/8muut0
-----END CERTIFICATE-----
