Certificate:
    Data:
        Version: 3 (0x2)
        Serial Number:
            79:e5:de:dd:e8:c4:98:d3:41:62:d5:c4:f8:17:05:d3
        Signature Algorithm: sha256WithRSAEncryption
        Issuer: CN=team270-net
        Validity
            Not Before: May 18 19:40:07 2022 GMT
            Not After : May  2 19:40:07 2025 GMT
        Subject: CN=team270-server
        Subject Public Key Info:
            Public Key Algorithm: rsaEncryption
                RSA Public-Key: (2048 bit)
                Modulus:
                    00:d5:14:8e:30:78:64:3f:f2:46:df:69:5f:a1:f9:
                    e1:33:cd:2b:b8:16:6c:da:95:a5:fa:7e:18:7f:56:
                    85:d2:0f:83:ea:6e:42:e4:4b:48:71:a0:22:c9:1f:
                    c7:62:4a:5e:60:01:a7:9f:ad:95:e7:4f:1c:a3:1c:
                    c9:2c:aa:07:e8:03:cf:ff:a1:d2:d5:1a:90:7f:ab:
                    d3:4f:b5:84:aa:7d:a7:e3:21:b4:5f:e3:f0:d8:e0:
                    c7:ae:f0:a2:85:cc:d1:39:d1:e1:22:50:d0:b0:93:
                    60:15:d4:25:52:18:ae:9b:05:a0:b2:6b:28:68:91:
                    e7:38:c5:88:5f:5a:a9:f4:c3:90:40:33:a3:63:08:
                    38:dc:f8:fd:16:e2:2a:02:08:bc:3a:be:ec:67:3d:
                    62:5e:2c:f4:ab:f3:73:1c:11:f1:6b:58:33:99:71:
                    6d:d3:7c:86:ac:92:a6:52:83:38:a4:27:c8:21:0b:
                    b5:ad:72:a1:a7:f0:29:a9:49:ba:4d:e6:f6:2d:04:
                    88:ba:a3:30:aa:ec:ac:b5:30:ff:a5:1c:54:68:3c:
                    ab:dd:24:43:12:5c:13:55:88:f0:03:35:07:3e:52:
                    c8:36:0f:4c:97:68:4e:5e:1f:79:fd:ff:c0:91:9d:
                    0d:3f:5b:38:7c:45:b5:48:68:b1:ae:53:a7:43:13:
                    ac:e5
                Exponent: 65537 (0x10001)
        X509v3 extensions:
            X509v3 Basic Constraints: 
                CA:FALSE
            X509v3 Subject Key Identifier: 
                36:A9:67:F2:9A:2A:58:88:DE:1A:34:F4:0A:92:9C:D3:80:B3:BF:24
            X509v3 Authority Key Identifier: 
                keyid:6A:E2:63:D1:9D:B6:2B:17:6D:7D:BA:D9:DC:CE:CD:1B:6F:0C:3B:8E
                DirName:/CN=team270-net
                serial:54:20:9B:F7:3F:00:1B:D0:50:E3:6C:A4:39:F9:CE:76:8B:62:62:D5

            X509v3 Extended Key Usage: 
                TLS Web Server Authentication
            X509v3 Key Usage: 
                Digital Signature, Key Encipherment
            X509v3 Subject Alternative Name: 
                DNS:team270-server
    Signature Algorithm: sha256WithRSAEncryption
         bc:a5:50:fb:f7:d8:3f:fb:9c:8a:02:2d:0a:76:cf:b1:0a:7e:
         ad:5d:bf:10:61:ee:06:7a:40:9b:14:90:59:ef:e3:bd:be:91:
         54:eb:47:57:6e:85:11:17:d1:b4:3c:fe:de:27:c8:61:30:f0:
         b3:fd:c0:ee:7f:29:0e:15:39:2c:56:bb:af:78:20:be:ea:cf:
         70:cc:d6:f8:63:82:6e:20:98:30:c5:80:bd:d3:9c:b7:ae:46:
         1f:60:09:9c:3e:04:3c:e6:49:ef:51:36:2e:53:e7:17:46:6e:
         4e:e3:ee:94:31:e7:7f:7f:44:09:ce:6a:6f:d7:2e:a9:14:df:
         19:1b:89:be:c1:16:2c:0f:ea:a3:bd:45:d5:6e:93:40:db:26:
         42:4f:67:b0:20:19:e9:a2:4a:14:81:60:78:72:14:a2:9a:85:
         52:33:00:75:10:91:25:7a:44:e8:03:ce:9c:b2:51:cf:3a:9a:
         cf:10:04:f5:04:98:35:48:ab:09:ad:61:a5:51:c3:09:a5:88:
         1b:be:b8:a2:ae:be:41:3d:0f:38:eb:29:d7:34:c1:f5:64:75:
         80:cf:7c:dd:48:4c:23:eb:94:9c:d9:8b:ef:4f:1a:30:8d:d5:
         93:e2:da:27:31:cf:61:6c:67:04:de:16:6c:42:c6:71:f8:86:
         8f:94:05:a8
-----BEGIN CERTIFICATE-----
MIIDdzCCAl+gAwIBAgIQeeXe3ejEmNNBYtXE+BcF0zANBgkqhkiG9w0BAQsFADAW
MRQwEgYDVQQDDAt0ZWFtMjcwLW5ldDAeFw0yMjA1MTgxOTQwMDdaFw0yNTA1MDIx
OTQwMDdaMBkxFzAVBgNVBAMMDnRlYW0yNzAtc2VydmVyMIIBIjANBgkqhkiG9w0B
AQEFAAOCAQ8AMIIBCgKCAQEA1RSOMHhkP/JG32lfofnhM80ruBZs2pWl+n4Yf1aF
0g+D6m5C5EtIcaAiyR/HYkpeYAGnn62V508coxzJLKoH6APP/6HS1RqQf6vTT7WE
qn2n4yG0X+Pw2ODHrvCihczROdHhIlDQsJNgFdQlUhiumwWgsmsoaJHnOMWIX1qp
9MOQQDOjYwg43Pj9FuIqAgi8Or7sZz1iXiz0q/NzHBHxa1gzmXFt03yGrJKmUoM4
pCfIIQu1rXKhp/ApqUm6Teb2LQSIuqMwquystTD/pRxUaDyr3SRDElwTVYjwAzUH
PlLINg9Ml2hOXh95/f/AkZ0NP1s4fEW1SGixrlOnQxOs5QIDAQABo4G9MIG6MAkG
A1UdEwQCMAAwHQYDVR0OBBYEFDapZ/KaKliI3ho09AqSnNOAs78kMFEGA1UdIwRK
MEiAFGriY9GdtisXbX262dzOzRtvDDuOoRqkGDAWMRQwEgYDVQQDDAt0ZWFtMjcw
LW5ldIIUVCCb9z8AG9BQ42ykOfnOdotiYtUwEwYDVR0lBAwwCgYIKwYBBQUHAwEw
CwYDVR0PBAQDAgWgMBkGA1UdEQQSMBCCDnRlYW0yNzAtc2VydmVyMA0GCSqGSIb3
DQEBCwUAA4IBAQC8pVD799g/+5yKAi0Kds+xCn6tXb8QYe4GekCbFJBZ7+O9vpFU
60dXboURF9G0PP7eJ8hhMPCz/cDufykOFTksVruveCC+6s9wzNb4Y4JuIJgwxYC9
05y3rkYfYAmcPgQ85knvUTYuU+cXRm5O4+6UMed/f0QJzmpv1y6pFN8ZG4m+wRYs
D+qjvUXVbpNA2yZCT2ewIBnpokoUgWB4chSimoVSMwB1EJElekToA86cslHPOprP
EAT1BJg1SKsJrWGlUcMJpYgbvriirr5BPQ846ynXNMH1ZHWAz3zdSEwj65Sc2Yvv
TxowjdWT4tonMc9hbGcE3hZsQsZx+IaPlAWo
-----END CERTIFICATE-----
