Certificate:
    Data:
        Version: 3 (0x2)
        Serial Number:
            d3:99:4c:a9:be:ae:3f:d0:f1:fe:53:c6:f9:eb:7b:07
        Signature Algorithm: sha256WithRSAEncryption
        Issuer: CN=team744-net
        Validity
            Not Before: May 19 00:09:02 2022 GMT
            Not After : May  3 00:09:02 2025 GMT
        Subject: CN=team744-client
        Subject Public Key Info:
            Public Key Algorithm: rsaEncryption
                RSA Public-Key: (2048 bit)
                Modulus:
                    00:f3:79:c6:ba:ac:13:83:64:99:90:bd:50:01:87:
                    06:f7:17:ab:28:d9:bb:e4:79:0c:1f:7b:4f:2c:28:
                    1c:04:b6:5d:84:d5:cc:d5:14:92:17:3d:67:81:98:
                    54:5c:00:ce:1e:98:1d:bc:73:00:9d:c0:5e:8e:e8:
                    de:a2:3a:36:f1:d8:7c:c0:02:ea:54:45:68:77:56:
                    e7:21:8b:bd:74:79:09:3d:c2:c9:ef:e6:af:9e:a4:
                    4f:e5:26:5e:99:50:04:bb:e7:61:10:b2:00:9c:73:
                    30:26:d5:fd:1e:1d:60:7c:4d:cf:6f:8b:66:be:de:
                    68:60:cb:0a:3c:4e:4e:19:07:4b:90:a1:6e:7b:f2:
                    3b:36:21:28:45:ca:e7:42:d3:ec:b2:a6:ae:55:25:
                    b1:33:66:29:6f:ad:db:be:67:3c:61:ed:cd:43:36:
                    0b:5b:19:63:da:94:9b:8e:6c:26:10:d9:f0:c0:9d:
                    d3:c3:cf:4d:13:3a:76:e8:eb:eb:97:14:ab:ca:75:
                    b8:1b:fd:46:76:d4:eb:11:4a:5c:cb:f9:67:3e:92:
                    8d:28:4b:e6:30:01:4f:7a:03:59:15:cd:82:f2:ab:
                    46:26:59:19:58:c9:64:f6:74:c7:d8:d2:af:01:44:
                    6e:65:5a:2a:b3:d7:da:b3:f8:f0:4c:f1:79:4e:87:
                    a8:25
                Exponent: 65537 (0x10001)
        X509v3 extensions:
            X509v3 Basic Constraints: 
                CA:FALSE
            X509v3 Subject Key Identifier: 
                D9:2F:D1:7E:07:66:F9:8C:3E:64:D1:9D:FE:AB:2D:32:BD:2B:EB:F2
            X509v3 Authority Key Identifier: 
                keyid:1A:81:42:04:30:2A:94:45:51:D3:26:4C:9D:97:20:CE:FA:F1:96:43
                DirName:/CN=team744-net
                serial:0D:D3:23:52:0F:D6:78:D4:AD:3F:97:DA:6B:AF:76:58:45:90:0A:A6

            X509v3 Extended Key Usage: 
                TLS Web Client Authentication
            X509v3 Key Usage: 
                Digital Signature
    Signature Algorithm: sha256WithRSAEncryption
         71:41:86:ae:a8:b0:a9:46:89:a2:21:33:3e:a4:e2:91:52:92:
         71:c1:0c:99:8c:76:a3:e1:b1:16:e7:2b:fe:a6:aa:dd:3f:fe:
         08:f3:b0:9b:4a:9c:47:c5:07:a8:7a:0b:f2:14:75:dd:1c:63:
         7d:34:46:a7:ac:12:c2:2b:fb:4b:ed:db:b3:81:ff:ed:21:5d:
         cc:8b:07:ac:67:da:44:46:42:25:8f:82:eb:11:26:2f:a0:ca:
         3b:13:b2:fc:74:70:9b:02:cd:9a:61:e3:6e:99:9a:22:08:f3:
         a7:e9:5d:fc:cd:b0:9c:15:d5:a5:34:0c:c8:76:fb:bd:bc:7d:
         5c:31:b0:64:4a:f1:b2:bb:8a:1e:7c:a1:db:1d:49:52:a4:77:
         ea:c8:1d:6d:d6:45:31:13:4e:b8:e8:ad:c5:23:88:ac:5c:63:
         1b:42:38:4b:d8:26:18:f0:32:9c:78:20:25:ca:0d:ea:55:ec:
         8f:e3:9c:30:37:89:bf:59:17:7c:d0:04:05:4e:81:c5:10:39:
         57:2c:1c:f9:d3:2b:22:f3:08:48:53:7c:c6:9e:a8:ce:0e:ec:
         cd:b3:24:71:66:2e:8d:f3:d0:b8:ce:e2:77:c4:a3:e2:ea:b9:
         56:a8:33:d7:19:4c:6e:4b:54:49:98:b1:37:0c:4e:34:27:1b:
         31:4c:21:43
-----BEGIN CERTIFICATE-----
MIIDXTCCAkWgAwIBAgIRANOZTKm+rj/Q8f5TxvnrewcwDQYJKoZIhvcNAQELBQAw
FjEUMBIGA1UEAwwLdGVhbTc0NC1uZXQwHhcNMjIwNTE5MDAwOTAyWhcNMjUwNTAz
MDAwOTAyWjAZMRcwFQYDVQQDDA50ZWFtNzQ0LWNsaWVudDCCASIwDQYJKoZIhvcN
AQEBBQADggEPADCCAQoCggEBAPN5xrqsE4NkmZC9UAGHBvcXqyjZu+R5DB97Tywo
HAS2XYTVzNUUkhc9Z4GYVFwAzh6YHbxzAJ3AXo7o3qI6NvHYfMAC6lRFaHdW5yGL
vXR5CT3Cye/mr56kT+UmXplQBLvnYRCyAJxzMCbV/R4dYHxNz2+LZr7eaGDLCjxO
ThkHS5ChbnvyOzYhKEXK50LT7LKmrlUlsTNmKW+t275nPGHtzUM2C1sZY9qUm45s
JhDZ8MCd08PPTRM6dujr65cUq8p1uBv9RnbU6xFKXMv5Zz6SjShL5jABT3oDWRXN
gvKrRiZZGVjJZPZ0x9jSrwFEbmVaKrPX2rP48EzxeU6HqCUCAwEAAaOBojCBnzAJ
BgNVHRMEAjAAMB0GA1UdDgQWBBTZL9F+B2b5jD5k0Z3+qy0yvSvr8jBRBgNVHSME
SjBIgBQagUIEMCqURVHTJkydlyDO+vGWQ6EapBgwFjEUMBIGA1UEAwwLdGVhbTc0
NC1uZXSCFA3TI1IP1njUrT+X2muvdlhFkAqmMBMGA1UdJQQMMAoGCCsGAQUFBwMC
MAsGA1UdDwQEAwIHgDANBgkqhkiG9w0BAQsFAAOCAQEAcUGGrqiwqUaJoiEzPqTi
kVKSccEMmYx2o+GxFucr/qaq3T/+CPOwm0qcR8UHqHoL8hR13RxjfTRGp6wSwiv7
S+3bs4H/7SFdzIsHrGfaREZCJY+C6xEmL6DKOxOy/HRwmwLNmmHjbpmaIgjzp+ld
/M2wnBXVpTQMyHb7vbx9XDGwZErxsruKHnyh2x1JUqR36sgdbdZFMRNOuOitxSOI
rFxjG0I4S9gmGPAynHggJcoN6lXsj+OcMDeJv1kXfNAEBU6BxRA5Vywc+dMrIvMI
SFN8xp6ozg7szbMkcWYujfPQuM7id8Sj4uq5Vqgz1xlMbktUSZixNwxONCcbMUwh
Qw==
-----END CERTIFICATE-----
