Certificate:
    Data:
        Version: 3 (0x2)
        Serial Number:
            bb:d3:fd:23:04:0b:e0:82:db:00:c0:ad:b3:ff:2b:29
        Signature Algorithm: sha256WithRSAEncryption
        Issuer: CN=team727-net
        Validity
            Not Before: May 18 23:48:44 2022 GMT
            Not After : May  2 23:48:44 2025 GMT
        Subject: CN=team727-client
        Subject Public Key Info:
            Public Key Algorithm: rsaEncryption
                RSA Public-Key: (2048 bit)
                Modulus:
                    00:be:3e:02:c6:cf:59:7f:25:91:ee:98:23:73:6a:
                    ec:0b:e9:1f:fa:34:cd:eb:b3:a0:6e:ba:db:c9:c0:
                    3e:3a:b2:40:ad:35:51:7c:2b:3c:68:33:47:7d:0a:
                    26:1f:c6:f4:a4:8d:77:87:a5:3c:7b:90:6f:32:93:
                    a0:30:ea:b4:79:98:ef:e7:08:15:51:ea:41:00:f9:
                    c4:f8:0d:41:10:54:18:00:43:e4:4c:e5:ca:4d:bd:
                    ff:9a:42:1e:40:b9:e3:6a:00:57:36:4b:9a:06:7a:
                    98:ef:76:18:1c:c5:b4:16:6b:1b:27:33:86:86:10:
                    f5:5c:c8:5b:4f:b3:5a:6d:bc:88:ce:33:ab:cf:9d:
                    f6:be:86:46:fb:2c:e5:38:6c:e1:a0:f4:0e:02:d8:
                    7f:74:3a:fa:ea:8e:40:3a:98:e9:4b:e1:37:75:14:
                    f5:b5:58:47:67:6e:0c:c0:1f:be:4d:66:92:6d:90:
                    30:b1:13:ea:87:7f:c3:4b:c7:ac:fe:ae:20:97:32:
                    92:5b:da:ee:4e:14:f4:e9:35:1d:ef:24:46:6a:01:
                    aa:c7:7a:ee:31:a1:aa:c3:b0:30:d8:d5:4d:11:a3:
                    61:d6:79:83:b7:5b:ef:ac:a8:36:94:de:a2:19:3e:
                    9c:74:a8:e3:f7:15:7d:70:4c:7c:5b:4a:e2:17:a0:
                    c2:9f
                Exponent: 65537 (0x10001)
        X509v3 extensions:
            X509v3 Basic Constraints: 
                CA:FALSE
            X509v3 Subject Key Identifier: 
                6B:B2:BE:B2:D5:41:F7:48:49:0A:C5:94:5E:67:F4:46:B4:14:79:DF
            X509v3 Authority Key Identifier: 
                keyid:3C:7A:3F:F6:93:82:4D:BF:1C:63:B2:37:30:B7:93:7F:D1:B9:76:FB
                DirName:/CN=team727-net
                serial:49:C5:C1:72:93:BD:C3:75:1E:DF:A1:73:46:7D:E9:A5:45:52:15:94

            X509v3 Extended Key Usage: 
                TLS Web Client Authentication
            X509v3 Key Usage: 
                Digital Signature
    Signature Algorithm: sha256WithRSAEncryption
         8e:92:b1:2d:fa:33:26:7d:1e:cb:5c:45:8c:18:e8:12:a1:f9:
         33:48:c7:4b:c5:36:7a:40:7e:ba:b2:1f:64:19:14:cf:1f:eb:
         9a:1b:ac:1f:0b:13:75:e4:03:72:84:21:2a:55:71:7f:b6:b2:
         cb:5a:d0:0f:f5:36:04:a0:40:ec:0f:bf:d6:1f:0e:1d:2e:d9:
         87:d8:40:95:ea:12:26:65:ad:cc:4d:54:78:15:3c:05:4b:06:
         3d:89:06:ed:c2:a6:00:7d:32:94:a5:5d:9d:fe:a8:e1:2a:1b:
         64:64:71:b3:1c:b8:18:d6:52:e1:da:9d:1b:f3:8e:3b:a8:ed:
         e2:40:32:72:14:c2:e0:e6:db:5b:65:d5:20:18:3f:69:a6:ef:
         69:98:08:3b:e6:88:0d:44:0e:a0:b8:92:7a:92:d8:c4:ee:7c:
         fd:4e:dd:e4:9a:97:9a:73:ee:4b:48:68:29:44:0f:bc:14:b1:
         fb:54:26:24:43:f2:c5:44:16:d8:d1:78:2a:d2:e6:b0:3d:c1:
         7b:7a:50:51:64:17:bf:62:1d:0c:1e:16:38:0d:2c:1d:54:e4:
         98:f7:22:98:74:3e:50:e2:1d:a2:f3:d6:9e:dd:71:76:d9:b4:
         c9:0e:fb:d6:4d:73:23:f0:0f:8e:9b:17:1e:bd:a6:e1:6f:16:
         b8:89:78:2e
-----BEGIN CERTIFICATE-----
MIIDXTCCAkWgAwIBAgIRALvT/SMEC+CC2wDArbP/KykwDQYJKoZIhvcNAQELBQAw
FjEUMBIGA1UEAwwLdGVhbTcyNy1uZXQwHhcNMjIwNTE4MjM0ODQ0WhcNMjUwNTAy
MjM0ODQ0WjAZMRcwFQYDVQQDDA50ZWFtNzI3LWNsaWVudDCCASIwDQYJKoZIhvcN
AQEBBQADggEPADCCAQoCggEBAL4+AsbPWX8lke6YI3Nq7AvpH/o0zeuzoG6628nA
PjqyQK01UXwrPGgzR30KJh/G9KSNd4elPHuQbzKToDDqtHmY7+cIFVHqQQD5xPgN
QRBUGABD5Ezlyk29/5pCHkC542oAVzZLmgZ6mO92GBzFtBZrGyczhoYQ9VzIW0+z
Wm28iM4zq8+d9r6GRvss5Ths4aD0DgLYf3Q6+uqOQDqY6UvhN3UU9bVYR2duDMAf
vk1mkm2QMLET6od/w0vHrP6uIJcyklva7k4U9Ok1He8kRmoBqsd67jGhqsOwMNjV
TRGjYdZ5g7db76yoNpTeohk+nHSo4/cVfXBMfFtK4hegwp8CAwEAAaOBojCBnzAJ
BgNVHRMEAjAAMB0GA1UdDgQWBBRrsr6y1UH3SEkKxZReZ/RGtBR53zBRBgNVHSME
SjBIgBQ8ej/2k4JNvxxjsjcwt5N/0bl2+6EapBgwFjEUMBIGA1UEAwwLdGVhbTcy
Ny1uZXSCFEnFwXKTvcN1Ht+hc0Z96aVFUhWUMBMGA1UdJQQMMAoGCCsGAQUFBwMC
MAsGA1UdDwQEAwIHgDANBgkqhkiG9w0BAQsFAAOCAQEAjpKxLfozJn0ey1xFjBjo
EqH5M0jHS8U2ekB+urIfZBkUzx/rmhusHwsTdeQDcoQhKlVxf7ayy1rQD/U2BKBA
7A+/1h8OHS7Zh9hAleoSJmWtzE1UeBU8BUsGPYkG7cKmAH0ylKVdnf6o4SobZGRx
sxy4GNZS4dqdG/OOO6jt4kAychTC4ObbW2XVIBg/aabvaZgIO+aIDUQOoLiSepLY
xO58/U7d5JqXmnPuS0hoKUQPvBSx+1QmJEPyxUQW2NF4KtLmsD3Be3pQUWQXv2Id
DB4WOA0sHVTkmPcimHQ+UOIdovPWnt1xdtm0yQ771k1zI/APjpsXHr2m4W8WuIl4
Lg==
-----END CERTIFICATE-----
