Certificate:
    Data:
        Version: 3 (0x2)
        Serial Number:
            e1:e5:91:43:0f:11:d7:46:45:3f:d5:08:7e:45:a0:44
        Signature Algorithm: sha256WithRSAEncryption
        Issuer: CN=team720-net
        Validity
            Not Before: May 18 23:43:58 2022 GMT
            Not After : May  2 23:43:58 2025 GMT
        Subject: CN=team720-client
        Subject Public Key Info:
            Public Key Algorithm: rsaEncryption
                RSA Public-Key: (2048 bit)
                Modulus:
                    00:be:78:d6:43:35:6c:25:47:4c:5f:4f:dc:53:68:
                    28:14:1c:29:84:98:81:5e:32:04:ae:c4:e2:31:71:
                    b4:f9:4b:20:cd:ba:04:76:52:30:55:d7:48:90:ba:
                    e3:00:5b:ee:72:4d:e3:eb:be:44:10:31:6c:da:e2:
                    1e:1a:47:a4:24:16:f6:1c:6c:eb:cf:5f:a1:2c:40:
                    a2:bc:76:d6:9e:c7:95:04:c5:66:f0:36:8a:fc:36:
                    98:02:c5:ec:87:45:66:29:b0:48:dd:66:4e:c8:dd:
                    0c:d4:4c:f6:37:52:ab:1b:24:c2:61:f3:21:23:67:
                    65:87:a2:00:52:8b:10:b1:d1:9f:c3:16:b2:be:44:
                    e2:8a:9b:5b:be:98:59:6d:8b:ee:21:d8:c1:1e:f0:
                    3e:d7:2c:1b:de:f3:d2:bc:60:71:83:ed:e9:47:19:
                    a8:4f:61:a8:37:10:73:67:f6:92:16:1f:45:38:04:
                    35:9f:36:a5:24:b1:57:5e:d3:0c:63:1c:ae:82:fd:
                    71:f0:6b:57:83:3f:3b:40:49:37:60:a7:18:9b:9f:
                    51:b3:f1:d6:89:a0:f5:1d:02:06:f0:ff:35:ab:1d:
                    50:7e:f1:b9:3e:37:46:82:db:0b:8b:0c:4e:14:8e:
                    ab:fa:47:19:62:eb:4b:23:92:bf:4f:ec:77:f0:c7:
                    5b:2d
                Exponent: 65537 (0x10001)
        X509v3 extensions:
            X509v3 Basic Constraints: 
                CA:FALSE
            X509v3 Subject Key Identifier: 
                E1:5A:9A:04:FB:A2:AA:FD:BD:05:51:22:FC:C1:56:58:D1:5A:F5:EA
            X509v3 Authority Key Identifier: 
                keyid:B3:33:07:F0:B5:FF:3E:6C:37:FA:7A:F5:7E:BE:90:B2:8C:F7:25:E3
                DirName:/CN=team720-net
                serial:4A:80:AF:1F:6A:46:27:CF:9D:8D:19:F7:50:C2:55:04:FC:A9:77:D9

            X509v3 Extended Key Usage: 
                TLS Web Client Authentication
            X509v3 Key Usage: 
                Digital Signature
    Signature Algorithm: sha256WithRSAEncryption
         78:bf:32:53:90:fc:84:49:12:88:7a:63:b9:d7:57:ac:c1:c8:
         f8:71:e2:a5:e6:84:5c:45:ec:6b:e5:8d:3d:ba:26:be:01:9e:
         cd:f2:87:70:4f:35:45:08:62:82:bf:5c:76:7f:b6:75:15:9c:
         dc:83:b2:bd:43:b9:cf:af:a1:e7:2c:bf:ce:2f:5e:80:fe:c0:
         90:92:98:c8:bb:aa:33:f0:fb:4d:41:05:5e:67:3c:35:b7:11:
         8c:b0:ce:d3:8c:82:4f:15:d7:fd:3e:72:ec:ce:25:7f:36:b2:
         83:28:88:9a:48:89:58:63:5e:2b:c7:ab:47:3a:3c:34:9b:15:
         49:8b:b6:26:55:07:14:82:5d:b4:3f:b0:52:d8:7b:a8:6c:b4:
         fe:c4:51:3a:2d:84:44:23:40:b8:5f:88:f1:1b:fd:da:21:91:
         d9:f6:8e:d8:5b:f5:36:e1:e9:2f:9d:a5:c0:d1:2e:f6:14:74:
         ec:f4:32:21:b4:27:cc:62:9e:95:d7:b6:46:0d:20:19:1c:55:
         b5:19:50:41:7e:2f:43:2e:13:7e:6c:51:6c:24:34:3d:8e:df:
         23:46:98:0b:0f:13:85:13:29:6c:75:52:67:50:86:5d:25:4d:
         1b:a8:ac:b5:5d:1e:4a:01:50:88:d7:7d:84:07:db:6b:7e:ca:
         98:1e:ca:d0
-----BEGIN CERTIFICATE-----
MIIDXTCCAkWgAwIBAgIRAOHlkUMPEddGRT/VCH5FoEQwDQYJKoZIhvcNAQELBQAw
FjEUMBIGA1UEAwwLdGVhbTcyMC1uZXQwHhcNMjIwNTE4MjM0MzU4WhcNMjUwNTAy
MjM0MzU4WjAZMRcwFQYDVQQDDA50ZWFtNzIwLWNsaWVudDCCASIwDQYJKoZIhvcN
AQEBBQADggEPADCCAQoCggEBAL541kM1bCVHTF9P3FNoKBQcKYSYgV4yBK7E4jFx
tPlLIM26BHZSMFXXSJC64wBb7nJN4+u+RBAxbNriHhpHpCQW9hxs689foSxAorx2
1p7HlQTFZvA2ivw2mALF7IdFZimwSN1mTsjdDNRM9jdSqxskwmHzISNnZYeiAFKL
ELHRn8MWsr5E4oqbW76YWW2L7iHYwR7wPtcsG97z0rxgcYPt6UcZqE9hqDcQc2f2
khYfRTgENZ82pSSxV17TDGMcroL9cfBrV4M/O0BJN2CnGJufUbPx1omg9R0CBvD/
NasdUH7xuT43RoLbC4sMThSOq/pHGWLrSyOSv0/sd/DHWy0CAwEAAaOBojCBnzAJ
BgNVHRMEAjAAMB0GA1UdDgQWBBThWpoE+6Kq/b0FUSL8wVZY0Vr16jBRBgNVHSME
SjBIgBSzMwfwtf8+bDf6evV+vpCyjPcl46EapBgwFjEUMBIGA1UEAwwLdGVhbTcy
MC1uZXSCFEqArx9qRifPnY0Z91DCVQT8qXfZMBMGA1UdJQQMMAoGCCsGAQUFBwMC
MAsGA1UdDwQEAwIHgDANBgkqhkiG9w0BAQsFAAOCAQEAeL8yU5D8hEkSiHpjuddX
rMHI+HHipeaEXEXsa+WNPbomvgGezfKHcE81RQhigr9cdn+2dRWc3IOyvUO5z6+h
5yy/zi9egP7AkJKYyLuqM/D7TUEFXmc8NbcRjLDO04yCTxXX/T5y7M4lfzaygyiI
mkiJWGNeK8erRzo8NJsVSYu2JlUHFIJdtD+wUth7qGy0/sRROi2ERCNAuF+I8Rv9
2iGR2faO2Fv1NuHpL52lwNEu9hR07PQyIbQnzGKelde2Rg0gGRxVtRlQQX4vQy4T
fmxRbCQ0PY7fI0aYCw8ThRMpbHVSZ1CGXSVNG6istV0eSgFQiNd9hAfba37KmB7K
0A==
-----END CERTIFICATE-----
