Certificate:
    Data:
        Version: 3 (0x2)
        Serial Number:
            02:03:b6:79:23:cf:45:ba:68:54:a5:bf:62:bd:94:07
        Signature Algorithm: sha256WithRSAEncryption
        Issuer: CN=team175-net
        Validity
            Not Before: May 18 18:50:08 2022 GMT
            Not After : May  2 18:50:08 2025 GMT
        Subject: CN=team175-client
        Subject Public Key Info:
            Public Key Algorithm: rsaEncryption
                RSA Public-Key: (2048 bit)
                Modulus:
                    00:ef:02:1c:7d:0d:7b:2b:a5:78:9d:5d:f9:1f:2e:
                    d8:08:1b:11:cb:66:88:87:af:20:29:5a:12:c8:46:
                    46:72:26:c3:6d:f9:f8:c6:58:bc:66:4a:7a:47:b8:
                    f7:cb:0a:d3:ef:61:59:c3:cc:36:5e:7f:3c:20:b4:
                    c7:a7:ad:fd:79:0f:4e:ae:5b:98:2a:54:e1:cd:91:
                    05:73:7d:cf:4e:05:f3:fd:af:dd:88:ef:9d:d3:26:
                    82:ea:4f:7d:49:54:e9:86:c5:3a:57:e2:f5:09:01:
                    56:7b:92:72:6e:9f:bc:89:30:50:3a:9c:06:36:0a:
                    62:78:91:db:1f:62:57:5a:6c:bc:3c:38:da:db:2d:
                    dc:d6:fe:65:de:e8:6f:91:c0:af:63:c5:1b:61:d6:
                    f0:bc:d0:20:4f:a5:0c:b7:f4:7d:e6:03:56:b8:d6:
                    1a:3f:49:15:b2:a7:f2:31:96:36:63:ac:de:82:d6:
                    e1:25:90:99:72:8d:46:75:85:f5:0c:64:30:6c:59:
                    ce:19:7a:61:19:02:79:40:a8:1d:09:81:c3:eb:c8:
                    06:b8:3c:e7:7c:71:01:5f:db:66:07:20:cb:bc:25:
                    13:53:b7:23:1e:7d:3c:fc:9a:ad:2e:cb:57:4e:58:
                    f7:a0:7e:76:53:cc:51:72:02:88:30:f6:a4:06:e5:
                    d8:39
                Exponent: 65537 (0x10001)
        X509v3 extensions:
            X509v3 Basic Constraints: 
                CA:FALSE
            X509v3 Subject Key Identifier: 
                B3:CB:0F:E7:7F:0D:AE:0F:47:E0:68:80:04:61:34:84:E0:DE:F0:69
            X509v3 Authority Key Identifier: 
                keyid:39:D1:D0:08:E9:F9:45:41:96:4E:FE:ED:32:B1:2C:09:21:FE:1A:B1
                DirName:/CN=team175-net
                serial:2B:6A:EC:4A:D7:2B:08:78:AF:9E:3F:72:4C:C2:57:A4:E3:CB:5E:14

            X509v3 Extended Key Usage: 
                TLS Web Client Authentication
            X509v3 Key Usage: 
                Digital Signature
    Signature Algorithm: sha256WithRSAEncryption
         42:b2:9d:44:6e:ea:4e:84:3d:18:09:46:26:d8:69:14:cc:d3:
         a8:a1:f5:86:cd:4d:31:23:e4:a1:5b:21:0c:0e:27:88:41:ea:
         44:9e:2b:eb:b1:39:e0:f5:50:46:d9:eb:64:10:16:a1:13:2b:
         54:89:9a:97:4d:2c:b1:5c:30:12:ee:0b:2f:bf:20:ee:b2:6c:
         1d:31:3f:8a:5f:73:1a:b7:68:a9:b0:af:97:4e:5a:e3:61:e2:
         fc:71:41:22:ad:19:47:98:4c:ed:b5:7e:9f:68:a0:bc:1d:eb:
         6f:ba:1a:d7:d6:81:20:5c:e2:71:bf:1a:32:34:b6:48:62:b5:
         26:b2:d3:b2:96:5a:1c:ab:50:9e:0c:5e:00:d3:cd:ee:82:8c:
         50:46:b8:bc:a5:d2:42:c3:ce:e0:6c:3d:9d:6a:e3:ca:cc:f0:
         55:46:47:8c:49:be:a6:92:73:1b:fe:89:a1:39:39:8c:cd:cf:
         1f:95:5d:9c:b5:0f:c9:ba:98:5a:63:49:f4:07:1d:30:fd:13:
         4a:35:b4:c8:24:75:d4:2d:d6:03:80:1a:35:67:32:0e:5e:2f:
         d8:46:07:a6:72:25:04:05:53:c7:a4:b8:33:4b:a1:b1:f0:8d:
         c7:1c:aa:47:6a:d0:0a:d5:b0:92:6c:9e:41:15:e8:a9:60:3d:
         97:be:79:a3
-----BEGIN CERTIFICATE-----
MIIDXDCCAkSgAwIBAgIQAgO2eSPPRbpoVKW/Yr2UBzANBgkqhkiG9w0BAQsFADAW
MRQwEgYDVQQDDAt0ZWFtMTc1LW5ldDAeFw0yMjA1MTgxODUwMDhaFw0yNTA1MDIx
ODUwMDhaMBkxFzAVBgNVBAMMDnRlYW0xNzUtY2xpZW50MIIBIjANBgkqhkiG9w0B
AQEFAAOCAQ8AMIIBCgKCAQEA7wIcfQ17K6V4nV35Hy7YCBsRy2aIh68gKVoSyEZG
cibDbfn4xli8Zkp6R7j3ywrT72FZw8w2Xn88ILTHp639eQ9OrluYKlThzZEFc33P
TgXz/a/diO+d0yaC6k99SVTphsU6V+L1CQFWe5Jybp+8iTBQOpwGNgpieJHbH2JX
Wmy8PDja2y3c1v5l3uhvkcCvY8UbYdbwvNAgT6UMt/R95gNWuNYaP0kVsqfyMZY2
Y6zegtbhJZCZco1GdYX1DGQwbFnOGXphGQJ5QKgdCYHD68gGuDznfHEBX9tmByDL
vCUTU7cjHn08/JqtLstXTlj3oH52U8xRcgKIMPakBuXYOQIDAQABo4GiMIGfMAkG
A1UdEwQCMAAwHQYDVR0OBBYEFLPLD+d/Da4PR+BogARhNITg3vBpMFEGA1UdIwRK
MEiAFDnR0Ajp+UVBlk7+7TKxLAkh/hqxoRqkGDAWMRQwEgYDVQQDDAt0ZWFtMTc1
LW5ldIIUK2rsStcrCHivnj9yTMJXpOPLXhQwEwYDVR0lBAwwCgYIKwYBBQUHAwIw
CwYDVR0PBAQDAgeAMA0GCSqGSIb3DQEBCwUAA4IBAQBCsp1EbupOhD0YCUYm2GkU
zNOoofWGzU0xI+ShWyEMDieIQepEnivrsTng9VBG2etkEBahEytUiZqXTSyxXDAS
7gsvvyDusmwdMT+KX3Mat2ipsK+XTlrjYeL8cUEirRlHmEzttX6faKC8HetvuhrX
1oEgXOJxvxoyNLZIYrUmstOyllocq1CeDF4A083ugoxQRri8pdJCw87gbD2dauPK
zPBVRkeMSb6mknMb/omhOTmMzc8flV2ctQ/JuphaY0n0Bx0w/RNKNbTIJHXULdYD
gBo1ZzIOXi/YRgemciUEBVPHpLgzS6Gx8I3HHKpHatAK1bCSbJ5BFeipYD2Xvnmj
-----END CERTIFICATE-----
