Certificate:
    Data:
        Version: 3 (0x2)
        Serial Number:
            0a:38:90:bd:3f:8e:aa:d7:f9:7a:34:16:08:e1:0e:17
        Signature Algorithm: sha256WithRSAEncryption
        Issuer: CN=team346-net
        Validity
            Not Before: May 18 20:26:36 2022 GMT
            Not After : May  2 20:26:36 2025 GMT
        Subject: CN=team346-client
        Subject Public Key Info:
            Public Key Algorithm: rsaEncryption
                RSA Public-Key: (2048 bit)
                Modulus:
                    00:a1:86:79:81:8e:fc:1a:46:18:57:76:11:e8:b7:
                    94:39:46:be:2a:e5:82:f5:8b:b0:2f:b8:0f:b5:a8:
                    ab:40:73:88:f7:e6:17:ce:f8:5e:57:80:89:73:bf:
                    93:fa:3b:db:70:f8:c9:3b:fd:09:c4:b5:78:3b:d5:
                    2b:58:d0:87:f8:ee:5e:67:dc:cc:75:06:6f:7a:ff:
                    9a:d2:b0:dc:46:e2:b6:ef:fd:be:7f:18:91:1b:23:
                    e2:d0:05:cc:48:d8:28:e8:f7:31:9e:3e:10:bc:38:
                    a5:67:d5:c6:0d:17:9c:1a:d5:94:af:a7:52:80:74:
                    4a:52:fb:eb:fe:7f:54:c9:01:23:20:85:47:02:f1:
                    1c:57:f8:2e:dd:84:b1:81:25:25:b7:63:5f:0d:05:
                    f8:f9:0c:9d:d8:eb:e4:4f:a7:0f:34:b8:61:5b:1c:
                    ad:58:23:69:e2:3a:51:89:c4:ab:68:b9:de:5d:0d:
                    24:b9:a2:8b:b4:17:78:52:32:1b:fd:e7:90:9e:3d:
                    fa:f9:a1:b6:bd:15:12:b9:2a:1b:40:f2:61:9e:9c:
                    f5:7b:0b:29:ae:07:94:10:4f:0b:8b:07:7c:3d:74:
                    26:93:c8:cd:6c:ca:79:a7:87:8f:f3:65:a5:a1:dd:
                    7c:bc:b4:37:5d:05:ec:e1:d0:c2:0b:77:7b:97:0e:
                    93:5d
                Exponent: 65537 (0x10001)
        X509v3 extensions:
            X509v3 Basic Constraints: 
                CA:FALSE
            X509v3 Subject Key Identifier: 
                51:1F:41:2D:82:22:A7:4B:42:D3:9C:65:AD:14:5C:BE:A5:EE:37:B9
            X509v3 Authority Key Identifier: 
                keyid:9F:8F:00:9D:46:28:8A:B1:A3:F9:B6:36:31:26:4C:65:A6:03:E3:D9
                DirName:/CN=team346-net
                serial:68:7D:E8:91:31:BD:60:C7:84:80:2A:46:8E:75:1F:E3:7B:1D:4B:71

            X509v3 Extended Key Usage: 
                TLS Web Client Authentication
            X509v3 Key Usage: 
                Digital Signature
    Signature Algorithm: sha256WithRSAEncryption
         c7:1d:41:d0:86:2d:b0:19:7b:39:b2:70:45:47:e2:e7:b5:bd:
         02:c3:b3:f3:ad:48:77:b5:56:44:96:e1:01:26:63:4b:c5:5a:
         84:6e:ad:a5:4e:d5:e5:9c:9b:1a:d1:7b:57:72:6d:81:71:43:
         cd:0f:fe:90:f9:d7:7a:11:b6:6a:1f:55:55:09:56:f4:19:f5:
         dd:a5:71:5c:1c:30:2d:4c:7c:b9:23:8f:99:56:bf:55:a7:44:
         ed:13:53:9b:43:7d:b1:81:65:8a:0b:df:38:f8:5e:a7:e4:ca:
         97:a7:2d:bf:d0:9a:7b:bb:54:bb:13:e4:65:02:11:ac:e3:c2:
         dc:4f:f2:d4:6d:e5:da:04:5d:93:6e:cd:4e:7f:91:3b:83:4e:
         54:a2:d6:6b:38:23:23:8a:98:25:43:0b:7b:1f:1b:6b:81:87:
         a6:19:c2:2f:ae:77:09:c2:d9:45:de:f4:ac:47:7b:56:e1:a9:
         4a:1c:02:4b:17:00:42:ad:1a:1f:d5:99:10:1d:43:a1:1c:fd:
         1e:ad:e8:4d:a7:6c:7f:c0:05:21:9b:9e:8b:b8:38:e2:27:8e:
         09:6a:92:b6:f3:e0:73:8e:07:61:3c:e9:47:36:1d:ec:45:5b:
         03:39:c6:7d:cb:3f:b9:c5:21:cd:54:cc:18:e0:07:f0:27:f8:
         6a:e8:99:ec
-----BEGIN CERTIFICATE-----
MIIDXDCCAkSgAwIBAgIQCjiQvT+Oqtf5ejQWCOEOFzANBgkqhkiG9w0BAQsFADAW
MRQwEgYDVQQDDAt0ZWFtMzQ2LW5ldDAeFw0yMjA1MTgyMDI2MzZaFw0yNTA1MDIy
MDI2MzZaMBkxFzAVBgNVBAMMDnRlYW0zNDYtY2xpZW50MIIBIjANBgkqhkiG9w0B
AQEFAAOCAQ8AMIIBCgKCAQEAoYZ5gY78GkYYV3YR6LeUOUa+KuWC9YuwL7gPtair
QHOI9+YXzvheV4CJc7+T+jvbcPjJO/0JxLV4O9UrWNCH+O5eZ9zMdQZvev+a0rDc
RuK27/2+fxiRGyPi0AXMSNgo6Pcxnj4QvDilZ9XGDRecGtWUr6dSgHRKUvvr/n9U
yQEjIIVHAvEcV/gu3YSxgSUlt2NfDQX4+Qyd2OvkT6cPNLhhWxytWCNp4jpRicSr
aLneXQ0kuaKLtBd4UjIb/eeQnj36+aG2vRUSuSobQPJhnpz1ewsprgeUEE8Liwd8
PXQmk8jNbMp5p4eP82Wlod18vLQ3XQXs4dDCC3d7lw6TXQIDAQABo4GiMIGfMAkG
A1UdEwQCMAAwHQYDVR0OBBYEFFEfQS2CIqdLQtOcZa0UXL6l7je5MFEGA1UdIwRK
MEiAFJ+PAJ1GKIqxo/m2NjEmTGWmA+PZoRqkGDAWMRQwEgYDVQQDDAt0ZWFtMzQ2
LW5ldIIUaH3okTG9YMeEgCpGjnUf43sdS3EwEwYDVR0lBAwwCgYIKwYBBQUHAwIw
CwYDVR0PBAQDAgeAMA0GCSqGSIb3DQEBCwUAA4IBAQDHHUHQhi2wGXs5snBFR+Ln
tb0Cw7PzrUh3tVZEluEBJmNLxVqEbq2lTtXlnJsa0XtXcm2BcUPND/6Q+dd6EbZq
H1VVCVb0GfXdpXFcHDAtTHy5I4+ZVr9Vp0TtE1ObQ32xgWWKC984+F6n5MqXpy2/
0Jp7u1S7E+RlAhGs48LcT/LUbeXaBF2Tbs1Of5E7g05UotZrOCMjipglQwt7Hxtr
gYemGcIvrncJwtlF3vSsR3tW4alKHAJLFwBCrRof1ZkQHUOhHP0erehNp2x/wAUh
m56LuDjiJ44JapK28+BzjgdhPOlHNh3sRVsDOcZ9yz+5xSHNVMwY4AfwJ/hq6Jns
-----END CERTIFICATE-----
