Certificate:
    Data:
        Version: 3 (0x2)
        Serial Number:
            2e:d0:73:0a:16:e0:56:09:4a:47:9c:2b:64:c5:04:83
        Signature Algorithm: sha256WithRSAEncryption
        Issuer: CN=team288-net
        Validity
            Not Before: May 18 19:53:48 2022 GMT
            Not After : May  2 19:53:48 2025 GMT
        Subject: CN=team288-server
        Subject Public Key Info:
            Public Key Algorithm: rsaEncryption
                RSA Public-Key: (2048 bit)
                Modulus:
                    00:d0:92:47:b0:0b:44:9f:21:0d:f9:cf:98:8c:fb:
                    6b:e4:8f:7f:d2:40:b9:48:a6:c3:35:d4:77:ee:73:
                    88:4d:1f:da:cd:6e:7e:b3:3b:f9:09:15:94:dd:04:
                    f5:2b:d8:69:64:ac:e5:3b:15:83:1e:d9:38:a6:ad:
                    fd:3f:43:7b:44:b2:ea:df:bd:c2:3f:56:48:4b:31:
                    d8:6f:f3:6c:22:d7:1e:26:ca:36:04:4b:6f:e7:d1:
                    f6:cb:57:48:ff:27:7c:34:de:94:d3:9b:97:f6:0e:
                    e7:e0:97:91:2e:10:24:fd:17:fe:a7:50:d9:3c:cb:
                    5c:bd:57:08:ae:d4:ab:55:90:61:6b:98:79:b8:67:
                    6d:f4:0f:53:a7:52:e6:f3:70:55:8e:0c:59:c9:84:
                    b0:17:1a:63:77:14:42:e4:82:9c:bd:4e:4a:b2:2d:
                    ec:1e:11:59:94:1e:f7:bd:07:fa:b0:c3:82:a0:4f:
                    92:d7:56:09:d6:72:85:c1:30:a6:61:84:20:7d:f2:
                    f5:8d:5c:c7:43:8b:fd:4d:22:78:d4:0d:76:6c:c8:
                    de:70:d2:49:b5:82:31:42:b0:10:65:1b:02:85:dc:
                    46:ae:1c:66:a0:ae:bd:6c:a0:55:64:26:65:c0:17:
                    b7:97:1b:b7:d6:49:85:bb:82:72:b1:36:57:86:7a:
                    a8:ef
                Exponent: 65537 (0x10001)
        X509v3 extensions:
            X509v3 Basic Constraints: 
                CA:FALSE
            X509v3 Subject Key Identifier: 
                CB:67:DA:5F:A0:0B:22:F6:98:B1:E4:6F:4C:31:ED:4C:8A:89:3D:5F
            X509v3 Authority Key Identifier: 
                keyid:C3:AC:5F:E8:AD:3E:49:6D:0D:F2:A1:78:F5:F7:2C:6A:03:AD:F9:4E
                DirName:/CN=team288-net
                serial:15:FD:59:79:7F:86:59:25:B8:50:F8:1D:A2:A6:A0:44:2F:7A:7C:83

            X509v3 Extended Key Usage: 
                TLS Web Server Authentication
            X509v3 Key Usage: 
                Digital Signature, Key Encipherment
            X509v3 Subject Alternative Name: 
                DNS:team288-server
    Signature Algorithm: sha256WithRSAEncryption
         13:f1:3b:21:21:e2:81:cb:6b:a0:29:e1:b4:82:61:b0:dc:65:
         be:a1:99:45:99:62:b0:ce:84:49:08:c9:c8:fd:ad:b4:49:35:
         47:8b:03:c9:24:22:e4:de:98:66:3a:73:be:af:3d:32:6c:f2:
         c8:07:eb:d9:7b:d5:b8:24:73:3e:59:3d:d6:cc:55:47:b2:04:
         a1:cd:e5:c7:dc:c1:02:d6:10:a8:79:76:39:cc:96:b4:64:33:
         20:a5:e3:de:5e:74:29:2c:65:1b:a7:be:70:c7:f7:d3:5f:76:
         c9:b1:ec:29:f0:f9:f1:9c:a8:38:00:1b:1f:48:cc:9d:c7:ea:
         b6:9f:52:3c:13:f7:d0:95:fb:c5:7a:d9:56:f1:64:08:55:34:
         e2:34:cc:7a:08:d8:66:21:e7:a2:be:48:67:bb:80:84:fb:8e:
         df:4a:e2:73:1a:fa:24:65:e7:25:11:28:76:c3:6b:6b:33:e8:
         fa:9e:0f:83:5e:f9:25:71:bf:7d:9e:3c:b6:9b:e5:1c:68:d3:
         c3:6c:4e:96:91:f8:64:25:53:02:77:82:cc:cb:3c:2c:3a:2b:
         98:33:fa:72:33:c6:ff:59:7b:1b:b5:7f:45:ee:9a:38:5d:3f:
         ee:5d:d5:5e:94:e7:c6:81:82:11:3e:ac:b0:6a:61:ea:03:4b:
         09:e8:5c:2e
-----BEGIN CERTIFICATE-----
MIIDdzCCAl+gAwIBAgIQLtBzChbgVglKR5wrZMUEgzANBgkqhkiG9w0BAQsFADAW
MRQwEgYDVQQDDAt0ZWFtMjg4LW5ldDAeFw0yMjA1MTgxOTUzNDhaFw0yNTA1MDIx
OTUzNDhaMBkxFzAVBgNVBAMMDnRlYW0yODgtc2VydmVyMIIBIjANBgkqhkiG9w0B
AQEFAAOCAQ8AMIIBCgKCAQEA0JJHsAtEnyEN+c+YjPtr5I9/0kC5SKbDNdR37nOI
TR/azW5+szv5CRWU3QT1K9hpZKzlOxWDHtk4pq39P0N7RLLq373CP1ZISzHYb/Ns
ItceJso2BEtv59H2y1dI/yd8NN6U05uX9g7n4JeRLhAk/Rf+p1DZPMtcvVcIrtSr
VZBha5h5uGdt9A9Tp1Lm83BVjgxZyYSwFxpjdxRC5IKcvU5Ksi3sHhFZlB73vQf6
sMOCoE+S11YJ1nKFwTCmYYQgffL1jVzHQ4v9TSJ41A12bMjecNJJtYIxQrAQZRsC
hdxGrhxmoK69bKBVZCZlwBe3lxu31kmFu4JysTZXhnqo7wIDAQABo4G9MIG6MAkG
A1UdEwQCMAAwHQYDVR0OBBYEFMtn2l+gCyL2mLHkb0wx7UyKiT1fMFEGA1UdIwRK
MEiAFMOsX+itPkltDfKhePX3LGoDrflOoRqkGDAWMRQwEgYDVQQDDAt0ZWFtMjg4
LW5ldIIUFf1ZeX+GWSW4UPgdoqagRC96fIMwEwYDVR0lBAwwCgYIKwYBBQUHAwEw
CwYDVR0PBAQDAgWgMBkGA1UdEQQSMBCCDnRlYW0yODgtc2VydmVyMA0GCSqGSIb3
DQEBCwUAA4IBAQAT8TshIeKBy2ugKeG0gmGw3GW+oZlFmWKwzoRJCMnI/a20STVH
iwPJJCLk3phmOnO+rz0ybPLIB+vZe9W4JHM+WT3WzFVHsgShzeXH3MEC1hCoeXY5
zJa0ZDMgpePeXnQpLGUbp75wx/fTX3bJsewp8PnxnKg4ABsfSMydx+q2n1I8E/fQ
lfvFetlW8WQIVTTiNMx6CNhmIeeivkhnu4CE+47fSuJzGvokZeclESh2w2trM+j6
ng+DXvklcb99njy2m+UcaNPDbE6WkfhkJVMCd4LMyzwsOiuYM/pyM8b/WXsbtX9F
7po4XT/uXdVelOfGgYIRPqywamHqA0sJ6Fwu
-----END CERTIFICATE-----
