Certificate:
    Data:
        Version: 3 (0x2)
        Serial Number:
            96:a6:4b:04:f9:77:74:d6:8d:4e:03:ff:07:64:ad:79
        Signature Algorithm: sha256WithRSAEncryption
        Issuer: CN=team288-net
        Validity
            Not Before: May 18 19:53:48 2022 GMT
            Not After : May  2 19:53:48 2025 GMT
        Subject: CN=team288-client
        Subject Public Key Info:
            Public Key Algorithm: rsaEncryption
                RSA Public-Key: (2048 bit)
                Modulus:
                    00:c8:9f:20:78:11:58:d5:c3:3b:91:05:ab:af:98:
                    1f:42:2b:80:83:00:1e:82:10:ce:56:88:98:74:1e:
                    2e:b5:72:89:99:e2:dd:e5:1d:5d:b1:b4:95:73:b5:
                    6d:4a:e4:75:9f:4a:55:75:94:15:5d:61:07:9b:ec:
                    e6:57:39:ad:80:f2:6f:71:ce:56:fc:28:3f:ee:86:
                    72:0c:05:ac:36:06:b0:e5:d5:a7:58:e7:34:c7:a9:
                    c6:bf:33:21:4c:66:98:08:48:41:5f:00:ef:0f:95:
                    50:bc:78:23:23:d0:c8:5d:88:05:5d:64:c8:78:ed:
                    82:fd:f3:bf:c9:09:20:7c:80:49:12:2f:78:ba:5b:
                    44:b5:64:94:8a:30:46:7f:2c:be:5b:38:98:af:0c:
                    1f:ca:29:59:45:44:db:9c:30:a2:d4:10:04:8f:d9:
                    ed:e7:ec:f8:f7:e9:bd:81:e4:d7:8c:4e:e5:e5:74:
                    48:d6:48:4d:b4:e0:eb:4d:0e:db:67:f6:44:93:a4:
                    0e:0f:79:bd:f7:e3:56:01:43:f8:6e:93:e1:6e:47:
                    71:84:07:f5:ca:6f:27:7e:17:c1:ee:8e:1d:2f:2d:
                    d9:e5:62:6f:a6:52:7f:3f:2b:18:12:e1:d6:d0:15:
                    d3:b2:38:eb:18:d4:fa:00:bc:de:c6:12:04:4b:83:
                    01:0d
                Exponent: 65537 (0x10001)
        X509v3 extensions:
            X509v3 Basic Constraints: 
                CA:FALSE
            X509v3 Subject Key Identifier: 
                BA:65:8B:89:A0:6E:70:62:45:4B:36:6F:E4:85:5A:2E:44:1C:E7:AD
            X509v3 Authority Key Identifier: 
                keyid:C3:AC:5F:E8:AD:3E:49:6D:0D:F2:A1:78:F5:F7:2C:6A:03:AD:F9:4E
                DirName:/CN=team288-net
                serial:15:FD:59:79:7F:86:59:25:B8:50:F8:1D:A2:A6:A0:44:2F:7A:7C:83

            X509v3 Extended Key Usage: 
                TLS Web Client Authentication
            X509v3 Key Usage: 
                Digital Signature
    Signature Algorithm: sha256WithRSAEncryption
         22:05:25:60:76:d8:54:b8:06:fe:74:34:6d:de:6c:9f:24:72:
         97:72:68:ca:01:f6:3e:97:44:90:0d:24:ac:0d:0c:2b:af:f2:
         04:8f:1d:36:32:ad:39:0b:cc:c4:68:80:ed:41:30:d6:eb:4a:
         6e:f2:30:74:a3:4d:23:a6:4b:95:e4:c0:63:c5:75:6a:07:d7:
         34:b9:8e:ef:90:8f:7d:eb:b0:c8:84:c3:dd:0a:84:8e:80:87:
         bb:54:f8:49:94:71:b9:2e:43:9e:73:93:4d:d0:2b:e7:16:35:
         23:3c:98:af:a7:a0:80:54:1c:21:0b:41:b9:76:da:58:19:1c:
         97:3f:9f:84:46:45:4e:6b:82:a8:3e:d5:db:9f:6f:b3:30:0c:
         b2:15:10:a4:42:16:c7:b0:90:08:f9:a7:ba:05:3f:05:9c:0f:
         bf:8b:18:c4:96:94:c8:e6:2f:96:31:94:51:1d:a4:b1:ba:d0:
         43:7c:b0:6c:fa:e8:33:f8:cf:70:3f:d5:4e:5c:82:53:01:f3:
         27:51:16:3d:91:bf:34:7c:a6:60:41:0a:b3:8e:31:3a:07:89:
         99:92:46:80:85:5d:9a:d1:3c:61:49:cc:af:ab:4a:32:44:e6:
         cc:26:8e:5c:5d:46:4d:be:3a:6b:71:b6:e8:eb:51:cf:75:22:
         5b:fd:d6:25
-----BEGIN CERTIFICATE-----
MIIDXTCCAkWgAwIBAgIRAJamSwT5d3TWjU4D/wdkrXkwDQYJKoZIhvcNAQELBQAw
FjEUMBIGA1UEAwwLdGVhbTI4OC1uZXQwHhcNMjIwNTE4MTk1MzQ4WhcNMjUwNTAy
MTk1MzQ4WjAZMRcwFQYDVQQDDA50ZWFtMjg4LWNsaWVudDCCASIwDQYJKoZIhvcN
AQEBBQADggEPADCCAQoCggEBAMifIHgRWNXDO5EFq6+YH0IrgIMAHoIQzlaImHQe
LrVyiZni3eUdXbG0lXO1bUrkdZ9KVXWUFV1hB5vs5lc5rYDyb3HOVvwoP+6GcgwF
rDYGsOXVp1jnNMepxr8zIUxmmAhIQV8A7w+VULx4IyPQyF2IBV1kyHjtgv3zv8kJ
IHyASRIveLpbRLVklIowRn8svls4mK8MH8opWUVE25wwotQQBI/Z7efs+PfpvYHk
14xO5eV0SNZITbTg600O22f2RJOkDg95vffjVgFD+G6T4W5HcYQH9cpvJ34Xwe6O
HS8t2eVib6ZSfz8rGBLh1tAV07I46xjU+gC83sYSBEuDAQ0CAwEAAaOBojCBnzAJ
BgNVHRMEAjAAMB0GA1UdDgQWBBS6ZYuJoG5wYkVLNm/khVouRBznrTBRBgNVHSME
SjBIgBTDrF/orT5JbQ3yoXj19yxqA635TqEapBgwFjEUMBIGA1UEAwwLdGVhbTI4
OC1uZXSCFBX9WXl/hlkluFD4HaKmoEQvenyDMBMGA1UdJQQMMAoGCCsGAQUFBwMC
MAsGA1UdDwQEAwIHgDANBgkqhkiG9w0BAQsFAAOCAQEAIgUlYHbYVLgG/nQ0bd5s
nyRyl3JoygH2PpdEkA0krA0MK6/yBI8dNjKtOQvMxGiA7UEw1utKbvIwdKNNI6ZL
leTAY8V1agfXNLmO75CPfeuwyITD3QqEjoCHu1T4SZRxuS5DnnOTTdAr5xY1IzyY
r6eggFQcIQtBuXbaWBkclz+fhEZFTmuCqD7V259vszAMshUQpEIWx7CQCPmnugU/
BZwPv4sYxJaUyOYvljGUUR2ksbrQQ3ywbProM/jPcD/VTlyCUwHzJ1EWPZG/NHym
YEEKs44xOgeJmZJGgIVdmtE8YUnMr6tKMkTmzCaOXF1GTb46a3G26OtRz3UiW/3W
JQ==
-----END CERTIFICATE-----
