Certificate:
    Data:
        Version: 3 (0x2)
        Serial Number:
            5c:ee:3b:1a:01:be:55:31:49:ce:8b:f1:d8:a8:c4:04
        Signature Algorithm: sha256WithRSAEncryption
        Issuer: CN=team630-net
        Validity
            Not Before: May 18 23:07:01 2022 GMT
            Not After : May  2 23:07:01 2025 GMT
        Subject: CN=team630-server
        Subject Public Key Info:
            Public Key Algorithm: rsaEncryption
                RSA Public-Key: (2048 bit)
                Modulus:
                    00:c6:55:d9:91:85:4f:03:5d:7d:8d:bc:ca:5a:13:
                    43:13:c9:0b:ad:bb:7c:96:4e:8e:22:33:fa:7b:12:
                    56:2f:c4:c3:28:62:bf:af:36:52:48:b8:cb:0e:2b:
                    6a:2f:4b:d1:21:7f:bf:d7:6b:4f:1e:1f:40:5a:05:
                    8b:d5:4f:30:e6:4f:a4:da:8a:c7:b7:24:21:c1:4c:
                    cf:58:06:15:ca:73:a4:32:30:05:4b:ca:fe:62:1f:
                    b7:fc:12:b5:64:03:e7:d8:5a:cb:1d:45:8f:ba:86:
                    e6:e2:23:42:4e:81:ac:16:74:e9:68:2c:87:78:70:
                    7b:9e:6f:5d:57:5d:43:f3:87:7b:9c:a0:be:64:b5:
                    18:1d:e0:87:50:fc:ba:70:ea:9c:f5:a7:42:06:07:
                    90:d7:4d:6a:e8:f4:cf:b8:ec:6a:ed:8e:4d:e8:6b:
                    14:e4:b2:cc:4b:bb:29:a4:19:3f:e9:91:ea:e3:39:
                    c4:77:9b:55:be:3d:76:ad:fa:35:f6:1a:ca:42:86:
                    5e:64:67:e8:ff:dd:0a:8b:f0:fe:1a:33:59:7e:a0:
                    77:e4:52:60:33:44:2f:ea:bf:e0:73:3b:cd:8f:84:
                    36:6d:83:41:f1:78:39:4c:ed:0c:f2:74:2d:df:07:
                    a3:62:b6:e6:f8:5d:fd:47:f8:94:ef:2a:70:a5:0f:
                    17:0f
                Exponent: 65537 (0x10001)
        X509v3 extensions:
            X509v3 Basic Constraints: 
                CA:FALSE
            X509v3 Subject Key Identifier: 
                3A:22:29:0D:F8:F3:61:80:A4:7F:64:54:DB:A0:EF:8B:51:78:54:8F
            X509v3 Authority Key Identifier: 
                keyid:14:83:84:CC:D1:72:F6:1F:C4:C4:B2:98:70:04:1D:F2:D7:B4:9A:92
                DirName:/CN=team630-net
                serial:54:21:B2:03:9A:98:13:B9:8A:1F:DE:B1:36:C5:C5:4D:0B:E5:6C:37

            X509v3 Extended Key Usage: 
                TLS Web Server Authentication
            X509v3 Key Usage: 
                Digital Signature, Key Encipherment
            X509v3 Subject Alternative Name: 
                DNS:team630-server
    Signature Algorithm: sha256WithRSAEncryption
         53:27:0e:f9:68:cd:90:7e:7a:68:b1:69:37:3d:80:2e:60:48:
         a3:ef:87:18:d4:f4:0f:25:0a:09:f6:86:df:e9:53:b7:dd:41:
         6c:96:01:00:43:a6:d8:9b:a2:bb:36:e4:9d:67:4d:53:aa:6b:
         69:07:fa:4b:67:2c:ae:8a:dc:af:2c:64:f1:e3:18:4c:71:16:
         6a:53:3c:1b:7a:74:4b:27:a5:b0:5a:db:89:b4:35:6d:33:c6:
         10:d0:bb:47:3f:43:84:7f:4c:ea:a1:6b:03:82:60:26:ee:7d:
         fd:88:3d:99:e5:a2:ca:db:22:9d:9b:1d:2d:46:7e:1d:71:3b:
         3b:24:ae:0d:53:5e:94:9f:10:43:ae:f1:ee:f8:37:8e:f3:58:
         49:72:ee:3f:b2:81:0b:20:11:1c:c9:2e:f6:9a:0f:30:2d:0e:
         a9:e0:21:26:a2:24:ad:a9:f4:dc:b5:98:21:08:05:ff:f7:ed:
         e9:20:6f:49:05:31:6b:5e:63:80:52:95:d7:82:a4:3f:eb:d1:
         d7:e1:c0:86:0c:7e:e1:d0:c0:3b:2c:21:b1:04:48:e2:80:91:
         4b:36:5b:e8:98:c9:cc:53:04:c1:fd:5b:ae:24:65:85:cb:53:
         16:1f:dc:d8:2a:b5:5a:3b:ae:35:76:f7:3e:b9:29:8c:6a:c0:
         3d:ba:43:d5
-----BEGIN CERTIFICATE-----
MIIDdzCCAl+gAwIBAgIQXO47GgG+VTFJzovx2KjEBDANBgkqhkiG9w0BAQsFADAW
MRQwEgYDVQQDDAt0ZWFtNjMwLW5ldDAeFw0yMjA1MTgyMzA3MDFaFw0yNTA1MDIy
MzA3MDFaMBkxFzAVBgNVBAMMDnRlYW02MzAtc2VydmVyMIIBIjANBgkqhkiG9w0B
AQEFAAOCAQ8AMIIBCgKCAQEAxlXZkYVPA119jbzKWhNDE8kLrbt8lk6OIjP6exJW
L8TDKGK/rzZSSLjLDitqL0vRIX+/12tPHh9AWgWL1U8w5k+k2orHtyQhwUzPWAYV
ynOkMjAFS8r+Yh+3/BK1ZAPn2FrLHUWPuobm4iNCToGsFnTpaCyHeHB7nm9dV11D
84d7nKC+ZLUYHeCHUPy6cOqc9adCBgeQ101q6PTPuOxq7Y5N6GsU5LLMS7sppBk/
6ZHq4znEd5tVvj12rfo19hrKQoZeZGfo/90Ki/D+GjNZfqB35FJgM0Qv6r/gczvN
j4Q2bYNB8Xg5TO0M8nQt3wejYrbm+F39R/iU7ypwpQ8XDwIDAQABo4G9MIG6MAkG
A1UdEwQCMAAwHQYDVR0OBBYEFDoiKQ3482GApH9kVNug74tReFSPMFEGA1UdIwRK
MEiAFBSDhMzRcvYfxMSymHAEHfLXtJqSoRqkGDAWMRQwEgYDVQQDDAt0ZWFtNjMw
LW5ldIIUVCGyA5qYE7mKH96xNsXFTQvlbDcwEwYDVR0lBAwwCgYIKwYBBQUHAwEw
CwYDVR0PBAQDAgWgMBkGA1UdEQQSMBCCDnRlYW02MzAtc2VydmVyMA0GCSqGSIb3
DQEBCwUAA4IBAQBTJw75aM2QfnposWk3PYAuYEij74cY1PQPJQoJ9obf6VO33UFs
lgEAQ6bYm6K7NuSdZ01TqmtpB/pLZyyuityvLGTx4xhMcRZqUzwbenRLJ6WwWtuJ
tDVtM8YQ0LtHP0OEf0zqoWsDgmAm7n39iD2Z5aLK2yKdmx0tRn4dcTs7JK4NU16U
nxBDrvHu+DeO81hJcu4/soELIBEcyS72mg8wLQ6p4CEmoiStqfTctZghCAX/9+3p
IG9JBTFrXmOAUpXXgqQ/69HX4cCGDH7h0MA7LCGxBEjigJFLNlvomMnMUwTB/Vuu
JGWFy1MWH9zYKrVaO641dvc+uSmMasA9ukPV
-----END CERTIFICATE-----
