Certificate:
    Data:
        Version: 3 (0x2)
        Serial Number:
            0e:83:e7:5d:f0:dd:0b:04:b6:46:92:33:3d:5e:9e:d9
        Signature Algorithm: sha256WithRSAEncryption
        Issuer: CN=team528-net
        Validity
            Not Before: May 18 22:08:03 2022 GMT
            Not After : May  2 22:08:03 2025 GMT
        Subject: CN=team528-client
        Subject Public Key Info:
            Public Key Algorithm: rsaEncryption
                RSA Public-Key: (2048 bit)
                Modulus:
                    00:cd:c0:4b:6d:9d:f2:c1:8c:d4:e1:65:77:cc:20:
                    93:17:25:db:a9:7c:fc:33:fb:03:4a:97:78:76:8c:
                    80:58:c0:c8:f8:6f:e4:12:65:9b:1b:3d:31:9b:1f:
                    82:b0:a8:b8:2f:c5:ac:92:22:65:b0:5f:3b:7c:80:
                    b5:6f:aa:5c:8a:bb:96:e1:c5:a4:b5:c0:b7:aa:31:
                    20:3f:32:8d:28:f6:05:03:22:ed:3d:06:fe:61:a2:
                    35:eb:cd:cd:c1:db:b1:12:71:d7:a3:86:e8:d4:00:
                    eb:ce:45:ce:38:a9:da:ca:2e:09:93:24:95:43:7d:
                    bf:3b:d9:c2:45:58:43:b0:f0:e9:b0:dc:a2:7b:73:
                    b6:b8:07:48:80:46:ed:e7:ce:5d:7c:9c:94:2f:46:
                    a7:1e:ae:06:38:b5:ec:5e:e0:0d:16:48:3e:d2:25:
                    8f:e7:93:03:e7:93:9c:01:86:f2:2c:65:b7:ef:ec:
                    2b:ab:0d:fb:74:65:c1:eb:32:75:9b:55:68:fd:9e:
                    3e:c3:f5:b8:94:0a:fc:14:e1:2f:51:d8:7e:ff:97:
                    60:8e:ce:9f:a7:cb:73:04:74:ca:56:7b:58:07:70:
                    76:24:9f:77:21:82:d4:8c:36:f8:5d:40:7d:02:db:
                    53:b8:c4:de:f1:f7:d3:e5:33:5b:49:5e:34:9b:0d:
                    c8:03
                Exponent: 65537 (0x10001)
        X509v3 extensions:
            X509v3 Basic Constraints: 
                CA:FALSE
            X509v3 Subject Key Identifier: 
                6A:B2:EB:2A:1F:1E:3E:C5:ED:50:6D:F1:01:E8:0C:92:23:E7:B1:C8
            X509v3 Authority Key Identifier: 
                keyid:E8:6C:89:1A:75:F4:06:12:E9:D1:67:13:D1:1E:1E:A2:C3:8C:CC:1F
                DirName:/CN=team528-net
                serial:21:86:B3:41:4D:DB:E3:68:D8:53:E3:70:D2:C8:6A:4C:42:E5:18:C7

            X509v3 Extended Key Usage: 
                TLS Web Client Authentication
            X509v3 Key Usage: 
                Digital Signature
    Signature Algorithm: sha256WithRSAEncryption
         3e:eb:9a:f7:73:5f:18:9d:1d:ff:1c:21:46:0c:7d:4e:66:63:
         de:1e:3e:7f:46:75:08:93:90:f7:68:c4:e5:24:20:7b:c2:e6:
         c2:fc:7e:e9:94:eb:41:cf:21:97:d8:78:f2:75:c0:3a:98:7c:
         78:05:5b:3f:f3:fa:ad:7a:d6:b7:1e:64:a8:c1:60:a0:1e:02:
         c7:92:e6:df:ac:2c:81:9a:dc:ce:4b:0f:cb:aa:42:dd:ab:95:
         9b:53:71:c1:91:21:a9:ff:a4:aa:6b:55:98:df:f1:9f:fe:90:
         ec:69:0d:2a:15:0c:d1:4b:87:e9:5b:f9:f4:da:b3:b3:fa:50:
         0c:5d:1b:2e:2e:20:c5:40:74:02:e8:75:1b:d2:8d:80:72:e1:
         81:8a:b2:23:d1:d6:41:ae:71:34:d6:86:68:58:66:69:64:33:
         d0:5d:94:0e:7f:6b:ac:26:d3:6c:ae:c6:7a:87:ee:1c:dd:5d:
         2c:f5:93:48:c3:95:97:45:b1:fc:79:7c:ff:0c:77:30:ed:9e:
         17:f5:3b:16:fa:9e:ac:b1:e5:bf:38:b7:b9:72:e5:12:86:7a:
         18:4f:a3:fa:35:03:c1:7e:70:28:c3:bc:82:53:15:d4:bc:ca:
         b7:97:26:0d:c7:83:e1:64:34:bf:f1:ba:18:83:79:4c:20:69:
         5f:bd:e8:56
-----BEGIN CERTIFICATE-----
MIIDXDCCAkSgAwIBAgIQDoPnXfDdCwS2RpIzPV6e2TANBgkqhkiG9w0BAQsFADAW
MRQwEgYDVQQDDAt0ZWFtNTI4LW5ldDAeFw0yMjA1MTgyMjA4MDNaFw0yNTA1MDIy
MjA4MDNaMBkxFzAVBgNVBAMMDnRlYW01MjgtY2xpZW50MIIBIjANBgkqhkiG9w0B
AQEFAAOCAQ8AMIIBCgKCAQEAzcBLbZ3ywYzU4WV3zCCTFyXbqXz8M/sDSpd4doyA
WMDI+G/kEmWbGz0xmx+CsKi4L8WskiJlsF87fIC1b6pciruW4cWktcC3qjEgPzKN
KPYFAyLtPQb+YaI1683NwduxEnHXo4bo1ADrzkXOOKnayi4JkySVQ32/O9nCRVhD
sPDpsNyie3O2uAdIgEbt585dfJyUL0anHq4GOLXsXuANFkg+0iWP55MD55OcAYby
LGW37+wrqw37dGXB6zJ1m1Vo/Z4+w/W4lAr8FOEvUdh+/5dgjs6fp8tzBHTKVntY
B3B2JJ93IYLUjDb4XUB9AttTuMTe8ffT5TNbSV40mw3IAwIDAQABo4GiMIGfMAkG
A1UdEwQCMAAwHQYDVR0OBBYEFGqy6yofHj7F7VBt8QHoDJIj57HIMFEGA1UdIwRK
MEiAFOhsiRp19AYS6dFnE9EeHqLDjMwfoRqkGDAWMRQwEgYDVQQDDAt0ZWFtNTI4
LW5ldIIUIYazQU3b42jYU+Nw0shqTELlGMcwEwYDVR0lBAwwCgYIKwYBBQUHAwIw
CwYDVR0PBAQDAgeAMA0GCSqGSIb3DQEBCwUAA4IBAQA+65r3c18YnR3/HCFGDH1O
ZmPeHj5/RnUIk5D3aMTlJCB7wubC/H7plOtBzyGX2HjydcA6mHx4BVs/8/qteta3
HmSowWCgHgLHkubfrCyBmtzOSw/LqkLdq5WbU3HBkSGp/6Sqa1WY3/Gf/pDsaQ0q
FQzRS4fpW/n02rOz+lAMXRsuLiDFQHQC6HUb0o2AcuGBirIj0dZBrnE01oZoWGZp
ZDPQXZQOf2usJtNsrsZ6h+4c3V0s9ZNIw5WXRbH8eXz/DHcw7Z4X9TsW+p6sseW/
OLe5cuUShnoYT6P6NQPBfnAow7yCUxXUvMq3lyYNx4PhZDS/8boYg3lMIGlfvehW
-----END CERTIFICATE-----
