Certificate:
    Data:
        Version: 3 (0x2)
        Serial Number:
            88:df:f2:62:65:14:14:9a:c5:a5:16:e5:45:72:08:a7
        Signature Algorithm: sha256WithRSAEncryption
        Issuer: CN=team528-net
        Validity
            Not Before: May 18 22:08:03 2022 GMT
            Not After : May  2 22:08:03 2025 GMT
        Subject: CN=team528-server
        Subject Public Key Info:
            Public Key Algorithm: rsaEncryption
                RSA Public-Key: (2048 bit)
                Modulus:
                    00:ae:76:a5:97:9d:07:7b:d9:30:e8:97:5b:78:d8:
                    4a:bc:b9:f3:75:ad:f4:c3:0e:33:56:e0:e0:fb:52:
                    c8:aa:ec:73:3a:1f:b1:be:a4:7e:68:08:c1:60:04:
                    d2:d8:9e:48:b6:7c:2b:e5:56:be:d1:e0:e1:e9:67:
                    8d:e3:a2:ab:23:25:93:b3:af:ae:fe:ed:04:db:5f:
                    df:fc:f4:f6:ea:dd:f8:88:d5:08:61:82:21:ec:0e:
                    94:d9:dc:3b:19:90:52:79:83:69:c8:67:ed:5b:a4:
                    25:1f:d6:a8:b4:b9:47:02:90:0c:34:12:a6:2c:2e:
                    46:64:0c:2c:06:6b:38:11:47:0e:db:61:3e:c0:e5:
                    b3:45:0e:1d:04:a6:42:2d:06:ef:5b:0b:8b:ce:70:
                    95:80:06:36:68:c7:f3:9f:a6:7c:04:ef:06:98:5b:
                    98:b4:0d:8f:6e:df:eb:df:91:e9:31:2b:ab:74:66:
                    8b:c6:eb:57:c3:98:26:8d:29:58:47:d5:ec:68:ef:
                    d1:14:e8:b1:ad:ff:9b:31:1a:df:b8:d0:90:5d:b9:
                    19:59:c8:b8:9a:b1:5f:00:90:a8:1a:bb:5d:f7:b7:
                    95:fe:61:97:25:18:1d:9f:bb:c4:85:0f:be:90:53:
                    e2:89:0d:4d:b8:ee:07:a1:1f:aa:d8:62:25:c6:3e:
                    a9:95
                Exponent: 65537 (0x10001)
        X509v3 extensions:
            X509v3 Basic Constraints: 
                CA:FALSE
            X509v3 Subject Key Identifier: 
                DD:38:D8:55:11:33:A2:84:70:84:4A:B8:24:78:4B:C0:5E:04:1C:3B
            X509v3 Authority Key Identifier: 
                keyid:E8:6C:89:1A:75:F4:06:12:E9:D1:67:13:D1:1E:1E:A2:C3:8C:CC:1F
                DirName:/CN=team528-net
                serial:21:86:B3:41:4D:DB:E3:68:D8:53:E3:70:D2:C8:6A:4C:42:E5:18:C7

            X509v3 Extended Key Usage: 
                TLS Web Server Authentication
            X509v3 Key Usage: 
                Digital Signature, Key Encipherment
            X509v3 Subject Alternative Name: 
                DNS:team528-server
    Signature Algorithm: sha256WithRSAEncryption
         9a:2a:2a:24:fb:ea:11:76:bb:0c:73:c4:28:f0:63:3c:c1:43:
         b8:8c:2c:b1:f5:23:80:d1:63:fc:f2:b2:0b:bd:30:1e:87:7f:
         a1:c4:65:cc:f4:15:18:ba:2a:71:52:d3:b6:76:e9:b5:2b:04:
         30:8d:2f:a1:b0:0d:28:8b:61:2a:2d:8b:14:5a:2a:9b:95:67:
         65:49:c3:e2:b4:c3:6e:93:66:d5:24:0c:6c:4f:07:5f:42:9f:
         9e:47:fe:b3:b5:e6:cb:77:5b:37:90:08:22:fb:f9:1d:aa:a0:
         9a:8d:ee:34:c5:00:e4:cd:29:2f:18:b2:d6:7a:41:21:dc:6d:
         1d:d3:a4:c0:d7:81:07:26:2a:52:b4:ad:15:81:b1:6a:08:d4:
         14:3a:e4:d4:27:8f:2d:a9:6a:09:26:5d:75:04:18:33:80:04:
         6b:8a:2c:2e:cb:8a:82:bc:a6:35:77:32:f8:39:f2:50:3c:6a:
         94:54:70:f3:56:e3:3d:73:c3:08:c9:5d:46:cf:c8:30:a6:43:
         0b:c7:d6:a7:87:c4:b2:2e:6b:fa:c5:26:db:d3:cd:99:45:6e:
         ae:1d:d0:27:fa:af:50:16:41:64:43:b6:41:30:38:7e:7c:9b:
         87:e5:d3:e7:fe:ff:f8:ac:f1:91:9c:ef:e1:2a:d7:ff:13:cd:
         03:00:ba:a4
-----BEGIN CERTIFICATE-----
MIIDeDCCAmCgAwIBAgIRAIjf8mJlFBSaxaUW5UVyCKcwDQYJKoZIhvcNAQELBQAw
FjEUMBIGA1UEAwwLdGVhbTUyOC1uZXQwHhcNMjIwNTE4MjIwODAzWhcNMjUwNTAy
MjIwODAzWjAZMRcwFQYDVQQDDA50ZWFtNTI4LXNlcnZlcjCCASIwDQYJKoZIhvcN
AQEBBQADggEPADCCAQoCggEBAK52pZedB3vZMOiXW3jYSry583Wt9MMOM1bg4PtS
yKrsczofsb6kfmgIwWAE0tieSLZ8K+VWvtHg4elnjeOiqyMlk7Ovrv7tBNtf3/z0
9urd+IjVCGGCIewOlNncOxmQUnmDachn7VukJR/WqLS5RwKQDDQSpiwuRmQMLAZr
OBFHDtthPsDls0UOHQSmQi0G71sLi85wlYAGNmjH85+mfATvBphbmLQNj27f69+R
6TErq3Rmi8brV8OYJo0pWEfV7Gjv0RTosa3/mzEa37jQkF25GVnIuJqxXwCQqBq7
Xfe3lf5hlyUYHZ+7xIUPvpBT4okNTbjuB6EfqthiJcY+qZUCAwEAAaOBvTCBujAJ
BgNVHRMEAjAAMB0GA1UdDgQWBBTdONhVETOihHCESrgkeEvAXgQcOzBRBgNVHSME
SjBIgBTobIkadfQGEunRZxPRHh6iw4zMH6EapBgwFjEUMBIGA1UEAwwLdGVhbTUy
OC1uZXSCFCGGs0FN2+No2FPjcNLIakxC5RjHMBMGA1UdJQQMMAoGCCsGAQUFBwMB
MAsGA1UdDwQEAwIFoDAZBgNVHREEEjAQgg50ZWFtNTI4LXNlcnZlcjANBgkqhkiG
9w0BAQsFAAOCAQEAmioqJPvqEXa7DHPEKPBjPMFDuIwssfUjgNFj/PKyC70wHod/
ocRlzPQVGLoqcVLTtnbptSsEMI0vobANKIthKi2LFFoqm5VnZUnD4rTDbpNm1SQM
bE8HX0Kfnkf+s7Xmy3dbN5AIIvv5Haqgmo3uNMUA5M0pLxiy1npBIdxtHdOkwNeB
ByYqUrStFYGxagjUFDrk1CePLalqCSZddQQYM4AEa4osLsuKgrymNXcy+DnyUDxq
lFRw81bjPXPDCMldRs/IMKZDC8fWp4fEsi5r+sUm29PNmUVurh3QJ/qvUBZBZEO2
QTA4fnybh+XT5/7/+KzxkZzv4SrX/xPNAwC6pA==
-----END CERTIFICATE-----
