Certificate:
    Data:
        Version: 3 (0x2)
        Serial Number:
            9a:72:0a:2f:97:c1:e0:e9:43:98:db:4f:04:9e:0d:55
        Signature Algorithm: sha256WithRSAEncryption
        Issuer: CN=team179-net
        Validity
            Not Before: May 18 18:51:29 2022 GMT
            Not After : May  2 18:51:29 2025 GMT
        Subject: CN=team179-client
        Subject Public Key Info:
            Public Key Algorithm: rsaEncryption
                RSA Public-Key: (2048 bit)
                Modulus:
                    00:e0:ba:27:fd:c0:bd:33:3b:7c:ad:02:42:6a:c6:
                    fe:b6:ab:f8:9d:92:1f:a6:a1:25:4d:47:24:c7:13:
                    26:07:4b:9d:26:65:09:08:3b:99:5c:7f:db:66:82:
                    a6:95:98:c3:22:f5:c4:87:cc:4d:b0:02:b2:f4:c9:
                    5a:e4:8c:80:6f:a7:18:83:e5:4c:fe:d2:2d:50:9b:
                    08:bf:ed:51:09:a9:3c:4b:7e:bb:65:f8:99:e6:23:
                    f3:0a:03:bf:b3:9f:03:d7:eb:67:50:b4:f0:2c:d6:
                    fa:c3:1c:43:cc:78:0e:4a:64:bc:1c:0a:d5:ba:2b:
                    01:a5:ae:ac:d7:9d:97:8d:dd:80:6d:37:82:9f:cb:
                    dc:74:3e:27:d4:61:75:32:f5:7e:b8:1d:83:39:dd:
                    e1:ac:fa:f5:30:4b:25:27:a4:19:7c:e5:85:db:ae:
                    a9:99:00:b0:33:ba:53:4f:17:9b:cc:a3:d7:6f:d6:
                    56:de:d5:01:56:33:e5:17:59:cc:10:f5:15:0e:fc:
                    bd:52:41:58:8e:94:88:9c:55:53:78:c2:50:03:5b:
                    c8:83:0f:9c:1f:03:3e:2f:10:b9:80:49:3a:57:77:
                    6f:a9:02:78:9e:73:98:f4:7e:8b:c4:d5:3a:2d:28:
                    2d:01:f9:a7:86:e5:86:ca:e4:4a:de:7a:3c:2a:e4:
                    d5:f9
                Exponent: 65537 (0x10001)
        X509v3 extensions:
            X509v3 Basic Constraints: 
                CA:FALSE
            X509v3 Subject Key Identifier: 
                4B:1D:84:AA:F1:DD:E7:4C:56:28:22:7E:57:39:51:91:43:4A:F2:31
            X509v3 Authority Key Identifier: 
                keyid:C1:65:04:DC:D1:5A:B7:DB:F2:3B:59:AE:77:2B:50:68:C3:61:47:15
                DirName:/CN=team179-net
                serial:40:CA:BA:7F:BD:4F:48:34:55:9F:F4:8C:2C:28:A4:56:FC:01:F2:D5

            X509v3 Extended Key Usage: 
                TLS Web Client Authentication
            X509v3 Key Usage: 
                Digital Signature
    Signature Algorithm: sha256WithRSAEncryption
         5d:9b:f9:e5:9e:86:0e:6c:d8:9d:17:2a:3c:cf:18:a6:3c:c0:
         1c:3d:07:20:e5:7b:98:00:21:f5:dd:10:bd:bb:20:05:ea:e9:
         79:c5:96:8d:c1:28:5d:27:8b:69:df:4e:7e:9b:59:d5:6b:6f:
         30:f1:78:5a:7a:8c:8d:ae:08:63:b8:7c:a4:f8:a9:62:54:53:
         f0:68:bf:aa:11:79:5f:ba:86:4d:37:c0:42:7b:b1:0c:77:55:
         80:9a:e8:4c:f4:60:94:5a:50:8a:23:11:8c:7b:a9:ea:0b:68:
         8b:4b:86:b1:09:0c:70:85:7c:7f:63:c2:26:e4:99:b5:d7:b3:
         cc:49:71:86:3b:32:c6:e3:b2:65:e7:5f:59:7f:c1:cd:78:62:
         7b:26:6a:ec:fd:e2:f2:ed:0b:0e:79:60:42:05:6f:2d:51:28:
         7a:22:2a:af:18:03:f9:d4:8d:73:12:b3:fb:1f:80:e3:ab:89:
         d7:6c:1b:43:43:99:48:68:27:2f:30:89:23:6b:8a:8b:e2:51:
         78:f3:e1:18:26:74:04:91:b3:67:0a:50:e9:fa:63:09:3f:96:
         39:27:40:fd:12:83:93:5e:8c:76:0f:3c:bb:c3:2c:0c:91:c1:
         85:b6:96:4d:f8:b1:77:bc:b0:20:a8:de:b5:dd:b4:60:a4:e8:
         28:5a:ae:13
-----BEGIN CERTIFICATE-----
MIIDXTCCAkWgAwIBAgIRAJpyCi+XweDpQ5jbTwSeDVUwDQYJKoZIhvcNAQELBQAw
FjEUMBIGA1UEAwwLdGVhbTE3OS1uZXQwHhcNMjIwNTE4MTg1MTI5WhcNMjUwNTAy
MTg1MTI5WjAZMRcwFQYDVQQDDA50ZWFtMTc5LWNsaWVudDCCASIwDQYJKoZIhvcN
AQEBBQADggEPADCCAQoCggEBAOC6J/3AvTM7fK0CQmrG/rar+J2SH6ahJU1HJMcT
JgdLnSZlCQg7mVx/22aCppWYwyL1xIfMTbACsvTJWuSMgG+nGIPlTP7SLVCbCL/t
UQmpPEt+u2X4meYj8woDv7OfA9frZ1C08CzW+sMcQ8x4DkpkvBwK1borAaWurNed
l43dgG03gp/L3HQ+J9RhdTL1frgdgznd4az69TBLJSekGXzlhduuqZkAsDO6U08X
m8yj12/WVt7VAVYz5RdZzBD1FQ78vVJBWI6UiJxVU3jCUANbyIMPnB8DPi8QuYBJ
Old3b6kCeJ5zmPR+i8TVOi0oLQH5p4blhsrkSt56PCrk1fkCAwEAAaOBojCBnzAJ
BgNVHRMEAjAAMB0GA1UdDgQWBBRLHYSq8d3nTFYoIn5XOVGRQ0ryMTBRBgNVHSME
SjBIgBTBZQTc0Vq32/I7Wa53K1Bow2FHFaEapBgwFjEUMBIGA1UEAwwLdGVhbTE3
OS1uZXSCFEDKun+9T0g0VZ/0jCwopFb8AfLVMBMGA1UdJQQMMAoGCCsGAQUFBwMC
MAsGA1UdDwQEAwIHgDANBgkqhkiG9w0BAQsFAAOCAQEAXZv55Z6GDmzYnRcqPM8Y
pjzAHD0HIOV7mAAh9d0QvbsgBerpecWWjcEoXSeLad9OfptZ1WtvMPF4WnqMja4I
Y7h8pPipYlRT8Gi/qhF5X7qGTTfAQnuxDHdVgJroTPRglFpQiiMRjHup6gtoi0uG
sQkMcIV8f2PCJuSZtdezzElxhjsyxuOyZedfWX/BzXhieyZq7P3i8u0LDnlgQgVv
LVEoeiIqrxgD+dSNcxKz+x+A46uJ12wbQ0OZSGgnLzCJI2uKi+JRePPhGCZ0BJGz
ZwpQ6fpjCT+WOSdA/RKDk16Mdg88u8MsDJHBhbaWTfixd7ywIKjetd20YKToKFqu
Ew==
-----END CERTIFICATE-----
