Certificate:
    Data:
        Version: 3 (0x2)
        Serial Number:
            88:95:9f:7b:72:62:e4:5b:7b:81:ec:84:5e:57:fd:9a
        Signature Algorithm: sha256WithRSAEncryption
        Issuer: CN=team699-net
        Validity
            Not Before: May 18 23:45:34 2022 GMT
            Not After : May  2 23:45:34 2025 GMT
        Subject: CN=team699-client
        Subject Public Key Info:
            Public Key Algorithm: rsaEncryption
                RSA Public-Key: (2048 bit)
                Modulus:
                    00:df:96:b3:7c:1f:a3:2f:f0:b1:70:f2:9e:fb:c9:
                    3e:d3:6d:9c:94:6f:73:ca:8c:60:bf:bb:8b:d3:d3:
                    09:28:77:ed:97:70:b9:1a:ef:cf:53:dd:04:d6:a4:
                    44:ed:63:63:b0:7e:e9:aa:a1:ff:1f:70:8e:e3:58:
                    54:31:6b:2b:38:27:2d:4b:66:cd:a0:72:21:13:24:
                    93:c6:50:88:2b:d8:20:37:66:95:ed:a0:62:41:61:
                    99:c5:15:a8:92:97:34:b9:19:33:de:6d:21:f5:89:
                    e4:2f:f2:cc:37:3b:e8:57:54:fc:04:7d:ac:02:0c:
                    ea:3c:d7:16:32:fb:bc:be:e5:35:d1:40:44:8d:b3:
                    4d:05:a9:d2:88:ad:ff:c8:d3:c1:45:ac:4a:c7:48:
                    fb:98:f5:5e:ef:30:9a:fd:da:3e:c5:d7:bb:e7:a4:
                    19:23:14:2c:df:ce:51:f6:90:25:8e:3f:d5:da:4b:
                    28:b0:f3:f7:0f:79:56:ab:12:01:6e:7c:c3:fa:30:
                    71:09:84:fd:a2:da:59:de:18:35:cc:b6:ba:74:a1:
                    69:50:ef:bb:6b:bb:25:4c:5d:54:85:cb:22:e5:3e:
                    23:b2:ed:c2:f0:9b:8b:12:94:7d:79:b3:a2:f5:36:
                    c5:d8:ee:59:5e:44:ee:e0:f5:9f:7f:68:34:c2:ee:
                    8e:95
                Exponent: 65537 (0x10001)
        X509v3 extensions:
            X509v3 Basic Constraints: 
                CA:FALSE
            X509v3 Subject Key Identifier: 
                43:00:53:CA:44:EE:4A:AC:58:FB:A4:00:52:27:D8:3C:99:CF:D2:BA
            X509v3 Authority Key Identifier: 
                keyid:CA:AA:FA:EC:E8:9C:C5:EC:A6:CD:A4:BD:0F:DC:4C:A7:31:31:79:C0
                DirName:/CN=team699-net
                serial:72:87:1D:A6:FD:97:DC:8D:36:0C:3D:78:36:29:8D:2F:EF:2E:97:BD

            X509v3 Extended Key Usage: 
                TLS Web Client Authentication
            X509v3 Key Usage: 
                Digital Signature
    Signature Algorithm: sha256WithRSAEncryption
         24:4a:3c:8a:ff:4d:dd:f2:aa:30:ba:62:66:db:4a:ab:2e:1f:
         49:33:c0:d5:6d:87:e2:2a:81:54:f3:e7:36:46:37:95:a3:60:
         14:70:fd:fc:58:e9:80:53:ab:6e:71:56:9f:92:ec:43:6a:ea:
         6b:a5:eb:05:d1:e0:cd:a0:9f:5d:a1:71:e5:ac:e4:79:4f:2f:
         9b:6d:a6:05:2c:3d:45:0a:7a:35:4f:bc:26:f0:25:66:1d:c8:
         83:86:4a:bd:9f:b2:74:bd:a1:bd:2a:d7:42:9a:b6:81:b9:82:
         60:0c:5c:b4:76:34:59:44:f8:ad:a3:be:76:82:e9:b2:2f:59:
         06:40:37:3a:38:24:7f:5a:6c:86:3a:31:89:6c:ac:13:26:65:
         4d:61:ad:03:9e:66:f1:03:5f:1b:7e:18:83:e4:35:88:77:e6:
         e9:fa:12:a1:12:4f:2d:47:13:a6:40:3c:e6:18:f8:91:92:85:
         2c:0e:ee:33:2f:d2:c8:f0:ac:e8:9e:cf:e7:3e:68:5c:d8:27:
         3e:8b:98:83:67:d0:2a:96:d7:a1:f5:a9:98:8d:8e:a1:fc:f9:
         c3:18:8f:1e:d4:9b:08:09:6e:84:ac:ef:a2:9f:60:d8:92:c2:
         10:7b:e8:7d:33:0f:03:d1:bd:47:60:95:6e:9e:f1:e2:a9:25:
         3c:3e:a2:35
-----BEGIN CERTIFICATE-----
MIIDXTCCAkWgAwIBAgIRAIiVn3tyYuRbe4HshF5X/ZowDQYJKoZIhvcNAQELBQAw
FjEUMBIGA1UEAwwLdGVhbTY5OS1uZXQwHhcNMjIwNTE4MjM0NTM0WhcNMjUwNTAy
MjM0NTM0WjAZMRcwFQYDVQQDDA50ZWFtNjk5LWNsaWVudDCCASIwDQYJKoZIhvcN
AQEBBQADggEPADCCAQoCggEBAN+Ws3wfoy/wsXDynvvJPtNtnJRvc8qMYL+7i9PT
CSh37ZdwuRrvz1PdBNakRO1jY7B+6aqh/x9wjuNYVDFrKzgnLUtmzaByIRMkk8ZQ
iCvYIDdmle2gYkFhmcUVqJKXNLkZM95tIfWJ5C/yzDc76FdU/AR9rAIM6jzXFjL7
vL7lNdFARI2zTQWp0oit/8jTwUWsSsdI+5j1Xu8wmv3aPsXXu+ekGSMULN/OUfaQ
JY4/1dpLKLDz9w95VqsSAW58w/owcQmE/aLaWd4YNcy2unShaVDvu2u7JUxdVIXL
IuU+I7LtwvCbixKUfXmzovU2xdjuWV5E7uD1n39oNMLujpUCAwEAAaOBojCBnzAJ
BgNVHRMEAjAAMB0GA1UdDgQWBBRDAFPKRO5KrFj7pABSJ9g8mc/SujBRBgNVHSME
SjBIgBTKqvrs6JzF7KbNpL0P3EynMTF5wKEapBgwFjEUMBIGA1UEAwwLdGVhbTY5
OS1uZXSCFHKHHab9l9yNNgw9eDYpjS/vLpe9MBMGA1UdJQQMMAoGCCsGAQUFBwMC
MAsGA1UdDwQEAwIHgDANBgkqhkiG9w0BAQsFAAOCAQEAJEo8iv9N3fKqMLpiZttK
qy4fSTPA1W2H4iqBVPPnNkY3laNgFHD9/FjpgFOrbnFWn5LsQ2rqa6XrBdHgzaCf
XaFx5azkeU8vm22mBSw9RQp6NU+8JvAlZh3Ig4ZKvZ+ydL2hvSrXQpq2gbmCYAxc
tHY0WUT4raO+doLpsi9ZBkA3Ojgkf1pshjoxiWysEyZlTWGtA55m8QNfG34Yg+Q1
iHfm6foSoRJPLUcTpkA85hj4kZKFLA7uMy/SyPCs6J7P5z5oXNgnPouYg2fQKpbX
ofWpmI2Oofz5wxiPHtSbCAluhKzvop9g2JLCEHvofTMPA9G9R2CVbp7x4qklPD6i
NQ==
-----END CERTIFICATE-----
