Certificate:
    Data:
        Version: 3 (0x2)
        Serial Number:
            74:56:cc:8c:67:d6:f0:5a:8a:11:e2:7e:dd:ff:07:50
        Signature Algorithm: sha256WithRSAEncryption
        Issuer: CN=team387-net
        Validity
            Not Before: May 18 20:54:58 2022 GMT
            Not After : May  2 20:54:58 2025 GMT
        Subject: CN=team387-server
        Subject Public Key Info:
            Public Key Algorithm: rsaEncryption
                RSA Public-Key: (2048 bit)
                Modulus:
                    00:c3:56:b4:9d:99:dd:ff:20:27:19:9c:0a:1a:3a:
                    f7:82:86:9c:89:75:9a:96:67:44:d5:16:58:fe:6c:
                    b4:28:bc:2c:6a:07:ad:24:6c:e4:d0:5c:98:34:d9:
                    aa:8b:ac:e0:0f:6b:8d:ea:6a:db:66:94:5b:61:53:
                    8c:4a:7f:ac:c7:b3:65:67:90:4b:a4:96:42:b2:71:
                    77:6b:2a:fa:5f:11:d5:24:16:d6:36:b2:88:8b:c8:
                    79:1a:4b:51:15:8b:41:32:20:2d:34:ce:a8:28:6f:
                    5c:b6:7e:af:12:40:91:c3:ca:21:06:df:62:fc:c1:
                    9b:ab:96:66:39:58:4f:cd:8e:d5:ad:67:64:e3:99:
                    95:cf:c6:7d:2e:21:8f:bb:1f:49:16:59:66:71:48:
                    eb:1a:6e:58:cc:95:32:69:fa:a4:54:66:c1:23:63:
                    75:f5:f6:44:7e:dc:60:f3:b6:17:89:70:06:7d:90:
                    2a:f6:4f:91:cf:dd:7c:44:b1:b8:7b:5d:a1:74:b7:
                    43:0b:38:3d:73:6d:25:48:11:bf:d6:80:d0:13:07:
                    51:53:92:71:ee:0e:e3:86:61:16:ca:50:b0:cb:56:
                    0e:b9:05:ca:2e:07:d4:0f:1a:2b:1a:f3:14:b9:dd:
                    cf:32:e5:a5:29:de:07:aa:9d:ea:e6:14:3c:82:09:
                    76:ad
                Exponent: 65537 (0x10001)
        X509v3 extensions:
            X509v3 Basic Constraints: 
                CA:FALSE
            X509v3 Subject Key Identifier: 
                27:70:E9:57:DB:1F:AE:7D:9E:FD:1B:B4:C1:0B:D7:0C:F2:B5:FD:16
            X509v3 Authority Key Identifier: 
                keyid:7F:FC:32:49:0F:85:CA:50:E2:BF:7E:C2:76:98:4F:C8:EF:AA:28:9B
                DirName:/CN=team387-net
                serial:4A:8E:93:A2:9E:EA:ED:09:06:51:1D:20:E8:C1:9D:79:74:81:61:89

            X509v3 Extended Key Usage: 
                TLS Web Server Authentication
            X509v3 Key Usage: 
                Digital Signature, Key Encipherment
            X509v3 Subject Alternative Name: 
                DNS:team387-server
    Signature Algorithm: sha256WithRSAEncryption
         67:b3:d5:fc:f1:5e:98:f2:cc:d0:f0:28:73:b5:30:48:8b:e9:
         61:0d:6d:7d:27:a1:97:fb:84:29:ea:09:cf:be:79:79:98:2c:
         f3:ce:8f:8f:05:03:fe:30:e0:b2:85:9e:6b:93:4b:f2:f9:a2:
         90:87:1b:6d:de:3a:96:93:56:89:64:07:94:41:db:89:96:18:
         ef:f2:d7:68:f9:d5:e1:5e:cf:c1:84:46:d6:89:e7:f0:03:a1:
         b8:55:b2:d4:11:b8:9a:e7:b4:4f:b8:4c:e9:ac:3d:db:e9:ed:
         c2:2a:60:60:68:37:e2:0c:fc:dd:f8:94:1b:a3:13:ed:bd:4d:
         7e:ae:09:fa:ac:a5:14:18:58:f3:a2:82:72:f8:f3:ac:be:f8:
         3e:9e:9a:50:75:1e:c0:11:4f:f4:5d:97:cb:d5:04:0e:17:c5:
         ea:f7:ce:33:7d:f9:2a:34:1e:6b:48:3c:dc:5b:de:22:2b:9c:
         ef:f8:49:a6:dc:74:4a:9b:38:58:e1:ce:3e:9b:79:04:55:ce:
         05:a2:44:02:ca:b7:06:26:7a:01:54:de:d4:ca:77:b6:f6:8d:
         99:2f:65:99:ea:b3:f2:93:d8:ca:27:fa:04:dd:a9:e8:c4:03:
         29:60:a0:2f:2c:6f:94:aa:b7:b1:57:e0:9c:cb:03:b9:d5:3f:
         e5:91:30:b8
-----BEGIN CERTIFICATE-----
MIIDdzCCAl+gAwIBAgIQdFbMjGfW8FqKEeJ+3f8HUDANBgkqhkiG9w0BAQsFADAW
MRQwEgYDVQQDDAt0ZWFtMzg3LW5ldDAeFw0yMjA1MTgyMDU0NThaFw0yNTA1MDIy
MDU0NThaMBkxFzAVBgNVBAMMDnRlYW0zODctc2VydmVyMIIBIjANBgkqhkiG9w0B
AQEFAAOCAQ8AMIIBCgKCAQEAw1a0nZnd/yAnGZwKGjr3goaciXWalmdE1RZY/my0
KLwsagetJGzk0FyYNNmqi6zgD2uN6mrbZpRbYVOMSn+sx7NlZ5BLpJZCsnF3ayr6
XxHVJBbWNrKIi8h5GktRFYtBMiAtNM6oKG9ctn6vEkCRw8ohBt9i/MGbq5ZmOVhP
zY7VrWdk45mVz8Z9LiGPux9JFllmcUjrGm5YzJUyafqkVGbBI2N19fZEftxg87YX
iXAGfZAq9k+Rz918RLG4e12hdLdDCzg9c20lSBG/1oDQEwdRU5Jx7g7jhmEWylCw
y1YOuQXKLgfUDxorGvMUud3PMuWlKd4Hqp3q5hQ8ggl2rQIDAQABo4G9MIG6MAkG
A1UdEwQCMAAwHQYDVR0OBBYEFCdw6VfbH659nv0btMEL1wzytf0WMFEGA1UdIwRK
MEiAFH/8MkkPhcpQ4r9+wnaYT8jvqiiboRqkGDAWMRQwEgYDVQQDDAt0ZWFtMzg3
LW5ldIIUSo6Top7q7QkGUR0g6MGdeXSBYYkwEwYDVR0lBAwwCgYIKwYBBQUHAwEw
CwYDVR0PBAQDAgWgMBkGA1UdEQQSMBCCDnRlYW0zODctc2VydmVyMA0GCSqGSIb3
DQEBCwUAA4IBAQBns9X88V6Y8szQ8ChztTBIi+lhDW19J6GX+4Qp6gnPvnl5mCzz
zo+PBQP+MOCyhZ5rk0vy+aKQhxtt3jqWk1aJZAeUQduJlhjv8tdo+dXhXs/BhEbW
iefwA6G4VbLUEbia57RPuEzprD3b6e3CKmBgaDfiDPzd+JQboxPtvU1+rgn6rKUU
GFjzooJy+POsvvg+nppQdR7AEU/0XZfL1QQOF8Xq984zffkqNB5rSDzcW94iK5zv
+Emm3HRKmzhY4c4+m3kEVc4FokQCyrcGJnoBVN7Uyne29o2ZL2WZ6rPyk9jKJ/oE
3anoxAMpYKAvLG+UqrexV+CcywO51T/lkTC4
-----END CERTIFICATE-----
