Certificate:
    Data:
        Version: 3 (0x2)
        Serial Number:
            16:62:e2:89:6f:42:ec:24:22:31:d5:a6:1d:84:39:37
        Signature Algorithm: sha256WithRSAEncryption
        Issuer: CN=team649-net
        Validity
            Not Before: May 18 23:18:18 2022 GMT
            Not After : May  2 23:18:18 2025 GMT
        Subject: CN=team649-client
        Subject Public Key Info:
            Public Key Algorithm: rsaEncryption
                RSA Public-Key: (2048 bit)
                Modulus:
                    00:d5:17:01:32:7f:ac:82:f0:a5:06:c0:9b:da:9d:
                    5e:08:35:62:73:70:46:03:da:3d:96:0a:50:e4:b1:
                    dd:2c:4c:00:2d:d7:7f:71:d2:95:ab:e3:9f:3a:57:
                    5b:8b:3e:b7:f9:23:d3:ec:5a:8b:a6:6b:57:5e:ad:
                    32:3d:e6:57:19:f1:04:14:38:f1:2f:61:87:25:7b:
                    a7:36:29:98:61:0c:55:59:db:cb:b2:8a:46:52:5e:
                    2b:08:15:90:2d:fa:2b:ea:72:5b:7f:12:03:56:be:
                    39:73:0f:b7:c3:fc:5f:ef:1f:2a:29:bb:da:71:bb:
                    ec:26:8a:f8:3a:ba:47:ef:99:b2:10:9e:8d:ae:25:
                    3a:6c:13:2f:af:ae:3b:ac:98:ee:4e:70:0a:11:6f:
                    19:2c:7f:b7:ee:05:64:33:2e:3b:02:94:b9:0a:78:
                    03:ff:39:02:e4:2e:e3:98:3c:3d:73:79:41:a3:00:
                    15:c9:a6:ee:f5:d3:5c:c1:92:4e:2a:e5:4d:b7:0c:
                    d2:93:3f:0f:c2:3f:ac:51:82:5a:c0:83:cf:1a:62:
                    13:03:2b:9e:39:d8:9e:ed:8e:dc:a7:8a:d2:1d:e0:
                    58:9e:57:01:cb:42:93:66:ff:63:44:29:6b:9b:30:
                    d7:9e:2b:4c:6d:8a:06:1a:59:6a:1c:a0:e9:60:3b:
                    d1:dd
                Exponent: 65537 (0x10001)
        X509v3 extensions:
            X509v3 Basic Constraints: 
                CA:FALSE
            X509v3 Subject Key Identifier: 
                DF:83:7B:09:EC:D5:C6:6A:54:4F:53:F1:DD:FF:AC:08:2A:44:7F:AB
            X509v3 Authority Key Identifier: 
                keyid:3A:91:AF:D8:F9:E2:A9:DC:64:28:78:1C:96:88:3D:70:96:81:68:30
                DirName:/CN=team649-net
                serial:7B:AD:94:98:94:35:91:3C:5A:38:03:8B:D5:78:23:0A:03:09:0C:D1

            X509v3 Extended Key Usage: 
                TLS Web Client Authentication
            X509v3 Key Usage: 
                Digital Signature
    Signature Algorithm: sha256WithRSAEncryption
         0d:c6:0e:bb:f7:88:94:cc:70:f4:75:b6:fb:b4:06:43:8b:17:
         80:cb:17:79:d3:18:42:3f:cf:22:ea:fb:03:01:19:af:f7:32:
         2e:37:e8:b5:76:b2:af:9f:79:24:31:84:23:7f:a6:00:a9:d4:
         e6:a5:bc:81:a3:74:78:28:f9:99:8d:52:e4:09:bc:ca:15:fa:
         87:a4:38:a1:21:2f:c3:f9:69:71:4f:74:ba:12:06:eb:3b:a2:
         c2:be:77:96:ec:df:e5:99:57:49:d3:48:81:5f:c9:6b:c8:72:
         8d:b6:cc:88:8f:b2:04:6a:e4:a6:ed:49:51:db:4e:e2:8a:e0:
         37:78:4d:58:93:02:46:de:fb:b0:d0:dd:e2:2a:74:7a:36:92:
         bb:f6:20:a1:9a:bd:b8:82:89:4c:45:e1:da:68:10:b9:e9:83:
         cc:c3:bc:14:2a:fd:99:72:c9:ff:51:c8:45:9b:19:02:85:b1:
         f7:d0:74:d6:b7:76:cf:2b:03:1b:80:3b:e2:52:4a:6c:b6:5e:
         22:90:03:f1:54:eb:b4:d2:4a:bc:43:93:7c:1e:b4:b3:e8:52:
         75:e3:43:42:20:6c:c7:3d:dd:eb:c9:46:65:c3:b2:da:ab:93:
         53:eb:3f:2a:bc:de:6a:1a:ea:49:bd:a4:76:73:da:98:f1:b6:
         d9:d3:45:c3
-----BEGIN CERTIFICATE-----
MIIDXDCCAkSgAwIBAgIQFmLiiW9C7CQiMdWmHYQ5NzANBgkqhkiG9w0BAQsFADAW
MRQwEgYDVQQDDAt0ZWFtNjQ5LW5ldDAeFw0yMjA1MTgyMzE4MThaFw0yNTA1MDIy
MzE4MThaMBkxFzAVBgNVBAMMDnRlYW02NDktY2xpZW50MIIBIjANBgkqhkiG9w0B
AQEFAAOCAQ8AMIIBCgKCAQEA1RcBMn+sgvClBsCb2p1eCDVic3BGA9o9lgpQ5LHd
LEwALdd/cdKVq+OfOldbiz63+SPT7FqLpmtXXq0yPeZXGfEEFDjxL2GHJXunNimY
YQxVWdvLsopGUl4rCBWQLfor6nJbfxIDVr45cw+3w/xf7x8qKbvacbvsJor4OrpH
75myEJ6NriU6bBMvr647rJjuTnAKEW8ZLH+37gVkMy47ApS5CngD/zkC5C7jmDw9
c3lBowAVyabu9dNcwZJOKuVNtwzSkz8Pwj+sUYJawIPPGmITAyueOdie7Y7cp4rS
HeBYnlcBy0KTZv9jRClrmzDXnitMbYoGGllqHKDpYDvR3QIDAQABo4GiMIGfMAkG
A1UdEwQCMAAwHQYDVR0OBBYEFN+Dewns1cZqVE9T8d3/rAgqRH+rMFEGA1UdIwRK
MEiAFDqRr9j54qncZCh4HJaIPXCWgWgwoRqkGDAWMRQwEgYDVQQDDAt0ZWFtNjQ5
LW5ldIIUe62UmJQ1kTxaOAOL1XgjCgMJDNEwEwYDVR0lBAwwCgYIKwYBBQUHAwIw
CwYDVR0PBAQDAgeAMA0GCSqGSIb3DQEBCwUAA4IBAQANxg6794iUzHD0dbb7tAZD
ixeAyxd50xhCP88i6vsDARmv9zIuN+i1drKvn3kkMYQjf6YAqdTmpbyBo3R4KPmZ
jVLkCbzKFfqHpDihIS/D+WlxT3S6EgbrO6LCvneW7N/lmVdJ00iBX8lryHKNtsyI
j7IEauSm7UlR207iiuA3eE1YkwJG3vuw0N3iKnR6NpK79iChmr24golMReHaaBC5
6YPMw7wUKv2Zcsn/UchFmxkChbH30HTWt3bPKwMbgDviUkpstl4ikAPxVOu00kq8
Q5N8HrSz6FJ140NCIGzHPd3ryUZlw7Laq5NT6z8qvN5qGupJvaR2c9qY8bbZ00XD
-----END CERTIFICATE-----
