Certificate:
    Data:
        Version: 3 (0x2)
        Serial Number:
            bd:d5:b1:6e:54:2c:31:70:51:7f:84:7b:94:08:4f:88
        Signature Algorithm: sha256WithRSAEncryption
        Issuer: CN=team204-net
        Validity
            Not Before: May 18 19:03:41 2022 GMT
            Not After : May  2 19:03:41 2025 GMT
        Subject: CN=team204-client
        Subject Public Key Info:
            Public Key Algorithm: rsaEncryption
                RSA Public-Key: (2048 bit)
                Modulus:
                    00:e6:45:ee:10:f0:ec:a4:ce:5e:f3:69:0a:d7:27:
                    a3:b1:69:ae:44:cb:5e:ab:1e:0c:81:03:29:cf:05:
                    be:5d:76:9d:26:c1:99:6e:6d:b6:d9:71:25:1b:0a:
                    89:18:2f:32:c5:89:4e:f0:8f:5d:b3:9c:72:41:98:
                    07:ed:0e:4a:70:e6:54:a0:be:86:f5:14:ba:0e:c4:
                    99:34:38:ff:ee:27:4e:89:bc:7c:7f:cd:a0:ce:12:
                    67:13:0c:bf:9a:6c:4e:9a:49:cf:29:55:f5:2a:06:
                    45:25:3b:dd:3b:cf:55:79:a6:6f:dc:51:f2:ab:5c:
                    82:69:01:5b:3e:75:93:ae:52:f8:e9:56:bc:e5:0e:
                    c9:1c:7a:b9:23:42:8a:60:16:cd:ad:aa:6c:e2:63:
                    c3:ba:16:48:a3:23:02:7c:90:6a:d1:e8:36:bb:77:
                    69:e9:bb:6d:27:96:14:52:b8:70:20:6d:59:e3:56:
                    43:7a:81:10:9a:d4:d3:d5:37:d8:15:02:de:86:e9:
                    32:96:b5:c0:18:cd:8b:a7:c0:83:0d:e5:d6:35:ba:
                    59:18:f6:91:ec:6b:96:ef:1b:45:9a:dd:8e:5f:bf:
                    1d:d1:d7:95:13:31:3b:7a:39:31:27:c2:7d:a3:76:
                    17:fc:11:a3:43:68:54:c0:6d:67:aa:df:ef:6f:a8:
                    da:19
                Exponent: 65537 (0x10001)
        X509v3 extensions:
            X509v3 Basic Constraints: 
                CA:FALSE
            X509v3 Subject Key Identifier: 
                72:1E:78:67:E2:CE:B0:70:89:55:6C:61:E7:B0:55:C2:80:52:58:E6
            X509v3 Authority Key Identifier: 
                keyid:89:54:DA:F4:D6:AC:CF:51:FF:59:EF:8B:CD:FC:B2:83:6F:DC:65:89
                DirName:/CN=team204-net
                serial:37:81:47:BB:0C:A3:9C:54:4D:60:C3:41:05:F6:05:C4:D6:D6:E2:30

            X509v3 Extended Key Usage: 
                TLS Web Client Authentication
            X509v3 Key Usage: 
                Digital Signature
    Signature Algorithm: sha256WithRSAEncryption
         a4:db:3f:cb:44:ba:dc:49:d6:95:5e:29:a5:44:87:44:f6:7a:
         c4:cf:94:ea:7f:1a:10:9e:9e:7d:5d:1b:6c:d7:04:42:63:94:
         2d:58:f2:cd:10:8c:f9:5d:05:43:09:b7:6e:55:2b:96:52:7f:
         f2:8c:8e:93:85:26:69:a8:7f:82:e1:c3:16:41:81:8c:c5:9d:
         c1:de:68:39:64:a6:92:01:bd:26:b3:1e:16:e8:df:a0:3e:9e:
         86:78:43:bf:ab:6d:60:bd:ce:22:84:0f:67:68:36:4c:e1:27:
         b2:0b:79:6a:c2:12:cd:18:2f:09:c5:4d:a8:48:e9:d6:26:57:
         77:3e:fe:90:cc:55:4e:93:3d:f8:8d:0c:02:71:c4:74:d1:bd:
         bb:49:73:8b:54:ef:8f:0d:7a:a7:8a:68:07:5d:55:d2:29:d5:
         6c:a7:da:21:64:5f:94:6b:87:12:7e:7a:24:d6:6f:ef:7a:6a:
         68:1d:fd:ff:65:d5:04:89:cb:09:51:34:44:16:67:8f:7c:13:
         a2:ea:91:05:e1:0f:90:d0:6a:0d:9b:6d:a6:69:48:c6:76:18:
         eb:de:4b:01:ec:6f:6d:7e:0d:49:02:e1:98:05:d0:6f:0f:40:
         e8:a6:0d:41:19:fe:18:4c:2c:69:ca:ee:9b:6b:4a:bf:43:ac:
         ee:c7:2e:f1
-----BEGIN CERTIFICATE-----
MIIDXTCCAkWgAwIBAgIRAL3VsW5ULDFwUX+Ee5QIT4gwDQYJKoZIhvcNAQELBQAw
FjEUMBIGA1UEAwwLdGVhbTIwNC1uZXQwHhcNMjIwNTE4MTkwMzQxWhcNMjUwNTAy
MTkwMzQxWjAZMRcwFQYDVQQDDA50ZWFtMjA0LWNsaWVudDCCASIwDQYJKoZIhvcN
AQEBBQADggEPADCCAQoCggEBAOZF7hDw7KTOXvNpCtcno7FprkTLXqseDIEDKc8F
vl12nSbBmW5tttlxJRsKiRgvMsWJTvCPXbOcckGYB+0OSnDmVKC+hvUUug7EmTQ4
/+4nTom8fH/NoM4SZxMMv5psTppJzylV9SoGRSU73TvPVXmmb9xR8qtcgmkBWz51
k65S+OlWvOUOyRx6uSNCimAWza2qbOJjw7oWSKMjAnyQatHoNrt3aem7bSeWFFK4
cCBtWeNWQ3qBEJrU09U32BUC3obpMpa1wBjNi6fAgw3l1jW6WRj2kexrlu8bRZrd
jl+/HdHXlRMxO3o5MSfCfaN2F/wRo0NoVMBtZ6rf72+o2hkCAwEAAaOBojCBnzAJ
BgNVHRMEAjAAMB0GA1UdDgQWBBRyHnhn4s6wcIlVbGHnsFXCgFJY5jBRBgNVHSME
SjBIgBSJVNr01qzPUf9Z74vN/LKDb9xliaEapBgwFjEUMBIGA1UEAwwLdGVhbTIw
NC1uZXSCFDeBR7sMo5xUTWDDQQX2BcTW1uIwMBMGA1UdJQQMMAoGCCsGAQUFBwMC
MAsGA1UdDwQEAwIHgDANBgkqhkiG9w0BAQsFAAOCAQEApNs/y0S63EnWlV4ppUSH
RPZ6xM+U6n8aEJ6efV0bbNcEQmOULVjyzRCM+V0FQwm3blUrllJ/8oyOk4Umaah/
guHDFkGBjMWdwd5oOWSmkgG9JrMeFujfoD6ehnhDv6ttYL3OIoQPZ2g2TOEnsgt5
asISzRgvCcVNqEjp1iZXdz7+kMxVTpM9+I0MAnHEdNG9u0lzi1Tvjw16p4poB11V
0inVbKfaIWRflGuHEn56JNZv73pqaB39/2XVBInLCVE0RBZnj3wTouqRBeEPkNBq
DZttpmlIxnYY695LAexvbX4NSQLhmAXQbw9A6KYNQRn+GEwsacrum2tKv0Os7scu
8Q==
-----END CERTIFICATE-----
