Certificate:
    Data:
        Version: 3 (0x2)
        Serial Number:
            d8:fe:cc:36:9e:9d:13:c0:4b:04:fb:e9:e8:1c:b9:ec
        Signature Algorithm: sha256WithRSAEncryption
        Issuer: CN=team204-net
        Validity
            Not Before: May 18 19:03:41 2022 GMT
            Not After : May  2 19:03:41 2025 GMT
        Subject: CN=team204-server
        Subject Public Key Info:
            Public Key Algorithm: rsaEncryption
                RSA Public-Key: (2048 bit)
                Modulus:
                    00:d9:5b:28:69:79:a6:2b:ea:5b:64:76:8f:47:48:
                    53:ab:58:2e:9e:90:51:48:11:b0:3a:cc:e1:09:4e:
                    7a:ed:31:46:56:89:3f:98:22:dc:cd:3f:dd:42:a0:
                    26:cc:36:05:8d:45:5d:e3:8e:de:33:08:67:6b:38:
                    7c:25:5a:63:6c:5c:c0:92:19:ec:0f:98:d4:ec:f4:
                    b3:81:fb:b3:49:26:1f:6f:5a:99:0e:7a:d0:4f:d3:
                    9d:a8:84:56:16:1e:53:d3:e8:31:a0:3c:c1:a0:60:
                    34:57:21:92:51:df:c6:44:93:96:98:3d:49:e4:25:
                    22:d6:71:55:9f:88:cf:ae:47:e0:55:4a:bf:58:3b:
                    56:17:61:f6:3f:0a:e6:4c:44:a2:63:55:0f:06:d8:
                    35:97:86:08:7b:49:4d:cc:c3:ce:e0:c4:34:d9:4e:
                    68:b5:0d:e3:bf:60:e7:e3:28:4a:11:9b:3f:a3:91:
                    d4:74:7c:d9:0c:dd:32:f6:00:83:70:cb:2a:2b:7f:
                    ab:97:82:74:7b:d0:e3:a1:4c:3f:7e:b1:84:3c:cc:
                    93:ac:03:9e:b3:c1:83:75:fa:f7:8f:f7:f4:78:85:
                    e9:e0:96:25:93:25:19:cd:51:13:85:fd:5f:26:07:
                    cc:6a:2a:ba:2f:8c:7e:34:03:b3:aa:37:fc:01:7e:
                    31:f3
                Exponent: 65537 (0x10001)
        X509v3 extensions:
            X509v3 Basic Constraints: 
                CA:FALSE
            X509v3 Subject Key Identifier: 
                5F:6C:DC:10:E4:A6:5C:F1:32:62:7E:31:5D:B4:C9:55:E6:DC:AE:72
            X509v3 Authority Key Identifier: 
                keyid:89:54:DA:F4:D6:AC:CF:51:FF:59:EF:8B:CD:FC:B2:83:6F:DC:65:89
                DirName:/CN=team204-net
                serial:37:81:47:BB:0C:A3:9C:54:4D:60:C3:41:05:F6:05:C4:D6:D6:E2:30

            X509v3 Extended Key Usage: 
                TLS Web Server Authentication
            X509v3 Key Usage: 
                Digital Signature, Key Encipherment
            X509v3 Subject Alternative Name: 
                DNS:team204-server
    Signature Algorithm: sha256WithRSAEncryption
         5b:57:b4:27:9d:13:1a:90:d3:19:d4:c9:30:f0:8d:59:25:9c:
         87:51:a9:cc:42:50:bd:0f:29:17:18:e5:c2:54:4b:d7:ef:d1:
         d0:3e:bf:d5:bc:eb:10:e6:a7:9b:dd:66:45:25:6a:cd:b1:6f:
         96:26:7b:ca:09:b3:6b:fb:eb:80:62:ec:63:87:73:2f:2e:60:
         a3:21:9b:fb:43:c1:71:53:01:f4:ad:8f:53:ef:65:66:79:98:
         82:76:47:03:9c:db:49:f2:fe:42:ea:47:e3:e4:c3:8e:6e:bb:
         3e:3f:ea:a6:c5:39:67:6f:d2:f4:cd:8a:61:b8:88:43:14:db:
         43:86:b2:72:4b:c9:f4:04:71:a4:23:32:4c:d1:4f:7a:da:48:
         ce:56:0e:6e:4e:60:63:62:09:da:8d:9f:d1:f1:15:42:7f:ef:
         03:77:f2:53:84:05:28:f8:90:28:a0:1d:05:e0:20:92:dd:9d:
         06:08:3f:2f:23:fe:5e:21:78:64:81:dd:e4:36:b1:dc:79:08:
         cd:45:5f:f6:04:49:7c:be:84:14:de:62:ac:c6:65:1c:12:79:
         6d:8a:49:a9:a6:a0:ee:77:71:03:1a:f4:cd:39:6a:2d:d7:f7:
         cb:7d:53:7b:94:76:04:94:8b:2b:24:30:ea:85:fc:04:03:f4:
         0d:a2:77:28
-----BEGIN CERTIFICATE-----
MIIDeDCCAmCgAwIBAgIRANj+zDaenRPASwT76egcuewwDQYJKoZIhvcNAQELBQAw
FjEUMBIGA1UEAwwLdGVhbTIwNC1uZXQwHhcNMjIwNTE4MTkwMzQxWhcNMjUwNTAy
MTkwMzQxWjAZMRcwFQYDVQQDDA50ZWFtMjA0LXNlcnZlcjCCASIwDQYJKoZIhvcN
AQEBBQADggEPADCCAQoCggEBANlbKGl5pivqW2R2j0dIU6tYLp6QUUgRsDrM4QlO
eu0xRlaJP5gi3M0/3UKgJsw2BY1FXeOO3jMIZ2s4fCVaY2xcwJIZ7A+Y1Oz0s4H7
s0kmH29amQ560E/TnaiEVhYeU9PoMaA8waBgNFchklHfxkSTlpg9SeQlItZxVZ+I
z65H4FVKv1g7Vhdh9j8K5kxEomNVDwbYNZeGCHtJTczDzuDENNlOaLUN479g5+Mo
ShGbP6OR1HR82QzdMvYAg3DLKit/q5eCdHvQ46FMP36xhDzMk6wDnrPBg3X694/3
9HiF6eCWJZMlGc1RE4X9XyYHzGoqui+MfjQDs6o3/AF+MfMCAwEAAaOBvTCBujAJ
BgNVHRMEAjAAMB0GA1UdDgQWBBRfbNwQ5KZc8TJifjFdtMlV5tyucjBRBgNVHSME
SjBIgBSJVNr01qzPUf9Z74vN/LKDb9xliaEapBgwFjEUMBIGA1UEAwwLdGVhbTIw
NC1uZXSCFDeBR7sMo5xUTWDDQQX2BcTW1uIwMBMGA1UdJQQMMAoGCCsGAQUFBwMB
MAsGA1UdDwQEAwIFoDAZBgNVHREEEjAQgg50ZWFtMjA0LXNlcnZlcjANBgkqhkiG
9w0BAQsFAAOCAQEAW1e0J50TGpDTGdTJMPCNWSWch1GpzEJQvQ8pFxjlwlRL1+/R
0D6/1bzrEOanm91mRSVqzbFvliZ7ygmza/vrgGLsY4dzLy5goyGb+0PBcVMB9K2P
U+9lZnmYgnZHA5zbSfL+QupH4+TDjm67Pj/qpsU5Z2/S9M2KYbiIQxTbQ4ayckvJ
9ARxpCMyTNFPetpIzlYObk5gY2IJ2o2f0fEVQn/vA3fyU4QFKPiQKKAdBeAgkt2d
Bgg/LyP+XiF4ZIHd5Dax3HkIzUVf9gRJfL6EFN5irMZlHBJ5bYpJqaag7ndxAxr0
zTlqLdf3y31Te5R2BJSLKyQw6oX8BAP0DaJ3KA==
-----END CERTIFICATE-----
