Certificate:
    Data:
        Version: 3 (0x2)
        Serial Number:
            8a:b9:85:64:88:60:95:90:fc:7c:c9:65:9e:5c:1f:f5
        Signature Algorithm: sha256WithRSAEncryption
        Issuer: CN=team112-net
        Validity
            Not Before: May 18 14:56:16 2022 GMT
            Not After : May  2 14:56:16 2025 GMT
        Subject: CN=team112-server
        Subject Public Key Info:
            Public Key Algorithm: rsaEncryption
                RSA Public-Key: (2048 bit)
                Modulus:
                    00:de:62:01:93:5a:78:41:27:76:61:5c:94:e1:1a:
                    ab:d5:1c:2b:fb:77:45:87:c5:c0:ae:c3:0c:93:f7:
                    0c:31:b0:a0:30:04:cb:72:ff:3e:38:7e:0a:db:53:
                    df:f3:c2:e5:1e:0f:ed:85:83:35:b3:22:93:a0:c1:
                    aa:ce:38:7e:f8:90:3b:ff:09:59:c2:a3:d0:64:2d:
                    99:78:2b:0d:2e:c7:9f:88:55:d9:d4:41:b2:ba:83:
                    44:66:9c:f5:e1:ea:aa:07:6b:78:1f:b1:fb:59:d9:
                    c9:49:c5:a8:2a:59:fd:ab:50:cb:0a:48:fc:d8:6b:
                    8f:81:39:77:90:61:29:b1:5d:f2:6a:22:76:55:05:
                    6d:e1:68:ef:9d:21:0e:dd:70:f1:8e:bd:01:af:99:
                    39:ee:f4:f6:1b:03:9e:fd:24:dc:9a:ae:ee:bb:4e:
                    c6:b8:74:d1:45:09:08:be:f7:74:32:96:9e:fd:05:
                    03:4d:ed:ad:b7:ce:fd:29:ec:7c:38:2d:3b:2e:b5:
                    65:91:2e:b6:a5:8e:b2:3d:a7:4a:80:fd:df:42:01:
                    4c:f9:fb:a5:1f:13:bd:d0:ac:dc:10:1a:e4:83:f4:
                    3b:5f:b9:1b:ea:6d:ed:90:8d:11:bb:ff:43:05:c8:
                    07:57:81:4c:df:10:8b:1c:2e:b0:88:67:8e:01:d6:
                    56:cb
                Exponent: 65537 (0x10001)
        X509v3 extensions:
            X509v3 Basic Constraints: 
                CA:FALSE
            X509v3 Subject Key Identifier: 
                37:A7:ED:7F:09:2A:51:FD:1B:EE:25:F4:23:50:9D:AC:F2:64:A9:E0
            X509v3 Authority Key Identifier: 
                keyid:C2:F0:A3:E6:C0:BA:31:A8:8A:94:69:80:01:C9:02:18:EE:DC:6A:5C
                DirName:/CN=team112-net
                serial:34:BC:73:EA:17:4C:C7:6E:82:02:88:49:F1:EC:A6:68:AA:6B:52:D8

            X509v3 Extended Key Usage: 
                TLS Web Server Authentication
            X509v3 Key Usage: 
                Digital Signature, Key Encipherment
            X509v3 Subject Alternative Name: 
                DNS:team112-server
    Signature Algorithm: sha256WithRSAEncryption
         86:27:46:52:88:4c:00:d4:0b:e3:fa:c2:16:37:82:55:6e:10:
         9b:76:d4:55:61:59:dd:07:fe:cc:23:85:fa:0e:19:4e:c4:4a:
         97:31:92:4c:c6:9d:58:dd:02:20:87:70:e8:c9:58:6b:93:0f:
         4d:c4:bf:8e:e5:2f:5b:9c:ad:ae:7b:bd:c1:7c:85:94:0a:3a:
         ec:70:13:44:70:f2:1f:8f:29:cb:30:a5:23:46:0a:5d:cd:05:
         ce:21:7c:c5:9e:e4:88:ad:af:3d:42:fb:7c:4e:34:6c:5c:df:
         fb:29:64:e9:f7:01:81:ad:bf:67:87:8d:f1:e0:d5:dc:7b:42:
         20:94:91:be:b7:95:a6:4e:9c:40:37:d2:2a:6c:a6:04:41:c5:
         c5:a7:95:40:f5:c7:0c:6c:46:fe:a3:0d:e8:ce:3f:73:39:17:
         7b:ba:85:90:d8:24:cc:5a:52:3c:6a:c7:21:f2:7e:b9:23:09:
         c1:66:de:5b:08:f9:de:c2:b3:e3:f1:8b:c1:bf:e1:df:a5:58:
         33:e6:dd:76:02:80:79:6b:ec:91:17:a0:dd:07:ea:c3:9d:97:
         67:e0:85:2c:e7:7a:48:04:a6:a8:35:fa:d7:26:96:70:37:68:
         b1:2c:5f:52:b1:4b:d3:c7:0e:40:c1:3c:28:39:6c:b5:14:61:
         bb:95:27:8d
-----BEGIN CERTIFICATE-----
MIIDeDCCAmCgAwIBAgIRAIq5hWSIYJWQ/HzJZZ5cH/UwDQYJKoZIhvcNAQELBQAw
FjEUMBIGA1UEAwwLdGVhbTExMi1uZXQwHhcNMjIwNTE4MTQ1NjE2WhcNMjUwNTAy
MTQ1NjE2WjAZMRcwFQYDVQQDDA50ZWFtMTEyLXNlcnZlcjCCASIwDQYJKoZIhvcN
AQEBBQADggEPADCCAQoCggEBAN5iAZNaeEEndmFclOEaq9UcK/t3RYfFwK7DDJP3
DDGwoDAEy3L/Pjh+CttT3/PC5R4P7YWDNbMik6DBqs44fviQO/8JWcKj0GQtmXgr
DS7Hn4hV2dRBsrqDRGac9eHqqgdreB+x+1nZyUnFqCpZ/atQywpI/Nhrj4E5d5Bh
KbFd8moidlUFbeFo750hDt1w8Y69Aa+ZOe709hsDnv0k3Jqu7rtOxrh00UUJCL73
dDKWnv0FA03trbfO/SnsfDgtOy61ZZEutqWOsj2nSoD930IBTPn7pR8TvdCs3BAa
5IP0O1+5G+pt7ZCNEbv/QwXIB1eBTN8QixwusIhnjgHWVssCAwEAAaOBvTCBujAJ
BgNVHRMEAjAAMB0GA1UdDgQWBBQ3p+1/CSpR/RvuJfQjUJ2s8mSp4DBRBgNVHSME
SjBIgBTC8KPmwLoxqIqUaYAByQIY7txqXKEapBgwFjEUMBIGA1UEAwwLdGVhbTEx
Mi1uZXSCFDS8c+oXTMduggKISfHspmiqa1LYMBMGA1UdJQQMMAoGCCsGAQUFBwMB
MAsGA1UdDwQEAwIFoDAZBgNVHREEEjAQgg50ZWFtMTEyLXNlcnZlcjANBgkqhkiG
9w0BAQsFAAOCAQEAhidGUohMANQL4/rCFjeCVW4Qm3bUVWFZ3Qf+zCOF+g4ZTsRK
lzGSTMadWN0CIIdw6MlYa5MPTcS/juUvW5ytrnu9wXyFlAo67HATRHDyH48pyzCl
I0YKXc0FziF8xZ7kiK2vPUL7fE40bFzf+ylk6fcBga2/Z4eN8eDV3HtCIJSRvreV
pk6cQDfSKmymBEHFxaeVQPXHDGxG/qMN6M4/czkXe7qFkNgkzFpSPGrHIfJ+uSMJ
wWbeWwj53sKz4/GLwb/h36VYM+bddgKAeWvskReg3Qfqw52XZ+CFLOd6SASmqDX6
1yaWcDdosSxfUrFL08cOQME8KDlstRRhu5UnjQ==
-----END CERTIFICATE-----
