Certificate:
    Data:
        Version: 3 (0x2)
        Serial Number:
            65:79:ee:ff:cf:7b:4d:da:48:bd:fb:ce:92:5d:f3:71
        Signature Algorithm: sha256WithRSAEncryption
        Issuer: CN=team380-net
        Validity
            Not Before: May 18 20:52:49 2022 GMT
            Not After : May  2 20:52:49 2025 GMT
        Subject: CN=team380-client
        Subject Public Key Info:
            Public Key Algorithm: rsaEncryption
                RSA Public-Key: (2048 bit)
                Modulus:
                    00:c1:81:af:88:61:07:f0:26:6d:d2:31:d7:2a:07:
                    81:33:75:d4:82:00:5d:04:c6:be:3a:d8:3f:b4:e1:
                    57:04:cf:8e:f4:45:43:4e:6e:68:37:22:c9:5a:a4:
                    a6:58:d3:4f:11:02:e7:f0:8d:60:53:52:35:06:a5:
                    3f:a2:a5:d9:cc:8a:55:4c:0b:21:7a:0e:1a:0f:7b:
                    aa:e3:4d:54:27:f8:38:ab:fc:b7:3a:cb:d2:28:b7:
                    de:16:8d:eb:2d:28:27:3b:eb:92:ad:6d:fc:1d:36:
                    26:ee:c4:72:39:f6:04:d5:f5:93:b1:b9:8e:e9:da:
                    50:3b:a2:61:33:1f:23:2c:5f:13:0c:fd:c6:5d:ec:
                    e2:be:71:f7:da:d3:93:12:82:55:7d:11:48:cf:ca:
                    59:03:6e:e2:36:52:f5:cd:05:18:42:0d:e9:3a:61:
                    2f:75:13:64:b8:ab:dd:ea:67:9b:b9:0e:fb:5f:b6:
                    ce:d1:08:d1:17:1f:00:57:6d:a7:8e:8c:30:0d:57:
                    5c:40:2e:e5:93:52:7f:8b:94:06:30:c2:f3:41:46:
                    68:d4:a1:20:d7:6d:62:7e:31:44:cd:9b:14:23:20:
                    af:69:69:64:c8:a9:d5:3a:f8:c6:f3:a3:26:da:91:
                    9c:45:cf:1f:31:19:6e:fd:5f:3c:8c:06:0a:12:56:
                    ec:05
                Exponent: 65537 (0x10001)
        X509v3 extensions:
            X509v3 Basic Constraints: 
                CA:FALSE
            X509v3 Subject Key Identifier: 
                8C:AF:73:5A:65:FC:B0:A4:5F:03:DF:E9:9A:AC:5A:FE:99:4F:2D:EF
            X509v3 Authority Key Identifier: 
                keyid:53:4C:95:12:0E:EB:A0:98:9C:EA:9D:AC:1D:80:2F:4E:0C:C0:6F:A7
                DirName:/CN=team380-net
                serial:31:02:E9:84:1B:89:D6:9B:7D:40:75:86:61:D5:FB:A3:FA:71:10:43

            X509v3 Extended Key Usage: 
                TLS Web Client Authentication
            X509v3 Key Usage: 
                Digital Signature
    Signature Algorithm: sha256WithRSAEncryption
         41:56:1f:8e:18:5e:72:15:a8:79:0c:11:6a:f3:7c:c6:cb:c7:
         6a:bb:39:a0:e3:e8:05:1e:0a:1a:1f:9c:2f:c8:0e:d3:ec:31:
         c0:6c:f0:5f:37:01:ba:f8:df:dc:49:3b:6b:81:95:99:05:98:
         8d:30:3d:70:17:15:40:47:9e:13:f0:07:c0:5e:64:cf:be:b2:
         2a:ea:2c:dd:5d:90:30:62:c5:86:7c:4f:25:bb:12:24:c2:1a:
         85:d3:2d:5e:b3:76:59:65:4a:91:86:f1:9c:ed:a6:c0:34:ac:
         5c:ed:98:60:32:2e:31:64:7b:b4:d9:8f:db:ee:d6:a0:f9:e2:
         7a:06:b5:7b:78:d5:99:31:fa:3a:ea:00:55:7a:87:62:17:36:
         4a:f2:fb:e4:74:07:6d:cc:56:86:26:cc:55:41:3a:15:24:80:
         04:a5:e6:98:05:0b:dc:b7:55:81:8f:93:9d:c8:8c:0d:59:57:
         ac:4d:48:c8:b0:11:a5:d7:4d:5c:fd:c5:70:38:1a:9a:92:78:
         88:71:e7:4e:9d:bd:3c:06:52:48:61:a4:1a:e8:be:ca:0b:fa:
         ce:f6:d9:60:f0:0c:09:01:f6:e2:b3:fb:2b:4b:0d:00:9c:b5:
         bf:3a:53:20:e9:bf:e8:3e:ac:1a:b0:8b:65:8d:e6:a7:fb:c7:
         cf:60:e1:18
-----BEGIN CERTIFICATE-----
MIIDXDCCAkSgAwIBAgIQZXnu/897TdpIvfvOkl3zcTANBgkqhkiG9w0BAQsFADAW
MRQwEgYDVQQDDAt0ZWFtMzgwLW5ldDAeFw0yMjA1MTgyMDUyNDlaFw0yNTA1MDIy
MDUyNDlaMBkxFzAVBgNVBAMMDnRlYW0zODAtY2xpZW50MIIBIjANBgkqhkiG9w0B
AQEFAAOCAQ8AMIIBCgKCAQEAwYGviGEH8CZt0jHXKgeBM3XUggBdBMa+Otg/tOFX
BM+O9EVDTm5oNyLJWqSmWNNPEQLn8I1gU1I1BqU/oqXZzIpVTAsheg4aD3uq401U
J/g4q/y3OsvSKLfeFo3rLSgnO+uSrW38HTYm7sRyOfYE1fWTsbmO6dpQO6JhMx8j
LF8TDP3GXezivnH32tOTEoJVfRFIz8pZA27iNlL1zQUYQg3pOmEvdRNkuKvd6meb
uQ77X7bO0QjRFx8AV22njowwDVdcQC7lk1J/i5QGMMLzQUZo1KEg121ifjFEzZsU
IyCvaWlkyKnVOvjG86Mm2pGcRc8fMRlu/V88jAYKElbsBQIDAQABo4GiMIGfMAkG
A1UdEwQCMAAwHQYDVR0OBBYEFIyvc1pl/LCkXwPf6ZqsWv6ZTy3vMFEGA1UdIwRK
MEiAFFNMlRIO66CYnOqdrB2AL04MwG+noRqkGDAWMRQwEgYDVQQDDAt0ZWFtMzgw
LW5ldIIUMQLphBuJ1pt9QHWGYdX7o/pxEEMwEwYDVR0lBAwwCgYIKwYBBQUHAwIw
CwYDVR0PBAQDAgeAMA0GCSqGSIb3DQEBCwUAA4IBAQBBVh+OGF5yFah5DBFq83zG
y8dquzmg4+gFHgoaH5wvyA7T7DHAbPBfNwG6+N/cSTtrgZWZBZiNMD1wFxVAR54T
8AfAXmTPvrIq6izdXZAwYsWGfE8luxIkwhqF0y1es3ZZZUqRhvGc7abANKxc7Zhg
Mi4xZHu02Y/b7tag+eJ6BrV7eNWZMfo66gBVeodiFzZK8vvkdAdtzFaGJsxVQToV
JIAEpeaYBQvct1WBj5OdyIwNWVesTUjIsBGl101c/cVwOBqakniIcedOnb08BlJI
YaQa6L7KC/rO9tlg8AwJAfbis/srSw0AnLW/OlMg6b/oPqwasItljean+8fPYOEY
-----END CERTIFICATE-----
