Certificate:
    Data:
        Version: 3 (0x2)
        Serial Number:
            03:e6:c1:4a:c0:92:a3:e0:4c:39:7f:b4:10:7b:79:39
        Signature Algorithm: sha256WithRSAEncryption
        Issuer: CN=team375-net
        Validity
            Not Before: May 18 20:39:06 2022 GMT
            Not After : May  2 20:39:06 2025 GMT
        Subject: CN=team375-client
        Subject Public Key Info:
            Public Key Algorithm: rsaEncryption
                RSA Public-Key: (2048 bit)
                Modulus:
                    00:eb:47:8d:65:9f:88:eb:f0:66:47:df:f9:69:d1:
                    2b:b7:4c:19:98:66:b0:ae:f0:b3:55:36:08:83:f2:
                    66:00:6e:68:ca:f5:bb:b0:a3:3a:d7:5e:e2:da:7c:
                    0b:82:56:38:93:4e:7d:3c:a0:64:a3:06:d2:34:78:
                    9e:fd:5a:5f:61:b6:2c:29:bb:2f:63:29:22:09:68:
                    98:50:06:0b:eb:5c:67:86:e6:25:42:07:49:1b:7c:
                    85:42:79:0f:09:52:a3:ff:dd:de:64:9a:e6:91:eb:
                    93:c3:b0:85:16:b3:b3:37:5b:27:97:08:d1:5f:22:
                    c9:32:b8:a3:ae:68:ef:57:ac:ad:36:89:a1:d9:aa:
                    37:50:68:03:68:b1:6f:a8:31:7a:63:17:7b:95:b8:
                    52:63:43:57:d6:cd:61:00:b0:61:af:88:aa:d8:66:
                    0c:77:48:88:bd:1a:18:70:bc:bb:6c:c9:d7:b4:73:
                    0d:9a:44:84:9e:ae:39:20:76:e2:2f:ff:3f:f3:45:
                    10:5e:4d:aa:20:0b:76:f9:eb:7f:ce:c5:af:d7:ae:
                    ad:4c:f2:6d:0f:15:67:94:55:f0:9d:f4:5a:ee:2c:
                    4b:81:81:20:3b:d0:a9:f9:59:a2:b4:2b:d3:90:50:
                    79:5a:4a:fe:16:00:5a:4f:ee:df:0e:fa:04:a2:4a:
                    a7:1d
                Exponent: 65537 (0x10001)
        X509v3 extensions:
            X509v3 Basic Constraints: 
                CA:FALSE
            X509v3 Subject Key Identifier: 
                50:C0:BB:9E:71:9A:A5:F1:60:73:A2:4F:17:19:A8:47:C1:71:59:70
            X509v3 Authority Key Identifier: 
                keyid:18:73:72:F8:EE:07:46:D6:1C:22:1A:B0:49:0B:9D:F1:FA:C0:E4:2F
                DirName:/CN=team375-net
                serial:33:7E:13:AD:F7:0A:A8:F1:40:E1:AA:C4:45:6D:D3:E9:20:F5:3D:A5

            X509v3 Extended Key Usage: 
                TLS Web Client Authentication
            X509v3 Key Usage: 
                Digital Signature
    Signature Algorithm: sha256WithRSAEncryption
         29:b4:be:0e:38:64:f8:24:a4:20:4d:5b:90:fb:19:36:a0:9b:
         17:e5:59:4e:0a:f1:29:06:80:e4:a9:a5:b8:5c:75:35:9c:7d:
         f8:6e:20:ec:a3:82:ad:dc:d8:65:59:c5:d6:a0:98:bd:5a:f7:
         45:e1:ba:5a:90:60:34:3a:bf:f6:40:9a:cb:2e:54:65:53:35:
         65:f5:17:6f:94:38:8b:74:06:98:9c:2c:a7:83:cd:92:1b:93:
         85:e6:1b:5e:58:98:92:e7:42:1d:e0:1d:d8:9f:a3:99:86:65:
         0e:10:f6:68:29:43:a7:74:c8:fb:ec:cf:91:74:1e:9e:fd:1e:
         9f:31:75:e4:53:ff:1b:91:79:bd:d8:0a:db:eb:26:06:4f:f0:
         59:4a:e4:71:36:5c:b9:f5:08:59:c0:a7:e2:cc:48:5d:b3:55:
         65:da:99:83:ce:09:e0:82:41:96:74:72:49:2a:17:7f:c5:21:
         82:8f:05:1c:c0:e4:16:9b:22:ab:54:85:1b:ab:d6:96:b2:7f:
         e1:46:dd:3c:d5:10:4b:41:d2:cf:b3:fc:26:d4:ea:6b:ee:32:
         a8:a3:d7:01:2b:90:84:14:fa:ee:34:d5:2d:aa:f6:0b:75:f4:
         ec:41:67:aa:f7:06:7d:05:2a:3c:52:4c:8f:94:fc:85:5a:1e:
         21:5c:33:e4
-----BEGIN CERTIFICATE-----
MIIDXDCCAkSgAwIBAgIQA+bBSsCSo+BMOX+0EHt5OTANBgkqhkiG9w0BAQsFADAW
MRQwEgYDVQQDDAt0ZWFtMzc1LW5ldDAeFw0yMjA1MTgyMDM5MDZaFw0yNTA1MDIy
MDM5MDZaMBkxFzAVBgNVBAMMDnRlYW0zNzUtY2xpZW50MIIBIjANBgkqhkiG9w0B
AQEFAAOCAQ8AMIIBCgKCAQEA60eNZZ+I6/BmR9/5adErt0wZmGawrvCzVTYIg/Jm
AG5oyvW7sKM6117i2nwLglY4k059PKBkowbSNHie/VpfYbYsKbsvYykiCWiYUAYL
61xnhuYlQgdJG3yFQnkPCVKj/93eZJrmkeuTw7CFFrOzN1snlwjRXyLJMrijrmjv
V6ytNomh2ao3UGgDaLFvqDF6Yxd7lbhSY0NX1s1hALBhr4iq2GYMd0iIvRoYcLy7
bMnXtHMNmkSEnq45IHbiL/8/80UQXk2qIAt2+et/zsWv166tTPJtDxVnlFXwnfRa
7ixLgYEgO9Cp+VmitCvTkFB5Wkr+FgBaT+7fDvoEokqnHQIDAQABo4GiMIGfMAkG
A1UdEwQCMAAwHQYDVR0OBBYEFFDAu55xmqXxYHOiTxcZqEfBcVlwMFEGA1UdIwRK
MEiAFBhzcvjuB0bWHCIasEkLnfH6wOQvoRqkGDAWMRQwEgYDVQQDDAt0ZWFtMzc1
LW5ldIIUM34TrfcKqPFA4arERW3T6SD1PaUwEwYDVR0lBAwwCgYIKwYBBQUHAwIw
CwYDVR0PBAQDAgeAMA0GCSqGSIb3DQEBCwUAA4IBAQAptL4OOGT4JKQgTVuQ+xk2
oJsX5VlOCvEpBoDkqaW4XHU1nH34biDso4Kt3NhlWcXWoJi9WvdF4bpakGA0Or/2
QJrLLlRlUzVl9RdvlDiLdAaYnCyng82SG5OF5hteWJiS50Id4B3Yn6OZhmUOEPZo
KUOndMj77M+RdB6e/R6fMXXkU/8bkXm92Arb6yYGT/BZSuRxNly59QhZwKfizEhd
s1Vl2pmDzgnggkGWdHJJKhd/xSGCjwUcwOQWmyKrVIUbq9aWsn/hRt081RBLQdLP
s/wm1Opr7jKoo9cBK5CEFPruNNUtqvYLdfTsQWeq9wZ9BSo8UkyPlPyFWh4hXDPk
-----END CERTIFICATE-----
