Certificate:
    Data:
        Version: 3 (0x2)
        Serial Number:
            3d:93:05:85:ee:7d:37:88:f2:ea:4b:88:95:90:eb:6d
        Signature Algorithm: sha256WithRSAEncryption
        Issuer: CN=team349-net
        Validity
            Not Before: May 18 20:28:21 2022 GMT
            Not After : May  2 20:28:21 2025 GMT
        Subject: CN=team349-client
        Subject Public Key Info:
            Public Key Algorithm: rsaEncryption
                RSA Public-Key: (2048 bit)
                Modulus:
                    00:c4:d6:cc:e3:99:77:f7:99:2d:34:de:8e:8c:d1:
                    05:99:70:9f:75:a6:97:6e:d6:d7:f3:43:65:f9:55:
                    e6:e5:f6:cb:d1:91:a8:41:8e:33:62:66:07:2e:3b:
                    5b:58:dc:bb:da:0c:74:6e:58:2a:2b:91:e8:7b:09:
                    97:5d:a9:fa:43:b3:a7:43:14:65:25:2b:80:ab:72:
                    2a:90:b0:cb:ae:c0:98:8e:7c:8d:a3:33:8e:6f:f4:
                    12:5d:82:8b:94:4d:03:67:73:e3:49:e6:d3:f9:12:
                    7b:15:7c:07:c8:4d:2a:d9:8e:5b:98:54:ff:43:94:
                    68:83:57:43:43:b5:a7:32:90:09:c2:95:8e:ef:18:
                    93:ca:2f:2a:1c:b0:e3:44:a2:32:7c:1c:49:85:d3:
                    61:a9:6e:66:a8:97:f5:c5:ad:e4:4d:08:d0:34:d1:
                    82:68:f4:c4:c4:57:ee:c9:4d:90:b4:f4:ac:7b:88:
                    66:70:d0:2d:e0:96:4e:2e:b6:51:54:b0:37:2c:f7:
                    bd:7e:a9:51:f8:bf:01:bf:a4:89:55:21:7b:bb:e9:
                    b4:8c:48:5f:fa:d9:c4:23:96:36:de:cf:06:ec:29:
                    2c:27:29:ed:4f:10:83:6c:49:86:20:e2:ee:84:f2:
                    4e:2d:2d:4f:d9:18:16:f5:16:25:dd:82:6b:52:d4:
                    6c:cb
                Exponent: 65537 (0x10001)
        X509v3 extensions:
            X509v3 Basic Constraints: 
                CA:FALSE
            X509v3 Subject Key Identifier: 
                50:D0:67:8B:E2:35:C6:7A:DA:13:93:AF:D9:9A:4A:60:71:38:EB:63
            X509v3 Authority Key Identifier: 
                keyid:6C:C3:A1:17:13:05:6F:F3:1A:CE:11:4D:C4:DF:48:50:22:F8:5A:81
                DirName:/CN=team349-net
                serial:72:14:A6:B2:86:A9:4A:FA:8B:18:D5:21:82:F3:29:E8:1C:45:92:68

            X509v3 Extended Key Usage: 
                TLS Web Client Authentication
            X509v3 Key Usage: 
                Digital Signature
    Signature Algorithm: sha256WithRSAEncryption
         99:0b:05:0e:1a:a0:65:c4:40:ad:4a:4c:e3:c8:68:db:56:f5:
         6f:d9:4c:a5:0b:2e:65:55:30:03:a1:75:91:f4:6e:27:58:7a:
         05:b1:0b:1e:a0:23:4f:a1:d4:24:41:b2:ce:e0:8c:d3:0c:ea:
         b4:5e:49:e0:d7:9d:5f:25:09:a6:89:e4:a4:6a:04:42:fa:32:
         5f:9c:90:6d:69:02:0f:fb:95:bc:f7:82:dd:e2:cf:81:86:d2:
         80:73:1f:e0:f0:8d:4f:89:7b:b3:4f:b9:f6:98:84:97:d1:83:
         85:a2:05:2a:9e:f7:ec:ba:56:e8:2b:4d:84:01:2f:75:73:51:
         19:8b:9e:d4:7e:f7:a8:41:56:9a:33:c2:8d:00:7d:d2:e2:6f:
         07:5e:4b:04:ac:db:bd:27:81:d6:58:91:38:bb:84:24:a1:42:
         ba:07:fd:f7:c1:e4:dc:b4:5e:32:8a:31:76:c6:ff:ff:6e:3a:
         a9:9c:30:ce:76:b1:4d:69:18:78:a3:a2:fb:a0:6c:f3:96:9e:
         57:1c:b3:6d:a9:0e:bb:d4:18:49:6e:49:54:75:1a:04:cd:a4:
         e2:b5:af:19:22:be:0f:7b:1a:92:52:0f:31:c8:cd:71:ae:04:
         7a:1c:0c:2e:7f:16:48:58:ac:0a:ca:3d:73:6d:2f:03:e4:dc:
         8a:f4:c8:ba
-----BEGIN CERTIFICATE-----
MIIDXDCCAkSgAwIBAgIQPZMFhe59N4jy6kuIlZDrbTANBgkqhkiG9w0BAQsFADAW
MRQwEgYDVQQDDAt0ZWFtMzQ5LW5ldDAeFw0yMjA1MTgyMDI4MjFaFw0yNTA1MDIy
MDI4MjFaMBkxFzAVBgNVBAMMDnRlYW0zNDktY2xpZW50MIIBIjANBgkqhkiG9w0B
AQEFAAOCAQ8AMIIBCgKCAQEAxNbM45l395ktNN6OjNEFmXCfdaaXbtbX80Nl+VXm
5fbL0ZGoQY4zYmYHLjtbWNy72gx0blgqK5HoewmXXan6Q7OnQxRlJSuAq3IqkLDL
rsCYjnyNozOOb/QSXYKLlE0DZ3PjSebT+RJ7FXwHyE0q2Y5bmFT/Q5Rog1dDQ7Wn
MpAJwpWO7xiTyi8qHLDjRKIyfBxJhdNhqW5mqJf1xa3kTQjQNNGCaPTExFfuyU2Q
tPSse4hmcNAt4JZOLrZRVLA3LPe9fqlR+L8Bv6SJVSF7u+m0jEhf+tnEI5Y23s8G
7CksJyntTxCDbEmGIOLuhPJOLS1P2RgW9RYl3YJrUtRsywIDAQABo4GiMIGfMAkG
A1UdEwQCMAAwHQYDVR0OBBYEFFDQZ4viNcZ62hOTr9maSmBxOOtjMFEGA1UdIwRK
MEiAFGzDoRcTBW/zGs4RTcTfSFAi+FqBoRqkGDAWMRQwEgYDVQQDDAt0ZWFtMzQ5
LW5ldIIUchSmsoapSvqLGNUhgvMp6BxFkmgwEwYDVR0lBAwwCgYIKwYBBQUHAwIw
CwYDVR0PBAQDAgeAMA0GCSqGSIb3DQEBCwUAA4IBAQCZCwUOGqBlxECtSkzjyGjb
VvVv2UylCy5lVTADoXWR9G4nWHoFsQseoCNPodQkQbLO4IzTDOq0Xkng151fJQmm
ieSkagRC+jJfnJBtaQIP+5W894Ld4s+BhtKAcx/g8I1PiXuzT7n2mISX0YOFogUq
nvfsulboK02EAS91c1EZi57UfveoQVaaM8KNAH3S4m8HXksErNu9J4HWWJE4u4Qk
oUK6B/33weTctF4yijF2xv//bjqpnDDOdrFNaRh4o6L7oGzzlp5XHLNtqQ671BhJ
bklUdRoEzaTita8ZIr4PexqSUg8xyM1xrgR6HAwufxZIWKwKyj1zbS8D5NyK9Mi6
-----END CERTIFICATE-----
