Certificate:
    Data:
        Version: 3 (0x2)
        Serial Number:
            89:29:ee:3b:42:f8:53:da:11:38:04:37:bb:56:03:7f
        Signature Algorithm: sha256WithRSAEncryption
        Issuer: CN=team185-net
        Validity
            Not Before: May 18 18:59:32 2022 GMT
            Not After : May  2 18:59:32 2025 GMT
        Subject: CN=team185-server
        Subject Public Key Info:
            Public Key Algorithm: rsaEncryption
                RSA Public-Key: (2048 bit)
                Modulus:
                    00:d2:4e:18:b5:3c:0f:e4:e0:b5:10:3d:68:c2:23:
                    38:33:5c:64:73:ce:ea:05:89:e8:e9:9b:b1:95:5b:
                    81:2d:db:30:aa:d3:65:b2:fc:81:94:21:d9:b2:bd:
                    8c:72:d8:2a:ef:14:3d:58:e0:a9:e4:d4:57:4d:22:
                    ae:ce:89:28:a0:b0:51:b2:fc:fd:3f:14:b9:60:c2:
                    5d:15:90:59:b4:3d:e7:e8:9b:43:15:8a:73:82:fe:
                    eb:f9:ce:2c:1c:e0:75:d1:ad:2f:89:64:02:bc:fa:
                    b0:e6:7f:f2:08:eb:d0:67:af:56:33:eb:27:3b:f2:
                    7c:64:ad:2a:90:5e:78:88:33:b0:11:f9:f9:86:e6:
                    f7:d2:09:a8:48:64:4d:85:46:fb:90:85:c2:63:c1:
                    6b:d9:2f:d6:4d:cc:aa:19:50:34:42:ca:13:2a:8c:
                    d2:b3:5b:a5:75:05:48:a5:92:a3:f4:89:8b:2e:27:
                    1c:0b:6c:18:b6:09:af:32:f0:19:4a:98:49:9b:76:
                    b4:33:06:ac:de:2f:e1:1d:a7:1c:7c:32:54:b6:4e:
                    e5:1e:bd:b4:81:8d:67:d7:12:6f:b6:16:16:b2:24:
                    de:7b:bb:4a:58:d3:11:b5:95:ac:a1:02:21:71:b7:
                    3e:48:4d:f4:f4:f3:09:00:f5:16:74:4f:f1:43:66:
                    d2:75
                Exponent: 65537 (0x10001)
        X509v3 extensions:
            X509v3 Basic Constraints: 
                CA:FALSE
            X509v3 Subject Key Identifier: 
                D5:4A:42:6A:0C:8C:2A:0E:5D:74:56:52:4E:89:2D:54:9A:0F:D5:B4
            X509v3 Authority Key Identifier: 
                keyid:62:E7:39:53:28:0D:A8:E5:68:E5:41:F6:06:A0:EA:D0:2F:B6:15:E2
                DirName:/CN=team185-net
                serial:37:DC:60:22:77:D7:AA:DC:E5:CA:7B:D4:41:C5:9D:56:41:3D:39:29

            X509v3 Extended Key Usage: 
                TLS Web Server Authentication
            X509v3 Key Usage: 
                Digital Signature, Key Encipherment
            X509v3 Subject Alternative Name: 
                DNS:team185-server
    Signature Algorithm: sha256WithRSAEncryption
         46:9c:45:44:51:4d:58:c7:37:49:0f:73:1a:95:5e:fd:30:df:
         f4:2b:e0:dc:67:f5:10:b4:49:a5:b9:22:00:4d:c7:28:30:2c:
         7b:ff:a3:93:c1:75:fd:6d:c7:82:ea:e6:51:7c:84:b9:1a:e8:
         25:bf:c1:cd:39:e0:8c:ef:5b:7b:14:24:4b:3e:c4:ac:fe:8c:
         37:22:95:30:28:e0:dd:1e:47:59:1d:7c:e3:5f:8a:c7:17:0c:
         a4:fd:20:5e:0d:f1:e9:50:a1:fa:72:d2:15:a4:4c:bf:2c:d9:
         90:cd:fe:b9:f9:8f:09:d2:a7:68:43:6a:74:6a:43:f6:80:31:
         b7:5a:c9:29:2f:f4:a5:55:66:97:64:cf:3f:b0:41:0d:2f:f0:
         8f:8e:1a:eb:d0:a0:9e:90:ad:e7:6b:74:dc:f3:3d:6e:9c:70:
         d6:ba:ab:1f:97:f0:04:2f:75:cc:fb:53:bb:b8:39:bf:29:98:
         b1:0e:a3:a0:d6:f7:8c:03:15:83:be:fa:c0:da:45:4e:8b:90:
         32:e9:26:30:77:6e:68:a3:8a:41:ec:00:53:bc:07:60:60:66:
         f7:24:13:52:4a:c7:93:bf:a5:b5:7c:9f:77:21:62:93:e2:0e:
         d1:74:2d:dc:79:ef:57:a2:e4:10:ad:93:34:51:fa:20:0d:0f:
         65:ca:90:29
-----BEGIN CERTIFICATE-----
MIIDeDCCAmCgAwIBAgIRAIkp7jtC+FPaETgEN7tWA38wDQYJKoZIhvcNAQELBQAw
FjEUMBIGA1UEAwwLdGVhbTE4NS1uZXQwHhcNMjIwNTE4MTg1OTMyWhcNMjUwNTAy
MTg1OTMyWjAZMRcwFQYDVQQDDA50ZWFtMTg1LXNlcnZlcjCCASIwDQYJKoZIhvcN
AQEBBQADggEPADCCAQoCggEBANJOGLU8D+TgtRA9aMIjODNcZHPO6gWJ6OmbsZVb
gS3bMKrTZbL8gZQh2bK9jHLYKu8UPVjgqeTUV00irs6JKKCwUbL8/T8UuWDCXRWQ
WbQ95+ibQxWKc4L+6/nOLBzgddGtL4lkArz6sOZ/8gjr0GevVjPrJzvyfGStKpBe
eIgzsBH5+Ybm99IJqEhkTYVG+5CFwmPBa9kv1k3MqhlQNELKEyqM0rNbpXUFSKWS
o/SJiy4nHAtsGLYJrzLwGUqYSZt2tDMGrN4v4R2nHHwyVLZO5R69tIGNZ9cSb7YW
FrIk3nu7SljTEbWVrKECIXG3PkhN9PTzCQD1FnRP8UNm0nUCAwEAAaOBvTCBujAJ
BgNVHRMEAjAAMB0GA1UdDgQWBBTVSkJqDIwqDl10VlJOiS1Umg/VtDBRBgNVHSME
SjBIgBRi5zlTKA2o5WjlQfYGoOrQL7YV4qEapBgwFjEUMBIGA1UEAwwLdGVhbTE4
NS1uZXSCFDfcYCJ316rc5cp71EHFnVZBPTkpMBMGA1UdJQQMMAoGCCsGAQUFBwMB
MAsGA1UdDwQEAwIFoDAZBgNVHREEEjAQgg50ZWFtMTg1LXNlcnZlcjANBgkqhkiG
9w0BAQsFAAOCAQEARpxFRFFNWMc3SQ9zGpVe/TDf9Cvg3Gf1ELRJpbkiAE3HKDAs
e/+jk8F1/W3HgurmUXyEuRroJb/BzTngjO9bexQkSz7ErP6MNyKVMCjg3R5HWR18
41+KxxcMpP0gXg3x6VCh+nLSFaRMvyzZkM3+ufmPCdKnaENqdGpD9oAxt1rJKS/0
pVVml2TPP7BBDS/wj44a69CgnpCt52t03PM9bpxw1rqrH5fwBC91zPtTu7g5vymY
sQ6joNb3jAMVg776wNpFTouQMukmMHduaKOKQewAU7wHYGBm9yQTUkrHk7+ltXyf
dyFik+IO0XQt3HnvV6LkEK2TNFH6IA0PZcqQKQ==
-----END CERTIFICATE-----
