Certificate:
    Data:
        Version: 3 (0x2)
        Serial Number:
            fb:58:de:99:5b:72:88:5d:ff:da:f3:7b:cb:e9:e3:f7
        Signature Algorithm: sha256WithRSAEncryption
        Issuer: CN=team383-net
        Validity
            Not Before: May 18 20:54:10 2022 GMT
            Not After : May  2 20:54:10 2025 GMT
        Subject: CN=team383-server
        Subject Public Key Info:
            Public Key Algorithm: rsaEncryption
                RSA Public-Key: (2048 bit)
                Modulus:
                    00:b8:b6:67:ab:28:37:87:66:94:89:1c:de:3c:bc:
                    df:96:66:ff:19:2b:41:8d:54:cb:2f:39:5d:16:73:
                    ef:f8:91:9e:9f:61:6a:bd:e1:87:e3:22:76:68:29:
                    e0:94:21:48:7f:40:25:2e:92:db:c6:6f:8d:fc:49:
                    3b:7a:35:8a:4d:52:e3:dd:a6:9c:aa:49:d1:57:93:
                    cc:e7:6e:32:94:47:a1:5c:e2:e0:6e:cf:0f:8b:bb:
                    e3:f6:34:26:2c:89:d0:56:02:3d:b6:db:cb:aa:dc:
                    99:1f:d7:bd:8a:c8:74:f7:9a:7d:94:3f:ba:2c:cd:
                    86:33:16:71:57:01:fe:21:8a:35:a5:51:83:39:d0:
                    b9:02:7f:2f:f1:0d:37:45:c9:0c:de:86:74:a8:7c:
                    01:b4:ba:7a:95:3b:c3:e7:bc:1f:41:04:c7:e2:7f:
                    b0:c7:94:dc:3e:0e:84:15:c3:d6:64:60:2b:83:6a:
                    be:b0:59:5b:9e:29:77:9d:81:13:81:e3:84:3c:81:
                    50:a3:8e:1d:c5:af:b3:14:8d:03:71:8c:c2:15:90:
                    d8:21:11:8b:84:14:30:78:39:0c:b2:57:c1:45:8a:
                    ee:d0:c1:ab:2c:22:1e:1d:fd:ac:ad:19:07:91:7e:
                    d0:ad:d9:e2:29:d6:0c:72:a6:2a:d7:09:43:96:8e:
                    27:b1
                Exponent: 65537 (0x10001)
        X509v3 extensions:
            X509v3 Basic Constraints: 
                CA:FALSE
            X509v3 Subject Key Identifier: 
                05:E0:80:BA:5D:78:FC:AA:EB:11:0C:C0:4D:E7:D6:42:54:64:5D:53
            X509v3 Authority Key Identifier: 
                keyid:C8:5F:6A:79:89:35:47:A4:AD:8A:6D:B9:A8:C1:CC:F4:CE:75:29:E1
                DirName:/CN=team383-net
                serial:62:71:B2:23:B7:92:D0:88:58:D9:DC:51:A2:6B:B4:A2:F7:F4:76:62

            X509v3 Extended Key Usage: 
                TLS Web Server Authentication
            X509v3 Key Usage: 
                Digital Signature, Key Encipherment
            X509v3 Subject Alternative Name: 
                DNS:team383-server
    Signature Algorithm: sha256WithRSAEncryption
         b7:45:cd:e4:c6:19:a2:49:82:fc:af:97:d9:9f:2d:77:c5:9f:
         c9:f5:4c:e2:96:d1:1b:87:4a:f1:41:50:5f:79:5f:8a:06:1e:
         15:f0:e8:54:4c:a2:71:1b:7f:e9:47:0b:29:2c:71:1e:c7:6f:
         33:1f:af:43:0c:76:d0:be:b9:ab:fe:f1:2d:67:5b:af:b5:7d:
         89:a4:3c:b2:7a:10:45:e3:f7:17:b5:c2:24:97:db:16:9f:00:
         28:dc:18:94:2f:ab:00:02:fc:25:b5:99:bb:7c:37:1d:fc:a1:
         5e:f3:30:12:47:5b:32:a5:41:19:7a:dd:b5:43:5b:35:2a:4a:
         9c:bc:9a:0c:9c:a1:91:18:12:3e:43:15:77:65:d7:be:7f:47:
         1f:59:c5:f8:af:3c:12:47:06:ea:65:b9:2f:b0:e5:ad:89:30:
         a2:97:f5:c2:61:28:9f:15:f4:b9:21:b0:ba:82:47:76:45:6e:
         85:40:b3:cc:f4:fd:56:3f:31:d9:68:b6:f1:96:06:69:94:45:
         90:b6:8d:1a:ec:80:52:aa:89:df:51:58:96:e3:de:0d:0c:b8:
         34:f2:96:76:ef:6b:8c:cb:62:be:41:08:70:9b:5f:1c:ef:9d:
         07:bc:d6:38:fb:e0:68:6b:af:29:a6:eb:f5:3c:61:4b:51:a7:
         ef:1a:65:bc
-----BEGIN CERTIFICATE-----
MIIDeDCCAmCgAwIBAgIRAPtY3plbcohd/9rze8vp4/cwDQYJKoZIhvcNAQELBQAw
FjEUMBIGA1UEAwwLdGVhbTM4My1uZXQwHhcNMjIwNTE4MjA1NDEwWhcNMjUwNTAy
MjA1NDEwWjAZMRcwFQYDVQQDDA50ZWFtMzgzLXNlcnZlcjCCASIwDQYJKoZIhvcN
AQEBBQADggEPADCCAQoCggEBALi2Z6soN4dmlIkc3jy835Zm/xkrQY1Uyy85XRZz
7/iRnp9har3hh+Midmgp4JQhSH9AJS6S28ZvjfxJO3o1ik1S492mnKpJ0VeTzOdu
MpRHoVzi4G7PD4u74/Y0JiyJ0FYCPbbby6rcmR/XvYrIdPeafZQ/uizNhjMWcVcB
/iGKNaVRgznQuQJ/L/ENN0XJDN6GdKh8AbS6epU7w+e8H0EEx+J/sMeU3D4OhBXD
1mRgK4NqvrBZW54pd52BE4HjhDyBUKOOHcWvsxSNA3GMwhWQ2CERi4QUMHg5DLJX
wUWK7tDBqywiHh39rK0ZB5F+0K3Z4inWDHKmKtcJQ5aOJ7ECAwEAAaOBvTCBujAJ
BgNVHRMEAjAAMB0GA1UdDgQWBBQF4IC6XXj8qusRDMBN59ZCVGRdUzBRBgNVHSME
SjBIgBTIX2p5iTVHpK2Kbbmowcz0znUp4aEapBgwFjEUMBIGA1UEAwwLdGVhbTM4
My1uZXSCFGJxsiO3ktCIWNncUaJrtKL39HZiMBMGA1UdJQQMMAoGCCsGAQUFBwMB
MAsGA1UdDwQEAwIFoDAZBgNVHREEEjAQgg50ZWFtMzgzLXNlcnZlcjANBgkqhkiG
9w0BAQsFAAOCAQEAt0XN5MYZokmC/K+X2Z8td8WfyfVM4pbRG4dK8UFQX3lfigYe
FfDoVEyicRt/6UcLKSxxHsdvMx+vQwx20L65q/7xLWdbr7V9iaQ8snoQReP3F7XC
JJfbFp8AKNwYlC+rAAL8JbWZu3w3HfyhXvMwEkdbMqVBGXrdtUNbNSpKnLyaDJyh
kRgSPkMVd2XXvn9HH1nF+K88EkcG6mW5L7DlrYkwopf1wmEonxX0uSGwuoJHdkVu
hUCzzPT9Vj8x2Wi28ZYGaZRFkLaNGuyAUqqJ31FYluPeDQy4NPKWdu9rjMtivkEI
cJtfHO+dB7zWOPvgaGuvKabr9TxhS1Gn7xplvA==
-----END CERTIFICATE-----
