Certificate:
    Data:
        Version: 3 (0x2)
        Serial Number:
            ed:a9:ae:78:b6:81:3d:7d:3d:7c:a8:7a:75:16:81:b3
        Signature Algorithm: sha256WithRSAEncryption
        Issuer: CN=team73-net
        Validity
            Not Before: May 18 14:32:20 2022 GMT
            Not After : May  2 14:32:20 2025 GMT
        Subject: CN=team73-client
        Subject Public Key Info:
            Public Key Algorithm: rsaEncryption
                RSA Public-Key: (2048 bit)
                Modulus:
                    00:98:04:0d:88:a0:88:d4:79:22:d3:fd:99:02:7e:
                    63:af:ec:04:94:d9:d2:74:07:e0:f5:8b:e2:56:59:
                    55:0d:28:7b:7b:20:31:85:6f:b2:d1:07:54:64:90:
                    20:e5:72:ba:39:ea:83:51:fa:b6:36:92:66:09:32:
                    4a:79:de:a1:41:a6:a4:94:f9:ef:c9:2e:d1:ed:36:
                    f2:45:50:e5:6c:06:7c:6b:e8:e1:c7:77:c5:f2:18:
                    f3:99:14:fe:ed:a9:56:51:af:b9:a9:20:88:95:d4:
                    9d:c0:0e:14:5a:ab:98:6e:d9:50:b5:fb:ad:65:bd:
                    70:79:ba:5c:ab:d3:6a:58:9a:c0:1d:e0:9d:9d:39:
                    9f:bf:af:0e:e5:d8:87:bc:1a:4d:a7:80:66:6d:ee:
                    49:6e:4f:45:5d:f1:0d:1a:64:2d:24:65:fb:c3:c8:
                    ba:a0:f7:a1:55:78:fc:61:d4:7f:de:29:2c:59:da:
                    de:83:93:45:57:82:7f:c4:cc:3a:66:e5:ad:30:22:
                    5a:61:83:9f:f0:1a:6d:72:40:a2:83:a8:4e:90:2d:
                    01:4c:9a:c8:d2:28:a7:e0:1a:ae:5c:a2:03:12:fe:
                    62:0b:7e:c9:12:36:f7:bb:30:b0:c2:ab:a2:95:11:
                    83:91:15:dd:64:37:58:96:16:eb:f0:f8:9b:79:e7:
                    bb:13
                Exponent: 65537 (0x10001)
        X509v3 extensions:
            X509v3 Basic Constraints: 
                CA:FALSE
            X509v3 Subject Key Identifier: 
                C8:01:81:84:9F:AF:90:87:74:FE:AF:32:DC:DB:9F:97:71:05:D3:EB
            X509v3 Authority Key Identifier: 
                keyid:7F:42:04:C2:7D:9D:CE:E8:70:77:37:AC:9A:EA:6D:DE:1E:3E:24:20
                DirName:/CN=team73-net
                serial:15:F3:B8:37:CA:7B:E1:35:11:0B:62:E4:A3:40:8C:C1:F0:22:D7:46

            X509v3 Extended Key Usage: 
                TLS Web Client Authentication
            X509v3 Key Usage: 
                Digital Signature
    Signature Algorithm: sha256WithRSAEncryption
         9d:50:3c:ff:ab:c3:d4:e4:2a:d9:fa:0d:f7:a8:1f:f1:ff:c5:
         43:9d:57:dd:c1:55:43:83:43:eb:6c:df:e7:cc:53:69:63:c0:
         d7:ce:4a:b7:8c:56:c4:c1:43:fa:74:55:59:04:d9:41:82:12:
         80:02:64:cb:23:a9:7e:64:36:1e:ae:c4:17:ed:1f:9c:d4:61:
         cd:6c:5f:9d:7c:47:9a:5d:2b:4a:3f:b9:7e:27:e9:d0:16:45:
         bc:16:5a:fa:ce:39:7a:60:17:36:ce:88:a6:a3:56:aa:8b:b7:
         36:9e:27:c0:ad:7c:7d:8c:d2:3d:92:00:a4:9c:6b:52:14:6b:
         70:68:13:ee:d2:45:47:d3:ee:1a:ac:3e:20:d4:48:69:0f:8e:
         d3:e9:e1:7b:e1:cb:c3:60:05:1a:b7:e3:43:77:c3:39:26:34:
         b3:b6:81:a6:8e:60:23:8c:41:71:24:80:12:0f:22:16:59:15:
         bc:1f:62:79:7b:eb:6a:60:b7:58:4b:2a:f2:3a:99:27:09:d5:
         6c:d0:24:36:2d:45:9e:c7:c0:27:95:5f:3a:88:31:99:64:93:
         1b:c6:e1:c8:c7:1f:3d:33:7b:a4:be:d4:e8:45:b3:ce:10:09:
         a7:e3:94:b7:8c:2f:54:fb:2f:66:2b:81:2a:ef:81:42:3f:fc:
         66:cb:71:6d
-----BEGIN CERTIFICATE-----
MIIDWjCCAkKgAwIBAgIRAO2prni2gT19PXyoenUWgbMwDQYJKoZIhvcNAQELBQAw
FTETMBEGA1UEAwwKdGVhbTczLW5ldDAeFw0yMjA1MTgxNDMyMjBaFw0yNTA1MDIx
NDMyMjBaMBgxFjAUBgNVBAMMDXRlYW03My1jbGllbnQwggEiMA0GCSqGSIb3DQEB
AQUAA4IBDwAwggEKAoIBAQCYBA2IoIjUeSLT/ZkCfmOv7ASU2dJ0B+D1i+JWWVUN
KHt7IDGFb7LRB1RkkCDlcro56oNR+rY2kmYJMkp53qFBpqSU+e/JLtHtNvJFUOVs
Bnxr6OHHd8XyGPOZFP7tqVZRr7mpIIiV1J3ADhRaq5hu2VC1+61lvXB5ulyr02pY
msAd4J2dOZ+/rw7l2Ie8Gk2ngGZt7kluT0Vd8Q0aZC0kZfvDyLqg96FVePxh1H/e
KSxZ2t6Dk0VXgn/EzDpm5a0wIlphg5/wGm1yQKKDqE6QLQFMmsjSKKfgGq5cogMS
/mILfskSNve7MLDCq6KVEYORFd1kN1iWFuvw+Jt557sTAgMBAAGjgaEwgZ4wCQYD
VR0TBAIwADAdBgNVHQ4EFgQUyAGBhJ+vkId0/q8y3Nufl3EF0+swUAYDVR0jBEkw
R4AUf0IEwn2dzuhwdzesmupt3h4+JCChGaQXMBUxEzARBgNVBAMMCnRlYW03My1u
ZXSCFBXzuDfKe+E1EQti5KNAjMHwItdGMBMGA1UdJQQMMAoGCCsGAQUFBwMCMAsG
A1UdDwQEAwIHgDANBgkqhkiG9w0BAQsFAAOCAQEAnVA8/6vD1OQq2foN96gf8f/F
Q51X3cFVQ4ND62zf58xTaWPA185Kt4xWxMFD+nRVWQTZQYISgAJkyyOpfmQ2Hq7E
F+0fnNRhzWxfnXxHml0rSj+5fifp0BZFvBZa+s45emAXNs6IpqNWqou3Np4nwK18
fYzSPZIApJxrUhRrcGgT7tJFR9PuGqw+INRIaQ+O0+nhe+HLw2AFGrfjQ3fDOSY0
s7aBpo5gI4xBcSSAEg8iFlkVvB9ieXvramC3WEsq8jqZJwnVbNAkNi1FnsfAJ5Vf
OogxmWSTG8bhyMcfPTN7pL7U6EWzzhAJp+OUt4wvVPsvZiuBKu+BQj/8ZstxbQ==
-----END CERTIFICATE-----
