Certificate:
    Data:
        Version: 3 (0x2)
        Serial Number:
            df:b1:43:08:35:86:bd:9f:01:c5:e2:78:12:d6:a8:62
        Signature Algorithm: sha256WithRSAEncryption
        Issuer: CN=team469-net
        Validity
            Not Before: May 18 21:27:42 2022 GMT
            Not After : May  2 21:27:42 2025 GMT
        Subject: CN=team469-server
        Subject Public Key Info:
            Public Key Algorithm: rsaEncryption
                RSA Public-Key: (2048 bit)
                Modulus:
                    00:c2:d3:14:13:12:10:b3:3b:b4:b0:61:80:85:8b:
                    2c:32:6c:96:e9:9a:0b:7d:01:ee:d6:cf:2d:28:b9:
                    aa:9d:30:d2:81:11:aa:4b:6c:02:70:63:13:6d:d4:
                    59:05:cd:5a:2b:ca:b0:fe:b8:61:17:bb:3a:10:cd:
                    23:6f:68:62:af:d9:45:fe:46:a5:9f:3f:40:19:a9:
                    d2:a7:71:22:71:e9:2b:1d:94:47:ac:62:62:e2:ec:
                    7c:70:75:a8:9b:01:a3:16:63:36:bb:bd:9c:55:09:
                    3a:92:6b:1c:ac:ec:e1:0a:82:c7:d1:dc:0f:b2:a4:
                    11:c2:01:4a:82:66:84:a0:2c:59:a6:05:94:68:66:
                    38:c8:5e:50:39:63:3e:f7:af:76:e7:43:92:73:08:
                    3e:56:1d:8a:ed:06:4a:a7:44:3c:69:76:ec:4d:cc:
                    d9:c7:ff:a6:45:91:72:75:4c:b5:df:7b:57:14:f9:
                    a7:7e:b5:44:7f:53:ed:7f:02:de:36:17:10:84:27:
                    39:20:31:3a:60:67:cb:e2:fc:35:14:cb:a0:dc:03:
                    9b:9d:96:42:06:b5:4e:c7:c3:64:2a:17:89:40:c3:
                    a2:a6:81:7b:b6:3b:ae:2c:cd:24:a3:a4:63:ef:9d:
                    d8:00:0e:42:fa:63:70:5a:6e:de:5d:15:f3:8c:81:
                    b1:d1
                Exponent: 65537 (0x10001)
        X509v3 extensions:
            X509v3 Basic Constraints: 
                CA:FALSE
            X509v3 Subject Key Identifier: 
                C2:A0:58:2F:C9:84:F4:13:F4:E2:CE:2C:45:25:09:13:9F:DE:9B:DA
            X509v3 Authority Key Identifier: 
                keyid:41:34:32:CD:F1:A9:58:84:A7:B7:D5:24:86:86:31:0E:CE:48:39:0B
                DirName:/CN=team469-net
                serial:2C:AB:DB:35:A5:3E:73:17:5A:E4:FE:8E:54:DA:C8:93:27:70:DA:F0

            X509v3 Extended Key Usage: 
                TLS Web Server Authentication
            X509v3 Key Usage: 
                Digital Signature, Key Encipherment
            X509v3 Subject Alternative Name: 
                DNS:team469-server
    Signature Algorithm: sha256WithRSAEncryption
         75:4f:bb:02:18:fa:ce:b0:0a:9a:2d:0c:7d:70:87:2c:d7:94:
         15:30:ef:7e:36:b6:e7:ca:d5:50:13:f5:eb:81:43:a5:cf:67:
         68:7a:7b:3c:cc:a0:ea:f6:59:75:9d:de:f1:fc:27:1b:44:f5:
         c1:a1:91:2f:ea:3f:f0:98:8a:41:b1:4e:da:75:0e:8d:b7:a5:
         9e:cd:3e:5f:6e:ce:c2:09:1e:c9:14:2e:64:c6:42:e4:10:63:
         c2:66:ff:17:df:23:22:01:4c:d7:25:71:04:9b:2f:f0:84:fb:
         bf:a5:2d:3d:61:7a:d1:e0:c1:21:f4:2c:b0:5b:07:04:ed:14:
         77:e2:f5:fe:c7:d1:fe:83:43:b6:4b:3d:cc:a9:ea:d1:06:0e:
         b3:6d:1c:d9:7d:8c:60:d5:99:f8:c1:1e:e0:4c:24:f2:83:3d:
         e7:d7:39:d6:10:42:5f:6a:93:40:bc:73:c0:37:6c:9d:bd:d6:
         5f:c8:fe:15:e0:c1:11:6e:27:cd:7e:da:a9:1e:2d:d8:5b:e6:
         25:d3:d2:06:d8:2a:d1:91:f9:42:00:e0:b7:fd:ff:6a:7f:97:
         9c:cc:32:82:8f:ac:38:97:4f:6f:58:91:34:52:5d:8b:ed:c5:
         37:bf:b2:96:a6:2b:a5:80:27:17:ff:43:c3:64:01:7d:34:2a:
         1a:cd:54:c5
-----BEGIN CERTIFICATE-----
MIIDeDCCAmCgAwIBAgIRAN+xQwg1hr2fAcXieBLWqGIwDQYJKoZIhvcNAQELBQAw
FjEUMBIGA1UEAwwLdGVhbTQ2OS1uZXQwHhcNMjIwNTE4MjEyNzQyWhcNMjUwNTAy
MjEyNzQyWjAZMRcwFQYDVQQDDA50ZWFtNDY5LXNlcnZlcjCCASIwDQYJKoZIhvcN
AQEBBQADggEPADCCAQoCggEBAMLTFBMSELM7tLBhgIWLLDJslumaC30B7tbPLSi5
qp0w0oERqktsAnBjE23UWQXNWivKsP64YRe7OhDNI29oYq/ZRf5GpZ8/QBmp0qdx
InHpKx2UR6xiYuLsfHB1qJsBoxZjNru9nFUJOpJrHKzs4QqCx9HcD7KkEcIBSoJm
hKAsWaYFlGhmOMheUDljPvevdudDknMIPlYdiu0GSqdEPGl27E3M2cf/pkWRcnVM
td97VxT5p361RH9T7X8C3jYXEIQnOSAxOmBny+L8NRTLoNwDm52WQga1TsfDZCoX
iUDDoqaBe7Y7rizNJKOkY++d2AAOQvpjcFpu3l0V84yBsdECAwEAAaOBvTCBujAJ
BgNVHRMEAjAAMB0GA1UdDgQWBBTCoFgvyYT0E/TizixFJQkTn96b2jBRBgNVHSME
SjBIgBRBNDLN8alYhKe31SSGhjEOzkg5C6EapBgwFjEUMBIGA1UEAwwLdGVhbTQ2
OS1uZXSCFCyr2zWlPnMXWuT+jlTayJMncNrwMBMGA1UdJQQMMAoGCCsGAQUFBwMB
MAsGA1UdDwQEAwIFoDAZBgNVHREEEjAQgg50ZWFtNDY5LXNlcnZlcjANBgkqhkiG
9w0BAQsFAAOCAQEAdU+7Ahj6zrAKmi0MfXCHLNeUFTDvfja258rVUBP164FDpc9n
aHp7PMyg6vZZdZ3e8fwnG0T1waGRL+o/8JiKQbFO2nUOjbelns0+X27OwgkeyRQu
ZMZC5BBjwmb/F98jIgFM1yVxBJsv8IT7v6UtPWF60eDBIfQssFsHBO0Ud+L1/sfR
/oNDtks9zKnq0QYOs20c2X2MYNWZ+MEe4Ewk8oM959c51hBCX2qTQLxzwDdsnb3W
X8j+FeDBEW4nzX7aqR4t2FvmJdPSBtgq0ZH5QgDgt/3/an+XnMwygo+sOJdPb1iR
NFJdi+3FN7+ylqYrpYAnF/9Dw2QBfTQqGs1UxQ==
-----END CERTIFICATE-----
