Certificate:
    Data:
        Version: 3 (0x2)
        Serial Number:
            71:3a:f3:82:af:d0:6b:df:1c:b2:db:17:df:9d:76:66
        Signature Algorithm: sha256WithRSAEncryption
        Issuer: CN=team12-net
        Validity
            Not Before: May 18 13:58:59 2022 GMT
            Not After : May  2 13:58:59 2025 GMT
        Subject: CN=team12-server
        Subject Public Key Info:
            Public Key Algorithm: rsaEncryption
                RSA Public-Key: (2048 bit)
                Modulus:
                    00:d4:40:9f:20:7d:66:5c:a2:5a:8c:16:2f:cd:5b:
                    99:33:3d:4e:c4:34:0b:3f:d7:fd:35:72:a1:7a:e3:
                    58:34:90:12:6e:c0:56:45:24:e5:20:2f:64:85:4e:
                    a0:14:b1:1a:09:57:63:e4:03:fd:cb:87:ae:f1:c6:
                    0f:87:44:2e:2c:bd:ae:b9:4d:2b:c2:1f:9e:d4:b9:
                    a5:bb:62:9b:ff:8b:41:6d:6b:32:b2:3c:a1:91:d2:
                    5e:7c:e7:f3:7c:f7:a0:9b:cd:7d:e8:50:ca:60:60:
                    1e:00:8b:bf:b5:c6:36:6d:ba:74:47:1d:10:41:ca:
                    f4:36:b5:03:05:dd:a5:9c:65:43:98:0f:9e:f1:20:
                    0d:34:bd:d6:14:df:4a:e8:00:47:12:8e:65:39:b1:
                    fe:21:31:07:c3:8e:6f:54:86:53:6b:f5:64:3c:c1:
                    36:cc:5e:f1:cc:f5:f4:e3:cc:4f:14:f8:94:0a:12:
                    b8:c9:24:f5:75:b8:0b:f8:3e:d4:9b:64:15:1a:1b:
                    c7:43:69:d1:ed:7c:4e:4b:f9:6b:56:ce:36:64:dc:
                    85:34:4f:a4:d7:15:22:54:ac:da:a1:c5:dc:9a:2b:
                    e9:7e:bf:8c:cc:c0:7f:4d:e6:60:a6:61:bb:d8:17:
                    17:25:04:86:7a:b2:21:fb:07:68:ca:c9:8a:9e:d1:
                    5f:b3
                Exponent: 65537 (0x10001)
        X509v3 extensions:
            X509v3 Basic Constraints: 
                CA:FALSE
            X509v3 Subject Key Identifier: 
                20:F2:BA:77:40:AE:A4:C1:77:7B:BF:A4:D4:13:BE:D9:03:05:FD:66
            X509v3 Authority Key Identifier: 
                keyid:2C:E6:72:75:CE:F5:42:3C:F3:7E:D2:31:D0:BE:4C:06:BD:7E:28:4F
                DirName:/CN=team12-net
                serial:39:8D:9D:DD:78:22:23:22:EB:AB:17:3E:56:CA:21:17:F7:DE:70:C3

            X509v3 Extended Key Usage: 
                TLS Web Server Authentication
            X509v3 Key Usage: 
                Digital Signature, Key Encipherment
            X509v3 Subject Alternative Name: 
                DNS:team12-server
    Signature Algorithm: sha256WithRSAEncryption
         04:36:b8:ba:d4:88:22:ab:5c:6f:56:55:d9:02:5c:ab:aa:b5:
         39:12:4c:8a:82:2c:08:08:37:a5:e2:84:d9:05:9f:24:b6:72:
         d7:59:ba:64:24:9f:a2:22:f0:b1:5a:41:37:52:42:61:3c:00:
         3e:a5:79:45:c7:56:d6:d7:ce:0a:ae:c2:72:cf:d5:e5:ae:f4:
         6b:a4:e1:58:82:a7:10:2f:4e:b6:c5:e1:9d:e5:b5:3a:82:e6:
         5b:05:cb:e8:06:d6:85:0c:6a:1f:15:21:db:ba:69:da:35:f0:
         8c:56:60:11:39:98:f1:df:95:a0:a6:f9:30:a8:0e:f0:8c:08:
         32:ed:ec:ad:11:fd:4f:c9:d1:0e:5b:2c:84:84:67:d0:e4:91:
         84:75:5f:5d:b5:3c:41:b0:94:f0:7d:5a:34:cb:28:5b:2c:4e:
         39:2d:71:66:e5:7f:85:de:6e:44:c0:85:49:b2:2e:be:a4:96:
         9a:3b:02:34:aa:8e:56:b5:b4:cc:bd:ff:5c:f6:fe:fc:ab:98:
         d5:31:90:91:9d:4b:e0:79:81:16:30:1b:c5:f4:c3:33:c0:18:
         66:08:71:76:d8:70:c8:ba:07:d0:24:03:98:0d:a0:d6:fe:9f:
         0e:86:9d:ae:23:4d:7d:f8:7b:05:ee:ce:02:c0:39:73:b1:7e:
         43:ec:6c:eb
-----BEGIN CERTIFICATE-----
MIIDczCCAlugAwIBAgIQcTrzgq/Qa98cstsX3512ZjANBgkqhkiG9w0BAQsFADAV
MRMwEQYDVQQDDAp0ZWFtMTItbmV0MB4XDTIyMDUxODEzNTg1OVoXDTI1MDUwMjEz
NTg1OVowGDEWMBQGA1UEAwwNdGVhbTEyLXNlcnZlcjCCASIwDQYJKoZIhvcNAQEB
BQADggEPADCCAQoCggEBANRAnyB9ZlyiWowWL81bmTM9TsQ0Cz/X/TVyoXrjWDSQ
Em7AVkUk5SAvZIVOoBSxGglXY+QD/cuHrvHGD4dELiy9rrlNK8IfntS5pbtim/+L
QW1rMrI8oZHSXnzn83z3oJvNfehQymBgHgCLv7XGNm26dEcdEEHK9Da1AwXdpZxl
Q5gPnvEgDTS91hTfSugARxKOZTmx/iExB8OOb1SGU2v1ZDzBNsxe8cz19OPMTxT4
lAoSuMkk9XW4C/g+1JtkFRobx0Np0e18Tkv5a1bONmTchTRPpNcVIlSs2qHF3Jor
6X6/jMzAf03mYKZhu9gXFyUEhnqyIfsHaMrJip7RX7MCAwEAAaOBuzCBuDAJBgNV
HRMEAjAAMB0GA1UdDgQWBBQg8rp3QK6kwXd7v6TUE77ZAwX9ZjBQBgNVHSMESTBH
gBQs5nJ1zvVCPPN+0jHQvkwGvX4oT6EZpBcwFTETMBEGA1UEAwwKdGVhbTEyLW5l
dIIUOY2d3XgiIyLrqxc+VsohF/fecMMwEwYDVR0lBAwwCgYIKwYBBQUHAwEwCwYD
VR0PBAQDAgWgMBgGA1UdEQQRMA+CDXRlYW0xMi1zZXJ2ZXIwDQYJKoZIhvcNAQEL
BQADggEBAAQ2uLrUiCKrXG9WVdkCXKuqtTkSTIqCLAgIN6XihNkFnyS2ctdZumQk
n6Ii8LFaQTdSQmE8AD6leUXHVtbXzgquwnLP1eWu9Guk4ViCpxAvTrbF4Z3ltTqC
5lsFy+gG1oUMah8VIdu6ado18IxWYBE5mPHflaCm+TCoDvCMCDLt7K0R/U/J0Q5b
LISEZ9DkkYR1X121PEGwlPB9WjTLKFssTjktcWblf4XebkTAhUmyLr6klpo7AjSq
jla1tMy9/1z2/vyrmNUxkJGdS+B5gRYwG8X0wzPAGGYIcXbYcMi6B9AkA5gNoNb+
nw6Gna4jTX34ewXuzgLAOXOxfkPsbOs=
-----END CERTIFICATE-----
