Certificate:
    Data:
        Version: 3 (0x2)
        Serial Number:
            e8:44:13:9c:75:e7:d3:68:60:c0:f4:39:52:74:30:23
        Signature Algorithm: sha256WithRSAEncryption
        Issuer: CN=team359-net
        Validity
            Not Before: May 18 20:33:48 2022 GMT
            Not After : May  2 20:33:48 2025 GMT
        Subject: CN=team359-client
        Subject Public Key Info:
            Public Key Algorithm: rsaEncryption
                RSA Public-Key: (2048 bit)
                Modulus:
                    00:d0:05:34:8f:62:8b:90:33:fb:6b:c5:a6:2a:4d:
                    2f:e1:e6:ad:2f:3c:40:81:04:34:80:e4:0d:1e:5b:
                    94:34:a5:cb:ba:3c:df:c2:64:11:45:c2:07:d2:d0:
                    68:b6:54:45:85:bd:e5:50:cf:1f:41:56:66:1d:c8:
                    22:43:58:82:f4:de:ee:0e:5c:ed:0f:7c:4b:e1:70:
                    98:5a:44:27:a3:60:e5:cb:e7:72:69:c3:61:29:28:
                    ab:45:38:2d:40:ad:72:30:33:79:d9:3e:b6:93:db:
                    f0:af:09:49:bd:84:49:9c:9c:64:22:1d:41:89:3e:
                    e7:7d:55:09:08:ad:92:9b:36:db:8e:33:c3:00:5b:
                    3e:ed:7a:c6:6b:aa:32:d2:81:f8:f7:ab:53:5b:46:
                    5c:77:99:d0:4c:02:e8:03:c6:4f:eb:3c:82:15:aa:
                    65:fd:af:79:99:52:9c:ca:3e:fd:9f:a5:01:b2:e5:
                    1f:76:bf:de:47:04:34:0d:19:1f:32:2b:c9:2b:1b:
                    70:2b:0e:e3:de:f1:79:93:ce:04:34:37:78:71:5d:
                    62:ea:5e:c6:b9:ae:f7:34:f5:83:3a:15:ff:a6:da:
                    44:9b:ef:b2:a2:de:a6:df:80:74:c6:19:7a:1d:24:
                    e5:6a:4b:9e:93:b2:b1:79:6b:73:28:a6:30:51:35:
                    7e:5d
                Exponent: 65537 (0x10001)
        X509v3 extensions:
            X509v3 Basic Constraints: 
                CA:FALSE
            X509v3 Subject Key Identifier: 
                CA:DE:E2:D2:BD:12:31:FC:2C:D9:E4:4A:FD:38:E7:66:83:C2:3E:65
            X509v3 Authority Key Identifier: 
                keyid:83:C3:2B:C4:E6:2C:D7:82:4A:92:BA:73:B7:95:09:6C:A7:E1:AD:8C
                DirName:/CN=team359-net
                serial:75:99:33:CC:EC:AE:62:33:0F:D6:59:D8:61:1E:79:29:EF:8F:D9:05

            X509v3 Extended Key Usage: 
                TLS Web Client Authentication
            X509v3 Key Usage: 
                Digital Signature
    Signature Algorithm: sha256WithRSAEncryption
         3e:0b:31:12:cc:5b:5f:bd:3a:4c:c1:e6:4e:ee:1a:66:e3:73:
         b3:74:7a:89:f6:3e:41:be:a6:46:12:75:ea:98:13:f1:3f:f5:
         dc:63:0d:ce:4a:bb:d8:33:f6:70:fd:79:01:74:70:fe:f5:98:
         0d:fb:13:cf:91:18:bf:c4:1a:4f:0a:8a:ce:8a:cb:f7:3c:a6:
         9a:70:86:11:73:69:87:05:61:0b:62:82:74:50:7a:ad:21:18:
         b7:9f:5d:6c:ca:f0:21:b6:09:40:4b:70:cb:1d:5d:81:e8:07:
         bc:37:c2:13:73:13:22:f4:a3:87:d1:75:ae:73:d9:f6:e4:be:
         87:43:da:d5:83:64:90:e3:79:e6:53:01:af:b0:3e:92:31:f9:
         b8:9c:c8:a8:1c:83:dc:0b:8c:fa:a4:10:3b:b9:65:08:98:12:
         c1:54:94:96:69:57:a3:5f:b5:e8:a1:08:d7:ea:cf:71:44:1b:
         6a:79:a8:7b:8d:fd:76:40:d6:5d:ed:f7:16:62:86:a4:c4:5a:
         40:e6:99:de:0d:10:7f:dc:0f:11:b2:8e:ef:a7:4f:dc:35:d8:
         62:2c:9c:69:74:07:42:89:bd:92:dc:7b:24:b7:b3:31:06:c2:
         2f:6b:f6:42:6d:a5:f3:89:ff:d2:3d:b9:bf:c4:ce:94:6c:2c:
         4a:94:b8:23
-----BEGIN CERTIFICATE-----
MIIDXTCCAkWgAwIBAgIRAOhEE5x159NoYMD0OVJ0MCMwDQYJKoZIhvcNAQELBQAw
FjEUMBIGA1UEAwwLdGVhbTM1OS1uZXQwHhcNMjIwNTE4MjAzMzQ4WhcNMjUwNTAy
MjAzMzQ4WjAZMRcwFQYDVQQDDA50ZWFtMzU5LWNsaWVudDCCASIwDQYJKoZIhvcN
AQEBBQADggEPADCCAQoCggEBANAFNI9ii5Az+2vFpipNL+HmrS88QIEENIDkDR5b
lDSly7o838JkEUXCB9LQaLZURYW95VDPH0FWZh3IIkNYgvTe7g5c7Q98S+FwmFpE
J6Ng5cvncmnDYSkoq0U4LUCtcjAzedk+tpPb8K8JSb2ESZycZCIdQYk+531VCQit
kps2244zwwBbPu16xmuqMtKB+PerU1tGXHeZ0EwC6APGT+s8ghWqZf2veZlSnMo+
/Z+lAbLlH3a/3kcENA0ZHzIrySsbcCsO497xeZPOBDQ3eHFdYupexrmu9zT1gzoV
/6baRJvvsqLept+AdMYZeh0k5WpLnpOysXlrcyimMFE1fl0CAwEAAaOBojCBnzAJ
BgNVHRMEAjAAMB0GA1UdDgQWBBTK3uLSvRIx/CzZ5Er9OOdmg8I+ZTBRBgNVHSME
SjBIgBSDwyvE5izXgkqSunO3lQlsp+GtjKEapBgwFjEUMBIGA1UEAwwLdGVhbTM1
OS1uZXSCFHWZM8zsrmIzD9ZZ2GEeeSnvj9kFMBMGA1UdJQQMMAoGCCsGAQUFBwMC
MAsGA1UdDwQEAwIHgDANBgkqhkiG9w0BAQsFAAOCAQEAPgsxEsxbX706TMHmTu4a
ZuNzs3R6ifY+Qb6mRhJ16pgT8T/13GMNzkq72DP2cP15AXRw/vWYDfsTz5EYv8Qa
TwqKzorL9zymmnCGEXNphwVhC2KCdFB6rSEYt59dbMrwIbYJQEtwyx1dgegHvDfC
E3MTIvSjh9F1rnPZ9uS+h0Pa1YNkkON55lMBr7A+kjH5uJzIqByD3AuM+qQQO7ll
CJgSwVSUlmlXo1+16KEI1+rPcUQbanmoe439dkDWXe33FmKGpMRaQOaZ3g0Qf9wP
EbKO76dP3DXYYiycaXQHQom9ktx7JLezMQbCL2v2Qm2l84n/0j25v8TOlGwsSpS4
Iw==
-----END CERTIFICATE-----
