Certificate:
    Data:
        Version: 3 (0x2)
        Serial Number:
            56:1c:5f:3c:f0:a3:69:d2:0b:99:ae:86:b9:1b:68:39
        Signature Algorithm: sha256WithRSAEncryption
        Issuer: CN=team551-net
        Validity
            Not Before: May 18 22:20:36 2022 GMT
            Not After : May  2 22:20:36 2025 GMT
        Subject: CN=team551-server
        Subject Public Key Info:
            Public Key Algorithm: rsaEncryption
                RSA Public-Key: (2048 bit)
                Modulus:
                    00:b3:45:04:b0:a7:b8:3f:f6:41:8a:ca:bf:73:07:
                    ac:8a:49:b9:ae:b6:6b:e9:4b:12:71:b9:f3:89:59:
                    17:f5:ea:d5:e6:6d:b0:ee:9c:ad:23:14:f4:1c:50:
                    57:e0:91:5d:d0:58:b2:43:b0:be:72:3d:d5:30:a9:
                    4c:7e:99:c4:f2:79:67:d2:ef:c1:b9:c9:05:0c:1e:
                    c5:7f:66:fa:0d:99:b1:96:0b:9d:98:42:24:b9:cc:
                    2a:1a:d0:a5:d8:19:54:5c:f3:8b:a4:04:73:b7:29:
                    7a:61:71:a9:a0:89:92:4f:10:52:85:e8:30:23:a6:
                    4c:51:e3:d4:91:d4:a5:83:0c:a7:b6:5f:a9:50:59:
                    f2:d1:91:a6:3f:c6:7f:2f:63:5f:39:2a:7d:04:4e:
                    9b:4f:66:a3:52:8f:2f:1e:13:05:e4:5f:c5:98:05:
                    42:1e:cc:fb:0b:70:a0:c6:26:3c:fb:3a:6d:de:d2:
                    b0:77:89:fc:c3:15:c2:74:58:38:9a:e8:1e:73:c5:
                    86:c6:90:fe:ae:d2:a1:85:37:7d:ba:a0:19:d9:f2:
                    96:4d:bb:b9:a4:47:b1:b9:cb:14:4d:10:7e:55:73:
                    5d:d1:c8:b0:fe:f0:03:e2:10:bb:8f:cc:b5:ec:90:
                    a1:c8:7b:7f:7b:6c:b0:4f:6e:69:87:fd:60:17:7e:
                    70:45
                Exponent: 65537 (0x10001)
        X509v3 extensions:
            X509v3 Basic Constraints: 
                CA:FALSE
            X509v3 Subject Key Identifier: 
                01:24:7A:A6:7B:7C:37:D7:52:2E:82:92:93:4F:D4:BE:F6:04:43:70
            X509v3 Authority Key Identifier: 
                keyid:6C:B6:FF:5A:9F:A6:C8:74:41:7A:B8:15:C8:05:F6:6A:5B:EA:08:79
                DirName:/CN=team551-net
                serial:79:91:D5:79:44:E0:54:D3:52:31:B5:7B:10:F3:6F:A6:64:7D:04:18

            X509v3 Extended Key Usage: 
                TLS Web Server Authentication
            X509v3 Key Usage: 
                Digital Signature, Key Encipherment
            X509v3 Subject Alternative Name: 
                DNS:team551-server
    Signature Algorithm: sha256WithRSAEncryption
         32:58:1e:f6:34:ec:f6:97:95:42:b2:55:ab:04:91:70:09:8b:
         68:0c:26:db:cf:b9:04:bb:71:8a:cc:47:d8:60:a9:73:81:c6:
         8b:6a:56:d1:53:05:67:29:58:57:da:e0:64:b8:3f:79:bb:ab:
         45:5a:da:cf:94:d3:5c:d9:aa:ea:77:d0:40:09:4f:3c:d3:aa:
         eb:8c:39:b3:6b:f3:0f:47:34:2c:ad:a5:aa:46:6b:7f:15:14:
         84:8e:18:da:71:82:aa:ed:6b:2a:6c:6f:51:90:ad:c5:60:f2:
         d9:a0:ef:46:56:7f:e1:e9:20:06:82:ac:c2:f9:c5:b2:c6:c0:
         6c:77:41:3d:4b:64:0d:0d:a5:32:0c:c4:bb:39:75:8b:22:12:
         1e:d4:24:42:e9:4b:4b:cb:50:d1:21:b9:7d:bd:9f:23:31:ee:
         e3:01:fd:9d:f8:29:31:9b:33:31:c6:3a:87:13:db:61:d9:18:
         ce:0d:d5:35:2d:cf:c7:63:2e:1e:f5:ed:77:33:3e:9b:a0:6c:
         1e:fc:d9:29:73:ce:45:24:cb:c9:a1:ee:e5:e9:90:3e:8a:67:
         a5:9e:91:e0:eb:02:58:bd:0e:26:0e:27:d6:5e:18:34:71:cc:
         25:37:0b:23:f8:71:67:ec:c9:4b:58:ca:62:86:b0:7d:b0:8f:
         30:c5:73:48
-----BEGIN CERTIFICATE-----
MIIDdzCCAl+gAwIBAgIQVhxfPPCjadILma6GuRtoOTANBgkqhkiG9w0BAQsFADAW
MRQwEgYDVQQDDAt0ZWFtNTUxLW5ldDAeFw0yMjA1MTgyMjIwMzZaFw0yNTA1MDIy
MjIwMzZaMBkxFzAVBgNVBAMMDnRlYW01NTEtc2VydmVyMIIBIjANBgkqhkiG9w0B
AQEFAAOCAQ8AMIIBCgKCAQEAs0UEsKe4P/ZBisq/cwesikm5rrZr6UsScbnziVkX
9erV5m2w7pytIxT0HFBX4JFd0FiyQ7C+cj3VMKlMfpnE8nln0u/BuckFDB7Ff2b6
DZmxlgudmEIkucwqGtCl2BlUXPOLpARztyl6YXGpoImSTxBShegwI6ZMUePUkdSl
gwyntl+pUFny0ZGmP8Z/L2NfOSp9BE6bT2ajUo8vHhMF5F/FmAVCHsz7C3CgxiY8
+zpt3tKwd4n8wxXCdFg4mugec8WGxpD+rtKhhTd9uqAZ2fKWTbu5pEexucsUTRB+
VXNd0ciw/vAD4hC7j8y17JChyHt/e2ywT25ph/1gF35wRQIDAQABo4G9MIG6MAkG
A1UdEwQCMAAwHQYDVR0OBBYEFAEkeqZ7fDfXUi6CkpNP1L72BENwMFEGA1UdIwRK
MEiAFGy2/1qfpsh0QXq4FcgF9mpb6gh5oRqkGDAWMRQwEgYDVQQDDAt0ZWFtNTUx
LW5ldIIUeZHVeUTgVNNSMbV7EPNvpmR9BBgwEwYDVR0lBAwwCgYIKwYBBQUHAwEw
CwYDVR0PBAQDAgWgMBkGA1UdEQQSMBCCDnRlYW01NTEtc2VydmVyMA0GCSqGSIb3
DQEBCwUAA4IBAQAyWB72NOz2l5VCslWrBJFwCYtoDCbbz7kEu3GKzEfYYKlzgcaL
albRUwVnKVhX2uBkuD95u6tFWtrPlNNc2arqd9BACU8806rrjDmza/MPRzQsraWq
Rmt/FRSEjhjacYKq7WsqbG9RkK3FYPLZoO9GVn/h6SAGgqzC+cWyxsBsd0E9S2QN
DaUyDMS7OXWLIhIe1CRC6UtLy1DRIbl9vZ8jMe7jAf2d+CkxmzMxxjqHE9th2RjO
DdU1Lc/HYy4e9e13Mz6boGwe/Nkpc85FJMvJoe7l6ZA+imelnpHg6wJYvQ4mDifW
Xhg0ccwlNwsj+HFn7MlLWMpihrB9sI8wxXNI
-----END CERTIFICATE-----
