Certificate:
    Data:
        Version: 3 (0x2)
        Serial Number:
            45:87:6f:e8:59:d3:96:e3:a8:8c:50:f5:0e:d3:18:8f
        Signature Algorithm: sha256WithRSAEncryption
        Issuer: CN=team303-net
        Validity
            Not Before: May 18 20:10:05 2022 GMT
            Not After : May  2 20:10:05 2025 GMT
        Subject: CN=team303-client
        Subject Public Key Info:
            Public Key Algorithm: rsaEncryption
                RSA Public-Key: (2048 bit)
                Modulus:
                    00:d6:b0:01:3b:53:e4:7b:63:81:29:d6:e0:8f:2e:
                    31:7e:50:8d:a3:d1:43:0b:4d:99:62:20:e0:8a:9a:
                    3d:b9:60:2b:f0:2e:b4:61:4b:7b:87:b2:77:7e:b6:
                    75:ed:2a:7a:0a:e1:05:cd:b4:40:ac:4a:f1:4b:14:
                    a9:d9:f3:58:2e:54:c6:8a:58:0a:3c:af:5d:d3:c8:
                    54:37:68:0d:7c:77:ad:a3:64:0e:bc:54:d0:55:f0:
                    d4:90:ed:d9:92:7a:66:81:10:68:9e:d5:14:d4:f5:
                    7c:8e:25:48:7a:84:74:44:ce:94:eb:0f:0e:9a:fa:
                    c3:d1:91:88:02:5d:91:49:cf:16:40:5a:9b:57:14:
                    1b:92:92:02:9f:73:f0:73:41:8e:ce:f2:bd:7a:13:
                    5e:83:96:2c:9c:9b:7a:c1:30:9b:2d:a4:eb:fd:76:
                    09:cc:0e:52:20:28:d2:33:22:02:63:c7:15:36:2b:
                    dd:5e:5d:31:70:1f:05:3e:1f:b3:44:9d:fc:2e:be:
                    72:29:f1:a7:78:34:fd:21:ed:dd:c2:c4:9e:ed:02:
                    63:e6:ff:76:07:e7:40:e2:57:bd:6b:87:38:2c:7e:
                    2b:90:fb:1c:80:62:46:e2:04:57:14:0d:07:7b:78:
                    8d:c7:6d:a0:3c:b8:0c:6b:56:02:fc:74:d4:41:01:
                    68:d1
                Exponent: 65537 (0x10001)
        X509v3 extensions:
            X509v3 Basic Constraints: 
                CA:FALSE
            X509v3 Subject Key Identifier: 
                F1:AB:BA:B6:09:16:F6:53:1D:C2:99:24:2C:6D:D0:DD:DC:D8:7C:2E
            X509v3 Authority Key Identifier: 
                keyid:6D:28:A7:A0:A2:7D:28:C5:7C:CA:75:83:78:F7:5A:5E:2A:4E:88:0E
                DirName:/CN=team303-net
                serial:3F:AB:84:13:FC:1F:B1:D2:AB:83:A6:4E:98:0C:09:ED:08:85:F8:5C

            X509v3 Extended Key Usage: 
                TLS Web Client Authentication
            X509v3 Key Usage: 
                Digital Signature
    Signature Algorithm: sha256WithRSAEncryption
         ee:d4:db:00:8b:30:af:ad:09:3d:04:d5:8b:72:a0:aa:2b:89:
         0d:32:d9:b7:87:f6:67:b8:8b:18:0c:0e:48:ba:fc:d0:10:2a:
         3c:73:ec:38:5b:00:5e:a0:6c:a7:2f:75:4a:b2:ea:62:a9:bf:
         39:f0:bb:ae:4d:e7:50:38:e6:6a:33:10:1e:3f:6e:11:fb:7b:
         a5:08:84:4f:a5:46:33:80:f3:46:2a:66:78:bf:4f:e7:7a:d3:
         52:af:eb:bd:c6:fd:ed:22:dd:70:25:f5:a1:95:63:b9:78:27:
         6e:59:ef:01:0d:ef:88:6e:25:37:b6:1b:d5:aa:d9:d7:cd:a3:
         83:dd:07:75:41:ba:8f:2c:d0:93:01:4c:36:76:f3:8a:f9:22:
         de:2c:df:9a:bd:c0:6c:c2:68:d4:d4:22:59:c5:e5:04:eb:49:
         98:f1:bc:90:7f:87:d5:14:a3:41:42:e1:2e:46:8b:56:c4:18:
         e5:15:27:f5:d2:f6:b2:2b:9a:76:43:bc:a8:81:a9:9b:14:6d:
         9e:bf:e4:5a:34:a1:ab:30:b8:2a:9c:6c:ad:be:b6:e6:2a:f5:
         a5:7e:6f:82:5e:f5:b1:2a:d5:d5:a4:c0:c8:6c:15:e5:3a:14:
         11:38:ea:65:5a:89:7e:3e:8c:5a:5c:66:fd:f8:89:d2:e4:35:
         58:cb:ed:e5
-----BEGIN CERTIFICATE-----
MIIDXDCCAkSgAwIBAgIQRYdv6FnTluOojFD1DtMYjzANBgkqhkiG9w0BAQsFADAW
MRQwEgYDVQQDDAt0ZWFtMzAzLW5ldDAeFw0yMjA1MTgyMDEwMDVaFw0yNTA1MDIy
MDEwMDVaMBkxFzAVBgNVBAMMDnRlYW0zMDMtY2xpZW50MIIBIjANBgkqhkiG9w0B
AQEFAAOCAQ8AMIIBCgKCAQEA1rABO1Pke2OBKdbgjy4xflCNo9FDC02ZYiDgipo9
uWAr8C60YUt7h7J3frZ17Sp6CuEFzbRArErxSxSp2fNYLlTGilgKPK9d08hUN2gN
fHeto2QOvFTQVfDUkO3ZknpmgRBontUU1PV8jiVIeoR0RM6U6w8OmvrD0ZGIAl2R
Sc8WQFqbVxQbkpICn3Pwc0GOzvK9ehNeg5YsnJt6wTCbLaTr/XYJzA5SICjSMyIC
Y8cVNivdXl0xcB8FPh+zRJ38Lr5yKfGneDT9Ie3dwsSe7QJj5v92B+dA4le9a4c4
LH4rkPscgGJG4gRXFA0He3iNx22gPLgMa1YC/HTUQQFo0QIDAQABo4GiMIGfMAkG
A1UdEwQCMAAwHQYDVR0OBBYEFPGrurYJFvZTHcKZJCxt0N3c2HwuMFEGA1UdIwRK
MEiAFG0op6CifSjFfMp1g3j3Wl4qTogOoRqkGDAWMRQwEgYDVQQDDAt0ZWFtMzAz
LW5ldIIUP6uEE/wfsdKrg6ZOmAwJ7QiF+FwwEwYDVR0lBAwwCgYIKwYBBQUHAwIw
CwYDVR0PBAQDAgeAMA0GCSqGSIb3DQEBCwUAA4IBAQDu1NsAizCvrQk9BNWLcqCq
K4kNMtm3h/ZnuIsYDA5IuvzQECo8c+w4WwBeoGynL3VKsupiqb858LuuTedQOOZq
MxAeP24R+3ulCIRPpUYzgPNGKmZ4v0/netNSr+u9xv3tIt1wJfWhlWO5eCduWe8B
De+IbiU3thvVqtnXzaOD3Qd1QbqPLNCTAUw2dvOK+SLeLN+avcBswmjU1CJZxeUE
60mY8byQf4fVFKNBQuEuRotWxBjlFSf10vayK5p2Q7yogambFG2ev+RaNKGrMLgq
nGytvrbmKvWlfm+CXvWxKtXVpMDIbBXlOhQROOplWol+PoxaXGb9+InS5DVYy+3l
-----END CERTIFICATE-----
