Certificate:
    Data:
        Version: 3 (0x2)
        Serial Number:
            35:63:83:c3:e5:96:8c:98:b8:3c:ae:09:ac:d3:51:34
        Signature Algorithm: sha256WithRSAEncryption
        Issuer: CN=team733-net
        Validity
            Not Before: May 19 00:04:51 2022 GMT
            Not After : May  3 00:04:51 2025 GMT
        Subject: CN=team733-client
        Subject Public Key Info:
            Public Key Algorithm: rsaEncryption
                RSA Public-Key: (2048 bit)
                Modulus:
                    00:cc:3a:7e:7c:5c:e2:fe:33:cc:a7:4a:ea:4e:cf:
                    0d:1d:56:d6:de:d0:f3:65:5b:84:fa:52:36:14:d2:
                    7d:dc:9e:33:b4:44:ec:a7:93:d3:01:66:c8:34:22:
                    4c:f6:b6:81:75:8f:39:6f:9c:88:00:8b:1d:f7:b7:
                    b0:08:93:1b:7e:d0:c7:3a:69:32:29:70:28:31:00:
                    9d:f0:e1:f3:39:0b:5d:c0:3e:e3:fd:59:96:11:05:
                    ca:ea:36:65:44:f5:84:76:9b:4b:91:3b:78:fc:40:
                    b4:ff:88:0e:c7:a6:a6:31:0c:6e:a0:8c:aa:99:5e:
                    2c:0c:d1:fc:9c:e9:18:06:8c:3e:49:5f:8a:43:dd:
                    f2:3a:1d:67:fd:71:7d:fc:5a:54:12:6c:54:91:dc:
                    41:c7:8f:6f:68:17:ac:7b:84:c7:37:a0:41:4e:94:
                    db:99:8e:03:93:ad:14:a5:0a:7e:13:00:de:4d:f3:
                    2f:dd:49:6e:17:dc:75:74:26:93:bb:83:82:c5:47:
                    4e:79:59:80:d3:66:c5:69:f2:30:52:e2:87:c6:9b:
                    69:f9:20:6d:7f:38:0c:74:00:eb:05:13:b4:0b:63:
                    45:e8:0d:e7:73:e1:92:7e:58:d5:7f:08:b2:17:ce:
                    87:93:6d:bd:7e:be:c7:82:b1:01:70:a3:f5:e9:30:
                    28:4b
                Exponent: 65537 (0x10001)
        X509v3 extensions:
            X509v3 Basic Constraints: 
                CA:FALSE
            X509v3 Subject Key Identifier: 
                3C:FE:6C:F1:83:C4:81:82:24:61:DF:13:88:93:7F:06:49:CA:77:F6
            X509v3 Authority Key Identifier: 
                keyid:33:EF:47:6A:83:09:98:D0:E9:E7:49:4A:39:BB:D4:16:03:64:5E:34
                DirName:/CN=team733-net
                serial:3D:42:F4:D2:48:0C:20:FB:0B:BA:D0:D2:D0:5F:7F:BE:44:C6:B5:81

            X509v3 Extended Key Usage: 
                TLS Web Client Authentication
            X509v3 Key Usage: 
                Digital Signature
    Signature Algorithm: sha256WithRSAEncryption
         97:d9:23:fa:b5:1c:9a:8d:15:89:c7:77:3d:4c:98:7d:76:ca:
         28:5e:ae:a8:1e:79:a2:91:7d:47:a1:34:e9:35:43:86:47:d5:
         1a:f9:95:f9:a7:f4:6f:6b:eb:f7:8d:18:29:2c:7d:d7:d9:59:
         56:90:e9:53:23:a3:09:1d:26:c5:35:24:9a:e6:eb:2a:00:00:
         fe:92:02:c2:a8:a0:f6:83:81:25:21:e1:81:87:36:bd:11:c4:
         1d:09:6c:fd:13:ea:58:60:75:d3:b8:ed:0c:60:62:73:c4:e1:
         a1:ae:fb:01:43:c4:2e:c3:c1:8b:30:c9:82:a9:b3:d3:ff:06:
         67:f7:2f:11:f1:9d:bc:61:13:39:b0:30:26:05:09:94:86:d7:
         bd:c9:a6:11:8e:f1:d0:f5:a9:e2:1b:98:18:72:dd:80:c4:04:
         1d:73:1a:11:ca:ef:ff:9a:76:20:2f:f3:bd:bb:6a:e5:44:42:
         d2:1d:8d:4b:e8:0a:fa:7f:49:96:46:a3:2c:bd:b8:a1:86:e8:
         bd:86:db:d0:ea:3b:41:80:a5:3f:25:ae:07:65:fd:32:e5:3a:
         3d:51:d6:45:85:e7:a2:1a:e4:db:70:c5:62:ad:9d:c0:7f:51:
         67:90:1a:cb:88:96:84:07:1d:67:5b:8b:ad:91:cb:32:16:4d:
         28:a3:c9:1e
-----BEGIN CERTIFICATE-----
MIIDXDCCAkSgAwIBAgIQNWODw+WWjJi4PK4JrNNRNDANBgkqhkiG9w0BAQsFADAW
MRQwEgYDVQQDDAt0ZWFtNzMzLW5ldDAeFw0yMjA1MTkwMDA0NTFaFw0yNTA1MDMw
MDA0NTFaMBkxFzAVBgNVBAMMDnRlYW03MzMtY2xpZW50MIIBIjANBgkqhkiG9w0B
AQEFAAOCAQ8AMIIBCgKCAQEAzDp+fFzi/jPMp0rqTs8NHVbW3tDzZVuE+lI2FNJ9
3J4ztETsp5PTAWbINCJM9raBdY85b5yIAIsd97ewCJMbftDHOmkyKXAoMQCd8OHz
OQtdwD7j/VmWEQXK6jZlRPWEdptLkTt4/EC0/4gOx6amMQxuoIyqmV4sDNH8nOkY
Bow+SV+KQ93yOh1n/XF9/FpUEmxUkdxBx49vaBese4THN6BBTpTbmY4Dk60UpQp+
EwDeTfMv3UluF9x1dCaTu4OCxUdOeVmA02bFafIwUuKHxptp+SBtfzgMdADrBRO0
C2NF6A3nc+GSfljVfwiyF86Hk229fr7HgrEBcKP16TAoSwIDAQABo4GiMIGfMAkG
A1UdEwQCMAAwHQYDVR0OBBYEFDz+bPGDxIGCJGHfE4iTfwZJynf2MFEGA1UdIwRK
MEiAFDPvR2qDCZjQ6edJSjm71BYDZF40oRqkGDAWMRQwEgYDVQQDDAt0ZWFtNzMz
LW5ldIIUPUL00kgMIPsLutDS0F9/vkTGtYEwEwYDVR0lBAwwCgYIKwYBBQUHAwIw
CwYDVR0PBAQDAgeAMA0GCSqGSIb3DQEBCwUAA4IBAQCX2SP6tRyajRWJx3c9TJh9
dsooXq6oHnmikX1HoTTpNUOGR9Ua+ZX5p/Rva+v3jRgpLH3X2VlWkOlTI6MJHSbF
NSSa5usqAAD+kgLCqKD2g4ElIeGBhza9EcQdCWz9E+pYYHXTuO0MYGJzxOGhrvsB
Q8Quw8GLMMmCqbPT/wZn9y8R8Z28YRM5sDAmBQmUhte9yaYRjvHQ9aniG5gYct2A
xAQdcxoRyu//mnYgL/O9u2rlRELSHY1L6Ar6f0mWRqMsvbihhui9htvQ6jtBgKU/
Ja4HZf0y5To9UdZFheeiGuTbcMVirZ3Af1FnkBrLiJaEBx1nW4utkcsyFk0oo8ke
-----END CERTIFICATE-----
