Certificate:
    Data:
        Version: 3 (0x2)
        Serial Number:
            dd:a3:9b:21:a3:ee:d0:d9:be:39:fa:1e:9e:bb:a2:7e
        Signature Algorithm: sha256WithRSAEncryption
        Issuer: CN=team599-net
        Validity
            Not Before: May 18 22:40:24 2022 GMT
            Not After : May  2 22:40:24 2025 GMT
        Subject: CN=team599-client
        Subject Public Key Info:
            Public Key Algorithm: rsaEncryption
                RSA Public-Key: (2048 bit)
                Modulus:
                    00:b5:7e:3a:f7:76:9f:e2:c7:94:b7:c6:27:35:12:
                    d7:0f:a6:0d:22:e5:66:49:ac:74:62:82:76:da:a7:
                    2c:ce:a7:15:68:f8:b6:0f:2e:7c:5e:63:3c:4d:4c:
                    74:d2:cd:90:ef:38:14:6e:e2:d0:9a:ef:b1:26:56:
                    d5:e4:7d:27:11:4f:87:4f:aa:a6:8c:f0:91:4a:ff:
                    43:b9:a1:dc:76:72:92:21:d2:ff:76:9b:a9:09:40:
                    3d:cd:a9:37:13:73:2b:a3:cf:86:e6:19:96:7c:c3:
                    2b:ec:6b:5b:22:2d:8a:29:e3:c5:93:e9:33:b7:92:
                    e1:3d:ac:3e:7b:a9:28:ac:66:f1:eb:91:94:88:7f:
                    73:75:d6:ff:89:0e:16:3a:e0:a0:b5:c9:37:51:71:
                    03:99:c0:7c:2f:2b:96:b6:8f:68:c7:02:00:e5:b6:
                    6d:27:7c:5a:05:d5:ea:52:31:4b:f3:3f:de:95:09:
                    4b:33:03:7b:7a:50:7b:94:cf:e3:9a:e8:97:1c:a5:
                    97:7f:f4:31:44:5b:42:77:ea:d3:24:64:3e:76:b7:
                    48:ea:a4:45:cf:31:d1:21:d9:54:79:1a:3c:08:3c:
                    67:04:bb:fe:71:73:a3:b8:22:ef:29:4f:5f:a7:a3:
                    d6:a0:4c:1d:cc:93:6b:09:23:a6:f3:e7:c6:9f:ed:
                    c3:df
                Exponent: 65537 (0x10001)
        X509v3 extensions:
            X509v3 Basic Constraints: 
                CA:FALSE
            X509v3 Subject Key Identifier: 
                04:CD:A9:84:BF:13:5E:4E:F8:C0:85:C2:74:97:23:F4:DF:D6:1A:2D
            X509v3 Authority Key Identifier: 
                keyid:48:99:FA:DF:22:5A:F9:1A:73:27:DE:C6:40:3B:A3:6B:F8:BF:22:19
                DirName:/CN=team599-net
                serial:7B:6D:CC:7A:FF:20:BD:3E:31:E1:D3:1E:E2:01:05:66:86:ED:A1:6E

            X509v3 Extended Key Usage: 
                TLS Web Client Authentication
            X509v3 Key Usage: 
                Digital Signature
    Signature Algorithm: sha256WithRSAEncryption
         6f:55:66:ce:b1:0d:5f:f9:15:90:98:0b:dc:1a:bb:fd:81:04:
         cd:6c:61:ca:66:14:68:e7:f5:d3:e4:b1:b6:cc:1d:34:c0:e5:
         7c:01:31:bc:d5:bb:b3:50:58:45:03:a8:4b:86:18:59:d9:a3:
         2c:e6:34:b8:1a:d2:b1:ac:91:a8:71:2c:15:72:73:59:44:9f:
         52:0e:49:40:49:29:99:c9:f8:cc:ec:4b:d4:b1:42:8f:3a:e4:
         c3:76:99:9a:34:2c:0a:fa:5b:7c:f9:c3:47:3b:2a:b8:59:b3:
         63:04:6b:57:fe:60:11:74:86:a1:86:bb:03:d1:e2:10:4b:b7:
         29:f7:2b:3d:4d:49:06:b6:95:1c:21:07:a4:ed:5e:45:a3:09:
         70:03:54:8b:82:91:f1:ab:4b:05:4c:a3:e3:98:00:9a:91:a7:
         74:30:eb:86:7b:8d:d4:87:e0:99:3c:3c:d6:39:38:81:bf:e5:
         e7:4d:e1:d3:de:56:a5:35:28:7a:37:1c:f4:34:ba:58:78:b0:
         b3:ab:fd:0c:0d:24:75:c9:7e:2d:25:93:2c:e6:97:89:9c:a1:
         4f:ba:f1:6b:70:d5:de:49:7c:73:bf:4d:19:64:14:f5:a5:53:
         85:00:f2:11:aa:fb:28:15:14:ef:8c:e3:d7:1e:dd:3f:32:f4:
         8f:f4:62:6a
-----BEGIN CERTIFICATE-----
MIIDXTCCAkWgAwIBAgIRAN2jmyGj7tDZvjn6Hp67on4wDQYJKoZIhvcNAQELBQAw
FjEUMBIGA1UEAwwLdGVhbTU5OS1uZXQwHhcNMjIwNTE4MjI0MDI0WhcNMjUwNTAy
MjI0MDI0WjAZMRcwFQYDVQQDDA50ZWFtNTk5LWNsaWVudDCCASIwDQYJKoZIhvcN
AQEBBQADggEPADCCAQoCggEBALV+Ovd2n+LHlLfGJzUS1w+mDSLlZkmsdGKCdtqn
LM6nFWj4tg8ufF5jPE1MdNLNkO84FG7i0JrvsSZW1eR9JxFPh0+qpozwkUr/Q7mh
3HZykiHS/3abqQlAPc2pNxNzK6PPhuYZlnzDK+xrWyItiinjxZPpM7eS4T2sPnup
KKxm8euRlIh/c3XW/4kOFjrgoLXJN1FxA5nAfC8rlraPaMcCAOW2bSd8WgXV6lIx
S/M/3pUJSzMDe3pQe5TP45rolxyll3/0MURbQnfq0yRkPna3SOqkRc8x0SHZVHka
PAg8ZwS7/nFzo7gi7ylPX6ej1qBMHcyTawkjpvPnxp/tw98CAwEAAaOBojCBnzAJ
BgNVHRMEAjAAMB0GA1UdDgQWBBQEzamEvxNeTvjAhcJ0lyP039YaLTBRBgNVHSME
SjBIgBRImfrfIlr5GnMn3sZAO6Nr+L8iGaEapBgwFjEUMBIGA1UEAwwLdGVhbTU5
OS1uZXSCFHttzHr/IL0+MeHTHuIBBWaG7aFuMBMGA1UdJQQMMAoGCCsGAQUFBwMC
MAsGA1UdDwQEAwIHgDANBgkqhkiG9w0BAQsFAAOCAQEAb1VmzrENX/kVkJgL3Bq7
/YEEzWxhymYUaOf10+SxtswdNMDlfAExvNW7s1BYRQOoS4YYWdmjLOY0uBrSsayR
qHEsFXJzWUSfUg5JQEkpmcn4zOxL1LFCjzrkw3aZmjQsCvpbfPnDRzsquFmzYwRr
V/5gEXSGoYa7A9HiEEu3KfcrPU1JBraVHCEHpO1eRaMJcANUi4KR8atLBUyj45gA
mpGndDDrhnuN1IfgmTw81jk4gb/l503h095WpTUoejcc9DS6WHiws6v9DA0kdcl+
LSWTLOaXiZyhT7rxa3DV3kl8c79NGWQU9aVThQDyEar7KBUU74zj1x7dPzL0j/Ri
ag==
-----END CERTIFICATE-----
