Certificate:
    Data:
        Version: 3 (0x2)
        Serial Number:
            ef:39:4a:7b:3a:85:60:6f:ef:c0:48:d7:44:83:24:60
        Signature Algorithm: sha256WithRSAEncryption
        Issuer: CN=team158-net
        Validity
            Not Before: May 18 18:40:27 2022 GMT
            Not After : May  2 18:40:27 2025 GMT
        Subject: CN=team158-server
        Subject Public Key Info:
            Public Key Algorithm: rsaEncryption
                RSA Public-Key: (2048 bit)
                Modulus:
                    00:bd:23:e6:74:f6:54:76:52:18:51:7b:be:12:d5:
                    03:ab:a7:6e:4f:16:56:85:52:c7:8b:ec:97:75:0a:
                    22:da:26:e8:11:fd:51:1e:95:81:6a:3e:54:a4:39:
                    8a:30:89:ed:29:5b:3e:40:98:12:84:2c:74:c7:0d:
                    74:3a:94:90:6f:9c:75:42:92:d3:92:09:f1:b2:5e:
                    0c:ee:77:b5:6f:7d:0d:ed:25:c5:72:8a:35:4c:01:
                    7b:bf:42:67:2f:b7:4c:7b:15:9d:ce:d1:da:d6:e1:
                    8b:eb:ec:88:2c:d9:6a:5b:80:e7:88:31:ab:89:e6:
                    6a:96:bb:45:3d:01:aa:d1:20:6a:e0:01:02:9e:50:
                    9a:e1:36:79:f2:6c:ef:f2:6a:63:97:25:06:a5:b5:
                    07:54:93:e5:2f:cd:6c:ce:cb:11:82:23:fc:dd:e0:
                    96:83:92:85:e8:2e:81:49:0c:dd:c4:ae:1b:25:18:
                    52:67:ac:f2:9d:0d:c5:eb:ee:eb:42:93:28:dc:ea:
                    57:fb:15:26:aa:33:73:f5:d6:c8:38:d3:f5:c2:31:
                    9e:a4:db:4a:79:da:14:59:df:06:ef:60:a6:ac:1f:
                    d2:88:e8:14:7e:ae:46:15:57:6f:ce:b2:0d:63:59:
                    c8:2f:78:c3:67:04:33:d1:e2:6f:2b:ca:14:3b:11:
                    93:5f
                Exponent: 65537 (0x10001)
        X509v3 extensions:
            X509v3 Basic Constraints: 
                CA:FALSE
            X509v3 Subject Key Identifier: 
                29:52:0C:E3:DB:1E:C8:AC:02:6C:DC:FA:FE:16:84:D9:B8:5E:56:90
            X509v3 Authority Key Identifier: 
                keyid:46:60:F2:1F:C3:BA:50:A0:49:87:2C:17:5D:16:25:AE:3B:CB:2C:62
                DirName:/CN=team158-net
                serial:7A:DC:42:47:24:8E:29:21:63:11:02:31:85:13:8B:AE:DB:73:F3:B5

            X509v3 Extended Key Usage: 
                TLS Web Server Authentication
            X509v3 Key Usage: 
                Digital Signature, Key Encipherment
            X509v3 Subject Alternative Name: 
                DNS:team158-server
    Signature Algorithm: sha256WithRSAEncryption
         57:cb:01:e0:77:19:74:e2:f6:09:75:1a:ab:30:e3:bc:f8:81:
         14:ea:ad:94:ad:ee:7a:17:f8:e3:e4:16:b6:ef:f1:93:73:0d:
         61:79:71:3a:24:0c:11:8b:2d:a8:92:42:12:26:48:66:8a:23:
         e2:13:26:7b:6d:cb:48:6b:03:d5:9e:6f:6a:f2:f0:aa:2f:05:
         54:af:46:b8:eb:b9:7c:5f:34:57:ce:36:98:7c:96:c7:06:89:
         73:be:d9:3a:55:de:d3:10:02:6a:36:3c:ca:e6:6b:2a:32:77:
         5d:78:68:36:5e:e1:b6:63:67:ea:83:e2:89:4b:92:85:04:ab:
         db:36:ce:c0:a3:f7:a5:31:80:7c:a3:2a:8a:a0:66:20:9e:72:
         77:80:99:b1:b7:d7:aa:0c:09:3c:03:d1:d2:af:76:d9:74:e7:
         b1:92:5e:53:12:0e:51:65:ff:a2:c9:f3:61:73:30:74:c3:81:
         58:5c:14:11:32:01:e0:b1:64:da:2b:af:78:50:21:2d:03:c3:
         e5:fc:4e:43:61:01:e3:2c:6b:b2:7a:97:11:24:b7:e3:62:e6:
         fd:81:56:1d:b6:c6:10:d5:9c:52:e4:3c:de:e5:95:3f:42:b5:
         ea:41:0b:a1:c0:93:a4:56:fe:53:ec:8d:a2:a2:6a:6c:0a:fa:
         05:ce:3d:1d
-----BEGIN CERTIFICATE-----
MIIDeDCCAmCgAwIBAgIRAO85Sns6hWBv78BI10SDJGAwDQYJKoZIhvcNAQELBQAw
FjEUMBIGA1UEAwwLdGVhbTE1OC1uZXQwHhcNMjIwNTE4MTg0MDI3WhcNMjUwNTAy
MTg0MDI3WjAZMRcwFQYDVQQDDA50ZWFtMTU4LXNlcnZlcjCCASIwDQYJKoZIhvcN
AQEBBQADggEPADCCAQoCggEBAL0j5nT2VHZSGFF7vhLVA6unbk8WVoVSx4vsl3UK
Itom6BH9UR6VgWo+VKQ5ijCJ7SlbPkCYEoQsdMcNdDqUkG+cdUKS05IJ8bJeDO53
tW99De0lxXKKNUwBe79CZy+3THsVnc7R2tbhi+vsiCzZaluA54gxq4nmapa7RT0B
qtEgauABAp5QmuE2efJs7/JqY5clBqW1B1ST5S/NbM7LEYIj/N3gloOShegugUkM
3cSuGyUYUmes8p0Nxevu60KTKNzqV/sVJqozc/XWyDjT9cIxnqTbSnnaFFnfBu9g
pqwf0ojoFH6uRhVXb86yDWNZyC94w2cEM9HibyvKFDsRk18CAwEAAaOBvTCBujAJ
BgNVHRMEAjAAMB0GA1UdDgQWBBQpUgzj2x7IrAJs3Pr+FoTZuF5WkDBRBgNVHSME
SjBIgBRGYPIfw7pQoEmHLBddFiWuO8ssYqEapBgwFjEUMBIGA1UEAwwLdGVhbTE1
OC1uZXSCFHrcQkckjikhYxECMYUTi67bc/O1MBMGA1UdJQQMMAoGCCsGAQUFBwMB
MAsGA1UdDwQEAwIFoDAZBgNVHREEEjAQgg50ZWFtMTU4LXNlcnZlcjANBgkqhkiG
9w0BAQsFAAOCAQEAV8sB4HcZdOL2CXUaqzDjvPiBFOqtlK3uehf44+QWtu/xk3MN
YXlxOiQMEYstqJJCEiZIZooj4hMme23LSGsD1Z5vavLwqi8FVK9GuOu5fF80V842
mHyWxwaJc77ZOlXe0xACajY8yuZrKjJ3XXhoNl7htmNn6oPiiUuShQSr2zbOwKP3
pTGAfKMqiqBmIJ5yd4CZsbfXqgwJPAPR0q922XTnsZJeUxIOUWX/osnzYXMwdMOB
WFwUETIB4LFk2iuveFAhLQPD5fxOQ2EB4yxrsnqXESS342Lm/YFWHbbGENWcUuQ8
3uWVP0K16kELocCTpFb+U+yNoqJqbAr6Bc49HQ==
-----END CERTIFICATE-----
