Certificate:
    Data:
        Version: 3 (0x2)
        Serial Number:
            8f:64:2c:71:71:ef:e8:89:9f:78:20:24:8d:11:28:4e
        Signature Algorithm: sha256WithRSAEncryption
        Issuer: CN=team512-net
        Validity
            Not Before: May 18 21:51:56 2022 GMT
            Not After : May  2 21:51:56 2025 GMT
        Subject: CN=team512-server
        Subject Public Key Info:
            Public Key Algorithm: rsaEncryption
                RSA Public-Key: (2048 bit)
                Modulus:
                    00:d2:7d:78:d0:56:ce:e0:40:13:58:30:51:d5:ac:
                    03:7f:b4:57:71:91:43:1a:cb:7f:b8:ab:99:c4:ad:
                    e7:40:47:6d:23:9b:18:7e:71:37:26:9b:e4:74:99:
                    bc:2e:ce:8c:79:02:7f:4d:67:63:2c:3e:e8:53:95:
                    1d:cd:6d:0d:75:46:9a:92:7e:47:53:bd:4d:2b:c0:
                    19:f5:df:8f:4a:7c:c3:87:f3:34:c7:87:51:bc:c2:
                    3c:7f:7c:e0:4f:f9:36:68:a2:70:31:79:33:5e:fc:
                    53:06:d6:82:2f:e1:82:59:9d:87:91:60:ed:cf:88:
                    fd:a1:12:86:34:d3:7c:0a:f4:ec:82:81:a3:2b:47:
                    e0:aa:58:91:85:09:85:05:09:dd:00:14:16:3e:14:
                    6b:41:d9:21:9a:76:9b:6b:64:e1:c3:a2:27:23:53:
                    2b:a0:69:86:c0:80:3f:17:30:94:4d:18:6e:3e:ca:
                    6e:3b:6c:06:14:31:22:4b:e8:b7:66:8d:2a:f6:c6:
                    76:ba:05:6e:ce:03:11:19:f8:35:91:37:b6:f9:a5:
                    67:ea:54:53:e7:02:93:6b:da:ab:88:b8:21:ef:10:
                    e4:65:08:4f:76:03:62:ea:f3:93:22:34:d6:a5:0a:
                    30:ed:81:e9:8c:b8:87:12:a7:2d:c2:5f:77:8c:d5:
                    c1:d1
                Exponent: 65537 (0x10001)
        X509v3 extensions:
            X509v3 Basic Constraints: 
                CA:FALSE
            X509v3 Subject Key Identifier: 
                02:E6:B1:C1:2B:52:E9:79:33:07:99:A4:F4:23:20:41:19:26:54:07
            X509v3 Authority Key Identifier: 
                keyid:E2:1A:E7:D0:A5:28:E3:07:B5:38:97:15:18:25:9E:FF:D1:C0:B3:EE
                DirName:/CN=team512-net
                serial:53:11:D1:C6:D0:47:3A:0E:37:4C:2C:5C:F4:DE:B3:BA:3D:A2:8A:BB

            X509v3 Extended Key Usage: 
                TLS Web Server Authentication
            X509v3 Key Usage: 
                Digital Signature, Key Encipherment
            X509v3 Subject Alternative Name: 
                DNS:team512-server
    Signature Algorithm: sha256WithRSAEncryption
         30:3b:a5:36:60:88:99:80:d4:f5:33:cd:b5:5f:26:ec:85:5a:
         ab:6c:52:fe:f0:64:a8:a2:7c:56:54:0f:a9:55:56:1a:8d:72:
         c4:61:16:3a:8e:3e:9f:21:a9:c4:41:08:ae:12:76:8c:ba:c7:
         81:3d:1f:a2:a4:0f:30:af:da:fc:75:28:cd:3f:d7:fa:8a:9e:
         89:b0:f5:c9:a2:ce:e8:1d:89:77:2c:46:1c:d1:99:91:03:27:
         37:f3:57:12:b6:29:98:24:2d:9a:b6:3c:cb:2d:92:a2:f2:e2:
         a8:64:86:9f:47:c2:78:65:5f:ce:38:0a:7e:d4:8b:24:be:d7:
         d0:84:cc:dd:6d:00:00:4c:b3:d9:da:82:6c:97:4c:44:e7:d0:
         3b:1b:09:10:89:18:3c:0f:5c:cd:cf:b4:cc:54:a4:16:30:dd:
         f4:24:88:74:3d:9e:18:78:2c:e0:e5:6c:c5:46:21:c0:2e:cc:
         a4:10:e7:16:d5:ee:c7:e8:a0:39:7d:dd:95:8e:1c:f9:6d:ee:
         ae:dc:11:ba:d7:99:d4:ad:fe:4f:67:77:47:08:7f:8b:20:f9:
         fa:db:69:b2:b8:e3:1d:15:4f:24:b1:f5:25:7a:4c:e9:f7:f6:
         4e:65:56:57:e9:8a:e5:9c:26:fb:49:c3:33:c5:c1:33:2f:4c:
         7b:e9:63:c4
-----BEGIN CERTIFICATE-----
MIIDeDCCAmCgAwIBAgIRAI9kLHFx7+iJn3ggJI0RKE4wDQYJKoZIhvcNAQELBQAw
FjEUMBIGA1UEAwwLdGVhbTUxMi1uZXQwHhcNMjIwNTE4MjE1MTU2WhcNMjUwNTAy
MjE1MTU2WjAZMRcwFQYDVQQDDA50ZWFtNTEyLXNlcnZlcjCCASIwDQYJKoZIhvcN
AQEBBQADggEPADCCAQoCggEBANJ9eNBWzuBAE1gwUdWsA3+0V3GRQxrLf7irmcSt
50BHbSObGH5xNyab5HSZvC7OjHkCf01nYyw+6FOVHc1tDXVGmpJ+R1O9TSvAGfXf
j0p8w4fzNMeHUbzCPH984E/5NmiicDF5M178UwbWgi/hglmdh5Fg7c+I/aEShjTT
fAr07IKBoytH4KpYkYUJhQUJ3QAUFj4Ua0HZIZp2m2tk4cOiJyNTK6BphsCAPxcw
lE0Ybj7KbjtsBhQxIkvot2aNKvbGdroFbs4DERn4NZE3tvmlZ+pUU+cCk2vaq4i4
Ie8Q5GUIT3YDYurzkyI01qUKMO2B6Yy4hxKnLcJfd4zVwdECAwEAAaOBvTCBujAJ
BgNVHRMEAjAAMB0GA1UdDgQWBBQC5rHBK1LpeTMHmaT0IyBBGSZUBzBRBgNVHSME
SjBIgBTiGufQpSjjB7U4lxUYJZ7/0cCz7qEapBgwFjEUMBIGA1UEAwwLdGVhbTUx
Mi1uZXSCFFMR0cbQRzoON0wsXPTes7o9ooq7MBMGA1UdJQQMMAoGCCsGAQUFBwMB
MAsGA1UdDwQEAwIFoDAZBgNVHREEEjAQgg50ZWFtNTEyLXNlcnZlcjANBgkqhkiG
9w0BAQsFAAOCAQEAMDulNmCImYDU9TPNtV8m7IVaq2xS/vBkqKJ8VlQPqVVWGo1y
xGEWOo4+nyGpxEEIrhJ2jLrHgT0foqQPMK/a/HUozT/X+oqeibD1yaLO6B2JdyxG
HNGZkQMnN/NXErYpmCQtmrY8yy2SovLiqGSGn0fCeGVfzjgKftSLJL7X0ITM3W0A
AEyz2dqCbJdMROfQOxsJEIkYPA9czc+0zFSkFjDd9CSIdD2eGHgs4OVsxUYhwC7M
pBDnFtXux+igOX3dlY4c+W3urtwRuteZ1K3+T2d3Rwh/iyD5+ttpsrjjHRVPJLH1
JXpM6ff2TmVWV+mK5Zwm+0nDM8XBMy9Me+ljxA==
-----END CERTIFICATE-----
