Certificate:
    Data:
        Version: 3 (0x2)
        Serial Number:
            04:82:65:a5:b6:e4:2c:0f:79:29:38:bf:4b:39:19:9c
        Signature Algorithm: sha256WithRSAEncryption
        Issuer: CN=team548-net
        Validity
            Not Before: May 18 22:11:44 2022 GMT
            Not After : May  2 22:11:44 2025 GMT
        Subject: CN=team548-server
        Subject Public Key Info:
            Public Key Algorithm: rsaEncryption
                RSA Public-Key: (2048 bit)
                Modulus:
                    00:e9:3e:8d:9a:e4:0c:f1:f6:9e:4d:a3:77:f5:af:
                    d2:cd:23:09:2f:e6:02:fa:f6:ef:91:ff:83:3b:87:
                    14:43:82:b3:0f:3b:b9:02:6e:01:f2:5c:bb:f5:32:
                    1f:1c:22:8f:92:46:aa:55:ef:fe:fa:e8:79:18:78:
                    90:99:2c:cf:28:f9:80:30:f2:c1:0b:f5:57:ff:92:
                    01:66:b0:8e:53:bc:2a:fa:84:cb:9e:2f:d2:3c:0a:
                    0f:a2:8b:1a:d1:d2:c5:19:ea:6b:ac:5b:78:f6:3f:
                    65:5d:95:b6:c5:bb:c7:ce:3b:f1:a5:ae:78:58:29:
                    7d:8f:e3:6d:5d:f7:31:23:ad:1d:bf:91:77:d5:96:
                    94:aa:91:a3:a8:3a:2d:2c:cf:24:04:35:c7:ab:7f:
                    e4:41:05:d5:d7:fa:29:f6:33:ff:c7:fc:86:6b:c1:
                    7c:ec:b5:5b:83:d2:f9:7a:a2:d6:7b:2f:31:5f:51:
                    00:14:c0:12:63:64:f4:97:15:5c:ad:42:73:09:48:
                    a7:fb:65:ac:ca:cf:99:29:32:55:b3:4d:96:a8:f1:
                    0b:5c:94:0b:07:d6:01:9c:c1:9f:bf:2c:53:37:73:
                    f2:13:19:c9:3a:c2:6e:f3:51:94:40:6e:7e:49:a7:
                    bf:9b:99:c2:1d:b4:84:f6:cb:0c:d1:92:75:21:02:
                    ea:4f
                Exponent: 65537 (0x10001)
        X509v3 extensions:
            X509v3 Basic Constraints: 
                CA:FALSE
            X509v3 Subject Key Identifier: 
                64:3E:99:0E:A0:5D:B5:36:E1:12:6E:5D:83:5C:B5:94:74:03:DD:1D
            X509v3 Authority Key Identifier: 
                keyid:23:AD:7D:FB:B9:64:07:14:7C:BD:85:4A:B1:1D:2B:C8:05:CC:27:E1
                DirName:/CN=team548-net
                serial:21:90:AD:83:CD:02:6A:DE:A9:F7:06:EF:57:E5:51:22:4E:B6:D6:8A

            X509v3 Extended Key Usage: 
                TLS Web Server Authentication
            X509v3 Key Usage: 
                Digital Signature, Key Encipherment
            X509v3 Subject Alternative Name: 
                DNS:team548-server
    Signature Algorithm: sha256WithRSAEncryption
         7d:78:21:68:4f:c7:06:91:77:44:98:b2:ae:ba:d2:67:be:eb:
         bc:10:8a:4d:fb:b6:f2:3f:41:12:3d:ff:f4:84:c2:1d:5a:36:
         a6:da:dc:2c:91:d2:55:ae:5e:1b:b9:20:07:8d:f2:c5:26:d0:
         9d:3a:ca:5f:5e:39:10:21:dc:c8:6b:76:f7:e2:e5:e8:92:89:
         06:27:a7:3a:ec:3a:ec:f6:25:6f:78:3c:64:1d:5d:c7:d4:99:
         12:93:e6:73:04:72:bb:4e:06:bc:b8:d8:dc:9d:35:82:4b:3b:
         d3:f4:99:12:a3:db:3b:81:91:3d:dc:82:98:3b:3a:4b:1a:00:
         d2:3f:2c:89:f6:b8:01:25:58:c9:3d:d2:fe:dd:74:81:e6:b2:
         66:3a:66:ba:6a:f0:d0:16:21:40:ce:a7:ea:98:f7:89:f9:ea:
         43:c1:c1:c4:db:5e:75:08:cd:1a:ed:80:ba:ad:93:e0:92:62:
         3b:7d:7d:e9:ec:aa:d9:c0:be:4e:be:33:ab:41:42:89:72:b7:
         35:6e:03:a0:3f:e1:a6:9a:d8:22:95:0d:51:fc:d3:f1:ec:41:
         32:1d:49:cf:a5:82:9d:51:09:2f:73:92:41:99:2a:db:d0:93:
         af:d9:12:20:a6:ef:7b:fc:76:2f:e9:89:eb:00:37:03:32:35:
         76:83:a3:59
-----BEGIN CERTIFICATE-----
MIIDdzCCAl+gAwIBAgIQBIJlpbbkLA95KTi/SzkZnDANBgkqhkiG9w0BAQsFADAW
MRQwEgYDVQQDDAt0ZWFtNTQ4LW5ldDAeFw0yMjA1MTgyMjExNDRaFw0yNTA1MDIy
MjExNDRaMBkxFzAVBgNVBAMMDnRlYW01NDgtc2VydmVyMIIBIjANBgkqhkiG9w0B
AQEFAAOCAQ8AMIIBCgKCAQEA6T6NmuQM8faeTaN39a/SzSMJL+YC+vbvkf+DO4cU
Q4KzDzu5Am4B8ly79TIfHCKPkkaqVe/++uh5GHiQmSzPKPmAMPLBC/VX/5IBZrCO
U7wq+oTLni/SPAoPoosa0dLFGeprrFt49j9lXZW2xbvHzjvxpa54WCl9j+NtXfcx
I60dv5F31ZaUqpGjqDotLM8kBDXHq3/kQQXV1/op9jP/x/yGa8F87LVbg9L5eqLW
ey8xX1EAFMASY2T0lxVcrUJzCUin+2Wsys+ZKTJVs02WqPELXJQLB9YBnMGfvyxT
N3PyExnJOsJu81GUQG5+Sae/m5nCHbSE9ssM0ZJ1IQLqTwIDAQABo4G9MIG6MAkG
A1UdEwQCMAAwHQYDVR0OBBYEFGQ+mQ6gXbU24RJuXYNctZR0A90dMFEGA1UdIwRK
MEiAFCOtffu5ZAcUfL2FSrEdK8gFzCfhoRqkGDAWMRQwEgYDVQQDDAt0ZWFtNTQ4
LW5ldIIUIZCtg80Cat6p9wbvV+VRIk621oowEwYDVR0lBAwwCgYIKwYBBQUHAwEw
CwYDVR0PBAQDAgWgMBkGA1UdEQQSMBCCDnRlYW01NDgtc2VydmVyMA0GCSqGSIb3
DQEBCwUAA4IBAQB9eCFoT8cGkXdEmLKuutJnvuu8EIpN+7byP0ESPf/0hMIdWjam
2twskdJVrl4buSAHjfLFJtCdOspfXjkQIdzIa3b34uXokokGJ6c67Drs9iVveDxk
HV3H1JkSk+ZzBHK7Tga8uNjcnTWCSzvT9JkSo9s7gZE93IKYOzpLGgDSPyyJ9rgB
JVjJPdL+3XSB5rJmOma6avDQFiFAzqfqmPeJ+epDwcHE2151CM0a7YC6rZPgkmI7
fX3p7KrZwL5OvjOrQUKJcrc1bgOgP+GmmtgilQ1R/NPx7EEyHUnPpYKdUQkvc5JB
mSrb0JOv2RIgpu97/HYv6YnrADcDMjV2g6NZ
-----END CERTIFICATE-----
