Certificate:
    Data:
        Version: 3 (0x2)
        Serial Number:
            41:fa:08:a2:b2:cf:b3:14:bf:d4:44:e8:d7:ee:f8:ad
        Signature Algorithm: sha256WithRSAEncryption
        Issuer: CN=team571-net
        Validity
            Not Before: May 18 22:23:48 2022 GMT
            Not After : May  2 22:23:48 2025 GMT
        Subject: CN=team571-server
        Subject Public Key Info:
            Public Key Algorithm: rsaEncryption
                RSA Public-Key: (2048 bit)
                Modulus:
                    00:d5:dd:6a:4a:a3:e9:50:10:33:b7:6e:68:18:36:
                    dd:b6:2d:85:17:b4:02:86:8e:55:d6:0d:d9:34:c4:
                    4c:a5:7b:aa:8c:dd:46:21:59:2b:7b:ee:ff:24:7c:
                    1d:b2:4d:94:12:5f:dd:62:aa:1d:d2:dc:5c:e3:33:
                    9c:2f:92:72:0e:f5:64:46:f1:95:34:f3:23:4a:90:
                    d4:ec:ab:bd:63:68:19:e0:89:ca:3f:a3:d3:aa:ad:
                    2a:dd:a1:8b:1c:06:07:29:be:66:d2:b7:4c:2f:8d:
                    b1:e3:d0:03:2a:97:58:46:5c:b7:39:f3:40:14:45:
                    03:85:db:db:cd:52:44:5c:c5:8a:4f:fb:82:42:71:
                    95:7f:13:8d:e8:d6:b8:0a:e0:0a:98:c2:fe:85:7c:
                    06:62:83:95:92:98:00:a0:af:8c:42:8f:a2:bf:a7:
                    75:9f:75:b6:cd:88:f2:3a:4d:42:1a:33:e2:70:a0:
                    28:66:66:ec:d2:ee:55:c4:9e:75:7d:bd:94:de:33:
                    fd:81:8e:c8:e6:cb:0b:a3:09:62:ca:e6:6a:5c:1a:
                    61:1a:2a:34:cd:0c:51:c8:01:3e:9c:1e:5b:f3:73:
                    3f:e4:bf:d4:f2:95:ea:8f:44:0c:dd:3a:93:75:b6:
                    05:e9:af:59:37:a4:c6:a7:7d:79:66:ce:c7:c7:19:
                    49:31
                Exponent: 65537 (0x10001)
        X509v3 extensions:
            X509v3 Basic Constraints: 
                CA:FALSE
            X509v3 Subject Key Identifier: 
                BF:66:51:E0:98:ED:28:D0:40:F2:6F:8F:A5:D6:62:5A:3E:5F:F5:C1
            X509v3 Authority Key Identifier: 
                keyid:FA:D2:54:53:65:BC:37:F9:FE:62:D1:98:C9:9B:7E:4D:1D:38:82:18
                DirName:/CN=team571-net
                serial:13:81:FD:43:B0:A5:55:67:43:17:66:3E:A8:2A:20:89:D2:87:5B:C7

            X509v3 Extended Key Usage: 
                TLS Web Server Authentication
            X509v3 Key Usage: 
                Digital Signature, Key Encipherment
            X509v3 Subject Alternative Name: 
                DNS:team571-server
    Signature Algorithm: sha256WithRSAEncryption
         5a:7a:cf:bc:ea:19:f0:fc:c1:c5:2d:66:a0:b2:9a:85:cf:68:
         dd:ef:c1:82:27:56:94:43:22:c4:7e:ca:d0:d3:24:72:ff:dd:
         58:7f:9e:5e:7f:e4:7f:c5:f7:a0:6d:a5:4b:d9:47:69:50:94:
         8c:9a:a4:19:cb:74:63:a8:82:2e:59:65:87:4e:fc:2a:2c:fd:
         ad:d1:ae:ed:33:ed:19:e7:a2:aa:99:18:54:1a:d1:06:29:37:
         67:17:1b:80:a3:63:ad:29:65:25:9e:3f:a4:ef:be:7a:fd:84:
         e2:83:a1:23:6c:fc:5c:02:9a:f8:8b:41:0b:18:bb:e1:cb:96:
         a7:9e:d4:23:0d:05:a2:6e:57:7a:c2:83:a1:90:7f:f2:cd:bc:
         78:3a:2e:20:ea:04:32:cf:77:6a:1e:3f:0b:dc:03:85:ca:5b:
         7c:a9:d9:59:e3:2f:07:55:8b:d3:c7:a7:24:2f:5d:30:31:ce:
         2c:5e:16:be:ed:06:2e:1d:b4:53:ef:aa:86:71:a4:d5:32:ec:
         18:c2:56:a0:ae:5a:dc:d4:64:97:c4:d3:0d:fd:84:3b:f5:9f:
         40:90:cd:6b:34:18:05:10:8b:1b:27:2e:b0:e3:68:ca:a8:d1:
         4c:f6:e8:df:28:9d:d7:1f:a7:72:f6:f6:e9:20:42:45:ba:4b:
         6b:d3:00:b8
-----BEGIN CERTIFICATE-----
MIIDdzCCAl+gAwIBAgIQQfoIorLPsxS/1ETo1+74rTANBgkqhkiG9w0BAQsFADAW
MRQwEgYDVQQDDAt0ZWFtNTcxLW5ldDAeFw0yMjA1MTgyMjIzNDhaFw0yNTA1MDIy
MjIzNDhaMBkxFzAVBgNVBAMMDnRlYW01NzEtc2VydmVyMIIBIjANBgkqhkiG9w0B
AQEFAAOCAQ8AMIIBCgKCAQEA1d1qSqPpUBAzt25oGDbdti2FF7QCho5V1g3ZNMRM
pXuqjN1GIVkre+7/JHwdsk2UEl/dYqod0txc4zOcL5JyDvVkRvGVNPMjSpDU7Ku9
Y2gZ4InKP6PTqq0q3aGLHAYHKb5m0rdML42x49ADKpdYRly3OfNAFEUDhdvbzVJE
XMWKT/uCQnGVfxON6Na4CuAKmML+hXwGYoOVkpgAoK+MQo+iv6d1n3W2zYjyOk1C
GjPicKAoZmbs0u5VxJ51fb2U3jP9gY7I5ssLowliyuZqXBphGio0zQxRyAE+nB5b
83M/5L/U8pXqj0QM3TqTdbYF6a9ZN6TGp315Zs7HxxlJMQIDAQABo4G9MIG6MAkG
A1UdEwQCMAAwHQYDVR0OBBYEFL9mUeCY7SjQQPJvj6XWYlo+X/XBMFEGA1UdIwRK
MEiAFPrSVFNlvDf5/mLRmMmbfk0dOIIYoRqkGDAWMRQwEgYDVQQDDAt0ZWFtNTcx
LW5ldIIUE4H9Q7ClVWdDF2Y+qCogidKHW8cwEwYDVR0lBAwwCgYIKwYBBQUHAwEw
CwYDVR0PBAQDAgWgMBkGA1UdEQQSMBCCDnRlYW01NzEtc2VydmVyMA0GCSqGSIb3
DQEBCwUAA4IBAQBaes+86hnw/MHFLWagspqFz2jd78GCJ1aUQyLEfsrQ0yRy/91Y
f55ef+R/xfegbaVL2UdpUJSMmqQZy3RjqIIuWWWHTvwqLP2t0a7tM+0Z56KqmRhU
GtEGKTdnFxuAo2OtKWUlnj+k7756/YTig6EjbPxcApr4i0ELGLvhy5anntQjDQWi
bld6woOhkH/yzbx4Oi4g6gQyz3dqHj8L3AOFylt8qdlZ4y8HVYvTx6ckL10wMc4s
Xha+7QYuHbRT76qGcaTVMuwYwlagrlrc1GSXxNMN/YQ79Z9AkM1rNBgFEIsbJy6w
42jKqNFM9ujfKJ3XH6dy9vbpIEJFuktr0wC4
-----END CERTIFICATE-----
