Certificate:
    Data:
        Version: 3 (0x2)
        Serial Number:
            bd:71:8a:ca:b5:97:ae:ab:8d:0b:19:3f:a6:37:26:a3
        Signature Algorithm: sha256WithRSAEncryption
        Issuer: CN=team384-net
        Validity
            Not Before: May 18 20:41:42 2022 GMT
            Not After : May  2 20:41:42 2025 GMT
        Subject: CN=team384-client
        Subject Public Key Info:
            Public Key Algorithm: rsaEncryption
                RSA Public-Key: (2048 bit)
                Modulus:
                    00:e3:ca:5b:29:e5:df:85:3d:36:ff:55:b2:09:ad:
                    ab:dd:a6:88:53:bc:a5:aa:3b:28:ed:64:e8:a2:9b:
                    10:96:f0:23:1a:06:d9:6f:d8:34:95:ea:b0:d8:23:
                    56:f7:b7:ae:c9:44:90:82:6b:00:45:bf:16:da:00:
                    ca:bd:3f:de:e1:85:96:6f:45:17:65:4f:4e:6c:08:
                    a2:c9:0c:44:c6:5d:56:f6:f6:a2:51:ca:4c:34:06:
                    1c:9c:40:e9:62:c8:28:f0:a9:24:cb:3c:96:bb:d4:
                    cb:5d:bb:9e:5e:40:4b:2c:a7:74:b6:1d:f8:1e:40:
                    90:b1:cd:33:ee:b2:ed:df:b8:1c:79:ac:46:33:25:
                    c0:46:61:df:5c:72:5a:13:1e:b5:40:9b:1b:eb:0f:
                    37:bc:a3:9f:14:77:76:44:89:0f:51:97:19:d1:43:
                    d6:a8:50:53:c1:a6:08:c2:ac:b6:2d:e7:08:f3:ef:
                    bc:55:47:e7:8b:ab:c1:07:ce:eb:75:d1:3a:7a:2c:
                    21:b3:e6:96:06:c3:9a:51:c4:c7:2e:83:02:72:3b:
                    e0:75:9c:01:3e:71:c8:55:09:99:1c:ab:74:c8:d1:
                    3a:eb:8c:fb:8a:a2:12:a4:56:46:2a:6a:30:9c:5c:
                    c4:75:ca:94:97:1d:96:24:64:0a:f6:75:6a:79:79:
                    d5:9b
                Exponent: 65537 (0x10001)
        X509v3 extensions:
            X509v3 Basic Constraints: 
                CA:FALSE
            X509v3 Subject Key Identifier: 
                8F:1E:70:88:D9:14:E5:74:69:79:85:8D:0D:DC:E4:AA:2C:4E:08:20
            X509v3 Authority Key Identifier: 
                keyid:AC:F4:84:98:4F:E2:E5:ED:C8:41:5C:4D:70:75:F4:3B:69:DE:5B:DA
                DirName:/CN=team384-net
                serial:0A:39:28:92:90:EA:2E:04:75:A7:E5:0A:52:E7:9A:68:45:51:E4:35

            X509v3 Extended Key Usage: 
                TLS Web Client Authentication
            X509v3 Key Usage: 
                Digital Signature
    Signature Algorithm: sha256WithRSAEncryption
         60:0f:fe:15:07:3e:54:2f:a7:fd:72:d6:26:40:25:a3:51:f7:
         7d:97:08:e6:86:a9:8f:7d:ca:3c:a7:3e:41:0c:ea:90:ac:09:
         70:56:e6:cf:3a:6a:71:bd:f3:64:5a:60:99:4e:b2:4e:55:2b:
         8c:16:d6:d0:2e:47:e6:b0:f4:f4:ee:ee:7b:d3:9a:c6:e0:0a:
         e1:f1:e2:b4:8f:3f:2d:7c:72:a9:38:39:65:b6:71:bf:1b:1e:
         08:cb:d7:2c:0f:f6:7f:21:44:47:65:f0:99:02:fb:89:44:b2:
         78:ab:7c:a7:32:e5:bc:c1:54:48:ed:6e:d2:6a:d6:dc:f9:eb:
         05:59:1a:b4:12:9e:ab:39:30:c4:4d:74:81:9e:01:0e:8d:ef:
         a3:4d:8c:8e:82:b5:3a:79:50:79:50:f5:57:c6:77:d6:b1:30:
         50:d6:47:26:95:c6:1c:8b:e5:05:e9:52:2f:7c:f1:30:43:77:
         27:80:a8:fd:53:3d:3e:5e:3a:87:66:77:ed:b7:e1:97:93:31:
         20:c2:97:8d:25:97:71:8b:f5:eb:48:93:e6:07:b6:ee:f9:18:
         ce:54:81:3c:94:1b:1e:64:ce:b0:0d:7e:bf:4b:cd:5b:52:6c:
         45:30:27:2e:d4:3e:8b:90:1f:5e:92:9e:52:6f:8b:32:6c:31:
         48:09:9b:e2
-----BEGIN CERTIFICATE-----
MIIDXTCCAkWgAwIBAgIRAL1xisq1l66rjQsZP6Y3JqMwDQYJKoZIhvcNAQELBQAw
FjEUMBIGA1UEAwwLdGVhbTM4NC1uZXQwHhcNMjIwNTE4MjA0MTQyWhcNMjUwNTAy
MjA0MTQyWjAZMRcwFQYDVQQDDA50ZWFtMzg0LWNsaWVudDCCASIwDQYJKoZIhvcN
AQEBBQADggEPADCCAQoCggEBAOPKWynl34U9Nv9Vsgmtq92miFO8pao7KO1k6KKb
EJbwIxoG2W/YNJXqsNgjVve3rslEkIJrAEW/FtoAyr0/3uGFlm9FF2VPTmwIoskM
RMZdVvb2olHKTDQGHJxA6WLIKPCpJMs8lrvUy127nl5ASyyndLYd+B5AkLHNM+6y
7d+4HHmsRjMlwEZh31xyWhMetUCbG+sPN7yjnxR3dkSJD1GXGdFD1qhQU8GmCMKs
ti3nCPPvvFVH54urwQfO63XROnosIbPmlgbDmlHExy6DAnI74HWcAT5xyFUJmRyr
dMjROuuM+4qiEqRWRipqMJxcxHXKlJcdliRkCvZ1anl51ZsCAwEAAaOBojCBnzAJ
BgNVHRMEAjAAMB0GA1UdDgQWBBSPHnCI2RTldGl5hY0N3OSqLE4IIDBRBgNVHSME
SjBIgBSs9ISYT+Ll7chBXE1wdfQ7ad5b2qEapBgwFjEUMBIGA1UEAwwLdGVhbTM4
NC1uZXSCFAo5KJKQ6i4EdaflClLnmmhFUeQ1MBMGA1UdJQQMMAoGCCsGAQUFBwMC
MAsGA1UdDwQEAwIHgDANBgkqhkiG9w0BAQsFAAOCAQEAYA/+FQc+VC+n/XLWJkAl
o1H3fZcI5oapj33KPKc+QQzqkKwJcFbmzzpqcb3zZFpgmU6yTlUrjBbW0C5H5rD0
9O7ue9OaxuAK4fHitI8/LXxyqTg5ZbZxvxseCMvXLA/2fyFER2XwmQL7iUSyeKt8
pzLlvMFUSO1u0mrW3PnrBVkatBKeqzkwxE10gZ4BDo3vo02MjoK1OnlQeVD1V8Z3
1rEwUNZHJpXGHIvlBelSL3zxMEN3J4Co/VM9Pl46h2Z37bfhl5MxIMKXjSWXcYv1
60iT5ge27vkYzlSBPJQbHmTOsA1+v0vNW1JsRTAnLtQ+i5AfXpKeUm+LMmwxSAmb
4g==
-----END CERTIFICATE-----
