Certificate:
    Data:
        Version: 3 (0x2)
        Serial Number:
            4c:3b:dd:86:00:36:de:ef:22:6f:17:3b:d3:78:31:86
        Signature Algorithm: sha256WithRSAEncryption
        Issuer: CN=team64-net
        Validity
            Not Before: May 18 14:30:27 2022 GMT
            Not After : May  2 14:30:27 2025 GMT
        Subject: CN=team64-server
        Subject Public Key Info:
            Public Key Algorithm: rsaEncryption
                RSA Public-Key: (2048 bit)
                Modulus:
                    00:b2:93:7b:a7:e7:3c:19:0b:e0:e4:1a:f2:fe:c3:
                    36:4e:bd:86:8b:d8:5c:7a:d1:df:34:1e:91:cf:6d:
                    6f:f5:0a:79:02:35:6d:0c:b6:b6:31:ef:4d:5b:ba:
                    a1:68:92:4e:33:88:94:91:a5:3e:f5:d7:3a:e8:1f:
                    2c:48:fe:02:1f:b8:ab:35:9b:70:06:96:36:15:20:
                    b6:6f:f2:e6:8d:ba:4a:98:28:00:6f:fd:32:ea:40:
                    ff:3f:ef:1e:d8:ad:92:43:d2:c4:1a:6b:04:26:1f:
                    6a:18:d0:75:75:49:1a:27:2c:38:de:4c:31:1b:8a:
                    eb:6c:ba:67:65:70:89:52:44:93:40:23:19:6e:8f:
                    b0:d6:38:a2:16:99:18:92:8b:b2:53:bf:93:1a:ad:
                    db:f7:ba:7d:b8:5f:c8:ea:02:a6:cb:da:36:f5:f1:
                    79:27:40:8a:9d:00:6d:61:1e:8a:27:d9:fd:6d:ff:
                    5c:3f:d1:d9:d9:15:22:94:81:ee:28:a8:d3:72:e2:
                    7b:7c:c1:21:34:b0:6e:39:fa:1b:77:45:e2:66:c0:
                    dd:24:60:c4:fc:9b:62:58:02:0f:5c:34:b7:c0:5a:
                    d8:8f:60:e3:72:77:f5:08:66:ce:69:6f:90:82:95:
                    3e:22:13:63:4e:de:f2:ca:e8:af:f2:2d:10:a5:e8:
                    69:49
                Exponent: 65537 (0x10001)
        X509v3 extensions:
            X509v3 Basic Constraints: 
                CA:FALSE
            X509v3 Subject Key Identifier: 
                CC:71:14:5C:2F:D2:D0:39:F6:CF:89:F7:95:93:3C:8B:47:A9:49:9B
            X509v3 Authority Key Identifier: 
                keyid:84:2D:29:10:82:2E:9B:DC:6C:9F:94:FF:B3:5F:39:95:D1:56:AF:35
                DirName:/CN=team64-net
                serial:25:C6:41:C1:B1:34:91:D2:31:CF:31:B9:15:7E:F7:7E:7B:C1:7C:FE

            X509v3 Extended Key Usage: 
                TLS Web Server Authentication
            X509v3 Key Usage: 
                Digital Signature, Key Encipherment
            X509v3 Subject Alternative Name: 
                DNS:team64-server
    Signature Algorithm: sha256WithRSAEncryption
         7f:1a:b4:51:f6:ac:98:bb:3b:2c:5e:c7:ac:d6:21:04:9b:a0:
         d3:f3:60:9f:1f:4e:eb:0e:ed:43:05:38:c9:50:3a:57:d0:51:
         ce:87:86:d5:6e:88:b3:ee:67:6f:27:5a:f5:f1:49:d6:46:04:
         11:12:1e:6f:14:1c:41:72:68:97:63:3f:6b:fb:cd:1d:8a:5e:
         b9:08:06:54:f9:5d:09:8c:82:63:53:83:81:2c:34:54:4f:a5:
         9e:be:c2:7c:81:62:63:58:a0:59:51:28:9d:4f:9b:b6:65:e3:
         80:47:2a:e7:50:51:b3:10:37:3f:ef:6c:ea:b9:0a:a6:40:96:
         88:72:cc:8b:ea:f3:8b:f4:80:52:b5:12:5b:6f:d5:94:1c:92:
         3f:cb:a8:b2:4b:d4:06:af:a9:b0:60:6a:af:d9:27:d9:4b:6b:
         3d:5d:1a:70:8f:c0:44:5a:b2:84:58:ea:52:40:f6:e7:16:85:
         a7:8a:19:63:10:26:93:3a:cb:64:c6:c8:34:6e:cf:8a:1d:1c:
         f5:e8:57:22:5d:9c:e7:ae:92:cc:ed:e2:7e:3c:39:04:0a:53:
         1b:48:ce:b9:51:eb:07:da:03:94:1e:3d:87:19:fd:4e:30:c6:
         f8:99:f4:3a:91:9d:59:6e:07:22:65:c1:e0:c3:44:62:7f:47:
         a2:e9:3c:3e
-----BEGIN CERTIFICATE-----
MIIDczCCAlugAwIBAgIQTDvdhgA23u8ibxc703gxhjANBgkqhkiG9w0BAQsFADAV
MRMwEQYDVQQDDAp0ZWFtNjQtbmV0MB4XDTIyMDUxODE0MzAyN1oXDTI1MDUwMjE0
MzAyN1owGDEWMBQGA1UEAwwNdGVhbTY0LXNlcnZlcjCCASIwDQYJKoZIhvcNAQEB
BQADggEPADCCAQoCggEBALKTe6fnPBkL4OQa8v7DNk69hovYXHrR3zQekc9tb/UK
eQI1bQy2tjHvTVu6oWiSTjOIlJGlPvXXOugfLEj+Ah+4qzWbcAaWNhUgtm/y5o26
SpgoAG/9MupA/z/vHtitkkPSxBprBCYfahjQdXVJGicsON5MMRuK62y6Z2VwiVJE
k0AjGW6PsNY4ohaZGJKLslO/kxqt2/e6fbhfyOoCpsvaNvXxeSdAip0AbWEeiifZ
/W3/XD/R2dkVIpSB7iio03Lie3zBITSwbjn6G3dF4mbA3SRgxPybYlgCD1w0t8Ba
2I9g43J39QhmzmlvkIKVPiITY07e8sror/ItEKXoaUkCAwEAAaOBuzCBuDAJBgNV
HRMEAjAAMB0GA1UdDgQWBBTMcRRcL9LQOfbPifeVkzyLR6lJmzBQBgNVHSMESTBH
gBSELSkQgi6b3GyflP+zXzmV0VavNaEZpBcwFTETMBEGA1UEAwwKdGVhbTY0LW5l
dIIUJcZBwbE0kdIxzzG5FX73fnvBfP4wEwYDVR0lBAwwCgYIKwYBBQUHAwEwCwYD
VR0PBAQDAgWgMBgGA1UdEQQRMA+CDXRlYW02NC1zZXJ2ZXIwDQYJKoZIhvcNAQEL
BQADggEBAH8atFH2rJi7Oyxex6zWIQSboNPzYJ8fTusO7UMFOMlQOlfQUc6HhtVu
iLPuZ28nWvXxSdZGBBESHm8UHEFyaJdjP2v7zR2KXrkIBlT5XQmMgmNTg4EsNFRP
pZ6+wnyBYmNYoFlRKJ1Pm7Zl44BHKudQUbMQNz/vbOq5CqZAlohyzIvq84v0gFK1
Eltv1ZQckj/LqLJL1AavqbBgaq/ZJ9lLaz1dGnCPwERasoRY6lJA9ucWhaeKGWMQ
JpM6y2TGyDRuz4odHPXoVyJdnOeukszt4n48OQQKUxtIzrlR6wfaA5QePYcZ/U4w
xviZ9DqRnVluByJlweDDRGJ/R6LpPD4=
-----END CERTIFICATE-----
