Certificate:
    Data:
        Version: 3 (0x2)
        Serial Number:
            b1:a2:ef:1c:58:09:1b:78:c1:bb:d0:a6:8c:11:18:ca
        Signature Algorithm: sha256WithRSAEncryption
        Issuer: CN=team64-net
        Validity
            Not Before: May 18 14:30:27 2022 GMT
            Not After : May  2 14:30:27 2025 GMT
        Subject: CN=team64-client
        Subject Public Key Info:
            Public Key Algorithm: rsaEncryption
                RSA Public-Key: (2048 bit)
                Modulus:
                    00:d8:8c:19:a5:0c:f6:f2:34:40:33:44:c1:b6:9b:
                    30:37:c9:28:55:ce:b6:88:64:dc:91:30:ce:34:e2:
                    0f:89:ae:61:b6:60:98:25:36:11:b6:87:3b:f4:4d:
                    04:38:66:05:18:aa:0e:62:1e:d9:a3:14:0e:c5:e1:
                    b4:4d:4c:71:f4:2a:d5:d9:86:33:86:e3:3c:63:f9:
                    b7:46:df:dc:a7:e1:0e:52:76:6a:96:07:74:9a:72:
                    4e:41:52:1f:c9:c9:62:36:84:d7:47:b5:fa:27:38:
                    7e:fa:f3:ba:4b:58:1d:41:c5:25:b2:46:8d:82:b3:
                    98:4f:85:28:02:ed:08:02:45:c8:9e:5d:29:9a:be:
                    0d:f2:3b:9c:a5:ae:20:81:37:0b:0c:ad:cc:1c:56:
                    83:54:ea:db:2a:83:57:59:4a:16:a2:6a:07:7c:15:
                    51:81:ae:3f:12:10:25:0e:3a:09:14:69:96:ee:9e:
                    7e:f8:ec:e6:3b:1a:ad:5e:73:6b:5e:55:2d:d9:dc:
                    50:46:db:bb:89:36:c1:65:cb:8e:6a:6a:52:e9:70:
                    33:06:fc:a2:53:13:c8:4b:25:52:fa:be:b6:cd:89:
                    cb:24:85:3b:e4:8d:08:51:bb:76:7a:a6:c4:07:39:
                    53:ff:5e:1c:23:04:ca:ae:a4:69:4e:88:45:56:51:
                    f7:f9
                Exponent: 65537 (0x10001)
        X509v3 extensions:
            X509v3 Basic Constraints: 
                CA:FALSE
            X509v3 Subject Key Identifier: 
                B0:EB:FB:42:AA:62:B1:BE:D4:16:72:43:47:22:3D:76:03:7B:BF:4F
            X509v3 Authority Key Identifier: 
                keyid:84:2D:29:10:82:2E:9B:DC:6C:9F:94:FF:B3:5F:39:95:D1:56:AF:35
                DirName:/CN=team64-net
                serial:25:C6:41:C1:B1:34:91:D2:31:CF:31:B9:15:7E:F7:7E:7B:C1:7C:FE

            X509v3 Extended Key Usage: 
                TLS Web Client Authentication
            X509v3 Key Usage: 
                Digital Signature
    Signature Algorithm: sha256WithRSAEncryption
         6f:35:35:8c:43:eb:8e:7d:31:03:f8:9f:de:88:00:f2:83:04:
         4b:f8:ee:08:5e:d5:49:4f:7f:94:6d:70:da:45:9d:29:b6:11:
         54:03:17:ac:4b:6f:72:e9:c9:69:80:c0:9c:9b:0b:50:69:cd:
         0c:af:de:31:3c:4b:28:0b:fd:50:99:b5:f3:2e:8a:68:5c:a1:
         b1:ea:64:45:14:03:a2:6b:3f:39:10:fa:90:3c:ee:13:48:4b:
         e2:28:50:d2:87:4a:33:92:72:61:b4:86:a3:56:50:f9:a8:4d:
         39:be:9a:b1:18:b2:a3:08:f1:c5:eb:22:dc:16:f5:32:ce:96:
         04:00:80:39:27:7f:7e:d9:60:ca:6b:6a:6f:15:a3:60:d3:a9:
         8b:26:67:e3:e7:d1:4b:5b:c9:de:83:58:1b:93:88:4b:0f:60:
         af:41:cd:6e:1d:0f:a8:30:e0:a6:9f:e0:72:9e:f6:98:ac:e7:
         a1:81:75:c2:11:30:1f:b4:34:67:ae:d4:fe:09:7b:85:3b:6a:
         06:77:c9:10:14:55:37:b3:df:ba:2d:f5:04:d3:b6:c6:fe:26:
         53:25:76:3b:4a:70:6a:fe:bd:e1:53:df:a9:b9:c6:92:1e:46:
         f7:26:1d:72:4b:10:e3:53:03:d6:40:6e:2d:83:fd:a9:9f:f3:
         45:b1:bb:50
-----BEGIN CERTIFICATE-----
MIIDWjCCAkKgAwIBAgIRALGi7xxYCRt4wbvQpowRGMowDQYJKoZIhvcNAQELBQAw
FTETMBEGA1UEAwwKdGVhbTY0LW5ldDAeFw0yMjA1MTgxNDMwMjdaFw0yNTA1MDIx
NDMwMjdaMBgxFjAUBgNVBAMMDXRlYW02NC1jbGllbnQwggEiMA0GCSqGSIb3DQEB
AQUAA4IBDwAwggEKAoIBAQDYjBmlDPbyNEAzRMG2mzA3yShVzraIZNyRMM404g+J
rmG2YJglNhG2hzv0TQQ4ZgUYqg5iHtmjFA7F4bRNTHH0KtXZhjOG4zxj+bdG39yn
4Q5SdmqWB3Sack5BUh/JyWI2hNdHtfonOH7687pLWB1BxSWyRo2Cs5hPhSgC7QgC
RcieXSmavg3yO5ylriCBNwsMrcwcVoNU6tsqg1dZShaiagd8FVGBrj8SECUOOgkU
aZbunn747OY7Gq1ec2teVS3Z3FBG27uJNsFly45qalLpcDMG/KJTE8hLJVL6vrbN
icskhTvkjQhRu3Z6psQHOVP/XhwjBMqupGlOiEVWUff5AgMBAAGjgaEwgZ4wCQYD
VR0TBAIwADAdBgNVHQ4EFgQUsOv7Qqpisb7UFnJDRyI9dgN7v08wUAYDVR0jBEkw
R4AUhC0pEIIum9xsn5T/s185ldFWrzWhGaQXMBUxEzARBgNVBAMMCnRlYW02NC1u
ZXSCFCXGQcGxNJHSMc8xuRV+9357wXz+MBMGA1UdJQQMMAoGCCsGAQUFBwMCMAsG
A1UdDwQEAwIHgDANBgkqhkiG9w0BAQsFAAOCAQEAbzU1jEPrjn0xA/if3ogA8oME
S/juCF7VSU9/lG1w2kWdKbYRVAMXrEtvcunJaYDAnJsLUGnNDK/eMTxLKAv9UJm1
8y6KaFyhsepkRRQDoms/ORD6kDzuE0hL4ihQ0odKM5JyYbSGo1ZQ+ahNOb6asRiy
owjxxesi3Bb1Ms6WBACAOSd/ftlgymtqbxWjYNOpiyZn4+fRS1vJ3oNYG5OISw9g
r0HNbh0PqDDgpp/gcp72mKznoYF1whEwH7Q0Z67U/gl7hTtqBnfJEBRVN7Pfui31
BNO2xv4mUyV2O0pwav694VPfqbnGkh5G9yYdcksQ41MD1kBuLYP9qZ/zRbG7UA==
-----END CERTIFICATE-----
