Certificate:
    Data:
        Version: 3 (0x2)
        Serial Number:
            80:fc:2d:67:82:d3:8f:e7:f8:1d:0d:be:49:0d:7a:10
        Signature Algorithm: sha256WithRSAEncryption
        Issuer: CN=team275-net
        Validity
            Not Before: May 18 19:50:32 2022 GMT
            Not After : May  2 19:50:32 2025 GMT
        Subject: CN=team275-client
        Subject Public Key Info:
            Public Key Algorithm: rsaEncryption
                RSA Public-Key: (2048 bit)
                Modulus:
                    00:b5:a3:08:a3:4f:ef:f8:0d:fd:ba:e9:20:51:20:
                    d3:6d:df:af:ce:b3:31:6e:c4:65:cf:9d:89:e9:b2:
                    54:3f:39:a0:05:7d:40:44:e1:8d:09:b5:4b:73:a9:
                    d7:56:e8:7e:4e:b0:f3:bc:20:04:e6:55:cb:6e:db:
                    e4:77:f0:57:46:13:3d:67:c3:d1:71:b0:a4:3f:d3:
                    2e:fe:ca:6c:6d:1d:ef:52:fb:a0:02:e1:70:54:69:
                    75:91:f9:48:39:5a:74:6c:14:6d:9c:73:01:b0:31:
                    58:a0:0b:ef:32:77:0b:a5:1a:7b:55:cc:db:e0:c2:
                    f6:0a:e6:f3:94:34:e7:a1:ee:51:91:78:81:e0:00:
                    7c:7c:e5:18:ba:c7:05:68:a0:01:06:6e:c9:44:17:
                    29:aa:de:33:6d:19:71:ef:4e:f9:fc:5d:bc:85:6a:
                    7d:e8:72:46:de:67:85:1e:6f:24:f0:d2:c7:ae:dc:
                    80:0a:04:be:a7:14:e0:e0:2e:d6:6b:9a:e4:ed:bf:
                    6e:a4:f7:54:64:93:7e:e5:30:5d:34:01:a0:df:29:
                    e6:53:61:36:81:21:f8:a2:1a:0f:fb:c7:2a:0b:a1:
                    51:16:9e:b0:63:dc:ff:19:ce:8d:06:e5:14:94:e9:
                    8b:b2:54:3c:92:3a:28:d8:7d:90:26:b2:9c:b0:78:
                    95:ad
                Exponent: 65537 (0x10001)
        X509v3 extensions:
            X509v3 Basic Constraints: 
                CA:FALSE
            X509v3 Subject Key Identifier: 
                41:70:70:F6:4A:DE:CD:6C:02:5D:07:DE:EB:F6:B6:59:85:D4:54:64
            X509v3 Authority Key Identifier: 
                keyid:E3:4E:27:CD:3D:E2:B8:D6:EE:F1:1E:CC:A7:A0:14:D8:21:95:B2:1A
                DirName:/CN=team275-net
                serial:6E:05:32:51:67:EF:6A:25:50:E7:57:CD:B7:15:FB:71:37:3F:D4:AF

            X509v3 Extended Key Usage: 
                TLS Web Client Authentication
            X509v3 Key Usage: 
                Digital Signature
    Signature Algorithm: sha256WithRSAEncryption
         57:6e:c2:7b:5d:92:24:32:2a:96:47:e3:b4:34:4e:57:44:69:
         cc:f6:31:bd:89:d6:f4:90:b4:98:15:5a:d4:d0:20:f7:f5:43:
         d1:1d:7a:eb:64:58:ef:cc:23:fa:ca:d0:a0:86:5b:f9:1f:ed:
         dd:19:8a:d6:62:c6:bf:9b:90:fd:d7:a6:6d:eb:59:7d:d2:52:
         91:e2:cf:87:74:88:1b:b6:6c:07:9c:06:d8:9f:0b:0f:b2:dc:
         25:c2:58:5c:17:05:fe:61:ea:28:6f:99:2b:e4:f0:9f:ca:1f:
         81:03:f2:70:2f:f3:04:5e:81:f9:52:ed:3d:89:09:e1:a9:e4:
         ad:c8:4a:f6:9d:8f:df:13:3c:2a:89:db:87:59:b2:da:3d:93:
         6f:ea:67:ad:60:31:37:64:0e:74:cf:b6:1b:46:1a:0e:f0:8e:
         8f:34:64:57:12:e6:97:58:0b:75:66:5a:6c:19:8c:41:46:49:
         a9:29:7b:45:c6:77:44:14:89:c3:fd:19:f1:c1:19:80:cb:3f:
         c8:34:c1:e4:e2:6a:e2:88:f0:e9:23:fa:75:2e:32:a6:46:25:
         35:db:a3:18:c9:0c:79:d4:ff:eb:21:7e:90:64:5d:6b:ae:00:
         98:57:d6:b1:df:65:0e:9f:8e:ab:2c:08:71:6a:90:74:a3:d1:
         f6:8a:c1:b8
-----BEGIN CERTIFICATE-----
MIIDXTCCAkWgAwIBAgIRAID8LWeC04/n+B0NvkkNehAwDQYJKoZIhvcNAQELBQAw
FjEUMBIGA1UEAwwLdGVhbTI3NS1uZXQwHhcNMjIwNTE4MTk1MDMyWhcNMjUwNTAy
MTk1MDMyWjAZMRcwFQYDVQQDDA50ZWFtMjc1LWNsaWVudDCCASIwDQYJKoZIhvcN
AQEBBQADggEPADCCAQoCggEBALWjCKNP7/gN/brpIFEg023fr86zMW7EZc+diemy
VD85oAV9QEThjQm1S3Op11bofk6w87wgBOZVy27b5HfwV0YTPWfD0XGwpD/TLv7K
bG0d71L7oALhcFRpdZH5SDladGwUbZxzAbAxWKAL7zJ3C6Uae1XM2+DC9grm85Q0
56HuUZF4geAAfHzlGLrHBWigAQZuyUQXKareM20Zce9O+fxdvIVqfehyRt5nhR5v
JPDSx67cgAoEvqcU4OAu1mua5O2/bqT3VGSTfuUwXTQBoN8p5lNhNoEh+KIaD/vH
KguhURaesGPc/xnOjQblFJTpi7JUPJI6KNh9kCaynLB4la0CAwEAAaOBojCBnzAJ
BgNVHRMEAjAAMB0GA1UdDgQWBBRBcHD2St7NbAJdB97r9rZZhdRUZDBRBgNVHSME
SjBIgBTjTifNPeK41u7xHsynoBTYIZWyGqEapBgwFjEUMBIGA1UEAwwLdGVhbTI3
NS1uZXSCFG4FMlFn72olUOdXzbcV+3E3P9SvMBMGA1UdJQQMMAoGCCsGAQUFBwMC
MAsGA1UdDwQEAwIHgDANBgkqhkiG9w0BAQsFAAOCAQEAV27Ce12SJDIqlkfjtDRO
V0RpzPYxvYnW9JC0mBVa1NAg9/VD0R1662RY78wj+srQoIZb+R/t3RmK1mLGv5uQ
/dembetZfdJSkeLPh3SIG7ZsB5wG2J8LD7LcJcJYXBcF/mHqKG+ZK+Twn8ofgQPy
cC/zBF6B+VLtPYkJ4ankrchK9p2P3xM8Konbh1my2j2Tb+pnrWAxN2QOdM+2G0Ya
DvCOjzRkVxLml1gLdWZabBmMQUZJqSl7RcZ3RBSJw/0Z8cEZgMs/yDTB5OJq4ojw
6SP6dS4ypkYlNdujGMkMedT/6yF+kGRda64AmFfWsd9lDp+OqywIcWqQdKPR9orB
uA==
-----END CERTIFICATE-----
