Certificate:
    Data:
        Version: 3 (0x2)
        Serial Number:
            c7:3d:34:df:30:b8:34:93:45:79:f7:13:31:9d:a0:61
        Signature Algorithm: sha256WithRSAEncryption
        Issuer: CN=team125-net
        Validity
            Not Before: May 18 15:05:45 2022 GMT
            Not After : May  2 15:05:45 2025 GMT
        Subject: CN=team125-server
        Subject Public Key Info:
            Public Key Algorithm: rsaEncryption
                RSA Public-Key: (2048 bit)
                Modulus:
                    00:b4:b8:78:ba:67:63:eb:09:56:a9:06:10:e1:44:
                    03:3b:9d:2d:e4:aa:e0:65:ad:57:ac:12:e8:40:02:
                    b6:d6:c8:3e:89:f5:67:7d:02:83:e7:15:38:6c:3e:
                    10:6f:cf:a2:38:03:47:32:0d:28:de:b6:5f:6c:07:
                    1b:e2:b6:74:aa:1e:3b:aa:b3:0f:95:64:78:54:cd:
                    c8:26:73:7c:c7:4b:3f:79:33:23:74:04:61:40:6a:
                    68:cf:e8:5c:15:4e:5e:7d:20:c6:09:de:16:b9:4e:
                    6d:cb:6e:53:aa:0c:4b:78:d9:da:f1:bf:a7:cc:1e:
                    37:7b:9e:65:2b:64:21:77:94:38:16:27:51:e4:7f:
                    5e:35:23:76:26:63:a3:c5:05:24:42:41:74:24:a5:
                    3d:2b:1a:92:26:1e:a7:ff:3d:15:5e:b6:a5:1e:18:
                    d6:d1:3a:e0:13:3c:1c:b4:0f:28:97:a6:7e:8a:35:
                    1a:a0:4e:b3:3a:eb:2d:e3:85:c0:ef:b3:b3:c6:44:
                    f8:ce:76:a4:05:98:72:7c:26:39:d5:f4:70:48:91:
                    38:eb:eb:ac:aa:a4:de:49:8a:17:d1:54:7c:24:b1:
                    a2:63:5e:4f:da:ee:79:cc:49:df:7e:de:9d:11:74:
                    83:c8:fe:e3:05:24:af:90:6f:8f:e1:5a:30:0e:d5:
                    7d:d5
                Exponent: 65537 (0x10001)
        X509v3 extensions:
            X509v3 Basic Constraints: 
                CA:FALSE
            X509v3 Subject Key Identifier: 
                BF:11:A7:C0:F8:A8:FD:76:FB:F5:BD:69:D1:57:6F:3C:02:8D:80:FD
            X509v3 Authority Key Identifier: 
                keyid:23:7B:D2:4F:DD:99:DD:0A:6C:97:BC:2C:27:85:E5:11:5A:C7:A4:74
                DirName:/CN=team125-net
                serial:2E:1D:C4:6F:B0:3D:97:47:A5:80:7D:7F:42:BE:8F:0F:A9:1D:8C:1C

            X509v3 Extended Key Usage: 
                TLS Web Server Authentication
            X509v3 Key Usage: 
                Digital Signature, Key Encipherment
            X509v3 Subject Alternative Name: 
                DNS:team125-server
    Signature Algorithm: sha256WithRSAEncryption
         51:cd:86:5c:f1:9d:69:6c:dc:54:d4:49:58:93:95:ca:b6:d5:
         41:e9:49:46:00:90:1e:70:6c:c8:82:02:a7:f4:a0:e1:a9:6a:
         34:91:94:ef:c1:62:58:0a:4f:d2:59:a2:47:bd:6d:4e:6c:05:
         d3:3d:b7:e7:e8:c2:30:0c:30:28:e5:2d:6d:68:c0:9d:8d:13:
         10:a0:ec:70:6d:ea:db:00:d4:8e:43:d8:28:78:0b:81:f7:74:
         46:ba:3c:74:0c:b7:b0:ba:62:ed:31:7f:6c:ad:ba:e4:b2:a6:
         60:d9:ac:52:f9:d5:a3:ae:d2:14:04:c5:f1:2c:35:55:75:55:
         b1:8b:bf:ef:c2:1b:39:95:02:44:0f:49:43:20:e2:e6:b7:75:
         df:e6:a6:50:ac:05:5e:b6:aa:17:73:2b:43:41:6b:0f:10:36:
         42:e5:23:ac:ce:03:13:5c:52:7d:6b:7f:c7:88:9d:22:1e:07:
         36:da:85:64:9e:56:95:56:17:7c:07:58:50:87:d9:79:b4:83:
         1b:bf:0c:3f:ad:41:f0:a4:a3:45:41:19:38:e1:7d:cc:70:7f:
         9b:6c:89:00:ad:e6:e8:2c:e4:e2:12:cf:e0:14:b5:f0:c5:0d:
         cb:66:af:45:fb:d4:de:4c:f3:7f:71:c5:3a:9e:6a:01:8f:35:
         f4:59:07:c3
-----BEGIN CERTIFICATE-----
MIIDeDCCAmCgAwIBAgIRAMc9NN8wuDSTRXn3EzGdoGEwDQYJKoZIhvcNAQELBQAw
FjEUMBIGA1UEAwwLdGVhbTEyNS1uZXQwHhcNMjIwNTE4MTUwNTQ1WhcNMjUwNTAy
MTUwNTQ1WjAZMRcwFQYDVQQDDA50ZWFtMTI1LXNlcnZlcjCCASIwDQYJKoZIhvcN
AQEBBQADggEPADCCAQoCggEBALS4eLpnY+sJVqkGEOFEAzudLeSq4GWtV6wS6EAC
ttbIPon1Z30Cg+cVOGw+EG/PojgDRzINKN62X2wHG+K2dKoeO6qzD5VkeFTNyCZz
fMdLP3kzI3QEYUBqaM/oXBVOXn0gxgneFrlObctuU6oMS3jZ2vG/p8weN3ueZStk
IXeUOBYnUeR/XjUjdiZjo8UFJEJBdCSlPSsakiYep/89FV62pR4Y1tE64BM8HLQP
KJemfoo1GqBOszrrLeOFwO+zs8ZE+M52pAWYcnwmOdX0cEiROOvrrKqk3kmKF9FU
fCSxomNeT9ruecxJ337enRF0g8j+4wUkr5Bvj+FaMA7VfdUCAwEAAaOBvTCBujAJ
BgNVHRMEAjAAMB0GA1UdDgQWBBS/EafA+Kj9dvv1vWnRV288Ao2A/TBRBgNVHSME
SjBIgBQje9JP3ZndCmyXvCwnheURWsekdKEapBgwFjEUMBIGA1UEAwwLdGVhbTEy
NS1uZXSCFC4dxG+wPZdHpYB9f0K+jw+pHYwcMBMGA1UdJQQMMAoGCCsGAQUFBwMB
MAsGA1UdDwQEAwIFoDAZBgNVHREEEjAQgg50ZWFtMTI1LXNlcnZlcjANBgkqhkiG
9w0BAQsFAAOCAQEAUc2GXPGdaWzcVNRJWJOVyrbVQelJRgCQHnBsyIICp/Sg4alq
NJGU78FiWApP0lmiR71tTmwF0z235+jCMAwwKOUtbWjAnY0TEKDscG3q2wDUjkPY
KHgLgfd0Rro8dAy3sLpi7TF/bK265LKmYNmsUvnVo67SFATF8Sw1VXVVsYu/78Ib
OZUCRA9JQyDi5rd13+amUKwFXraqF3MrQ0FrDxA2QuUjrM4DE1xSfWt/x4idIh4H
NtqFZJ5WlVYXfAdYUIfZebSDG78MP61B8KSjRUEZOOF9zHB/m2yJAK3m6Czk4hLP
4BS18MUNy2avRfvU3kzzf3HFOp5qAY819FkHww==
-----END CERTIFICATE-----
