Certificate:
    Data:
        Version: 3 (0x2)
        Serial Number:
            c4:ff:f9:bb:82:8d:79:8b:6a:16:4b:ae:28:6a:53:b5
        Signature Algorithm: sha256WithRSAEncryption
        Issuer: CN=team2-net
        Validity
            Not Before: May 18 13:56:49 2022 GMT
            Not After : May  2 13:56:49 2025 GMT
        Subject: CN=team2-server
        Subject Public Key Info:
            Public Key Algorithm: rsaEncryption
                RSA Public-Key: (2048 bit)
                Modulus:
                    00:e2:3a:4f:1c:54:05:af:de:2e:40:d1:33:b5:c0:
                    e9:84:4a:9c:66:c2:1a:5a:53:76:fd:ee:6d:b7:e4:
                    a2:57:b9:1e:7c:cf:ea:c4:3b:d4:2a:9b:4c:3f:8a:
                    c9:72:8d:ab:0b:b2:64:3d:e9:ef:cf:98:7a:d1:d8:
                    38:b1:d7:2b:0a:ce:17:a6:3b:2c:93:51:b4:56:c0:
                    62:bf:fb:1f:bf:7c:21:f7:ac:52:2b:c9:24:a2:27:
                    b4:4a:01:9b:5b:0c:11:3e:be:b5:42:b6:30:21:e6:
                    41:85:b6:5e:a3:03:59:4c:d1:47:9e:f3:2f:27:6d:
                    8b:8c:88:28:71:c9:fa:a5:60:42:2e:05:06:53:ee:
                    4e:f8:26:4e:64:b8:91:c2:ad:7b:6d:e7:b4:8f:ea:
                    bf:07:7c:bb:e7:61:fc:cf:c3:b8:a1:be:bc:75:9c:
                    b4:b7:ea:f0:58:24:8e:e0:a2:56:38:0b:5f:d8:18:
                    01:e0:78:10:9a:0b:b8:db:2d:d1:24:a1:50:e6:04:
                    69:bb:39:f3:30:66:21:d6:06:6b:a5:bc:c7:c5:2a:
                    09:de:93:ea:87:74:25:5b:d0:80:a8:cd:ad:17:fa:
                    a6:9f:11:b5:3d:3d:cd:a9:72:07:d1:12:32:a1:1b:
                    d0:1d:a3:9e:78:eb:34:ca:48:54:c6:1e:50:b3:ff:
                    98:53
                Exponent: 65537 (0x10001)
        X509v3 extensions:
            X509v3 Basic Constraints: 
                CA:FALSE
            X509v3 Subject Key Identifier: 
                DC:E9:FE:6C:CA:58:34:98:F5:FD:38:18:98:E5:A3:CA:86:B5:07:C2
            X509v3 Authority Key Identifier: 
                keyid:0A:6D:2E:A9:04:1C:2F:38:37:E0:10:FF:B4:E5:24:F5:C6:50:A2:40
                DirName:/CN=team2-net
                serial:0A:5B:73:A3:0C:A7:82:14:93:BF:7A:78:C0:51:6C:75:05:58:0B:B4

            X509v3 Extended Key Usage: 
                TLS Web Server Authentication
            X509v3 Key Usage: 
                Digital Signature, Key Encipherment
            X509v3 Subject Alternative Name: 
                DNS:team2-server
    Signature Algorithm: sha256WithRSAEncryption
         09:07:1c:a6:27:94:4e:e5:89:e5:b0:5b:46:23:15:39:bc:86:
         89:69:2f:a0:97:d4:35:cb:4f:a3:c9:e0:93:a8:2c:51:36:d4:
         96:5a:6a:45:34:78:d9:fb:12:1c:58:c1:f6:91:4a:36:8e:c4:
         c2:88:d8:a9:ec:b5:27:ac:81:a1:c9:39:cd:05:56:25:cd:8c:
         c2:ff:60:d0:eb:55:80:7d:97:b8:2c:d7:7c:6c:61:c5:e2:08:
         f8:6d:4c:df:53:ed:cd:38:58:d8:7e:da:08:e3:e0:39:ee:88:
         a6:c7:f0:d0:fe:18:14:4c:a7:4c:fd:f1:9d:0b:2c:3e:70:35:
         b6:87:5f:e7:1a:6e:05:7e:a7:28:22:62:3e:f3:c7:a9:24:73:
         b8:10:cd:e7:58:69:95:c6:7f:58:8b:44:34:28:b3:64:fe:4a:
         75:4a:a3:c2:1f:ea:84:85:78:cb:b2:5f:ab:8f:ad:d1:66:21:
         0f:a5:8f:3c:31:56:69:c6:41:81:10:7f:47:f1:43:5c:fe:e3:
         d0:5a:bd:e6:e5:b3:82:4c:2d:ae:8d:b2:92:75:7a:59:65:7f:
         5e:14:f3:8e:d1:09:f1:19:65:9e:a1:4d:a7:c1:98:97:d6:41:
         39:7f:8e:2e:06:df:d1:a2:1d:42:ec:19:a4:15:2d:ce:d5:77:
         a8:dd:09:16
-----BEGIN CERTIFICATE-----
MIIDcDCCAligAwIBAgIRAMT/+buCjXmLahZLrihqU7UwDQYJKoZIhvcNAQELBQAw
FDESMBAGA1UEAwwJdGVhbTItbmV0MB4XDTIyMDUxODEzNTY0OVoXDTI1MDUwMjEz
NTY0OVowFzEVMBMGA1UEAwwMdGVhbTItc2VydmVyMIIBIjANBgkqhkiG9w0BAQEF
AAOCAQ8AMIIBCgKCAQEA4jpPHFQFr94uQNEztcDphEqcZsIaWlN2/e5tt+SiV7ke
fM/qxDvUKptMP4rJco2rC7JkPenvz5h60dg4sdcrCs4Xpjssk1G0VsBiv/sfv3wh
96xSK8kkoie0SgGbWwwRPr61QrYwIeZBhbZeowNZTNFHnvMvJ22LjIgoccn6pWBC
LgUGU+5O+CZOZLiRwq17bee0j+q/B3y752H8z8O4ob68dZy0t+rwWCSO4KJWOAtf
2BgB4HgQmgu42y3RJKFQ5gRpuznzMGYh1gZrpbzHxSoJ3pPqh3QlW9CAqM2tF/qm
nxG1PT3NqXIH0RIyoRvQHaOeeOs0ykhUxh5Qs/+YUwIDAQABo4G5MIG2MAkGA1Ud
EwQCMAAwHQYDVR0OBBYEFNzp/mzKWDSY9f04GJjlo8qGtQfCME8GA1UdIwRIMEaA
FAptLqkEHC84N+AQ/7TlJPXGUKJAoRikFjAUMRIwEAYDVQQDDAl0ZWFtMi1uZXSC
FApbc6MMp4IUk796eMBRbHUFWAu0MBMGA1UdJQQMMAoGCCsGAQUFBwMBMAsGA1Ud
DwQEAwIFoDAXBgNVHREEEDAOggx0ZWFtMi1zZXJ2ZXIwDQYJKoZIhvcNAQELBQAD
ggEBAAkHHKYnlE7lieWwW0YjFTm8holpL6CX1DXLT6PJ4JOoLFE21JZaakU0eNn7
EhxYwfaRSjaOxMKI2KnstSesgaHJOc0FViXNjML/YNDrVYB9l7gs13xsYcXiCPht
TN9T7c04WNh+2gjj4DnuiKbH8ND+GBRMp0z98Z0LLD5wNbaHX+cabgV+pygiYj7z
x6kkc7gQzedYaZXGf1iLRDQos2T+SnVKo8If6oSFeMuyX6uPrdFmIQ+ljzwxVmnG
QYEQf0fxQ1z+49Bavebls4JMLa6NspJ1elllf14U847RCfEZZZ6hTafBmJfWQTl/
ji4G39GiHULsGaQVLc7Vd6jdCRY=
-----END CERTIFICATE-----
