Certificate:
    Data:
        Version: 3 (0x2)
        Serial Number:
            36:49:9c:68:db:70:e8:6b:1f:98:5a:be:be:5b:22:95
        Signature Algorithm: sha256WithRSAEncryption
        Issuer: CN=team431-net
        Validity
            Not Before: May 18 21:13:39 2022 GMT
            Not After : May  2 21:13:39 2025 GMT
        Subject: CN=team431-server
        Subject Public Key Info:
            Public Key Algorithm: rsaEncryption
                RSA Public-Key: (2048 bit)
                Modulus:
                    00:9f:6c:86:e4:84:13:56:62:d5:6c:8a:fa:b4:b8:
                    86:13:04:6e:88:c2:cc:e0:c4:4e:7b:74:ac:6d:34:
                    76:2d:1e:62:8f:e5:c3:66:af:f7:25:67:ff:ef:9b:
                    d4:5b:f6:32:e5:45:8f:ee:fc:1b:b3:21:b0:82:06:
                    07:a6:f7:69:d2:fd:86:35:4b:77:ae:aa:f6:9a:48:
                    c0:b5:ef:de:17:1c:5f:23:8f:ce:b2:d5:44:5e:3c:
                    9e:8b:20:e5:b4:99:39:c8:b2:3c:93:15:64:2c:e2:
                    9e:57:35:59:d6:cf:3f:5c:6e:5c:ea:6b:17:6c:82:
                    56:19:99:24:ad:fa:c1:49:1a:05:4b:61:a7:e8:af:
                    3a:1c:ae:e1:53:1a:5d:cd:97:e6:9b:03:3e:a5:e6:
                    56:06:9a:78:81:64:0d:70:11:3c:03:4e:7f:ac:25:
                    ad:64:46:3d:a4:f8:2e:16:67:0b:0f:0c:a2:39:76:
                    cf:1d:c9:28:64:76:15:58:6d:6c:5e:60:45:fb:d3:
                    0c:d1:21:fb:3f:3f:23:fc:b1:b9:41:09:81:3e:f5:
                    26:43:95:4c:36:ea:44:ee:6e:8b:8e:87:43:8e:fa:
                    a9:b5:56:61:fa:c2:f1:a5:29:84:85:88:cb:b4:52:
                    7b:24:43:18:ae:ce:d5:6b:03:0a:ed:50:db:97:43:
                    09:ab
                Exponent: 65537 (0x10001)
        X509v3 extensions:
            X509v3 Basic Constraints: 
                CA:FALSE
            X509v3 Subject Key Identifier: 
                FD:A1:86:E5:B3:87:08:95:46:39:57:B4:65:E8:51:E9:9A:0F:1A:62
            X509v3 Authority Key Identifier: 
                keyid:BC:5E:C2:39:99:FE:CD:88:BD:45:E8:A6:AD:4F:5A:0C:24:F5:79:64
                DirName:/CN=team431-net
                serial:74:0B:D7:E4:A3:45:ED:14:2D:D3:5B:81:DB:BF:6F:24:10:10:A3:C0

            X509v3 Extended Key Usage: 
                TLS Web Server Authentication
            X509v3 Key Usage: 
                Digital Signature, Key Encipherment
            X509v3 Subject Alternative Name: 
                DNS:team431-server
    Signature Algorithm: sha256WithRSAEncryption
         15:39:36:51:50:ec:be:57:f4:c0:2c:87:31:58:78:e4:5d:11:
         51:a6:6c:c6:30:94:a0:57:ac:33:00:6c:c4:1a:25:4c:f3:93:
         cd:3a:82:f2:54:d7:2e:db:74:e3:08:2e:6e:e3:41:27:90:2d:
         99:de:44:8d:de:36:b8:76:8b:a4:c8:15:fe:f1:66:a8:4f:2f:
         9c:0b:00:81:55:10:ed:36:88:dc:98:b6:03:56:4e:74:ed:1e:
         cf:7e:cc:6c:76:8d:cb:f4:49:86:85:05:ca:75:68:24:53:9e:
         48:94:03:e5:8c:e7:51:c7:a3:8b:c3:cf:36:bf:bb:b7:08:d8:
         2a:7a:90:f4:cf:7f:7b:23:4e:e1:cb:80:df:92:29:59:df:6f:
         fe:56:c3:81:a0:fd:53:32:6d:a8:87:d9:74:ec:5f:0d:0d:93:
         ac:35:bf:95:94:b4:83:59:b3:a1:12:2f:02:76:d5:e0:42:23:
         8a:fb:81:cc:b2:6f:c4:12:98:04:94:e8:44:9f:d1:1f:87:92:
         b1:c0:cd:0f:6f:5b:61:f9:7c:18:ca:90:d4:02:c8:78:f8:46:
         3a:c4:bf:52:26:f9:c4:ae:2a:cb:8e:7d:28:16:21:ca:af:2e:
         a3:95:31:fc:c1:bb:06:dc:6e:e1:07:cb:43:93:b0:5f:71:24:
         2c:19:c9:94
-----BEGIN CERTIFICATE-----
MIIDdzCCAl+gAwIBAgIQNkmcaNtw6GsfmFq+vlsilTANBgkqhkiG9w0BAQsFADAW
MRQwEgYDVQQDDAt0ZWFtNDMxLW5ldDAeFw0yMjA1MTgyMTEzMzlaFw0yNTA1MDIy
MTEzMzlaMBkxFzAVBgNVBAMMDnRlYW00MzEtc2VydmVyMIIBIjANBgkqhkiG9w0B
AQEFAAOCAQ8AMIIBCgKCAQEAn2yG5IQTVmLVbIr6tLiGEwRuiMLM4MROe3SsbTR2
LR5ij+XDZq/3JWf/75vUW/Yy5UWP7vwbsyGwggYHpvdp0v2GNUt3rqr2mkjAte/e
FxxfI4/OstVEXjyeiyDltJk5yLI8kxVkLOKeVzVZ1s8/XG5c6msXbIJWGZkkrfrB
SRoFS2Gn6K86HK7hUxpdzZfmmwM+peZWBpp4gWQNcBE8A05/rCWtZEY9pPguFmcL
DwyiOXbPHckoZHYVWG1sXmBF+9MM0SH7Pz8j/LG5QQmBPvUmQ5VMNupE7m6LjodD
jvqptVZh+sLxpSmEhYjLtFJ7JEMYrs7VawMK7VDbl0MJqwIDAQABo4G9MIG6MAkG
A1UdEwQCMAAwHQYDVR0OBBYEFP2hhuWzhwiVRjlXtGXoUemaDxpiMFEGA1UdIwRK
MEiAFLxewjmZ/s2IvUXopq1PWgwk9XlkoRqkGDAWMRQwEgYDVQQDDAt0ZWFtNDMx
LW5ldIIUdAvX5KNF7RQt01uB279vJBAQo8AwEwYDVR0lBAwwCgYIKwYBBQUHAwEw
CwYDVR0PBAQDAgWgMBkGA1UdEQQSMBCCDnRlYW00MzEtc2VydmVyMA0GCSqGSIb3
DQEBCwUAA4IBAQAVOTZRUOy+V/TALIcxWHjkXRFRpmzGMJSgV6wzAGzEGiVM85PN
OoLyVNcu23TjCC5u40EnkC2Z3kSN3ja4doukyBX+8WaoTy+cCwCBVRDtNojcmLYD
Vk507R7Pfsxsdo3L9EmGhQXKdWgkU55IlAPljOdRx6OLw882v7u3CNgqepD0z397
I07hy4DfkilZ32/+VsOBoP1TMm2oh9l07F8NDZOsNb+VlLSDWbOhEi8CdtXgQiOK
+4HMsm/EEpgElOhEn9Efh5KxwM0Pb1th+XwYypDUAsh4+EY6xL9SJvnErirLjn0o
FiHKry6jlTH8wbsG3G7hB8tDk7BfcSQsGcmU
-----END CERTIFICATE-----
