Certificate:
    Data:
        Version: 3 (0x2)
        Serial Number:
            38:8c:90:99:4d:97:c6:5b:f9:46:62:5c:cb:63:ae:1b
        Signature Algorithm: sha256WithRSAEncryption
        Issuer: CN=team73-net
        Validity
            Not Before: May 18 14:30:31 2022 GMT
            Not After : May  2 14:30:31 2025 GMT
        Subject: CN=team73-client
        Subject Public Key Info:
            Public Key Algorithm: rsaEncryption
                RSA Public-Key: (2048 bit)
                Modulus:
                    00:d9:70:45:5b:d7:4d:c9:23:a8:0b:26:f2:e8:b7:
                    90:b8:3a:2c:12:a7:7a:b3:61:db:31:d9:16:09:37:
                    c9:65:56:23:0c:ac:0c:93:97:36:f4:42:c9:db:21:
                    71:d3:ce:9a:08:07:b2:6b:88:5c:fb:d6:b4:97:8a:
                    0f:e3:ca:78:60:38:0f:62:fb:d5:91:51:a6:0a:9c:
                    24:3f:30:fc:b1:61:51:e3:c9:95:74:09:49:11:ff:
                    bf:31:28:a6:ff:03:db:97:05:c5:7b:41:71:b2:b2:
                    82:94:00:5a:4c:aa:de:06:a7:fc:5a:11:b0:58:3b:
                    24:6c:14:52:04:d8:73:c8:d2:97:cb:2c:40:82:f3:
                    74:62:57:4e:ed:bb:d2:7e:10:6f:99:61:40:78:ef:
                    54:7f:54:3a:ae:d7:f7:a4:95:c5:47:d1:80:a1:3b:
                    ad:cc:ac:8b:4c:7c:d4:f0:d4:4c:18:e5:ce:6b:d6:
                    6c:d6:97:22:5a:09:81:6f:e3:d4:c5:9f:3a:2b:7e:
                    a4:58:cf:4a:8b:b5:18:10:8f:de:8e:ad:85:ff:a2:
                    a2:20:b0:19:fa:17:97:ae:b8:e5:19:0a:84:aa:b1:
                    47:74:d3:11:58:26:b4:72:96:ed:29:27:a6:dd:7d:
                    90:3f:f4:74:78:7e:d9:42:0b:8b:b1:4c:32:0d:fa:
                    c6:35
                Exponent: 65537 (0x10001)
        X509v3 extensions:
            X509v3 Basic Constraints: 
                CA:FALSE
            X509v3 Subject Key Identifier: 
                F8:89:6D:11:31:A3:4B:8D:1F:0B:8B:FE:0C:9D:28:DA:4D:34:DA:F6
            X509v3 Authority Key Identifier: 
                keyid:74:53:5F:98:5C:EC:6F:D7:2A:E6:C4:BF:02:6B:72:93:AF:DE:34:6D
                DirName:/CN=team73-net
                serial:6E:0A:36:49:F0:01:D5:02:54:A4:43:D3:33:27:96:ED:D3:33:4A:F3

            X509v3 Extended Key Usage: 
                TLS Web Client Authentication
            X509v3 Key Usage: 
                Digital Signature
    Signature Algorithm: sha256WithRSAEncryption
         c4:ac:cb:57:6f:7f:d1:02:0c:87:3c:08:f0:0e:c4:05:e1:96:
         12:59:22:f6:ee:21:fe:6e:5e:5e:83:42:98:b6:f5:f3:69:32:
         4c:d6:17:40:8a:bb:ef:7b:86:29:4a:d0:bb:d2:25:92:87:d6:
         28:d7:d6:d0:fe:5a:ff:15:d8:e8:b6:53:3b:50:79:bf:9f:8b:
         e8:8f:0b:49:49:43:d0:12:1d:7b:0e:51:07:73:4b:a9:1b:6a:
         fc:02:d4:d7:f8:c7:50:1b:e4:d5:d5:7c:49:a5:6b:fa:25:2b:
         14:80:3c:53:ae:32:02:fe:b3:02:7a:72:0e:ce:8e:1c:ca:1f:
         99:76:0c:72:db:f0:d7:4f:44:51:83:17:62:fa:37:bc:0e:b3:
         9f:e6:03:e2:32:5d:44:49:89:a5:08:cd:a7:45:e1:5f:5d:ed:
         f9:81:3a:c5:2f:16:a3:2c:54:c3:61:e0:3d:2f:51:5e:f6:db:
         95:21:9a:81:d7:9f:0d:06:a7:44:b1:f2:b3:f7:89:66:2b:22:
         12:2e:4a:d8:60:e8:33:66:de:f1:60:0c:b3:c2:e9:d9:4d:4a:
         d9:fb:fe:d9:df:f1:df:21:df:1a:e3:f4:b2:d8:0f:61:37:82:
         42:b8:c1:d9:cd:df:b5:eb:99:f7:88:0e:95:5b:9a:88:ce:9f:
         ae:c7:2f:d1
-----BEGIN CERTIFICATE-----
MIIDWTCCAkGgAwIBAgIQOIyQmU2Xxlv5RmJcy2OuGzANBgkqhkiG9w0BAQsFADAV
MRMwEQYDVQQDDAp0ZWFtNzMtbmV0MB4XDTIyMDUxODE0MzAzMVoXDTI1MDUwMjE0
MzAzMVowGDEWMBQGA1UEAwwNdGVhbTczLWNsaWVudDCCASIwDQYJKoZIhvcNAQEB
BQADggEPADCCAQoCggEBANlwRVvXTckjqAsm8ui3kLg6LBKnerNh2zHZFgk3yWVW
IwysDJOXNvRCydshcdPOmggHsmuIXPvWtJeKD+PKeGA4D2L71ZFRpgqcJD8w/LFh
UePJlXQJSRH/vzEopv8D25cFxXtBcbKygpQAWkyq3gan/FoRsFg7JGwUUgTYc8jS
l8ssQILzdGJXTu270n4Qb5lhQHjvVH9UOq7X96SVxUfRgKE7rcysi0x81PDUTBjl
zmvWbNaXIloJgW/j1MWfOit+pFjPSou1GBCP3o6thf+ioiCwGfoXl6645RkKhKqx
R3TTEVgmtHKW7Sknpt19kD/0dHh+2UILi7FMMg36xjUCAwEAAaOBoTCBnjAJBgNV
HRMEAjAAMB0GA1UdDgQWBBT4iW0RMaNLjR8Li/4MnSjaTTTa9jBQBgNVHSMESTBH
gBR0U1+YXOxv1yrmxL8Ca3KTr940baEZpBcwFTETMBEGA1UEAwwKdGVhbTczLW5l
dIIUbgo2SfAB1QJUpEPTMyeW7dMzSvMwEwYDVR0lBAwwCgYIKwYBBQUHAwIwCwYD
VR0PBAQDAgeAMA0GCSqGSIb3DQEBCwUAA4IBAQDErMtXb3/RAgyHPAjwDsQF4ZYS
WSL27iH+bl5eg0KYtvXzaTJM1hdAirvve4YpStC70iWSh9Yo19bQ/lr/FdjotlM7
UHm/n4vojwtJSUPQEh17DlEHc0upG2r8AtTX+MdQG+TV1XxJpWv6JSsUgDxTrjIC
/rMCenIOzo4cyh+Zdgxy2/DXT0RRgxdi+je8DrOf5gPiMl1ESYmlCM2nReFfXe35
gTrFLxajLFTDYeA9L1Fe9tuVIZqB158NBqdEsfKz94lmKyISLkrYYOgzZt7xYAyz
wunZTUrZ+/7Z3/HfId8a4/Sy2A9hN4JCuMHZzd+165n3iA6VW5qIzp+uxy/R
-----END CERTIFICATE-----
