Certificate:
    Data:
        Version: 3 (0x2)
        Serial Number:
            d3:c9:b5:01:34:3f:76:59:4a:79:7b:1e:b4:bd:e5:62
        Signature Algorithm: sha256WithRSAEncryption
        Issuer: CN=team325-net
        Validity
            Not Before: May 18 20:13:04 2022 GMT
            Not After : May  2 20:13:04 2025 GMT
        Subject: CN=team325-server
        Subject Public Key Info:
            Public Key Algorithm: rsaEncryption
                RSA Public-Key: (2048 bit)
                Modulus:
                    00:a7:50:37:6a:02:94:39:c8:48:89:48:04:5c:ea:
                    4a:c3:8a:ef:13:42:1c:68:46:b9:bf:0f:b1:68:4a:
                    56:7a:9d:c2:7d:12:a4:90:ba:ad:d6:9a:47:7f:0f:
                    25:4a:bb:22:b2:36:35:22:fb:6c:75:ed:a7:6c:bb:
                    35:c8:4f:76:c3:08:31:c6:ca:dc:20:ce:64:b3:c9:
                    2d:7c:ff:59:4a:c1:9a:6e:10:9a:03:9d:45:0d:e6:
                    ad:1e:a2:5a:19:0a:3d:58:65:06:21:e8:c8:cd:43:
                    f7:f9:79:1c:83:99:70:78:ae:d7:8b:61:be:89:a1:
                    83:33:bd:e3:64:cd:6d:1c:55:d7:20:c5:62:22:be:
                    55:3c:63:0f:e4:56:ee:4b:53:6e:38:54:39:84:8e:
                    7d:4c:e1:16:91:59:c2:26:0e:fd:07:df:f1:01:87:
                    7c:f3:66:95:ff:a9:ea:78:5e:cc:99:01:ce:32:28:
                    63:28:10:3f:c6:34:5a:7c:54:bc:f3:9b:47:00:e1:
                    53:58:2b:47:5f:de:b5:82:d1:a6:36:7a:3f:7a:51:
                    9d:02:8a:2c:df:6c:fb:b9:bf:b6:60:fc:ef:52:d7:
                    2e:1a:26:5c:5a:40:5e:1b:76:54:d4:b1:a6:d9:63:
                    a1:3b:5b:ef:37:83:37:cc:f5:4b:e0:34:6d:21:6d:
                    6b:f9
                Exponent: 65537 (0x10001)
        X509v3 extensions:
            X509v3 Basic Constraints: 
                CA:FALSE
            X509v3 Subject Key Identifier: 
                6F:2B:50:1F:CB:AB:94:70:9A:B4:95:DB:26:81:71:0D:B7:AA:EC:EF
            X509v3 Authority Key Identifier: 
                keyid:55:DD:F6:C4:51:57:DF:FF:B8:8B:1C:CC:F1:95:00:9B:69:A7:43:C8
                DirName:/CN=team325-net
                serial:50:1D:AA:60:8D:73:CA:37:3C:CB:3D:C4:E1:C0:58:8F:DE:31:94:13

            X509v3 Extended Key Usage: 
                TLS Web Server Authentication
            X509v3 Key Usage: 
                Digital Signature, Key Encipherment
            X509v3 Subject Alternative Name: 
                DNS:team325-server
    Signature Algorithm: sha256WithRSAEncryption
         6b:e7:b6:15:7d:14:08:5f:fb:e3:27:59:23:4a:df:a0:f1:f7:
         2c:68:5a:96:e2:40:50:1d:7f:34:72:87:fb:fc:74:c8:bf:8c:
         62:d6:d3:86:1d:93:31:43:9b:6d:4b:21:49:df:90:90:d8:0f:
         70:8c:25:44:bc:18:ef:c3:e6:e4:fd:0b:0c:06:68:c0:65:0d:
         98:56:17:b2:63:c5:64:57:af:2f:6b:cd:a9:79:c4:52:66:2b:
         38:73:9e:89:fe:da:0e:a0:be:21:55:9a:53:08:56:6f:40:71:
         00:4a:74:07:a1:68:b9:a7:e2:41:9f:0b:3d:a7:08:16:54:5b:
         9e:5e:3f:95:36:2d:26:0a:f0:d9:b6:8d:40:c7:36:70:a2:51:
         dc:89:9d:38:12:ee:ab:f6:85:2c:d1:96:bc:7d:0f:db:04:56:
         82:4e:08:1f:a6:1d:4e:bb:a0:1f:da:f2:67:5d:9c:8a:3b:92:
         81:4b:6d:47:11:17:14:39:3d:0a:bc:b4:2a:96:a8:ef:3e:85:
         36:67:bd:37:84:40:76:8e:aa:7a:d5:f8:45:4f:c5:f8:8c:d1:
         fa:6e:b1:32:50:eb:51:ba:ec:9b:be:81:35:f6:ea:d8:10:55:
         96:59:71:4d:ee:81:84:6d:f2:3c:1b:01:3e:e3:4e:6e:1e:3b:
         8b:cb:7d:6c
-----BEGIN CERTIFICATE-----
MIIDeDCCAmCgAwIBAgIRANPJtQE0P3ZZSnl7HrS95WIwDQYJKoZIhvcNAQELBQAw
FjEUMBIGA1UEAwwLdGVhbTMyNS1uZXQwHhcNMjIwNTE4MjAxMzA0WhcNMjUwNTAy
MjAxMzA0WjAZMRcwFQYDVQQDDA50ZWFtMzI1LXNlcnZlcjCCASIwDQYJKoZIhvcN
AQEBBQADggEPADCCAQoCggEBAKdQN2oClDnISIlIBFzqSsOK7xNCHGhGub8PsWhK
Vnqdwn0SpJC6rdaaR38PJUq7IrI2NSL7bHXtp2y7NchPdsMIMcbK3CDOZLPJLXz/
WUrBmm4QmgOdRQ3mrR6iWhkKPVhlBiHoyM1D9/l5HIOZcHiu14thvomhgzO942TN
bRxV1yDFYiK+VTxjD+RW7ktTbjhUOYSOfUzhFpFZwiYO/Qff8QGHfPNmlf+p6nhe
zJkBzjIoYygQP8Y0WnxUvPObRwDhU1grR1/etYLRpjZ6P3pRnQKKLN9s+7m/tmD8
71LXLhomXFpAXht2VNSxptljoTtb7zeDN8z1S+A0bSFta/kCAwEAAaOBvTCBujAJ
BgNVHRMEAjAAMB0GA1UdDgQWBBRvK1Afy6uUcJq0ldsmgXENt6rs7zBRBgNVHSME
SjBIgBRV3fbEUVff/7iLHMzxlQCbaadDyKEapBgwFjEUMBIGA1UEAwwLdGVhbTMy
NS1uZXSCFFAdqmCNc8o3PMs9xOHAWI/eMZQTMBMGA1UdJQQMMAoGCCsGAQUFBwMB
MAsGA1UdDwQEAwIFoDAZBgNVHREEEjAQgg50ZWFtMzI1LXNlcnZlcjANBgkqhkiG
9w0BAQsFAAOCAQEAa+e2FX0UCF/74ydZI0rfoPH3LGhaluJAUB1/NHKH+/x0yL+M
YtbThh2TMUObbUshSd+QkNgPcIwlRLwY78Pm5P0LDAZowGUNmFYXsmPFZFevL2vN
qXnEUmYrOHOeif7aDqC+IVWaUwhWb0BxAEp0B6FouafiQZ8LPacIFlRbnl4/lTYt
Jgrw2baNQMc2cKJR3ImdOBLuq/aFLNGWvH0P2wRWgk4IH6YdTrugH9ryZ12cijuS
gUttRxEXFDk9Cry0Kpao7z6FNme9N4RAdo6qetX4RU/F+IzR+m6xMlDrUbrsm76B
Nfbq2BBVlllxTe6BhG3yPBsBPuNObh47i8t9bA==
-----END CERTIFICATE-----
