Certificate:
    Data:
        Version: 3 (0x2)
        Serial Number:
            1d:70:58:ad:55:cd:f4:b6:41:f6:98:6f:89:07:94:30
        Signature Algorithm: sha256WithRSAEncryption
        Issuer: CN=team646-net
        Validity
            Not Before: May 18 23:01:41 2022 GMT
            Not After : May  2 23:01:41 2025 GMT
        Subject: CN=team646-client
        Subject Public Key Info:
            Public Key Algorithm: rsaEncryption
                RSA Public-Key: (2048 bit)
                Modulus:
                    00:cc:97:d2:ce:7f:3a:c5:91:1d:54:93:f7:8a:4a:
                    ca:07:ec:64:3f:a6:55:c1:4c:0c:15:9e:9b:88:6a:
                    75:67:76:57:67:fb:65:ba:d3:48:45:c6:d2:be:1a:
                    db:a9:9f:5b:20:9b:e3:df:be:bf:5d:4f:a9:bd:cf:
                    24:1b:9c:14:2a:be:d8:0d:e0:79:e8:3f:33:a0:59:
                    b3:52:ba:6e:71:3d:f3:ae:84:9b:41:ef:aa:72:b7:
                    e5:e8:ee:71:8e:f3:fc:09:da:ac:b4:25:3f:a6:a0:
                    0a:8e:0b:e0:cf:0c:8b:20:fc:44:52:b5:a0:88:a3:
                    7d:c5:a6:20:14:16:7c:82:45:2a:1a:1c:2d:8a:3f:
                    35:0a:87:fe:7d:68:70:de:89:03:0d:80:68:3e:da:
                    01:52:57:0f:55:8b:0f:6a:43:be:cc:6f:a8:3b:49:
                    c1:cd:cc:fc:43:4b:4c:f6:41:c7:c5:bb:dd:f9:e3:
                    29:e6:e5:ae:a0:0f:3e:79:58:c4:84:dc:07:4d:27:
                    d8:d1:9d:e6:40:2f:48:7a:05:07:b4:86:c4:ee:51:
                    c4:f8:08:16:ae:23:0d:75:15:63:fe:f2:ab:63:7d:
                    6e:38:ec:50:0e:22:56:9b:49:dc:bf:0e:dd:cb:27:
                    dc:b5:47:0d:7f:f1:d5:78:b9:b7:79:4c:41:eb:49:
                    ba:05
                Exponent: 65537 (0x10001)
        X509v3 extensions:
            X509v3 Basic Constraints: 
                CA:FALSE
            X509v3 Subject Key Identifier: 
                4B:EF:50:1B:9C:C2:6E:7A:EE:86:F8:AB:97:12:51:7F:23:06:55:28
            X509v3 Authority Key Identifier: 
                keyid:7B:BA:19:5A:70:E2:39:64:BE:23:C5:FB:76:BF:18:D3:D1:DC:E0:C5
                DirName:/CN=team646-net
                serial:14:C3:5B:3C:99:36:7D:CF:F4:3F:6E:2C:69:FB:B0:6B:22:00:27:49

            X509v3 Extended Key Usage: 
                TLS Web Client Authentication
            X509v3 Key Usage: 
                Digital Signature
    Signature Algorithm: sha256WithRSAEncryption
         1d:c9:71:3d:b3:e9:de:dc:53:ce:7e:3a:1d:3e:a1:a0:66:3c:
         d3:56:c0:08:3a:5b:2f:2e:91:00:0b:12:fd:c4:f8:92:f6:38:
         32:d7:73:05:67:ce:44:ca:d8:a4:ad:60:e0:ea:fb:fc:c8:3a:
         15:de:67:0d:cb:bb:7d:ed:1f:2f:3d:3c:b5:5d:fa:e6:b4:8f:
         cf:8c:9f:e6:59:be:76:19:a2:88:16:a0:fa:31:f3:c3:fb:b0:
         52:28:d3:06:f0:7b:2d:68:d7:1d:d3:e2:8c:f9:49:58:be:99:
         6e:20:af:72:02:9f:0a:10:eb:0d:98:92:ac:1a:e4:92:07:09:
         a8:a5:57:2f:57:51:0a:88:51:7a:4c:54:fb:4e:5d:65:0b:ae:
         a1:e6:0b:bd:ca:1b:6e:52:68:e7:f1:cd:1d:17:8f:b0:7a:12:
         b9:58:31:22:d8:27:f8:e3:65:87:9e:86:48:7a:b5:63:4e:a0:
         65:fa:1d:e0:14:6f:c5:d1:81:63:ab:59:fe:c0:5d:e8:ab:78:
         6f:3c:cb:78:1a:39:41:c4:34:a8:0c:0d:1c:45:f7:ee:4d:49:
         13:3a:b4:62:5e:cd:ae:fc:0d:cb:9b:33:5f:fd:33:d3:7c:8a:
         0d:9d:e1:a5:35:01:85:ab:6c:c4:fb:37:32:d4:ce:8c:02:00:
         e9:ed:82:fb
-----BEGIN CERTIFICATE-----
MIIDXDCCAkSgAwIBAgIQHXBYrVXN9LZB9phviQeUMDANBgkqhkiG9w0BAQsFADAW
MRQwEgYDVQQDDAt0ZWFtNjQ2LW5ldDAeFw0yMjA1MTgyMzAxNDFaFw0yNTA1MDIy
MzAxNDFaMBkxFzAVBgNVBAMMDnRlYW02NDYtY2xpZW50MIIBIjANBgkqhkiG9w0B
AQEFAAOCAQ8AMIIBCgKCAQEAzJfSzn86xZEdVJP3ikrKB+xkP6ZVwUwMFZ6biGp1
Z3ZXZ/tlutNIRcbSvhrbqZ9bIJvj376/XU+pvc8kG5wUKr7YDeB56D8zoFmzUrpu
cT3zroSbQe+qcrfl6O5xjvP8CdqstCU/pqAKjgvgzwyLIPxEUrWgiKN9xaYgFBZ8
gkUqGhwtij81Cof+fWhw3okDDYBoPtoBUlcPVYsPakO+zG+oO0nBzcz8Q0tM9kHH
xbvd+eMp5uWuoA8+eVjEhNwHTSfY0Z3mQC9IegUHtIbE7lHE+AgWriMNdRVj/vKr
Y31uOOxQDiJWm0ncvw7dyyfctUcNf/HVeLm3eUxB60m6BQIDAQABo4GiMIGfMAkG
A1UdEwQCMAAwHQYDVR0OBBYEFEvvUBucwm567ob4q5cSUX8jBlUoMFEGA1UdIwRK
MEiAFHu6GVpw4jlkviPF+3a/GNPR3ODFoRqkGDAWMRQwEgYDVQQDDAt0ZWFtNjQ2
LW5ldIIUFMNbPJk2fc/0P24safuwayIAJ0kwEwYDVR0lBAwwCgYIKwYBBQUHAwIw
CwYDVR0PBAQDAgeAMA0GCSqGSIb3DQEBCwUAA4IBAQAdyXE9s+ne3FPOfjodPqGg
ZjzTVsAIOlsvLpEACxL9xPiS9jgy13MFZ85EytikrWDg6vv8yDoV3mcNy7t97R8v
PTy1XfrmtI/PjJ/mWb52GaKIFqD6MfPD+7BSKNMG8HstaNcd0+KM+UlYvpluIK9y
Ap8KEOsNmJKsGuSSBwmopVcvV1EKiFF6TFT7Tl1lC66h5gu9yhtuUmjn8c0dF4+w
ehK5WDEi2Cf442WHnoZIerVjTqBl+h3gFG/F0YFjq1n+wF3oq3hvPMt4GjlBxDSo
DA0cRffuTUkTOrRiXs2u/A3LmzNf/TPTfIoNneGlNQGFq2zE+zcy1M6MAgDp7YL7
-----END CERTIFICATE-----
