Certificate:
    Data:
        Version: 3 (0x2)
        Serial Number:
            6b:c7:af:62:be:17:00:fa:a9:7d:c0:30:1c:d8:43:9e
        Signature Algorithm: sha256WithRSAEncryption
        Issuer: CN=team646-net
        Validity
            Not Before: May 18 23:01:41 2022 GMT
            Not After : May  2 23:01:41 2025 GMT
        Subject: CN=team646-server
        Subject Public Key Info:
            Public Key Algorithm: rsaEncryption
                RSA Public-Key: (2048 bit)
                Modulus:
                    00:a1:02:29:5b:b8:47:36:08:c6:d9:92:8a:03:7c:
                    f3:24:fc:13:65:08:ca:87:f8:8a:6d:22:9b:25:2f:
                    f6:f7:a5:12:a0:9e:a4:92:94:88:0d:da:29:04:69:
                    b0:5b:70:9c:c6:24:fc:d4:0e:f9:c1:d9:06:19:3b:
                    e7:e5:15:a8:75:36:32:c6:e9:60:8a:af:2c:aa:9c:
                    df:13:68:d1:d0:0f:a0:cb:76:fe:8e:db:06:26:7e:
                    72:03:bc:bd:4e:7e:a1:0a:d5:7f:f5:48:c1:c4:bc:
                    c2:4b:a9:49:f9:ea:18:85:f8:96:10:0e:29:c0:0d:
                    24:53:f4:6a:30:32:3b:ab:62:cb:47:db:21:d5:25:
                    86:dc:62:e8:7f:00:d3:38:ee:50:e7:c2:b6:3e:ab:
                    17:45:40:b5:cb:77:35:a0:ba:09:b7:9c:83:9c:3c:
                    0c:a1:a5:35:58:d5:05:8c:8a:3e:37:4e:39:ca:e1:
                    ce:e5:1b:33:63:c0:b1:d6:90:a0:ea:7d:ae:62:6c:
                    4a:02:bf:f9:0e:7b:4d:6c:de:40:e5:01:91:b6:50:
                    d8:ea:76:1b:1f:40:ed:cd:23:e3:39:f5:71:9b:d8:
                    76:84:8c:d0:3b:19:7f:14:19:e9:88:32:fb:25:51:
                    ef:ad:87:a4:2a:fe:e9:cf:f5:56:27:bc:f7:15:ca:
                    7a:89
                Exponent: 65537 (0x10001)
        X509v3 extensions:
            X509v3 Basic Constraints: 
                CA:FALSE
            X509v3 Subject Key Identifier: 
                5A:26:8D:94:4B:9B:77:F4:60:EE:A5:F6:14:47:5C:5B:31:B2:80:79
            X509v3 Authority Key Identifier: 
                keyid:7B:BA:19:5A:70:E2:39:64:BE:23:C5:FB:76:BF:18:D3:D1:DC:E0:C5
                DirName:/CN=team646-net
                serial:14:C3:5B:3C:99:36:7D:CF:F4:3F:6E:2C:69:FB:B0:6B:22:00:27:49

            X509v3 Extended Key Usage: 
                TLS Web Server Authentication
            X509v3 Key Usage: 
                Digital Signature, Key Encipherment
            X509v3 Subject Alternative Name: 
                DNS:team646-server
    Signature Algorithm: sha256WithRSAEncryption
         99:c1:49:1a:db:8b:81:ac:c9:51:20:0b:5b:b3:17:55:d3:fc:
         29:ea:f8:b2:6e:78:75:aa:dd:dd:d0:08:7a:d6:fc:6b:03:ad:
         9c:e1:c6:24:31:8d:91:73:c0:20:fd:5b:06:9b:63:41:d7:28:
         4d:3b:c4:ad:f6:af:83:84:98:a5:d8:1a:f0:6b:a3:62:2e:67:
         62:4d:ad:bf:c8:44:b0:99:ab:17:a9:ca:ed:d5:f6:55:ae:74:
         da:ed:7c:6e:ab:e4:75:50:f7:59:19:81:1d:c6:44:53:8e:00:
         e8:47:57:4b:f2:8f:a9:81:7e:ce:5a:8a:19:92:62:04:a3:0c:
         c3:c6:38:26:81:16:79:47:ff:3c:5e:e7:9c:ec:12:5c:fa:ca:
         9a:d5:5d:49:ed:a1:e2:69:f8:19:f7:f6:6f:bb:11:88:72:cf:
         51:a6:d7:4d:e1:b2:b9:55:7d:24:38:f9:2e:c1:87:d9:44:fd:
         70:32:62:00:03:28:61:d8:6b:e8:8a:a9:67:0c:9f:2c:35:c2:
         17:81:b4:32:f0:21:21:8e:ed:5e:f0:ef:35:d1:b8:ff:44:7c:
         eb:01:eb:18:b8:74:a7:d3:27:58:55:84:c8:a5:fa:74:3e:38:
         7f:4a:9c:49:26:7f:a1:95:5f:63:53:b8:70:dd:53:42:a0:98:
         97:88:b1:13
-----BEGIN CERTIFICATE-----
MIIDdzCCAl+gAwIBAgIQa8evYr4XAPqpfcAwHNhDnjANBgkqhkiG9w0BAQsFADAW
MRQwEgYDVQQDDAt0ZWFtNjQ2LW5ldDAeFw0yMjA1MTgyMzAxNDFaFw0yNTA1MDIy
MzAxNDFaMBkxFzAVBgNVBAMMDnRlYW02NDYtc2VydmVyMIIBIjANBgkqhkiG9w0B
AQEFAAOCAQ8AMIIBCgKCAQEAoQIpW7hHNgjG2ZKKA3zzJPwTZQjKh/iKbSKbJS/2
96USoJ6kkpSIDdopBGmwW3CcxiT81A75wdkGGTvn5RWodTYyxulgiq8sqpzfE2jR
0A+gy3b+jtsGJn5yA7y9Tn6hCtV/9UjBxLzCS6lJ+eoYhfiWEA4pwA0kU/RqMDI7
q2LLR9sh1SWG3GLofwDTOO5Q58K2PqsXRUC1y3c1oLoJt5yDnDwMoaU1WNUFjIo+
N045yuHO5RszY8Cx1pCg6n2uYmxKAr/5DntNbN5A5QGRtlDY6nYbH0DtzSPjOfVx
m9h2hIzQOxl/FBnpiDL7JVHvrYekKv7pz/VWJ7z3Fcp6iQIDAQABo4G9MIG6MAkG
A1UdEwQCMAAwHQYDVR0OBBYEFFomjZRLm3f0YO6l9hRHXFsxsoB5MFEGA1UdIwRK
MEiAFHu6GVpw4jlkviPF+3a/GNPR3ODFoRqkGDAWMRQwEgYDVQQDDAt0ZWFtNjQ2
LW5ldIIUFMNbPJk2fc/0P24safuwayIAJ0kwEwYDVR0lBAwwCgYIKwYBBQUHAwEw
CwYDVR0PBAQDAgWgMBkGA1UdEQQSMBCCDnRlYW02NDYtc2VydmVyMA0GCSqGSIb3
DQEBCwUAA4IBAQCZwUka24uBrMlRIAtbsxdV0/wp6viybnh1qt3d0Ah61vxrA62c
4cYkMY2Rc8Ag/VsGm2NB1yhNO8St9q+DhJil2Brwa6NiLmdiTa2/yESwmasXqcrt
1fZVrnTa7Xxuq+R1UPdZGYEdxkRTjgDoR1dL8o+pgX7OWooZkmIEowzDxjgmgRZ5
R/88Xuec7BJc+sqa1V1J7aHiafgZ9/ZvuxGIcs9RptdN4bK5VX0kOPkuwYfZRP1w
MmIAAyhh2GvoiqlnDJ8sNcIXgbQy8CEhju1e8O810bj/RHzrAesYuHSn0ydYVYTI
pfp0Pjh/SpxJJn+hlV9jU7hw3VNCoJiXiLET
-----END CERTIFICATE-----
