Certificate:
    Data:
        Version: 3 (0x2)
        Serial Number:
            c2:b1:d0:40:00:31:dd:3e:6c:91:ac:d6:07:a2:d8:ff
        Signature Algorithm: sha256WithRSAEncryption
        Issuer: CN=team238-net
        Validity
            Not Before: May 18 19:35:25 2022 GMT
            Not After : May  2 19:35:25 2025 GMT
        Subject: CN=team238-server
        Subject Public Key Info:
            Public Key Algorithm: rsaEncryption
                RSA Public-Key: (2048 bit)
                Modulus:
                    00:c5:2f:ca:d1:4f:59:46:d1:f8:84:c3:be:b1:b7:
                    10:dc:cf:d0:b8:4a:76:0e:96:5a:9c:1b:c9:97:af:
                    2f:9c:99:1a:5a:77:78:14:21:0d:36:03:0e:95:6a:
                    5e:c9:5e:41:db:4f:91:4d:c4:54:16:4f:61:3d:72:
                    23:e9:2e:07:6a:7e:fd:5c:15:4c:58:8a:3d:c9:9f:
                    cc:39:2e:1c:fd:f8:1c:15:3c:dd:7e:c9:01:38:52:
                    d4:91:30:66:04:e4:5d:d0:41:31:fd:ea:19:cb:96:
                    1a:5b:26:7c:eb:ff:56:5b:f7:87:6c:7e:20:ba:22:
                    eb:dd:07:c5:3f:88:ee:c1:21:0a:df:a1:6d:99:ab:
                    7c:aa:7d:16:81:72:e1:ef:c1:3b:57:86:b1:06:8d:
                    fc:e4:a9:a8:ce:62:67:8b:09:57:16:d5:77:da:03:
                    44:83:57:d3:94:82:0e:ec:09:5c:7a:60:bf:a2:cb:
                    06:8b:57:6c:56:27:bd:15:ad:ec:09:8d:70:43:2d:
                    49:1b:cf:32:c9:bf:b0:61:9c:53:e9:22:f5:49:d1:
                    9a:fc:04:28:f1:6d:ce:94:67:a1:25:16:a1:24:bc:
                    e9:98:5c:c8:b7:de:c8:dc:1a:e9:0b:8e:87:f4:11:
                    31:44:79:b9:f3:4d:96:2e:d8:42:3a:90:2f:1f:79:
                    42:6f
                Exponent: 65537 (0x10001)
        X509v3 extensions:
            X509v3 Basic Constraints: 
                CA:FALSE
            X509v3 Subject Key Identifier: 
                32:BB:CE:E0:30:07:5B:1E:C1:DD:26:ED:39:4A:BF:2F:BF:06:3A:20
            X509v3 Authority Key Identifier: 
                keyid:56:B3:4B:F8:1D:E3:1B:6D:1B:52:7B:36:D0:E5:7F:4C:53:5E:47:CF
                DirName:/CN=team238-net
                serial:70:32:39:E1:81:A5:28:83:66:79:E2:4F:B2:3F:9B:BC:86:D1:EE:B3

            X509v3 Extended Key Usage: 
                TLS Web Server Authentication
            X509v3 Key Usage: 
                Digital Signature, Key Encipherment
            X509v3 Subject Alternative Name: 
                DNS:team238-server
    Signature Algorithm: sha256WithRSAEncryption
         12:9a:1e:ff:b5:d4:be:4e:86:dc:c4:fd:53:99:7b:e5:e3:22:
         5e:1a:bc:39:0c:41:61:4e:86:64:58:31:07:a4:0d:cf:4f:fd:
         c6:ed:3f:7d:3c:f6:9f:db:13:31:bf:92:20:93:04:fd:bf:c5:
         5a:7c:15:10:4d:11:2a:50:2f:af:d3:53:8c:e5:4a:30:a1:8f:
         8d:55:31:86:67:f3:3d:48:09:b3:f0:56:d3:6d:45:59:c9:33:
         0a:e0:c1:ff:38:1e:48:ad:b6:74:83:f7:b1:71:18:62:54:90:
         e0:a1:59:96:f3:62:9d:f2:82:75:d7:e2:b7:b2:40:5e:a5:70:
         e5:7a:5d:c0:cb:9e:8d:e1:98:92:bc:ab:38:44:9f:b4:ff:7e:
         19:0f:c4:65:fc:7c:15:ab:30:8b:99:df:09:a0:77:9d:90:9c:
         6b:91:5d:9b:48:02:3d:a4:c1:c8:98:6a:ae:3f:57:49:08:54:
         a5:bf:be:9d:da:e5:aa:13:5e:fe:37:a7:21:02:6a:fc:83:67:
         7f:54:08:cb:f2:de:42:ad:41:62:64:92:7d:e1:e9:d7:3f:81:
         86:a6:de:84:d0:be:0b:79:23:84:52:64:d2:06:a3:6b:ba:e4:
         83:96:21:e9:a5:21:4b:73:d1:ee:be:32:b5:d1:8f:1e:5f:fe:
         e2:c1:8d:7e
-----BEGIN CERTIFICATE-----
MIIDeDCCAmCgAwIBAgIRAMKx0EAAMd0+bJGs1gei2P8wDQYJKoZIhvcNAQELBQAw
FjEUMBIGA1UEAwwLdGVhbTIzOC1uZXQwHhcNMjIwNTE4MTkzNTI1WhcNMjUwNTAy
MTkzNTI1WjAZMRcwFQYDVQQDDA50ZWFtMjM4LXNlcnZlcjCCASIwDQYJKoZIhvcN
AQEBBQADggEPADCCAQoCggEBAMUvytFPWUbR+ITDvrG3ENzP0LhKdg6WWpwbyZev
L5yZGlp3eBQhDTYDDpVqXsleQdtPkU3EVBZPYT1yI+kuB2p+/VwVTFiKPcmfzDku
HP34HBU83X7JAThS1JEwZgTkXdBBMf3qGcuWGlsmfOv/Vlv3h2x+ILoi690HxT+I
7sEhCt+hbZmrfKp9FoFy4e/BO1eGsQaN/OSpqM5iZ4sJVxbVd9oDRINX05SCDuwJ
XHpgv6LLBotXbFYnvRWt7AmNcEMtSRvPMsm/sGGcU+ki9UnRmvwEKPFtzpRnoSUW
oSS86ZhcyLfeyNwa6QuOh/QRMUR5ufNNli7YQjqQLx95Qm8CAwEAAaOBvTCBujAJ
BgNVHRMEAjAAMB0GA1UdDgQWBBQyu87gMAdbHsHdJu05Sr8vvwY6IDBRBgNVHSME
SjBIgBRWs0v4HeMbbRtSezbQ5X9MU15Hz6EapBgwFjEUMBIGA1UEAwwLdGVhbTIz
OC1uZXSCFHAyOeGBpSiDZnniT7I/m7yG0e6zMBMGA1UdJQQMMAoGCCsGAQUFBwMB
MAsGA1UdDwQEAwIFoDAZBgNVHREEEjAQgg50ZWFtMjM4LXNlcnZlcjANBgkqhkiG
9w0BAQsFAAOCAQEAEpoe/7XUvk6G3MT9U5l75eMiXhq8OQxBYU6GZFgxB6QNz0/9
xu0/fTz2n9sTMb+SIJME/b/FWnwVEE0RKlAvr9NTjOVKMKGPjVUxhmfzPUgJs/BW
021FWckzCuDB/zgeSK22dIP3sXEYYlSQ4KFZlvNinfKCddfit7JAXqVw5XpdwMue
jeGYkryrOESftP9+GQ/EZfx8Faswi5nfCaB3nZCca5Fdm0gCPaTByJhqrj9XSQhU
pb++ndrlqhNe/jenIQJq/INnf1QIy/LeQq1BYmSSfeHp1z+BhqbehNC+C3kjhFJk
0gaja7rkg5Yh6aUhS3PR7r4ytdGPHl/+4sGNfg==
-----END CERTIFICATE-----
