Certificate:
    Data:
        Version: 3 (0x2)
        Serial Number:
            f2:99:10:12:d2:a0:d6:97:ec:22:3c:1e:c7:46:d1:46
        Signature Algorithm: sha256WithRSAEncryption
        Issuer: CN=team525-net
        Validity
            Not Before: May 18 22:06:59 2022 GMT
            Not After : May  2 22:06:59 2025 GMT
        Subject: CN=team525-client
        Subject Public Key Info:
            Public Key Algorithm: rsaEncryption
                RSA Public-Key: (2048 bit)
                Modulus:
                    00:ba:d7:f2:ed:78:56:f5:3f:ab:c0:a1:57:81:57:
                    cb:c7:c6:9a:eb:20:83:51:d6:07:dd:64:9b:81:b5:
                    0e:47:87:17:10:7e:dc:3b:5b:84:42:d1:8d:6b:bb:
                    10:26:52:28:20:59:04:25:cc:e6:b3:3f:5a:88:65:
                    03:cd:c2:22:e4:8e:65:2e:f5:4a:23:1e:ee:30:bb:
                    fa:64:33:6f:93:8e:83:db:89:c5:87:21:97:18:4b:
                    a3:83:e7:f7:5d:17:2a:a8:d6:4c:68:9a:be:fe:77:
                    ac:93:98:f9:e7:f6:8f:7c:d0:6f:7b:5f:da:51:0c:
                    14:ba:3c:10:6b:52:82:fa:cd:52:f1:f9:e6:71:b6:
                    00:29:87:9e:08:29:8b:a7:16:37:1d:6f:0d:fd:e3:
                    e7:f1:ae:95:2e:76:1c:d2:32:46:8f:41:6a:2e:81:
                    5c:7e:5f:d1:d4:58:1a:96:9a:63:72:b7:3d:5e:8e:
                    59:22:55:80:2d:55:e4:92:3b:70:54:fd:d0:1e:d7:
                    94:9a:08:fc:b9:21:79:c3:d2:2a:bc:ad:36:88:cc:
                    5c:f2:e7:62:28:3a:26:ef:be:38:6b:63:43:0a:eb:
                    73:f1:52:7e:6e:c1:75:85:0a:b1:68:28:2a:33:d9:
                    a0:37:c1:2d:54:81:47:3b:cf:ad:24:56:76:5e:44:
                    59:a1
                Exponent: 65537 (0x10001)
        X509v3 extensions:
            X509v3 Basic Constraints: 
                CA:FALSE
            X509v3 Subject Key Identifier: 
                80:31:62:95:42:EF:B7:44:F8:15:21:9F:87:B2:87:D3:FD:16:D8:66
            X509v3 Authority Key Identifier: 
                keyid:09:B7:E5:21:A1:05:E8:EC:FF:4E:70:EA:89:A6:66:D5:2E:D3:C2:4D
                DirName:/CN=team525-net
                serial:3C:85:32:2D:97:A5:08:D4:66:BC:95:EC:F9:74:3A:22:F0:AB:ED:A8

            X509v3 Extended Key Usage: 
                TLS Web Client Authentication
            X509v3 Key Usage: 
                Digital Signature
    Signature Algorithm: sha256WithRSAEncryption
         5d:e0:f5:6f:ed:65:78:3e:a7:9d:50:2f:8b:7e:b0:a9:41:4a:
         8f:13:e6:cf:88:b1:9d:9b:07:f8:8a:a6:67:4e:24:46:03:fb:
         e5:94:ab:42:3d:39:82:6b:d0:0c:59:6c:58:23:b3:1a:ce:35:
         fc:1d:01:31:f5:9e:63:75:59:63:86:53:4d:a7:38:12:89:79:
         64:36:15:ae:f0:5c:13:96:76:b0:df:25:06:20:e7:cf:25:51:
         92:a5:c6:64:29:cc:36:51:f5:a2:e9:e1:59:ce:d0:73:cd:13:
         a9:c8:1c:12:ff:46:24:8b:ff:1f:96:a1:61:01:dc:f2:2a:d8:
         15:a2:73:da:ca:06:6a:54:71:03:cd:55:87:c0:84:44:37:98:
         aa:e3:9e:d4:f4:0e:20:7e:24:7b:a3:d1:93:d2:ce:f9:4d:0a:
         c5:63:68:02:43:a1:c0:6f:b7:00:1d:ed:66:90:18:9e:41:b8:
         fe:85:97:12:6a:5a:71:2b:d1:42:a5:b1:7a:79:43:57:b6:c4:
         a9:08:e8:bf:0b:1c:f7:2e:8a:82:d3:90:c0:8e:2e:e6:43:61:
         a7:b1:19:35:21:e9:92:b7:17:ca:61:3d:33:6f:17:3d:80:f0:
         b8:f2:0a:80:90:3f:ab:72:7e:04:c4:4f:a6:34:26:6c:6a:b1:
         b1:4c:85:00
-----BEGIN CERTIFICATE-----
MIIDXTCCAkWgAwIBAgIRAPKZEBLSoNaX7CI8HsdG0UYwDQYJKoZIhvcNAQELBQAw
FjEUMBIGA1UEAwwLdGVhbTUyNS1uZXQwHhcNMjIwNTE4MjIwNjU5WhcNMjUwNTAy
MjIwNjU5WjAZMRcwFQYDVQQDDA50ZWFtNTI1LWNsaWVudDCCASIwDQYJKoZIhvcN
AQEBBQADggEPADCCAQoCggEBALrX8u14VvU/q8ChV4FXy8fGmusgg1HWB91km4G1
DkeHFxB+3DtbhELRjWu7ECZSKCBZBCXM5rM/WohlA83CIuSOZS71SiMe7jC7+mQz
b5OOg9uJxYchlxhLo4Pn910XKqjWTGiavv53rJOY+ef2j3zQb3tf2lEMFLo8EGtS
gvrNUvH55nG2ACmHnggpi6cWNx1vDf3j5/GulS52HNIyRo9Bai6BXH5f0dRYGpaa
Y3K3PV6OWSJVgC1V5JI7cFT90B7XlJoI/LkhecPSKrytNojMXPLnYig6Ju++OGtj
Qwrrc/FSfm7BdYUKsWgoKjPZoDfBLVSBRzvPrSRWdl5EWaECAwEAAaOBojCBnzAJ
BgNVHRMEAjAAMB0GA1UdDgQWBBSAMWKVQu+3RPgVIZ+HsofT/RbYZjBRBgNVHSME
SjBIgBQJt+UhoQXo7P9OcOqJpmbVLtPCTaEapBgwFjEUMBIGA1UEAwwLdGVhbTUy
NS1uZXSCFDyFMi2XpQjUZryV7Pl0OiLwq+2oMBMGA1UdJQQMMAoGCCsGAQUFBwMC
MAsGA1UdDwQEAwIHgDANBgkqhkiG9w0BAQsFAAOCAQEAXeD1b+1leD6nnVAvi36w
qUFKjxPmz4ixnZsH+IqmZ04kRgP75ZSrQj05gmvQDFlsWCOzGs41/B0BMfWeY3VZ
Y4ZTTac4Eol5ZDYVrvBcE5Z2sN8lBiDnzyVRkqXGZCnMNlH1ounhWc7Qc80Tqcgc
Ev9GJIv/H5ahYQHc8irYFaJz2soGalRxA81Vh8CERDeYquOe1PQOIH4ke6PRk9LO
+U0KxWNoAkOhwG+3AB3tZpAYnkG4/oWXEmpacSvRQqWxenlDV7bEqQjovwsc9y6K
gtOQwI4u5kNhp7EZNSHpkrcXymE9M28XPYDwuPIKgJA/q3J+BMRPpjQmbGqxsUyF
AA==
-----END CERTIFICATE-----
