Certificate:
    Data:
        Version: 3 (0x2)
        Serial Number:
            fd:3e:4d:77:7d:fd:80:87:6f:ba:75:ae:0f:03:fa:b7
        Signature Algorithm: sha256WithRSAEncryption
        Issuer: CN=team525-net
        Validity
            Not Before: May 18 22:06:59 2022 GMT
            Not After : May  2 22:06:59 2025 GMT
        Subject: CN=team525-server
        Subject Public Key Info:
            Public Key Algorithm: rsaEncryption
                RSA Public-Key: (2048 bit)
                Modulus:
                    00:c4:94:6f:d1:ae:06:76:a5:26:b6:fb:6b:45:2a:
                    d2:3a:c7:57:c0:62:2d:6d:a9:71:c5:2c:fa:7d:30:
                    b0:5e:2d:2c:df:b1:95:fd:f0:0a:5b:9c:7b:b0:98:
                    52:cf:05:12:7a:01:38:01:f1:55:e2:72:35:f8:6f:
                    1f:fb:29:51:ca:dc:02:7f:ea:57:89:9f:06:de:f3:
                    4b:6b:fe:bc:7c:3b:7e:09:c7:8b:e9:4f:ee:4a:6c:
                    77:24:fe:83:c9:f9:0e:15:6e:26:ce:9e:d4:73:a2:
                    f1:71:26:7a:f9:e8:31:9d:28:29:19:5f:bc:04:66:
                    72:d3:2b:7b:29:df:5b:32:16:93:6e:05:e9:73:56:
                    47:75:33:ae:30:bb:e4:c4:47:cf:e1:9a:76:78:c8:
                    25:3a:81:ce:ae:1c:65:11:31:06:05:61:17:26:19:
                    30:cb:40:14:70:3d:af:1c:69:49:03:0c:04:0e:d3:
                    f4:1c:fe:e8:ad:c9:59:e9:37:82:35:13:ee:9c:55:
                    39:e0:f0:41:b9:71:2c:8d:b7:b4:90:b5:67:c1:b6:
                    98:0f:4f:81:f1:f5:06:ab:95:00:10:98:a6:62:16:
                    b1:c4:ca:e7:fa:1b:5e:70:c3:e5:fc:1b:e8:da:fe:
                    17:15:64:4e:ff:ba:8c:ae:1f:d9:b7:26:44:e2:39:
                    a8:81
                Exponent: 65537 (0x10001)
        X509v3 extensions:
            X509v3 Basic Constraints: 
                CA:FALSE
            X509v3 Subject Key Identifier: 
                83:CC:30:46:76:60:3A:23:F2:22:16:D3:76:50:38:73:8D:B6:3A:03
            X509v3 Authority Key Identifier: 
                keyid:09:B7:E5:21:A1:05:E8:EC:FF:4E:70:EA:89:A6:66:D5:2E:D3:C2:4D
                DirName:/CN=team525-net
                serial:3C:85:32:2D:97:A5:08:D4:66:BC:95:EC:F9:74:3A:22:F0:AB:ED:A8

            X509v3 Extended Key Usage: 
                TLS Web Server Authentication
            X509v3 Key Usage: 
                Digital Signature, Key Encipherment
            X509v3 Subject Alternative Name: 
                DNS:team525-server
    Signature Algorithm: sha256WithRSAEncryption
         b1:11:6e:b9:06:6f:16:5f:2f:e9:93:9a:8c:1f:dc:33:c8:53:
         79:66:d4:05:77:3e:11:d3:6b:e5:01:f9:ca:44:61:75:9b:d0:
         46:87:d0:46:b1:27:c1:75:bd:8f:5a:33:4d:87:f7:a7:a8:6a:
         47:83:7c:39:af:d5:67:a6:82:27:d6:06:1f:7e:24:ef:e1:fa:
         38:0a:1a:45:41:ed:20:df:cb:79:57:48:ff:6b:43:40:85:b6:
         b1:3a:49:b5:dc:4e:45:15:f2:7a:23:ae:cb:33:f3:91:a9:79:
         df:5f:19:1d:12:0d:b5:ec:72:b0:62:34:e3:f3:2d:45:84:76:
         44:f1:7a:dd:11:44:82:13:1e:e7:63:90:55:8e:c2:f8:21:b9:
         a1:4e:6c:e8:e2:a6:e4:89:c4:1b:00:14:43:5c:c3:27:db:50:
         4a:95:87:d7:a4:26:de:96:5d:f9:18:b7:d2:41:d2:ff:06:0d:
         f5:6f:57:fa:4a:41:2d:01:c7:8f:ab:d0:36:98:9b:62:8b:a3:
         24:95:16:8d:c6:92:bc:8d:5c:34:0d:99:68:fa:d5:07:e1:d5:
         17:26:9c:2b:70:6f:93:0b:0b:5e:3f:a5:7f:02:bc:7e:ae:6b:
         c0:f5:e2:d0:1d:eb:1a:e9:f7:ed:45:a6:bb:e5:18:3e:3f:7b:
         fe:22:bd:21
-----BEGIN CERTIFICATE-----
MIIDeDCCAmCgAwIBAgIRAP0+TXd9/YCHb7p1rg8D+rcwDQYJKoZIhvcNAQELBQAw
FjEUMBIGA1UEAwwLdGVhbTUyNS1uZXQwHhcNMjIwNTE4MjIwNjU5WhcNMjUwNTAy
MjIwNjU5WjAZMRcwFQYDVQQDDA50ZWFtNTI1LXNlcnZlcjCCASIwDQYJKoZIhvcN
AQEBBQADggEPADCCAQoCggEBAMSUb9GuBnalJrb7a0Uq0jrHV8BiLW2pccUs+n0w
sF4tLN+xlf3wCluce7CYUs8FEnoBOAHxVeJyNfhvH/spUcrcAn/qV4mfBt7zS2v+
vHw7fgnHi+lP7kpsdyT+g8n5DhVuJs6e1HOi8XEmevnoMZ0oKRlfvARmctMreynf
WzIWk24F6XNWR3UzrjC75MRHz+GadnjIJTqBzq4cZRExBgVhFyYZMMtAFHA9rxxp
SQMMBA7T9Bz+6K3JWek3gjUT7pxVOeDwQblxLI23tJC1Z8G2mA9PgfH1BquVABCY
pmIWscTK5/obXnDD5fwb6Nr+FxVkTv+6jK4f2bcmROI5qIECAwEAAaOBvTCBujAJ
BgNVHRMEAjAAMB0GA1UdDgQWBBSDzDBGdmA6I/IiFtN2UDhzjbY6AzBRBgNVHSME
SjBIgBQJt+UhoQXo7P9OcOqJpmbVLtPCTaEapBgwFjEUMBIGA1UEAwwLdGVhbTUy
NS1uZXSCFDyFMi2XpQjUZryV7Pl0OiLwq+2oMBMGA1UdJQQMMAoGCCsGAQUFBwMB
MAsGA1UdDwQEAwIFoDAZBgNVHREEEjAQgg50ZWFtNTI1LXNlcnZlcjANBgkqhkiG
9w0BAQsFAAOCAQEAsRFuuQZvFl8v6ZOajB/cM8hTeWbUBXc+EdNr5QH5ykRhdZvQ
RofQRrEnwXW9j1ozTYf3p6hqR4N8Oa/VZ6aCJ9YGH34k7+H6OAoaRUHtIN/LeVdI
/2tDQIW2sTpJtdxORRXyeiOuyzPzkal5318ZHRINtexysGI04/MtRYR2RPF63RFE
ghMe52OQVY7C+CG5oU5s6OKm5InEGwAUQ1zDJ9tQSpWH16Qm3pZd+Ri30kHS/wYN
9W9X+kpBLQHHj6vQNpibYoujJJUWjcaSvI1cNA2ZaPrVB+HVFyacK3BvkwsLXj+l
fwK8fq5rwPXi0B3rGun37UWmu+UYPj97/iK9IQ==
-----END CERTIFICATE-----
