Certificate:
    Data:
        Version: 3 (0x2)
        Serial Number:
            4b:9f:bd:f5:05:68:98:58:78:11:3f:b0:a9:31:71:84
        Signature Algorithm: sha256WithRSAEncryption
        Issuer: CN=team62-net
        Validity
            Not Before: May 18 14:29:15 2022 GMT
            Not After : May  2 14:29:15 2025 GMT
        Subject: CN=team62-server
        Subject Public Key Info:
            Public Key Algorithm: rsaEncryption
                RSA Public-Key: (2048 bit)
                Modulus:
                    00:a5:73:ed:f1:29:00:f5:07:9b:93:a1:aa:3b:09:
                    83:af:be:0b:26:db:61:b5:20:12:90:f0:be:56:9c:
                    2e:34:d5:a3:1a:aa:df:d6:f1:eb:2e:48:b5:99:07:
                    67:60:39:08:2f:82:30:90:71:49:50:5b:bd:6e:45:
                    ab:fb:29:19:38:ed:f0:bc:96:76:96:9b:a1:64:8b:
                    65:a3:5d:d6:77:cf:0b:1f:f2:ae:4f:5c:38:bc:54:
                    32:86:44:eb:72:b5:54:f8:2b:94:dd:8e:72:30:aa:
                    7a:b7:13:38:47:91:48:e5:d0:17:e0:2d:89:76:3c:
                    6a:69:61:1a:e1:c1:3e:80:72:bb:5f:18:88:0c:df:
                    08:aa:90:dd:43:c1:7b:b8:2d:34:e8:6b:33:27:3f:
                    fe:18:97:d9:50:20:b3:3e:8b:44:7e:2c:14:d8:13:
                    ce:50:44:65:21:98:a2:ea:7b:ed:b3:73:39:77:13:
                    ed:93:59:e1:b6:07:df:39:56:05:c9:cf:54:b8:fb:
                    b1:a9:1e:cb:4b:9e:34:26:8f:69:8a:1e:f0:25:63:
                    78:bf:bc:40:b1:ef:5d:28:43:23:63:ce:9c:8b:9c:
                    1b:06:2a:eb:65:43:55:26:0a:8f:26:de:37:3f:f0:
                    19:d8:ed:08:b6:8a:38:a1:18:11:0b:20:c7:89:4e:
                    61:df
                Exponent: 65537 (0x10001)
        X509v3 extensions:
            X509v3 Basic Constraints: 
                CA:FALSE
            X509v3 Subject Key Identifier: 
                DC:57:AE:59:68:13:7A:86:AC:2F:E0:3C:58:5F:9F:27:F9:37:0F:5C
            X509v3 Authority Key Identifier: 
                keyid:12:3A:79:68:2F:C1:72:D5:71:68:16:25:9A:5D:8B:C9:DF:9A:C0:98
                DirName:/CN=team62-net
                serial:14:62:34:7A:98:95:3E:61:4A:60:A3:09:BE:FA:92:75:46:22:3F:CF

            X509v3 Extended Key Usage: 
                TLS Web Server Authentication
            X509v3 Key Usage: 
                Digital Signature, Key Encipherment
            X509v3 Subject Alternative Name: 
                DNS:team62-server
    Signature Algorithm: sha256WithRSAEncryption
         85:67:61:c6:77:db:36:7b:4a:be:38:d4:6a:e0:46:81:7e:1a:
         6f:47:a5:15:c9:9d:94:2e:17:e5:e0:60:58:2e:cc:dd:c7:dc:
         9d:37:bb:08:bd:d0:5b:b1:05:58:a1:2d:0c:b7:fa:95:b6:be:
         e6:31:e6:62:d8:eb:8b:43:02:75:2b:86:ff:32:3d:e8:9b:ca:
         77:52:33:0e:a8:77:de:a8:69:9f:63:4a:69:54:58:f5:46:e5:
         4a:da:2a:da:64:cd:53:19:7f:42:f4:23:08:52:8f:dd:ff:83:
         88:da:ef:01:83:d3:84:a9:f7:3f:70:d3:6c:04:f8:e3:f8:28:
         a4:19:4e:1b:99:a9:c3:4c:e9:bd:6f:23:d0:2b:9a:35:8a:5e:
         b0:6e:46:24:4c:82:52:b1:82:2b:47:61:b7:1b:3b:ec:df:ac:
         35:4a:c1:e8:64:73:cc:58:63:b5:9b:39:c2:fe:e2:a5:55:33:
         f2:eb:a1:12:53:42:da:3f:89:30:f2:1e:91:c0:9d:c1:86:8d:
         6a:b5:b3:21:e6:04:a0:cb:4e:f6:99:6a:84:6a:41:6d:c5:f3:
         bf:ad:4d:33:ce:10:00:68:37:bf:b9:6d:6d:72:16:4c:b0:45:
         04:fb:c9:c7:48:1b:47:4d:47:8b:c8:63:3a:30:2f:87:33:53:
         72:b0:5d:68
-----BEGIN CERTIFICATE-----
MIIDczCCAlugAwIBAgIQS5+99QVomFh4ET+wqTFxhDANBgkqhkiG9w0BAQsFADAV
MRMwEQYDVQQDDAp0ZWFtNjItbmV0MB4XDTIyMDUxODE0MjkxNVoXDTI1MDUwMjE0
MjkxNVowGDEWMBQGA1UEAwwNdGVhbTYyLXNlcnZlcjCCASIwDQYJKoZIhvcNAQEB
BQADggEPADCCAQoCggEBAKVz7fEpAPUHm5OhqjsJg6++CybbYbUgEpDwvlacLjTV
oxqq39bx6y5ItZkHZ2A5CC+CMJBxSVBbvW5Fq/spGTjt8LyWdpaboWSLZaNd1nfP
Cx/yrk9cOLxUMoZE63K1VPgrlN2OcjCqercTOEeRSOXQF+AtiXY8amlhGuHBPoBy
u18YiAzfCKqQ3UPBe7gtNOhrMyc//hiX2VAgsz6LRH4sFNgTzlBEZSGYoup77bNz
OXcT7ZNZ4bYH3zlWBcnPVLj7sakey0ueNCaPaYoe8CVjeL+8QLHvXShDI2POnIuc
GwYq62VDVSYKjybeNz/wGdjtCLaKOKEYEQsgx4lOYd8CAwEAAaOBuzCBuDAJBgNV
HRMEAjAAMB0GA1UdDgQWBBTcV65ZaBN6hqwv4DxYX58n+TcPXDBQBgNVHSMESTBH
gBQSOnloL8Fy1XFoFiWaXYvJ35rAmKEZpBcwFTETMBEGA1UEAwwKdGVhbTYyLW5l
dIIUFGI0epiVPmFKYKMJvvqSdUYiP88wEwYDVR0lBAwwCgYIKwYBBQUHAwEwCwYD
VR0PBAQDAgWgMBgGA1UdEQQRMA+CDXRlYW02Mi1zZXJ2ZXIwDQYJKoZIhvcNAQEL
BQADggEBAIVnYcZ32zZ7Sr441GrgRoF+Gm9HpRXJnZQuF+XgYFguzN3H3J03uwi9
0FuxBVihLQy3+pW2vuYx5mLY64tDAnUrhv8yPeibyndSMw6od96oaZ9jSmlUWPVG
5UraKtpkzVMZf0L0IwhSj93/g4ja7wGD04Sp9z9w02wE+OP4KKQZThuZqcNM6b1v
I9ArmjWKXrBuRiRMglKxgitHYbcbO+zfrDVKwehkc8xYY7WbOcL+4qVVM/LroRJT
Qto/iTDyHpHAncGGjWq1syHmBKDLTvaZaoRqQW3F87+tTTPOEABoN7+5bW1yFkyw
RQT7ycdIG0dNR4vIYzowL4czU3KwXWg=
-----END CERTIFICATE-----
