Certificate:
    Data:
        Version: 3 (0x2)
        Serial Number:
            91:5a:49:ad:b1:da:cc:19:da:c7:53:4e:14:65:2e:f4
        Signature Algorithm: sha256WithRSAEncryption
        Issuer: CN=team156-net
        Validity
            Not Before: May 18 18:45:14 2022 GMT
            Not After : May  2 18:45:14 2025 GMT
        Subject: CN=team156-server
        Subject Public Key Info:
            Public Key Algorithm: rsaEncryption
                RSA Public-Key: (2048 bit)
                Modulus:
                    00:9d:9a:ae:4c:9c:69:08:80:2f:c9:6d:71:f2:e5:
                    5d:5b:89:de:60:e6:87:ff:2e:84:a5:e5:05:33:26:
                    b1:f1:bf:cd:39:a0:e8:16:9d:a8:a0:89:c1:0d:9f:
                    34:c0:1d:62:d6:bc:00:ba:19:23:9f:02:a5:b2:7e:
                    c9:17:1c:6c:e2:d8:d7:86:2c:15:22:d7:1e:11:52:
                    3a:20:60:88:68:8c:26:f7:bc:35:ba:b1:5c:e0:fc:
                    1d:37:b5:90:2b:2a:71:c7:2d:d4:cb:50:78:58:24:
                    5c:d0:81:a4:54:21:19:23:cc:18:27:9e:02:96:c5:
                    3e:f1:19:d4:9c:9b:3d:09:2f:e6:fd:ec:69:25:00:
                    89:48:d9:51:f4:e7:12:53:d6:4d:71:0e:a7:2d:2f:
                    74:44:43:a2:bb:00:05:29:71:80:07:04:fd:19:ce:
                    64:ba:39:d8:ba:a7:7f:0e:7d:b3:e2:7d:e5:5d:11:
                    48:05:0a:de:6c:13:1c:2b:5a:41:7c:43:8d:cc:05:
                    c4:79:5e:3b:2b:9f:3e:89:2e:0a:fa:c1:af:4b:06:
                    ca:b2:2a:e3:3b:50:30:d9:b8:e7:f2:18:74:b0:8e:
                    9c:c5:26:23:04:58:81:0a:49:77:a3:2d:4b:6f:d1:
                    0d:94:10:ce:f4:5a:e9:4e:8f:a9:f3:9d:85:1c:08:
                    6d:69
                Exponent: 65537 (0x10001)
        X509v3 extensions:
            X509v3 Basic Constraints: 
                CA:FALSE
            X509v3 Subject Key Identifier: 
                7F:8C:61:BC:31:60:14:7F:4F:DC:15:75:B9:5E:93:57:F4:5D:FA:0F
            X509v3 Authority Key Identifier: 
                keyid:3A:5D:B2:2D:04:43:4F:45:CE:BD:35:BD:F7:F4:1C:44:CB:F7:AB:54
                DirName:/CN=team156-net
                serial:0D:EB:BF:E9:95:78:8E:48:2B:81:92:E4:5D:98:B2:E6:51:6C:31:A2

            X509v3 Extended Key Usage: 
                TLS Web Server Authentication
            X509v3 Key Usage: 
                Digital Signature, Key Encipherment
            X509v3 Subject Alternative Name: 
                DNS:team156-server
    Signature Algorithm: sha256WithRSAEncryption
         2d:35:9b:09:9e:0d:5f:d6:d6:d4:86:ec:38:3c:d9:81:34:79:
         68:38:d4:59:7d:a7:f1:03:3a:5e:5b:68:91:48:22:7a:4a:ca:
         b8:eb:d4:03:40:d1:ff:4e:dd:4b:53:e0:b3:f1:92:57:ec:27:
         c4:f5:5c:59:29:0d:85:b2:a3:e5:80:41:7c:ff:2d:94:6a:c5:
         db:d5:cb:09:e8:55:1a:6e:c5:a7:9e:6e:00:3b:17:67:36:9c:
         f5:c9:ab:4b:bd:81:b5:7a:fd:e1:64:13:61:8a:1e:15:bf:2b:
         17:78:49:a8:0f:ac:9f:7d:c2:f2:62:55:8e:23:3c:1a:49:3e:
         4a:a6:7c:16:f5:13:43:8e:86:4d:39:e2:94:76:16:17:60:24:
         e2:b5:e1:e4:52:64:d7:d9:d0:b5:fe:c8:9c:ff:45:e1:38:bf:
         2b:19:d0:58:b9:ed:fe:58:31:21:56:d6:b0:5f:c6:b7:dd:72:
         fd:23:5b:46:e2:42:d1:d6:7b:d0:9e:3c:66:fb:fb:ad:e3:7d:
         24:46:c2:7a:5f:5b:4a:37:bb:c1:76:aa:6f:b1:b7:88:a0:51:
         91:b6:51:7a:25:3a:32:e3:65:1c:58:24:79:84:c0:c0:9c:3d:
         72:0b:d3:36:f1:db:5f:e8:d6:ef:f6:b1:ab:5c:69:45:83:88:
         69:87:4b:01
-----BEGIN CERTIFICATE-----
MIIDeDCCAmCgAwIBAgIRAJFaSa2x2swZ2sdTThRlLvQwDQYJKoZIhvcNAQELBQAw
FjEUMBIGA1UEAwwLdGVhbTE1Ni1uZXQwHhcNMjIwNTE4MTg0NTE0WhcNMjUwNTAy
MTg0NTE0WjAZMRcwFQYDVQQDDA50ZWFtMTU2LXNlcnZlcjCCASIwDQYJKoZIhvcN
AQEBBQADggEPADCCAQoCggEBAJ2arkycaQiAL8ltcfLlXVuJ3mDmh/8uhKXlBTMm
sfG/zTmg6BadqKCJwQ2fNMAdYta8ALoZI58CpbJ+yRccbOLY14YsFSLXHhFSOiBg
iGiMJve8NbqxXOD8HTe1kCsqccct1MtQeFgkXNCBpFQhGSPMGCeeApbFPvEZ1Jyb
PQkv5v3saSUAiUjZUfTnElPWTXEOpy0vdERDorsABSlxgAcE/RnOZLo52Lqnfw59
s+J95V0RSAUK3mwTHCtaQXxDjcwFxHleOyufPokuCvrBr0sGyrIq4ztQMNm45/IY
dLCOnMUmIwRYgQpJd6MtS2/RDZQQzvRa6U6PqfOdhRwIbWkCAwEAAaOBvTCBujAJ
BgNVHRMEAjAAMB0GA1UdDgQWBBR/jGG8MWAUf0/cFXW5XpNX9F36DzBRBgNVHSME
SjBIgBQ6XbItBENPRc69Nb339BxEy/erVKEapBgwFjEUMBIGA1UEAwwLdGVhbTE1
Ni1uZXSCFA3rv+mVeI5IK4GS5F2YsuZRbDGiMBMGA1UdJQQMMAoGCCsGAQUFBwMB
MAsGA1UdDwQEAwIFoDAZBgNVHREEEjAQgg50ZWFtMTU2LXNlcnZlcjANBgkqhkiG
9w0BAQsFAAOCAQEALTWbCZ4NX9bW1IbsODzZgTR5aDjUWX2n8QM6XltokUgiekrK
uOvUA0DR/07dS1Pgs/GSV+wnxPVcWSkNhbKj5YBBfP8tlGrF29XLCehVGm7Fp55u
ADsXZzac9cmrS72BtXr94WQTYYoeFb8rF3hJqA+sn33C8mJVjiM8Gkk+SqZ8FvUT
Q46GTTnilHYWF2Ak4rXh5FJk19nQtf7InP9F4Ti/KxnQWLnt/lgxIVbWsF/Gt91y
/SNbRuJC0dZ70J48Zvv7reN9JEbCel9bSje7wXaqb7G3iKBRkbZReiU6MuNlHFgk
eYTAwJw9cgvTNvHbX+jW7/axq1xpRYOIaYdLAQ==
-----END CERTIFICATE-----
