Certificate:
    Data:
        Version: 3 (0x2)
        Serial Number:
            f0:a8:66:ff:9d:02:7e:55:75:c6:66:c6:88:0c:ee:bb
        Signature Algorithm: sha256WithRSAEncryption
        Issuer: CN=team156-net
        Validity
            Not Before: May 18 18:45:14 2022 GMT
            Not After : May  2 18:45:14 2025 GMT
        Subject: CN=team156-client
        Subject Public Key Info:
            Public Key Algorithm: rsaEncryption
                RSA Public-Key: (2048 bit)
                Modulus:
                    00:e4:c9:86:47:46:cc:6c:41:bb:30:5f:04:50:bd:
                    2a:1c:ad:0e:eb:2f:4c:db:91:cc:32:f9:94:e8:2d:
                    0c:10:68:d1:6b:7c:05:8c:b8:8e:58:a0:d2:df:48:
                    1a:45:6d:d7:6a:90:1c:6c:1b:5e:49:72:b2:8f:e4:
                    f0:9c:a5:04:2a:54:2e:23:90:5f:5b:4c:3c:3b:49:
                    f2:49:4c:20:2d:5e:8b:21:41:98:12:21:4b:8d:ea:
                    90:28:21:f3:8c:44:c3:23:e1:5e:ec:40:33:15:89:
                    e1:0c:c6:28:87:96:0a:25:d8:f6:0a:3d:67:19:18:
                    7b:42:1c:4a:4c:0a:ca:84:d1:bf:b7:dc:ea:e2:0b:
                    c9:d3:95:1e:0e:9e:e1:e6:fc:46:71:7b:3d:6f:42:
                    2f:1b:6c:77:f9:98:36:94:2a:e2:0d:33:5c:01:d3:
                    58:b0:02:00:04:90:cb:92:75:cc:0c:59:27:23:cc:
                    45:3e:ba:4a:78:25:9f:54:7b:34:d5:2b:bb:01:78:
                    48:1a:2d:ad:9a:e7:78:1d:ab:0a:ef:5a:99:07:fe:
                    f8:db:a9:d2:2f:c8:51:43:c9:cf:2b:36:99:80:3d:
                    11:77:54:fd:6f:b3:18:23:ca:17:90:3c:55:86:b4:
                    47:25:79:32:53:1b:bc:79:a3:86:23:be:7b:97:d3:
                    59:3d
                Exponent: 65537 (0x10001)
        X509v3 extensions:
            X509v3 Basic Constraints: 
                CA:FALSE
            X509v3 Subject Key Identifier: 
                20:F4:8B:BB:E6:9F:BB:E3:45:31:E8:CB:AE:53:AA:37:27:F2:70:5E
            X509v3 Authority Key Identifier: 
                keyid:3A:5D:B2:2D:04:43:4F:45:CE:BD:35:BD:F7:F4:1C:44:CB:F7:AB:54
                DirName:/CN=team156-net
                serial:0D:EB:BF:E9:95:78:8E:48:2B:81:92:E4:5D:98:B2:E6:51:6C:31:A2

            X509v3 Extended Key Usage: 
                TLS Web Client Authentication
            X509v3 Key Usage: 
                Digital Signature
    Signature Algorithm: sha256WithRSAEncryption
         69:b5:88:66:68:22:f0:72:88:19:1a:81:d7:8a:ab:0f:13:80:
         0c:0e:07:e1:89:ed:f9:67:41:05:3c:d7:8d:31:ff:0f:a3:28:
         84:73:43:f7:64:3d:60:18:db:e7:1b:1f:81:3b:bb:c2:96:f9:
         6b:bd:0d:3c:04:2b:d7:65:41:c6:f6:1a:f9:56:e6:4e:42:54:
         3f:78:92:aa:99:30:ed:3f:8d:80:4d:48:f1:1f:9f:a7:bd:f8:
         74:f0:83:62:ce:87:5c:b6:ea:4d:f2:57:c4:7b:e1:8a:ff:1f:
         bb:39:86:b5:2f:55:e2:46:53:4b:30:a1:fb:69:d4:bb:38:b5:
         80:fb:15:47:6f:23:5d:7b:6f:d2:78:27:89:e3:25:de:31:e9:
         00:94:b4:8b:05:74:c4:b5:7d:e0:d2:b2:9c:e9:9f:8f:6e:96:
         27:c9:e8:92:38:11:36:bb:72:cf:27:5b:e4:6b:a2:3a:ff:a1:
         35:d4:ce:9a:ae:a4:29:a7:85:6c:26:d4:21:42:a5:fb:8d:1d:
         bc:da:00:63:55:f0:e4:c2:29:53:d2:6e:bf:9e:f7:4c:35:e2:
         f1:14:68:df:9a:84:d2:d4:3d:01:56:4f:1b:c3:89:36:40:30:
         fb:ab:cd:9b:6b:85:db:03:0e:85:5d:be:05:a8:a1:c3:25:ad:
         87:65:e0:57
-----BEGIN CERTIFICATE-----
MIIDXTCCAkWgAwIBAgIRAPCoZv+dAn5VdcZmxogM7rswDQYJKoZIhvcNAQELBQAw
FjEUMBIGA1UEAwwLdGVhbTE1Ni1uZXQwHhcNMjIwNTE4MTg0NTE0WhcNMjUwNTAy
MTg0NTE0WjAZMRcwFQYDVQQDDA50ZWFtMTU2LWNsaWVudDCCASIwDQYJKoZIhvcN
AQEBBQADggEPADCCAQoCggEBAOTJhkdGzGxBuzBfBFC9KhytDusvTNuRzDL5lOgt
DBBo0Wt8BYy4jlig0t9IGkVt12qQHGwbXklyso/k8JylBCpULiOQX1tMPDtJ8klM
IC1eiyFBmBIhS43qkCgh84xEwyPhXuxAMxWJ4QzGKIeWCiXY9go9ZxkYe0IcSkwK
yoTRv7fc6uILydOVHg6e4eb8RnF7PW9CLxtsd/mYNpQq4g0zXAHTWLACAASQy5J1
zAxZJyPMRT66Sngln1R7NNUruwF4SBotrZrneB2rCu9amQf++Nup0i/IUUPJzys2
mYA9EXdU/W+zGCPKF5A8VYa0RyV5MlMbvHmjhiO+e5fTWT0CAwEAAaOBojCBnzAJ
BgNVHRMEAjAAMB0GA1UdDgQWBBQg9Iu75p+740Ux6MuuU6o3J/JwXjBRBgNVHSME
SjBIgBQ6XbItBENPRc69Nb339BxEy/erVKEapBgwFjEUMBIGA1UEAwwLdGVhbTE1
Ni1uZXSCFA3rv+mVeI5IK4GS5F2YsuZRbDGiMBMGA1UdJQQMMAoGCCsGAQUFBwMC
MAsGA1UdDwQEAwIHgDANBgkqhkiG9w0BAQsFAAOCAQEAabWIZmgi8HKIGRqB14qr
DxOADA4H4Ynt+WdBBTzXjTH/D6MohHND92Q9YBjb5xsfgTu7wpb5a70NPAQr12VB
xvYa+VbmTkJUP3iSqpkw7T+NgE1I8R+fp734dPCDYs6HXLbqTfJXxHvhiv8fuzmG
tS9V4kZTSzCh+2nUuzi1gPsVR28jXXtv0ngnieMl3jHpAJS0iwV0xLV94NKynOmf
j26WJ8nokjgRNrtyzydb5GuiOv+hNdTOmq6kKaeFbCbUIUKl+40dvNoAY1Xw5MIp
U9Juv573TDXi8RRo35qE0tQ9AVZPG8OJNkAw+6vNm2uF2wMOhV2+BaihwyWth2Xg
Vw==
-----END CERTIFICATE-----
