Certificate:
    Data:
        Version: 3 (0x2)
        Serial Number:
            ad:eb:22:fe:b5:25:86:63:88:31:fe:67:4b:b8:91:2e
        Signature Algorithm: sha256WithRSAEncryption
        Issuer: CN=team277-net
        Validity
            Not Before: May 18 19:46:06 2022 GMT
            Not After : May  2 19:46:06 2025 GMT
        Subject: CN=team277-client
        Subject Public Key Info:
            Public Key Algorithm: rsaEncryption
                RSA Public-Key: (2048 bit)
                Modulus:
                    00:da:a1:4a:a0:03:bb:78:ee:05:a9:db:26:f4:fe:
                    7d:5b:58:2a:66:7e:6e:d2:61:30:a0:e2:10:7a:e8:
                    e8:c9:de:93:a8:96:2f:fe:0d:b2:70:8b:52:cd:28:
                    d5:47:ac:59:a4:b3:ef:12:c3:57:3a:ce:be:d7:c6:
                    15:39:02:74:9a:10:ee:9e:15:2b:1c:96:a0:37:a5:
                    c2:c4:97:a6:9d:c6:af:a9:5a:9d:03:21:b6:f8:47:
                    81:fd:95:02:8d:32:95:e1:25:d2:06:25:93:0b:ca:
                    33:37:af:c8:2c:4c:5c:c0:f7:c8:4f:1a:c2:f0:38:
                    5d:5a:ac:b6:b2:51:08:c6:59:7a:09:38:c0:a8:ec:
                    95:c1:0f:4d:3c:d7:c1:0a:3f:18:a1:96:ec:27:8f:
                    7a:cb:c0:d8:fa:e5:91:17:9a:d0:e2:0b:c4:df:cb:
                    62:4f:46:f2:c1:73:58:2c:4f:47:b7:1f:3b:a6:f0:
                    e4:9d:e1:3b:2a:56:f0:83:2d:87:04:e9:82:ca:73:
                    c7:1b:da:01:10:ba:96:a0:59:ee:c4:6a:d1:6d:d2:
                    0e:d9:32:7e:ba:af:4b:b1:11:9c:89:07:a8:a8:af:
                    b9:57:12:e7:b5:0d:77:4a:e9:89:6d:92:8d:b7:47:
                    02:42:c4:75:e0:83:b8:fa:fd:4a:04:a3:04:2a:a3:
                    7c:29
                Exponent: 65537 (0x10001)
        X509v3 extensions:
            X509v3 Basic Constraints: 
                CA:FALSE
            X509v3 Subject Key Identifier: 
                B6:3C:2E:4B:41:1D:94:37:2A:55:92:1C:10:F5:C9:EE:1E:90:12:6B
            X509v3 Authority Key Identifier: 
                keyid:9C:31:B1:29:2C:17:36:1B:1E:73:A6:75:45:92:6C:1F:B2:BE:D6:55
                DirName:/CN=team277-net
                serial:3B:07:DD:BA:4B:C0:B2:46:DF:D7:D6:C9:76:56:09:8D:76:05:99:CF

            X509v3 Extended Key Usage: 
                TLS Web Client Authentication
            X509v3 Key Usage: 
                Digital Signature
    Signature Algorithm: sha256WithRSAEncryption
         66:c9:55:ac:e7:69:83:49:77:e5:e8:db:0b:9d:a6:96:c0:d6:
         94:da:02:97:6e:41:23:eb:cf:dc:7f:77:6b:28:b2:11:54:35:
         a4:54:97:fe:cd:24:12:99:d8:1b:c0:d4:89:03:90:9b:26:0b:
         86:09:67:32:76:9b:10:b2:6c:82:a2:db:d3:39:4f:38:93:a0:
         0b:a6:89:38:5b:9a:2d:f5:58:39:63:47:5b:ec:a8:b6:f6:f8:
         04:38:56:8d:a6:04:80:9b:ce:44:b6:35:b9:42:b9:50:f3:87:
         f1:df:7f:15:f5:03:84:9b:1c:bc:81:1f:15:0f:73:44:ad:ce:
         39:6e:4a:ed:3b:43:80:98:74:0c:17:66:fe:51:9e:ac:91:05:
         68:e5:5d:d7:01:61:06:45:35:87:17:a1:79:a7:48:62:01:9f:
         15:77:c0:9f:db:19:e6:6e:b6:fe:d2:7f:8b:92:3b:8e:9f:5c:
         7c:d2:bb:18:84:c1:fa:c0:ee:c0:e9:9f:c4:0d:7a:1a:33:4f:
         bb:d9:33:54:c1:d4:71:3a:3b:3e:e7:06:8f:61:a4:f6:74:2b:
         50:a4:71:28:41:da:d8:c0:3f:93:10:07:2c:ea:93:f7:d7:be:
         a6:2e:65:d5:ce:19:e7:9e:46:0a:1f:38:f8:d3:7f:f3:f5:a3:
         77:51:8f:8d
-----BEGIN CERTIFICATE-----
MIIDXTCCAkWgAwIBAgIRAK3rIv61JYZjiDH+Z0u4kS4wDQYJKoZIhvcNAQELBQAw
FjEUMBIGA1UEAwwLdGVhbTI3Ny1uZXQwHhcNMjIwNTE4MTk0NjA2WhcNMjUwNTAy
MTk0NjA2WjAZMRcwFQYDVQQDDA50ZWFtMjc3LWNsaWVudDCCASIwDQYJKoZIhvcN
AQEBBQADggEPADCCAQoCggEBANqhSqADu3juBanbJvT+fVtYKmZ+btJhMKDiEHro
6Mnek6iWL/4NsnCLUs0o1UesWaSz7xLDVzrOvtfGFTkCdJoQ7p4VKxyWoDelwsSX
pp3Gr6lanQMhtvhHgf2VAo0yleEl0gYlkwvKMzevyCxMXMD3yE8awvA4XVqstrJR
CMZZegk4wKjslcEPTTzXwQo/GKGW7CePesvA2PrlkRea0OILxN/LYk9G8sFzWCxP
R7cfO6bw5J3hOypW8IMthwTpgspzxxvaARC6lqBZ7sRq0W3SDtkyfrqvS7ERnIkH
qKivuVcS57UNd0rpiW2SjbdHAkLEdeCDuPr9SgSjBCqjfCkCAwEAAaOBojCBnzAJ
BgNVHRMEAjAAMB0GA1UdDgQWBBS2PC5LQR2UNypVkhwQ9cnuHpASazBRBgNVHSME
SjBIgBScMbEpLBc2Gx5zpnVFkmwfsr7WVaEapBgwFjEUMBIGA1UEAwwLdGVhbTI3
Ny1uZXSCFDsH3bpLwLJG39fWyXZWCY12BZnPMBMGA1UdJQQMMAoGCCsGAQUFBwMC
MAsGA1UdDwQEAwIHgDANBgkqhkiG9w0BAQsFAAOCAQEAZslVrOdpg0l35ejbC52m
lsDWlNoCl25BI+vP3H93ayiyEVQ1pFSX/s0kEpnYG8DUiQOQmyYLhglnMnabELJs
gqLb0zlPOJOgC6aJOFuaLfVYOWNHW+yotvb4BDhWjaYEgJvORLY1uUK5UPOH8d9/
FfUDhJscvIEfFQ9zRK3OOW5K7TtDgJh0DBdm/lGerJEFaOVd1wFhBkU1hxeheadI
YgGfFXfAn9sZ5m62/tJ/i5I7jp9cfNK7GITB+sDuwOmfxA16GjNPu9kzVMHUcTo7
PucGj2Gk9nQrUKRxKEHa2MA/kxAHLOqT99e+pi5l1c4Z555GCh84+NN/8/Wjd1GP
jQ==
-----END CERTIFICATE-----
