Certificate:
    Data:
        Version: 3 (0x2)
        Serial Number:
            c8:83:d7:6d:97:b9:61:ed:dc:62:10:dc:86:50:19:e2
        Signature Algorithm: sha256WithRSAEncryption
        Issuer: CN=team636-net
        Validity
            Not Before: May 18 23:10:54 2022 GMT
            Not After : May  2 23:10:54 2025 GMT
        Subject: CN=team636-server
        Subject Public Key Info:
            Public Key Algorithm: rsaEncryption
                RSA Public-Key: (2048 bit)
                Modulus:
                    00:d9:05:3c:c2:51:61:3c:76:58:3a:05:46:0a:b0:
                    32:29:21:d7:25:4a:90:24:c8:ed:42:9b:c4:9d:7b:
                    4a:c9:ad:17:7f:30:a3:73:20:2c:be:aa:c5:c5:5a:
                    1e:61:50:56:5a:a1:84:4d:de:4a:4f:6f:b3:57:17:
                    cc:4b:ca:21:96:e6:eb:67:dc:18:87:e1:1a:4d:3e:
                    91:e2:ca:25:26:90:57:56:97:4d:2b:4e:1e:10:ee:
                    f3:c0:be:a4:b8:82:dc:b2:2b:c1:ee:36:3c:51:d1:
                    d9:b0:b2:88:0a:0c:61:86:aa:74:ba:18:6b:2e:6b:
                    33:df:19:7c:ab:2b:f0:3b:f8:91:b7:dd:76:a9:f1:
                    c2:a3:48:45:e7:84:a5:4c:75:01:11:42:4c:45:ff:
                    4a:9d:03:fa:63:fa:20:27:96:04:65:98:0e:b5:c3:
                    37:4d:01:f4:05:3b:8a:32:c0:e9:2b:18:0f:0b:4e:
                    c2:d7:e4:48:7b:fa:21:f7:3d:1f:59:39:5e:d1:e2:
                    64:70:b5:92:1b:b0:61:34:33:11:f8:2b:76:34:f0:
                    a4:c6:8e:5d:6f:c8:59:af:a4:b1:77:c3:86:6f:ca:
                    84:58:f8:50:3f:b2:6b:be:02:40:ac:93:36:11:f4:
                    45:a0:23:eb:e7:df:8f:35:8a:31:06:d0:91:bc:34:
                    b6:51
                Exponent: 65537 (0x10001)
        X509v3 extensions:
            X509v3 Basic Constraints: 
                CA:FALSE
            X509v3 Subject Key Identifier: 
                45:9D:32:C2:13:A8:5A:9D:83:00:C5:E3:3C:B2:71:D2:F8:8B:CD:97
            X509v3 Authority Key Identifier: 
                keyid:BF:71:70:C5:05:BC:BA:86:54:69:35:E8:5E:47:C4:58:6A:B9:35:AA
                DirName:/CN=team636-net
                serial:17:72:F9:36:1F:08:47:AD:9E:3D:5F:4C:5F:4B:C1:93:4E:94:1B:29

            X509v3 Extended Key Usage: 
                TLS Web Server Authentication
            X509v3 Key Usage: 
                Digital Signature, Key Encipherment
            X509v3 Subject Alternative Name: 
                DNS:team636-server
    Signature Algorithm: sha256WithRSAEncryption
         53:ab:cf:f7:6b:5e:a3:f5:2e:fa:08:fb:01:62:10:7c:7a:da:
         93:14:24:44:a6:57:e2:e4:e0:f0:3a:41:3a:01:ee:27:71:3d:
         57:a2:bf:b3:0c:38:14:b7:44:b2:e9:43:b3:ae:19:66:53:82:
         bf:ce:06:df:e5:67:b9:3d:4d:e4:24:a9:48:b8:c1:5e:4c:24:
         02:9c:16:19:18:0b:89:80:bc:8d:b7:54:8f:5d:26:d4:e3:8d:
         ad:16:6a:ba:ce:75:b0:53:d2:82:e4:1e:64:36:bb:28:69:3e:
         67:f0:47:ea:1b:bc:7b:1c:28:59:6b:da:ea:8a:1e:ab:7f:5b:
         db:40:de:12:ae:35:7b:74:c7:c9:e3:f7:dc:4a:68:24:4a:ae:
         22:ba:15:77:91:43:7c:7f:7f:8b:b4:8d:1a:f1:e2:7b:b4:6f:
         4f:33:6b:dd:b4:79:6e:9d:5e:a9:ac:36:9d:77:a1:37:47:91:
         32:db:1c:09:f4:5b:94:67:35:38:73:a5:f5:e9:7a:bc:df:0d:
         cd:bf:64:80:d4:57:24:10:92:89:31:f8:1a:7d:e4:e5:fd:17:
         89:64:0e:5b:e6:97:28:b0:ea:2a:a8:26:df:fb:fc:35:57:74:
         4f:91:16:77:76:a4:7c:07:39:09:03:07:fb:e9:3a:76:05:6a:
         79:de:38:33
-----BEGIN CERTIFICATE-----
MIIDeDCCAmCgAwIBAgIRAMiD122XuWHt3GIQ3IZQGeIwDQYJKoZIhvcNAQELBQAw
FjEUMBIGA1UEAwwLdGVhbTYzNi1uZXQwHhcNMjIwNTE4MjMxMDU0WhcNMjUwNTAy
MjMxMDU0WjAZMRcwFQYDVQQDDA50ZWFtNjM2LXNlcnZlcjCCASIwDQYJKoZIhvcN
AQEBBQADggEPADCCAQoCggEBANkFPMJRYTx2WDoFRgqwMikh1yVKkCTI7UKbxJ17
SsmtF38wo3MgLL6qxcVaHmFQVlqhhE3eSk9vs1cXzEvKIZbm62fcGIfhGk0+keLK
JSaQV1aXTStOHhDu88C+pLiC3LIrwe42PFHR2bCyiAoMYYaqdLoYay5rM98ZfKsr
8Dv4kbfddqnxwqNIReeEpUx1ARFCTEX/Sp0D+mP6ICeWBGWYDrXDN00B9AU7ijLA
6SsYDwtOwtfkSHv6Ifc9H1k5XtHiZHC1khuwYTQzEfgrdjTwpMaOXW/IWa+ksXfD
hm/KhFj4UD+ya74CQKyTNhH0RaAj6+ffjzWKMQbQkbw0tlECAwEAAaOBvTCBujAJ
BgNVHRMEAjAAMB0GA1UdDgQWBBRFnTLCE6hanYMAxeM8snHS+IvNlzBRBgNVHSME
SjBIgBS/cXDFBby6hlRpNeheR8RYark1qqEapBgwFjEUMBIGA1UEAwwLdGVhbTYz
Ni1uZXSCFBdy+TYfCEetnj1fTF9LwZNOlBspMBMGA1UdJQQMMAoGCCsGAQUFBwMB
MAsGA1UdDwQEAwIFoDAZBgNVHREEEjAQgg50ZWFtNjM2LXNlcnZlcjANBgkqhkiG
9w0BAQsFAAOCAQEAU6vP92teo/Uu+gj7AWIQfHrakxQkRKZX4uTg8DpBOgHuJ3E9
V6K/sww4FLdEsulDs64ZZlOCv84G3+VnuT1N5CSpSLjBXkwkApwWGRgLiYC8jbdU
j10m1OONrRZqus51sFPSguQeZDa7KGk+Z/BH6hu8exwoWWva6ooeq39b20DeEq41
e3THyeP33EpoJEquIroVd5FDfH9/i7SNGvHie7RvTzNr3bR5bp1eqaw2nXehN0eR
MtscCfRblGc1OHOl9el6vN8Nzb9kgNRXJBCSiTH4Gn3k5f0XiWQOW+aXKLDqKqgm
3/v8NVd0T5EWd3akfAc5CQMH++k6dgVqed44Mw==
-----END CERTIFICATE-----
