Certificate:
    Data:
        Version: 3 (0x2)
        Serial Number:
            c1:b8:65:96:b3:09:f0:b9:16:f2:94:52:01:b4:aa:54
        Signature Algorithm: sha256WithRSAEncryption
        Issuer: CN=team347-net
        Validity
            Not Before: May 18 20:26:41 2022 GMT
            Not After : May  2 20:26:41 2025 GMT
        Subject: CN=team347-server
        Subject Public Key Info:
            Public Key Algorithm: rsaEncryption
                RSA Public-Key: (2048 bit)
                Modulus:
                    00:e2:e8:12:c3:8a:5b:74:c8:ec:f7:42:f2:1d:66:
                    44:da:4f:bc:d0:74:22:af:16:4a:51:57:5a:99:ab:
                    04:25:f4:ac:20:c0:10:24:87:51:de:60:f7:81:1a:
                    fe:12:77:78:d0:a0:8c:dd:f7:08:93:bc:f2:2f:60:
                    e9:87:39:bc:ce:ff:14:d2:5a:db:3a:6d:85:a0:e0:
                    de:04:4a:9c:46:c8:7d:97:08:28:84:62:08:8e:d7:
                    fd:0e:50:c4:f8:47:b8:be:c3:d1:7d:78:0c:58:2f:
                    81:20:77:1f:12:77:69:11:08:88:28:3d:c7:4f:a5:
                    5f:7a:c3:d2:da:c7:bc:5f:9e:a7:23:ea:55:e0:0f:
                    2c:9e:0d:2e:cb:aa:2b:e2:fe:e0:76:ba:4e:76:61:
                    b9:fb:12:17:97:ae:39:30:65:9d:87:1b:08:c3:77:
                    cd:f3:da:f2:85:7f:41:ba:0a:1a:d8:f6:5c:29:05:
                    0f:95:39:7e:65:ff:b6:9d:e3:b6:90:50:67:74:98:
                    c8:27:fc:63:1a:1d:91:63:a7:2e:90:82:81:cd:af:
                    d5:41:29:f8:23:31:6c:28:f9:5b:08:9c:3a:c8:cc:
                    fe:0e:03:2c:26:d3:0f:88:cf:55:c9:fd:be:0b:be:
                    ab:60:38:d8:83:31:79:fa:06:69:26:19:fd:52:31:
                    71:f3
                Exponent: 65537 (0x10001)
        X509v3 extensions:
            X509v3 Basic Constraints: 
                CA:FALSE
            X509v3 Subject Key Identifier: 
                5A:2F:B1:C2:B1:B1:52:D5:FA:01:72:58:10:D0:3F:33:13:9A:06:DA
            X509v3 Authority Key Identifier: 
                keyid:EC:76:34:F6:BF:06:D4:19:E8:1D:15:8B:04:3B:A0:34:CE:33:09:2D
                DirName:/CN=team347-net
                serial:1B:57:7B:90:3D:15:F0:36:59:91:7A:BE:90:BD:76:AD:C1:68:DA:5E

            X509v3 Extended Key Usage: 
                TLS Web Server Authentication
            X509v3 Key Usage: 
                Digital Signature, Key Encipherment
            X509v3 Subject Alternative Name: 
                DNS:team347-server
    Signature Algorithm: sha256WithRSAEncryption
         be:1d:c2:9d:be:51:4d:cb:36:15:05:22:be:88:d6:2e:3e:17:
         e9:5b:0d:70:83:b0:fb:27:94:da:55:b5:4c:83:f1:f7:6d:48:
         40:4b:28:52:b0:fe:47:f6:75:ec:e4:5e:c2:f2:3b:d0:4d:b0:
         37:dc:04:3e:9d:90:8a:ba:77:e8:60:fa:c8:af:f1:e4:6e:a4:
         80:7e:a4:2d:79:e0:a1:25:1c:0d:ce:08:38:e2:61:bb:19:9b:
         cd:ad:2a:6f:e4:0b:38:00:1b:74:2f:42:5e:91:72:26:d2:9a:
         cd:d6:a8:d9:4d:b5:c5:b5:c3:df:1b:24:af:9b:5c:73:db:bb:
         5a:19:51:fd:8e:02:3a:12:55:e8:54:cd:fd:cb:44:1d:6e:15:
         06:a3:c9:ef:6b:a8:92:7d:20:bc:84:60:8c:8c:b8:15:52:c5:
         70:27:f1:8d:6d:cb:6f:92:9b:15:42:2b:d7:24:2b:81:89:7f:
         7c:05:0f:4d:11:69:59:ef:45:3e:0b:4f:b8:04:d4:c6:45:0b:
         a5:21:9b:e5:1b:95:79:54:3b:cc:d0:b9:02:52:bc:3f:f0:8e:
         33:ea:1e:ef:8f:ff:04:d0:97:4a:7d:a5:99:86:a9:cb:3c:f8:
         8e:4b:d9:d5:7e:c8:f1:c4:eb:9f:87:ab:73:23:1f:15:45:bc:
         8f:22:9c:93
-----BEGIN CERTIFICATE-----
MIIDeDCCAmCgAwIBAgIRAMG4ZZazCfC5FvKUUgG0qlQwDQYJKoZIhvcNAQELBQAw
FjEUMBIGA1UEAwwLdGVhbTM0Ny1uZXQwHhcNMjIwNTE4MjAyNjQxWhcNMjUwNTAy
MjAyNjQxWjAZMRcwFQYDVQQDDA50ZWFtMzQ3LXNlcnZlcjCCASIwDQYJKoZIhvcN
AQEBBQADggEPADCCAQoCggEBAOLoEsOKW3TI7PdC8h1mRNpPvNB0Iq8WSlFXWpmr
BCX0rCDAECSHUd5g94Ea/hJ3eNCgjN33CJO88i9g6Yc5vM7/FNJa2zpthaDg3gRK
nEbIfZcIKIRiCI7X/Q5QxPhHuL7D0X14DFgvgSB3HxJ3aREIiCg9x0+lX3rD0trH
vF+epyPqVeAPLJ4NLsuqK+L+4Ha6TnZhufsSF5euOTBlnYcbCMN3zfPa8oV/QboK
Gtj2XCkFD5U5fmX/tp3jtpBQZ3SYyCf8YxodkWOnLpCCgc2v1UEp+CMxbCj5Wwic
OsjM/g4DLCbTD4jPVcn9vgu+q2A42IMxefoGaSYZ/VIxcfMCAwEAAaOBvTCBujAJ
BgNVHRMEAjAAMB0GA1UdDgQWBBRaL7HCsbFS1foBclgQ0D8zE5oG2jBRBgNVHSME
SjBIgBTsdjT2vwbUGegdFYsEO6A0zjMJLaEapBgwFjEUMBIGA1UEAwwLdGVhbTM0
Ny1uZXSCFBtXe5A9FfA2WZF6vpC9dq3BaNpeMBMGA1UdJQQMMAoGCCsGAQUFBwMB
MAsGA1UdDwQEAwIFoDAZBgNVHREEEjAQgg50ZWFtMzQ3LXNlcnZlcjANBgkqhkiG
9w0BAQsFAAOCAQEAvh3Cnb5RTcs2FQUivojWLj4X6VsNcIOw+yeU2lW1TIPx921I
QEsoUrD+R/Z17ORewvI70E2wN9wEPp2Qirp36GD6yK/x5G6kgH6kLXngoSUcDc4I
OOJhuxmbza0qb+QLOAAbdC9CXpFyJtKazdao2U21xbXD3xskr5tcc9u7WhlR/Y4C
OhJV6FTN/ctEHW4VBqPJ72uokn0gvIRgjIy4FVLFcCfxjW3Lb5KbFUIr1yQrgYl/
fAUPTRFpWe9FPgtPuATUxkULpSGb5RuVeVQ7zNC5AlK8P/COM+oe74//BNCXSn2l
mYapyzz4jkvZ1X7I8cTrn4ercyMfFUW8jyKckw==
-----END CERTIFICATE-----
