Certificate:
    Data:
        Version: 3 (0x2)
        Serial Number:
            e3:1f:38:9a:95:c3:07:e3:a0:c3:f5:83:16:3f:3e:4a
        Signature Algorithm: sha256WithRSAEncryption
        Issuer: CN=team328-net
        Validity
            Not Before: May 18 20:14:11 2022 GMT
            Not After : May  2 20:14:11 2025 GMT
        Subject: CN=team328-server
        Subject Public Key Info:
            Public Key Algorithm: rsaEncryption
                RSA Public-Key: (2048 bit)
                Modulus:
                    00:95:c1:8f:fa:1e:5e:8f:f7:d8:7c:b9:5d:fd:98:
                    63:ab:75:19:c2:18:1d:43:37:af:a8:fd:5f:36:0d:
                    95:86:61:35:ff:37:d6:60:98:27:0a:38:f1:0c:0d:
                    ef:0c:e6:88:8f:66:b0:c9:f5:ef:4b:36:38:f6:af:
                    ff:a5:a9:b2:b7:6b:f5:c9:c5:42:27:12:97:fa:dd:
                    dd:f9:b1:91:44:4e:39:8f:90:5b:57:24:99:cf:78:
                    17:78:4f:5b:69:a4:b5:b1:f4:ee:1d:ca:79:1e:8a:
                    b6:15:12:cc:63:63:49:e6:e9:50:8b:cd:18:99:20:
                    4c:48:01:9b:ed:79:d2:89:bd:34:f3:ff:8e:a5:9b:
                    a2:a6:f7:35:54:3f:2e:5e:c2:e5:9b:46:34:7c:9e:
                    a9:f5:de:12:89:f4:32:2a:4e:e7:9a:b3:85:f9:a0:
                    b9:30:4e:21:37:15:6b:d0:14:4a:f7:db:20:20:2c:
                    b1:6f:21:7d:f6:8f:85:93:05:67:cc:f2:0a:f9:3f:
                    54:af:95:7b:59:b4:22:5a:f9:7f:b8:53:a0:80:ba:
                    7d:a0:dc:13:ba:81:e3:9a:23:0c:88:5e:f1:93:2e:
                    9b:a7:2e:4a:1a:e5:23:15:ad:9a:6e:92:37:53:2c:
                    6a:d7:56:af:47:8a:ac:47:ab:c3:45:81:79:87:82:
                    a1:1f
                Exponent: 65537 (0x10001)
        X509v3 extensions:
            X509v3 Basic Constraints: 
                CA:FALSE
            X509v3 Subject Key Identifier: 
                DC:A2:59:0A:58:B6:B2:FB:E5:9C:B4:95:6A:7A:F2:88:62:D3:46:D5
            X509v3 Authority Key Identifier: 
                keyid:EA:69:B5:FC:DB:24:BA:10:73:C4:B2:D1:57:AF:26:5C:C0:60:4E:57
                DirName:/CN=team328-net
                serial:51:A4:22:D6:EB:6D:70:83:8F:A0:4C:15:3A:B1:53:06:C9:28:77:13

            X509v3 Extended Key Usage: 
                TLS Web Server Authentication
            X509v3 Key Usage: 
                Digital Signature, Key Encipherment
            X509v3 Subject Alternative Name: 
                DNS:team328-server
    Signature Algorithm: sha256WithRSAEncryption
         5d:a4:c9:67:f4:e0:14:22:10:6d:b6:48:d4:2e:0e:6d:db:0e:
         85:1e:6d:58:be:ab:e6:05:1e:0b:bc:54:82:cc:28:39:a2:da:
         b1:a2:94:3b:71:a8:c1:1d:02:59:2c:ea:52:68:d2:ec:51:8f:
         26:d4:eb:08:6c:fd:0e:1f:1c:8c:e6:37:fd:cf:fa:0a:21:27:
         0c:e1:7d:36:6f:79:28:93:1a:b8:1e:31:8d:21:61:09:12:52:
         3d:33:3a:03:ce:a9:20:eb:e2:2c:bc:1f:2d:88:f0:7c:ad:47:
         12:f4:6a:b9:e5:4c:8e:4a:c9:ff:56:be:e5:46:4d:88:29:8a:
         e3:c4:38:54:02:32:40:a1:b6:68:f0:c1:7d:e1:2a:10:89:cd:
         60:72:77:28:fd:08:ea:52:29:9e:f1:8c:0e:7c:11:0e:2b:76:
         c4:9b:79:d2:02:49:97:f1:8c:d0:fd:81:75:80:d3:42:9f:5b:
         8d:af:e6:ba:df:1c:0d:c0:be:bc:b2:cc:67:e1:32:6c:d5:07:
         9d:5d:2d:dc:63:93:93:d1:7a:ca:3c:a9:81:e4:1d:71:fb:75:
         a6:96:c4:21:c3:24:49:df:2a:a3:e6:6c:ba:0b:f1:30:cb:eb:
         10:ed:f3:1b:b1:ed:4c:6e:f1:ed:97:67:ad:e1:e7:ee:a8:6b:
         01:fc:e2:fd
-----BEGIN CERTIFICATE-----
MIIDeDCCAmCgAwIBAgIRAOMfOJqVwwfjoMP1gxY/PkowDQYJKoZIhvcNAQELBQAw
FjEUMBIGA1UEAwwLdGVhbTMyOC1uZXQwHhcNMjIwNTE4MjAxNDExWhcNMjUwNTAy
MjAxNDExWjAZMRcwFQYDVQQDDA50ZWFtMzI4LXNlcnZlcjCCASIwDQYJKoZIhvcN
AQEBBQADggEPADCCAQoCggEBAJXBj/oeXo/32Hy5Xf2YY6t1GcIYHUM3r6j9XzYN
lYZhNf831mCYJwo48QwN7wzmiI9msMn170s2OPav/6Wpsrdr9cnFQicSl/rd3fmx
kUROOY+QW1ckmc94F3hPW2mktbH07h3KeR6KthUSzGNjSebpUIvNGJkgTEgBm+15
0om9NPP/jqWboqb3NVQ/Ll7C5ZtGNHyeqfXeEon0MipO55qzhfmguTBOITcVa9AU
SvfbICAssW8hffaPhZMFZ8zyCvk/VK+Ve1m0Ilr5f7hToIC6faDcE7qB45ojDIhe
8ZMum6cuShrlIxWtmm6SN1MsatdWr0eKrEerw0WBeYeCoR8CAwEAAaOBvTCBujAJ
BgNVHRMEAjAAMB0GA1UdDgQWBBTcolkKWLay++WctJVqevKIYtNG1TBRBgNVHSME
SjBIgBTqabX82yS6EHPEstFXryZcwGBOV6EapBgwFjEUMBIGA1UEAwwLdGVhbTMy
OC1uZXSCFFGkItbrbXCDj6BMFTqxUwbJKHcTMBMGA1UdJQQMMAoGCCsGAQUFBwMB
MAsGA1UdDwQEAwIFoDAZBgNVHREEEjAQgg50ZWFtMzI4LXNlcnZlcjANBgkqhkiG
9w0BAQsFAAOCAQEAXaTJZ/TgFCIQbbZI1C4ObdsOhR5tWL6r5gUeC7xUgswoOaLa
saKUO3GowR0CWSzqUmjS7FGPJtTrCGz9Dh8cjOY3/c/6CiEnDOF9Nm95KJMauB4x
jSFhCRJSPTM6A86pIOviLLwfLYjwfK1HEvRqueVMjkrJ/1a+5UZNiCmK48Q4VAIy
QKG2aPDBfeEqEInNYHJ3KP0I6lIpnvGMDnwRDit2xJt50gJJl/GM0P2BdYDTQp9b
ja/mut8cDcC+vLLMZ+EybNUHnV0t3GOTk9F6yjypgeQdcft1ppbEIcMkSd8qo+Zs
ugvxMMvrEO3zG7HtTG7x7ZdnreHn7qhrAfzi/Q==
-----END CERTIFICATE-----
