Certificate:
    Data:
        Version: 3 (0x2)
        Serial Number:
            52:26:0e:63:47:db:b1:8e:c5:32:fd:d1:69:cd:71:0d
        Signature Algorithm: sha256WithRSAEncryption
        Issuer: CN=team18-net
        Validity
            Not Before: May 18 14:01:48 2022 GMT
            Not After : May  2 14:01:48 2025 GMT
        Subject: CN=team18-server
        Subject Public Key Info:
            Public Key Algorithm: rsaEncryption
                RSA Public-Key: (2048 bit)
                Modulus:
                    00:bd:ff:a2:94:56:ed:33:6f:32:e6:20:9c:bc:88:
                    2f:ee:72:01:4b:1d:5f:7b:0b:e8:0c:97:ce:53:46:
                    f9:23:40:22:ce:b3:8f:5c:7c:cd:24:19:90:7c:d5:
                    57:cd:08:b1:7b:4c:ca:1a:e2:86:5b:00:c0:52:22:
                    6e:db:fc:9c:0d:65:fb:50:06:3f:87:64:d5:2a:71:
                    14:2e:49:7d:df:fe:ca:67:f2:0b:cd:38:34:bb:c0:
                    df:f0:b7:e5:49:e4:90:e5:4d:19:34:b2:53:87:2c:
                    e7:a1:dd:e5:60:97:ea:7d:e2:de:60:b3:b4:85:e1:
                    82:7f:e5:67:ee:db:48:1f:3f:87:c1:de:7c:58:e0:
                    4a:76:5b:aa:ea:64:28:56:82:7f:97:c7:d6:2d:61:
                    3f:a9:3b:ac:72:b5:dd:d7:b3:02:30:ea:04:a4:e0:
                    98:02:61:ae:e4:a0:24:05:dd:1c:cf:15:d3:e7:2f:
                    d9:db:a5:f7:21:03:d6:36:e2:09:20:51:ae:47:11:
                    38:db:f7:ab:4b:ea:91:65:c0:0e:dc:7d:da:6c:70:
                    44:14:60:6c:26:90:bc:7e:1e:7f:4e:23:d9:b4:cd:
                    0f:03:b4:fc:1a:45:f7:1d:fc:ed:5d:c1:41:46:36:
                    01:fb:b6:a3:22:11:bf:7e:33:87:f0:dc:cb:25:72:
                    26:7f
                Exponent: 65537 (0x10001)
        X509v3 extensions:
            X509v3 Basic Constraints: 
                CA:FALSE
            X509v3 Subject Key Identifier: 
                A0:E5:43:BA:36:9A:F2:76:23:2E:8B:D3:BC:C4:56:11:03:78:3F:76
            X509v3 Authority Key Identifier: 
                keyid:6F:4F:C8:47:BB:97:2D:DD:A2:60:88:95:29:B7:88:DD:07:1E:93:C3
                DirName:/CN=team18-net
                serial:4E:88:9D:3B:A3:8E:57:B1:DD:BC:71:B3:0A:E6:FF:56:ED:B9:5B:A6

            X509v3 Extended Key Usage: 
                TLS Web Server Authentication
            X509v3 Key Usage: 
                Digital Signature, Key Encipherment
            X509v3 Subject Alternative Name: 
                DNS:team18-server
    Signature Algorithm: sha256WithRSAEncryption
         7f:6a:73:10:76:c8:ef:c5:30:a9:2c:8c:f8:54:18:88:ab:42:
         d2:d1:c2:0f:1a:71:95:22:f2:d3:e8:53:5e:c7:0d:17:cf:11:
         46:45:c1:9b:0c:7e:8b:f6:11:af:97:dc:6f:e7:67:57:0b:19:
         0f:85:c9:a0:19:a1:0f:89:bd:69:c0:57:6a:55:ca:0e:1e:ea:
         de:30:55:ad:94:40:7c:2e:2a:aa:5b:71:5f:6a:13:8b:03:06:
         93:27:af:8e:54:72:d8:a0:c9:22:a0:4c:57:8c:f6:b4:18:58:
         85:0a:91:ff:47:8a:02:a4:de:05:b2:9f:d9:f5:3f:d5:aa:96:
         20:d3:78:82:f7:f3:75:1b:a7:91:a9:67:19:97:ca:ed:f1:c8:
         ce:3e:0c:e4:21:0e:00:f1:4c:29:0b:09:a9:d4:23:4c:68:28:
         9c:5c:ef:72:b6:5e:92:fa:27:d8:91:22:23:20:2f:57:76:0b:
         33:fa:ef:4d:dc:ab:d0:3e:96:1e:02:0e:f8:05:7c:8f:99:f7:
         6a:c9:ad:d7:df:8d:1a:74:0c:13:15:18:a0:90:fd:a0:65:cf:
         5b:4e:e5:c3:54:c1:cf:86:74:2a:4b:ae:ca:1c:cc:a1:8b:bd:
         e8:0e:5f:bf:3e:ef:d3:ff:99:ea:4a:67:68:ea:ee:8e:e8:30:
         09:a7:32:26
-----BEGIN CERTIFICATE-----
MIIDczCCAlugAwIBAgIQUiYOY0fbsY7FMv3Rac1xDTANBgkqhkiG9w0BAQsFADAV
MRMwEQYDVQQDDAp0ZWFtMTgtbmV0MB4XDTIyMDUxODE0MDE0OFoXDTI1MDUwMjE0
MDE0OFowGDEWMBQGA1UEAwwNdGVhbTE4LXNlcnZlcjCCASIwDQYJKoZIhvcNAQEB
BQADggEPADCCAQoCggEBAL3/opRW7TNvMuYgnLyIL+5yAUsdX3sL6AyXzlNG+SNA
Is6zj1x8zSQZkHzVV80IsXtMyhrihlsAwFIibtv8nA1l+1AGP4dk1SpxFC5Jfd/+
ymfyC804NLvA3/C35UnkkOVNGTSyU4cs56Hd5WCX6n3i3mCztIXhgn/lZ+7bSB8/
h8HefFjgSnZbqupkKFaCf5fH1i1hP6k7rHK13dezAjDqBKTgmAJhruSgJAXdHM8V
0+cv2dul9yED1jbiCSBRrkcRONv3q0vqkWXADtx92mxwRBRgbCaQvH4ef04j2bTN
DwO0/BpF9x387V3BQUY2Afu2oyIRv34zh/DcyyVyJn8CAwEAAaOBuzCBuDAJBgNV
HRMEAjAAMB0GA1UdDgQWBBSg5UO6NprydiMui9O8xFYRA3g/djBQBgNVHSMESTBH
gBRvT8hHu5ct3aJgiJUpt4jdBx6Tw6EZpBcwFTETMBEGA1UEAwwKdGVhbTE4LW5l
dIIUToidO6OOV7HdvHGzCub/Vu25W6YwEwYDVR0lBAwwCgYIKwYBBQUHAwEwCwYD
VR0PBAQDAgWgMBgGA1UdEQQRMA+CDXRlYW0xOC1zZXJ2ZXIwDQYJKoZIhvcNAQEL
BQADggEBAH9qcxB2yO/FMKksjPhUGIirQtLRwg8acZUi8tPoU17HDRfPEUZFwZsM
fov2Ea+X3G/nZ1cLGQ+FyaAZoQ+JvWnAV2pVyg4e6t4wVa2UQHwuKqpbcV9qE4sD
BpMnr45UctigySKgTFeM9rQYWIUKkf9HigKk3gWyn9n1P9WqliDTeIL383Ubp5Gp
ZxmXyu3xyM4+DOQhDgDxTCkLCanUI0xoKJxc73K2XpL6J9iRIiMgL1d2CzP6703c
q9A+lh4CDvgFfI+Z92rJrdffjRp0DBMVGKCQ/aBlz1tO5cNUwc+GdCpLrsoczKGL
vegOX78+79P/mepKZ2jq7o7oMAmnMiY=
-----END CERTIFICATE-----
