Certificate:
    Data:
        Version: 3 (0x2)
        Serial Number:
            db:e6:71:3f:58:4e:29:9a:4e:08:98:97:ee:b0:f0:ac
        Signature Algorithm: sha256WithRSAEncryption
        Issuer: CN=team680-net
        Validity
            Not Before: May 18 23:21:30 2022 GMT
            Not After : May  2 23:21:30 2025 GMT
        Subject: CN=team680-server
        Subject Public Key Info:
            Public Key Algorithm: rsaEncryption
                RSA Public-Key: (2048 bit)
                Modulus:
                    00:cb:f8:87:d6:18:f2:fc:2c:4c:6e:5c:3e:ac:f8:
                    63:2c:21:e3:16:ac:b9:aa:c2:f9:5e:a2:55:fc:c1:
                    d6:26:2f:c8:03:d5:16:fb:6c:11:ee:61:0b:9e:a3:
                    67:65:aa:00:57:0d:99:47:84:fb:67:e2:c7:4b:14:
                    cb:32:1c:7b:35:1a:ce:6c:82:9b:3a:ac:d4:ba:d2:
                    8a:3f:df:71:88:3a:d9:17:dc:9f:f2:66:9b:00:3e:
                    b1:62:85:bd:93:ae:92:d6:39:d3:4b:6b:ce:05:09:
                    ac:e5:c2:48:71:94:62:6b:a4:5b:a3:e6:53:51:f3:
                    4e:7a:a4:5a:65:7f:6f:f5:1a:96:e5:cb:ec:bf:8b:
                    6a:53:90:f5:44:90:80:d5:a5:03:b0:ac:18:f3:a6:
                    68:4d:e2:c9:71:17:0f:ae:aa:c3:df:c2:a6:e1:c7:
                    b6:43:2a:18:40:6e:c5:16:d9:01:43:1f:2c:61:93:
                    1e:09:16:f0:e2:da:97:6b:bc:ca:35:d6:ee:ed:fc:
                    e0:51:bc:4a:01:f1:ad:34:a5:68:50:87:aa:35:00:
                    3a:0c:7f:96:54:0b:4f:2a:65:a9:93:62:9d:36:02:
                    77:35:bf:53:5b:48:91:9c:c3:fe:cb:43:ad:b9:ac:
                    c6:35:11:14:33:7e:75:7e:d0:41:ea:99:55:a8:cf:
                    5d:6d
                Exponent: 65537 (0x10001)
        X509v3 extensions:
            X509v3 Basic Constraints: 
                CA:FALSE
            X509v3 Subject Key Identifier: 
                D8:B9:DC:2F:9F:18:AC:00:CD:4F:08:28:6C:35:56:0F:46:87:F8:6A
            X509v3 Authority Key Identifier: 
                keyid:85:EA:80:87:E8:93:43:38:8C:E2:E9:19:B4:00:5A:3B:12:3C:78:57
                DirName:/CN=team680-net
                serial:04:58:DE:11:E0:48:55:B7:3A:08:CE:32:E6:22:6F:83:B7:67:22:81

            X509v3 Extended Key Usage: 
                TLS Web Server Authentication
            X509v3 Key Usage: 
                Digital Signature, Key Encipherment
            X509v3 Subject Alternative Name: 
                DNS:team680-server
    Signature Algorithm: sha256WithRSAEncryption
         55:47:6f:a1:d4:44:14:57:4b:f0:96:80:0c:31:bc:91:7c:4a:
         82:a2:58:a2:dc:50:10:45:cc:95:8f:cc:45:ef:5b:e8:25:87:
         c9:e0:19:0c:2c:13:50:c7:51:79:b1:55:5e:da:7a:28:21:90:
         76:9b:df:62:18:b7:e9:e7:e4:f7:0f:24:78:74:f1:cc:86:18:
         dc:42:2e:2e:b3:eb:ab:61:2a:c0:8f:e0:f6:e7:74:fb:47:84:
         3d:09:b6:39:f3:8e:f3:8d:54:3e:29:a6:e7:0c:43:6a:be:0c:
         75:65:ac:d2:8c:81:5d:fb:c9:1b:a1:88:56:ce:ef:9d:74:89:
         24:e6:b9:36:59:02:04:c5:f3:2b:22:96:fd:c5:05:a1:74:a4:
         f2:f7:dd:4c:e8:55:1c:cf:c0:9d:d6:10:52:12:b8:37:aa:2c:
         47:57:f9:fd:7f:66:c7:f5:56:6d:58:5c:db:1d:9c:1d:91:69:
         ac:a6:e2:bb:13:58:38:f1:93:c3:1d:9c:86:12:09:dd:7b:9d:
         d4:81:b3:d7:57:63:8a:67:09:02:09:c3:b2:f7:22:c3:12:8d:
         7f:cd:bd:23:9b:48:d0:28:fd:05:ab:8b:50:86:4f:3c:3b:f2:
         c6:e7:70:f4:ab:9e:39:e1:2c:8f:a9:ab:e8:af:ab:40:25:41:
         8c:e5:31:cb
-----BEGIN CERTIFICATE-----
MIIDeDCCAmCgAwIBAgIRANvmcT9YTimaTgiYl+6w8KwwDQYJKoZIhvcNAQELBQAw
FjEUMBIGA1UEAwwLdGVhbTY4MC1uZXQwHhcNMjIwNTE4MjMyMTMwWhcNMjUwNTAy
MjMyMTMwWjAZMRcwFQYDVQQDDA50ZWFtNjgwLXNlcnZlcjCCASIwDQYJKoZIhvcN
AQEBBQADggEPADCCAQoCggEBAMv4h9YY8vwsTG5cPqz4Yywh4xasuarC+V6iVfzB
1iYvyAPVFvtsEe5hC56jZ2WqAFcNmUeE+2fix0sUyzIcezUazmyCmzqs1LrSij/f
cYg62Rfcn/JmmwA+sWKFvZOuktY500trzgUJrOXCSHGUYmukW6PmU1HzTnqkWmV/
b/UaluXL7L+LalOQ9USQgNWlA7CsGPOmaE3iyXEXD66qw9/CpuHHtkMqGEBuxRbZ
AUMfLGGTHgkW8OLal2u8yjXW7u384FG8SgHxrTSlaFCHqjUAOgx/llQLTyplqZNi
nTYCdzW/U1tIkZzD/stDrbmsxjURFDN+dX7QQeqZVajPXW0CAwEAAaOBvTCBujAJ
BgNVHRMEAjAAMB0GA1UdDgQWBBTYudwvnxisAM1PCChsNVYPRof4ajBRBgNVHSME
SjBIgBSF6oCH6JNDOIzi6Rm0AFo7Ejx4V6EapBgwFjEUMBIGA1UEAwwLdGVhbTY4
MC1uZXSCFARY3hHgSFW3OgjOMuYib4O3ZyKBMBMGA1UdJQQMMAoGCCsGAQUFBwMB
MAsGA1UdDwQEAwIFoDAZBgNVHREEEjAQgg50ZWFtNjgwLXNlcnZlcjANBgkqhkiG
9w0BAQsFAAOCAQEAVUdvodREFFdL8JaADDG8kXxKgqJYotxQEEXMlY/MRe9b6CWH
yeAZDCwTUMdRebFVXtp6KCGQdpvfYhi36efk9w8keHTxzIYY3EIuLrPrq2EqwI/g
9ud0+0eEPQm2OfOO841UPimm5wxDar4MdWWs0oyBXfvJG6GIVs7vnXSJJOa5NlkC
BMXzKyKW/cUFoXSk8vfdTOhVHM/AndYQUhK4N6osR1f5/X9mx/VWbVhc2x2cHZFp
rKbiuxNYOPGTwx2chhIJ3Xud1IGz11djimcJAgnDsvciwxKNf829I5tI0Cj9BauL
UIZPPDvyxudw9KueOeEsj6mr6K+rQCVBjOUxyw==
-----END CERTIFICATE-----
