Certificate:
    Data:
        Version: 3 (0x2)
        Serial Number:
            49:34:5b:dd:6e:ea:63:4e:7e:2a:19:da:39:f6:7e:29
        Signature Algorithm: sha256WithRSAEncryption
        Issuer: CN=team254-net
        Validity
            Not Before: May 18 19:30:59 2022 GMT
            Not After : May  2 19:30:59 2025 GMT
        Subject: CN=team254-server
        Subject Public Key Info:
            Public Key Algorithm: rsaEncryption
                RSA Public-Key: (2048 bit)
                Modulus:
                    00:c9:56:26:93:86:01:78:16:6d:57:75:9b:3d:6b:
                    e8:2c:ff:4b:04:c5:dc:ee:2c:aa:d6:aa:1e:4a:ca:
                    fb:98:46:79:b2:83:1d:38:34:dc:ff:84:82:f7:9c:
                    89:c6:ce:44:0a:b2:ae:b6:0d:05:e6:b6:5f:8c:ed:
                    76:71:14:ea:7f:ca:7d:d8:d0:1a:f1:82:89:ec:1e:
                    18:03:79:63:96:80:5f:fb:ba:c3:84:6a:e1:72:b1:
                    a9:79:ff:01:08:27:12:44:c6:5a:c3:e6:cc:03:50:
                    6f:a0:86:08:79:d5:d7:7f:c7:40:bd:d6:a9:cc:c5:
                    4a:b0:0c:6c:e8:76:15:41:39:7a:50:b6:74:54:e9:
                    98:51:e8:63:4a:c5:c6:69:01:6b:4d:5f:51:0b:8c:
                    48:b9:cf:8c:96:38:93:4a:b2:9f:91:2c:d5:81:ec:
                    31:ef:2b:c8:c7:1c:a1:7f:33:8c:c1:39:8e:c2:cd:
                    e2:5f:ef:09:26:56:fc:44:dc:cd:28:4d:67:a0:e7:
                    f4:6f:7b:10:29:bc:c0:48:3e:60:29:b1:c1:b5:3a:
                    4b:96:51:ad:51:aa:55:6c:eb:96:19:2d:43:54:6c:
                    53:66:87:4f:a2:db:f3:f2:f1:91:79:73:57:f7:23:
                    56:49:1f:96:15:c2:e9:a1:39:af:28:d6:ae:bf:ac:
                    23:25
                Exponent: 65537 (0x10001)
        X509v3 extensions:
            X509v3 Basic Constraints: 
                CA:FALSE
            X509v3 Subject Key Identifier: 
                67:DD:BE:05:22:62:F8:25:2B:6B:D7:47:FF:25:6D:5D:CA:11:32:9C
            X509v3 Authority Key Identifier: 
                keyid:78:2B:3C:BE:0A:1A:B2:B8:6E:9B:89:21:0A:14:BE:64:2C:6C:76:DA
                DirName:/CN=team254-net
                serial:5F:B3:FF:45:0B:C2:0F:A0:05:F6:FB:BA:F4:F8:C7:DD:2D:3B:F4:C5

            X509v3 Extended Key Usage: 
                TLS Web Server Authentication
            X509v3 Key Usage: 
                Digital Signature, Key Encipherment
            X509v3 Subject Alternative Name: 
                DNS:team254-server
    Signature Algorithm: sha256WithRSAEncryption
         30:ce:e1:01:5b:d4:25:24:c0:a8:27:4b:5d:b2:95:59:7f:03:
         63:49:57:21:34:16:fb:0a:db:0d:7b:8d:00:23:dd:7d:9d:5d:
         63:c1:a1:78:14:31:35:7c:55:63:18:0c:a5:d5:25:57:86:da:
         8d:92:b9:12:f2:57:26:32:fd:00:e0:b6:27:02:89:21:a1:16:
         a6:5d:d5:4b:93:b6:0f:3b:93:b6:de:77:cb:b3:a2:6e:1b:d0:
         c6:6c:33:25:81:00:1b:be:4b:ba:92:fa:93:b5:ea:12:0e:d8:
         74:f1:fb:1b:8d:d4:42:a2:4a:e1:94:c8:2b:d1:fc:a5:b5:24:
         b7:37:b4:69:80:e3:89:1a:2c:4f:b0:69:d3:79:96:12:f4:ef:
         f6:79:cf:3a:ba:45:20:6d:f5:ad:e2:1f:07:e7:f5:f0:72:de:
         51:16:14:1b:79:c1:76:0f:d0:92:60:11:9d:ab:f0:d1:7a:24:
         5c:04:18:7b:3e:d6:e7:02:64:5d:28:23:0f:20:89:94:6f:2e:
         0e:f6:65:e8:fb:d8:c9:fe:a9:d5:1a:d9:f6:6b:ab:c7:8a:6d:
         b3:cb:8f:74:79:a3:0d:70:11:3e:11:11:6b:cf:85:5a:1f:50:
         42:c3:90:6e:fa:64:3b:c2:f4:38:ff:b1:77:9f:90:52:2f:c9:
         a0:c1:76:72
-----BEGIN CERTIFICATE-----
MIIDdzCCAl+gAwIBAgIQSTRb3W7qY05+KhnaOfZ+KTANBgkqhkiG9w0BAQsFADAW
MRQwEgYDVQQDDAt0ZWFtMjU0LW5ldDAeFw0yMjA1MTgxOTMwNTlaFw0yNTA1MDIx
OTMwNTlaMBkxFzAVBgNVBAMMDnRlYW0yNTQtc2VydmVyMIIBIjANBgkqhkiG9w0B
AQEFAAOCAQ8AMIIBCgKCAQEAyVYmk4YBeBZtV3WbPWvoLP9LBMXc7iyq1qoeSsr7
mEZ5soMdODTc/4SC95yJxs5ECrKutg0F5rZfjO12cRTqf8p92NAa8YKJ7B4YA3lj
loBf+7rDhGrhcrGpef8BCCcSRMZaw+bMA1BvoIYIedXXf8dAvdapzMVKsAxs6HYV
QTl6ULZ0VOmYUehjSsXGaQFrTV9RC4xIuc+MljiTSrKfkSzVgewx7yvIxxyhfzOM
wTmOws3iX+8JJlb8RNzNKE1noOf0b3sQKbzASD5gKbHBtTpLllGtUapVbOuWGS1D
VGxTZodPotvz8vGReXNX9yNWSR+WFcLpoTmvKNauv6wjJQIDAQABo4G9MIG6MAkG
A1UdEwQCMAAwHQYDVR0OBBYEFGfdvgUiYvglK2vXR/8lbV3KETKcMFEGA1UdIwRK
MEiAFHgrPL4KGrK4bpuJIQoUvmQsbHbaoRqkGDAWMRQwEgYDVQQDDAt0ZWFtMjU0
LW5ldIIUX7P/RQvCD6AF9vu69PjH3S079MUwEwYDVR0lBAwwCgYIKwYBBQUHAwEw
CwYDVR0PBAQDAgWgMBkGA1UdEQQSMBCCDnRlYW0yNTQtc2VydmVyMA0GCSqGSIb3
DQEBCwUAA4IBAQAwzuEBW9QlJMCoJ0tdspVZfwNjSVchNBb7CtsNe40AI919nV1j
waF4FDE1fFVjGAyl1SVXhtqNkrkS8lcmMv0A4LYnAokhoRamXdVLk7YPO5O23nfL
s6JuG9DGbDMlgQAbvku6kvqTteoSDth08fsbjdRCokrhlMgr0fyltSS3N7RpgOOJ
GixPsGnTeZYS9O/2ec86ukUgbfWt4h8H5/Xwct5RFhQbecF2D9CSYBGdq/DReiRc
BBh7PtbnAmRdKCMPIImUby4O9mXo+9jJ/qnVGtn2a6vHim2zy490eaMNcBE+ERFr
z4VaH1BCw5Bu+mQ7wvQ4/7F3n5BSL8mgwXZy
-----END CERTIFICATE-----
