Certificate:
    Data:
        Version: 3 (0x2)
        Serial Number:
            ec:84:37:28:47:db:4a:1e:86:02:30:1b:03:b5:83:49
        Signature Algorithm: sha256WithRSAEncryption
        Issuer: CN=team432-net
        Validity
            Not Before: May 18 21:08:53 2022 GMT
            Not After : May  2 21:08:53 2025 GMT
        Subject: CN=team432-server
        Subject Public Key Info:
            Public Key Algorithm: rsaEncryption
                RSA Public-Key: (2048 bit)
                Modulus:
                    00:cf:36:06:a0:c9:78:77:a1:1e:3c:33:42:62:a6:
                    b1:5d:3e:ec:7b:10:44:28:43:b6:46:17:be:6c:f6:
                    d3:6d:e1:a6:84:4f:4d:30:0e:3e:55:13:57:8a:57:
                    b7:17:4e:68:cd:b4:26:43:ff:51:ef:56:1a:d5:4f:
                    28:e4:16:8d:cd:30:d5:f7:85:03:bc:dc:7c:53:de:
                    ac:fa:6c:8b:5e:13:62:80:a7:05:67:f9:b7:aa:e2:
                    0d:60:37:e4:df:fd:eb:8d:e3:8d:30:a7:fd:6f:ab:
                    d3:c0:60:aa:95:2a:80:ef:fd:61:72:de:ae:af:f8:
                    00:95:26:6b:d1:97:bd:35:d5:29:d3:88:54:ea:42:
                    c6:95:e6:b8:2a:7d:1f:44:71:74:51:fa:a5:27:91:
                    40:cd:51:fa:92:fc:5a:66:4d:4f:c4:06:56:7a:73:
                    ae:ba:5a:c5:8d:ee:25:3c:b6:d5:8b:34:8e:67:b6:
                    16:33:cb:9e:22:f1:ed:37:e6:0d:56:e7:15:83:cf:
                    9e:19:d2:09:a5:8a:72:25:84:cc:15:58:85:2b:07:
                    3f:d6:5f:3d:e8:2b:c2:83:33:30:52:fc:0c:54:ec:
                    e3:39:36:8d:a1:65:d8:e3:75:a8:d9:b3:a3:e9:42:
                    e9:ed:be:fc:14:a5:1e:2e:bc:6c:e9:91:1f:4f:2c:
                    56:87
                Exponent: 65537 (0x10001)
        X509v3 extensions:
            X509v3 Basic Constraints: 
                CA:FALSE
            X509v3 Subject Key Identifier: 
                F6:C1:B9:AC:8E:16:30:51:5E:64:EE:8C:C7:C8:D8:E6:31:83:D3:CA
            X509v3 Authority Key Identifier: 
                keyid:64:69:65:0A:71:3E:72:D7:1F:36:DD:4C:E6:FF:5A:27:54:6D:BA:E6
                DirName:/CN=team432-net
                serial:23:9E:57:73:5F:55:0A:5B:14:2F:1F:8D:3B:1B:73:74:76:3B:77:2B

            X509v3 Extended Key Usage: 
                TLS Web Server Authentication
            X509v3 Key Usage: 
                Digital Signature, Key Encipherment
            X509v3 Subject Alternative Name: 
                DNS:team432-server
    Signature Algorithm: sha256WithRSAEncryption
         54:88:75:26:34:da:2d:a8:32:df:f3:ad:fa:aa:26:16:8f:e7:
         d1:bc:c4:2c:c2:a2:29:22:bd:0c:bc:3e:49:ab:e1:d6:e6:13:
         23:62:2e:bc:a1:40:cb:db:10:da:4a:a6:59:21:af:58:d7:67:
         c2:df:6d:63:f8:75:64:da:d3:a5:f7:73:05:75:8c:92:c1:9b:
         40:86:ed:1d:97:5f:9f:0d:e1:6b:f6:51:d8:df:1d:73:54:7b:
         e1:9d:f3:de:c2:34:61:41:13:f9:60:13:84:a1:f6:c2:d4:24:
         ba:0e:6e:db:28:b9:87:89:62:80:df:76:e7:1e:ee:ff:82:83:
         77:8e:2a:ea:ac:ad:10:fd:3f:1c:76:b9:96:70:65:d4:f3:6f:
         52:ea:aa:91:78:8b:30:76:03:f2:3b:d3:f0:3a:6e:0c:e5:23:
         89:5e:ed:b6:2f:da:22:76:fe:f9:19:e5:ee:e7:6d:4a:53:2a:
         d9:21:64:48:31:99:08:c1:8d:ae:8d:8f:9c:0f:81:2c:46:ef:
         0a:e4:6c:70:35:b4:c4:be:b0:05:a5:54:20:8d:12:9b:e2:ef:
         d8:8d:cd:9c:5b:d6:bb:0f:dd:51:03:1b:6a:38:37:3b:0d:24:
         ed:84:50:06:bd:83:91:a1:32:fe:2b:64:db:97:6d:23:0c:3a:
         40:2e:9e:9d
-----BEGIN CERTIFICATE-----
MIIDeDCCAmCgAwIBAgIRAOyENyhH20oehgIwGwO1g0kwDQYJKoZIhvcNAQELBQAw
FjEUMBIGA1UEAwwLdGVhbTQzMi1uZXQwHhcNMjIwNTE4MjEwODUzWhcNMjUwNTAy
MjEwODUzWjAZMRcwFQYDVQQDDA50ZWFtNDMyLXNlcnZlcjCCASIwDQYJKoZIhvcN
AQEBBQADggEPADCCAQoCggEBAM82BqDJeHehHjwzQmKmsV0+7HsQRChDtkYXvmz2
023hpoRPTTAOPlUTV4pXtxdOaM20JkP/Ue9WGtVPKOQWjc0w1feFA7zcfFPerPps
i14TYoCnBWf5t6riDWA35N/9643jjTCn/W+r08BgqpUqgO/9YXLerq/4AJUma9GX
vTXVKdOIVOpCxpXmuCp9H0RxdFH6pSeRQM1R+pL8WmZNT8QGVnpzrrpaxY3uJTy2
1Ys0jme2FjPLniLx7TfmDVbnFYPPnhnSCaWKciWEzBVYhSsHP9ZfPegrwoMzMFL8
DFTs4zk2jaFl2ON1qNmzo+lC6e2+/BSlHi68bOmRH08sVocCAwEAAaOBvTCBujAJ
BgNVHRMEAjAAMB0GA1UdDgQWBBT2wbmsjhYwUV5k7ozHyNjmMYPTyjBRBgNVHSME
SjBIgBRkaWUKcT5y1x823Uzm/1onVG265qEapBgwFjEUMBIGA1UEAwwLdGVhbTQz
Mi1uZXSCFCOeV3NfVQpbFC8fjTsbc3R2O3crMBMGA1UdJQQMMAoGCCsGAQUFBwMB
MAsGA1UdDwQEAwIFoDAZBgNVHREEEjAQgg50ZWFtNDMyLXNlcnZlcjANBgkqhkiG
9w0BAQsFAAOCAQEAVIh1JjTaLagy3/Ot+qomFo/n0bzELMKiKSK9DLw+Savh1uYT
I2IuvKFAy9sQ2kqmWSGvWNdnwt9tY/h1ZNrTpfdzBXWMksGbQIbtHZdfnw3ha/ZR
2N8dc1R74Z3z3sI0YUET+WAThKH2wtQkug5u2yi5h4ligN925x7u/4KDd44q6qyt
EP0/HHa5lnBl1PNvUuqqkXiLMHYD8jvT8DpuDOUjiV7tti/aInb++Rnl7udtSlMq
2SFkSDGZCMGNro2PnA+BLEbvCuRscDW0xL6wBaVUII0Sm+Lv2I3NnFvWuw/dUQMb
ajg3Ow0k7YRQBr2DkaEy/itk25dtIww6QC6enQ==
-----END CERTIFICATE-----
