Certificate:
    Data:
        Version: 3 (0x2)
        Serial Number:
            e3:7d:14:1d:28:0f:5a:1c:76:28:a2:17:17:c9:69:ce
        Signature Algorithm: sha256WithRSAEncryption
        Issuer: CN=team256-net
        Validity
            Not Before: May 18 19:32:45 2022 GMT
            Not After : May  2 19:32:45 2025 GMT
        Subject: CN=team256-server
        Subject Public Key Info:
            Public Key Algorithm: rsaEncryption
                RSA Public-Key: (2048 bit)
                Modulus:
                    00:c6:0a:d3:88:20:a1:45:cb:54:fd:47:e7:81:f1:
                    d0:2b:b6:f3:a2:94:37:53:44:c3:19:c2:55:25:c8:
                    e0:d7:8f:76:d6:80:b5:b1:a6:43:ff:14:65:f7:cc:
                    e8:2c:d4:0b:b2:85:70:81:62:12:6f:a5:db:c5:72:
                    c4:0b:47:48:5c:05:91:a9:24:69:b3:9c:04:61:84:
                    7b:df:c2:40:32:d8:cd:42:4e:b5:61:47:6a:d9:38:
                    c9:88:a4:b4:a1:e2:f5:d5:5c:72:d7:4c:6b:d9:e0:
                    d2:f2:03:ee:be:c2:04:9e:62:33:be:5d:cf:e5:29:
                    2f:23:df:f4:83:c9:a4:41:9e:d0:d2:43:08:73:86:
                    7c:e4:1f:9d:0f:91:33:9a:c4:db:82:60:8a:49:ae:
                    90:7b:27:cd:1e:db:1b:e6:9b:48:26:9b:54:73:f2:
                    b1:95:52:62:f7:a1:6a:e0:62:ef:33:c6:82:1c:0e:
                    32:6e:f8:b0:a6:04:13:94:d1:62:51:17:f1:6a:c4:
                    61:ce:c6:d8:7a:4d:e5:46:f6:0b:e2:06:6c:9a:b3:
                    93:b1:a8:a5:2a:d0:7c:7d:53:7d:79:ae:19:c0:25:
                    dc:b0:b0:8c:f6:b3:62:bc:29:66:85:99:41:65:d8:
                    a9:54:77:9a:a1:9e:62:91:4a:34:f3:13:a1:87:5e:
                    86:39
                Exponent: 65537 (0x10001)
        X509v3 extensions:
            X509v3 Basic Constraints: 
                CA:FALSE
            X509v3 Subject Key Identifier: 
                B4:5D:C1:26:9F:17:64:0C:4E:95:66:1C:FC:E9:D4:AD:72:8B:EE:75
            X509v3 Authority Key Identifier: 
                keyid:19:3F:A5:8F:FD:E7:39:DD:32:71:10:B6:12:17:F9:2D:C0:78:A4:E9
                DirName:/CN=team256-net
                serial:53:25:78:D4:23:B3:D8:5D:5D:C4:B6:BB:9E:44:C6:64:A2:BB:2B:DF

            X509v3 Extended Key Usage: 
                TLS Web Server Authentication
            X509v3 Key Usage: 
                Digital Signature, Key Encipherment
            X509v3 Subject Alternative Name: 
                DNS:team256-server
    Signature Algorithm: sha256WithRSAEncryption
         69:65:6b:e6:df:62:a0:09:d9:51:f5:ec:5f:d3:32:91:e5:7a:
         6c:53:43:40:30:a7:ef:63:50:d1:9f:b7:11:52:a9:24:72:bf:
         39:ab:de:e7:58:cf:b5:4b:46:d6:f1:4f:ac:4f:1d:8f:03:96:
         b6:b2:13:47:71:16:d7:ee:76:a1:d9:09:e3:29:1a:82:5f:13:
         a7:8a:35:0f:4a:fb:dd:55:a9:f8:02:4f:1e:6b:cc:11:1e:b3:
         3a:19:19:83:5a:32:eb:10:6b:0e:94:ef:77:02:e2:15:af:d8:
         9f:f1:78:3a:0d:9e:3d:1a:1d:4d:c9:72:90:04:a7:f3:f0:39:
         63:02:3d:3c:06:c4:0f:9a:83:5e:2c:bc:27:9f:f0:4e:8d:af:
         ea:6e:e3:1c:de:c3:2a:a9:9e:4d:1e:c7:a8:d6:13:f4:27:ca:
         43:06:d7:0b:19:85:0a:63:ac:c9:2b:82:62:fa:d3:ed:75:05:
         60:0f:4d:05:a2:4a:50:cc:90:ba:97:21:89:c5:35:00:94:98:
         7e:3a:6e:11:e0:8a:86:10:94:66:12:c3:14:c1:f2:05:a8:69:
         a5:8e:68:c6:f6:ae:ba:c7:95:ff:f4:a6:20:53:9f:1e:86:65:
         2d:87:a5:42:b1:4d:2d:04:04:12:cc:d0:67:d9:b4:52:eb:08:
         0a:aa:98:60
-----BEGIN CERTIFICATE-----
MIIDeDCCAmCgAwIBAgIRAON9FB0oD1ocdiiiFxfJac4wDQYJKoZIhvcNAQELBQAw
FjEUMBIGA1UEAwwLdGVhbTI1Ni1uZXQwHhcNMjIwNTE4MTkzMjQ1WhcNMjUwNTAy
MTkzMjQ1WjAZMRcwFQYDVQQDDA50ZWFtMjU2LXNlcnZlcjCCASIwDQYJKoZIhvcN
AQEBBQADggEPADCCAQoCggEBAMYK04ggoUXLVP1H54Hx0Cu286KUN1NEwxnCVSXI
4NePdtaAtbGmQ/8UZffM6CzUC7KFcIFiEm+l28VyxAtHSFwFkakkabOcBGGEe9/C
QDLYzUJOtWFHatk4yYiktKHi9dVcctdMa9ng0vID7r7CBJ5iM75dz+UpLyPf9IPJ
pEGe0NJDCHOGfOQfnQ+RM5rE24JgikmukHsnzR7bG+abSCabVHPysZVSYvehauBi
7zPGghwOMm74sKYEE5TRYlEX8WrEYc7G2HpN5Ub2C+IGbJqzk7GopSrQfH1TfXmu
GcAl3LCwjPazYrwpZoWZQWXYqVR3mqGeYpFKNPMToYdehjkCAwEAAaOBvTCBujAJ
BgNVHRMEAjAAMB0GA1UdDgQWBBS0XcEmnxdkDE6VZhz86dStcovudTBRBgNVHSME
SjBIgBQZP6WP/ec53TJxELYSF/ktwHik6aEapBgwFjEUMBIGA1UEAwwLdGVhbTI1
Ni1uZXSCFFMleNQjs9hdXcS2u55ExmSiuyvfMBMGA1UdJQQMMAoGCCsGAQUFBwMB
MAsGA1UdDwQEAwIFoDAZBgNVHREEEjAQgg50ZWFtMjU2LXNlcnZlcjANBgkqhkiG
9w0BAQsFAAOCAQEAaWVr5t9ioAnZUfXsX9MykeV6bFNDQDCn72NQ0Z+3EVKpJHK/
Oave51jPtUtG1vFPrE8djwOWtrITR3EW1+52odkJ4ykagl8Tp4o1D0r73VWp+AJP
HmvMER6zOhkZg1oy6xBrDpTvdwLiFa/Yn/F4Og2ePRodTclykASn8/A5YwI9PAbE
D5qDXiy8J5/wTo2v6m7jHN7DKqmeTR7HqNYT9CfKQwbXCxmFCmOsySuCYvrT7XUF
YA9NBaJKUMyQupchicU1AJSYfjpuEeCKhhCUZhLDFMHyBahppY5oxvauuseV//Sm
IFOfHoZlLYelQrFNLQQEEszQZ9m0UusICqqYYA==
-----END CERTIFICATE-----
