Certificate:
    Data:
        Version: 3 (0x2)
        Serial Number:
            fb:a8:51:ef:ce:a1:b3:17:50:85:74:b0:a3:78:56:b4
        Signature Algorithm: sha256WithRSAEncryption
        Issuer: CN=team138-net
        Validity
            Not Before: May 18 15:13:15 2022 GMT
            Not After : May  2 15:13:15 2025 GMT
        Subject: CN=team138-server
        Subject Public Key Info:
            Public Key Algorithm: rsaEncryption
                RSA Public-Key: (2048 bit)
                Modulus:
                    00:b4:f3:39:27:2b:e1:58:3a:ab:25:0e:5f:c1:ad:
                    7a:00:26:4a:52:04:66:b1:d4:2c:4f:95:15:48:2a:
                    a7:17:80:99:d2:59:0f:ef:4c:df:53:ee:a1:4a:97:
                    ad:a7:09:2a:8a:55:af:6f:ed:76:9e:d7:59:4e:05:
                    d8:71:47:d7:fa:cd:3e:c4:13:4e:9c:3d:af:c5:c7:
                    cb:57:9d:59:86:e8:0c:6d:30:95:0a:04:91:a4:2d:
                    8e:b7:4c:68:e1:dd:5c:60:10:65:ce:36:05:f2:f6:
                    b5:3e:0b:25:70:fe:40:bb:41:13:5c:17:c7:be:c7:
                    f3:e6:3c:85:fd:75:1b:7c:e9:57:64:e8:d1:0c:87:
                    18:02:8f:f9:ca:73:24:db:91:ba:f6:da:b3:71:18:
                    3a:5d:bb:9e:ba:73:3f:e5:65:36:17:af:ab:30:66:
                    cd:70:63:c7:d7:8b:71:a0:55:04:c5:a0:7d:6d:82:
                    8b:1f:58:2b:ae:eb:83:13:59:76:9a:dd:92:39:77:
                    1f:f7:99:ad:18:84:ae:ed:a1:9a:1a:c1:0c:16:c1:
                    ed:29:eb:39:8a:a2:ac:18:a8:a8:37:2b:52:71:60:
                    3d:9e:d1:73:bb:3c:ef:a6:95:65:f7:77:3c:a7:cb:
                    2c:9c:92:d4:fb:e1:63:9a:b6:92:ef:14:02:71:88:
                    b4:c7
                Exponent: 65537 (0x10001)
        X509v3 extensions:
            X509v3 Basic Constraints: 
                CA:FALSE
            X509v3 Subject Key Identifier: 
                66:C6:3E:38:E9:F1:1A:DC:84:61:EC:38:70:49:3E:83:30:1D:21:57
            X509v3 Authority Key Identifier: 
                keyid:50:95:C3:02:DE:0F:C6:5B:CF:C2:50:AA:87:AE:57:4C:AA:A1:D8:8F
                DirName:/CN=team138-net
                serial:71:60:E5:CE:4D:1A:87:92:FC:00:B7:4E:8A:5F:85:F9:C0:3C:C1:6F

            X509v3 Extended Key Usage: 
                TLS Web Server Authentication
            X509v3 Key Usage: 
                Digital Signature, Key Encipherment
            X509v3 Subject Alternative Name: 
                DNS:team138-server
    Signature Algorithm: sha256WithRSAEncryption
         a0:38:4f:57:7e:9e:4f:ef:16:d4:79:ad:71:43:f0:2d:ea:6d:
         a2:fd:74:bc:2d:94:be:06:01:e2:1e:25:d5:b9:84:7e:db:b0:
         65:1a:b7:6b:3c:ba:25:8b:70:8a:4e:5a:61:4a:15:72:25:63:
         e5:76:d1:8f:bb:9a:39:6d:55:0e:7e:a9:9c:93:9d:61:5b:3b:
         e4:88:f2:59:f0:dc:ea:53:88:64:4a:e3:49:3d:58:a0:b0:a3:
         e2:22:57:63:41:51:57:da:d9:b8:11:3d:aa:66:d2:d0:c0:8a:
         01:a3:7d:9d:8c:8b:5f:bd:ff:fd:45:2a:9d:62:e2:e4:e5:30:
         65:8b:b9:68:a2:d9:91:2b:db:6e:f1:6d:e1:9a:2b:d3:32:3d:
         dc:0f:05:1a:06:d2:b1:02:20:e0:68:0e:41:9b:d4:1a:cd:51:
         1f:e7:ba:c5:47:0e:3b:a9:96:5c:4f:d5:ec:21:a5:9b:ab:17:
         9d:5a:00:c8:e1:62:05:5b:08:a5:bc:27:86:39:01:e5:6e:3a:
         ad:e9:5c:34:ad:b9:9f:d5:d8:7b:7f:ab:38:a2:dd:b3:1b:a5:
         83:06:7d:4e:21:16:a8:dc:48:83:36:7e:d6:a2:b7:bc:e8:9c:
         ad:62:75:81:48:d3:d3:33:96:c5:66:c7:e6:33:1d:1c:21:71:
         bf:3c:5d:2b
-----BEGIN CERTIFICATE-----
MIIDeDCCAmCgAwIBAgIRAPuoUe/OobMXUIV0sKN4VrQwDQYJKoZIhvcNAQELBQAw
FjEUMBIGA1UEAwwLdGVhbTEzOC1uZXQwHhcNMjIwNTE4MTUxMzE1WhcNMjUwNTAy
MTUxMzE1WjAZMRcwFQYDVQQDDA50ZWFtMTM4LXNlcnZlcjCCASIwDQYJKoZIhvcN
AQEBBQADggEPADCCAQoCggEBALTzOScr4Vg6qyUOX8GtegAmSlIEZrHULE+VFUgq
pxeAmdJZD+9M31PuoUqXracJKopVr2/tdp7XWU4F2HFH1/rNPsQTTpw9r8XHy1ed
WYboDG0wlQoEkaQtjrdMaOHdXGAQZc42BfL2tT4LJXD+QLtBE1wXx77H8+Y8hf11
G3zpV2To0QyHGAKP+cpzJNuRuvbas3EYOl27nrpzP+VlNhevqzBmzXBjx9eLcaBV
BMWgfW2Cix9YK67rgxNZdprdkjl3H/eZrRiEru2hmhrBDBbB7SnrOYqirBioqDcr
UnFgPZ7Rc7s876aVZfd3PKfLLJyS1PvhY5q2ku8UAnGItMcCAwEAAaOBvTCBujAJ
BgNVHRMEAjAAMB0GA1UdDgQWBBRmxj446fEa3IRh7DhwST6DMB0hVzBRBgNVHSME
SjBIgBRQlcMC3g/GW8/CUKqHrldMqqHYj6EapBgwFjEUMBIGA1UEAwwLdGVhbTEz
OC1uZXSCFHFg5c5NGoeS/AC3TopfhfnAPMFvMBMGA1UdJQQMMAoGCCsGAQUFBwMB
MAsGA1UdDwQEAwIFoDAZBgNVHREEEjAQgg50ZWFtMTM4LXNlcnZlcjANBgkqhkiG
9w0BAQsFAAOCAQEAoDhPV36eT+8W1HmtcUPwLeptov10vC2UvgYB4h4l1bmEftuw
ZRq3azy6JYtwik5aYUoVciVj5XbRj7uaOW1VDn6pnJOdYVs75IjyWfDc6lOIZErj
ST1YoLCj4iJXY0FRV9rZuBE9qmbS0MCKAaN9nYyLX73//UUqnWLi5OUwZYu5aKLZ
kSvbbvFt4Zor0zI93A8FGgbSsQIg4GgOQZvUGs1RH+e6xUcOO6mWXE/V7CGlm6sX
nVoAyOFiBVsIpbwnhjkB5W46relcNK25n9XYe3+rOKLdsxulgwZ9TiEWqNxIgzZ+
1qK3vOicrWJ1gUjT0zOWxWbH5jMdHCFxvzxdKw==
-----END CERTIFICATE-----
