Certificate:
    Data:
        Version: 3 (0x2)
        Serial Number:
            e7:75:70:86:de:2a:3b:7a:a9:09:e8:d6:7a:7f:aa:ea
        Signature Algorithm: sha256WithRSAEncryption
        Issuer: CN=team620-net
        Validity
            Not Before: May 18 22:49:49 2022 GMT
            Not After : May  2 22:49:49 2025 GMT
        Subject: CN=team620-server
        Subject Public Key Info:
            Public Key Algorithm: rsaEncryption
                RSA Public-Key: (2048 bit)
                Modulus:
                    00:b9:e1:bb:dc:7b:9d:07:40:9b:96:09:7e:5e:2a:
                    59:83:06:14:2c:79:a6:ae:aa:80:9e:4c:5b:d6:d8:
                    2d:96:d3:90:06:6f:05:41:ad:de:a9:06:30:ca:ec:
                    ba:33:e3:a7:05:6f:d5:0e:67:03:57:e6:19:81:26:
                    39:fa:b6:52:d4:b1:1b:be:3d:dd:a0:91:7f:ab:78:
                    4b:e5:d2:0e:b5:62:7c:08:49:26:82:52:95:8d:b2:
                    ce:91:a4:77:e3:50:d8:e9:c9:f5:36:57:2a:f5:09:
                    ad:32:ca:b9:e6:77:59:a5:79:50:e3:c0:f3:4f:29:
                    7b:b9:0e:2c:29:ea:b9:33:4c:ae:d0:8c:ee:9c:db:
                    33:3d:4c:ba:99:c7:21:96:b7:6c:23:a7:ce:a4:12:
                    de:52:c2:d8:96:80:a5:2f:59:48:bf:11:46:6d:4a:
                    b0:ae:24:76:29:d6:a6:1c:09:80:45:92:88:cf:ff:
                    73:6f:6a:aa:f5:48:97:52:80:ba:50:b9:ad:d5:ed:
                    58:8d:0c:12:0e:a7:60:34:95:e0:26:0c:4a:0e:9e:
                    3f:98:33:53:70:65:b8:a4:31:51:86:ae:99:b8:93:
                    05:d8:00:e4:56:22:f0:48:f6:1c:08:54:c8:8d:bc:
                    f4:84:01:d4:f3:2b:9d:52:e0:fe:84:af:d3:61:fe:
                    17:7f
                Exponent: 65537 (0x10001)
        X509v3 extensions:
            X509v3 Basic Constraints: 
                CA:FALSE
            X509v3 Subject Key Identifier: 
                94:DD:41:9B:9E:10:71:FB:D3:97:AC:79:4F:33:C7:79:E8:3C:CA:3A
            X509v3 Authority Key Identifier: 
                keyid:CA:A1:79:EA:E7:7B:0F:A4:EE:ED:B0:4C:36:CC:CE:94:B4:49:53:DC
                DirName:/CN=team620-net
                serial:6F:CA:2D:62:CC:1D:7A:A9:0C:CB:CA:33:26:AF:85:FF:61:F9:3E:33

            X509v3 Extended Key Usage: 
                TLS Web Server Authentication
            X509v3 Key Usage: 
                Digital Signature, Key Encipherment
            X509v3 Subject Alternative Name: 
                DNS:team620-server
    Signature Algorithm: sha256WithRSAEncryption
         9c:51:41:3b:e0:98:9e:72:c5:40:f2:12:f1:96:92:0a:c2:6f:
         5d:61:c3:37:52:2b:cc:a6:e7:ea:94:5d:ac:62:0a:49:a9:f8:
         0b:ed:4e:bd:7c:eb:e9:0b:36:ae:c7:1e:c9:f5:19:b1:ac:1f:
         ec:7d:85:02:2b:04:d3:0a:2a:98:73:cc:f2:69:b1:bc:e4:81:
         84:27:85:bb:55:4c:71:16:26:6d:d8:e0:2f:fc:74:75:97:69:
         69:a9:0a:d9:ab:e2:23:f4:e7:79:ff:4e:e8:4b:12:44:f7:e9:
         4d:11:95:46:2d:5a:56:9b:1f:65:42:ae:b2:4d:c2:59:17:13:
         9b:33:c7:78:21:29:33:a8:02:7b:33:12:3f:7f:ff:bd:ff:d2:
         7b:74:0f:a8:b1:68:34:2f:0e:38:6a:c6:e4:a5:ea:3a:f0:3d:
         cd:28:80:fd:0e:d7:33:a2:ec:e5:91:f1:b1:8c:4d:d5:e2:8e:
         6a:ef:7e:4d:f9:ad:5a:d7:a0:05:9f:69:41:ed:43:c1:81:17:
         c2:15:88:74:9a:26:db:77:14:75:bf:0d:05:ad:15:23:c7:64:
         b5:5a:ad:53:6e:bb:31:96:a4:43:8d:e4:f5:59:05:e0:b8:a9:
         f2:ed:79:f9:02:22:40:9b:54:5c:00:35:27:ea:d8:68:f1:99:
         5c:77:31:12
-----BEGIN CERTIFICATE-----
MIIDeDCCAmCgAwIBAgIRAOd1cIbeKjt6qQno1np/quowDQYJKoZIhvcNAQELBQAw
FjEUMBIGA1UEAwwLdGVhbTYyMC1uZXQwHhcNMjIwNTE4MjI0OTQ5WhcNMjUwNTAy
MjI0OTQ5WjAZMRcwFQYDVQQDDA50ZWFtNjIwLXNlcnZlcjCCASIwDQYJKoZIhvcN
AQEBBQADggEPADCCAQoCggEBALnhu9x7nQdAm5YJfl4qWYMGFCx5pq6qgJ5MW9bY
LZbTkAZvBUGt3qkGMMrsujPjpwVv1Q5nA1fmGYEmOfq2UtSxG7493aCRf6t4S+XS
DrVifAhJJoJSlY2yzpGkd+NQ2OnJ9TZXKvUJrTLKueZ3WaV5UOPA808pe7kOLCnq
uTNMrtCM7pzbMz1MupnHIZa3bCOnzqQS3lLC2JaApS9ZSL8RRm1KsK4kdinWphwJ
gEWSiM//c29qqvVIl1KAulC5rdXtWI0MEg6nYDSV4CYMSg6eP5gzU3BluKQxUYau
mbiTBdgA5FYi8Ej2HAhUyI289IQB1PMrnVLg/oSv02H+F38CAwEAAaOBvTCBujAJ
BgNVHRMEAjAAMB0GA1UdDgQWBBSU3UGbnhBx+9OXrHlPM8d56DzKOjBRBgNVHSME
SjBIgBTKoXnq53sPpO7tsEw2zM6UtElT3KEapBgwFjEUMBIGA1UEAwwLdGVhbTYy
MC1uZXSCFG/KLWLMHXqpDMvKMyavhf9h+T4zMBMGA1UdJQQMMAoGCCsGAQUFBwMB
MAsGA1UdDwQEAwIFoDAZBgNVHREEEjAQgg50ZWFtNjIwLXNlcnZlcjANBgkqhkiG
9w0BAQsFAAOCAQEAnFFBO+CYnnLFQPIS8ZaSCsJvXWHDN1IrzKbn6pRdrGIKSan4
C+1OvXzr6Qs2rsceyfUZsawf7H2FAisE0woqmHPM8mmxvOSBhCeFu1VMcRYmbdjg
L/x0dZdpaakK2aviI/Tnef9O6EsSRPfpTRGVRi1aVpsfZUKusk3CWRcTmzPHeCEp
M6gCezMSP3//vf/Se3QPqLFoNC8OOGrG5KXqOvA9zSiA/Q7XM6Ls5ZHxsYxN1eKO
au9+TfmtWtegBZ9pQe1DwYEXwhWIdJom23cUdb8NBa0VI8dktVqtU267MZakQ43k
9VkF4Lip8u15+QIiQJtUXAA1J+rYaPGZXHcxEg==
-----END CERTIFICATE-----
