Certificate:
    Data:
        Version: 3 (0x2)
        Serial Number:
            87:3b:9d:e5:4a:95:1f:c1:21:38:1b:38:34:69:a0:09
        Signature Algorithm: sha256WithRSAEncryption
        Issuer: CN=team737-net
        Validity
            Not Before: May 18 23:58:18 2022 GMT
            Not After : May  2 23:58:18 2025 GMT
        Subject: CN=team737-client
        Subject Public Key Info:
            Public Key Algorithm: rsaEncryption
                RSA Public-Key: (2048 bit)
                Modulus:
                    00:95:87:60:b8:5f:80:03:ac:69:84:1e:b2:89:12:
                    1b:2e:32:cd:bc:d7:0f:ec:cd:a6:d1:15:47:46:b4:
                    1a:15:1c:84:27:98:58:9e:1a:11:a1:9e:14:ae:1e:
                    e0:c0:e2:2d:46:af:3a:09:4a:08:cd:2c:e2:7c:13:
                    70:31:35:a1:ba:c6:48:63:1f:23:d6:1c:87:db:41:
                    0f:f0:84:23:d7:f5:61:77:0e:09:c8:c8:33:f6:d9:
                    a5:1f:95:11:1d:33:0f:cb:07:e2:da:d4:34:35:dc:
                    b9:38:91:8f:31:fb:f7:cd:57:a0:09:6c:28:f2:89:
                    8c:72:19:6a:0e:59:25:23:02:d4:b8:55:14:ba:45:
                    87:a2:b5:f8:7b:c3:33:31:6b:39:9d:08:51:a4:96:
                    67:7e:73:8b:69:d2:42:e7:18:aa:7d:f9:94:a4:dc:
                    10:97:a4:f8:57:0f:90:07:15:0a:40:53:72:08:4d:
                    ab:29:25:18:11:90:16:96:b6:f4:39:54:a3:4c:a4:
                    1a:53:70:24:e9:3f:b1:f5:6f:c6:a7:25:e3:34:b4:
                    b0:22:92:e2:cc:7e:66:e4:e3:18:f9:b2:7d:1a:d0:
                    7f:a6:da:77:3a:c6:0e:61:b8:fd:1f:94:62:9a:eb:
                    16:5e:cf:f5:84:b7:b8:f4:d4:e2:87:13:09:aa:16:
                    79:4d
                Exponent: 65537 (0x10001)
        X509v3 extensions:
            X509v3 Basic Constraints: 
                CA:FALSE
            X509v3 Subject Key Identifier: 
                8F:34:0C:55:8B:37:2F:FF:13:B3:2D:C2:54:CB:7A:A2:4A:4C:E4:EC
            X509v3 Authority Key Identifier: 
                keyid:B3:10:19:24:C3:6E:63:8F:E3:F3:A2:EB:8B:A9:0B:79:56:5F:5D:E6
                DirName:/CN=team737-net
                serial:15:6A:1E:B2:BD:CE:8B:0B:61:5C:CC:1C:77:05:B5:43:3C:4F:3D:7C

            X509v3 Extended Key Usage: 
                TLS Web Client Authentication
            X509v3 Key Usage: 
                Digital Signature
    Signature Algorithm: sha256WithRSAEncryption
         6e:9c:96:5b:18:ff:51:33:c5:c7:64:15:7e:ee:4c:bc:9a:c6:
         cd:77:98:0f:da:07:ad:f8:9d:46:51:e6:80:d3:9e:c1:d1:53:
         87:54:8a:be:01:6e:db:5e:6f:d8:aa:c0:3d:1f:6d:8e:d5:04:
         09:0e:f3:33:cf:dd:40:b5:84:46:17:39:9c:f7:4f:94:c1:77:
         cc:2d:66:2c:2a:eb:2b:c3:9d:ec:bb:de:8b:03:ed:a6:9c:36:
         5d:2f:74:d5:76:45:3b:10:9c:f2:87:f1:6a:c9:5a:eb:36:3d:
         67:f8:09:5a:c5:52:7a:14:f7:1a:54:b9:f5:27:90:82:09:77:
         f6:de:75:8d:cd:f4:b0:a3:92:d3:10:4e:db:7c:52:4d:65:42:
         ba:de:10:7a:44:fd:e3:61:1a:40:0c:b8:3b:08:94:25:ac:e2:
         ee:70:4c:a1:20:08:9d:dc:2c:d6:31:58:60:0d:8f:0e:e7:af:
         cf:fe:86:86:42:8e:5d:95:1b:d1:ac:04:f4:62:b9:36:c5:6e:
         2d:4c:cf:71:20:b9:ac:d1:13:b7:83:84:eb:1a:27:18:7e:10:
         06:1c:ec:d4:07:ba:92:5c:64:8c:0c:03:ca:2c:f8:8e:b0:da:
         56:ea:13:5d:d5:e8:b1:91:7f:87:6a:da:cf:5e:91:9c:ab:38:
         1f:53:01:30
-----BEGIN CERTIFICATE-----
MIIDXTCCAkWgAwIBAgIRAIc7neVKlR/BITgbODRpoAkwDQYJKoZIhvcNAQELBQAw
FjEUMBIGA1UEAwwLdGVhbTczNy1uZXQwHhcNMjIwNTE4MjM1ODE4WhcNMjUwNTAy
MjM1ODE4WjAZMRcwFQYDVQQDDA50ZWFtNzM3LWNsaWVudDCCASIwDQYJKoZIhvcN
AQEBBQADggEPADCCAQoCggEBAJWHYLhfgAOsaYQesokSGy4yzbzXD+zNptEVR0a0
GhUchCeYWJ4aEaGeFK4e4MDiLUavOglKCM0s4nwTcDE1obrGSGMfI9Ych9tBD/CE
I9f1YXcOCcjIM/bZpR+VER0zD8sH4trUNDXcuTiRjzH7981XoAlsKPKJjHIZag5Z
JSMC1LhVFLpFh6K1+HvDMzFrOZ0IUaSWZ35zi2nSQucYqn35lKTcEJek+FcPkAcV
CkBTcghNqyklGBGQFpa29DlUo0ykGlNwJOk/sfVvxqcl4zS0sCKS4sx+ZuTjGPmy
fRrQf6badzrGDmG4/R+UYprrFl7P9YS3uPTU4ocTCaoWeU0CAwEAAaOBojCBnzAJ
BgNVHRMEAjAAMB0GA1UdDgQWBBSPNAxVizcv/xOzLcJUy3qiSkzk7DBRBgNVHSME
SjBIgBSzEBkkw25jj+PzouuLqQt5Vl9d5qEapBgwFjEUMBIGA1UEAwwLdGVhbTcz
Ny1uZXSCFBVqHrK9zosLYVzMHHcFtUM8Tz18MBMGA1UdJQQMMAoGCCsGAQUFBwMC
MAsGA1UdDwQEAwIHgDANBgkqhkiG9w0BAQsFAAOCAQEAbpyWWxj/UTPFx2QVfu5M
vJrGzXeYD9oHrfidRlHmgNOewdFTh1SKvgFu215v2KrAPR9tjtUECQ7zM8/dQLWE
Rhc5nPdPlMF3zC1mLCrrK8Od7LveiwPtppw2XS901XZFOxCc8ofxasla6zY9Z/gJ
WsVSehT3GlS59SeQggl39t51jc30sKOS0xBO23xSTWVCut4QekT942EaQAy4OwiU
Jazi7nBMoSAIndws1jFYYA2PDuevz/6GhkKOXZUb0awE9GK5NsVuLUzPcSC5rNET
t4OE6xonGH4QBhzs1Ae6klxkjAwDyiz4jrDaVuoTXdXosZF/h2raz16RnKs4H1MB
MA==
-----END CERTIFICATE-----
