Certificate:
    Data:
        Version: 3 (0x2)
        Serial Number:
            7f:ba:70:ce:36:ac:ba:38:63:4b:9b:e7:48:0a:43:56
        Signature Algorithm: sha256WithRSAEncryption
        Issuer: CN=team709-net
        Validity
            Not Before: May 18 23:48:37 2022 GMT
            Not After : May  2 23:48:37 2025 GMT
        Subject: CN=team709-client
        Subject Public Key Info:
            Public Key Algorithm: rsaEncryption
                RSA Public-Key: (2048 bit)
                Modulus:
                    00:da:ee:d5:20:be:4b:38:a2:33:2b:1a:9f:f8:b8:
                    34:b6:4c:c0:fb:21:a0:a3:ff:96:7c:e3:f8:18:e9:
                    84:e3:d7:e0:59:14:56:0e:1f:97:3e:33:3a:56:ae:
                    35:50:8c:8b:dc:76:ae:8c:2d:80:71:ae:c8:7b:54:
                    84:67:4c:c9:20:6b:97:65:2a:f8:97:21:e4:65:fd:
                    85:11:f1:76:40:29:58:81:78:99:e6:e4:d0:cd:04:
                    42:ba:c2:58:1b:95:b6:46:0b:35:d2:85:44:f5:ed:
                    d2:b2:a0:43:6e:93:33:34:f3:09:b2:c7:05:09:60:
                    63:50:ad:93:08:72:cd:9d:c8:62:01:65:ce:63:53:
                    8d:b1:cf:a7:63:36:bf:98:57:b2:0f:2f:86:27:42:
                    ab:c4:ab:ad:04:25:74:3e:0c:92:d3:87:ff:13:31:
                    64:85:4c:62:de:51:08:1b:85:a5:a9:35:f6:ed:e7:
                    c7:ff:e2:38:da:99:c0:5d:0f:88:3b:d1:da:04:6c:
                    11:f1:de:84:22:68:20:c5:61:b2:86:00:d0:33:2e:
                    1b:2c:70:f3:d0:78:64:23:56:08:c5:cc:e2:b1:7d:
                    e5:77:87:0c:a6:f9:5d:6e:b5:09:74:7f:b5:38:98:
                    18:74:35:36:a9:8d:1b:21:28:e7:16:54:3d:e1:ff:
                    53:6d
                Exponent: 65537 (0x10001)
        X509v3 extensions:
            X509v3 Basic Constraints: 
                CA:FALSE
            X509v3 Subject Key Identifier: 
                BE:57:4E:86:4E:31:0E:11:AF:E6:4E:39:8C:F4:97:55:4C:66:A1:8D
            X509v3 Authority Key Identifier: 
                keyid:D0:94:E5:35:EE:9E:69:31:9B:0E:29:A3:51:D2:40:B3:86:A6:EF:8B
                DirName:/CN=team709-net
                serial:2D:4F:EE:88:5E:4B:3B:FD:FE:F9:50:CE:95:CA:77:2E:C4:F2:66:27

            X509v3 Extended Key Usage: 
                TLS Web Client Authentication
            X509v3 Key Usage: 
                Digital Signature
    Signature Algorithm: sha256WithRSAEncryption
         ba:55:f8:1c:a6:3e:4f:bf:80:c6:32:a5:5f:e1:4a:2b:ee:6a:
         37:c4:9e:91:3a:71:fa:8c:22:2b:d6:59:6d:20:7d:30:ba:ab:
         ec:0f:05:ef:ed:fe:78:55:eb:68:e9:31:63:11:f7:f7:d4:f7:
         5b:15:39:da:45:6e:71:5c:27:24:ec:02:5b:9a:48:71:fb:9e:
         1c:ca:0c:35:f4:60:a4:56:62:aa:87:7a:96:d2:9b:f0:33:81:
         eb:dd:85:7f:0f:aa:5c:14:43:7c:ef:fe:4f:99:0a:fd:dd:84:
         b9:a1:c0:23:96:87:70:33:a4:40:0a:90:49:5e:91:68:60:cd:
         41:c4:33:72:f0:84:14:62:c8:2c:05:5e:05:fe:69:d3:ac:a7:
         0f:02:3c:32:26:d5:d7:7b:fe:a4:65:93:54:e4:d2:0f:b3:74:
         41:b2:16:40:e4:1a:29:72:e1:58:a0:79:fc:3b:5c:cf:48:4b:
         bc:a1:6a:fe:18:bd:95:95:2e:d7:5c:42:a2:71:17:ef:6a:6c:
         de:16:71:9a:05:bd:fb:c1:b9:aa:90:76:f1:5c:07:95:15:66:
         03:cc:ca:e7:9b:94:f0:eb:6d:74:32:1d:bf:87:ff:88:c4:bf:
         a5:a3:9d:f4:f5:28:70:e7:39:c6:3c:df:ec:24:e5:f0:c3:9d:
         8b:56:fa:86
-----BEGIN CERTIFICATE-----
MIIDXDCCAkSgAwIBAgIQf7pwzjasujhjS5vnSApDVjANBgkqhkiG9w0BAQsFADAW
MRQwEgYDVQQDDAt0ZWFtNzA5LW5ldDAeFw0yMjA1MTgyMzQ4MzdaFw0yNTA1MDIy
MzQ4MzdaMBkxFzAVBgNVBAMMDnRlYW03MDktY2xpZW50MIIBIjANBgkqhkiG9w0B
AQEFAAOCAQ8AMIIBCgKCAQEA2u7VIL5LOKIzKxqf+Lg0tkzA+yGgo/+WfOP4GOmE
49fgWRRWDh+XPjM6Vq41UIyL3HaujC2Aca7Ie1SEZ0zJIGuXZSr4lyHkZf2FEfF2
QClYgXiZ5uTQzQRCusJYG5W2Rgs10oVE9e3SsqBDbpMzNPMJsscFCWBjUK2TCHLN
nchiAWXOY1ONsc+nYza/mFeyDy+GJ0KrxKutBCV0PgyS04f/EzFkhUxi3lEIG4Wl
qTX27efH/+I42pnAXQ+IO9HaBGwR8d6EImggxWGyhgDQMy4bLHDz0HhkI1YIxczi
sX3ld4cMpvldbrUJdH+1OJgYdDU2qY0bISjnFlQ94f9TbQIDAQABo4GiMIGfMAkG
A1UdEwQCMAAwHQYDVR0OBBYEFL5XToZOMQ4Rr+ZOOYz0l1VMZqGNMFEGA1UdIwRK
MEiAFNCU5TXunmkxmw4po1HSQLOGpu+LoRqkGDAWMRQwEgYDVQQDDAt0ZWFtNzA5
LW5ldIIULU/uiF5LO/3++VDOlcp3LsTyZicwEwYDVR0lBAwwCgYIKwYBBQUHAwIw
CwYDVR0PBAQDAgeAMA0GCSqGSIb3DQEBCwUAA4IBAQC6Vfgcpj5Pv4DGMqVf4Uor
7mo3xJ6ROnH6jCIr1lltIH0wuqvsDwXv7f54Veto6TFjEff31PdbFTnaRW5xXCck
7AJbmkhx+54cygw19GCkVmKqh3qW0pvwM4Hr3YV/D6pcFEN87/5PmQr93YS5ocAj
lodwM6RACpBJXpFoYM1BxDNy8IQUYsgsBV4F/mnTrKcPAjwyJtXXe/6kZZNU5NIP
s3RBshZA5BopcuFYoHn8O1zPSEu8oWr+GL2VlS7XXEKicRfvamzeFnGaBb37wbmq
kHbxXAeVFWYDzMrnm5Tw6210Mh2/h/+IxL+lo5309Shw5znGPN/sJOXww52LVvqG
-----END CERTIFICATE-----
