Certificate:
    Data:
        Version: 3 (0x2)
        Serial Number:
            8a:56:3b:c8:4c:8e:32:e4:b2:8c:f6:5e:0d:10:13:a6
        Signature Algorithm: sha256WithRSAEncryption
        Issuer: CN=team766-net
        Validity
            Not Before: May 19 00:14:56 2022 GMT
            Not After : May  3 00:14:56 2025 GMT
        Subject: CN=team766-server
        Subject Public Key Info:
            Public Key Algorithm: rsaEncryption
                RSA Public-Key: (2048 bit)
                Modulus:
                    00:ec:61:ee:81:ca:fb:1c:3a:89:6e:75:1f:3b:f1:
                    5d:14:71:9c:01:cb:9c:d5:36:33:bf:c8:5e:ce:76:
                    a5:f6:59:57:17:1d:11:a0:c0:a8:6a:8f:41:16:01:
                    a7:34:3e:b6:e8:bf:34:6c:58:14:dd:6c:34:28:60:
                    3a:d5:bb:fc:93:14:ff:ca:9f:81:f0:f7:34:b6:30:
                    2a:54:cc:4f:c3:e7:0c:9f:3f:80:c7:53:a7:5b:42:
                    e8:73:c7:bd:a7:5a:e3:8b:75:65:4f:96:e1:d7:6c:
                    c5:96:be:df:4c:34:cb:6a:00:a3:3a:e7:14:20:fc:
                    fc:20:a0:05:d3:3b:f3:5f:fa:b9:28:38:ef:70:68:
                    09:cf:84:e5:53:d0:d8:73:da:0a:c0:eb:3f:0b:80:
                    80:26:3e:1d:97:35:b5:46:fc:75:2c:79:fa:c5:e1:
                    62:78:b0:e7:4d:1c:08:56:fb:13:d5:e8:cf:3f:19:
                    fb:a3:1e:b1:f1:b3:72:d5:33:2c:a9:0d:3f:84:32:
                    7b:36:e6:1c:80:7d:e6:0d:dd:78:5d:d7:b9:0b:f5:
                    ba:dd:54:8a:aa:64:4d:a7:58:58:a6:33:61:cd:bb:
                    bd:a7:26:67:af:d5:63:05:2d:db:b5:e1:06:a9:f7:
                    e7:f2:56:64:08:b8:23:34:2c:df:d1:aa:fa:44:25:
                    cb:9f
                Exponent: 65537 (0x10001)
        X509v3 extensions:
            X509v3 Basic Constraints: 
                CA:FALSE
            X509v3 Subject Key Identifier: 
                7A:D0:39:59:52:A4:95:39:CC:F9:88:52:93:BA:39:F6:91:98:9C:52
            X509v3 Authority Key Identifier: 
                keyid:AE:44:CA:16:AE:68:A9:47:4B:5F:EC:0E:26:65:05:DB:DC:E4:63:44
                DirName:/CN=team766-net
                serial:07:7F:78:D1:4E:AE:B6:63:A7:01:5C:99:D7:6B:A7:B6:E5:AA:4C:6C

            X509v3 Extended Key Usage: 
                TLS Web Server Authentication
            X509v3 Key Usage: 
                Digital Signature, Key Encipherment
            X509v3 Subject Alternative Name: 
                DNS:team766-server
    Signature Algorithm: sha256WithRSAEncryption
         9c:0e:cc:2e:8b:a4:44:cc:fc:60:79:81:2b:2b:57:19:6e:b6:
         d9:26:9f:f6:dd:23:9c:7c:a8:80:cf:b9:20:0d:13:1a:4d:63:
         d4:01:64:17:97:e6:50:c9:9c:81:5f:7c:41:a3:b4:26:5b:d1:
         2a:b2:6f:66:80:3d:ff:45:40:9c:52:62:aa:73:48:15:0d:66:
         8b:14:b1:47:5b:7a:ec:1e:7f:4c:3e:d7:79:95:4b:b2:c8:6a:
         48:a2:f3:61:8a:64:e0:e2:b9:d6:99:96:77:6f:09:4e:d4:01:
         3b:a5:7b:9c:af:f6:f8:4d:68:f1:c1:dc:60:19:24:9d:b3:83:
         0d:cf:8a:ea:3b:f9:42:b2:82:c8:c9:b1:bd:18:fc:f1:53:23:
         9e:e7:bc:ad:f8:14:43:cd:fe:5e:5e:9d:d8:ec:51:80:10:d7:
         99:3a:f3:16:ee:6d:b1:d0:3d:f3:01:48:48:db:72:72:9d:e2:
         a4:05:d5:0e:75:48:ba:75:8d:3e:96:59:11:e0:f4:c3:06:21:
         25:6e:32:de:4e:4b:9f:50:7d:fb:85:f2:c9:e5:e1:81:15:8f:
         78:69:cf:02:ca:d7:23:8a:0b:4e:9c:59:f4:56:0d:69:50:43:
         ea:fc:27:a7:06:c6:c1:20:e2:73:20:8b:57:c8:2b:66:a0:90:
         8f:a5:18:8a
-----BEGIN CERTIFICATE-----
MIIDeDCCAmCgAwIBAgIRAIpWO8hMjjLksoz2Xg0QE6YwDQYJKoZIhvcNAQELBQAw
FjEUMBIGA1UEAwwLdGVhbTc2Ni1uZXQwHhcNMjIwNTE5MDAxNDU2WhcNMjUwNTAz
MDAxNDU2WjAZMRcwFQYDVQQDDA50ZWFtNzY2LXNlcnZlcjCCASIwDQYJKoZIhvcN
AQEBBQADggEPADCCAQoCggEBAOxh7oHK+xw6iW51HzvxXRRxnAHLnNU2M7/IXs52
pfZZVxcdEaDAqGqPQRYBpzQ+tui/NGxYFN1sNChgOtW7/JMU/8qfgfD3NLYwKlTM
T8PnDJ8/gMdTp1tC6HPHvada44t1ZU+W4ddsxZa+30w0y2oAozrnFCD8/CCgBdM7
81/6uSg473BoCc+E5VPQ2HPaCsDrPwuAgCY+HZc1tUb8dSx5+sXhYniw500cCFb7
E9Xozz8Z+6MesfGzctUzLKkNP4QyezbmHIB95g3deF3XuQv1ut1UiqpkTadYWKYz
Yc27vacmZ6/VYwUt27XhBqn35/JWZAi4IzQs39Gq+kQly58CAwEAAaOBvTCBujAJ
BgNVHRMEAjAAMB0GA1UdDgQWBBR60DlZUqSVOcz5iFKTujn2kZicUjBRBgNVHSME
SjBIgBSuRMoWrmipR0tf7A4mZQXb3ORjRKEapBgwFjEUMBIGA1UEAwwLdGVhbTc2
Ni1uZXSCFAd/eNFOrrZjpwFcmddrp7blqkxsMBMGA1UdJQQMMAoGCCsGAQUFBwMB
MAsGA1UdDwQEAwIFoDAZBgNVHREEEjAQgg50ZWFtNzY2LXNlcnZlcjANBgkqhkiG
9w0BAQsFAAOCAQEAnA7MLoukRMz8YHmBKytXGW622Saf9t0jnHyogM+5IA0TGk1j
1AFkF5fmUMmcgV98QaO0JlvRKrJvZoA9/0VAnFJiqnNIFQ1mixSxR1t67B5/TD7X
eZVLsshqSKLzYYpk4OK51pmWd28JTtQBO6V7nK/2+E1o8cHcYBkknbODDc+K6jv5
QrKCyMmxvRj88VMjnue8rfgUQ83+Xl6d2OxRgBDXmTrzFu5tsdA98wFISNtycp3i
pAXVDnVIunWNPpZZEeD0wwYhJW4y3k5Ln1B9+4XyyeXhgRWPeGnPAsrXI4oLTpxZ
9FYNaVBD6vwnpwbGwSDicyCLV8grZqCQj6UYig==
-----END CERTIFICATE-----
