Certificate:
    Data:
        Version: 3 (0x2)
        Serial Number:
            e9:c1:20:e2:13:4d:df:73:c4:cb:ec:0b:fb:e3:f0:74
        Signature Algorithm: sha256WithRSAEncryption
        Issuer: CN=team608-net
        Validity
            Not Before: May 18 22:57:55 2022 GMT
            Not After : May  2 22:57:55 2025 GMT
        Subject: CN=team608-client
        Subject Public Key Info:
            Public Key Algorithm: rsaEncryption
                RSA Public-Key: (2048 bit)
                Modulus:
                    00:ef:ec:da:ca:00:5f:82:b8:98:a5:53:3b:b1:75:
                    73:32:7b:e9:49:4a:78:36:09:25:06:58:3a:13:04:
                    3a:0d:c8:4e:13:55:e8:22:0d:69:bf:e1:91:12:29:
                    e3:25:f0:8b:0f:c6:ee:b5:ec:b2:75:79:81:2b:bb:
                    7b:56:b7:1a:4a:3f:23:10:34:f7:9c:4b:45:1c:7f:
                    ae:4a:dc:33:bd:d1:13:a1:a7:6e:95:15:51:f3:16:
                    40:70:18:90:67:9d:12:cd:0c:14:1a:40:06:c3:25:
                    32:79:1e:ae:b3:f3:64:26:81:13:9d:2e:db:5d:2d:
                    f2:83:1c:86:dc:82:39:f7:cc:66:78:16:a0:89:36:
                    be:c9:e2:a9:a8:81:34:92:c6:df:25:4e:4c:41:ad:
                    6f:48:b3:35:93:80:95:0d:f3:87:12:5b:38:94:4a:
                    2e:8f:56:53:91:0e:16:62:fd:a5:4b:86:3f:a0:56:
                    50:8c:fc:f6:84:5a:85:b2:f9:b7:e0:78:9c:f9:24:
                    f6:74:c0:e8:77:d4:b3:1c:4b:45:69:6b:5c:78:1e:
                    90:88:11:db:31:49:76:46:d5:b8:c0:16:d6:a4:32:
                    46:c2:50:06:ff:0c:5f:5b:79:e7:a3:44:78:12:c2:
                    73:9b:1f:a9:55:eb:c0:9f:e7:91:ec:f9:b6:51:ee:
                    01:e3
                Exponent: 65537 (0x10001)
        X509v3 extensions:
            X509v3 Basic Constraints: 
                CA:FALSE
            X509v3 Subject Key Identifier: 
                67:20:E5:A5:03:58:6F:74:84:9A:CB:72:EE:35:A6:16:B8:DF:48:C8
            X509v3 Authority Key Identifier: 
                keyid:3A:D7:B9:54:55:94:F2:65:FF:F5:11:75:FE:4C:AB:5B:BE:40:7B:FE
                DirName:/CN=team608-net
                serial:1D:46:FD:6A:5B:32:E1:83:5D:3A:5C:01:6F:81:F8:B6:DA:2B:A2:71

            X509v3 Extended Key Usage: 
                TLS Web Client Authentication
            X509v3 Key Usage: 
                Digital Signature
    Signature Algorithm: sha256WithRSAEncryption
         51:7b:98:87:be:13:ee:19:ab:a8:75:c2:51:e0:3a:63:10:04:
         43:80:ac:b9:4a:47:08:75:fd:41:49:45:7f:0f:62:0e:47:1a:
         08:a9:9e:ca:6f:64:9d:7f:b4:fc:04:a0:f1:55:80:ee:6c:81:
         19:34:7c:71:55:b8:9a:51:ea:82:7e:1a:be:1b:f9:5e:3a:38:
         0d:52:35:07:d7:7c:73:40:20:ba:b6:0c:f1:51:46:4f:ab:ec:
         b1:00:a4:b9:eb:a0:74:15:88:57:73:0a:cb:fb:2f:3a:cc:d8:
         9a:4a:54:66:81:c4:82:bd:01:4e:15:41:29:a3:76:6d:cb:e3:
         ce:c3:b7:d6:42:78:65:e4:47:a2:5d:3a:df:81:45:64:d8:34:
         89:1d:94:f1:13:10:9b:44:f2:1d:5b:07:44:91:0a:4b:8b:9e:
         9a:4a:c6:c5:7f:5a:ec:9f:0e:32:8c:87:72:ef:f6:3b:2a:6f:
         e3:c7:b9:d2:ff:60:4b:8a:5d:f6:16:7f:0d:00:99:47:e4:6f:
         ed:81:c5:0f:03:c4:9e:ab:8b:3d:aa:19:14:e7:36:b8:e1:71:
         0f:1a:8d:6a:23:8b:ac:8e:6b:24:8f:38:cb:53:0d:40:ea:e1:
         98:57:c1:b3:92:4a:23:a3:a8:5e:38:2f:24:a0:54:3d:05:66:
         3d:b2:cd:6c
-----BEGIN CERTIFICATE-----
MIIDXTCCAkWgAwIBAgIRAOnBIOITTd9zxMvsC/vj8HQwDQYJKoZIhvcNAQELBQAw
FjEUMBIGA1UEAwwLdGVhbTYwOC1uZXQwHhcNMjIwNTE4MjI1NzU1WhcNMjUwNTAy
MjI1NzU1WjAZMRcwFQYDVQQDDA50ZWFtNjA4LWNsaWVudDCCASIwDQYJKoZIhvcN
AQEBBQADggEPADCCAQoCggEBAO/s2soAX4K4mKVTO7F1czJ76UlKeDYJJQZYOhME
Og3IThNV6CINab/hkRIp4yXwiw/G7rXssnV5gSu7e1a3Gko/IxA095xLRRx/rkrc
M73RE6GnbpUVUfMWQHAYkGedEs0MFBpABsMlMnkerrPzZCaBE50u210t8oMchtyC
OffMZngWoIk2vsniqaiBNJLG3yVOTEGtb0izNZOAlQ3zhxJbOJRKLo9WU5EOFmL9
pUuGP6BWUIz89oRahbL5t+B4nPkk9nTA6HfUsxxLRWlrXHgekIgR2zFJdkbVuMAW
1qQyRsJQBv8MX1t556NEeBLCc5sfqVXrwJ/nkez5tlHuAeMCAwEAAaOBojCBnzAJ
BgNVHRMEAjAAMB0GA1UdDgQWBBRnIOWlA1hvdISay3LuNaYWuN9IyDBRBgNVHSME
SjBIgBQ617lUVZTyZf/1EXX+TKtbvkB7/qEapBgwFjEUMBIGA1UEAwwLdGVhbTYw
OC1uZXSCFB1G/WpbMuGDXTpcAW+B+LbaK6JxMBMGA1UdJQQMMAoGCCsGAQUFBwMC
MAsGA1UdDwQEAwIHgDANBgkqhkiG9w0BAQsFAAOCAQEAUXuYh74T7hmrqHXCUeA6
YxAEQ4CsuUpHCHX9QUlFfw9iDkcaCKmeym9knX+0/ASg8VWA7myBGTR8cVW4mlHq
gn4avhv5Xjo4DVI1B9d8c0AgurYM8VFGT6vssQCkueugdBWIV3MKy/svOszYmkpU
ZoHEgr0BThVBKaN2bcvjzsO31kJ4ZeRHol0634FFZNg0iR2U8RMQm0TyHVsHRJEK
S4uemkrGxX9a7J8OMoyHcu/2Oypv48e50v9gS4pd9hZ/DQCZR+Rv7YHFDwPEnquL
PaoZFOc2uOFxDxqNaiOLrI5rJI84y1MNQOrhmFfBs5JKI6OoXjgvJKBUPQVmPbLN
bA==
-----END CERTIFICATE-----
