Certificate:
    Data:
        Version: 3 (0x2)
        Serial Number:
            aa:4d:55:fe:2c:bc:09:03:10:84:0b:65:df:43:b0:0a
        Signature Algorithm: sha256WithRSAEncryption
        Issuer: CN=team301-net
        Validity
            Not Before: May 18 19:59:40 2022 GMT
            Not After : May  2 19:59:40 2025 GMT
        Subject: CN=team301-client
        Subject Public Key Info:
            Public Key Algorithm: rsaEncryption
                RSA Public-Key: (2048 bit)
                Modulus:
                    00:c6:b0:b5:e6:d9:6a:a7:38:32:b3:ca:9f:57:57:
                    75:26:bf:33:ad:46:a8:3e:02:40:73:55:c1:aa:58:
                    2c:f8:60:d8:86:1e:47:9f:98:fe:4a:0e:4b:4d:ed:
                    6d:48:9c:bc:f2:89:e1:17:ba:45:46:c0:08:a1:e1:
                    c3:57:ec:a2:79:5e:e7:fe:23:d9:7f:c9:f3:ab:f0:
                    6b:44:40:0d:8f:93:59:15:28:ca:ce:29:4c:fd:20:
                    96:88:b4:1b:cd:f1:ea:10:57:bc:0f:46:a9:5b:e9:
                    f4:9d:1c:09:33:b4:5b:92:1f:20:fb:37:3b:86:9f:
                    19:24:5a:fe:29:2d:26:cf:c4:1d:54:db:d1:7d:79:
                    ea:d1:5b:54:bd:f1:61:e7:64:fd:ff:ca:09:f3:d9:
                    32:95:22:20:1d:bd:b7:d6:93:d6:f7:c5:7e:db:46:
                    7d:3e:29:3b:6c:cf:54:df:3f:21:74:ec:b7:b7:36:
                    dc:9f:1d:38:9c:2c:a0:50:e1:8d:c7:d8:d1:c9:1f:
                    48:0d:be:6e:b5:e2:07:a2:25:53:0e:1b:29:b8:a9:
                    ee:39:42:59:e7:22:50:7f:e3:78:2c:db:05:b0:f6:
                    a5:60:2d:be:7c:74:77:55:5d:6d:72:f9:b7:47:d4:
                    a8:c7:e9:d2:39:57:c8:43:43:e7:71:92:dc:be:60:
                    8b:55
                Exponent: 65537 (0x10001)
        X509v3 extensions:
            X509v3 Basic Constraints: 
                CA:FALSE
            X509v3 Subject Key Identifier: 
                FC:BA:73:6D:59:86:31:46:43:98:7D:B3:4D:E1:34:79:70:FE:FC:3E
            X509v3 Authority Key Identifier: 
                keyid:2B:26:A0:90:1B:3F:C8:D2:FA:4F:0D:1E:89:17:A4:17:D5:67:F6:DD
                DirName:/CN=team301-net
                serial:32:C2:EE:EA:72:84:86:D5:29:AE:27:13:59:1C:8F:E5:DF:CB:ED:30

            X509v3 Extended Key Usage: 
                TLS Web Client Authentication
            X509v3 Key Usage: 
                Digital Signature
    Signature Algorithm: sha256WithRSAEncryption
         9b:3f:1c:37:5e:7a:06:02:34:59:10:03:ea:89:d1:aa:24:81:
         00:1d:48:4d:6b:e8:b0:80:ad:67:8b:ec:aa:aa:c6:25:5c:fb:
         0a:79:f1:d4:80:64:ab:88:f8:8b:11:0f:e6:fd:7e:f9:62:62:
         75:19:cc:29:05:b0:8f:01:f7:c7:8c:ec:c8:86:39:0c:81:c5:
         30:ab:0b:45:d0:2f:64:12:d7:c2:f8:3b:a5:fd:65:e8:d3:00:
         ab:8d:95:09:0b:22:22:73:0a:a7:0b:83:8c:9a:ef:2c:85:bd:
         a3:a0:41:50:dc:21:34:a3:96:d8:4f:ae:3e:09:af:d4:01:0a:
         ed:21:76:3b:4b:fb:21:c5:c7:d0:5c:c2:a4:a0:c7:1e:f1:4b:
         66:81:21:30:bd:6c:7e:fd:31:2a:b2:d1:59:4d:6a:d1:78:77:
         52:77:11:f2:e1:5f:84:f9:9e:80:dd:de:a8:cf:5e:34:81:35:
         53:aa:ef:ed:4e:8d:f7:1f:20:fb:0b:b5:67:23:b9:47:ad:93:
         f5:34:c2:18:20:2a:c9:91:5f:ba:b9:f6:ac:e1:c8:b3:91:c3:
         d9:8e:d8:70:79:36:71:c2:cd:cf:96:8f:91:60:d0:70:c2:c2:
         38:b9:c9:ca:c1:c4:12:bc:3a:ca:0a:1d:41:73:b5:da:41:4f:
         53:ef:1e:ef
-----BEGIN CERTIFICATE-----
MIIDXTCCAkWgAwIBAgIRAKpNVf4svAkDEIQLZd9DsAowDQYJKoZIhvcNAQELBQAw
FjEUMBIGA1UEAwwLdGVhbTMwMS1uZXQwHhcNMjIwNTE4MTk1OTQwWhcNMjUwNTAy
MTk1OTQwWjAZMRcwFQYDVQQDDA50ZWFtMzAxLWNsaWVudDCCASIwDQYJKoZIhvcN
AQEBBQADggEPADCCAQoCggEBAMawtebZaqc4MrPKn1dXdSa/M61GqD4CQHNVwapY
LPhg2IYeR5+Y/koOS03tbUicvPKJ4Re6RUbACKHhw1fsonle5/4j2X/J86vwa0RA
DY+TWRUoys4pTP0gloi0G83x6hBXvA9GqVvp9J0cCTO0W5IfIPs3O4afGSRa/ikt
Js/EHVTb0X156tFbVL3xYedk/f/KCfPZMpUiIB29t9aT1vfFfttGfT4pO2zPVN8/
IXTst7c23J8dOJwsoFDhjcfY0ckfSA2+brXiB6IlUw4bKbip7jlCWeciUH/jeCzb
BbD2pWAtvnx0d1VdbXL5t0fUqMfp0jlXyEND53GS3L5gi1UCAwEAAaOBojCBnzAJ
BgNVHRMEAjAAMB0GA1UdDgQWBBT8unNtWYYxRkOYfbNN4TR5cP78PjBRBgNVHSME
SjBIgBQrJqCQGz/I0vpPDR6JF6QX1Wf23aEapBgwFjEUMBIGA1UEAwwLdGVhbTMw
MS1uZXSCFDLC7upyhIbVKa4nE1kcj+Xfy+0wMBMGA1UdJQQMMAoGCCsGAQUFBwMC
MAsGA1UdDwQEAwIHgDANBgkqhkiG9w0BAQsFAAOCAQEAmz8cN156BgI0WRAD6onR
qiSBAB1ITWvosICtZ4vsqqrGJVz7Cnnx1IBkq4j4ixEP5v1++WJidRnMKQWwjwH3
x4zsyIY5DIHFMKsLRdAvZBLXwvg7pf1l6NMAq42VCQsiInMKpwuDjJrvLIW9o6BB
UNwhNKOW2E+uPgmv1AEK7SF2O0v7IcXH0FzCpKDHHvFLZoEhML1sfv0xKrLRWU1q
0Xh3UncR8uFfhPmegN3eqM9eNIE1U6rv7U6N9x8g+wu1ZyO5R62T9TTCGCAqyZFf
urn2rOHIs5HD2Y7YcHk2ccLNz5aPkWDQcMLCOLnJysHEErw6ygodQXO12kFPU+8e
7w==
-----END CERTIFICATE-----
