Certificate:
    Data:
        Version: 3 (0x2)
        Serial Number:
            9a:35:94:98:e6:04:46:81:00:e5:fe:72:d2:5b:0e:db
        Signature Algorithm: sha256WithRSAEncryption
        Issuer: CN=team345-net
        Validity
            Not Before: May 18 20:33:52 2022 GMT
            Not After : May  2 20:33:52 2025 GMT
        Subject: CN=team345-client
        Subject Public Key Info:
            Public Key Algorithm: rsaEncryption
                RSA Public-Key: (2048 bit)
                Modulus:
                    00:cc:da:6d:53:3a:86:fc:c0:ad:37:92:1f:e5:a1:
                    b7:f6:a7:c4:66:7b:6f:f3:f3:3f:af:f0:0e:60:57:
                    37:0a:72:46:52:ac:46:a2:f5:9d:8c:e4:36:2b:5c:
                    51:a9:d3:a5:9b:c7:7e:ba:b7:d9:96:c0:a8:cd:e7:
                    b3:0b:07:fb:44:91:2e:21:8c:32:6a:f4:39:36:8e:
                    46:4e:d2:86:1f:48:e4:b4:32:06:e5:26:67:a5:1c:
                    57:bb:8d:05:fb:08:82:31:5d:bf:38:65:c9:04:17:
                    09:c4:9f:94:f7:72:83:1b:a1:c5:f2:1b:c2:f0:3c:
                    0d:c4:93:8a:b8:f9:da:f1:68:c6:e2:ea:04:80:59:
                    3b:8c:a8:4a:ce:73:4c:3c:e8:79:fa:fe:e5:73:91:
                    73:4f:07:5f:b9:75:66:1c:ba:dc:5e:7e:5d:e8:e5:
                    e0:84:2a:63:16:2e:c5:b0:c6:5c:13:ed:8c:61:6a:
                    40:2f:f6:2b:d0:ca:18:8d:36:bf:58:d1:cb:14:a1:
                    af:20:84:8c:7e:35:96:e9:84:b3:8d:9c:c5:34:cd:
                    27:59:94:b2:52:9f:4e:06:8a:d4:20:22:a5:9b:8d:
                    d4:ba:95:4a:79:3e:65:39:56:40:d4:e6:97:75:d7:
                    c1:4f:32:05:c6:d0:dd:7b:9e:e1:d9:7b:ed:07:a7:
                    12:55
                Exponent: 65537 (0x10001)
        X509v3 extensions:
            X509v3 Basic Constraints: 
                CA:FALSE
            X509v3 Subject Key Identifier: 
                3E:11:84:3A:9A:04:5B:8C:6D:88:E9:E8:66:B3:4D:39:18:7C:70:D8
            X509v3 Authority Key Identifier: 
                keyid:9F:8A:88:C8:5A:8D:53:98:2C:64:E8:6D:A9:83:EB:48:FA:81:5B:52
                DirName:/CN=team345-net
                serial:46:4B:BA:C7:69:0A:CA:EE:CB:F7:42:2C:C2:37:A3:24:DF:21:AD:35

            X509v3 Extended Key Usage: 
                TLS Web Client Authentication
            X509v3 Key Usage: 
                Digital Signature
    Signature Algorithm: sha256WithRSAEncryption
         16:cd:dd:4e:4f:c4:56:5f:70:35:84:22:eb:f5:3f:a7:c0:1b:
         b9:ed:db:61:a5:99:5e:16:97:e6:fa:e7:bd:95:48:24:33:41:
         c2:62:5a:75:d7:d1:6c:9c:57:e6:43:68:9a:fa:8c:f7:f5:50:
         77:ef:1c:62:2f:24:c9:d1:67:62:c8:67:ca:ab:7f:c1:74:01:
         ff:f4:25:ea:0c:11:91:40:87:d3:83:64:4f:bf:6a:3a:88:08:
         ac:a1:f6:ac:db:6d:25:dd:98:ba:61:dc:33:7b:32:bc:7a:7e:
         3f:d2:5f:41:95:bf:8c:54:93:f4:7d:4c:72:a0:bc:60:42:b9:
         a9:c3:e5:1f:6f:19:a9:46:84:18:b4:68:93:dc:3b:54:20:4f:
         61:f0:38:59:48:05:56:d8:f9:89:7c:d9:a5:87:90:a0:b2:f3:
         bb:fe:8a:c3:43:59:8a:03:13:3e:f7:81:74:35:42:01:ae:bb:
         36:f5:d9:69:2b:b8:17:fa:42:d2:38:66:ca:a1:6d:d2:a0:91:
         6f:a7:fb:7d:d1:9d:2b:0f:53:d5:1a:22:06:bc:9d:d2:97:64:
         87:77:b8:5a:09:e1:40:0a:97:47:fc:0b:31:ec:b7:14:02:9d:
         e4:cb:2e:aa:36:7a:ab:5b:3b:1b:bf:de:6e:67:84:1e:7b:5c:
         a3:e4:5a:c5
-----BEGIN CERTIFICATE-----
MIIDXTCCAkWgAwIBAgIRAJo1lJjmBEaBAOX+ctJbDtswDQYJKoZIhvcNAQELBQAw
FjEUMBIGA1UEAwwLdGVhbTM0NS1uZXQwHhcNMjIwNTE4MjAzMzUyWhcNMjUwNTAy
MjAzMzUyWjAZMRcwFQYDVQQDDA50ZWFtMzQ1LWNsaWVudDCCASIwDQYJKoZIhvcN
AQEBBQADggEPADCCAQoCggEBAMzabVM6hvzArTeSH+Wht/anxGZ7b/PzP6/wDmBX
NwpyRlKsRqL1nYzkNitcUanTpZvHfrq32ZbAqM3nswsH+0SRLiGMMmr0OTaORk7S
hh9I5LQyBuUmZ6UcV7uNBfsIgjFdvzhlyQQXCcSflPdygxuhxfIbwvA8DcSTirj5
2vFoxuLqBIBZO4yoSs5zTDzoefr+5XORc08HX7l1Zhy63F5+Xejl4IQqYxYuxbDG
XBPtjGFqQC/2K9DKGI02v1jRyxShryCEjH41lumEs42cxTTNJ1mUslKfTgaK1CAi
pZuN1LqVSnk+ZTlWQNTml3XXwU8yBcbQ3Xue4dl77QenElUCAwEAAaOBojCBnzAJ
BgNVHRMEAjAAMB0GA1UdDgQWBBQ+EYQ6mgRbjG2I6ehms005GHxw2DBRBgNVHSME
SjBIgBSfiojIWo1TmCxk6G2pg+tI+oFbUqEapBgwFjEUMBIGA1UEAwwLdGVhbTM0
NS1uZXSCFEZLusdpCsruy/dCLMI3oyTfIa01MBMGA1UdJQQMMAoGCCsGAQUFBwMC
MAsGA1UdDwQEAwIHgDANBgkqhkiG9w0BAQsFAAOCAQEAFs3dTk/EVl9wNYQi6/U/
p8Abue3bYaWZXhaX5vrnvZVIJDNBwmJaddfRbJxX5kNomvqM9/VQd+8cYi8kydFn
Yshnyqt/wXQB//Ql6gwRkUCH04NkT79qOogIrKH2rNttJd2YumHcM3syvHp+P9Jf
QZW/jFST9H1McqC8YEK5qcPlH28ZqUaEGLRok9w7VCBPYfA4WUgFVtj5iXzZpYeQ
oLLzu/6Kw0NZigMTPveBdDVCAa67NvXZaSu4F/pC0jhmyqFt0qCRb6f7fdGdKw9T
1RoiBryd0pdkh3e4WgnhQAqXR/wLMey3FAKd5MsuqjZ6q1s7G7/ebmeEHntco+Ra
xQ==
-----END CERTIFICATE-----
