Certificate:
    Data:
        Version: 3 (0x2)
        Serial Number:
            7b:f3:43:d8:43:82:70:1f:3d:4f:73:16:ed:6f:12:0e
        Signature Algorithm: sha256WithRSAEncryption
        Issuer: CN=team570-net
        Validity
            Not Before: May 18 22:23:30 2022 GMT
            Not After : May  2 22:23:30 2025 GMT
        Subject: CN=team570-server
        Subject Public Key Info:
            Public Key Algorithm: rsaEncryption
                RSA Public-Key: (2048 bit)
                Modulus:
                    00:cc:20:3a:e8:de:cc:7b:5c:0d:34:bf:af:74:9d:
                    26:cd:75:6b:b5:2a:58:2f:40:6b:77:09:b7:38:71:
                    9a:46:c6:d4:cc:39:e3:fb:28:ed:3f:c1:d7:04:5c:
                    b6:df:9c:45:58:1d:07:36:c5:cf:2f:3b:c5:e8:a3:
                    39:40:e4:2d:5e:3b:df:81:ce:37:cf:9d:8b:b0:60:
                    fc:9d:52:c3:16:31:6d:cb:08:0e:9b:4d:33:56:40:
                    49:d5:83:d8:5b:cc:00:48:4a:97:2f:c6:e0:bc:49:
                    46:3c:4c:a0:06:28:77:e6:ea:e4:ed:37:8e:62:f9:
                    8c:c9:1f:a7:c1:db:81:2d:d8:0d:9d:32:c3:9e:d3:
                    05:6d:13:b4:17:b6:f5:b5:76:94:d9:98:ac:c3:a5:
                    dd:e6:6c:cc:3d:cc:1c:22:a3:ed:8e:d9:72:f2:b3:
                    1d:79:0a:45:27:90:2b:14:31:c7:ca:01:d3:a5:5e:
                    ec:c1:b4:b0:29:94:fe:aa:41:d3:3d:de:fa:7d:d9:
                    87:86:f8:84:05:a2:cd:70:64:66:9e:84:88:27:d4:
                    6c:6b:0d:87:97:62:58:fd:2c:e7:5c:3d:2c:15:1c:
                    44:8a:91:34:d5:b7:10:3a:e5:2f:51:0b:48:23:71:
                    47:2f:78:9b:f3:f8:9f:8d:fb:5a:19:8a:77:aa:87:
                    39:6f
                Exponent: 65537 (0x10001)
        X509v3 extensions:
            X509v3 Basic Constraints: 
                CA:FALSE
            X509v3 Subject Key Identifier: 
                1B:12:B0:65:6B:87:9D:1D:23:CD:D3:97:46:5E:D8:60:21:FF:9C:9C
            X509v3 Authority Key Identifier: 
                keyid:7D:E3:15:FF:AF:61:FD:3A:8B:17:99:E1:9E:17:71:A2:5D:D6:D3:DB
                DirName:/CN=team570-net
                serial:15:10:14:A8:C8:E6:E6:25:4E:DB:63:89:D6:56:10:25:2A:4C:04:B8

            X509v3 Extended Key Usage: 
                TLS Web Server Authentication
            X509v3 Key Usage: 
                Digital Signature, Key Encipherment
            X509v3 Subject Alternative Name: 
                DNS:team570-server
    Signature Algorithm: sha256WithRSAEncryption
         22:5a:e4:bf:46:da:2c:1f:ee:f7:f4:c5:75:01:27:1d:b9:65:
         ad:86:77:6d:9c:fc:02:18:84:25:0d:15:83:54:bc:83:31:f6:
         8c:02:03:b9:63:90:c5:2c:dd:3f:2f:b2:1f:37:00:32:66:32:
         fb:4a:44:ea:65:b9:ba:7d:d9:2e:04:c4:07:e0:b5:92:29:2b:
         03:d7:f2:ba:fb:c2:57:3a:0a:fd:33:a2:8a:02:8d:cb:6a:2e:
         7e:97:b6:9b:f4:33:f0:28:9d:27:30:59:fc:e8:22:51:14:32:
         70:7f:f3:66:3e:02:10:46:25:10:bc:cf:b1:43:82:28:c0:47:
         33:ea:b4:40:b2:5f:94:c0:eb:22:a6:21:5b:c7:f4:ac:26:b7:
         a6:0f:7d:cb:5a:8f:89:8a:94:1e:60:75:84:c6:12:b8:37:6a:
         9b:07:6e:f3:3a:72:21:29:67:5b:0e:2c:b1:d4:a8:1c:a5:25:
         38:39:8a:cb:5d:10:59:cb:13:31:63:ca:e7:91:fa:9d:26:b5:
         e5:0c:fe:e3:22:1b:32:63:03:f6:a2:fd:ec:6f:20:ab:d1:ab:
         08:e1:a2:22:e0:58:93:75:d8:f2:c9:db:21:0f:cc:2d:ed:b6:
         e1:ff:51:75:fb:0b:35:12:ee:f7:74:65:0b:ac:0e:e2:a9:bb:
         90:c2:19:77
-----BEGIN CERTIFICATE-----
MIIDdzCCAl+gAwIBAgIQe/ND2EOCcB89T3MW7W8SDjANBgkqhkiG9w0BAQsFADAW
MRQwEgYDVQQDDAt0ZWFtNTcwLW5ldDAeFw0yMjA1MTgyMjIzMzBaFw0yNTA1MDIy
MjIzMzBaMBkxFzAVBgNVBAMMDnRlYW01NzAtc2VydmVyMIIBIjANBgkqhkiG9w0B
AQEFAAOCAQ8AMIIBCgKCAQEAzCA66N7Me1wNNL+vdJ0mzXVrtSpYL0Brdwm3OHGa
RsbUzDnj+yjtP8HXBFy235xFWB0HNsXPLzvF6KM5QOQtXjvfgc43z52LsGD8nVLD
FjFtywgOm00zVkBJ1YPYW8wASEqXL8bgvElGPEygBih35urk7TeOYvmMyR+nwduB
LdgNnTLDntMFbRO0F7b1tXaU2Zisw6Xd5mzMPcwcIqPtjtly8rMdeQpFJ5ArFDHH
ygHTpV7swbSwKZT+qkHTPd76fdmHhviEBaLNcGRmnoSIJ9Rsaw2Hl2JY/SznXD0s
FRxEipE01bcQOuUvUQtII3FHL3ib8/ifjftaGYp3qoc5bwIDAQABo4G9MIG6MAkG
A1UdEwQCMAAwHQYDVR0OBBYEFBsSsGVrh50dI83Tl0Ze2GAh/5ycMFEGA1UdIwRK
MEiAFH3jFf+vYf06ixeZ4Z4XcaJd1tPboRqkGDAWMRQwEgYDVQQDDAt0ZWFtNTcw
LW5ldIIUFRAUqMjm5iVO22OJ1lYQJSpMBLgwEwYDVR0lBAwwCgYIKwYBBQUHAwEw
CwYDVR0PBAQDAgWgMBkGA1UdEQQSMBCCDnRlYW01NzAtc2VydmVyMA0GCSqGSIb3
DQEBCwUAA4IBAQAiWuS/RtosH+739MV1AScduWWthndtnPwCGIQlDRWDVLyDMfaM
AgO5Y5DFLN0/L7IfNwAyZjL7SkTqZbm6fdkuBMQH4LWSKSsD1/K6+8JXOgr9M6KK
Ao3Lai5+l7ab9DPwKJ0nMFn86CJRFDJwf/NmPgIQRiUQvM+xQ4IowEcz6rRAsl+U
wOsipiFbx/SsJremD33LWo+JipQeYHWExhK4N2qbB27zOnIhKWdbDiyx1KgcpSU4
OYrLXRBZyxMxY8rnkfqdJrXlDP7jIhsyYwP2ov3sbyCr0asI4aIi4FiTddjyydsh
D8wt7bbh/1F1+ws1Eu73dGULrA7iqbuQwhl3
-----END CERTIFICATE-----
