Certificate:
    Data:
        Version: 3 (0x2)
        Serial Number:
            26:3e:9a:73:9c:6c:73:83:3a:34:62:ef:d1:9e:a2:49
        Signature Algorithm: sha256WithRSAEncryption
        Issuer: CN=team390-net
        Validity
            Not Before: May 18 20:56:19 2022 GMT
            Not After : May  2 20:56:19 2025 GMT
        Subject: CN=team390-client
        Subject Public Key Info:
            Public Key Algorithm: rsaEncryption
                RSA Public-Key: (2048 bit)
                Modulus:
                    00:ba:c1:0c:af:77:85:55:8d:38:aa:3d:e2:19:fa:
                    db:fb:62:23:45:e4:6b:8a:96:1a:31:a0:05:2a:7c:
                    cb:85:ee:6f:1d:f4:30:57:16:2b:42:76:80:91:f5:
                    4a:8b:6f:26:f6:6d:2a:cd:ac:50:12:a8:6c:6f:1b:
                    1e:91:4e:eb:f6:f2:90:18:f8:10:bf:5d:a4:8e:ad:
                    b7:4c:fd:05:54:fd:51:ce:73:4d:55:5b:98:c2:80:
                    4c:0d:c6:89:f5:ef:85:62:0b:2d:5e:d7:91:a7:62:
                    fb:d2:09:b2:ca:68:3e:14:02:e2:d1:20:59:9a:1d:
                    87:8b:1e:c3:39:6d:78:74:35:4b:91:0d:8a:0e:f2:
                    fc:8b:bd:38:91:a5:17:2e:88:11:d0:05:36:bf:a7:
                    3a:47:ad:a7:49:10:64:2b:e0:fb:fe:90:72:39:37:
                    24:94:d2:4b:09:3a:40:38:a1:18:1d:99:7d:39:78:
                    d2:00:63:bd:bd:76:f6:39:2f:73:03:c2:d4:1e:2f:
                    d8:cd:bd:20:91:de:8f:90:4b:b8:1d:61:40:50:30:
                    0d:4a:5a:dc:64:fe:fb:a3:74:0b:5f:5f:85:92:f6:
                    f9:28:3f:e3:81:02:f2:95:c8:ab:3d:65:58:64:15:
                    5e:18:f6:5b:31:1d:c7:f6:4e:96:69:62:10:d0:a9:
                    96:8f
                Exponent: 65537 (0x10001)
        X509v3 extensions:
            X509v3 Basic Constraints: 
                CA:FALSE
            X509v3 Subject Key Identifier: 
                89:A3:09:7A:2B:CE:85:24:B7:F6:06:64:31:6A:8C:06:B7:C1:3C:18
            X509v3 Authority Key Identifier: 
                keyid:F8:9E:0C:26:56:48:84:30:8C:FC:AB:2A:98:A6:07:2D:19:3C:9B:34
                DirName:/CN=team390-net
                serial:39:5A:36:38:16:B6:B0:07:35:49:14:55:E3:7B:B5:38:9B:8C:04:79

            X509v3 Extended Key Usage: 
                TLS Web Client Authentication
            X509v3 Key Usage: 
                Digital Signature
    Signature Algorithm: sha256WithRSAEncryption
         b0:75:d7:30:78:0e:a2:d8:65:59:cc:6d:68:dd:0b:a7:40:3f:
         98:1e:c0:d8:8e:5d:47:8d:68:15:da:ff:a9:7b:49:e5:e4:1d:
         68:89:50:26:16:e0:cb:d4:85:ed:04:b7:16:35:84:ad:59:39:
         36:87:0e:a0:2f:e0:f9:48:c4:f6:a5:22:55:a8:fa:69:5f:ac:
         60:a5:f6:ae:83:22:ea:8f:ea:aa:d3:4d:f5:76:7e:14:08:42:
         2c:12:47:5c:73:72:db:bf:64:da:1f:f2:b2:f5:bf:69:73:93:
         9e:0e:44:42:6e:8f:23:53:bc:67:67:1d:38:62:8c:b9:9f:ba:
         8b:c0:bd:5c:e1:e4:c6:c7:f9:fc:00:73:20:21:4d:cb:e7:c6:
         bb:19:ea:77:71:c3:08:78:21:06:0c:3c:e5:08:7b:a5:fb:d7:
         30:87:56:f2:78:0d:18:f9:31:45:a4:7d:99:c5:f3:af:07:ca:
         7e:c9:8e:de:b0:31:69:b0:0d:0d:37:d5:81:9c:3a:3e:58:19:
         2e:63:7e:b8:f9:fc:9c:03:a4:e4:79:31:86:2a:f3:74:e5:0f:
         7b:7e:df:71:43:8a:2e:06:67:a6:ca:39:eb:1a:0a:c2:08:6a:
         9f:e7:08:51:77:a4:63:db:4b:a5:fa:1b:17:e7:f0:9f:7d:bb:
         e0:3a:ab:29
-----BEGIN CERTIFICATE-----
MIIDXDCCAkSgAwIBAgIQJj6ac5xsc4M6NGLv0Z6iSTANBgkqhkiG9w0BAQsFADAW
MRQwEgYDVQQDDAt0ZWFtMzkwLW5ldDAeFw0yMjA1MTgyMDU2MTlaFw0yNTA1MDIy
MDU2MTlaMBkxFzAVBgNVBAMMDnRlYW0zOTAtY2xpZW50MIIBIjANBgkqhkiG9w0B
AQEFAAOCAQ8AMIIBCgKCAQEAusEMr3eFVY04qj3iGfrb+2IjReRripYaMaAFKnzL
he5vHfQwVxYrQnaAkfVKi28m9m0qzaxQEqhsbxsekU7r9vKQGPgQv12kjq23TP0F
VP1RznNNVVuYwoBMDcaJ9e+FYgstXteRp2L70gmyymg+FALi0SBZmh2Hix7DOW14
dDVLkQ2KDvL8i704kaUXLogR0AU2v6c6R62nSRBkK+D7/pByOTcklNJLCTpAOKEY
HZl9OXjSAGO9vXb2OS9zA8LUHi/Yzb0gkd6PkEu4HWFAUDANSlrcZP77o3QLX1+F
kvb5KD/jgQLylcirPWVYZBVeGPZbMR3H9k6WaWIQ0KmWjwIDAQABo4GiMIGfMAkG
A1UdEwQCMAAwHQYDVR0OBBYEFImjCXorzoUkt/YGZDFqjAa3wTwYMFEGA1UdIwRK
MEiAFPieDCZWSIQwjPyrKpimBy0ZPJs0oRqkGDAWMRQwEgYDVQQDDAt0ZWFtMzkw
LW5ldIIUOVo2OBa2sAc1SRRV43u1OJuMBHkwEwYDVR0lBAwwCgYIKwYBBQUHAwIw
CwYDVR0PBAQDAgeAMA0GCSqGSIb3DQEBCwUAA4IBAQCwddcweA6i2GVZzG1o3Qun
QD+YHsDYjl1HjWgV2v+pe0nl5B1oiVAmFuDL1IXtBLcWNYStWTk2hw6gL+D5SMT2
pSJVqPppX6xgpfaugyLqj+qq0031dn4UCEIsEkdcc3Lbv2TaH/Ky9b9pc5OeDkRC
bo8jU7xnZx04Yoy5n7qLwL1c4eTGx/n8AHMgIU3L58a7Gep3ccMIeCEGDDzlCHul
+9cwh1byeA0Y+TFFpH2ZxfOvB8p+yY7esDFpsA0NN9WBnDo+WBkuY364+fycA6Tk
eTGGKvN05Q97ft9xQ4ouBmemyjnrGgrCCGqf5whRd6Rj20ul+hsX5/CffbvgOqsp
-----END CERTIFICATE-----
