Certificate:
    Data:
        Version: 3 (0x2)
        Serial Number:
            40:f9:44:a2:42:b4:3f:f2:96:16:5b:85:89:74:f4:43
        Signature Algorithm: sha256WithRSAEncryption
        Issuer: CN=team390-net
        Validity
            Not Before: May 18 20:56:20 2022 GMT
            Not After : May  2 20:56:20 2025 GMT
        Subject: CN=team390-server
        Subject Public Key Info:
            Public Key Algorithm: rsaEncryption
                RSA Public-Key: (2048 bit)
                Modulus:
                    00:ad:86:6a:2b:7b:15:5a:ca:85:4a:75:24:f7:2e:
                    57:8a:e4:63:1a:e9:4c:f0:3d:c1:e7:e6:bd:63:9d:
                    5c:c3:30:a5:9b:5a:11:cb:00:d0:a1:eb:06:ea:26:
                    70:c0:50:f5:e3:76:89:d8:66:87:e0:6d:a8:94:7c:
                    6d:9a:60:0f:83:b3:43:b1:9a:38:c1:34:04:56:e0:
                    ce:b8:65:3f:56:5c:6a:29:c4:86:d1:60:be:b9:7e:
                    2e:f4:95:d0:52:a7:7a:ac:21:f4:66:57:3e:b9:28:
                    d1:a0:42:5a:b5:4a:8c:01:be:f8:c3:f4:27:e0:dd:
                    b9:49:fe:71:8b:7c:ad:37:b0:fd:ac:bc:55:ad:37:
                    19:3a:d9:6f:1a:b7:61:7a:71:cd:bd:8e:ee:d0:18:
                    7d:82:e6:69:74:2b:ed:84:92:f7:68:7f:5d:ef:9b:
                    24:19:63:de:41:2d:d9:6e:3d:2e:47:68:a3:f4:f4:
                    97:ae:a5:16:15:2a:d4:a7:8e:75:c3:b4:c0:0f:7e:
                    d4:d7:af:f7:1d:52:8b:39:74:d6:0f:24:79:36:53:
                    68:0e:25:aa:74:2f:ed:68:15:da:7a:85:a7:e6:fe:
                    cf:83:3f:fd:c2:3d:de:42:3d:08:8f:46:4c:cb:ea:
                    1f:96:df:7b:dc:c1:01:82:69:3f:ff:28:a4:af:ec:
                    5a:49
                Exponent: 65537 (0x10001)
        X509v3 extensions:
            X509v3 Basic Constraints: 
                CA:FALSE
            X509v3 Subject Key Identifier: 
                B9:6C:BF:9C:53:DE:2A:7E:C9:19:38:12:F4:FF:44:45:DD:49:CC:22
            X509v3 Authority Key Identifier: 
                keyid:F8:9E:0C:26:56:48:84:30:8C:FC:AB:2A:98:A6:07:2D:19:3C:9B:34
                DirName:/CN=team390-net
                serial:39:5A:36:38:16:B6:B0:07:35:49:14:55:E3:7B:B5:38:9B:8C:04:79

            X509v3 Extended Key Usage: 
                TLS Web Server Authentication
            X509v3 Key Usage: 
                Digital Signature, Key Encipherment
            X509v3 Subject Alternative Name: 
                DNS:team390-server
    Signature Algorithm: sha256WithRSAEncryption
         82:e4:06:77:19:ed:3a:cd:fb:9c:29:b8:5c:15:47:c8:bb:2c:
         47:88:90:65:44:ea:e3:6d:41:af:df:16:da:9e:44:4c:e8:9c:
         9b:6a:fa:26:a7:46:a9:53:c8:96:f2:57:93:6b:3e:88:0d:e4:
         a1:ff:b5:12:a7:d5:18:8f:84:26:01:16:fe:b9:58:5d:4a:15:
         30:54:0a:73:43:5a:14:20:4d:33:a1:d6:aa:3b:8c:1e:4d:0d:
         cd:ec:c7:31:1a:ab:df:1c:8c:f1:27:26:e1:fe:8e:76:13:b3:
         37:82:e7:44:a9:f3:54:95:c3:39:88:01:49:02:69:9f:fc:e1:
         7c:3b:be:3d:0a:9e:37:c7:6b:f2:52:78:33:ce:aa:3f:8e:04:
         87:ee:ed:e3:25:cc:15:1a:a6:12:33:c4:c4:64:af:eb:b4:d0:
         ce:38:cf:8d:78:34:b0:a0:01:fc:38:9d:6c:1f:19:f8:89:56:
         d3:57:20:c8:02:24:bb:36:47:57:53:fb:5d:ed:5a:d3:44:09:
         09:3b:b8:00:d1:45:c5:af:25:1f:a4:76:bd:c0:aa:9c:e6:6f:
         95:14:67:e8:1b:8d:4e:b1:b1:0b:60:5c:b0:f0:bc:35:e8:51:
         fd:76:31:97:e0:16:d4:d7:cb:fe:95:c3:be:53:ab:3d:46:9f:
         45:57:1f:2a
-----BEGIN CERTIFICATE-----
MIIDdzCCAl+gAwIBAgIQQPlEokK0P/KWFluFiXT0QzANBgkqhkiG9w0BAQsFADAW
MRQwEgYDVQQDDAt0ZWFtMzkwLW5ldDAeFw0yMjA1MTgyMDU2MjBaFw0yNTA1MDIy
MDU2MjBaMBkxFzAVBgNVBAMMDnRlYW0zOTAtc2VydmVyMIIBIjANBgkqhkiG9w0B
AQEFAAOCAQ8AMIIBCgKCAQEArYZqK3sVWsqFSnUk9y5XiuRjGulM8D3B5+a9Y51c
wzClm1oRywDQoesG6iZwwFD143aJ2GaH4G2olHxtmmAPg7NDsZo4wTQEVuDOuGU/
VlxqKcSG0WC+uX4u9JXQUqd6rCH0Zlc+uSjRoEJatUqMAb74w/Qn4N25Sf5xi3yt
N7D9rLxVrTcZOtlvGrdhenHNvY7u0Bh9guZpdCvthJL3aH9d75skGWPeQS3Zbj0u
R2ij9PSXrqUWFSrUp451w7TAD37U16/3HVKLOXTWDyR5NlNoDiWqdC/taBXaeoWn
5v7Pgz/9wj3eQj0Ij0ZMy+oflt973MEBgmk//yikr+xaSQIDAQABo4G9MIG6MAkG
A1UdEwQCMAAwHQYDVR0OBBYEFLlsv5xT3ip+yRk4EvT/REXdScwiMFEGA1UdIwRK
MEiAFPieDCZWSIQwjPyrKpimBy0ZPJs0oRqkGDAWMRQwEgYDVQQDDAt0ZWFtMzkw
LW5ldIIUOVo2OBa2sAc1SRRV43u1OJuMBHkwEwYDVR0lBAwwCgYIKwYBBQUHAwEw
CwYDVR0PBAQDAgWgMBkGA1UdEQQSMBCCDnRlYW0zOTAtc2VydmVyMA0GCSqGSIb3
DQEBCwUAA4IBAQCC5AZ3Ge06zfucKbhcFUfIuyxHiJBlROrjbUGv3xbankRM6Jyb
avomp0apU8iW8leTaz6IDeSh/7USp9UYj4QmARb+uVhdShUwVApzQ1oUIE0zodaq
O4weTQ3N7McxGqvfHIzxJybh/o52E7M3gudEqfNUlcM5iAFJAmmf/OF8O749Cp43
x2vyUngzzqo/jgSH7u3jJcwVGqYSM8TEZK/rtNDOOM+NeDSwoAH8OJ1sHxn4iVbT
VyDIAiS7NkdXU/td7VrTRAkJO7gA0UXFryUfpHa9wKqc5m+VFGfoG41OsbELYFyw
8Lw16FH9djGX4BbU18v+lcO+U6s9Rp9FVx8q
-----END CERTIFICATE-----
