Certificate:
    Data:
        Version: 3 (0x2)
        Serial Number:
            20:23:6c:42:12:6a:56:d2:25:65:64:75:1b:f5:52:27
        Signature Algorithm: sha256WithRSAEncryption
        Issuer: CN=team191-net
        Validity
            Not Before: May 18 19:03:37 2022 GMT
            Not After : May  2 19:03:37 2025 GMT
        Subject: CN=team191-server
        Subject Public Key Info:
            Public Key Algorithm: rsaEncryption
                RSA Public-Key: (2048 bit)
                Modulus:
                    00:c1:4e:74:5c:bb:70:ff:32:45:fc:ec:10:c8:b0:
                    3c:ae:07:9f:48:d2:1a:bb:a8:4f:a3:c9:8b:9c:1e:
                    c0:f5:bd:d1:33:6e:a6:d7:cd:cd:6a:16:15:d1:89:
                    ac:60:f2:3c:ad:af:d6:ed:2f:ae:c5:fb:67:5d:f7:
                    8e:6e:1c:34:60:cb:78:ad:13:9d:2b:99:b9:e6:f4:
                    6b:ac:d1:cd:28:57:8f:28:19:7b:e0:d5:07:06:1e:
                    cb:b1:df:f8:f2:b1:11:46:10:9f:9a:77:4e:32:ea:
                    6b:68:15:ff:9b:cd:d4:33:8e:ea:11:f2:58:f2:c7:
                    1e:5b:53:6b:d9:96:39:8b:85:b0:42:61:0f:b1:68:
                    a6:13:da:4c:ed:45:a6:ed:19:f0:13:34:15:89:d3:
                    4a:af:40:50:78:8d:cb:e6:f9:de:57:6d:cc:a7:ce:
                    8e:01:e9:06:38:68:42:00:0c:3d:6a:d9:22:75:a6:
                    27:fa:bc:9c:15:6d:3c:73:5e:a3:94:83:e6:2d:b0:
                    78:5a:8f:a8:f3:41:dc:56:f9:62:f6:21:26:86:ab:
                    5e:f2:04:9c:f9:9f:5c:e3:23:85:4e:81:4f:78:6d:
                    7d:6a:7f:03:57:26:59:54:46:25:47:fe:b8:e4:d1:
                    48:41:fb:e8:c5:f2:28:9e:23:3e:ed:63:57:e5:22:
                    28:43
                Exponent: 65537 (0x10001)
        X509v3 extensions:
            X509v3 Basic Constraints: 
                CA:FALSE
            X509v3 Subject Key Identifier: 
                A7:41:3C:1B:1B:D3:20:6B:B0:A6:B3:66:B9:E0:A6:DC:ED:24:06:88
            X509v3 Authority Key Identifier: 
                keyid:AD:38:64:48:D1:2F:59:D4:52:83:D2:5C:75:53:57:AA:AD:17:B6:C9
                DirName:/CN=team191-net
                serial:3D:1C:E7:C9:82:DF:08:88:41:B4:78:4C:D5:D4:CF:4C:A6:EE:A3:F4

            X509v3 Extended Key Usage: 
                TLS Web Server Authentication
            X509v3 Key Usage: 
                Digital Signature, Key Encipherment
            X509v3 Subject Alternative Name: 
                DNS:team191-server
    Signature Algorithm: sha256WithRSAEncryption
         48:75:04:d8:b0:2b:11:4e:f0:d0:e4:94:12:1e:6a:40:92:07:
         cc:0c:ae:40:e3:08:2a:79:ad:81:b1:2f:4f:d8:4d:e2:59:74:
         82:f7:ae:90:64:17:fd:cc:38:b7:31:bc:7a:42:a3:9b:d9:3f:
         71:cb:4a:c7:df:5d:94:c8:0b:07:c6:e3:1a:c6:68:fa:73:84:
         e3:86:7c:8a:10:e0:d6:9c:6a:1b:b8:ae:fa:c4:b3:53:9a:ea:
         9f:fe:02:15:ea:77:a2:7d:d6:15:b6:bd:31:00:50:65:31:29:
         32:25:55:94:6f:ea:0c:57:1e:f5:5d:64:03:0f:68:fb:4c:2a:
         a1:dc:97:00:e2:fa:86:a8:34:31:eb:fa:51:f7:86:ed:f9:c8:
         4d:c8:d9:88:14:06:52:6c:0e:f2:c0:06:2e:21:9f:f1:33:89:
         da:9d:3e:5b:cc:df:9d:f9:7b:ca:50:2d:c6:26:2d:aa:10:db:
         8d:cc:74:56:c9:49:b8:40:c4:d7:fc:89:e6:b5:93:ed:fc:41:
         f4:c8:33:ca:8b:79:9b:04:9e:f2:1c:5e:0c:cf:e3:fe:88:ca:
         0e:e2:7d:b5:71:b7:8c:cb:fb:6d:48:49:82:87:b8:d0:80:12:
         86:1d:e1:5b:aa:9e:61:09:de:d6:ff:d7:fb:cb:4c:9e:fc:6a:
         65:bd:df:04
-----BEGIN CERTIFICATE-----
MIIDdzCCAl+gAwIBAgIQICNsQhJqVtIlZWR1G/VSJzANBgkqhkiG9w0BAQsFADAW
MRQwEgYDVQQDDAt0ZWFtMTkxLW5ldDAeFw0yMjA1MTgxOTAzMzdaFw0yNTA1MDIx
OTAzMzdaMBkxFzAVBgNVBAMMDnRlYW0xOTEtc2VydmVyMIIBIjANBgkqhkiG9w0B
AQEFAAOCAQ8AMIIBCgKCAQEAwU50XLtw/zJF/OwQyLA8rgefSNIau6hPo8mLnB7A
9b3RM26m183NahYV0YmsYPI8ra/W7S+uxftnXfeObhw0YMt4rROdK5m55vRrrNHN
KFePKBl74NUHBh7Lsd/48rERRhCfmndOMupraBX/m83UM47qEfJY8sceW1Nr2ZY5
i4WwQmEPsWimE9pM7UWm7RnwEzQVidNKr0BQeI3L5vneV23Mp86OAekGOGhCAAw9
atkidaYn+rycFW08c16jlIPmLbB4Wo+o80HcVvli9iEmhqte8gSc+Z9c4yOFToFP
eG19an8DVyZZVEYlR/645NFIQfvoxfIoniM+7WNX5SIoQwIDAQABo4G9MIG6MAkG
A1UdEwQCMAAwHQYDVR0OBBYEFKdBPBsb0yBrsKazZrngptztJAaIMFEGA1UdIwRK
MEiAFK04ZEjRL1nUUoPSXHVTV6qtF7bJoRqkGDAWMRQwEgYDVQQDDAt0ZWFtMTkx
LW5ldIIUPRznyYLfCIhBtHhM1dTPTKbuo/QwEwYDVR0lBAwwCgYIKwYBBQUHAwEw
CwYDVR0PBAQDAgWgMBkGA1UdEQQSMBCCDnRlYW0xOTEtc2VydmVyMA0GCSqGSIb3
DQEBCwUAA4IBAQBIdQTYsCsRTvDQ5JQSHmpAkgfMDK5A4wgqea2BsS9P2E3iWXSC
966QZBf9zDi3Mbx6QqOb2T9xy0rH312UyAsHxuMaxmj6c4TjhnyKEODWnGobuK76
xLNTmuqf/gIV6neifdYVtr0xAFBlMSkyJVWUb+oMVx71XWQDD2j7TCqh3JcA4vqG
qDQx6/pR94bt+chNyNmIFAZSbA7ywAYuIZ/xM4nanT5bzN+d+XvKUC3GJi2qENuN
zHRWyUm4QMTX/InmtZPt/EH0yDPKi3mbBJ7yHF4Mz+P+iMoO4n21cbeMy/ttSEmC
h7jQgBKGHeFbqp5hCd7W/9f7y0ye/Gplvd8E
-----END CERTIFICATE-----
