Certificate:
    Data:
        Version: 3 (0x2)
        Serial Number:
            90:57:a5:7e:7f:5b:1c:49:27:17:b0:65:0b:d5:ba:2c
        Signature Algorithm: sha256WithRSAEncryption
        Issuer: CN=team577-net
        Validity
            Not Before: May 18 22:30:30 2022 GMT
            Not After : May  2 22:30:30 2025 GMT
        Subject: CN=team577-client
        Subject Public Key Info:
            Public Key Algorithm: rsaEncryption
                RSA Public-Key: (2048 bit)
                Modulus:
                    00:b6:60:35:4b:d7:4f:e7:c1:99:35:84:68:76:c0:
                    6e:eb:e4:ad:9f:c4:6b:87:71:1e:12:7f:51:41:f8:
                    b3:2b:c5:ea:54:67:44:73:06:53:bf:9e:18:c5:f3:
                    af:cc:6f:f6:eb:1e:9a:74:98:1e:af:2a:29:e2:8f:
                    5e:dd:6c:42:11:dc:8f:e2:f2:bf:4f:bb:5e:61:53:
                    5e:ac:cb:f6:8b:bb:78:bc:2e:75:00:7c:28:06:8b:
                    5a:6c:14:b0:e5:b3:83:fe:e6:6d:7b:83:39:53:12:
                    61:b8:69:ef:7d:f6:c7:8c:96:f7:3d:45:8b:b7:e6:
                    bf:0f:24:8f:9b:bf:ef:56:f9:ab:1c:d3:18:45:70:
                    43:04:f0:9b:d2:27:cc:6a:b4:9c:a9:67:e3:d3:57:
                    07:30:0e:62:6f:db:8c:e1:27:2b:0a:ad:63:39:55:
                    75:9c:bc:e2:d6:95:45:0e:4a:5d:c5:55:e8:4e:1d:
                    24:27:7f:83:b6:f4:7a:43:82:49:a5:6a:c3:45:db:
                    6e:df:be:5e:e8:c0:cf:d6:0e:55:ab:18:75:6b:42:
                    a0:26:59:77:dc:f2:34:8e:e8:53:d1:6f:b8:cb:50:
                    c4:10:ef:1e:d5:47:f9:ce:36:3d:db:9b:2f:ad:00:
                    0e:d5:ad:94:9f:12:27:ca:51:b5:d2:c0:b3:dc:5b:
                    00:d7
                Exponent: 65537 (0x10001)
        X509v3 extensions:
            X509v3 Basic Constraints: 
                CA:FALSE
            X509v3 Subject Key Identifier: 
                CD:6B:20:C2:91:D1:FF:98:66:CE:58:F7:1F:02:8B:18:26:2E:41:76
            X509v3 Authority Key Identifier: 
                keyid:6D:1E:B8:EF:D5:D4:D4:38:3F:60:B4:6B:DE:08:FA:8B:59:9D:84:2F
                DirName:/CN=team577-net
                serial:6E:1C:81:1B:4B:B2:51:CD:72:BB:0E:13:19:0A:EA:3D:CD:A1:66:19

            X509v3 Extended Key Usage: 
                TLS Web Client Authentication
            X509v3 Key Usage: 
                Digital Signature
    Signature Algorithm: sha256WithRSAEncryption
         5f:c5:d5:32:fc:a2:ac:61:bb:6f:35:9d:5d:f0:9f:17:3b:af:
         56:ad:24:6d:94:1e:4d:16:49:38:ae:24:b0:64:4c:f1:85:00:
         56:f9:9d:ed:aa:17:81:f7:06:13:90:a2:7a:71:f1:26:ef:79:
         0f:6a:e8:bc:3d:4f:83:57:f3:6d:ba:a4:c2:6f:06:71:90:08:
         d7:1d:2e:cf:7b:d2:a8:92:4c:9e:99:2d:4d:6d:f8:37:4e:7f:
         bd:46:42:38:65:c0:41:cd:04:c1:6e:ce:cf:62:75:ee:7e:3d:
         78:41:44:5d:6e:c8:15:fe:e1:79:38:07:f3:91:1d:b9:8a:60:
         32:a1:b1:37:9a:20:94:a9:a7:c4:0f:a7:2b:d8:75:fe:65:db:
         25:a2:91:98:b8:2e:05:52:a7:57:ba:fc:d0:c9:43:68:7d:4e:
         bf:d7:5c:2e:fd:1b:5f:69:5e:d0:f8:5c:31:09:ee:1a:d6:85:
         db:76:17:65:2e:23:9d:4f:ab:7f:62:96:e4:0c:e6:fd:f2:69:
         ac:44:73:b8:f9:87:f1:8b:c9:21:31:7e:6b:d8:c4:30:dd:f4:
         46:61:ff:3b:82:21:ac:9a:61:51:ff:d8:ee:e7:66:67:32:61:
         1c:af:87:1c:ca:dc:40:fa:c2:9b:38:b8:ac:c7:f3:96:7c:6b:
         f3:c6:ae:69
-----BEGIN CERTIFICATE-----
MIIDXTCCAkWgAwIBAgIRAJBXpX5/WxxJJxewZQvVuiwwDQYJKoZIhvcNAQELBQAw
FjEUMBIGA1UEAwwLdGVhbTU3Ny1uZXQwHhcNMjIwNTE4MjIzMDMwWhcNMjUwNTAy
MjIzMDMwWjAZMRcwFQYDVQQDDA50ZWFtNTc3LWNsaWVudDCCASIwDQYJKoZIhvcN
AQEBBQADggEPADCCAQoCggEBALZgNUvXT+fBmTWEaHbAbuvkrZ/Ea4dxHhJ/UUH4
syvF6lRnRHMGU7+eGMXzr8xv9usemnSYHq8qKeKPXt1sQhHcj+Lyv0+7XmFTXqzL
9ou7eLwudQB8KAaLWmwUsOWzg/7mbXuDOVMSYbhp7332x4yW9z1Fi7fmvw8kj5u/
71b5qxzTGEVwQwTwm9InzGq0nKln49NXBzAOYm/bjOEnKwqtYzlVdZy84taVRQ5K
XcVV6E4dJCd/g7b0ekOCSaVqw0Xbbt++XujAz9YOVasYdWtCoCZZd9zyNI7oU9Fv
uMtQxBDvHtVH+c42PdubL60ADtWtlJ8SJ8pRtdLAs9xbANcCAwEAAaOBojCBnzAJ
BgNVHRMEAjAAMB0GA1UdDgQWBBTNayDCkdH/mGbOWPcfAosYJi5BdjBRBgNVHSME
SjBIgBRtHrjv1dTUOD9gtGveCPqLWZ2EL6EapBgwFjEUMBIGA1UEAwwLdGVhbTU3
Ny1uZXSCFG4cgRtLslHNcrsOExkK6j3NoWYZMBMGA1UdJQQMMAoGCCsGAQUFBwMC
MAsGA1UdDwQEAwIHgDANBgkqhkiG9w0BAQsFAAOCAQEAX8XVMvyirGG7bzWdXfCf
FzuvVq0kbZQeTRZJOK4ksGRM8YUAVvmd7aoXgfcGE5CienHxJu95D2rovD1Pg1fz
bbqkwm8GcZAI1x0uz3vSqJJMnpktTW34N05/vUZCOGXAQc0EwW7Oz2J17n49eEFE
XW7IFf7heTgH85EduYpgMqGxN5oglKmnxA+nK9h1/mXbJaKRmLguBVKnV7r80MlD
aH1Ov9dcLv0bX2le0PhcMQnuGtaF23YXZS4jnU+rf2KW5Azm/fJprERzuPmH8YvJ
ITF+a9jEMN30RmH/O4IhrJphUf/Y7udmZzJhHK+HHMrcQPrCmzi4rMfzlnxr88au
aQ==
-----END CERTIFICATE-----
