Certificate:
    Data:
        Version: 3 (0x2)
        Serial Number:
            05:09:98:94:f2:0e:5d:56:87:5d:9f:61:80:5b:50:2a
        Signature Algorithm: sha256WithRSAEncryption
        Issuer: CN=team755-net
        Validity
            Not Before: May 19 00:17:25 2022 GMT
            Not After : May  3 00:17:25 2025 GMT
        Subject: CN=team755-server
        Subject Public Key Info:
            Public Key Algorithm: rsaEncryption
                RSA Public-Key: (2048 bit)
                Modulus:
                    00:b9:dc:54:d0:f9:97:9a:60:21:8c:38:1d:67:f9:
                    bb:99:a8:58:e1:d3:c1:b0:d1:c6:f5:b8:10:56:f7:
                    07:83:5f:02:61:9f:4c:a9:63:90:d2:48:ad:21:5f:
                    61:fa:41:e4:e0:c2:f3:7e:fa:29:b0:3a:16:d0:49:
                    e2:ec:a1:f4:92:e5:2b:f8:95:a3:d4:22:3b:eb:93:
                    1e:d1:f8:62:db:36:75:19:ff:33:04:3a:b7:89:d4:
                    cd:13:61:38:04:cb:67:a9:54:83:7a:db:7a:30:2d:
                    42:22:25:51:3b:93:9c:e6:c6:b9:87:57:ef:33:10:
                    9e:a2:5c:9c:c8:f4:8a:5d:9f:5f:ec:3d:67:53:8d:
                    a4:e5:62:a2:11:77:9f:61:c3:91:f0:48:b0:e0:b8:
                    a5:40:42:da:70:8f:a8:95:0a:e8:ab:5c:47:6e:d7:
                    91:0b:24:9e:16:ce:b0:c1:bc:85:a9:7f:9a:9a:a6:
                    9f:dc:8f:73:02:63:40:b9:b5:84:f8:03:32:76:d7:
                    46:47:ff:0f:cd:39:4c:67:e6:1f:c1:ed:b4:6e:0d:
                    c6:05:e0:b5:a5:2b:cc:50:f6:a4:7a:e1:57:3c:a0:
                    78:e6:1d:f9:30:da:34:e4:87:25:90:a8:34:ae:84:
                    44:58:a0:7e:d8:10:01:7a:a2:36:ec:b8:a8:7d:04:
                    44:91
                Exponent: 65537 (0x10001)
        X509v3 extensions:
            X509v3 Basic Constraints: 
                CA:FALSE
            X509v3 Subject Key Identifier: 
                F7:C7:B0:8C:A0:BF:46:9C:88:01:77:95:81:4D:D0:01:92:62:E6:D7
            X509v3 Authority Key Identifier: 
                keyid:DA:2C:E9:E6:1C:B5:50:9B:82:BC:61:2C:06:25:30:0F:CB:F0:0B:3D
                DirName:/CN=team755-net
                serial:5C:AD:78:2A:D9:29:1E:8E:7B:7D:89:EE:3C:0D:E7:78:C4:CD:C5:F8

            X509v3 Extended Key Usage: 
                TLS Web Server Authentication
            X509v3 Key Usage: 
                Digital Signature, Key Encipherment
            X509v3 Subject Alternative Name: 
                DNS:team755-server
    Signature Algorithm: sha256WithRSAEncryption
         a6:4c:1c:db:85:16:5b:38:30:01:c1:95:e4:57:d5:20:36:97:
         b4:62:9f:0c:0b:b1:4d:f4:25:8a:a7:c3:de:2f:78:58:da:98:
         a7:96:ea:5b:67:7e:eb:9c:3a:0d:42:f6:fb:08:33:83:37:34:
         c7:5e:8d:96:d4:4e:2e:f8:02:a4:25:04:93:38:4b:06:cb:c0:
         69:6f:6d:7f:ad:e6:e0:3a:4b:fb:c3:17:49:41:c4:6f:71:af:
         52:9b:6f:49:5b:84:60:a6:73:e2:b3:f1:da:c1:c0:d8:09:80:
         ff:60:13:2e:fc:b2:3c:f1:b5:2b:bd:d8:94:db:ff:af:5b:fa:
         e1:3b:66:b7:07:7b:8f:1f:aa:8f:3a:96:a9:cc:76:a1:29:23:
         0c:36:65:02:60:8a:5e:9a:fe:9a:ec:e7:e1:7d:d2:e3:1c:c9:
         e1:78:c0:fe:7e:c2:77:38:d7:e2:22:d0:46:02:46:10:b9:d3:
         a7:9e:dc:5d:d8:82:c4:5f:0b:73:be:47:37:03:d4:74:0c:da:
         70:a1:83:c0:ad:0c:04:51:83:10:75:51:ba:93:dd:3f:84:21:
         d3:ec:23:b3:32:60:e3:e7:e0:fc:8c:8d:b4:ec:cf:be:a1:45:
         be:94:aa:16:9e:55:d5:b3:7d:9a:7c:f1:16:fa:6c:87:94:ed:
         0c:99:ee:b1
-----BEGIN CERTIFICATE-----
MIIDdzCCAl+gAwIBAgIQBQmYlPIOXVaHXZ9hgFtQKjANBgkqhkiG9w0BAQsFADAW
MRQwEgYDVQQDDAt0ZWFtNzU1LW5ldDAeFw0yMjA1MTkwMDE3MjVaFw0yNTA1MDMw
MDE3MjVaMBkxFzAVBgNVBAMMDnRlYW03NTUtc2VydmVyMIIBIjANBgkqhkiG9w0B
AQEFAAOCAQ8AMIIBCgKCAQEAudxU0PmXmmAhjDgdZ/m7mahY4dPBsNHG9bgQVvcH
g18CYZ9MqWOQ0kitIV9h+kHk4MLzfvopsDoW0Eni7KH0kuUr+JWj1CI765Me0fhi
2zZ1Gf8zBDq3idTNE2E4BMtnqVSDett6MC1CIiVRO5Oc5sa5h1fvMxCeolycyPSK
XZ9f7D1nU42k5WKiEXefYcOR8Eiw4LilQELacI+olQroq1xHbteRCySeFs6wwbyF
qX+amqaf3I9zAmNAubWE+AMydtdGR/8PzTlMZ+Yfwe20bg3GBeC1pSvMUPakeuFX
PKB45h35MNo05IclkKg0roREWKB+2BABeqI27LiofQREkQIDAQABo4G9MIG6MAkG
A1UdEwQCMAAwHQYDVR0OBBYEFPfHsIygv0aciAF3lYFN0AGSYubXMFEGA1UdIwRK
MEiAFNos6eYctVCbgrxhLAYlMA/L8As9oRqkGDAWMRQwEgYDVQQDDAt0ZWFtNzU1
LW5ldIIUXK14KtkpHo57fYnuPA3neMTNxfgwEwYDVR0lBAwwCgYIKwYBBQUHAwEw
CwYDVR0PBAQDAgWgMBkGA1UdEQQSMBCCDnRlYW03NTUtc2VydmVyMA0GCSqGSIb3
DQEBCwUAA4IBAQCmTBzbhRZbODABwZXkV9UgNpe0Yp8MC7FN9CWKp8PeL3hY2pin
lupbZ37rnDoNQvb7CDODNzTHXo2W1E4u+AKkJQSTOEsGy8Bpb21/rebgOkv7wxdJ
QcRvca9Sm29JW4RgpnPis/HawcDYCYD/YBMu/LI88bUrvdiU2/+vW/rhO2a3B3uP
H6qPOpapzHahKSMMNmUCYIpemv6a7OfhfdLjHMnheMD+fsJ3ONfiItBGAkYQudOn
ntxd2ILEXwtzvkc3A9R0DNpwoYPArQwEUYMQdVG6k90/hCHT7COzMmDj5+D8jI20
7M++oUW+lKoWnlXVs32afPEW+myHlO0Mme6x
-----END CERTIFICATE-----
