Certificate:
    Data:
        Version: 3 (0x2)
        Serial Number:
            13:a0:9d:dd:1f:6e:4c:0d:db:9c:ef:53:b5:df:da:f4
        Signature Algorithm: sha256WithRSAEncryption
        Issuer: CN=team619-net
        Validity
            Not Before: May 18 22:49:19 2022 GMT
            Not After : May  2 22:49:19 2025 GMT
        Subject: CN=team619-server
        Subject Public Key Info:
            Public Key Algorithm: rsaEncryption
                RSA Public-Key: (2048 bit)
                Modulus:
                    00:dd:fc:1a:2a:6a:ed:12:d6:77:70:29:45:8f:44:
                    d0:d3:b7:31:9b:be:f8:5d:4a:71:b1:2f:e1:21:78:
                    69:9d:56:61:3b:2c:c4:6e:d0:e3:84:92:01:97:c9:
                    81:1f:1a:42:9b:38:c4:d3:58:e6:9e:5c:39:52:46:
                    39:1a:89:86:81:b2:3c:41:b0:b2:c7:63:0c:e3:80:
                    f5:78:aa:58:d0:bb:aa:9d:14:26:05:35:a7:60:d8:
                    cd:4a:b3:57:de:f9:bd:0b:1e:c9:1f:15:77:1a:3c:
                    d6:d5:9e:90:85:29:f3:dc:c6:08:6f:20:1b:c9:b2:
                    e5:3c:96:a6:84:ec:5a:2c:c8:26:8e:8e:85:d7:ed:
                    bb:e8:a8:7b:a2:e6:52:2f:bc:44:e8:74:f6:19:7b:
                    fb:ae:a2:59:2d:e4:99:39:e8:87:74:d3:b0:7d:8e:
                    dc:d8:d5:00:12:d3:de:3d:ac:1b:44:fe:c5:cc:cf:
                    eb:04:84:e4:fd:b4:39:b4:8f:68:09:32:db:01:05:
                    5e:34:f0:18:76:dd:bc:58:3a:fe:5b:1d:d0:0d:db:
                    0d:bd:35:4d:7e:46:cf:f9:47:73:a5:b6:64:94:90:
                    59:98:30:f9:64:52:cb:26:e3:70:d8:b6:80:fb:15:
                    c0:57:8b:5f:a7:29:8b:19:28:ca:26:5a:ca:be:f4:
                    42:97
                Exponent: 65537 (0x10001)
        X509v3 extensions:
            X509v3 Basic Constraints: 
                CA:FALSE
            X509v3 Subject Key Identifier: 
                EE:98:45:FB:14:5C:A1:CE:C9:9F:5C:D5:C1:CB:71:B3:E4:A5:80:2D
            X509v3 Authority Key Identifier: 
                keyid:FA:4A:1C:DD:B7:07:72:C5:11:57:66:F0:9F:E5:5F:29:B7:A0:85:21
                DirName:/CN=team619-net
                serial:32:8E:17:B6:FC:66:4C:50:23:1E:84:55:7E:93:61:C1:EA:AD:21:94

            X509v3 Extended Key Usage: 
                TLS Web Server Authentication
            X509v3 Key Usage: 
                Digital Signature, Key Encipherment
            X509v3 Subject Alternative Name: 
                DNS:team619-server
    Signature Algorithm: sha256WithRSAEncryption
         a4:41:b8:a4:33:05:2f:4f:d8:74:da:1b:74:e9:21:96:c8:3c:
         ac:ce:b1:e4:ec:97:e2:92:d7:bd:41:5d:bf:70:d6:dc:57:5c:
         70:dd:1e:64:cb:b1:d4:b3:28:c3:1d:16:21:4e:89:83:37:fc:
         ef:cb:47:d9:9a:b3:a1:3b:8d:e0:43:3b:05:0f:2a:23:8f:19:
         8e:9d:3e:99:7f:ba:54:18:60:10:07:57:9d:9f:ec:a7:41:31:
         3b:02:e8:1c:52:97:62:48:3c:2e:68:2e:97:15:1b:11:b3:72:
         4f:41:c6:9c:35:a3:1c:af:10:c9:62:b5:29:80:82:35:88:86:
         20:fc:4d:37:a2:48:dc:4b:73:db:49:97:e8:91:cf:fd:c5:8d:
         cf:7f:9d:69:ce:4c:7d:f6:a9:41:b6:db:33:80:52:b0:a7:b7:
         28:0c:21:47:c2:e6:0c:bc:1d:40:3b:ea:a3:d7:18:6d:ca:77:
         26:12:cf:d8:76:c7:07:d6:d1:15:cf:38:b7:51:15:07:5c:39:
         09:87:6e:6a:a8:d0:fc:03:15:8a:26:eb:e3:09:3a:2f:06:97:
         12:62:f6:cf:01:25:10:02:ab:75:53:7f:5a:09:44:b3:ba:4e:
         90:89:83:ac:25:1c:72:db:4d:47:93:03:38:70:d4:9e:eb:f4:
         ac:13:da:bc
-----BEGIN CERTIFICATE-----
MIIDdzCCAl+gAwIBAgIQE6Cd3R9uTA3bnO9Ttd/a9DANBgkqhkiG9w0BAQsFADAW
MRQwEgYDVQQDDAt0ZWFtNjE5LW5ldDAeFw0yMjA1MTgyMjQ5MTlaFw0yNTA1MDIy
MjQ5MTlaMBkxFzAVBgNVBAMMDnRlYW02MTktc2VydmVyMIIBIjANBgkqhkiG9w0B
AQEFAAOCAQ8AMIIBCgKCAQEA3fwaKmrtEtZ3cClFj0TQ07cxm774XUpxsS/hIXhp
nVZhOyzEbtDjhJIBl8mBHxpCmzjE01jmnlw5UkY5GomGgbI8QbCyx2MM44D1eKpY
0LuqnRQmBTWnYNjNSrNX3vm9Cx7JHxV3GjzW1Z6QhSnz3MYIbyAbybLlPJamhOxa
LMgmjo6F1+276Kh7ouZSL7xE6HT2GXv7rqJZLeSZOeiHdNOwfY7c2NUAEtPePawb
RP7FzM/rBITk/bQ5tI9oCTLbAQVeNPAYdt28WDr+Wx3QDdsNvTVNfkbP+UdzpbZk
lJBZmDD5ZFLLJuNw2LaA+xXAV4tfpymLGSjKJlrKvvRClwIDAQABo4G9MIG6MAkG
A1UdEwQCMAAwHQYDVR0OBBYEFO6YRfsUXKHOyZ9c1cHLcbPkpYAtMFEGA1UdIwRK
MEiAFPpKHN23B3LFEVdm8J/lXym3oIUhoRqkGDAWMRQwEgYDVQQDDAt0ZWFtNjE5
LW5ldIIUMo4XtvxmTFAjHoRVfpNhweqtIZQwEwYDVR0lBAwwCgYIKwYBBQUHAwEw
CwYDVR0PBAQDAgWgMBkGA1UdEQQSMBCCDnRlYW02MTktc2VydmVyMA0GCSqGSIb3
DQEBCwUAA4IBAQCkQbikMwUvT9h02ht06SGWyDyszrHk7Jfikte9QV2/cNbcV1xw
3R5ky7HUsyjDHRYhTomDN/zvy0fZmrOhO43gQzsFDyojjxmOnT6Zf7pUGGAQB1ed
n+ynQTE7AugcUpdiSDwuaC6XFRsRs3JPQcacNaMcrxDJYrUpgII1iIYg/E03okjc
S3PbSZfokc/9xY3Pf51pzkx99qlBttszgFKwp7coDCFHwuYMvB1AO+qj1xhtyncm
Es/YdscH1tEVzzi3URUHXDkJh25qqND8AxWKJuvjCTovBpcSYvbPASUQAqt1U39a
CUSzuk6QiYOsJRxy201HkwM4cNSe6/SsE9q8
-----END CERTIFICATE-----
