Certificate:
    Data:
        Version: 3 (0x2)
        Serial Number:
            4a:96:77:2c:d6:39:0a:18:fe:59:50:bf:ee:01:d0:2b
        Signature Algorithm: sha256WithRSAEncryption
        Issuer: CN=team636-net
        Validity
            Not Before: May 18 23:10:54 2022 GMT
            Not After : May  2 23:10:54 2025 GMT
        Subject: CN=team636-client
        Subject Public Key Info:
            Public Key Algorithm: rsaEncryption
                RSA Public-Key: (2048 bit)
                Modulus:
                    00:b9:34:72:c5:5b:65:c7:83:b3:cf:50:69:9e:06:
                    cc:92:ee:19:d9:09:52:41:96:30:42:32:ad:14:dd:
                    9b:59:30:39:64:9b:d7:c0:d6:72:50:da:ca:c7:9b:
                    67:eb:dd:cb:39:ed:20:fe:b6:8c:8a:9b:29:e9:38:
                    ea:57:be:fe:e7:22:02:80:12:82:67:f3:9a:87:7d:
                    e2:6d:a1:2c:cc:41:fa:e6:18:94:19:9e:ac:d4:a3:
                    1e:3f:cb:33:85:cf:93:a0:61:05:98:9d:37:56:cc:
                    ac:af:ee:5a:94:87:58:a1:bc:d1:78:80:53:0f:e8:
                    42:d0:1d:83:b3:34:06:57:05:64:45:7b:e1:2c:b8:
                    05:32:71:46:7f:94:a2:e7:36:f5:8d:16:4b:42:95:
                    7d:1a:f0:ba:ac:a8:47:4f:1d:2b:42:d0:f3:87:3e:
                    b7:6a:57:31:89:81:88:be:12:72:ef:c3:b7:71:d8:
                    0a:8d:3c:d5:87:2a:79:5e:4d:69:06:a2:4f:c3:7c:
                    18:2c:95:81:b1:ce:0f:ef:cc:71:19:76:32:88:99:
                    be:e8:6e:19:a2:25:8e:0a:2f:3b:ea:42:64:80:b0:
                    0e:99:e5:2b:7b:f7:31:c3:72:ff:3a:e8:a9:51:94:
                    e7:4d:3e:d5:57:54:50:36:f9:73:ba:04:68:b7:e0:
                    38:c5
                Exponent: 65537 (0x10001)
        X509v3 extensions:
            X509v3 Basic Constraints: 
                CA:FALSE
            X509v3 Subject Key Identifier: 
                B7:3E:5C:BC:8C:81:FF:A0:6B:86:8F:C5:33:6A:75:2D:F1:93:A0:61
            X509v3 Authority Key Identifier: 
                keyid:BF:71:70:C5:05:BC:BA:86:54:69:35:E8:5E:47:C4:58:6A:B9:35:AA
                DirName:/CN=team636-net
                serial:17:72:F9:36:1F:08:47:AD:9E:3D:5F:4C:5F:4B:C1:93:4E:94:1B:29

            X509v3 Extended Key Usage: 
                TLS Web Client Authentication
            X509v3 Key Usage: 
                Digital Signature
    Signature Algorithm: sha256WithRSAEncryption
         2b:26:3a:ba:cc:9f:83:7e:e3:5e:53:45:cc:ff:56:39:0f:14:
         54:c1:c6:09:99:9c:ad:d4:05:d3:51:4b:60:12:39:1d:1c:e9:
         b2:97:f9:07:6a:5b:47:bf:fa:e3:21:23:90:8b:0d:51:22:4f:
         0f:5f:d9:d2:c6:c0:59:34:de:a7:22:f5:f4:08:89:10:b4:f7:
         ce:4e:b9:c7:e4:84:10:35:ca:09:da:9d:cc:10:83:ec:1c:4e:
         5b:14:38:60:e6:67:b0:fb:d5:4e:14:eb:e0:99:0d:cb:42:29:
         de:ec:f8:b0:48:33:2b:cd:75:2c:e7:ad:aa:10:74:a4:4f:b7:
         60:02:2a:77:36:32:fb:6c:71:45:1e:0d:e7:29:a9:58:d4:9d:
         5c:2e:f7:d4:55:e4:be:dd:be:47:8d:03:fb:d9:14:36:95:e8:
         9b:45:06:87:9e:a4:c5:14:cb:9d:e6:a6:54:5e:55:62:b0:b3:
         34:2d:89:6a:19:78:b9:7f:a0:90:4b:a2:0c:e6:31:de:d0:c2:
         2f:4f:93:96:b6:01:f5:d1:9c:bc:e5:2c:15:7c:e3:58:2d:8e:
         d3:04:38:8f:f1:be:77:43:d5:a5:a8:0b:79:74:3c:31:4c:6e:
         61:01:58:e2:c5:dd:05:f7:1a:dc:8d:b3:b1:f3:b9:8b:01:87:
         db:45:a6:04
-----BEGIN CERTIFICATE-----
MIIDXDCCAkSgAwIBAgIQSpZ3LNY5Chj+WVC/7gHQKzANBgkqhkiG9w0BAQsFADAW
MRQwEgYDVQQDDAt0ZWFtNjM2LW5ldDAeFw0yMjA1MTgyMzEwNTRaFw0yNTA1MDIy
MzEwNTRaMBkxFzAVBgNVBAMMDnRlYW02MzYtY2xpZW50MIIBIjANBgkqhkiG9w0B
AQEFAAOCAQ8AMIIBCgKCAQEAuTRyxVtlx4Ozz1BpngbMku4Z2QlSQZYwQjKtFN2b
WTA5ZJvXwNZyUNrKx5tn693LOe0g/raMipsp6TjqV77+5yICgBKCZ/Oah33ibaEs
zEH65hiUGZ6s1KMeP8szhc+ToGEFmJ03Vsysr+5alIdYobzReIBTD+hC0B2DszQG
VwVkRXvhLLgFMnFGf5Si5zb1jRZLQpV9GvC6rKhHTx0rQtDzhz63alcxiYGIvhJy
78O3cdgKjTzVhyp5Xk1pBqJPw3wYLJWBsc4P78xxGXYyiJm+6G4ZoiWOCi876kJk
gLAOmeUre/cxw3L/OuipUZTnTT7VV1RQNvlzugRot+A4xQIDAQABo4GiMIGfMAkG
A1UdEwQCMAAwHQYDVR0OBBYEFLc+XLyMgf+ga4aPxTNqdS3xk6BhMFEGA1UdIwRK
MEiAFL9xcMUFvLqGVGk16F5HxFhquTWqoRqkGDAWMRQwEgYDVQQDDAt0ZWFtNjM2
LW5ldIIUF3L5Nh8IR62ePV9MX0vBk06UGykwEwYDVR0lBAwwCgYIKwYBBQUHAwIw
CwYDVR0PBAQDAgeAMA0GCSqGSIb3DQEBCwUAA4IBAQArJjq6zJ+DfuNeU0XM/1Y5
DxRUwcYJmZyt1AXTUUtgEjkdHOmyl/kHaltHv/rjISOQiw1RIk8PX9nSxsBZNN6n
IvX0CIkQtPfOTrnH5IQQNcoJ2p3MEIPsHE5bFDhg5mew+9VOFOvgmQ3LQine7Piw
SDMrzXUs562qEHSkT7dgAip3NjL7bHFFHg3nKalY1J1cLvfUVeS+3b5HjQP72RQ2
leibRQaHnqTFFMud5qZUXlVisLM0LYlqGXi5f6CQS6IM5jHe0MIvT5OWtgH10Zy8
5SwVfONYLY7TBDiP8b53Q9WlqAt5dDwxTG5hAVjixd0F9xrcjbOx87mLAYfbRaYE
-----END CERTIFICATE-----
