Certificate:
    Data:
        Version: 3 (0x2)
        Serial Number:
            e9:d7:0e:66:97:24:04:4d:61:29:2c:91:b8:30:5a:80
        Signature Algorithm: sha256WithRSAEncryption
        Issuer: CN=team155-net
        Validity
            Not Before: May 18 18:37:59 2022 GMT
            Not After : May  2 18:37:59 2025 GMT
        Subject: CN=team155-client
        Subject Public Key Info:
            Public Key Algorithm: rsaEncryption
                RSA Public-Key: (2048 bit)
                Modulus:
                    00:a4:55:3a:11:9d:c1:68:8d:ff:18:e6:fb:d6:77:
                    30:d1:46:d9:2f:eb:60:fd:ac:5b:61:ca:ca:87:f7:
                    37:2a:2f:57:7f:7b:f9:35:ba:59:ee:46:c6:d9:af:
                    c9:48:41:dd:f1:da:1c:eb:29:7b:d2:b5:e1:62:a3:
                    5b:31:3e:aa:c3:1b:d6:b5:5b:7b:f9:ab:8a:74:42:
                    2c:78:e2:e9:43:dd:ae:89:2a:a8:53:3b:ba:7e:28:
                    0a:96:1b:27:9a:27:50:fe:dd:88:c0:65:5e:b6:af:
                    b3:f7:f3:51:4b:46:eb:24:d6:38:54:a2:75:91:e0:
                    ec:71:2c:7f:aa:60:4d:49:c0:7a:c8:ba:bd:2b:02:
                    de:e8:f1:94:2c:1d:98:fc:24:ac:f1:9f:74:06:4e:
                    26:7a:21:20:78:35:70:4b:6a:42:ec:d6:dd:91:05:
                    41:8b:d8:aa:53:68:7a:3c:c8:ba:8c:ae:51:fa:36:
                    95:81:d1:51:4c:3f:e9:d9:49:16:f6:1b:5d:63:02:
                    af:24:b7:f6:f9:3b:29:b3:82:16:11:94:a1:6e:e5:
                    41:71:3e:5e:f6:b1:6f:68:d9:90:2a:70:36:2b:21:
                    29:1a:f3:8c:8f:5e:61:66:cf:2b:67:4d:64:74:2d:
                    21:bf:c2:9c:9b:00:b0:0a:fc:3f:6c:e0:50:02:06:
                    65:fb
                Exponent: 65537 (0x10001)
        X509v3 extensions:
            X509v3 Basic Constraints: 
                CA:FALSE
            X509v3 Subject Key Identifier: 
                9C:B9:74:8C:54:1B:FC:FD:37:55:75:A6:E0:18:25:DA:DA:15:72:EF
            X509v3 Authority Key Identifier: 
                keyid:48:6B:B6:32:4F:CD:55:79:2B:AA:A0:83:DB:9E:71:F4:AA:2B:91:42
                DirName:/CN=team155-net
                serial:66:8E:9F:23:20:8F:66:C5:9B:5D:8E:F5:78:36:AC:82:E0:1C:6B:1D

            X509v3 Extended Key Usage: 
                TLS Web Client Authentication
            X509v3 Key Usage: 
                Digital Signature
    Signature Algorithm: sha256WithRSAEncryption
         81:ac:61:c6:56:47:dd:83:20:94:92:db:a9:7a:5e:e8:e7:ae:
         31:a3:45:6a:f5:e2:fb:07:64:da:a9:b5:dc:72:dc:e1:fd:69:
         f3:24:55:87:58:02:db:84:29:58:5d:d5:8d:bb:0e:9e:f7:bf:
         7a:d0:53:a8:fe:2c:cb:74:00:52:df:22:e2:2f:02:e7:ec:26:
         02:e7:53:ec:ad:fc:3b:f8:ab:cb:57:e5:b7:4a:5f:26:72:d5:
         79:3b:9c:f0:55:14:b2:9f:ea:1b:da:9d:6f:cf:21:24:99:55:
         b8:2d:bb:d2:b2:18:42:e4:07:1b:ca:4b:5b:3d:f3:2b:59:ac:
         2a:15:9e:fe:0f:09:92:ab:b5:c1:ab:33:07:38:ca:7c:bf:15:
         62:ac:2f:83:39:8a:c0:e3:66:b6:27:5c:6e:54:ff:48:85:e8:
         41:3c:76:8d:03:65:b4:a4:a5:8e:a7:1d:23:de:25:84:1b:0b:
         44:b4:36:bd:db:85:49:4a:a5:2e:41:d0:ec:f4:cf:87:de:33:
         dd:31:ec:0f:60:01:ab:4b:7b:76:ea:e4:9b:26:5b:aa:f2:f3:
         27:7f:79:a8:c7:10:ae:1d:0a:6f:17:06:56:ea:9c:1c:73:16:
         6c:45:ab:a1:3e:0d:ee:21:6e:8d:44:3f:8b:68:cd:54:37:8a:
         c2:a3:ec:19
-----BEGIN CERTIFICATE-----
MIIDXTCCAkWgAwIBAgIRAOnXDmaXJARNYSkskbgwWoAwDQYJKoZIhvcNAQELBQAw
FjEUMBIGA1UEAwwLdGVhbTE1NS1uZXQwHhcNMjIwNTE4MTgzNzU5WhcNMjUwNTAy
MTgzNzU5WjAZMRcwFQYDVQQDDA50ZWFtMTU1LWNsaWVudDCCASIwDQYJKoZIhvcN
AQEBBQADggEPADCCAQoCggEBAKRVOhGdwWiN/xjm+9Z3MNFG2S/rYP2sW2HKyof3
NyovV397+TW6We5GxtmvyUhB3fHaHOspe9K14WKjWzE+qsMb1rVbe/mrinRCLHji
6UPdrokqqFM7un4oCpYbJ5onUP7diMBlXravs/fzUUtG6yTWOFSidZHg7HEsf6pg
TUnAesi6vSsC3ujxlCwdmPwkrPGfdAZOJnohIHg1cEtqQuzW3ZEFQYvYqlNoejzI
uoyuUfo2lYHRUUw/6dlJFvYbXWMCryS39vk7KbOCFhGUoW7lQXE+Xvaxb2jZkCpw
NishKRrzjI9eYWbPK2dNZHQtIb/CnJsAsAr8P2zgUAIGZfsCAwEAAaOBojCBnzAJ
BgNVHRMEAjAAMB0GA1UdDgQWBBScuXSMVBv8/TdVdabgGCXa2hVy7zBRBgNVHSME
SjBIgBRIa7YyT81VeSuqoIPbnnH0qiuRQqEapBgwFjEUMBIGA1UEAwwLdGVhbTE1
NS1uZXSCFGaOnyMgj2bFm12O9Xg2rILgHGsdMBMGA1UdJQQMMAoGCCsGAQUFBwMC
MAsGA1UdDwQEAwIHgDANBgkqhkiG9w0BAQsFAAOCAQEAgaxhxlZH3YMglJLbqXpe
6OeuMaNFavXi+wdk2qm13HLc4f1p8yRVh1gC24QpWF3VjbsOnve/etBTqP4sy3QA
Ut8i4i8C5+wmAudT7K38O/iry1flt0pfJnLVeTuc8FUUsp/qG9qdb88hJJlVuC27
0rIYQuQHG8pLWz3zK1msKhWe/g8Jkqu1waszBzjKfL8VYqwvgzmKwONmtidcblT/
SIXoQTx2jQNltKSljqcdI94lhBsLRLQ2vduFSUqlLkHQ7PTPh94z3THsD2ABq0t7
durkmyZbqvLzJ395qMcQrh0KbxcGVuqcHHMWbEWroT4N7iFujUQ/i2jNVDeKwqPs
GQ==
-----END CERTIFICATE-----
