Certificate:
    Data:
        Version: 3 (0x2)
        Serial Number:
            5a:67:df:18:f2:5b:54:c7:ad:51:9d:12:d7:e1:60:78
        Signature Algorithm: sha256WithRSAEncryption
        Issuer: CN=team135-net
        Validity
            Not Before: May 18 15:15:42 2022 GMT
            Not After : May  2 15:15:42 2025 GMT
        Subject: CN=team135-client
        Subject Public Key Info:
            Public Key Algorithm: rsaEncryption
                RSA Public-Key: (2048 bit)
                Modulus:
                    00:e8:6a:76:43:3a:a9:cc:7f:07:86:79:e7:41:2b:
                    26:df:e4:da:76:b9:79:64:b0:08:31:e6:71:5e:ac:
                    04:3a:78:95:69:50:62:0a:72:a3:a8:6f:b4:64:93:
                    f4:e7:d7:6e:df:4f:c4:d2:52:2d:5d:75:57:2a:00:
                    c1:f4:32:18:bf:7d:8c:1f:a2:09:95:99:1b:e1:1a:
                    0f:f5:d7:b8:f6:c5:2d:f6:3f:d5:70:de:d0:04:c2:
                    19:d1:60:c2:6d:03:1a:01:62:1a:74:33:46:fa:0f:
                    94:4f:ce:4a:74:6b:01:3b:6a:2d:9f:c6:93:e4:87:
                    a3:7a:fb:33:67:10:05:8e:b7:d7:36:1d:93:da:bb:
                    23:dd:bf:b6:93:53:21:eb:35:34:d9:b7:20:0f:33:
                    2b:31:d4:30:ce:32:50:2d:dc:b7:61:8f:5a:7e:1d:
                    ac:98:fd:f9:40:d4:75:54:78:32:3e:0b:75:f1:ff:
                    bb:aa:3e:dd:b4:a8:bb:98:36:21:cf:10:01:3a:9c:
                    b0:56:cf:d4:be:12:d3:18:89:20:d3:cf:e0:aa:1b:
                    ce:1b:b3:a3:7c:d2:4f:46:6e:9b:41:3e:0d:db:c1:
                    23:c7:12:02:67:40:d6:fe:c3:86:d1:b5:c7:d5:8e:
                    35:e4:ce:21:6c:57:d9:c9:5f:19:ca:e5:1d:ed:a3:
                    de:1d
                Exponent: 65537 (0x10001)
        X509v3 extensions:
            X509v3 Basic Constraints: 
                CA:FALSE
            X509v3 Subject Key Identifier: 
                15:58:1B:DF:7D:BF:CB:97:F8:3C:29:62:F8:3F:C7:6B:08:27:89:A4
            X509v3 Authority Key Identifier: 
                keyid:C8:C9:B4:DF:A4:60:A1:13:2E:2F:E6:CD:C4:85:D5:08:AF:07:33:41
                DirName:/CN=team135-net
                serial:74:72:57:0E:5D:8C:1D:C3:2A:15:4A:5C:12:80:86:5F:00:2E:5C:3D

            X509v3 Extended Key Usage: 
                TLS Web Client Authentication
            X509v3 Key Usage: 
                Digital Signature
    Signature Algorithm: sha256WithRSAEncryption
         a4:ea:60:41:c2:f3:30:9b:fa:e7:c6:57:27:cb:7a:98:ac:86:
         d4:3f:8f:e2:6c:62:df:11:32:f4:ab:31:b6:c0:4a:a2:0b:e8:
         4c:6f:34:0a:b3:c3:13:12:67:70:85:fe:27:27:96:91:6e:3c:
         ac:8f:e4:0e:3b:f9:c2:68:93:9a:17:4e:e0:d8:ca:3a:e0:37:
         a1:11:91:07:d7:09:e4:df:09:af:ae:0c:2f:d9:99:12:52:2c:
         48:51:e6:81:01:45:59:48:19:18:2a:8c:26:09:bf:b6:b6:4c:
         9f:2a:26:51:3b:9f:e0:84:74:45:24:b1:85:9b:b3:4f:fd:32:
         1b:c6:b3:80:be:d9:b5:7e:d1:14:97:f0:fb:b4:c3:c8:68:0a:
         3a:f8:ed:03:c4:d9:2c:39:d7:5b:96:81:4b:59:a0:0b:b7:8f:
         4a:ff:4b:1c:6e:dc:3d:fc:46:9e:a9:41:2f:91:75:1f:84:e2:
         8b:6e:18:1f:32:95:7f:c8:3a:aa:89:a9:0d:d4:a1:99:c8:8c:
         0e:36:69:f5:48:82:72:1e:03:6d:c9:7c:e4:b0:7d:84:85:5b:
         e9:80:5d:18:ac:c8:21:09:b7:fb:dd:3b:e0:5f:72:3f:29:39:
         c7:3d:b6:7f:6f:b4:04:fb:85:57:c4:f1:0c:95:da:44:92:cb:
         28:64:8f:57
-----BEGIN CERTIFICATE-----
MIIDXDCCAkSgAwIBAgIQWmffGPJbVMetUZ0S1+FgeDANBgkqhkiG9w0BAQsFADAW
MRQwEgYDVQQDDAt0ZWFtMTM1LW5ldDAeFw0yMjA1MTgxNTE1NDJaFw0yNTA1MDIx
NTE1NDJaMBkxFzAVBgNVBAMMDnRlYW0xMzUtY2xpZW50MIIBIjANBgkqhkiG9w0B
AQEFAAOCAQ8AMIIBCgKCAQEA6Gp2QzqpzH8HhnnnQSsm3+Tadrl5ZLAIMeZxXqwE
OniVaVBiCnKjqG+0ZJP059du30/E0lItXXVXKgDB9DIYv32MH6IJlZkb4RoP9de4
9sUt9j/VcN7QBMIZ0WDCbQMaAWIadDNG+g+UT85KdGsBO2otn8aT5IejevszZxAF
jrfXNh2T2rsj3b+2k1Mh6zU02bcgDzMrMdQwzjJQLdy3YY9afh2smP35QNR1VHgy
Pgt18f+7qj7dtKi7mDYhzxABOpywVs/UvhLTGIkg08/gqhvOG7OjfNJPRm6bQT4N
28EjxxICZ0DW/sOG0bXH1Y415M4hbFfZyV8ZyuUd7aPeHQIDAQABo4GiMIGfMAkG
A1UdEwQCMAAwHQYDVR0OBBYEFBVYG999v8uX+DwpYvg/x2sIJ4mkMFEGA1UdIwRK
MEiAFMjJtN+kYKETLi/mzcSF1QivBzNBoRqkGDAWMRQwEgYDVQQDDAt0ZWFtMTM1
LW5ldIIUdHJXDl2MHcMqFUpcEoCGXwAuXD0wEwYDVR0lBAwwCgYIKwYBBQUHAwIw
CwYDVR0PBAQDAgeAMA0GCSqGSIb3DQEBCwUAA4IBAQCk6mBBwvMwm/rnxlcny3qY
rIbUP4/ibGLfETL0qzG2wEqiC+hMbzQKs8MTEmdwhf4nJ5aRbjysj+QOO/nCaJOa
F07g2Mo64DehEZEH1wnk3wmvrgwv2ZkSUixIUeaBAUVZSBkYKowmCb+2tkyfKiZR
O5/ghHRFJLGFm7NP/TIbxrOAvtm1ftEUl/D7tMPIaAo6+O0DxNksOddbloFLWaAL
t49K/0scbtw9/EaeqUEvkXUfhOKLbhgfMpV/yDqqiakN1KGZyIwONmn1SIJyHgNt
yXzksH2EhVvpgF0YrMghCbf73TvgX3I/KTnHPbZ/b7QE+4VXxPEMldpEkssoZI9X
-----END CERTIFICATE-----
