Certificate:
    Data:
        Version: 3 (0x2)
        Serial Number:
            32:b3:c3:47:f4:00:4c:50:9c:4b:c7:69:4a:97:47:26
        Signature Algorithm: sha256WithRSAEncryption
        Issuer: CN=team227-net
        Validity
            Not Before: May 18 19:24:23 2022 GMT
            Not After : May  2 19:24:23 2025 GMT
        Subject: CN=team227-client
        Subject Public Key Info:
            Public Key Algorithm: rsaEncryption
                RSA Public-Key: (2048 bit)
                Modulus:
                    00:c3:8e:9b:4b:e2:90:e5:c4:61:c8:87:79:1b:5a:
                    4b:7d:89:ba:e3:69:60:9c:c1:ee:d4:31:a1:34:b1:
                    d9:23:d0:91:27:4c:9e:04:3e:df:c9:89:3d:c8:27:
                    a1:c8:14:0d:6a:ad:12:71:1d:94:ec:6c:03:79:71:
                    10:9f:ed:99:75:10:8d:7b:06:68:9a:c5:fc:fb:44:
                    a4:54:aa:08:05:93:9e:6f:d2:fa:46:14:00:b6:ff:
                    4b:f4:52:7e:73:9b:93:42:7f:a3:d7:1e:fa:b9:54:
                    6f:8a:96:ca:b7:a6:7b:d3:2d:76:47:2b:09:3a:2a:
                    87:ae:e2:a4:fb:60:74:3d:a4:e8:ea:11:ec:20:36:
                    b2:06:03:3a:09:ec:13:eb:8e:df:bd:c7:4e:ac:82:
                    69:e7:2b:de:f3:2e:84:e8:52:c3:fc:50:37:58:12:
                    2a:3a:dd:06:59:49:01:95:d2:0f:8b:a3:e0:96:e3:
                    34:7e:30:07:25:d0:b7:33:05:9d:b6:92:d5:27:84:
                    46:7c:75:f7:8c:c9:87:ad:ab:49:8c:9a:aa:7c:49:
                    66:2c:67:5b:8f:24:c1:0a:6c:ee:d1:8a:ae:b9:7d:
                    37:c4:ec:c9:b9:3a:67:a9:f3:3d:dc:f3:0c:e7:66:
                    93:93:1d:4c:ff:64:8b:4a:8c:ea:91:53:48:11:ca:
                    df:33
                Exponent: 65537 (0x10001)
        X509v3 extensions:
            X509v3 Basic Constraints: 
                CA:FALSE
            X509v3 Subject Key Identifier: 
                2E:C2:5B:E6:F1:47:E7:E0:1D:33:87:09:77:6D:DC:93:39:04:9E:64
            X509v3 Authority Key Identifier: 
                keyid:A3:AA:16:3D:19:20:A5:A1:4E:88:37:EB:92:87:C9:10:30:82:9E:E8
                DirName:/CN=team227-net
                serial:13:38:AC:09:8A:3E:58:9F:8E:A5:49:0F:54:64:D5:5E:6F:14:E0:47

            X509v3 Extended Key Usage: 
                TLS Web Client Authentication
            X509v3 Key Usage: 
                Digital Signature
    Signature Algorithm: sha256WithRSAEncryption
         a4:51:f0:c3:f0:e6:db:39:22:75:b1:3e:04:bb:85:b5:07:fe:
         5c:ff:0e:72:86:4c:fb:fe:f1:82:dd:8a:eb:57:6c:c7:9c:e6:
         57:4d:b2:de:56:2d:80:36:c9:ab:4d:fb:a7:f5:3c:1b:5d:23:
         6a:7e:e6:c8:55:7c:ba:4c:17:14:41:85:99:78:0b:5a:88:75:
         1c:f1:28:c3:32:dc:2b:5e:6e:81:fe:13:75:4e:ee:15:3a:f4:
         88:03:8e:e5:06:e6:3b:22:28:51:a8:aa:b9:cb:75:b2:3c:05:
         c9:ae:66:4d:6f:e6:d1:cd:6b:d4:e3:50:36:b0:60:ee:52:dc:
         ea:98:e8:bc:35:3d:cf:01:ad:94:64:66:d3:07:2a:15:6d:50:
         92:88:41:30:c6:b5:10:b8:57:e5:2d:fe:f0:85:23:fc:be:12:
         ba:1e:1b:6b:f2:19:78:35:15:d6:05:c7:2d:bd:14:61:77:d1:
         ca:74:63:3c:7e:ee:3f:aa:c7:79:e3:a7:08:69:22:9a:7e:44:
         4e:62:fb:c2:e6:1d:6c:59:e5:aa:03:42:d3:58:b3:73:00:20:
         6f:ab:1f:66:8d:44:e5:8e:68:6d:45:fa:82:c5:24:32:c8:d9:
         f5:61:11:78:49:e2:c3:cd:5e:01:4f:94:a7:14:3c:32:5e:0d:
         ac:68:7f:c4
-----BEGIN CERTIFICATE-----
MIIDXDCCAkSgAwIBAgIQMrPDR/QATFCcS8dpSpdHJjANBgkqhkiG9w0BAQsFADAW
MRQwEgYDVQQDDAt0ZWFtMjI3LW5ldDAeFw0yMjA1MTgxOTI0MjNaFw0yNTA1MDIx
OTI0MjNaMBkxFzAVBgNVBAMMDnRlYW0yMjctY2xpZW50MIIBIjANBgkqhkiG9w0B
AQEFAAOCAQ8AMIIBCgKCAQEAw46bS+KQ5cRhyId5G1pLfYm642lgnMHu1DGhNLHZ
I9CRJ0yeBD7fyYk9yCehyBQNaq0ScR2U7GwDeXEQn+2ZdRCNewZomsX8+0SkVKoI
BZOeb9L6RhQAtv9L9FJ+c5uTQn+j1x76uVRvipbKt6Z70y12RysJOiqHruKk+2B0
PaTo6hHsIDayBgM6CewT647fvcdOrIJp5yve8y6E6FLD/FA3WBIqOt0GWUkBldIP
i6PgluM0fjAHJdC3MwWdtpLVJ4RGfHX3jMmHratJjJqqfElmLGdbjyTBCmzu0Yqu
uX03xOzJuTpnqfM93PMM52aTkx1M/2SLSozqkVNIEcrfMwIDAQABo4GiMIGfMAkG
A1UdEwQCMAAwHQYDVR0OBBYEFC7CW+bxR+fgHTOHCXdt3JM5BJ5kMFEGA1UdIwRK
MEiAFKOqFj0ZIKWhTog365KHyRAwgp7ooRqkGDAWMRQwEgYDVQQDDAt0ZWFtMjI3
LW5ldIIUEzisCYo+WJ+OpUkPVGTVXm8U4EcwEwYDVR0lBAwwCgYIKwYBBQUHAwIw
CwYDVR0PBAQDAgeAMA0GCSqGSIb3DQEBCwUAA4IBAQCkUfDD8ObbOSJ1sT4Eu4W1
B/5c/w5yhkz7/vGC3YrrV2zHnOZXTbLeVi2ANsmrTfun9TwbXSNqfubIVXy6TBcU
QYWZeAtaiHUc8SjDMtwrXm6B/hN1Tu4VOvSIA47lBuY7IihRqKq5y3WyPAXJrmZN
b+bRzWvU41A2sGDuUtzqmOi8NT3PAa2UZGbTByoVbVCSiEEwxrUQuFflLf7whSP8
vhK6Hhtr8hl4NRXWBcctvRRhd9HKdGM8fu4/qsd546cIaSKafkROYvvC5h1sWeWq
A0LTWLNzACBvqx9mjUTljmhtRfqCxSQyyNn1YRF4SeLDzV4BT5SnFDwyXg2saH/E
-----END CERTIFICATE-----
