Certificate:
    Data:
        Version: 3 (0x2)
        Serial Number:
            74:fc:35:6c:c1:0d:3f:26:56:17:79:84:84:9b:8d:f6
        Signature Algorithm: sha256WithRSAEncryption
        Issuer: CN=team253-net
        Validity
            Not Before: May 18 19:40:14 2022 GMT
            Not After : May  2 19:40:14 2025 GMT
        Subject: CN=team253-client
        Subject Public Key Info:
            Public Key Algorithm: rsaEncryption
                RSA Public-Key: (2048 bit)
                Modulus:
                    00:ad:d8:de:5f:49:42:3a:6f:06:54:11:16:b6:d8:
                    70:46:0b:72:2a:e5:ad:d7:22:18:aa:38:27:0b:e7:
                    b1:4d:e6:9e:80:36:23:ee:43:e9:53:db:3b:e9:b8:
                    6c:72:d8:e8:51:7f:82:b4:c9:c3:31:3c:f5:a4:b2:
                    33:35:28:d9:4d:fd:4c:80:8c:80:fe:a2:99:90:66:
                    5e:c5:38:86:df:e0:04:fd:fc:7c:c9:49:98:12:f7:
                    73:49:13:9f:2a:e6:6e:da:19:64:b6:3c:80:5a:a6:
                    cb:5f:83:f3:ee:ac:a5:d0:d6:d8:f8:79:a7:a1:49:
                    8d:e6:5d:30:f8:d6:76:e4:ee:89:84:1f:f1:47:c4:
                    fa:08:b1:cb:2b:4f:b6:42:e2:44:3c:58:80:c6:4f:
                    f9:43:72:ba:a4:03:06:cb:00:e9:16:ee:1b:94:ee:
                    bb:cc:96:01:78:a0:b5:39:7d:37:68:82:67:e8:00:
                    3c:be:8a:b7:d1:ed:c2:22:7d:b7:f6:c7:56:51:23:
                    76:01:f1:36:5d:0b:1e:0d:43:5e:f0:e4:3d:1a:1b:
                    5c:4c:fe:d3:10:71:55:39:ec:48:af:e6:d0:0e:0a:
                    f8:32:5b:1a:90:8a:17:98:ec:85:b8:1e:23:08:a7:
                    7c:95:28:94:b2:27:67:1c:4a:23:9e:21:c7:65:0a:
                    6c:31
                Exponent: 65537 (0x10001)
        X509v3 extensions:
            X509v3 Basic Constraints: 
                CA:FALSE
            X509v3 Subject Key Identifier: 
                58:AD:AD:89:7F:B8:BA:04:7E:73:C5:DA:8A:AB:20:30:97:29:F1:E3
            X509v3 Authority Key Identifier: 
                keyid:BC:BA:99:3B:56:9F:9F:E7:67:8F:BC:D5:0C:0E:56:C6:B7:96:9F:FE
                DirName:/CN=team253-net
                serial:7B:4A:0F:8C:1E:24:4C:B4:5D:DC:E2:71:B9:EB:39:91:A8:D4:0D:E4

            X509v3 Extended Key Usage: 
                TLS Web Client Authentication
            X509v3 Key Usage: 
                Digital Signature
    Signature Algorithm: sha256WithRSAEncryption
         84:cd:cd:85:28:59:0b:85:c3:81:6e:ad:0b:17:a8:62:65:07:
         3b:c7:f8:18:97:3d:a6:ac:3f:9e:71:4a:e3:09:4c:ed:55:28:
         73:ee:0c:0c:d7:b4:35:73:48:f0:83:6a:1b:a7:76:a0:c3:65:
         cb:d6:8d:e2:c9:82:1a:4b:62:0f:13:35:56:cc:44:b2:70:b4:
         83:0a:18:d7:c5:9e:f9:b3:e4:fe:e8:4a:c6:5e:c0:9d:1e:52:
         09:b4:82:2a:27:56:6f:08:e4:68:f8:9d:fb:d8:f8:fc:8d:e1:
         1e:4d:fb:e6:f1:5f:90:4f:a9:f7:59:7a:a7:0c:ef:12:84:f6:
         63:e3:18:96:22:75:a1:bc:c2:1b:9d:82:ec:3e:9f:47:e4:83:
         1c:68:ac:ac:39:35:f3:b9:60:cb:3d:80:4e:ce:75:96:29:d6:
         1b:ed:6f:6f:2c:a0:e2:13:af:ef:11:9e:d4:a4:7c:a7:81:ae:
         49:68:56:5b:f8:b1:98:9e:e4:42:f1:87:6e:7c:17:df:fe:6e:
         ee:48:74:fe:0f:b1:1c:dd:a4:e4:8f:43:93:c4:2a:28:9d:3f:
         c0:62:ba:4a:60:33:20:97:ba:16:aa:75:60:18:77:6d:60:bb:
         4f:1e:23:f6:c0:76:ff:8f:57:b8:27:3c:2f:16:58:65:e5:0a:
         a9:e8:bb:a4
-----BEGIN CERTIFICATE-----
MIIDXDCCAkSgAwIBAgIQdPw1bMENPyZWF3mEhJuN9jANBgkqhkiG9w0BAQsFADAW
MRQwEgYDVQQDDAt0ZWFtMjUzLW5ldDAeFw0yMjA1MTgxOTQwMTRaFw0yNTA1MDIx
OTQwMTRaMBkxFzAVBgNVBAMMDnRlYW0yNTMtY2xpZW50MIIBIjANBgkqhkiG9w0B
AQEFAAOCAQ8AMIIBCgKCAQEArdjeX0lCOm8GVBEWtthwRgtyKuWt1yIYqjgnC+ex
TeaegDYj7kPpU9s76bhsctjoUX+CtMnDMTz1pLIzNSjZTf1MgIyA/qKZkGZexTiG
3+AE/fx8yUmYEvdzSROfKuZu2hlktjyAWqbLX4Pz7qyl0NbY+HmnoUmN5l0w+NZ2
5O6JhB/xR8T6CLHLK0+2QuJEPFiAxk/5Q3K6pAMGywDpFu4blO67zJYBeKC1OX03
aIJn6AA8voq30e3CIn239sdWUSN2AfE2XQseDUNe8OQ9GhtcTP7TEHFVOexIr+bQ
Dgr4MlsakIoXmOyFuB4jCKd8lSiUsidnHEojniHHZQpsMQIDAQABo4GiMIGfMAkG
A1UdEwQCMAAwHQYDVR0OBBYEFFitrYl/uLoEfnPF2oqrIDCXKfHjMFEGA1UdIwRK
MEiAFLy6mTtWn5/nZ4+81QwOVsa3lp/+oRqkGDAWMRQwEgYDVQQDDAt0ZWFtMjUz
LW5ldIIUe0oPjB4kTLRd3OJxues5kajUDeQwEwYDVR0lBAwwCgYIKwYBBQUHAwIw
CwYDVR0PBAQDAgeAMA0GCSqGSIb3DQEBCwUAA4IBAQCEzc2FKFkLhcOBbq0LF6hi
ZQc7x/gYlz2mrD+ecUrjCUztVShz7gwM17Q1c0jwg2obp3agw2XL1o3iyYIaS2IP
EzVWzESycLSDChjXxZ75s+T+6ErGXsCdHlIJtIIqJ1ZvCORo+J372Pj8jeEeTfvm
8V+QT6n3WXqnDO8ShPZj4xiWInWhvMIbnYLsPp9H5IMcaKysOTXzuWDLPYBOznWW
KdYb7W9vLKDiE6/vEZ7UpHynga5JaFZb+LGYnuRC8YdufBff/m7uSHT+D7Ec3aTk
j0OTxCoonT/AYrpKYDMgl7oWqnVgGHdtYLtPHiP2wHb/j1e4JzwvFlhl5Qqp6Luk
-----END CERTIFICATE-----
