Certificate:
    Data:
        Version: 3 (0x2)
        Serial Number:
            17:cc:9e:f5:b7:2a:6b:4e:39:cc:10:13:aa:48:0f:1f
        Signature Algorithm: sha256WithRSAEncryption
        Issuer: CN=team216-net
        Validity
            Not Before: May 18 19:18:59 2022 GMT
            Not After : May  2 19:18:59 2025 GMT
        Subject: CN=team216-client
        Subject Public Key Info:
            Public Key Algorithm: rsaEncryption
                RSA Public-Key: (2048 bit)
                Modulus:
                    00:e8:62:f9:40:cd:9e:4f:b5:13:9b:6b:17:3d:3b:
                    55:7e:44:58:2d:06:59:3c:9c:bb:80:e1:4e:b0:f3:
                    3b:26:a9:8e:82:e3:2a:b9:fd:e2:4c:67:c2:4e:39:
                    73:f0:5f:a9:18:b8:7c:c4:02:ff:8e:91:d2:d9:a4:
                    02:71:51:3c:19:17:30:dc:74:37:db:72:d4:03:f4:
                    2e:aa:af:a5:4a:18:04:1d:a7:c1:2a:93:ad:5f:23:
                    13:ce:2d:61:1c:01:44:dc:6e:73:5b:79:78:39:f6:
                    e4:de:dc:e6:be:2e:ee:b6:9b:b1:1e:42:38:ed:27:
                    67:78:9f:e2:bc:d1:ca:1d:ec:0f:cc:90:95:1a:97:
                    3d:b8:f6:66:b1:db:e9:4a:9a:b7:30:6f:72:b5:f8:
                    eb:fe:93:18:26:b4:1c:49:f9:82:49:a9:88:2d:5e:
                    8c:77:4d:07:57:e5:ca:2d:d5:9a:1f:a8:29:7a:db:
                    0d:56:75:70:b3:69:31:98:a9:24:44:4f:8e:f5:ab:
                    7c:3f:56:73:75:86:ad:24:8f:93:e0:08:b0:49:56:
                    86:4b:f2:c6:cc:3b:35:03:d5:35:c4:7d:12:02:c7:
                    a5:85:c4:44:d4:e6:10:b5:db:bc:fb:15:54:d4:28:
                    ad:4d:07:0e:bf:37:4b:d9:30:17:7c:a7:5d:f5:6a:
                    d0:75
                Exponent: 65537 (0x10001)
        X509v3 extensions:
            X509v3 Basic Constraints: 
                CA:FALSE
            X509v3 Subject Key Identifier: 
                DF:0D:57:89:BF:F4:2D:36:DE:41:82:93:44:52:DB:5A:5D:66:5A:D5
            X509v3 Authority Key Identifier: 
                keyid:AA:4C:D7:BD:39:61:C2:EB:67:66:0C:B8:15:B4:EF:EC:8E:67:99:2F
                DirName:/CN=team216-net
                serial:49:B2:A3:F8:A4:61:34:1E:B6:F1:0C:C1:76:86:C6:81:91:78:DB:39

            X509v3 Extended Key Usage: 
                TLS Web Client Authentication
            X509v3 Key Usage: 
                Digital Signature
    Signature Algorithm: sha256WithRSAEncryption
         a5:b5:57:56:9f:a2:e7:8d:f1:ad:76:19:58:a6:77:39:f1:cb:
         a4:16:34:92:d0:a5:0a:70:f0:4c:bf:00:ed:73:fe:45:5c:90:
         69:70:b3:79:ed:c7:75:a0:10:12:f5:2e:ac:30:97:34:ca:aa:
         96:9f:6b:65:9f:5c:96:91:21:34:80:38:a9:7d:06:13:46:7a:
         ec:aa:b5:c4:c1:a1:67:5d:7f:0b:c9:21:5a:3a:d3:03:4d:2a:
         b3:0e:7d:b9:d1:ec:b3:d1:18:86:0a:18:a7:57:aa:65:a6:9b:
         a2:7d:dd:5c:e5:3b:5d:6e:46:77:eb:95:c1:71:63:08:91:b1:
         00:18:8f:1b:75:b0:e2:7e:4e:95:a2:a4:47:05:5b:fc:17:e6:
         b1:98:c2:2a:d5:17:28:bd:2f:bf:f7:a8:67:a0:32:e9:f9:51:
         19:54:ef:25:e2:91:4f:e4:6e:57:24:b4:20:cd:d2:20:b7:73:
         32:e7:4d:2d:fb:75:29:8c:0c:34:e7:e3:46:79:55:8b:14:80:
         97:25:a6:26:19:55:b9:4b:0c:25:f2:f8:fb:8d:f9:ab:5b:6c:
         e5:80:2a:9c:03:ff:d7:06:a3:f9:88:81:3f:6e:2b:83:92:45:
         1f:2f:c8:be:6a:43:91:4b:b6:a0:39:75:bd:64:d3:e4:a6:da:
         24:3a:e8:3b
-----BEGIN CERTIFICATE-----
MIIDXDCCAkSgAwIBAgIQF8ye9bcqa045zBATqkgPHzANBgkqhkiG9w0BAQsFADAW
MRQwEgYDVQQDDAt0ZWFtMjE2LW5ldDAeFw0yMjA1MTgxOTE4NTlaFw0yNTA1MDIx
OTE4NTlaMBkxFzAVBgNVBAMMDnRlYW0yMTYtY2xpZW50MIIBIjANBgkqhkiG9w0B
AQEFAAOCAQ8AMIIBCgKCAQEA6GL5QM2eT7UTm2sXPTtVfkRYLQZZPJy7gOFOsPM7
JqmOguMquf3iTGfCTjlz8F+pGLh8xAL/jpHS2aQCcVE8GRcw3HQ323LUA/Quqq+l
ShgEHafBKpOtXyMTzi1hHAFE3G5zW3l4Ofbk3tzmvi7utpuxHkI47SdneJ/ivNHK
HewPzJCVGpc9uPZmsdvpSpq3MG9ytfjr/pMYJrQcSfmCSamILV6Md00HV+XKLdWa
H6gpetsNVnVws2kxmKkkRE+O9at8P1ZzdYatJI+T4AiwSVaGS/LGzDs1A9U1xH0S
AselhcRE1OYQtdu8+xVU1CitTQcOvzdL2TAXfKdd9WrQdQIDAQABo4GiMIGfMAkG
A1UdEwQCMAAwHQYDVR0OBBYEFN8NV4m/9C023kGCk0RS21pdZlrVMFEGA1UdIwRK
MEiAFKpM1705YcLrZ2YMuBW07+yOZ5kvoRqkGDAWMRQwEgYDVQQDDAt0ZWFtMjE2
LW5ldIIUSbKj+KRhNB628QzBdobGgZF42zkwEwYDVR0lBAwwCgYIKwYBBQUHAwIw
CwYDVR0PBAQDAgeAMA0GCSqGSIb3DQEBCwUAA4IBAQCltVdWn6LnjfGtdhlYpnc5
8cukFjSS0KUKcPBMvwDtc/5FXJBpcLN57cd1oBAS9S6sMJc0yqqWn2tln1yWkSE0
gDipfQYTRnrsqrXEwaFnXX8LySFaOtMDTSqzDn250eyz0RiGChinV6plppuifd1c
5TtdbkZ365XBcWMIkbEAGI8bdbDifk6VoqRHBVv8F+axmMIq1RcovS+/96hnoDLp
+VEZVO8l4pFP5G5XJLQgzdIgt3My500t+3UpjAw05+NGeVWLFICXJaYmGVW5Swwl
8vj7jfmrW2zlgCqcA//XBqP5iIE/biuDkkUfL8i+akORS7agOXW9ZNPkptokOug7
-----END CERTIFICATE-----
