Certificate:
    Data:
        Version: 3 (0x2)
        Serial Number:
            f7:07:a6:4f:1b:87:29:f6:d0:67:30:af:1c:74:3d:65
        Signature Algorithm: sha256WithRSAEncryption
        Issuer: CN=team216-net
        Validity
            Not Before: May 18 19:18:59 2022 GMT
            Not After : May  2 19:18:59 2025 GMT
        Subject: CN=team216-server
        Subject Public Key Info:
            Public Key Algorithm: rsaEncryption
                RSA Public-Key: (2048 bit)
                Modulus:
                    00:db:36:40:c9:ef:1d:5e:fa:32:46:ae:27:ea:ec:
                    9b:63:08:87:21:a5:c7:4f:39:5f:65:71:5e:b1:a6:
                    82:ff:57:a0:09:ee:7e:9a:d9:5b:d3:87:3f:3b:47:
                    84:69:6a:34:1c:9d:4d:11:71:e3:13:56:7d:a3:f7:
                    d6:c8:50:38:fe:22:be:b9:01:70:0b:96:99:85:38:
                    d7:24:e4:ee:e6:68:b6:33:71:87:63:77:be:d4:b6:
                    27:8c:cf:c7:86:d6:c6:3b:33:c5:58:f5:f3:08:fd:
                    7c:21:85:21:54:e8:2c:f2:f3:d3:82:1d:78:17:da:
                    22:cb:7f:46:99:e9:2c:ae:1f:27:f6:49:ea:a8:5e:
                    36:fb:1d:51:7d:2d:b2:6d:78:18:c7:c8:de:57:f4:
                    73:cc:7a:e0:8c:73:45:97:27:72:49:82:e7:d7:44:
                    19:a2:79:c3:fc:4d:43:01:9b:7f:4c:37:31:b3:49:
                    2f:25:14:0a:45:bf:4c:91:9e:bd:7e:07:53:f3:26:
                    b8:7c:ab:9c:1b:27:62:e7:f9:2f:9e:ca:a6:2e:01:
                    72:cd:5b:d1:14:46:64:f4:93:f3:66:ed:81:b8:21:
                    71:53:64:52:b8:42:30:3b:f6:26:31:44:2c:76:f0:
                    6c:d4:ab:0b:61:ab:39:95:cf:50:f0:01:27:d1:52:
                    f9:6f
                Exponent: 65537 (0x10001)
        X509v3 extensions:
            X509v3 Basic Constraints: 
                CA:FALSE
            X509v3 Subject Key Identifier: 
                71:EE:F6:A2:B8:3E:4F:C5:E2:EE:58:8A:81:C5:DB:A8:EA:2C:63:37
            X509v3 Authority Key Identifier: 
                keyid:AA:4C:D7:BD:39:61:C2:EB:67:66:0C:B8:15:B4:EF:EC:8E:67:99:2F
                DirName:/CN=team216-net
                serial:49:B2:A3:F8:A4:61:34:1E:B6:F1:0C:C1:76:86:C6:81:91:78:DB:39

            X509v3 Extended Key Usage: 
                TLS Web Server Authentication
            X509v3 Key Usage: 
                Digital Signature, Key Encipherment
            X509v3 Subject Alternative Name: 
                DNS:team216-server
    Signature Algorithm: sha256WithRSAEncryption
         26:3f:0e:c3:86:eb:9f:18:61:9f:f5:16:29:39:e7:b6:d2:4f:
         50:cb:28:4b:3d:30:db:61:db:28:dc:7b:86:d1:5e:80:6a:a2:
         49:84:7f:46:e3:dd:c8:40:29:b3:5f:95:69:07:76:62:43:32:
         ed:22:f5:9f:3b:24:c1:d7:e2:5c:64:db:82:99:d4:20:db:ef:
         6d:ee:f7:97:28:89:c6:5f:a6:85:cf:f8:52:69:36:3d:ac:3f:
         87:a4:a2:79:da:0c:a3:c3:a9:d0:f9:2d:ea:97:c6:4d:e6:96:
         51:62:b5:cf:3b:7f:cf:aa:66:71:ce:10:da:b7:4e:4c:93:8c:
         7b:28:01:77:8e:aa:a5:0d:69:5d:79:d8:39:40:86:60:d4:e9:
         d6:e1:92:0d:56:9a:9d:b5:92:3e:be:9c:ba:95:79:0e:52:b1:
         4c:36:38:e4:a9:02:ce:b0:02:73:d6:8e:f1:db:64:53:68:e9:
         da:3f:d3:06:6a:a2:9d:46:8c:04:8f:e6:9c:11:0d:1c:80:50:
         f7:51:ba:61:c8:26:b7:bf:01:08:2c:7b:a2:e0:b7:27:70:db:
         39:0d:a6:5d:95:0a:43:59:80:db:b4:8f:c9:08:57:94:00:af:
         49:94:ab:a7:07:17:dc:36:19:23:f2:21:78:b7:b5:ea:95:0a:
         48:88:9f:b5
-----BEGIN CERTIFICATE-----
MIIDeDCCAmCgAwIBAgIRAPcHpk8bhyn20Gcwrxx0PWUwDQYJKoZIhvcNAQELBQAw
FjEUMBIGA1UEAwwLdGVhbTIxNi1uZXQwHhcNMjIwNTE4MTkxODU5WhcNMjUwNTAy
MTkxODU5WjAZMRcwFQYDVQQDDA50ZWFtMjE2LXNlcnZlcjCCASIwDQYJKoZIhvcN
AQEBBQADggEPADCCAQoCggEBANs2QMnvHV76MkauJ+rsm2MIhyGlx085X2VxXrGm
gv9XoAnufprZW9OHPztHhGlqNBydTRFx4xNWfaP31shQOP4ivrkBcAuWmYU41yTk
7uZotjNxh2N3vtS2J4zPx4bWxjszxVj18wj9fCGFIVToLPLz04IdeBfaIst/Rpnp
LK4fJ/ZJ6qheNvsdUX0tsm14GMfI3lf0c8x64IxzRZcnckmC59dEGaJ5w/xNQwGb
f0w3MbNJLyUUCkW/TJGevX4HU/MmuHyrnBsnYuf5L57Kpi4Bcs1b0RRGZPST82bt
gbghcVNkUrhCMDv2JjFELHbwbNSrC2GrOZXPUPABJ9FS+W8CAwEAAaOBvTCBujAJ
BgNVHRMEAjAAMB0GA1UdDgQWBBRx7vaiuD5PxeLuWIqBxduo6ixjNzBRBgNVHSME
SjBIgBSqTNe9OWHC62dmDLgVtO/sjmeZL6EapBgwFjEUMBIGA1UEAwwLdGVhbTIx
Ni1uZXSCFEmyo/ikYTQetvEMwXaGxoGReNs5MBMGA1UdJQQMMAoGCCsGAQUFBwMB
MAsGA1UdDwQEAwIFoDAZBgNVHREEEjAQgg50ZWFtMjE2LXNlcnZlcjANBgkqhkiG
9w0BAQsFAAOCAQEAJj8Ow4brnxhhn/UWKTnnttJPUMsoSz0w22HbKNx7htFegGqi
SYR/RuPdyEAps1+VaQd2YkMy7SL1nzskwdfiXGTbgpnUINvvbe73lyiJxl+mhc/4
Umk2Paw/h6SiedoMo8Op0Pkt6pfGTeaWUWK1zzt/z6pmcc4Q2rdOTJOMeygBd46q
pQ1pXXnYOUCGYNTp1uGSDVaanbWSPr6cupV5DlKxTDY45KkCzrACc9aO8dtkU2jp
2j/TBmqinUaMBI/mnBENHIBQ91G6Ycgmt78BCCx7ouC3J3DbOQ2mXZUKQ1mA27SP
yQhXlACvSZSrpwcX3DYZI/IheLe16pUKSIiftQ==
-----END CERTIFICATE-----
