Certificate:
    Data:
        Version: 3 (0x2)
        Serial Number:
            ab:a0:bd:e0:92:80:67:dd:96:4c:4e:67:23:7b:67:a4
        Signature Algorithm: sha256WithRSAEncryption
        Issuer: CN=team332-net
        Validity
            Not Before: May 18 20:18:00 2022 GMT
            Not After : May  2 20:18:00 2025 GMT
        Subject: CN=team332-client
        Subject Public Key Info:
            Public Key Algorithm: rsaEncryption
                RSA Public-Key: (2048 bit)
                Modulus:
                    00:9f:2d:76:e4:d8:d4:52:9f:03:c1:0a:20:7b:1e:
                    f5:39:af:2e:87:b7:e9:26:e9:53:41:86:56:ee:9f:
                    93:c0:41:88:62:f3:f1:91:14:9c:41:b6:25:94:c3:
                    1f:c2:7e:b0:42:be:16:42:43:84:ef:0d:13:01:cc:
                    c8:ac:7d:c5:34:55:3a:5a:dc:06:ab:a9:d7:74:60:
                    b3:bc:d0:79:18:c6:48:96:e7:ac:1d:dc:33:2b:92:
                    8f:63:67:84:0d:b1:8b:2f:04:ff:17:73:dd:c1:b3:
                    ff:44:31:db:14:f2:a2:0a:92:cd:db:ad:f9:ed:4a:
                    64:ec:71:ae:be:61:46:40:c6:d3:07:1b:db:b8:b9:
                    76:6b:b6:e0:72:86:43:44:df:56:a8:42:f6:c6:6c:
                    c4:29:7e:f3:25:21:b3:95:cf:c3:80:cb:bc:f9:8d:
                    a1:7e:30:9b:c7:e5:3e:7f:39:9c:fe:de:d8:1d:33:
                    eb:30:09:ee:69:6b:84:e2:1f:33:7e:c1:bb:51:43:
                    cf:2f:79:4a:10:6f:81:f1:5f:c3:ed:93:4a:bd:c7:
                    2b:aa:8e:cc:80:bf:87:d7:3c:f4:47:24:ca:93:3d:
                    68:c6:56:cf:d1:40:32:b3:ee:0e:30:06:a4:f5:f8:
                    e0:72:7f:2e:2b:b5:ea:9c:94:c7:19:d4:8f:6c:02:
                    26:f3
                Exponent: 65537 (0x10001)
        X509v3 extensions:
            X509v3 Basic Constraints: 
                CA:FALSE
            X509v3 Subject Key Identifier: 
                B3:8E:37:17:75:22:16:8C:2C:12:A9:06:10:0D:03:D9:77:C6:F3:74
            X509v3 Authority Key Identifier: 
                keyid:B7:19:BB:76:7D:BB:84:BE:06:B8:BC:07:19:D5:2B:62:40:29:53:21
                DirName:/CN=team332-net
                serial:62:70:F6:35:DD:AA:7B:0B:E3:CE:C9:F1:81:2C:5D:5A:B4:74:45:AF

            X509v3 Extended Key Usage: 
                TLS Web Client Authentication
            X509v3 Key Usage: 
                Digital Signature
    Signature Algorithm: sha256WithRSAEncryption
         2e:fa:e5:9c:e8:ac:41:70:d2:c9:1b:40:c8:dc:71:97:d3:43:
         84:cc:93:29:27:9f:7d:75:3d:ca:94:73:a2:26:cf:ee:25:ee:
         bb:be:ab:67:c9:5b:4f:73:bb:55:f4:c4:96:d4:48:d8:ce:f5:
         e6:b6:73:6c:20:f4:71:88:4e:f3:af:4f:85:95:32:8e:c1:19:
         23:aa:c2:78:6d:56:e7:49:ce:a2:5f:53:35:03:a2:dc:a0:e8:
         a7:59:16:1c:6b:2d:e6:e1:b2:34:c3:31:55:59:0d:a8:d8:4c:
         7f:93:e6:bb:11:f7:5f:70:79:22:13:c6:f7:42:17:40:fa:4a:
         26:74:62:df:a7:e4:d1:11:97:8a:6a:dc:b0:4b:b2:59:d9:00:
         ef:20:59:bb:cc:a6:07:a9:96:3a:b2:48:51:05:3e:0e:84:60:
         9b:88:80:31:12:cb:ce:0e:3e:38:fb:85:47:82:ff:e7:50:5d:
         79:5a:d6:30:3d:da:cd:04:0d:ce:50:58:82:61:b2:7f:89:f6:
         e2:b2:fd:5c:4d:56:c5:71:a6:cd:45:e2:e1:69:db:37:a2:22:
         86:b8:7a:0d:44:de:33:f0:5a:a6:91:81:ef:0e:7c:0c:87:83:
         d6:31:07:88:67:40:f9:15:a2:c1:cf:43:66:80:e2:be:e1:60:
         04:38:6a:ff
-----BEGIN CERTIFICATE-----
MIIDXTCCAkWgAwIBAgIRAKugveCSgGfdlkxOZyN7Z6QwDQYJKoZIhvcNAQELBQAw
FjEUMBIGA1UEAwwLdGVhbTMzMi1uZXQwHhcNMjIwNTE4MjAxODAwWhcNMjUwNTAy
MjAxODAwWjAZMRcwFQYDVQQDDA50ZWFtMzMyLWNsaWVudDCCASIwDQYJKoZIhvcN
AQEBBQADggEPADCCAQoCggEBAJ8tduTY1FKfA8EKIHse9TmvLoe36SbpU0GGVu6f
k8BBiGLz8ZEUnEG2JZTDH8J+sEK+FkJDhO8NEwHMyKx9xTRVOlrcBqup13Rgs7zQ
eRjGSJbnrB3cMyuSj2NnhA2xiy8E/xdz3cGz/0Qx2xTyogqSzdut+e1KZOxxrr5h
RkDG0wcb27i5dmu24HKGQ0TfVqhC9sZsxCl+8yUhs5XPw4DLvPmNoX4wm8flPn85
nP7e2B0z6zAJ7mlrhOIfM37Bu1FDzy95ShBvgfFfw+2TSr3HK6qOzIC/h9c89Eck
ypM9aMZWz9FAMrPuDjAGpPX44HJ/Liu16pyUxxnUj2wCJvMCAwEAAaOBojCBnzAJ
BgNVHRMEAjAAMB0GA1UdDgQWBBSzjjcXdSIWjCwSqQYQDQPZd8bzdDBRBgNVHSME
SjBIgBS3Gbt2fbuEvga4vAcZ1StiQClTIaEapBgwFjEUMBIGA1UEAwwLdGVhbTMz
Mi1uZXSCFGJw9jXdqnsL487J8YEsXVq0dEWvMBMGA1UdJQQMMAoGCCsGAQUFBwMC
MAsGA1UdDwQEAwIHgDANBgkqhkiG9w0BAQsFAAOCAQEALvrlnOisQXDSyRtAyNxx
l9NDhMyTKSeffXU9ypRzoibP7iXuu76rZ8lbT3O7VfTEltRI2M715rZzbCD0cYhO
869PhZUyjsEZI6rCeG1W50nOol9TNQOi3KDop1kWHGst5uGyNMMxVVkNqNhMf5Pm
uxH3X3B5IhPG90IXQPpKJnRi36fk0RGXimrcsEuyWdkA7yBZu8ymB6mWOrJIUQU+
DoRgm4iAMRLLzg4+OPuFR4L/51BdeVrWMD3azQQNzlBYgmGyf4n24rL9XE1WxXGm
zUXi4WnbN6Iihrh6DUTeM/BappGB7w58DIeD1jEHiGdA+RWiwc9DZoDivuFgBDhq
/w==
-----END CERTIFICATE-----
