Certificate:
    Data:
        Version: 3 (0x2)
        Serial Number:
            cd:e0:8c:fb:3e:5d:be:4c:b8:d8:46:2a:d4:4b:72:b7
        Signature Algorithm: sha256WithRSAEncryption
        Issuer: CN=team332-net
        Validity
            Not Before: May 18 20:18:00 2022 GMT
            Not After : May  2 20:18:00 2025 GMT
        Subject: CN=team332-server
        Subject Public Key Info:
            Public Key Algorithm: rsaEncryption
                RSA Public-Key: (2048 bit)
                Modulus:
                    00:b9:be:9f:d9:07:24:82:03:62:fb:91:26:2b:ac:
                    46:2d:e1:56:cb:ff:4f:bb:9f:f7:a0:94:78:05:d4:
                    b4:28:85:44:1d:06:8f:83:d1:34:51:9d:82:32:41:
                    27:73:ff:c8:c4:77:e4:f4:51:1b:46:46:5b:13:5c:
                    67:49:b3:c5:b7:4a:42:51:5f:08:9e:4f:85:b0:18:
                    98:53:a9:9e:b2:cc:27:13:8a:a4:22:d0:bb:25:d4:
                    82:a1:3a:b7:30:b2:8f:73:fc:c6:56:43:d8:72:d5:
                    6c:31:9c:09:fc:bd:5d:81:10:42:33:2e:b8:ab:22:
                    b5:cc:aa:1d:00:ec:56:bb:2b:47:59:d3:d1:d1:61:
                    a1:7a:88:7b:29:80:d4:f3:37:c8:fe:e2:f2:8f:1f:
                    8e:d6:b2:76:90:33:8d:30:4a:d5:02:a7:e9:85:7d:
                    77:94:e9:d3:53:5c:9a:f3:47:e4:10:05:e7:fa:6d:
                    42:07:9d:b9:f4:d2:8a:a5:90:f2:48:1d:b7:a1:33:
                    e6:12:6a:32:e5:63:e7:81:d9:c1:e4:b7:e4:e2:1a:
                    35:52:00:ad:bc:56:2d:39:f9:e6:6b:ff:63:43:cf:
                    50:9e:13:52:6e:b0:24:18:73:49:f8:42:12:ca:78:
                    e4:0e:19:6c:eb:4b:19:d3:e3:86:90:d7:7d:a8:a0:
                    8e:f7
                Exponent: 65537 (0x10001)
        X509v3 extensions:
            X509v3 Basic Constraints: 
                CA:FALSE
            X509v3 Subject Key Identifier: 
                F5:E0:DE:46:FC:6B:CB:70:DC:B4:22:FA:66:7A:3C:89:FC:AE:86:52
            X509v3 Authority Key Identifier: 
                keyid:B7:19:BB:76:7D:BB:84:BE:06:B8:BC:07:19:D5:2B:62:40:29:53:21
                DirName:/CN=team332-net
                serial:62:70:F6:35:DD:AA:7B:0B:E3:CE:C9:F1:81:2C:5D:5A:B4:74:45:AF

            X509v3 Extended Key Usage: 
                TLS Web Server Authentication
            X509v3 Key Usage: 
                Digital Signature, Key Encipherment
            X509v3 Subject Alternative Name: 
                DNS:team332-server
    Signature Algorithm: sha256WithRSAEncryption
         2d:aa:63:7d:af:65:59:ef:c4:04:7b:4f:41:f7:4b:ec:be:b8:
         19:1d:3f:a1:7d:fe:6f:2c:c3:dc:fb:a1:0b:9d:68:0e:bb:a9:
         86:81:6e:17:39:81:48:df:4b:24:43:04:94:f1:53:ef:90:f1:
         85:ba:00:fd:c9:f9:14:cc:f6:a8:ac:d9:a9:8a:70:89:f6:48:
         5b:8c:08:25:05:fd:63:da:c4:5d:d5:f4:64:21:63:c2:85:5d:
         a1:11:b5:d3:d1:75:81:10:1e:15:ac:96:b7:8d:62:7e:e5:6b:
         3d:26:42:5f:90:3a:a7:2a:14:01:08:8c:f4:a4:99:a0:1a:de:
         38:67:2b:4a:69:56:42:28:b7:a1:92:9c:dd:d8:b8:e0:05:6e:
         4e:20:85:b5:eb:4a:a7:29:83:31:c3:bc:49:85:b0:c3:16:9f:
         8d:cf:40:be:06:37:04:47:a9:c7:b5:63:23:f3:8b:bf:9a:f9:
         b8:60:e2:ce:ad:9d:7c:2a:01:38:66:74:5a:77:52:0e:56:3c:
         06:b3:86:d3:7d:bf:cb:0d:d5:fb:02:b0:bf:45:7d:a2:20:ea:
         84:6e:7b:f6:b5:9b:8e:32:d0:5d:b0:97:89:ec:7c:b4:36:b5:
         ea:0b:d6:6a:90:d8:ce:44:80:14:f3:c7:3e:49:cd:26:1d:1b:
         17:92:65:55
-----BEGIN CERTIFICATE-----
MIIDeDCCAmCgAwIBAgIRAM3gjPs+Xb5MuNhGKtRLcrcwDQYJKoZIhvcNAQELBQAw
FjEUMBIGA1UEAwwLdGVhbTMzMi1uZXQwHhcNMjIwNTE4MjAxODAwWhcNMjUwNTAy
MjAxODAwWjAZMRcwFQYDVQQDDA50ZWFtMzMyLXNlcnZlcjCCASIwDQYJKoZIhvcN
AQEBBQADggEPADCCAQoCggEBALm+n9kHJIIDYvuRJiusRi3hVsv/T7uf96CUeAXU
tCiFRB0Gj4PRNFGdgjJBJ3P/yMR35PRRG0ZGWxNcZ0mzxbdKQlFfCJ5PhbAYmFOp
nrLMJxOKpCLQuyXUgqE6tzCyj3P8xlZD2HLVbDGcCfy9XYEQQjMuuKsitcyqHQDs
VrsrR1nT0dFhoXqIeymA1PM3yP7i8o8fjtaydpAzjTBK1QKn6YV9d5Tp01NcmvNH
5BAF5/ptQgedufTSiqWQ8kgdt6Ez5hJqMuVj54HZweS35OIaNVIArbxWLTn55mv/
Y0PPUJ4TUm6wJBhzSfhCEsp45A4ZbOtLGdPjhpDXfaigjvcCAwEAAaOBvTCBujAJ
BgNVHRMEAjAAMB0GA1UdDgQWBBT14N5G/GvLcNy0IvpmejyJ/K6GUjBRBgNVHSME
SjBIgBS3Gbt2fbuEvga4vAcZ1StiQClTIaEapBgwFjEUMBIGA1UEAwwLdGVhbTMz
Mi1uZXSCFGJw9jXdqnsL487J8YEsXVq0dEWvMBMGA1UdJQQMMAoGCCsGAQUFBwMB
MAsGA1UdDwQEAwIFoDAZBgNVHREEEjAQgg50ZWFtMzMyLXNlcnZlcjANBgkqhkiG
9w0BAQsFAAOCAQEALapjfa9lWe/EBHtPQfdL7L64GR0/oX3+byzD3PuhC51oDrup
hoFuFzmBSN9LJEMElPFT75DxhboA/cn5FMz2qKzZqYpwifZIW4wIJQX9Y9rEXdX0
ZCFjwoVdoRG109F1gRAeFayWt41ifuVrPSZCX5A6pyoUAQiM9KSZoBreOGcrSmlW
Qii3oZKc3di44AVuTiCFtetKpymDMcO8SYWwwxafjc9AvgY3BEepx7VjI/OLv5r5
uGDizq2dfCoBOGZ0WndSDlY8BrOG032/yw3V+wKwv0V9oiDqhG579rWbjjLQXbCX
iex8tDa16gvWapDYzkSAFPPHPknNJh0bF5JlVQ==
-----END CERTIFICATE-----
