Certificate:
    Data:
        Version: 3 (0x2)
        Serial Number:
            c4:64:8a:32:e0:0d:bf:c2:64:fc:64:6d:8f:a1:86:44
        Signature Algorithm: sha256WithRSAEncryption
        Issuer: CN=team508-net
        Validity
            Not Before: May 18 21:58:23 2022 GMT
            Not After : May  2 21:58:23 2025 GMT
        Subject: CN=team508-server
        Subject Public Key Info:
            Public Key Algorithm: rsaEncryption
                RSA Public-Key: (2048 bit)
                Modulus:
                    00:d9:78:98:4f:f7:5c:49:5d:63:bb:c3:8e:8f:d9:
                    fe:91:1f:fc:f2:9e:fb:80:a3:44:f9:47:f2:6c:f7:
                    b7:cc:ef:c5:29:eb:bb:f5:9e:ab:24:cd:47:14:43:
                    26:cd:36:a6:af:71:34:91:a4:dd:fa:e8:ea:81:33:
                    59:43:48:85:e9:b2:da:18:4f:32:4b:36:0f:a1:31:
                    5c:d3:91:41:6d:13:57:06:5b:d5:c9:3c:c0:4e:a6:
                    ad:6e:01:98:fa:37:5a:46:4f:a0:48:f7:d7:24:1d:
                    a4:5e:8a:a2:d8:46:e0:8e:7d:20:36:77:43:8f:0c:
                    b3:24:77:9b:9a:d4:7b:f7:d5:f1:9d:c1:93:9e:6c:
                    51:66:fa:4b:ab:01:3b:a2:a9:9e:5f:41:53:84:09:
                    d9:24:4b:7c:7e:14:21:cc:4a:18:43:69:ea:18:1e:
                    81:78:9b:65:c2:3a:a8:19:c1:98:48:80:91:12:d3:
                    05:ae:15:a1:e3:dc:d6:ff:e0:c8:c5:93:18:e6:ff:
                    ff:29:33:80:3a:80:7d:61:9e:cc:62:93:69:4b:92:
                    a3:d8:2d:36:36:4c:61:d2:d9:f1:49:ad:88:32:c4:
                    11:0d:7f:57:29:9c:e7:57:69:58:e9:14:e8:77:67:
                    6a:91:4b:70:d0:4a:a2:be:8e:4b:d0:a5:5d:2e:f4:
                    47:13
                Exponent: 65537 (0x10001)
        X509v3 extensions:
            X509v3 Basic Constraints: 
                CA:FALSE
            X509v3 Subject Key Identifier: 
                50:82:8C:48:29:8A:87:EB:51:C2:88:AA:9B:47:F3:7E:D8:DB:50:6B
            X509v3 Authority Key Identifier: 
                keyid:67:E7:A0:DC:BA:C4:7B:FE:03:6A:20:17:DA:98:53:21:77:CA:9F:2A
                DirName:/CN=team508-net
                serial:18:09:7B:16:E5:D1:04:C4:17:31:09:DD:3C:48:2E:8D:4B:2E:72:76

            X509v3 Extended Key Usage: 
                TLS Web Server Authentication
            X509v3 Key Usage: 
                Digital Signature, Key Encipherment
            X509v3 Subject Alternative Name: 
                DNS:team508-server
    Signature Algorithm: sha256WithRSAEncryption
         63:33:ca:b5:3a:a6:8b:79:1e:6b:c5:87:d1:3c:dc:50:74:f3:
         fe:ba:d6:4e:a3:05:cb:16:bc:82:fa:cb:ac:7f:12:19:ea:04:
         70:62:22:7b:21:34:d1:97:ea:e7:d8:48:ee:ad:66:fc:de:8f:
         ed:ab:59:db:25:04:9a:70:5b:fe:57:1f:97:b1:ea:fc:d5:14:
         2b:d3:58:74:a7:c0:47:ac:0f:a9:b1:ac:8a:e7:6c:0b:11:d3:
         6f:0a:94:29:c9:47:09:35:3f:27:39:88:07:10:af:86:8d:4f:
         07:4e:95:8a:05:02:a3:30:ad:45:f7:48:67:e6:25:14:b1:50:
         da:d8:92:96:61:8e:e9:70:8d:0a:37:ac:2a:64:53:60:b1:18:
         9a:8d:2a:8c:12:23:d6:7e:75:63:75:c4:6b:a5:79:50:59:7d:
         87:55:02:1a:36:89:f2:01:b6:c1:9b:48:14:bc:16:f2:f8:8b:
         a5:9a:3e:0b:4b:85:96:34:89:ac:71:9c:da:95:d9:06:89:ee:
         a5:e2:62:08:be:ce:7b:f2:96:dc:51:62:b2:c3:2d:04:42:70:
         21:af:49:ae:bb:21:2e:be:5d:a1:f8:88:1b:09:ad:cb:8d:0f:
         ef:09:6a:52:c1:6a:2e:c3:c7:03:3c:7b:53:b1:09:3e:84:7f:
         86:9e:0f:42
-----BEGIN CERTIFICATE-----
MIIDeDCCAmCgAwIBAgIRAMRkijLgDb/CZPxkbY+hhkQwDQYJKoZIhvcNAQELBQAw
FjEUMBIGA1UEAwwLdGVhbTUwOC1uZXQwHhcNMjIwNTE4MjE1ODIzWhcNMjUwNTAy
MjE1ODIzWjAZMRcwFQYDVQQDDA50ZWFtNTA4LXNlcnZlcjCCASIwDQYJKoZIhvcN
AQEBBQADggEPADCCAQoCggEBANl4mE/3XEldY7vDjo/Z/pEf/PKe+4CjRPlH8mz3
t8zvxSnru/WeqyTNRxRDJs02pq9xNJGk3fro6oEzWUNIhemy2hhPMks2D6ExXNOR
QW0TVwZb1ck8wE6mrW4BmPo3WkZPoEj31yQdpF6KothG4I59IDZ3Q48MsyR3m5rU
e/fV8Z3Bk55sUWb6S6sBO6Kpnl9BU4QJ2SRLfH4UIcxKGENp6hgegXibZcI6qBnB
mEiAkRLTBa4VoePc1v/gyMWTGOb//ykzgDqAfWGezGKTaUuSo9gtNjZMYdLZ8Umt
iDLEEQ1/Vymc51dpWOkU6HdnapFLcNBKor6OS9ClXS70RxMCAwEAAaOBvTCBujAJ
BgNVHRMEAjAAMB0GA1UdDgQWBBRQgoxIKYqH61HCiKqbR/N+2NtQazBRBgNVHSME
SjBIgBRn56DcusR7/gNqIBfamFMhd8qfKqEapBgwFjEUMBIGA1UEAwwLdGVhbTUw
OC1uZXSCFBgJexbl0QTEFzEJ3TxILo1LLnJ2MBMGA1UdJQQMMAoGCCsGAQUFBwMB
MAsGA1UdDwQEAwIFoDAZBgNVHREEEjAQgg50ZWFtNTA4LXNlcnZlcjANBgkqhkiG
9w0BAQsFAAOCAQEAYzPKtTqmi3kea8WH0TzcUHTz/rrWTqMFyxa8gvrLrH8SGeoE
cGIieyE00Zfq59hI7q1m/N6P7atZ2yUEmnBb/lcfl7Hq/NUUK9NYdKfAR6wPqbGs
iudsCxHTbwqUKclHCTU/JzmIBxCvho1PB06VigUCozCtRfdIZ+YlFLFQ2tiSlmGO
6XCNCjesKmRTYLEYmo0qjBIj1n51Y3XEa6V5UFl9h1UCGjaJ8gG2wZtIFLwW8viL
pZo+C0uFljSJrHGc2pXZBonupeJiCL7Oe/KW3FFissMtBEJwIa9JrrshLr5dofiI
Gwmty40P7wlqUsFqLsPHAzx7U7EJPoR/hp4PQg==
-----END CERTIFICATE-----
