Certificate:
    Data:
        Version: 3 (0x2)
        Serial Number:
            4e:c6:0f:4b:32:67:7a:78:dc:5e:0a:37:a0:97:17:aa
        Signature Algorithm: sha256WithRSAEncryption
        Issuer: CN=team235-net
        Validity
            Not Before: May 18 19:32:32 2022 GMT
            Not After : May  2 19:32:32 2025 GMT
        Subject: CN=team235-client
        Subject Public Key Info:
            Public Key Algorithm: rsaEncryption
                RSA Public-Key: (2048 bit)
                Modulus:
                    00:df:79:b0:bd:55:f5:55:5d:30:ff:c7:ce:e8:71:
                    c1:cb:eb:e0:7d:9d:bb:66:ef:99:85:59:68:f3:58:
                    e6:8f:63:0e:8f:89:bf:c1:9e:f1:9b:09:5a:94:26:
                    f3:78:27:8e:03:1b:12:0e:e2:3f:b0:6c:04:dc:4b:
                    cb:44:37:2e:28:2d:83:83:1b:1e:05:a6:58:a5:09:
                    cc:cc:d7:82:d4:53:a2:5c:73:10:aa:90:f4:05:79:
                    52:b3:ad:47:48:38:fb:a0:95:0c:de:a0:12:34:cb:
                    f7:a6:47:12:7f:c4:84:c1:a9:05:30:1d:35:2a:ea:
                    00:4c:ed:62:47:fc:d1:f3:12:c7:50:19:5b:c2:73:
                    d5:4d:51:08:1f:71:6b:22:a5:18:74:72:ba:27:4a:
                    2c:cb:5c:40:e1:86:e2:e5:81:4d:ba:c0:82:9d:d5:
                    f4:81:72:74:0f:d6:16:da:7f:c9:06:21:60:e4:6c:
                    62:0c:08:5a:ce:9f:15:a4:91:eb:65:ee:b4:d0:1e:
                    bf:f4:46:8f:de:01:24:38:52:6c:52:89:0b:1a:18:
                    5d:32:8e:96:6b:e0:9c:56:87:68:b3:33:cf:36:aa:
                    0d:bb:90:e9:cf:d1:c9:04:ec:50:04:21:d9:e4:57:
                    5b:b7:00:aa:1d:57:7c:c0:cd:48:66:23:06:92:2a:
                    6c:8d
                Exponent: 65537 (0x10001)
        X509v3 extensions:
            X509v3 Basic Constraints: 
                CA:FALSE
            X509v3 Subject Key Identifier: 
                B3:AC:17:C3:46:1D:CE:FB:5D:ED:81:FB:80:B7:27:1B:E9:4B:E9:53
            X509v3 Authority Key Identifier: 
                keyid:98:86:99:02:16:AF:12:47:09:96:60:B1:E7:B4:EB:00:4A:F8:FF:C7
                DirName:/CN=team235-net
                serial:2F:95:71:E5:CB:CC:44:31:80:BC:24:1D:2E:40:E5:F8:9A:88:97:2C

            X509v3 Extended Key Usage: 
                TLS Web Client Authentication
            X509v3 Key Usage: 
                Digital Signature
    Signature Algorithm: sha256WithRSAEncryption
         0f:8d:a8:b6:5c:6e:97:c5:a5:a9:8e:02:7e:ce:07:22:89:5c:
         13:29:91:95:e0:72:80:0e:f3:cb:2b:e5:cf:89:db:ac:c0:b3:
         d9:16:6d:8a:6c:60:03:f6:4c:5c:04:85:15:bc:d4:83:63:bc:
         8d:24:6a:fc:6e:0d:38:01:22:84:c4:8b:8a:67:7b:ac:10:e4:
         08:04:7e:9b:a5:16:d2:5e:4f:5e:e9:c4:d3:16:ee:e9:db:6a:
         69:65:2c:9a:56:c4:c9:bc:d1:57:58:f9:33:5b:ec:a9:ec:a6:
         eb:19:35:4b:a2:81:9a:57:12:8f:47:82:c5:85:3f:6b:4b:be:
         66:58:54:11:59:c6:58:c2:d3:89:10:eb:fb:f0:64:41:ec:f0:
         1f:06:04:c5:3a:77:65:d5:bd:a2:8f:ee:20:d0:90:bd:71:b4:
         2a:fd:c2:46:e6:5f:3d:4d:04:4b:db:a4:0c:fd:68:a8:92:19:
         02:d1:d5:3c:2c:34:c6:fa:89:02:eb:b1:42:55:c9:8e:81:06:
         ea:f4:77:a8:c8:a2:75:4b:e2:76:6d:ab:d6:22:86:45:b8:a0:
         e2:cc:49:51:2a:06:90:6d:34:c7:51:8e:bf:6a:33:ee:10:f0:
         81:fb:7c:44:a1:9c:2d:7d:56:b7:d8:cb:31:0f:71:08:05:67:
         58:0b:a3:24
-----BEGIN CERTIFICATE-----
MIIDXDCCAkSgAwIBAgIQTsYPSzJnenjcXgo3oJcXqjANBgkqhkiG9w0BAQsFADAW
MRQwEgYDVQQDDAt0ZWFtMjM1LW5ldDAeFw0yMjA1MTgxOTMyMzJaFw0yNTA1MDIx
OTMyMzJaMBkxFzAVBgNVBAMMDnRlYW0yMzUtY2xpZW50MIIBIjANBgkqhkiG9w0B
AQEFAAOCAQ8AMIIBCgKCAQEA33mwvVX1VV0w/8fO6HHBy+vgfZ27Zu+ZhVlo81jm
j2MOj4m/wZ7xmwlalCbzeCeOAxsSDuI/sGwE3EvLRDcuKC2DgxseBaZYpQnMzNeC
1FOiXHMQqpD0BXlSs61HSDj7oJUM3qASNMv3pkcSf8SEwakFMB01KuoATO1iR/zR
8xLHUBlbwnPVTVEIH3FrIqUYdHK6J0osy1xA4Ybi5YFNusCCndX0gXJ0D9YW2n/J
BiFg5GxiDAhazp8VpJHrZe600B6/9EaP3gEkOFJsUokLGhhdMo6Wa+CcVodoszPP
NqoNu5Dpz9HJBOxQBCHZ5FdbtwCqHVd8wM1IZiMGkipsjQIDAQABo4GiMIGfMAkG
A1UdEwQCMAAwHQYDVR0OBBYEFLOsF8NGHc77Xe2B+4C3JxvpS+lTMFEGA1UdIwRK
MEiAFJiGmQIWrxJHCZZgsee06wBK+P/HoRqkGDAWMRQwEgYDVQQDDAt0ZWFtMjM1
LW5ldIIUL5Vx5cvMRDGAvCQdLkDl+JqIlywwEwYDVR0lBAwwCgYIKwYBBQUHAwIw
CwYDVR0PBAQDAgeAMA0GCSqGSIb3DQEBCwUAA4IBAQAPjai2XG6XxaWpjgJ+zgci
iVwTKZGV4HKADvPLK+XPiduswLPZFm2KbGAD9kxcBIUVvNSDY7yNJGr8bg04ASKE
xIuKZ3usEOQIBH6bpRbSXk9e6cTTFu7p22ppZSyaVsTJvNFXWPkzW+yp7KbrGTVL
ooGaVxKPR4LFhT9rS75mWFQRWcZYwtOJEOv78GRB7PAfBgTFOndl1b2ij+4g0JC9
cbQq/cJG5l89TQRL26QM/WiokhkC0dU8LDTG+okC67FCVcmOgQbq9HeoyKJ1S+J2
bavWIoZFuKDizElRKgaQbTTHUY6/ajPuEPCB+3xEoZwtfVa32MsxD3EIBWdYC6Mk
-----END CERTIFICATE-----
