Certificate:
    Data:
        Version: 3 (0x2)
        Serial Number:
            08:c6:5b:ef:aa:76:15:19:b8:73:67:b7:a8:3a:2d:cf
        Signature Algorithm: sha256WithRSAEncryption
        Issuer: CN=team714-net
        Validity
            Not Before: May 18 23:54:07 2022 GMT
            Not After : May  2 23:54:07 2025 GMT
        Subject: CN=team714-client
        Subject Public Key Info:
            Public Key Algorithm: rsaEncryption
                RSA Public-Key: (2048 bit)
                Modulus:
                    00:de:03:bb:6e:3e:27:29:30:ea:fc:0d:84:d8:81:
                    a9:3d:57:cb:6e:c0:12:80:8b:28:3b:b5:55:f5:16:
                    05:6b:a2:4c:25:17:87:fe:ee:0a:4b:2f:17:45:b8:
                    11:2c:14:c9:ab:b1:dd:5f:db:21:20:ce:f2:51:d8:
                    68:bb:01:86:5c:bb:bf:7d:77:5a:8f:e1:b1:d6:17:
                    84:79:f7:08:2d:c6:20:4a:a4:46:99:13:09:d3:6c:
                    b9:39:ec:4e:58:07:6e:b8:1c:ab:7f:7b:eb:63:e4:
                    f5:ed:53:f3:90:f6:62:2d:00:80:47:8e:11:e5:91:
                    09:7c:9b:93:2c:90:61:6d:f1:8e:ae:75:44:f8:5d:
                    6b:3b:58:43:fd:23:04:fa:9c:a6:06:d2:d3:c9:1e:
                    a5:d7:57:a5:14:4e:0a:8e:85:ec:4e:42:72:0d:9a:
                    e0:47:f6:24:36:24:0b:88:0d:23:3e:a9:6c:5e:5d:
                    71:0a:4e:46:1f:33:82:f1:45:c9:3a:fb:2e:d7:f3:
                    ca:df:5f:e3:4a:56:b0:6b:14:38:31:69:ef:3a:e3:
                    98:19:ad:52:5d:4d:10:5d:61:84:5e:b7:77:6b:b3:
                    d6:23:2e:bb:b9:fb:8e:1b:3c:44:80:d7:20:69:0a:
                    fd:be:c2:23:cb:b0:36:30:d8:67:d4:8c:b9:84:a7:
                    dc:5d
                Exponent: 65537 (0x10001)
        X509v3 extensions:
            X509v3 Basic Constraints: 
                CA:FALSE
            X509v3 Subject Key Identifier: 
                12:71:C7:52:CA:AD:B3:99:C3:40:F1:25:7F:36:79:E3:B5:B0:2E:BC
            X509v3 Authority Key Identifier: 
                keyid:F5:42:76:B6:CA:A4:A1:60:CC:CE:DB:A5:08:02:B4:48:1A:26:C3:2D
                DirName:/CN=team714-net
                serial:5A:DB:39:40:09:2B:B7:68:B2:03:2C:C7:0A:29:08:9D:D5:D2:13:41

            X509v3 Extended Key Usage: 
                TLS Web Client Authentication
            X509v3 Key Usage: 
                Digital Signature
    Signature Algorithm: sha256WithRSAEncryption
         45:2e:dc:11:de:fd:17:84:20:c3:c4:f7:e1:7e:f4:6a:50:44:
         6a:fd:b9:4c:c9:65:e8:d3:3d:f5:d8:fd:ec:05:8b:d1:c0:71:
         23:34:59:c4:05:3e:d1:56:91:99:ec:42:1d:e2:f2:40:af:df:
         fc:31:b3:1c:87:a8:e8:ee:13:9d:2c:22:a9:ae:15:b5:be:4f:
         29:30:f8:b0:74:e5:b2:e0:08:67:8c:55:cc:ec:22:6e:fa:a7:
         98:d3:fe:9f:59:9c:64:11:20:05:43:0e:c3:61:55:03:1c:30:
         6e:45:92:80:7c:fb:75:1a:a5:4d:8d:4c:c1:33:eb:86:73:9d:
         3b:41:79:45:f0:ed:42:c4:4a:7c:71:55:e7:8b:51:d3:14:45:
         35:ff:30:af:9e:af:6c:60:bf:e5:65:5e:64:69:02:91:40:f4:
         b7:ac:ea:fd:d7:e6:f3:dd:5d:7c:a6:85:17:82:53:86:ea:e8:
         70:8c:01:9d:34:07:77:2f:bd:f3:fa:b5:b7:af:55:f2:27:a7:
         66:c5:17:c2:3b:2c:09:e3:7c:21:f9:d8:40:66:f7:62:d5:f5:
         9c:ac:72:36:7e:72:3d:0b:76:56:31:d8:30:9f:57:c1:38:81:
         c4:38:3a:89:93:30:cc:43:e6:90:76:65:04:24:df:ab:a4:ba:
         d7:8f:b5:f9
-----BEGIN CERTIFICATE-----
MIIDXDCCAkSgAwIBAgIQCMZb76p2FRm4c2e3qDotzzANBgkqhkiG9w0BAQsFADAW
MRQwEgYDVQQDDAt0ZWFtNzE0LW5ldDAeFw0yMjA1MTgyMzU0MDdaFw0yNTA1MDIy
MzU0MDdaMBkxFzAVBgNVBAMMDnRlYW03MTQtY2xpZW50MIIBIjANBgkqhkiG9w0B
AQEFAAOCAQ8AMIIBCgKCAQEA3gO7bj4nKTDq/A2E2IGpPVfLbsASgIsoO7VV9RYF
a6JMJReH/u4KSy8XRbgRLBTJq7HdX9shIM7yUdhouwGGXLu/fXdaj+Gx1heEefcI
LcYgSqRGmRMJ02y5OexOWAduuByrf3vrY+T17VPzkPZiLQCAR44R5ZEJfJuTLJBh
bfGOrnVE+F1rO1hD/SME+pymBtLTyR6l11elFE4KjoXsTkJyDZrgR/YkNiQLiA0j
PqlsXl1xCk5GHzOC8UXJOvsu1/PK31/jSlawaxQ4MWnvOuOYGa1SXU0QXWGEXrd3
a7PWIy67ufuOGzxEgNcgaQr9vsIjy7A2MNhn1Iy5hKfcXQIDAQABo4GiMIGfMAkG
A1UdEwQCMAAwHQYDVR0OBBYEFBJxx1LKrbOZw0DxJX82eeO1sC68MFEGA1UdIwRK
MEiAFPVCdrbKpKFgzM7bpQgCtEgaJsMtoRqkGDAWMRQwEgYDVQQDDAt0ZWFtNzE0
LW5ldIIUWts5QAkrt2iyAyzHCikIndXSE0EwEwYDVR0lBAwwCgYIKwYBBQUHAwIw
CwYDVR0PBAQDAgeAMA0GCSqGSIb3DQEBCwUAA4IBAQBFLtwR3v0XhCDDxPfhfvRq
UERq/blMyWXo0z312P3sBYvRwHEjNFnEBT7RVpGZ7EId4vJAr9/8MbMch6jo7hOd
LCKprhW1vk8pMPiwdOWy4AhnjFXM7CJu+qeY0/6fWZxkESAFQw7DYVUDHDBuRZKA
fPt1GqVNjUzBM+uGc507QXlF8O1CxEp8cVXni1HTFEU1/zCvnq9sYL/lZV5kaQKR
QPS3rOr91+bz3V18poUXglOG6uhwjAGdNAd3L73z+rW3r1XyJ6dmxRfCOywJ43wh
+dhAZvdi1fWcrHI2fnI9C3ZWMdgwn1fBOIHEODqJkzDMQ+aQdmUEJN+rpLrXj7X5
-----END CERTIFICATE-----
