Certificate:
    Data:
        Version: 3 (0x2)
        Serial Number:
            71:33:cb:d2:d2:66:a0:58:35:f2:83:e2:5b:7e:35:9f
        Signature Algorithm: sha256WithRSAEncryption
        Issuer: CN=team471-net
        Validity
            Not Before: May 18 21:35:03 2022 GMT
            Not After : May  2 21:35:03 2025 GMT
        Subject: CN=team471-client
        Subject Public Key Info:
            Public Key Algorithm: rsaEncryption
                RSA Public-Key: (2048 bit)
                Modulus:
                    00:b5:eb:ee:0b:99:48:fa:7c:b7:dc:9f:10:f6:ce:
                    6e:03:bb:22:c9:e5:77:55:8a:1c:7e:59:37:b6:19:
                    e2:93:02:d4:5b:b4:d0:24:a7:23:83:cd:69:db:d0:
                    fe:b3:8a:d6:67:ba:76:cf:14:57:98:91:31:6a:21:
                    7f:f0:12:cd:94:ac:25:ac:c3:67:30:63:84:73:5c:
                    fe:a6:56:7c:40:44:07:f5:db:50:f7:67:9a:1a:ed:
                    42:51:eb:f5:aa:e4:08:78:03:3d:f5:b5:31:19:fb:
                    ab:1b:1d:32:c8:cc:0e:b7:ab:71:f4:8a:78:a8:9f:
                    e2:8f:11:02:9a:33:70:4e:6e:4b:c4:d0:fa:ec:43:
                    5b:28:95:97:f7:20:06:96:68:71:01:f5:89:d2:bb:
                    d1:d8:59:71:77:c2:2c:0a:0a:74:c8:3a:f5:88:77:
                    95:98:30:7c:f6:50:98:60:dd:64:96:51:d1:4f:a7:
                    83:62:61:1b:a9:43:05:87:79:17:3a:9d:1d:6c:0f:
                    d1:08:13:de:4f:84:df:5e:f9:0b:09:d6:4f:0a:66:
                    c5:ee:ac:38:97:60:01:ac:28:f3:60:96:8b:d4:74:
                    83:88:91:f2:d7:3c:30:f6:08:57:24:a5:6d:1e:be:
                    58:34:88:fb:91:61:9b:5f:79:31:fb:6b:87:0e:09:
                    06:3d
                Exponent: 65537 (0x10001)
        X509v3 extensions:
            X509v3 Basic Constraints: 
                CA:FALSE
            X509v3 Subject Key Identifier: 
                4B:11:C4:F2:66:F1:5A:E0:DC:4D:82:FE:06:A7:49:2F:72:F7:01:4B
            X509v3 Authority Key Identifier: 
                keyid:A2:A2:8E:BD:EC:C2:C6:5A:EA:0B:6C:47:76:AB:9C:BE:53:E9:BE:7B
                DirName:/CN=team471-net
                serial:38:78:75:1F:4F:D8:5B:29:7D:22:E3:3A:03:83:4A:26:92:61:E8:3C

            X509v3 Extended Key Usage: 
                TLS Web Client Authentication
            X509v3 Key Usage: 
                Digital Signature
    Signature Algorithm: sha256WithRSAEncryption
         7c:8f:60:bb:c2:92:66:01:c5:48:31:86:d0:1c:f7:88:77:f8:
         62:ae:7c:a8:76:61:fe:4b:d3:24:97:a8:27:b7:ad:9b:50:8b:
         da:5a:ff:77:1d:a4:54:f8:48:8f:d4:bd:0c:b1:e5:b6:8e:64:
         ce:69:c2:37:35:67:6e:29:b2:69:6e:0f:17:0d:1c:a2:eb:5f:
         b7:8a:bf:a6:a2:25:1e:b7:08:66:84:9c:47:c3:92:f5:34:17:
         31:fa:a9:7f:bd:da:1e:79:dc:c6:69:f0:92:eb:6f:17:ac:5d:
         6d:cb:1d:18:81:d9:9b:13:ac:3f:36:4f:14:b3:9e:a9:99:94:
         0c:6c:33:0c:6a:5a:3a:84:d0:bb:19:b0:44:c0:df:ec:d5:1e:
         f9:f6:b6:75:53:46:7a:fe:39:c3:c1:28:d3:f5:a7:ae:1d:a8:
         4c:15:ef:84:86:e9:04:4f:3d:89:13:9a:d5:6b:aa:01:d6:09:
         7d:cc:60:7d:2c:88:67:f2:41:ad:49:66:68:ee:7c:69:bc:f0:
         f5:b1:9b:9e:48:d5:b7:c8:bd:16:22:be:cc:8e:b1:7a:4d:7e:
         57:fd:7d:74:b1:f6:7a:81:84:74:b8:2d:89:c4:03:52:a8:a3:
         ce:f1:c6:8a:36:db:47:8b:af:5c:9a:00:c2:e2:47:8d:20:96:
         62:bc:73:80
-----BEGIN CERTIFICATE-----
MIIDXDCCAkSgAwIBAgIQcTPL0tJmoFg18oPiW341nzANBgkqhkiG9w0BAQsFADAW
MRQwEgYDVQQDDAt0ZWFtNDcxLW5ldDAeFw0yMjA1MTgyMTM1MDNaFw0yNTA1MDIy
MTM1MDNaMBkxFzAVBgNVBAMMDnRlYW00NzEtY2xpZW50MIIBIjANBgkqhkiG9w0B
AQEFAAOCAQ8AMIIBCgKCAQEAtevuC5lI+ny33J8Q9s5uA7siyeV3VYocflk3thni
kwLUW7TQJKcjg81p29D+s4rWZ7p2zxRXmJExaiF/8BLNlKwlrMNnMGOEc1z+plZ8
QEQH9dtQ92eaGu1CUev1quQIeAM99bUxGfurGx0yyMwOt6tx9Ip4qJ/ijxECmjNw
Tm5LxND67ENbKJWX9yAGlmhxAfWJ0rvR2Flxd8IsCgp0yDr1iHeVmDB89lCYYN1k
llHRT6eDYmEbqUMFh3kXOp0dbA/RCBPeT4TfXvkLCdZPCmbF7qw4l2ABrCjzYJaL
1HSDiJHy1zww9ghXJKVtHr5YNIj7kWGbX3kx+2uHDgkGPQIDAQABo4GiMIGfMAkG
A1UdEwQCMAAwHQYDVR0OBBYEFEsRxPJm8Vrg3E2C/ganSS9y9wFLMFEGA1UdIwRK
MEiAFKKijr3swsZa6gtsR3arnL5T6b57oRqkGDAWMRQwEgYDVQQDDAt0ZWFtNDcx
LW5ldIIUOHh1H0/YWyl9IuM6A4NKJpJh6DwwEwYDVR0lBAwwCgYIKwYBBQUHAwIw
CwYDVR0PBAQDAgeAMA0GCSqGSIb3DQEBCwUAA4IBAQB8j2C7wpJmAcVIMYbQHPeI
d/hirnyodmH+S9Mkl6gnt62bUIvaWv93HaRU+EiP1L0MseW2jmTOacI3NWduKbJp
bg8XDRyi61+3ir+moiUetwhmhJxHw5L1NBcx+ql/vdoeedzGafCS628XrF1tyx0Y
gdmbE6w/Nk8Us56pmZQMbDMMalo6hNC7GbBEwN/s1R759rZ1U0Z6/jnDwSjT9aeu
HahMFe+EhukETz2JE5rVa6oB1gl9zGB9LIhn8kGtSWZo7nxpvPD1sZueSNW3yL0W
Ir7MjrF6TX5X/X10sfZ6gYR0uC2JxANSqKPO8caKNttHi69cmgDC4keNIJZivHOA
-----END CERTIFICATE-----
