Certificate:
    Data:
        Version: 3 (0x2)
        Serial Number:
            31:7b:4b:d9:fb:f2:65:6f:65:8c:ee:5f:05:e6:a4:db
        Signature Algorithm: sha256WithRSAEncryption
        Issuer: CN=team725-net
        Validity
            Not Before: May 18 23:58:25 2022 GMT
            Not After : May  2 23:58:25 2025 GMT
        Subject: CN=team725-client
        Subject Public Key Info:
            Public Key Algorithm: rsaEncryption
                RSA Public-Key: (2048 bit)
                Modulus:
                    00:d3:11:a7:a0:ac:f9:7e:a9:65:b3:7c:9a:d4:69:
                    c3:8f:94:86:a0:e5:30:62:46:03:31:67:1a:a0:d4:
                    8c:f1:9f:89:bf:14:0d:9c:c3:a4:66:cb:9f:4f:2b:
                    eb:b8:14:ce:27:dc:d0:d9:f6:9a:cc:ac:42:71:7b:
                    18:a6:77:c1:cd:3a:89:c2:a2:6f:df:d0:0b:df:9d:
                    c3:48:b4:a9:b9:ce:77:c5:21:4d:e7:62:85:01:da:
                    b3:43:c5:12:6d:9d:0e:f4:00:93:35:ae:c8:f1:95:
                    fc:23:f5:72:f4:6d:86:27:1d:ca:1a:f1:be:de:6a:
                    1a:b9:a2:97:5b:fd:f6:84:8c:4f:67:5e:b4:55:03:
                    71:2b:09:62:fb:a0:29:39:8c:ca:a9:5a:40:e3:d8:
                    ac:1b:b3:c6:9b:fc:d9:d5:41:e2:aa:79:fa:ea:ae:
                    2f:9e:23:f4:c1:29:fe:98:1a:ca:10:7e:3e:b2:58:
                    64:df:7b:6b:e4:36:34:c3:ec:c2:ce:4f:9b:ee:8d:
                    dc:76:c8:8c:12:39:e3:a0:be:58:50:f8:63:91:11:
                    a6:88:14:f1:91:31:7f:89:d0:9e:50:19:60:be:d1:
                    94:7c:f7:5d:86:b8:d8:d0:fb:a5:b5:79:46:70:a5:
                    ea:54:6e:ad:f9:69:7b:7e:da:0e:0a:e9:a0:44:67:
                    25:cd
                Exponent: 65537 (0x10001)
        X509v3 extensions:
            X509v3 Basic Constraints: 
                CA:FALSE
            X509v3 Subject Key Identifier: 
                61:4A:0E:E0:FD:68:F3:26:87:4E:11:80:B8:B4:F6:B2:67:D7:A2:21
            X509v3 Authority Key Identifier: 
                keyid:A6:87:8C:F0:C7:1F:49:43:41:0B:8E:08:08:C6:C3:A8:F7:1C:71:F4
                DirName:/CN=team725-net
                serial:18:F3:61:77:20:70:29:BB:6A:AE:A0:49:C7:2C:C3:40:D4:72:3D:06

            X509v3 Extended Key Usage: 
                TLS Web Client Authentication
            X509v3 Key Usage: 
                Digital Signature
    Signature Algorithm: sha256WithRSAEncryption
         46:22:79:4e:ba:25:9f:38:e5:48:fd:88:ef:3d:1c:a0:04:68:
         42:33:75:65:c6:1d:17:4c:28:71:d6:df:06:06:91:f7:fb:9b:
         0e:26:05:df:bc:e1:d3:00:12:92:ea:0b:57:7a:a3:ea:8d:ae:
         7c:42:65:1e:80:8e:58:23:8e:36:9e:e4:03:3e:e5:31:5a:6e:
         1e:36:9c:a4:82:d6:a4:03:9f:3b:70:6d:ab:bd:86:c7:35:cc:
         d9:dd:63:69:0c:b6:7f:15:16:10:d4:80:fb:07:e0:a2:03:3f:
         fa:6d:ce:c7:a8:82:00:d4:56:4b:1e:1a:22:bc:4b:d7:f4:08:
         ae:f4:d9:52:2f:50:b3:1a:81:57:e4:b3:e4:49:6a:a3:23:6d:
         b8:6e:ce:13:4a:0e:ee:bf:f9:8a:05:ea:f3:6c:b2:ad:49:37:
         21:97:11:10:d8:e0:7b:a7:c9:5b:49:74:f7:71:ac:ed:fe:6e:
         49:37:5e:38:ff:cf:61:31:50:73:6f:3e:39:9e:3d:2e:07:9a:
         4b:61:3a:0f:9f:06:b3:c0:57:ae:e5:28:38:e4:8a:32:c3:b0:
         41:a9:4d:a1:32:21:dc:ad:81:cc:8e:91:2d:2f:02:41:2e:eb:
         cd:c6:3f:f8:05:e2:14:bd:8f:25:04:3e:7f:39:95:d2:0c:b2:
         df:53:69:a4
-----BEGIN CERTIFICATE-----
MIIDXDCCAkSgAwIBAgIQMXtL2fvyZW9ljO5fBeak2zANBgkqhkiG9w0BAQsFADAW
MRQwEgYDVQQDDAt0ZWFtNzI1LW5ldDAeFw0yMjA1MTgyMzU4MjVaFw0yNTA1MDIy
MzU4MjVaMBkxFzAVBgNVBAMMDnRlYW03MjUtY2xpZW50MIIBIjANBgkqhkiG9w0B
AQEFAAOCAQ8AMIIBCgKCAQEA0xGnoKz5fqlls3ya1GnDj5SGoOUwYkYDMWcaoNSM
8Z+JvxQNnMOkZsufTyvruBTOJ9zQ2faazKxCcXsYpnfBzTqJwqJv39AL353DSLSp
uc53xSFN52KFAdqzQ8USbZ0O9ACTNa7I8ZX8I/Vy9G2GJx3KGvG+3moauaKXW/32
hIxPZ160VQNxKwli+6ApOYzKqVpA49isG7PGm/zZ1UHiqnn66q4vniP0wSn+mBrK
EH4+slhk33tr5DY0w+zCzk+b7o3cdsiMEjnjoL5YUPhjkRGmiBTxkTF/idCeUBlg
vtGUfPddhrjY0PultXlGcKXqVG6t+Wl7ftoOCumgRGclzQIDAQABo4GiMIGfMAkG
A1UdEwQCMAAwHQYDVR0OBBYEFGFKDuD9aPMmh04RgLi09rJn16IhMFEGA1UdIwRK
MEiAFKaHjPDHH0lDQQuOCAjGw6j3HHH0oRqkGDAWMRQwEgYDVQQDDAt0ZWFtNzI1
LW5ldIIUGPNhdyBwKbtqrqBJxyzDQNRyPQYwEwYDVR0lBAwwCgYIKwYBBQUHAwIw
CwYDVR0PBAQDAgeAMA0GCSqGSIb3DQEBCwUAA4IBAQBGInlOuiWfOOVI/YjvPRyg
BGhCM3Vlxh0XTChx1t8GBpH3+5sOJgXfvOHTABKS6gtXeqPqja58QmUegI5YI442
nuQDPuUxWm4eNpykgtakA587cG2rvYbHNczZ3WNpDLZ/FRYQ1ID7B+CiAz/6bc7H
qIIA1FZLHhoivEvX9Aiu9NlSL1CzGoFX5LPkSWqjI224bs4TSg7uv/mKBerzbLKt
STchlxEQ2OB7p8lbSXT3cazt/m5JN144/89hMVBzbz45nj0uB5pLYToPnwazwFeu
5Sg45Ioyw7BBqU2hMiHcrYHMjpEtLwJBLuvNxj/4BeIUvY8lBD5/OZXSDLLfU2mk
-----END CERTIFICATE-----
