Certificate:
    Data:
        Version: 3 (0x2)
        Serial Number:
            45:77:0a:31:75:63:c0:d1:ac:61:4a:e9:2b:75:b6:04
        Signature Algorithm: sha256WithRSAEncryption
        Issuer: CN=team726-net
        Validity
            Not Before: May 18 23:48:09 2022 GMT
            Not After : May  2 23:48:09 2025 GMT
        Subject: CN=team726-server
        Subject Public Key Info:
            Public Key Algorithm: rsaEncryption
                RSA Public-Key: (2048 bit)
                Modulus:
                    00:9a:7d:77:56:43:d2:97:25:72:fe:07:78:fb:ac:
                    a8:01:34:73:39:e8:21:4e:47:54:e7:8c:1a:79:84:
                    a9:1f:74:59:72:7c:cb:d3:00:21:b1:94:ed:27:d1:
                    1f:5f:d7:c5:8b:5b:11:47:9b:7d:e0:2a:21:1f:a2:
                    23:50:bf:05:08:c3:9d:42:9b:b8:0a:4a:98:29:1f:
                    fb:44:a0:2a:5f:b3:22:51:dd:6e:51:b8:99:01:89:
                    aa:ab:de:d5:78:e7:c6:48:96:ed:b1:44:82:e3:20:
                    cd:cc:e7:ec:a9:c4:59:25:8f:72:00:de:f4:c1:08:
                    93:01:49:3d:0c:8d:4f:6c:c3:49:6b:08:b1:7b:e2:
                    40:d8:ee:fc:7f:3e:d2:2d:39:59:45:91:66:c2:3f:
                    75:4d:f1:fa:f7:ec:3f:4e:30:21:f7:d4:2a:54:ae:
                    09:4e:7d:4a:fa:54:e1:a8:76:c2:c3:fe:51:96:ac:
                    77:5c:74:9a:c4:a1:32:28:85:c5:39:f6:63:d9:69:
                    96:df:19:29:a4:94:fd:75:77:97:d9:d8:76:d5:44:
                    90:1f:20:28:4a:cd:68:33:de:02:b8:ec:d0:51:2e:
                    f5:06:4a:b1:e8:34:59:07:71:f8:29:37:69:62:c2:
                    76:d3:05:12:9a:1a:50:34:40:b9:da:f9:d0:1a:2f:
                    cd:21
                Exponent: 65537 (0x10001)
        X509v3 extensions:
            X509v3 Basic Constraints: 
                CA:FALSE
            X509v3 Subject Key Identifier: 
                95:1B:68:A3:59:9C:72:25:2D:C8:85:2D:91:28:1D:0A:D9:08:13:E4
            X509v3 Authority Key Identifier: 
                keyid:15:77:90:66:C4:F4:44:61:38:97:7F:78:E4:93:EE:35:87:F8:D0:3E
                DirName:/CN=team726-net
                serial:03:0F:B9:E0:5D:26:E5:64:34:61:D7:EE:17:2A:15:A1:69:B6:62:FB

            X509v3 Extended Key Usage: 
                TLS Web Server Authentication
            X509v3 Key Usage: 
                Digital Signature, Key Encipherment
            X509v3 Subject Alternative Name: 
                DNS:team726-server
    Signature Algorithm: sha256WithRSAEncryption
         24:b7:a3:f7:cc:94:e0:f6:50:5b:ce:e1:39:00:e0:a6:a7:de:
         56:65:92:ce:c6:03:d7:6a:6c:9c:64:fe:4d:c2:7b:c0:62:4e:
         7b:ab:2e:89:fd:f8:ef:af:61:2b:c7:71:60:4b:95:ae:64:97:
         f1:a6:e4:6b:2b:d2:97:cf:bf:08:99:0d:14:4e:ca:bc:9e:99:
         03:fd:ff:e6:fa:f4:d8:c6:c1:5c:ca:f8:2a:8c:ee:fd:1f:36:
         f9:bc:02:92:98:a8:a0:a7:86:df:b4:c2:f9:e3:95:0e:b2:64:
         9a:0b:ac:69:43:94:7a:68:e1:9a:74:a5:88:8f:77:f4:85:f4:
         7a:06:ee:95:07:a3:d1:08:88:27:aa:2c:d1:5f:1f:7e:aa:4c:
         bc:e3:f9:9b:a5:87:16:75:70:c5:39:33:7f:0a:cb:16:23:9f:
         af:5f:30:16:20:02:8e:a1:65:ae:18:7d:56:ee:51:49:cf:2e:
         8a:69:75:ab:7b:6b:45:ff:a4:07:b6:c1:5c:55:c1:ca:db:56:
         8c:ab:05:c6:19:5f:be:ec:8a:7d:d8:16:95:fb:d4:25:dc:1d:
         e2:6c:d3:05:52:b3:44:bc:e6:d5:ef:22:c6:1e:d6:d9:9f:92:
         2c:50:8d:4f:12:d8:b7:a7:a6:6d:e6:c0:5c:a9:d6:03:8e:51:
         07:f5:f9:95
-----BEGIN CERTIFICATE-----
MIIDdzCCAl+gAwIBAgIQRXcKMXVjwNGsYUrpK3W2BDANBgkqhkiG9w0BAQsFADAW
MRQwEgYDVQQDDAt0ZWFtNzI2LW5ldDAeFw0yMjA1MTgyMzQ4MDlaFw0yNTA1MDIy
MzQ4MDlaMBkxFzAVBgNVBAMMDnRlYW03MjYtc2VydmVyMIIBIjANBgkqhkiG9w0B
AQEFAAOCAQ8AMIIBCgKCAQEAmn13VkPSlyVy/gd4+6yoATRzOeghTkdU54waeYSp
H3RZcnzL0wAhsZTtJ9EfX9fFi1sRR5t94CohH6IjUL8FCMOdQpu4CkqYKR/7RKAq
X7MiUd1uUbiZAYmqq97VeOfGSJbtsUSC4yDNzOfsqcRZJY9yAN70wQiTAUk9DI1P
bMNJawixe+JA2O78fz7SLTlZRZFmwj91TfH69+w/TjAh99QqVK4JTn1K+lThqHbC
w/5Rlqx3XHSaxKEyKIXFOfZj2WmW3xkppJT9dXeX2dh21USQHyAoSs1oM94CuOzQ
US71Bkqx6DRZB3H4KTdpYsJ20wUSmhpQNEC52vnQGi/NIQIDAQABo4G9MIG6MAkG
A1UdEwQCMAAwHQYDVR0OBBYEFJUbaKNZnHIlLciFLZEoHQrZCBPkMFEGA1UdIwRK
MEiAFBV3kGbE9ERhOJd/eOST7jWH+NA+oRqkGDAWMRQwEgYDVQQDDAt0ZWFtNzI2
LW5ldIIUAw+54F0m5WQ0YdfuFyoVoWm2YvswEwYDVR0lBAwwCgYIKwYBBQUHAwEw
CwYDVR0PBAQDAgWgMBkGA1UdEQQSMBCCDnRlYW03MjYtc2VydmVyMA0GCSqGSIb3
DQEBCwUAA4IBAQAkt6P3zJTg9lBbzuE5AOCmp95WZZLOxgPXamycZP5NwnvAYk57
qy6J/fjvr2Erx3FgS5WuZJfxpuRrK9KXz78ImQ0UTsq8npkD/f/m+vTYxsFcyvgq
jO79Hzb5vAKSmKigp4bftML545UOsmSaC6xpQ5R6aOGadKWIj3f0hfR6Bu6VB6PR
CIgnqizRXx9+qky84/mbpYcWdXDFOTN/CssWI5+vXzAWIAKOoWWuGH1W7lFJzy6K
aXWre2tF/6QHtsFcVcHK21aMqwXGGV++7Ip92BaV+9Ql3B3ibNMFUrNEvObV7yLG
HtbZn5IsUI1PEti3p6Zt5sBcqdYDjlEH9fmV
-----END CERTIFICATE-----
