Certificate:
    Data:
        Version: 3 (0x2)
        Serial Number:
            f3:30:17:31:4e:24:d2:c2:d3:fc:a5:1e:c6:20:ad:59
        Signature Algorithm: sha256WithRSAEncryption
        Issuer: CN=team124-net
        Validity
            Not Before: May 18 15:05:45 2022 GMT
            Not After : May  2 15:05:45 2025 GMT
        Subject: CN=team124-client
        Subject Public Key Info:
            Public Key Algorithm: rsaEncryption
                RSA Public-Key: (2048 bit)
                Modulus:
                    00:de:a5:5f:7e:51:0e:ff:06:97:37:30:50:9b:25:
                    e4:f8:ab:56:30:4e:23:5a:d5:84:d9:f0:8f:78:ea:
                    41:cb:3e:9f:fa:70:9a:77:dc:71:d6:c5:89:e2:9f:
                    ec:a1:d4:1f:57:9c:d2:7e:61:ca:e2:a1:19:b6:3b:
                    84:46:c4:6b:07:a1:bf:56:f7:5f:5f:b3:8c:ad:64:
                    63:42:67:23:20:da:a6:29:10:de:1a:da:89:63:22:
                    7b:7a:9f:6d:8f:74:ce:c4:a2:09:54:ce:54:88:f3:
                    68:23:b5:75:e5:50:02:a0:cf:1f:62:bf:79:46:f3:
                    0e:1e:4c:58:3a:27:93:ad:a2:97:92:85:0f:00:37:
                    59:a2:b2:a5:ca:9b:cb:7f:bc:00:c9:39:b4:84:60:
                    bd:56:7d:4e:2d:58:f5:38:00:a3:9d:77:7a:e4:00:
                    91:dc:9a:5a:44:77:1a:97:15:81:b0:bb:8e:38:4c:
                    37:41:f1:d0:98:50:0f:2a:71:13:83:37:dc:18:d4:
                    a4:b8:cd:7e:f0:bc:99:ce:57:b2:d7:cd:81:83:05:
                    7a:4a:b7:ba:02:87:88:54:3a:b1:19:37:20:34:89:
                    1f:54:45:7c:51:c2:27:52:59:4d:35:6b:4e:07:64:
                    18:93:c6:04:0b:fc:f3:9a:4a:cd:31:d4:fa:1e:4d:
                    66:71
                Exponent: 65537 (0x10001)
        X509v3 extensions:
            X509v3 Basic Constraints: 
                CA:FALSE
            X509v3 Subject Key Identifier: 
                14:87:E7:1D:BD:E9:95:86:D5:76:56:B1:2E:12:76:1E:3C:81:CF:8C
            X509v3 Authority Key Identifier: 
                keyid:79:F0:82:CC:48:24:E4:26:E0:BF:96:45:87:73:BE:50:DE:02:0F:11
                DirName:/CN=team124-net
                serial:49:6B:0D:E2:9E:A5:1A:C3:77:70:67:F6:95:87:39:C2:A0:82:83:B8

            X509v3 Extended Key Usage: 
                TLS Web Client Authentication
            X509v3 Key Usage: 
                Digital Signature
    Signature Algorithm: sha256WithRSAEncryption
         7f:b4:e6:5f:88:b9:14:d1:fc:56:0e:e3:fa:c8:c9:8b:37:79:
         48:72:41:5c:f2:af:7a:6c:f1:d7:8c:5b:bd:ca:67:cf:ba:da:
         1c:8d:fb:79:eb:12:e6:e8:5b:6c:82:66:32:c0:24:9d:e9:14:
         96:29:d4:c3:45:00:1c:55:52:ad:ee:ee:90:e9:6d:a2:eb:ab:
         f4:1a:dc:bd:f1:bb:65:ff:9f:ba:25:ed:4d:98:81:29:bf:78:
         4e:8c:6a:e3:27:82:84:b8:98:c0:17:e5:3b:cf:20:76:5d:f2:
         3e:99:8d:26:8b:66:b6:f6:15:f6:d6:cd:fd:f3:31:79:b1:d7:
         79:69:e2:07:b5:2f:91:7c:33:7f:8f:5c:32:97:dd:89:bb:55:
         c0:a1:5e:de:9d:bc:5c:cf:6e:fa:7b:ab:b2:ee:43:1d:55:e7:
         d3:21:71:e8:e7:02:75:77:47:50:f1:43:30:db:41:cd:43:d9:
         b3:0d:e8:7e:8d:f7:b1:b3:1d:a8:16:67:9d:16:ff:c2:24:05:
         a7:e8:d9:80:9a:4f:be:d2:c0:41:1d:16:93:65:da:0d:5b:ea:
         af:00:f1:5f:ae:02:74:81:b3:77:3f:4e:c9:d3:39:93:a2:62:
         41:10:86:f4:65:cd:c1:5b:51:25:3b:ef:d2:9e:aa:5a:40:3c:
         bb:db:ea:f2
-----BEGIN CERTIFICATE-----
MIIDXTCCAkWgAwIBAgIRAPMwFzFOJNLC0/ylHsYgrVkwDQYJKoZIhvcNAQELBQAw
FjEUMBIGA1UEAwwLdGVhbTEyNC1uZXQwHhcNMjIwNTE4MTUwNTQ1WhcNMjUwNTAy
MTUwNTQ1WjAZMRcwFQYDVQQDDA50ZWFtMTI0LWNsaWVudDCCASIwDQYJKoZIhvcN
AQEBBQADggEPADCCAQoCggEBAN6lX35RDv8GlzcwUJsl5PirVjBOI1rVhNnwj3jq
Qcs+n/pwmnfccdbFieKf7KHUH1ec0n5hyuKhGbY7hEbEawehv1b3X1+zjK1kY0Jn
IyDapikQ3hraiWMie3qfbY90zsSiCVTOVIjzaCO1deVQAqDPH2K/eUbzDh5MWDon
k62il5KFDwA3WaKypcqby3+8AMk5tIRgvVZ9Ti1Y9TgAo513euQAkdyaWkR3GpcV
gbC7jjhMN0Hx0JhQDypxE4M33BjUpLjNfvC8mc5XstfNgYMFekq3ugKHiFQ6sRk3
IDSJH1RFfFHCJ1JZTTVrTgdkGJPGBAv885pKzTHU+h5NZnECAwEAAaOBojCBnzAJ
BgNVHRMEAjAAMB0GA1UdDgQWBBQUh+cdvemVhtV2VrEuEnYePIHPjDBRBgNVHSME
SjBIgBR58ILMSCTkJuC/lkWHc75Q3gIPEaEapBgwFjEUMBIGA1UEAwwLdGVhbTEy
NC1uZXSCFElrDeKepRrDd3Bn9pWHOcKggoO4MBMGA1UdJQQMMAoGCCsGAQUFBwMC
MAsGA1UdDwQEAwIHgDANBgkqhkiG9w0BAQsFAAOCAQEAf7TmX4i5FNH8Vg7j+sjJ
izd5SHJBXPKvemzx14xbvcpnz7raHI37eesS5uhbbIJmMsAknekUlinUw0UAHFVS
re7ukOltouur9BrcvfG7Zf+fuiXtTZiBKb94Toxq4yeChLiYwBflO88gdl3yPpmN
JotmtvYV9tbN/fMxebHXeWniB7UvkXwzf49cMpfdibtVwKFe3p28XM9u+nursu5D
HVXn0yFx6OcCdXdHUPFDMNtBzUPZsw3ofo33sbMdqBZnnRb/wiQFp+jZgJpPvtLA
QR0Wk2XaDVvqrwDxX64CdIGzdz9OydM5k6JiQRCG9GXNwVtRJTvv0p6qWkA8u9vq
8g==
-----END CERTIFICATE-----
