Certificate:
    Data:
        Version: 3 (0x2)
        Serial Number:
            cf:6a:8b:36:6b:b8:e4:bf:0d:20:2a:50:5b:73:6b:a7
        Signature Algorithm: sha256WithRSAEncryption
        Issuer: CN=team200-net
        Validity
            Not Before: May 18 19:11:09 2022 GMT
            Not After : May  2 19:11:09 2025 GMT
        Subject: CN=team200-server
        Subject Public Key Info:
            Public Key Algorithm: rsaEncryption
                RSA Public-Key: (2048 bit)
                Modulus:
                    00:d3:13:10:a0:f7:07:f2:c8:dc:99:e8:71:34:36:
                    25:3f:4d:bb:b7:d8:6d:3b:1b:0a:8e:5d:dd:61:f0:
                    28:34:63:80:f3:b2:16:27:07:3d:48:44:d8:5d:5e:
                    32:2e:75:e8:06:53:d9:d4:0c:c0:2a:80:9c:c7:37:
                    83:09:13:58:f6:8b:fa:22:60:bc:b5:69:69:0f:d7:
                    72:61:c0:dd:61:bc:c9:13:bc:69:de:9a:72:a3:18:
                    bc:af:f0:20:ef:55:22:21:4d:87:5c:41:f1:c2:00:
                    32:07:7c:20:32:f9:bc:f1:6d:87:20:ac:e7:7c:0c:
                    45:f2:38:e8:bb:01:95:f5:63:83:d4:ea:b4:43:03:
                    3c:86:38:69:ef:5b:4e:5e:50:ba:4d:9f:68:28:c3:
                    b0:3a:86:ae:ad:87:95:cd:1b:8d:47:0c:58:83:51:
                    58:c4:8f:3d:c9:52:13:be:71:9f:e1:b9:f6:77:e9:
                    b9:89:90:e4:ae:84:2d:82:ba:22:61:fd:41:db:f1:
                    57:2b:20:8b:1e:99:f7:a6:7b:86:95:ad:c1:16:08:
                    52:49:d8:99:34:85:f2:1e:1f:19:1e:da:d7:a9:2b:
                    95:33:02:28:2c:2c:76:61:75:62:e7:59:4d:ad:2c:
                    f4:11:f5:f2:e1:2c:c7:74:3d:f3:c0:c9:f9:9c:fa:
                    ad:2d
                Exponent: 65537 (0x10001)
        X509v3 extensions:
            X509v3 Basic Constraints: 
                CA:FALSE
            X509v3 Subject Key Identifier: 
                C0:A8:4D:FC:EC:07:1A:DD:40:E4:20:71:B1:C3:20:F5:16:CD:22:C4
            X509v3 Authority Key Identifier: 
                keyid:64:13:0E:7F:7E:C2:C1:F5:8C:30:74:E9:A7:3D:AA:F9:F5:07:78:63
                DirName:/CN=team200-net
                serial:48:1B:9F:B0:C4:71:9C:10:85:85:25:91:29:D3:D8:BF:D9:34:72:47

            X509v3 Extended Key Usage: 
                TLS Web Server Authentication
            X509v3 Key Usage: 
                Digital Signature, Key Encipherment
            X509v3 Subject Alternative Name: 
                DNS:team200-server
    Signature Algorithm: sha256WithRSAEncryption
         3f:a8:c8:f9:3f:82:de:64:a5:31:55:cb:51:b2:50:89:d2:18:
         89:e8:78:5a:44:58:8c:2c:39:37:20:9b:2a:a6:8f:b7:1b:aa:
         96:62:ce:ae:aa:e1:4f:76:f8:23:19:57:25:b6:f6:f4:1a:05:
         fa:6e:6f:d8:e7:3e:fa:78:88:3a:ab:bd:32:e6:79:49:e5:16:
         45:46:c7:d6:35:2b:13:79:39:7a:dd:5c:20:13:56:d9:f5:52:
         60:cb:ad:a8:d5:ab:c0:96:a8:0f:46:9b:65:da:4b:d6:0c:40:
         be:5e:1e:b6:2d:87:5f:a6:04:80:5c:47:5f:42:ac:2e:f0:cd:
         e7:7e:1f:73:84:94:8f:89:c3:7d:4a:1b:3e:4b:b1:13:7e:1a:
         8e:48:ba:bf:95:6f:8c:2a:bd:e5:a0:1e:ee:fe:29:d8:47:1d:
         97:1a:0d:ad:2d:00:50:c9:d0:06:b7:42:23:7f:10:f5:26:7d:
         8c:dd:09:73:9d:24:e8:22:9e:67:d4:db:f0:b9:73:81:e5:c0:
         7d:99:cf:31:67:8b:fc:00:03:7b:09:50:14:91:c5:c5:7f:08:
         e1:27:ab:e9:7d:59:84:68:e7:a4:7a:ca:35:6c:f0:39:69:d8:
         53:8d:77:7f:3d:c2:d9:0e:01:72:4f:90:f8:e9:ba:d1:09:fb:
         55:55:0f:d5
-----BEGIN CERTIFICATE-----
MIIDeDCCAmCgAwIBAgIRAM9qizZruOS/DSAqUFtza6cwDQYJKoZIhvcNAQELBQAw
FjEUMBIGA1UEAwwLdGVhbTIwMC1uZXQwHhcNMjIwNTE4MTkxMTA5WhcNMjUwNTAy
MTkxMTA5WjAZMRcwFQYDVQQDDA50ZWFtMjAwLXNlcnZlcjCCASIwDQYJKoZIhvcN
AQEBBQADggEPADCCAQoCggEBANMTEKD3B/LI3JnocTQ2JT9Nu7fYbTsbCo5d3WHw
KDRjgPOyFicHPUhE2F1eMi516AZT2dQMwCqAnMc3gwkTWPaL+iJgvLVpaQ/XcmHA
3WG8yRO8ad6acqMYvK/wIO9VIiFNh1xB8cIAMgd8IDL5vPFthyCs53wMRfI46LsB
lfVjg9TqtEMDPIY4ae9bTl5Quk2faCjDsDqGrq2Hlc0bjUcMWINRWMSPPclSE75x
n+G59nfpuYmQ5K6ELYK6ImH9QdvxVysgix6Z96Z7hpWtwRYIUknYmTSF8h4fGR7a
16krlTMCKCwsdmF1YudZTa0s9BH18uEsx3Q988DJ+Zz6rS0CAwEAAaOBvTCBujAJ
BgNVHRMEAjAAMB0GA1UdDgQWBBTAqE387Aca3UDkIHGxwyD1Fs0ixDBRBgNVHSME
SjBIgBRkEw5/fsLB9YwwdOmnPar59Qd4Y6EapBgwFjEUMBIGA1UEAwwLdGVhbTIw
MC1uZXSCFEgbn7DEcZwQhYUlkSnT2L/ZNHJHMBMGA1UdJQQMMAoGCCsGAQUFBwMB
MAsGA1UdDwQEAwIFoDAZBgNVHREEEjAQgg50ZWFtMjAwLXNlcnZlcjANBgkqhkiG
9w0BAQsFAAOCAQEAP6jI+T+C3mSlMVXLUbJQidIYieh4WkRYjCw5NyCbKqaPtxuq
lmLOrqrhT3b4IxlXJbb29BoF+m5v2Oc++niIOqu9MuZ5SeUWRUbH1jUrE3k5et1c
IBNW2fVSYMutqNWrwJaoD0abZdpL1gxAvl4eti2HX6YEgFxHX0KsLvDN534fc4SU
j4nDfUobPkuxE34ajki6v5VvjCq95aAe7v4p2EcdlxoNrS0AUMnQBrdCI38Q9SZ9
jN0Jc50k6CKeZ9Tb8LlzgeXAfZnPMWeL/AADewlQFJHFxX8I4Ser6X1ZhGjnpHrK
NWzwOWnYU413fz3C2Q4Bck+Q+Om60Qn7VVUP1Q==
-----END CERTIFICATE-----
