Certificate:
    Data:
        Version: 3 (0x2)
        Serial Number:
            83:1c:c0:4c:a5:a2:82:eb:fc:6e:2b:66:64:a6:7f:61
        Signature Algorithm: sha256WithRSAEncryption
        Issuer: CN=team652-net
        Validity
            Not Before: May 18 23:04:22 2022 GMT
            Not After : May  2 23:04:22 2025 GMT
        Subject: CN=team652-client
        Subject Public Key Info:
            Public Key Algorithm: rsaEncryption
                RSA Public-Key: (2048 bit)
                Modulus:
                    00:b4:a5:b9:07:85:c4:7d:57:d1:62:a8:ef:f2:a9:
                    5c:84:e8:64:42:cd:02:5b:8d:1d:f9:15:5f:aa:38:
                    f4:c3:37:e3:26:21:09:54:54:16:13:00:d4:09:4b:
                    55:c6:a2:b4:d6:b0:08:26:a5:1f:96:bd:6a:85:b8:
                    b0:7c:f9:91:9f:dd:14:3a:33:06:dd:6f:25:fb:fe:
                    5b:f9:8b:d5:50:85:1d:b6:47:02:98:12:61:86:ea:
                    8a:a4:b4:ed:85:e2:09:c7:f2:12:6e:a2:a1:c5:9d:
                    2a:33:4a:b6:9c:3d:b9:9f:94:07:dc:cd:16:25:bc:
                    75:42:4b:65:38:d3:90:ba:57:88:70:a7:d4:2c:df:
                    65:37:b8:fb:da:c3:bb:7e:49:56:77:97:9d:52:ee:
                    08:2b:6a:ab:cf:5c:63:65:02:75:49:1e:9e:5e:bd:
                    18:e6:e3:3f:d8:3b:df:ec:af:fa:47:6b:46:36:94:
                    6a:19:93:80:39:4d:a2:02:03:a3:36:e6:6d:1b:eb:
                    55:5b:b1:c6:cc:b8:ec:95:07:aa:a3:10:b6:54:64:
                    58:3e:8b:20:20:34:71:34:52:30:1b:2e:13:f7:c4:
                    46:7d:c1:15:25:d5:f4:93:ce:14:28:14:ea:9a:6a:
                    2d:d2:c1:ec:0f:38:59:a4:ab:1d:88:26:95:26:52:
                    49:d5
                Exponent: 65537 (0x10001)
        X509v3 extensions:
            X509v3 Basic Constraints: 
                CA:FALSE
            X509v3 Subject Key Identifier: 
                BB:12:54:9D:44:DC:19:9F:6B:CA:8D:43:99:30:E1:B3:91:11:73:6A
            X509v3 Authority Key Identifier: 
                keyid:71:9B:22:AB:66:9D:8E:FA:3C:73:DF:F0:6B:DF:77:D6:AE:E2:D3:4E
                DirName:/CN=team652-net
                serial:6A:3C:7F:50:6A:0E:E3:C7:67:AB:4B:C0:C0:72:76:D2:D0:6F:E2:FE

            X509v3 Extended Key Usage: 
                TLS Web Client Authentication
            X509v3 Key Usage: 
                Digital Signature
    Signature Algorithm: sha256WithRSAEncryption
         0d:ad:77:2d:e1:4d:54:b8:00:c0:a9:0a:13:72:e0:33:5e:20:
         a8:df:80:d4:cc:70:95:4f:ac:72:ce:1b:45:14:2e:be:2b:e6:
         8e:51:1a:e0:a4:7b:60:d2:2f:5a:81:0c:e9:af:14:e4:e8:7d:
         0a:09:01:b6:85:fd:09:75:4d:2f:48:d5:ce:7a:42:b7:d9:dd:
         bc:8c:37:2b:7b:51:06:54:d1:6a:c6:fb:43:5b:e5:0b:49:7a:
         cd:6c:e9:02:63:29:a9:ba:80:71:a9:da:f5:53:dc:de:f2:5d:
         2c:b8:d1:4f:a9:37:4e:3e:37:a1:92:a4:01:c3:8d:00:17:6d:
         28:76:24:41:16:22:1b:6c:f1:44:f9:1f:7c:a9:e1:f3:f9:da:
         3d:a6:fd:25:83:08:cc:0e:97:02:5f:a9:5b:fa:44:80:2a:d6:
         3a:a6:c0:e5:29:79:f9:bf:63:1f:df:1d:cc:ed:a5:08:a9:ef:
         81:92:da:a5:32:10:72:64:dc:38:ff:fd:a4:bf:8c:39:6b:52:
         3c:44:7f:c6:82:64:64:2b:54:8d:b3:87:f6:7e:01:49:cf:37:
         0a:39:44:9e:83:71:31:4a:cf:91:c9:a1:3b:ad:f5:5a:b6:a6:
         59:7f:7f:8d:02:a2:35:a4:ad:55:81:d7:78:8e:0a:a0:9d:20:
         42:b5:c1:1b
-----BEGIN CERTIFICATE-----
MIIDXTCCAkWgAwIBAgIRAIMcwEylooLr/G4rZmSmf2EwDQYJKoZIhvcNAQELBQAw
FjEUMBIGA1UEAwwLdGVhbTY1Mi1uZXQwHhcNMjIwNTE4MjMwNDIyWhcNMjUwNTAy
MjMwNDIyWjAZMRcwFQYDVQQDDA50ZWFtNjUyLWNsaWVudDCCASIwDQYJKoZIhvcN
AQEBBQADggEPADCCAQoCggEBALSluQeFxH1X0WKo7/KpXIToZELNAluNHfkVX6o4
9MM34yYhCVRUFhMA1AlLVcaitNawCCalH5a9aoW4sHz5kZ/dFDozBt1vJfv+W/mL
1VCFHbZHApgSYYbqiqS07YXiCcfyEm6iocWdKjNKtpw9uZ+UB9zNFiW8dUJLZTjT
kLpXiHCn1CzfZTe4+9rDu35JVneXnVLuCCtqq89cY2UCdUkenl69GObjP9g73+yv
+kdrRjaUahmTgDlNogIDozbmbRvrVVuxxsy47JUHqqMQtlRkWD6LICA0cTRSMBsu
E/fERn3BFSXV9JPOFCgU6ppqLdLB7A84WaSrHYgmlSZSSdUCAwEAAaOBojCBnzAJ
BgNVHRMEAjAAMB0GA1UdDgQWBBS7ElSdRNwZn2vKjUOZMOGzkRFzajBRBgNVHSME
SjBIgBRxmyKrZp2O+jxz3/Br33fWruLTTqEapBgwFjEUMBIGA1UEAwwLdGVhbTY1
Mi1uZXSCFGo8f1BqDuPHZ6tLwMBydtLQb+L+MBMGA1UdJQQMMAoGCCsGAQUFBwMC
MAsGA1UdDwQEAwIHgDANBgkqhkiG9w0BAQsFAAOCAQEADa13LeFNVLgAwKkKE3Lg
M14gqN+A1MxwlU+scs4bRRQuvivmjlEa4KR7YNIvWoEM6a8U5Oh9CgkBtoX9CXVN
L0jVznpCt9ndvIw3K3tRBlTRasb7Q1vlC0l6zWzpAmMpqbqAcana9VPc3vJdLLjR
T6k3Tj43oZKkAcONABdtKHYkQRYiG2zxRPkffKnh8/naPab9JYMIzA6XAl+pW/pE
gCrWOqbA5Sl5+b9jH98dzO2lCKnvgZLapTIQcmTcOP/9pL+MOWtSPER/xoJkZCtU
jbOH9n4BSc83CjlEnoNxMUrPkcmhO631WramWX9/jQKiNaStVYHXeI4KoJ0gQrXB
Gw==
-----END CERTIFICATE-----
