Certificate:
    Data:
        Version: 3 (0x2)
        Serial Number:
            5b:a5:e7:81:f5:90:2e:7e:8a:95:ba:d7:d1:1d:08:2d
        Signature Algorithm: sha256WithRSAEncryption
        Issuer: CN=team147-net
        Validity
            Not Before: May 18 18:36:19 2022 GMT
            Not After : May  2 18:36:19 2025 GMT
        Subject: CN=team147-server
        Subject Public Key Info:
            Public Key Algorithm: rsaEncryption
                RSA Public-Key: (2048 bit)
                Modulus:
                    00:c8:68:f3:30:68:c5:e9:8f:61:d0:3b:87:39:e2:
                    2f:8c:e9:b0:39:5c:03:ad:ec:55:cf:b4:fc:08:64:
                    a1:e7:c1:a4:53:04:28:57:14:22:7a:89:18:d8:6c:
                    37:27:33:c1:1a:00:10:9b:58:6e:73:8a:39:28:ca:
                    25:27:0c:f1:4a:49:da:be:db:85:9c:2e:40:bc:d2:
                    6f:f6:de:f4:6a:a5:0b:67:c7:97:5a:bb:1b:d8:6d:
                    d7:87:03:34:c9:da:a5:1a:be:2a:6f:b5:78:d2:48:
                    17:c1:95:ef:b2:33:14:af:be:25:a8:a1:43:5e:16:
                    74:02:d9:4e:24:95:8e:fc:c4:05:c4:4f:63:46:72:
                    82:2c:22:ee:8e:3f:a4:8c:81:78:b7:2a:96:6d:be:
                    49:1f:63:40:62:08:89:38:88:84:73:7d:57:43:69:
                    0d:88:62:00:dc:ae:62:50:6d:19:10:71:42:cd:e5:
                    db:00:da:d1:c0:4d:91:68:68:1d:d5:ed:95:26:30:
                    05:b2:5e:d1:b1:45:0b:f4:0f:88:c2:7c:a5:ac:96:
                    46:83:88:00:e9:7a:db:73:2b:8c:80:cb:9b:99:ec:
                    b3:dc:db:61:7e:b7:52:16:eb:80:db:1f:ee:5e:4a:
                    98:4e:2c:cb:ab:d9:30:cc:51:e5:41:90:e8:1b:4a:
                    1a:4d
                Exponent: 65537 (0x10001)
        X509v3 extensions:
            X509v3 Basic Constraints: 
                CA:FALSE
            X509v3 Subject Key Identifier: 
                9C:2E:6B:12:10:05:29:AC:37:E7:4A:AB:D7:95:FB:5C:64:94:3D:FC
            X509v3 Authority Key Identifier: 
                keyid:D8:6B:EB:50:79:C5:71:85:B2:70:5D:38:2C:EF:31:7D:12:FD:67:F3
                DirName:/CN=team147-net
                serial:6E:60:F9:DF:F9:33:5F:91:F0:32:83:93:0E:F7:4C:37:1B:41:8F:AB

            X509v3 Extended Key Usage: 
                TLS Web Server Authentication
            X509v3 Key Usage: 
                Digital Signature, Key Encipherment
            X509v3 Subject Alternative Name: 
                DNS:team147-server
    Signature Algorithm: sha256WithRSAEncryption
         34:9f:f4:36:31:83:a4:9a:9d:10:55:7f:60:76:94:5d:13:06:
         37:79:79:7f:f5:f6:18:67:b6:b8:b8:dd:ae:08:ca:75:2e:fc:
         80:f1:65:0e:a4:86:19:6b:ac:80:e2:ca:25:19:d6:9b:64:09:
         31:22:f1:c3:de:d1:f4:71:e6:f6:55:1b:58:1a:99:60:44:a1:
         9e:e3:1d:a0:7e:7a:d0:35:cf:db:be:c6:9d:18:86:4b:83:08:
         ad:86:dd:4a:36:bd:b7:49:01:c3:bc:a9:e3:c7:49:ea:0a:0b:
         93:ce:9b:52:32:bb:12:e0:9f:82:e5:57:41:cd:98:1d:95:ea:
         be:22:20:c0:1b:90:49:e6:6f:a0:31:14:9d:80:57:96:12:0e:
         a3:bd:a0:aa:eb:93:6f:a0:28:f6:21:1b:c9:fc:48:9d:3e:ac:
         b9:d5:fc:d2:2d:62:42:7e:16:8b:b8:12:4c:8b:a3:05:20:df:
         ac:34:3a:a0:96:fc:0b:04:1d:27:37:af:eb:8c:38:a2:c5:82:
         da:f9:39:fe:2b:51:99:10:e6:5e:a4:6b:d8:40:20:3b:38:b2:
         33:f3:3f:da:0a:1c:62:bb:79:bf:c3:58:45:1e:aa:24:27:f1:
         eb:5b:c8:9c:5a:04:c3:64:4b:3c:a4:98:8d:84:39:50:a8:4a:
         89:96:85:06
-----BEGIN CERTIFICATE-----
MIIDdzCCAl+gAwIBAgIQW6XngfWQLn6KlbrX0R0ILTANBgkqhkiG9w0BAQsFADAW
MRQwEgYDVQQDDAt0ZWFtMTQ3LW5ldDAeFw0yMjA1MTgxODM2MTlaFw0yNTA1MDIx
ODM2MTlaMBkxFzAVBgNVBAMMDnRlYW0xNDctc2VydmVyMIIBIjANBgkqhkiG9w0B
AQEFAAOCAQ8AMIIBCgKCAQEAyGjzMGjF6Y9h0DuHOeIvjOmwOVwDrexVz7T8CGSh
58GkUwQoVxQieokY2Gw3JzPBGgAQm1huc4o5KMolJwzxSknavtuFnC5AvNJv9t70
aqULZ8eXWrsb2G3XhwM0ydqlGr4qb7V40kgXwZXvsjMUr74lqKFDXhZ0AtlOJJWO
/MQFxE9jRnKCLCLujj+kjIF4tyqWbb5JH2NAYgiJOIiEc31XQ2kNiGIA3K5iUG0Z
EHFCzeXbANrRwE2RaGgd1e2VJjAFsl7RsUUL9A+IwnylrJZGg4gA6XrbcyuMgMub
meyz3NthfrdSFuuA2x/uXkqYTizLq9kwzFHlQZDoG0oaTQIDAQABo4G9MIG6MAkG
A1UdEwQCMAAwHQYDVR0OBBYEFJwuaxIQBSmsN+dKq9eV+1xklD38MFEGA1UdIwRK
MEiAFNhr61B5xXGFsnBdOCzvMX0S/WfzoRqkGDAWMRQwEgYDVQQDDAt0ZWFtMTQ3
LW5ldIIUbmD53/kzX5HwMoOTDvdMNxtBj6swEwYDVR0lBAwwCgYIKwYBBQUHAwEw
CwYDVR0PBAQDAgWgMBkGA1UdEQQSMBCCDnRlYW0xNDctc2VydmVyMA0GCSqGSIb3
DQEBCwUAA4IBAQA0n/Q2MYOkmp0QVX9gdpRdEwY3eXl/9fYYZ7a4uN2uCMp1LvyA
8WUOpIYZa6yA4solGdabZAkxIvHD3tH0ceb2VRtYGplgRKGe4x2gfnrQNc/bvsad
GIZLgwitht1KNr23SQHDvKnjx0nqCguTzptSMrsS4J+C5VdBzZgdleq+IiDAG5BJ
5m+gMRSdgFeWEg6jvaCq65NvoCj2IRvJ/EidPqy51fzSLWJCfhaLuBJMi6MFIN+s
NDqglvwLBB0nN6/rjDiixYLa+Tn+K1GZEOZepGvYQCA7OLIz8z/aChxiu3m/w1hF
HqokJ/HrW8icWgTDZEs8pJiNhDlQqEqJloUG
-----END CERTIFICATE-----
