Certificate:
    Data:
        Version: 3 (0x2)
        Serial Number:
            69:13:4e:29:22:b4:73:32:42:a0:dc:21:21:82:a4:14
        Signature Algorithm: sha256WithRSAEncryption
        Issuer: CN=team167-net
        Validity
            Not Before: May 18 18:43:37 2022 GMT
            Not After : May  2 18:43:37 2025 GMT
        Subject: CN=team167-client
        Subject Public Key Info:
            Public Key Algorithm: rsaEncryption
                RSA Public-Key: (2048 bit)
                Modulus:
                    00:a9:6a:ae:ac:9d:46:d6:28:49:94:f4:d7:8a:1b:
                    76:fd:9c:9e:8d:28:27:8c:42:9b:62:cc:a2:ed:6c:
                    76:36:11:42:0d:65:c1:21:ca:9b:07:f6:7e:41:b4:
                    40:00:aa:0c:05:44:38:98:cf:23:a6:8b:b4:4e:07:
                    63:19:39:80:d2:46:46:84:c8:7a:44:f7:9e:37:7d:
                    ad:01:3a:e6:eb:be:e7:47:48:83:ea:95:5e:8c:bd:
                    03:99:de:25:45:bd:00:bf:3e:9b:8f:14:3a:a9:94:
                    2c:12:c7:5d:e9:63:c3:f4:fc:13:a9:2f:dc:3e:59:
                    2c:79:4b:c9:38:24:4d:2b:66:df:0a:c3:6b:c7:80:
                    57:33:0c:24:b8:26:c9:6a:f3:c4:99:d9:12:ec:94:
                    d9:81:47:e0:7e:f2:1a:df:62:76:e8:84:af:5d:20:
                    44:e2:d3:24:da:25:73:50:9f:ce:e7:f2:91:7a:3d:
                    24:d1:de:3b:6c:63:11:cd:30:1c:87:54:07:32:86:
                    a4:55:42:6c:67:de:bf:6b:77:1c:d1:6a:4a:5f:4e:
                    ba:6f:68:18:d6:0e:73:6c:09:ac:61:b4:dd:44:b5:
                    9b:0e:a7:f4:61:31:59:79:c1:d3:84:fa:9c:96:8f:
                    78:35:9e:d8:41:27:ef:7b:00:23:20:e8:5e:dc:37:
                    4a:79
                Exponent: 65537 (0x10001)
        X509v3 extensions:
            X509v3 Basic Constraints: 
                CA:FALSE
            X509v3 Subject Key Identifier: 
                09:D3:7E:01:B7:66:5F:ED:DD:76:5E:A1:9D:0C:D7:EA:BF:21:62:47
            X509v3 Authority Key Identifier: 
                keyid:DE:AD:BD:19:0A:52:6E:BF:E0:EA:0A:AC:EC:F0:8E:00:7D:9F:FD:D7
                DirName:/CN=team167-net
                serial:16:68:0C:17:09:D1:A9:FA:FA:0B:E3:25:50:E1:BB:28:66:D3:79:C0

            X509v3 Extended Key Usage: 
                TLS Web Client Authentication
            X509v3 Key Usage: 
                Digital Signature
    Signature Algorithm: sha256WithRSAEncryption
         59:85:7a:f8:02:b8:89:7e:bb:2d:8c:51:b3:a4:f9:7a:8f:3b:
         28:90:9f:e5:e1:47:f7:ca:eb:ba:26:d9:28:26:e1:2c:31:02:
         68:ea:a7:59:38:98:3e:1a:dd:61:e4:7e:59:12:43:3c:67:46:
         e9:cb:67:e5:e3:17:94:e3:c3:f2:a8:fa:c3:39:2d:13:f9:32:
         06:3f:33:f5:4f:cf:03:f5:1e:3c:b7:97:98:c2:c3:45:17:f0:
         cd:47:63:9d:37:7e:b3:8a:32:d0:21:87:02:e6:65:3f:b8:7d:
         a3:af:ff:5a:16:a4:34:81:d9:e8:cf:f1:e5:e8:27:60:58:3c:
         b2:cc:8e:64:6d:4c:da:16:3b:aa:79:e0:6d:b8:da:a3:4a:3a:
         d3:21:b8:b2:32:8d:42:ae:b8:4f:6e:4e:57:8d:c5:29:26:38:
         03:f0:5f:73:56:e2:a7:8f:3d:9f:29:43:da:4a:b3:1a:43:b1:
         2e:3a:26:b2:57:dd:55:9c:77:9f:f8:15:3a:50:be:c3:a0:59:
         7e:40:6a:a7:b4:6b:d7:78:18:01:7c:89:fd:ea:75:c1:f5:8e:
         1f:ed:f0:57:cd:e0:f5:60:0c:ed:29:0c:ac:6b:cd:e1:64:e3:
         e8:04:5b:53:f9:ee:71:3c:64:5e:f8:78:b2:73:5c:b5:9b:c5:
         18:02:cc:59
-----BEGIN CERTIFICATE-----
MIIDXDCCAkSgAwIBAgIQaRNOKSK0czJCoNwhIYKkFDANBgkqhkiG9w0BAQsFADAW
MRQwEgYDVQQDDAt0ZWFtMTY3LW5ldDAeFw0yMjA1MTgxODQzMzdaFw0yNTA1MDIx
ODQzMzdaMBkxFzAVBgNVBAMMDnRlYW0xNjctY2xpZW50MIIBIjANBgkqhkiG9w0B
AQEFAAOCAQ8AMIIBCgKCAQEAqWqurJ1G1ihJlPTXiht2/ZyejSgnjEKbYsyi7Wx2
NhFCDWXBIcqbB/Z+QbRAAKoMBUQ4mM8jpou0TgdjGTmA0kZGhMh6RPeeN32tATrm
677nR0iD6pVejL0Dmd4lRb0Avz6bjxQ6qZQsEsdd6WPD9PwTqS/cPlkseUvJOCRN
K2bfCsNrx4BXMwwkuCbJavPEmdkS7JTZgUfgfvIa32J26ISvXSBE4tMk2iVzUJ/O
5/KRej0k0d47bGMRzTAch1QHMoakVUJsZ96/a3cc0WpKX066b2gY1g5zbAmsYbTd
RLWbDqf0YTFZecHThPqclo94NZ7YQSfvewAjIOhe3DdKeQIDAQABo4GiMIGfMAkG
A1UdEwQCMAAwHQYDVR0OBBYEFAnTfgG3Zl/t3XZeoZ0M1+q/IWJHMFEGA1UdIwRK
MEiAFN6tvRkKUm6/4OoKrOzwjgB9n/3XoRqkGDAWMRQwEgYDVQQDDAt0ZWFtMTY3
LW5ldIIUFmgMFwnRqfr6C+MlUOG7KGbTecAwEwYDVR0lBAwwCgYIKwYBBQUHAwIw
CwYDVR0PBAQDAgeAMA0GCSqGSIb3DQEBCwUAA4IBAQBZhXr4AriJfrstjFGzpPl6
jzsokJ/l4Uf3yuu6JtkoJuEsMQJo6qdZOJg+Gt1h5H5ZEkM8Z0bpy2fl4xeU48Py
qPrDOS0T+TIGPzP1T88D9R48t5eYwsNFF/DNR2OdN36zijLQIYcC5mU/uH2jr/9a
FqQ0gdnoz/Hl6CdgWDyyzI5kbUzaFjuqeeBtuNqjSjrTIbiyMo1CrrhPbk5XjcUp
JjgD8F9zVuKnjz2fKUPaSrMaQ7EuOiayV91VnHef+BU6UL7DoFl+QGqntGvXeBgB
fIn96nXB9Y4f7fBXzeD1YAztKQysa83hZOPoBFtT+e5xPGRe+Hiyc1y1m8UYAsxZ
-----END CERTIFICATE-----
