Certificate:
    Data:
        Version: 3 (0x2)
        Serial Number:
            db:40:b7:69:de:98:b5:04:f2:7a:53:27:19:38:20:8a
        Signature Algorithm: sha256WithRSAEncryption
        Issuer: CN=team186-net
        Validity
            Not Before: May 18 19:00:15 2022 GMT
            Not After : May  2 19:00:15 2025 GMT
        Subject: CN=team186-client
        Subject Public Key Info:
            Public Key Algorithm: rsaEncryption
                RSA Public-Key: (2048 bit)
                Modulus:
                    00:b4:6e:3d:49:fa:a2:4a:93:2a:85:6d:1f:dd:e8:
                    fd:ec:f5:9c:d9:e3:14:2d:bb:d1:c0:c4:91:a4:9e:
                    f4:89:86:93:de:3d:17:7c:e7:28:f6:24:49:f3:83:
                    d0:56:fb:50:34:bb:52:03:44:21:59:ec:da:92:fc:
                    d9:ec:60:c4:05:78:e2:65:00:14:59:91:e5:16:65:
                    ca:04:4b:f4:09:2a:18:29:a4:1e:57:2f:6f:f4:64:
                    e5:b1:29:f8:4f:71:34:5a:50:8b:b0:7e:9a:16:af:
                    27:95:e0:19:e0:04:2b:c8:ee:81:11:98:cc:dc:ec:
                    b4:c8:4f:65:8f:94:80:76:a9:ea:9e:a2:8e:93:df:
                    32:74:01:fa:d4:37:b8:da:9b:f4:b2:a9:62:fc:72:
                    4c:e5:42:bf:9c:55:12:c9:c3:19:a5:80:20:c8:d4:
                    ba:a6:60:60:ed:b6:f9:62:39:7a:5d:13:ea:1d:67:
                    07:c5:43:96:69:14:db:0c:ce:b7:15:9c:67:3e:9e:
                    e3:d1:2f:b8:d5:52:c2:ab:3b:a2:e1:33:b7:3b:e1:
                    83:ae:d7:66:77:a1:4d:76:73:64:26:c4:39:c4:fc:
                    89:a7:eb:ee:fa:14:cb:f7:86:37:48:e4:04:d3:53:
                    8b:0b:bc:58:d2:35:8a:c7:11:2c:12:b7:fc:4b:a7:
                    e6:ad
                Exponent: 65537 (0x10001)
        X509v3 extensions:
            X509v3 Basic Constraints: 
                CA:FALSE
            X509v3 Subject Key Identifier: 
                79:1C:31:2E:53:6F:79:B7:12:D9:F6:F3:77:0D:18:BD:EE:2C:12:CB
            X509v3 Authority Key Identifier: 
                keyid:E7:A4:53:84:12:01:25:1E:84:D8:F7:38:C1:C1:87:59:AC:F8:63:19
                DirName:/CN=team186-net
                serial:7F:1C:03:76:FB:8A:4D:DC:F3:C0:72:2C:24:0F:1B:00:7B:03:B8:C2

            X509v3 Extended Key Usage: 
                TLS Web Client Authentication
            X509v3 Key Usage: 
                Digital Signature
    Signature Algorithm: sha256WithRSAEncryption
         65:89:95:05:e2:1c:a1:37:63:dc:68:ad:22:6a:a5:39:db:39:
         9e:b3:9e:f5:7d:00:54:32:21:2d:d6:73:2f:9e:29:c9:87:04:
         ab:66:09:11:8c:77:16:9f:bb:98:99:ad:bb:57:a5:db:ea:93:
         8b:0b:49:cd:af:1b:37:25:27:a9:b9:46:0e:98:f3:9a:ae:0b:
         ef:a9:70:5b:21:c7:99:17:1f:68:0b:5f:ca:f8:0e:e1:aa:29:
         f1:e3:26:32:3d:95:04:d5:a7:a2:fa:a6:5f:2c:f3:39:b9:dc:
         d4:89:0d:bd:f9:8f:a1:3d:68:eb:fb:e1:c2:61:20:97:30:f7:
         0f:ed:36:1c:de:a3:76:05:8d:0c:12:69:e1:2f:41:e5:42:9d:
         c5:35:bf:14:62:9e:49:64:a5:e2:6c:dc:16:32:16:75:62:7d:
         61:a8:65:7a:24:35:ff:2e:0f:9c:4f:a8:1d:60:58:76:1c:d6:
         04:ce:fb:78:0e:b3:b6:0a:d6:c9:47:b4:be:75:ae:49:8c:4a:
         f0:10:ae:92:f1:02:dc:97:6f:63:db:11:26:b4:31:cd:0b:4e:
         00:a5:c2:1c:fa:9f:36:6e:df:2c:61:af:37:0e:4c:9f:fc:fe:
         50:66:09:f3:60:ad:cf:e9:1f:1e:29:57:cd:33:a0:59:76:3e:
         f1:78:49:17
-----BEGIN CERTIFICATE-----
MIIDXTCCAkWgAwIBAgIRANtAt2nemLUE8npTJxk4IIowDQYJKoZIhvcNAQELBQAw
FjEUMBIGA1UEAwwLdGVhbTE4Ni1uZXQwHhcNMjIwNTE4MTkwMDE1WhcNMjUwNTAy
MTkwMDE1WjAZMRcwFQYDVQQDDA50ZWFtMTg2LWNsaWVudDCCASIwDQYJKoZIhvcN
AQEBBQADggEPADCCAQoCggEBALRuPUn6okqTKoVtH93o/ez1nNnjFC270cDEkaSe
9ImGk949F3znKPYkSfOD0Fb7UDS7UgNEIVns2pL82exgxAV44mUAFFmR5RZlygRL
9AkqGCmkHlcvb/Rk5bEp+E9xNFpQi7B+mhavJ5XgGeAEK8jugRGYzNzstMhPZY+U
gHap6p6ijpPfMnQB+tQ3uNqb9LKpYvxyTOVCv5xVEsnDGaWAIMjUuqZgYO22+WI5
el0T6h1nB8VDlmkU2wzOtxWcZz6e49EvuNVSwqs7ouEztzvhg67XZnehTXZzZCbE
OcT8iafr7voUy/eGN0jkBNNTiwu8WNI1iscRLBK3/Eun5q0CAwEAAaOBojCBnzAJ
BgNVHRMEAjAAMB0GA1UdDgQWBBR5HDEuU295txLZ9vN3DRi97iwSyzBRBgNVHSME
SjBIgBTnpFOEEgElHoTY9zjBwYdZrPhjGaEapBgwFjEUMBIGA1UEAwwLdGVhbTE4
Ni1uZXSCFH8cA3b7ik3c88ByLCQPGwB7A7jCMBMGA1UdJQQMMAoGCCsGAQUFBwMC
MAsGA1UdDwQEAwIHgDANBgkqhkiG9w0BAQsFAAOCAQEAZYmVBeIcoTdj3GitImql
Ods5nrOe9X0AVDIhLdZzL54pyYcEq2YJEYx3Fp+7mJmtu1el2+qTiwtJza8bNyUn
qblGDpjzmq4L76lwWyHHmRcfaAtfyvgO4aop8eMmMj2VBNWnovqmXyzzObnc1IkN
vfmPoT1o6/vhwmEglzD3D+02HN6jdgWNDBJp4S9B5UKdxTW/FGKeSWSl4mzcFjIW
dWJ9YahleiQ1/y4PnE+oHWBYdhzWBM77eA6ztgrWyUe0vnWuSYxK8BCukvEC3Jdv
Y9sRJrQxzQtOAKXCHPqfNm7fLGGvNw5Mn/z+UGYJ82Ctz+kfHilXzTOgWXY+8XhJ
Fw==
-----END CERTIFICATE-----
