Certificate:
    Data:
        Version: 3 (0x2)
        Serial Number:
            a9:54:a2:c3:8b:40:0b:81:81:b3:9a:93:96:9c:19:60
        Signature Algorithm: sha256WithRSAEncryption
        Issuer: CN=team446-net
        Validity
            Not Before: May 18 21:19:38 2022 GMT
            Not After : May  2 21:19:38 2025 GMT
        Subject: CN=team446-server
        Subject Public Key Info:
            Public Key Algorithm: rsaEncryption
                RSA Public-Key: (2048 bit)
                Modulus:
                    00:ae:cf:17:39:55:68:4d:b7:57:46:00:c3:ab:8d:
                    7f:57:1a:b5:93:6b:a7:ef:35:a5:b7:e0:be:93:b5:
                    7c:49:fd:4b:a5:af:bf:05:15:2b:bc:ad:7a:2c:0d:
                    14:c9:0b:98:df:c1:4b:ea:0f:86:8c:f6:c5:40:ce:
                    55:3a:f4:f1:bc:29:d6:7f:9c:c6:5c:6c:0b:75:8d:
                    50:1b:43:a3:7f:ff:2b:0b:f1:13:62:1b:c6:9f:80:
                    bd:c1:d3:5b:9c:06:63:e3:a0:41:e3:49:b0:dc:ce:
                    73:3d:b4:cb:77:ff:ef:c8:1f:7f:ec:90:14:23:db:
                    13:d8:1c:6d:8d:dc:4b:b2:64:68:6a:74:21:ae:7a:
                    7e:a7:2e:f4:df:82:72:60:52:eb:91:f4:83:a5:1f:
                    85:0e:ae:9f:89:4f:31:e0:f0:7b:51:d2:58:7f:80:
                    47:dc:26:35:08:60:df:d4:cd:5f:3b:60:59:0f:61:
                    1c:f9:9e:e1:2e:88:bc:4d:1b:b6:2e:3c:3a:6a:f7:
                    83:64:42:7b:eb:fe:9c:f7:cc:f7:ca:8e:2f:3a:a3:
                    77:f7:2d:16:aa:94:2f:3e:02:4b:15:c2:83:f3:e0:
                    94:99:b2:cd:8f:ed:1f:31:68:10:39:e9:92:1d:f4:
                    7d:a9:b2:0e:80:b1:57:b5:61:48:a6:10:08:9b:a4:
                    bc:bb
                Exponent: 65537 (0x10001)
        X509v3 extensions:
            X509v3 Basic Constraints: 
                CA:FALSE
            X509v3 Subject Key Identifier: 
                8D:91:C3:53:B7:DA:20:9B:1C:55:21:B6:3B:92:F6:D9:82:23:3F:9A
            X509v3 Authority Key Identifier: 
                keyid:7E:0D:0B:53:B6:E2:EC:C6:B4:32:AB:69:75:5F:16:59:24:15:2F:E6
                DirName:/CN=team446-net
                serial:35:22:7C:3C:A7:24:D6:B0:0D:D4:81:F4:7D:EB:5C:58:A2:4F:63:05

            X509v3 Extended Key Usage: 
                TLS Web Server Authentication
            X509v3 Key Usage: 
                Digital Signature, Key Encipherment
            X509v3 Subject Alternative Name: 
                DNS:team446-server
    Signature Algorithm: sha256WithRSAEncryption
         62:70:57:31:af:a9:0a:f0:33:6d:7f:b1:c9:9a:3d:33:72:37:
         44:7d:bd:89:58:2c:e4:fe:f6:31:d0:18:fa:9f:c4:bb:40:35:
         26:de:8b:ca:a9:b2:ce:f4:f0:d4:a9:ea:18:a6:19:d5:8e:06:
         e2:b1:f4:01:6e:8b:ab:0a:8c:30:62:20:3a:86:8e:19:3f:2a:
         6f:b2:fe:3b:ee:8d:e0:ae:64:3d:e6:fd:9b:52:9d:9c:d6:7a:
         aa:76:2b:a8:a0:fa:3c:e0:2e:54:c0:62:f1:d4:d8:51:6f:46:
         3d:1e:a7:6f:68:1a:6f:55:43:9e:2a:eb:b6:7c:ee:4f:f1:59:
         40:25:51:33:5f:f3:b6:7e:96:86:f9:ea:ee:d2:5b:5d:b4:37:
         be:d1:0f:88:77:68:1e:bd:3f:4d:1f:ab:25:6c:36:76:f5:9a:
         ca:02:ed:b4:0a:ba:60:e8:e9:a2:85:c6:03:5f:8a:66:1f:ba:
         67:e8:f8:79:e0:1c:ff:b5:2e:2a:db:b9:49:0b:4e:fc:52:b9:
         f6:d8:55:aa:62:45:23:80:9d:70:d8:1f:f4:5f:86:a5:2e:12:
         74:c0:71:3a:26:39:ad:91:bd:60:00:89:78:3d:36:71:ed:99:
         97:62:44:7f:88:bf:64:49:ce:4a:b8:b3:2d:c6:5a:b1:3b:54:
         c6:e7:7c:93
-----BEGIN CERTIFICATE-----
MIIDeDCCAmCgAwIBAgIRAKlUosOLQAuBgbOak5acGWAwDQYJKoZIhvcNAQELBQAw
FjEUMBIGA1UEAwwLdGVhbTQ0Ni1uZXQwHhcNMjIwNTE4MjExOTM4WhcNMjUwNTAy
MjExOTM4WjAZMRcwFQYDVQQDDA50ZWFtNDQ2LXNlcnZlcjCCASIwDQYJKoZIhvcN
AQEBBQADggEPADCCAQoCggEBAK7PFzlVaE23V0YAw6uNf1catZNrp+81pbfgvpO1
fEn9S6WvvwUVK7yteiwNFMkLmN/BS+oPhoz2xUDOVTr08bwp1n+cxlxsC3WNUBtD
o3//KwvxE2Ibxp+AvcHTW5wGY+OgQeNJsNzOcz20y3f/78gff+yQFCPbE9gcbY3c
S7JkaGp0Ia56fqcu9N+CcmBS65H0g6UfhQ6un4lPMeDwe1HSWH+AR9wmNQhg39TN
XztgWQ9hHPme4S6IvE0bti48Omr3g2RCe+v+nPfM98qOLzqjd/ctFqqULz4CSxXC
g/PglJmyzY/tHzFoEDnpkh30famyDoCxV7VhSKYQCJukvLsCAwEAAaOBvTCBujAJ
BgNVHRMEAjAAMB0GA1UdDgQWBBSNkcNTt9ogmxxVIbY7kvbZgiM/mjBRBgNVHSME
SjBIgBR+DQtTtuLsxrQyq2l1XxZZJBUv5qEapBgwFjEUMBIGA1UEAwwLdGVhbTQ0
Ni1uZXSCFDUifDynJNawDdSB9H3rXFiiT2MFMBMGA1UdJQQMMAoGCCsGAQUFBwMB
MAsGA1UdDwQEAwIFoDAZBgNVHREEEjAQgg50ZWFtNDQ2LXNlcnZlcjANBgkqhkiG
9w0BAQsFAAOCAQEAYnBXMa+pCvAzbX+xyZo9M3I3RH29iVgs5P72MdAY+p/Eu0A1
Jt6LyqmyzvTw1KnqGKYZ1Y4G4rH0AW6LqwqMMGIgOoaOGT8qb7L+O+6N4K5kPeb9
m1KdnNZ6qnYrqKD6POAuVMBi8dTYUW9GPR6nb2gab1VDnirrtnzuT/FZQCVRM1/z
tn6Whvnq7tJbXbQ3vtEPiHdoHr0/TR+rJWw2dvWaygLttAq6YOjpooXGA1+KZh+6
Z+j4eeAc/7UuKtu5SQtO/FK59thVqmJFI4CdcNgf9F+GpS4SdMBxOiY5rZG9YACJ
eD02ce2Zl2JEf4i/ZEnOSrizLcZasTtUxud8kw==
-----END CERTIFICATE-----
