Certificate:
    Data:
        Version: 3 (0x2)
        Serial Number:
            b8:ef:50:51:8f:a9:ac:46:16:37:1f:b6:d3:de:6d:e6
        Signature Algorithm: sha256WithRSAEncryption
        Issuer: CN=team561-net
        Validity
            Not Before: May 18 22:25:48 2022 GMT
            Not After : May  2 22:25:48 2025 GMT
        Subject: CN=team561-server
        Subject Public Key Info:
            Public Key Algorithm: rsaEncryption
                RSA Public-Key: (2048 bit)
                Modulus:
                    00:da:53:ab:39:5d:57:0f:90:89:e9:29:87:1f:d7:
                    5b:7d:aa:f1:4e:22:8f:98:3d:b5:d8:5f:c7:7f:fd:
                    a5:5f:1d:a5:f8:d7:58:50:15:53:44:6e:51:40:8a:
                    34:0f:52:f1:57:dd:f2:7c:03:91:e7:0b:72:b7:c7:
                    8c:9a:92:06:7f:4f:e6:bc:33:7d:cf:94:21:bf:67:
                    5d:96:87:fd:b4:79:cd:87:c2:8b:64:c3:11:52:8f:
                    9a:25:88:ff:7a:d5:77:95:bc:b9:c6:e0:ba:ea:64:
                    4f:ea:33:d6:c6:6c:d2:bd:30:c3:cc:66:63:06:2d:
                    4e:df:05:70:89:42:41:45:a1:35:a9:95:20:61:06:
                    e2:80:ad:01:c7:86:51:fc:bd:3d:f7:9c:4a:ce:eb:
                    5f:8f:ce:bb:c3:42:8d:e2:6f:bb:08:32:df:3a:61:
                    c2:df:ab:b4:6b:9b:58:42:b1:33:7f:bd:cf:a2:f4:
                    3d:84:20:e2:84:5a:f5:55:01:ff:4a:bb:09:7f:f0:
                    eb:2a:25:c3:cf:9b:67:f0:45:47:41:53:95:8a:c6:
                    a4:34:c1:fc:bd:f3:35:ae:14:63:d0:12:d4:7f:b5:
                    dc:0c:f6:f6:7f:22:f6:03:77:18:29:af:02:7d:ad:
                    f1:39:3d:da:05:f3:02:c3:1f:41:f7:b0:32:ce:c3:
                    9d:cb
                Exponent: 65537 (0x10001)
        X509v3 extensions:
            X509v3 Basic Constraints: 
                CA:FALSE
            X509v3 Subject Key Identifier: 
                47:38:01:02:00:70:72:B9:7E:10:4C:DF:42:93:54:A8:BD:D2:55:BD
            X509v3 Authority Key Identifier: 
                keyid:F4:3E:C9:DE:A4:BA:C8:CB:26:0F:C6:CE:7B:D6:CF:9C:E3:F6:47:41
                DirName:/CN=team561-net
                serial:28:76:61:B2:FD:68:0D:4D:DC:94:C2:72:3D:9F:1E:E3:49:9F:D9:05

            X509v3 Extended Key Usage: 
                TLS Web Server Authentication
            X509v3 Key Usage: 
                Digital Signature, Key Encipherment
            X509v3 Subject Alternative Name: 
                DNS:team561-server
    Signature Algorithm: sha256WithRSAEncryption
         77:ec:07:e7:f7:77:af:ea:08:5f:b7:42:2e:2e:c0:99:4e:c0:
         31:de:58:a2:d2:c2:5c:22:88:bf:f7:7d:30:01:70:d9:e6:9b:
         68:e1:dd:02:2b:84:84:88:08:d8:93:71:69:da:b1:14:e2:0a:
         44:d9:d6:b2:7a:d7:e2:83:ba:14:b3:3a:3f:92:5b:9d:75:b3:
         d9:0a:89:ef:5f:9d:fd:e0:97:29:66:c7:a2:dc:7f:75:53:40:
         7c:9c:00:d4:0a:49:4b:52:fb:b9:27:55:9e:27:7f:00:19:a1:
         38:48:d3:4e:49:48:a5:1f:6e:46:d8:a3:67:f9:17:6f:88:0c:
         7f:1f:77:07:93:b9:df:14:ff:2e:2c:be:06:06:a2:b3:4d:7a:
         92:aa:d0:3b:94:81:bc:12:df:05:a6:42:5b:58:9d:fc:6d:77:
         34:4f:f9:ac:7d:b5:10:96:b1:d2:42:c7:05:32:e7:ca:e1:35:
         d4:62:ff:fc:bd:61:9c:0e:2c:8a:21:b7:ea:76:6d:26:20:59:
         fd:9d:14:23:52:bf:b3:a3:ea:29:dd:18:90:bd:4e:53:42:aa:
         11:f4:12:9e:9e:65:11:bf:42:29:7c:c2:4c:f4:15:c1:b2:65:
         18:2d:6a:de:3a:99:7e:bf:c3:bd:36:41:95:08:46:da:d8:e0:
         2c:9b:c5:eb
-----BEGIN CERTIFICATE-----
MIIDeDCCAmCgAwIBAgIRALjvUFGPqaxGFjcfttPebeYwDQYJKoZIhvcNAQELBQAw
FjEUMBIGA1UEAwwLdGVhbTU2MS1uZXQwHhcNMjIwNTE4MjIyNTQ4WhcNMjUwNTAy
MjIyNTQ4WjAZMRcwFQYDVQQDDA50ZWFtNTYxLXNlcnZlcjCCASIwDQYJKoZIhvcN
AQEBBQADggEPADCCAQoCggEBANpTqzldVw+Qiekphx/XW32q8U4ij5g9tdhfx3/9
pV8dpfjXWFAVU0RuUUCKNA9S8Vfd8nwDkecLcrfHjJqSBn9P5rwzfc+UIb9nXZaH
/bR5zYfCi2TDEVKPmiWI/3rVd5W8ucbguupkT+oz1sZs0r0ww8xmYwYtTt8FcIlC
QUWhNamVIGEG4oCtAceGUfy9PfecSs7rX4/Ou8NCjeJvuwgy3zphwt+rtGubWEKx
M3+9z6L0PYQg4oRa9VUB/0q7CX/w6yolw8+bZ/BFR0FTlYrGpDTB/L3zNa4UY9AS
1H+13Az29n8i9gN3GCmvAn2t8Tk92gXzAsMfQfewMs7DncsCAwEAAaOBvTCBujAJ
BgNVHRMEAjAAMB0GA1UdDgQWBBRHOAECAHByuX4QTN9Ck1SovdJVvTBRBgNVHSME
SjBIgBT0PsnepLrIyyYPxs571s+c4/ZHQaEapBgwFjEUMBIGA1UEAwwLdGVhbTU2
MS1uZXSCFCh2YbL9aA1N3JTCcj2fHuNJn9kFMBMGA1UdJQQMMAoGCCsGAQUFBwMB
MAsGA1UdDwQEAwIFoDAZBgNVHREEEjAQgg50ZWFtNTYxLXNlcnZlcjANBgkqhkiG
9w0BAQsFAAOCAQEAd+wH5/d3r+oIX7dCLi7AmU7AMd5YotLCXCKIv/d9MAFw2eab
aOHdAiuEhIgI2JNxadqxFOIKRNnWsnrX4oO6FLM6P5JbnXWz2QqJ71+d/eCXKWbH
otx/dVNAfJwA1ApJS1L7uSdVnid/ABmhOEjTTklIpR9uRtijZ/kXb4gMfx93B5O5
3xT/Liy+Bgais016kqrQO5SBvBLfBaZCW1id/G13NE/5rH21EJax0kLHBTLnyuE1
1GL//L1hnA4siiG36nZtJiBZ/Z0UI1K/s6PqKd0YkL1OU0KqEfQSnp5lEb9CKXzC
TPQVwbJlGC1q3jqZfr/DvTZBlQhG2tjgLJvF6w==
-----END CERTIFICATE-----
