Certificate:
    Data:
        Version: 3 (0x2)
        Serial Number:
            80:4b:8d:a7:38:01:3c:37:88:b2:0f:cd:91:19:a7:52
        Signature Algorithm: sha256WithRSAEncryption
        Issuer: CN=team299-net
        Validity
            Not Before: May 18 20:05:34 2022 GMT
            Not After : May  2 20:05:34 2025 GMT
        Subject: CN=team299-client
        Subject Public Key Info:
            Public Key Algorithm: rsaEncryption
                RSA Public-Key: (2048 bit)
                Modulus:
                    00:aa:03:8d:7e:25:15:2f:6e:a7:1b:ec:a9:0c:30:
                    66:98:9c:ea:46:65:bf:c5:61:5c:e5:60:cd:c7:e2:
                    d0:ff:56:95:b2:d2:32:55:53:f1:7d:cd:4f:9b:7e:
                    b5:05:ff:67:f8:75:73:39:76:1c:3a:3f:7d:b1:17:
                    45:a0:42:60:ce:e7:be:e5:38:33:6a:85:38:08:dc:
                    f4:46:78:3e:f8:48:32:55:a9:6d:85:1b:89:10:70:
                    09:df:49:fe:a1:65:b5:eb:57:3e:5c:c5:29:e3:62:
                    ad:7e:c7:b1:9c:42:ba:1b:2e:27:80:83:e5:67:36:
                    23:57:ca:96:c4:1a:ac:e0:aa:a4:a8:e1:5d:5f:96:
                    51:7a:40:f3:24:4e:40:f2:76:4d:d2:ae:d3:6f:bf:
                    20:46:f4:fa:1f:df:07:65:1a:6e:4f:c8:be:11:e0:
                    57:84:49:39:b7:a8:67:a6:ee:b6:74:7e:09:82:91:
                    8a:ee:22:94:5e:74:0d:1b:5f:aa:40:b4:9f:fc:80:
                    e0:f4:1d:d6:59:74:e4:a5:d6:dd:3f:83:c9:05:96:
                    df:ae:66:ac:9e:9a:de:2c:9b:34:ba:99:c6:9a:4e:
                    a5:02:a1:35:68:ff:4d:0c:d4:04:0b:82:95:f8:6d:
                    95:2d:ae:86:4f:97:01:5a:3c:76:95:d0:eb:26:ed:
                    ea:7d
                Exponent: 65537 (0x10001)
        X509v3 extensions:
            X509v3 Basic Constraints: 
                CA:FALSE
            X509v3 Subject Key Identifier: 
                1E:AB:03:75:4C:E5:7F:DA:7C:35:B9:B6:6A:77:F4:25:27:03:60:21
            X509v3 Authority Key Identifier: 
                keyid:F6:C9:EC:19:DE:97:46:93:33:95:8A:17:12:1A:CF:FF:00:30:CA:E8
                DirName:/CN=team299-net
                serial:09:BC:A4:FD:2A:F1:0D:96:73:8D:65:8F:F1:7E:E8:14:C9:A8:DE:DE

            X509v3 Extended Key Usage: 
                TLS Web Client Authentication
            X509v3 Key Usage: 
                Digital Signature
    Signature Algorithm: sha256WithRSAEncryption
         5d:b6:98:4c:ac:9c:9d:ac:a6:24:cd:54:eb:62:15:a4:90:d2:
         93:16:e2:1a:a1:0a:92:1f:56:02:7e:9c:1f:1b:e5:f4:e0:ea:
         c5:bc:96:64:df:b3:9d:ad:27:b9:f8:88:37:92:d5:11:0a:74:
         83:0a:66:fb:15:83:81:fd:9a:33:f4:c6:c0:af:0d:16:22:b0:
         d9:d0:7d:01:f5:d7:46:94:3b:61:70:6d:3c:39:ef:45:80:13:
         42:28:3e:87:d9:80:cb:ae:6f:1f:d4:22:92:a0:d1:60:3c:b2:
         88:9e:da:5b:39:56:69:ff:c2:c9:b6:71:8a:5f:62:a5:83:a3:
         98:4f:62:e7:84:0d:4a:63:1e:35:6a:ab:b0:26:b5:22:8b:54:
         b4:2a:47:40:2c:48:77:de:e9:ec:bf:5f:4a:f9:22:6a:5a:45:
         d2:93:ab:15:2c:36:87:f4:e3:4e:92:ef:7c:12:02:bf:f9:4e:
         3f:3d:23:6f:4a:98:68:28:d0:c0:b8:8e:44:33:b8:a0:e9:84:
         a7:b6:41:9a:97:52:26:73:2b:1d:ab:6b:a4:d3:e5:cd:c2:3a:
         16:0a:39:22:41:3e:79:d7:65:fd:3b:04:d5:9e:4e:d5:c5:dc:
         10:41:26:20:fc:d1:5c:2b:ff:5a:76:5a:65:f9:b1:8b:2b:83:
         56:ac:ef:eb
-----BEGIN CERTIFICATE-----
MIIDXTCCAkWgAwIBAgIRAIBLjac4ATw3iLIPzZEZp1IwDQYJKoZIhvcNAQELBQAw
FjEUMBIGA1UEAwwLdGVhbTI5OS1uZXQwHhcNMjIwNTE4MjAwNTM0WhcNMjUwNTAy
MjAwNTM0WjAZMRcwFQYDVQQDDA50ZWFtMjk5LWNsaWVudDCCASIwDQYJKoZIhvcN
AQEBBQADggEPADCCAQoCggEBAKoDjX4lFS9upxvsqQwwZpic6kZlv8VhXOVgzcfi
0P9WlbLSMlVT8X3NT5t+tQX/Z/h1czl2HDo/fbEXRaBCYM7nvuU4M2qFOAjc9EZ4
PvhIMlWpbYUbiRBwCd9J/qFltetXPlzFKeNirX7HsZxCuhsuJ4CD5Wc2I1fKlsQa
rOCqpKjhXV+WUXpA8yROQPJ2TdKu02+/IEb0+h/fB2Uabk/IvhHgV4RJObeoZ6bu
tnR+CYKRiu4ilF50DRtfqkC0n/yA4PQd1ll05KXW3T+DyQWW365mrJ6a3iybNLqZ
xppOpQKhNWj/TQzUBAuClfhtlS2uhk+XAVo8dpXQ6ybt6n0CAwEAAaOBojCBnzAJ
BgNVHRMEAjAAMB0GA1UdDgQWBBQeqwN1TOV/2nw1ubZqd/QlJwNgITBRBgNVHSME
SjBIgBT2yewZ3pdGkzOVihcSGs//ADDK6KEapBgwFjEUMBIGA1UEAwwLdGVhbTI5
OS1uZXSCFAm8pP0q8Q2Wc41lj/F+6BTJqN7eMBMGA1UdJQQMMAoGCCsGAQUFBwMC
MAsGA1UdDwQEAwIHgDANBgkqhkiG9w0BAQsFAAOCAQEAXbaYTKycnaymJM1U62IV
pJDSkxbiGqEKkh9WAn6cHxvl9ODqxbyWZN+zna0nufiIN5LVEQp0gwpm+xWDgf2a
M/TGwK8NFiKw2dB9AfXXRpQ7YXBtPDnvRYATQig+h9mAy65vH9QikqDRYDyyiJ7a
WzlWaf/CybZxil9ipYOjmE9i54QNSmMeNWqrsCa1IotUtCpHQCxId97p7L9fSvki
alpF0pOrFSw2h/TjTpLvfBICv/lOPz0jb0qYaCjQwLiORDO4oOmEp7ZBmpdSJnMr
HatrpNPlzcI6Fgo5IkE+eddl/TsE1Z5O1cXcEEEmIPzRXCv/WnZaZfmxiyuDVqzv
6w==
-----END CERTIFICATE-----
