Certificate:
    Data:
        Version: 3 (0x2)
        Serial Number:
            13:1b:0f:9d:57:80:b0:8b:13:d6:ec:35:32:da:c2:fc
        Signature Algorithm: sha256WithRSAEncryption
        Issuer: CN=team33-net
        Validity
            Not Before: May 18 14:09:26 2022 GMT
            Not After : May  2 14:09:26 2025 GMT
        Subject: CN=team33-server
        Subject Public Key Info:
            Public Key Algorithm: rsaEncryption
                RSA Public-Key: (2048 bit)
                Modulus:
                    00:da:2a:6d:4a:34:f7:58:39:e4:8c:c7:46:1b:86:
                    24:bb:e0:b7:55:56:a9:47:03:1a:96:1a:b8:e8:76:
                    9a:41:10:27:3f:98:26:de:c7:e6:22:3a:11:bf:82:
                    68:e2:dc:f0:44:b9:46:37:d7:f0:8f:c8:9b:11:b8:
                    68:c8:98:dc:08:e9:4b:e0:5d:2a:04:eb:7c:5f:5d:
                    42:7a:80:dc:cc:98:34:bf:d4:1b:10:b2:eb:ac:ef:
                    66:d7:d7:33:41:78:78:75:25:cd:2a:0f:b1:5f:ed:
                    e5:11:78:9a:03:d1:0a:7b:4d:6f:a8:e1:44:bb:dd:
                    cf:f2:16:53:1a:57:83:c7:fa:62:4f:f0:dd:fa:61:
                    5e:13:ae:3c:58:61:98:17:38:0f:78:c8:2e:09:dd:
                    f5:28:1c:05:3d:f9:9d:71:a8:88:39:98:ca:bf:73:
                    2a:09:db:43:cc:7b:6b:86:a4:ef:8c:93:d5:7b:9d:
                    25:dd:99:73:de:d2:26:fc:cb:18:fd:03:56:27:85:
                    02:7c:47:fd:a1:f8:fb:12:17:6a:e8:44:e7:eb:19:
                    8b:4b:ec:18:f3:e6:6b:bc:72:f6:bf:a6:22:23:90:
                    92:6d:33:84:fe:e0:40:47:0e:6c:4a:f6:96:f3:13:
                    f9:a5:bf:75:f5:74:eb:f5:c8:b0:17:63:9e:62:ac:
                    a6:5d
                Exponent: 65537 (0x10001)
        X509v3 extensions:
            X509v3 Basic Constraints: 
                CA:FALSE
            X509v3 Subject Key Identifier: 
                FE:19:D0:63:64:F5:42:6F:DF:1F:E1:C5:B2:EE:57:3C:51:5D:79:07
            X509v3 Authority Key Identifier: 
                keyid:AD:7C:09:C8:EF:96:B1:5E:AE:A6:14:1B:54:B0:43:1D:B0:B2:70:A3
                DirName:/CN=team33-net
                serial:6F:96:70:A4:BA:44:91:61:DE:C4:30:E0:C0:D6:5C:18:0B:98:54:AF

            X509v3 Extended Key Usage: 
                TLS Web Server Authentication
            X509v3 Key Usage: 
                Digital Signature, Key Encipherment
            X509v3 Subject Alternative Name: 
                DNS:team33-server
    Signature Algorithm: sha256WithRSAEncryption
         bd:6c:af:8b:a3:b0:8d:9a:70:b9:4d:f9:12:6f:77:97:dc:a5:
         e7:e2:d3:70:12:44:93:c4:89:1f:e2:8b:d5:34:ce:22:71:2d:
         5b:41:41:c4:11:24:68:84:7e:e3:5b:d4:b4:02:a3:56:b7:49:
         42:c8:a0:d2:5e:cd:68:87:13:a1:cc:98:c5:14:d2:bf:ee:48:
         9a:82:d7:ac:f3:28:c2:dd:9f:3c:39:d3:3e:12:31:5c:56:93:
         b3:e4:bd:6b:01:f0:b0:66:7e:5d:6d:b4:0f:18:38:0f:c0:c3:
         c8:32:ab:85:2b:77:bf:a5:78:f2:b9:e2:ed:56:f5:c3:09:fe:
         32:3c:cf:85:fb:3f:68:36:57:db:37:ea:b6:0e:01:13:89:8e:
         90:42:00:66:e4:be:f6:6b:be:82:e1:58:51:e9:19:59:29:dd:
         2c:88:cd:a0:15:b6:54:fd:98:2e:0b:89:c6:9b:ae:5d:45:cb:
         3c:ff:37:14:74:c7:2a:72:2e:8a:7c:82:15:eb:fe:96:f0:7f:
         07:34:49:98:1b:bd:b1:6c:8f:51:74:db:63:cd:d4:bc:a0:ee:
         49:5a:97:0f:54:c7:85:eb:92:b1:b8:21:3b:fa:88:71:ca:02:
         2d:84:80:a2:ee:18:bf:de:c3:2c:88:03:1d:cf:6b:43:1d:e2:
         37:92:db:af
-----BEGIN CERTIFICATE-----
MIIDczCCAlugAwIBAgIQExsPnVeAsIsT1uw1MtrC/DANBgkqhkiG9w0BAQsFADAV
MRMwEQYDVQQDDAp0ZWFtMzMtbmV0MB4XDTIyMDUxODE0MDkyNloXDTI1MDUwMjE0
MDkyNlowGDEWMBQGA1UEAwwNdGVhbTMzLXNlcnZlcjCCASIwDQYJKoZIhvcNAQEB
BQADggEPADCCAQoCggEBANoqbUo091g55IzHRhuGJLvgt1VWqUcDGpYauOh2mkEQ
Jz+YJt7H5iI6Eb+CaOLc8ES5RjfX8I/ImxG4aMiY3AjpS+BdKgTrfF9dQnqA3MyY
NL/UGxCy66zvZtfXM0F4eHUlzSoPsV/t5RF4mgPRCntNb6jhRLvdz/IWUxpXg8f6
Yk/w3fphXhOuPFhhmBc4D3jILgnd9SgcBT35nXGoiDmYyr9zKgnbQ8x7a4ak74yT
1XudJd2Zc97SJvzLGP0DVieFAnxH/aH4+xIXauhE5+sZi0vsGPPma7xy9r+mIiOQ
km0zhP7gQEcObEr2lvMT+aW/dfV06/XIsBdjnmKspl0CAwEAAaOBuzCBuDAJBgNV
HRMEAjAAMB0GA1UdDgQWBBT+GdBjZPVCb98f4cWy7lc8UV15BzBQBgNVHSMESTBH
gBStfAnI75axXq6mFBtUsEMdsLJwo6EZpBcwFTETMBEGA1UEAwwKdGVhbTMzLW5l
dIIUb5ZwpLpEkWHexDDgwNZcGAuYVK8wEwYDVR0lBAwwCgYIKwYBBQUHAwEwCwYD
VR0PBAQDAgWgMBgGA1UdEQQRMA+CDXRlYW0zMy1zZXJ2ZXIwDQYJKoZIhvcNAQEL
BQADggEBAL1sr4ujsI2acLlN+RJvd5fcpefi03ASRJPEiR/ii9U0ziJxLVtBQcQR
JGiEfuNb1LQCo1a3SULIoNJezWiHE6HMmMUU0r/uSJqC16zzKMLdnzw50z4SMVxW
k7PkvWsB8LBmfl1ttA8YOA/Aw8gyq4Urd7+lePK54u1W9cMJ/jI8z4X7P2g2V9s3
6rYOAROJjpBCAGbkvvZrvoLhWFHpGVkp3SyIzaAVtlT9mC4Licabrl1Fyzz/NxR0
xypyLop8ghXr/pbwfwc0SZgbvbFsj1F022PN1Lyg7klalw9Ux4XrkrG4ITv6iHHK
Ai2EgKLuGL/ewyyIAx3Pa0Md4jeS268=
-----END CERTIFICATE-----
