Certificate:
    Data:
        Version: 3 (0x2)
        Serial Number:
            4e:6c:88:42:c8:c3:2e:44:d4:29:cc:70:6b:f4:bb:6c
        Signature Algorithm: sha256WithRSAEncryption
        Issuer: CN=team310-net
        Validity
            Not Before: May 18 20:02:02 2022 GMT
            Not After : May  2 20:02:02 2025 GMT
        Subject: CN=team310-server
        Subject Public Key Info:
            Public Key Algorithm: rsaEncryption
                RSA Public-Key: (2048 bit)
                Modulus:
                    00:bf:d6:02:ad:c8:b3:00:ff:df:75:39:5e:d7:4b:
                    13:e0:c8:8e:67:b9:a9:a9:74:cc:69:75:71:37:5a:
                    fd:61:1e:d5:38:0f:09:4e:02:6e:27:44:88:bb:5a:
                    8e:7b:c8:f1:16:b7:bd:ac:c9:14:eb:64:ba:c0:df:
                    db:3b:a0:e8:22:38:74:e3:2e:f8:d0:81:48:65:2b:
                    09:74:d9:66:6c:a5:bb:1b:13:fe:16:b9:4e:d4:01:
                    43:19:cf:06:ab:08:09:1f:e2:d6:90:7d:d8:5e:85:
                    a3:3e:90:ba:77:27:05:31:85:05:b1:48:39:b0:1e:
                    ce:7f:ce:23:83:c4:89:97:19:85:0a:67:14:61:5c:
                    be:1a:22:89:ce:e3:9a:e3:17:f4:a8:ab:7a:61:92:
                    47:71:a3:5b:13:d7:5e:b5:12:b6:ba:4f:27:bb:e8:
                    95:53:95:14:5f:ec:a8:4d:d7:a0:7f:5d:d3:b2:d2:
                    c5:46:70:a1:51:95:78:44:69:fc:66:cb:ae:e4:59:
                    4c:16:ce:6b:58:7f:96:fa:cb:a9:1b:7a:66:9d:b7:
                    68:00:ab:e0:11:b0:23:b1:b1:34:f4:57:29:b2:5d:
                    84:9e:ec:fd:9d:1c:a1:a6:84:3b:fb:28:b3:e2:a9:
                    98:ac:d1:02:5e:08:9e:5d:2d:78:69:67:38:27:16:
                    32:21
                Exponent: 65537 (0x10001)
        X509v3 extensions:
            X509v3 Basic Constraints: 
                CA:FALSE
            X509v3 Subject Key Identifier: 
                B2:60:A3:6D:6E:1D:04:8A:84:2A:63:94:BD:20:D9:B0:BE:6C:79:0D
            X509v3 Authority Key Identifier: 
                keyid:3D:AD:93:8B:1C:43:89:7D:BB:13:A2:7D:B9:EA:A4:F7:1B:7A:46:0A
                DirName:/CN=team310-net
                serial:38:FF:D4:C4:79:40:6B:5A:5D:FD:96:D6:1C:03:53:F4:61:C4:E0:9A

            X509v3 Extended Key Usage: 
                TLS Web Server Authentication
            X509v3 Key Usage: 
                Digital Signature, Key Encipherment
            X509v3 Subject Alternative Name: 
                DNS:team310-server
    Signature Algorithm: sha256WithRSAEncryption
         a9:00:a3:7d:b4:c8:09:0e:c0:27:4f:bc:a9:9e:ef:ba:ec:23:
         ef:38:e1:80:fd:6e:57:8d:5d:db:11:e6:6e:15:d3:0c:04:40:
         de:df:e8:a8:09:19:31:17:bd:ee:42:77:91:3d:7d:69:bc:46:
         68:f8:8b:e4:8d:b9:8e:d1:2a:5e:0c:33:36:9a:31:d6:93:39:
         89:d0:05:d7:da:79:08:a5:24:52:b6:9b:53:aa:4c:ff:b5:5d:
         83:92:a6:c6:bf:87:f7:0e:a4:2a:a1:95:be:e2:b2:1c:2d:94:
         b1:87:0f:4c:13:32:e5:46:9b:21:60:b5:ca:28:64:51:31:1b:
         cc:83:43:7b:bc:14:73:ae:37:5c:62:cf:f5:91:42:86:73:9b:
         f0:c2:2b:41:04:f9:8b:58:8b:b9:01:60:55:35:54:ef:2d:e1:
         10:cf:b8:68:d1:12:01:3b:c8:be:50:48:1e:22:62:5f:37:1f:
         0f:73:a8:66:11:a8:bf:b1:ad:7c:6b:89:97:fb:ee:93:4e:4b:
         92:ee:5b:9a:02:7e:a3:09:a2:45:63:38:7b:9c:1b:b7:73:94:
         a2:1e:b3:b5:d7:b6:6c:98:b9:8d:a5:1e:1e:21:89:04:93:9c:
         62:da:d9:f9:f2:c2:c6:48:6c:60:06:a9:a5:e9:87:ae:e9:33:
         ef:b6:25:a1
-----BEGIN CERTIFICATE-----
MIIDdzCCAl+gAwIBAgIQTmyIQsjDLkTUKcxwa/S7bDANBgkqhkiG9w0BAQsFADAW
MRQwEgYDVQQDDAt0ZWFtMzEwLW5ldDAeFw0yMjA1MTgyMDAyMDJaFw0yNTA1MDIy
MDAyMDJaMBkxFzAVBgNVBAMMDnRlYW0zMTAtc2VydmVyMIIBIjANBgkqhkiG9w0B
AQEFAAOCAQ8AMIIBCgKCAQEAv9YCrcizAP/fdTle10sT4MiOZ7mpqXTMaXVxN1r9
YR7VOA8JTgJuJ0SIu1qOe8jxFre9rMkU62S6wN/bO6DoIjh04y740IFIZSsJdNlm
bKW7GxP+FrlO1AFDGc8GqwgJH+LWkH3YXoWjPpC6dycFMYUFsUg5sB7Of84jg8SJ
lxmFCmcUYVy+GiKJzuOa4xf0qKt6YZJHcaNbE9detRK2uk8nu+iVU5UUX+yoTdeg
f13TstLFRnChUZV4RGn8Zsuu5FlMFs5rWH+W+supG3pmnbdoAKvgEbAjsbE09Fcp
sl2Enuz9nRyhpoQ7+yiz4qmYrNECXgieXS14aWc4JxYyIQIDAQABo4G9MIG6MAkG
A1UdEwQCMAAwHQYDVR0OBBYEFLJgo21uHQSKhCpjlL0g2bC+bHkNMFEGA1UdIwRK
MEiAFD2tk4scQ4l9uxOifbnqpPcbekYKoRqkGDAWMRQwEgYDVQQDDAt0ZWFtMzEw
LW5ldIIUOP/UxHlAa1pd/ZbWHANT9GHE4JowEwYDVR0lBAwwCgYIKwYBBQUHAwEw
CwYDVR0PBAQDAgWgMBkGA1UdEQQSMBCCDnRlYW0zMTAtc2VydmVyMA0GCSqGSIb3
DQEBCwUAA4IBAQCpAKN9tMgJDsAnT7ypnu+67CPvOOGA/W5XjV3bEeZuFdMMBEDe
3+ioCRkxF73uQneRPX1pvEZo+IvkjbmO0SpeDDM2mjHWkzmJ0AXX2nkIpSRStptT
qkz/tV2DkqbGv4f3DqQqoZW+4rIcLZSxhw9MEzLlRpshYLXKKGRRMRvMg0N7vBRz
rjdcYs/1kUKGc5vwwitBBPmLWIu5AWBVNVTvLeEQz7ho0RIBO8i+UEgeImJfNx8P
c6hmEai/sa18a4mX++6TTkuS7luaAn6jCaJFYzh7nBu3c5SiHrO117ZsmLmNpR4e
IYkEk5xi2tn58sLGSGxgBqml6Yeu6TPvtiWh
-----END CERTIFICATE-----
