Certificate:
    Data:
        Version: 3 (0x2)
        Serial Number:
            17:ac:86:d9:f7:4d:bf:87:1e:d5:2e:3b:7f:ab:c4:47
        Signature Algorithm: sha256WithRSAEncryption
        Issuer: CN=team623-net
        Validity
            Not Before: May 18 23:04:01 2022 GMT
            Not After : May  2 23:04:01 2025 GMT
        Subject: CN=team623-client
        Subject Public Key Info:
            Public Key Algorithm: rsaEncryption
                RSA Public-Key: (2048 bit)
                Modulus:
                    00:c1:53:75:5c:6a:c2:2d:86:52:6e:85:84:0a:7c:
                    b2:89:f8:6a:bb:59:06:01:fa:44:3a:23:c7:47:68:
                    08:1b:d0:a2:9d:0c:48:41:94:fd:ab:8a:ef:d3:e1:
                    c9:dd:50:18:c1:08:79:c8:8f:b3:7e:c1:d4:d1:c6:
                    ff:b0:6a:a5:d2:d7:da:2d:29:f6:8a:e3:58:da:90:
                    5c:39:e1:fb:99:8b:ea:3f:6b:c4:c9:e3:84:9a:7e:
                    20:e9:d1:7b:bc:c5:8f:6d:40:e6:f7:d9:f2:b2:d5:
                    d9:2b:f9:49:ba:08:2e:c1:dc:0a:62:f6:be:ec:5a:
                    11:1d:6b:d9:85:f1:ae:f3:bc:ad:ac:0b:56:3a:00:
                    10:ca:ff:a2:84:60:8e:71:44:c3:81:69:94:4a:d0:
                    b0:23:5c:04:22:96:8d:d3:c3:d5:22:86:17:54:70:
                    2a:1c:89:e6:9e:b2:47:55:b2:da:c7:e7:5f:ad:f3:
                    56:9a:0b:d0:02:f6:2b:ec:69:fb:11:f0:83:37:e4:
                    11:a2:de:39:5a:a7:33:fc:7c:0c:61:a9:f3:03:46:
                    da:9e:c0:b9:c5:56:39:d2:08:d7:0f:97:58:95:91:
                    b3:1c:4c:2c:fb:4b:c9:c6:bf:b5:31:10:65:db:0e:
                    4a:d7:b1:0b:d5:8e:61:6a:05:b7:3e:9f:09:a4:43:
                    64:83
                Exponent: 65537 (0x10001)
        X509v3 extensions:
            X509v3 Basic Constraints: 
                CA:FALSE
            X509v3 Subject Key Identifier: 
                C0:71:B2:2A:EC:9E:DD:A7:8E:E8:36:4B:88:DC:E8:9C:B8:3C:C4:E2
            X509v3 Authority Key Identifier: 
                keyid:0B:69:6F:46:1C:AB:0E:54:22:15:36:E0:EA:22:86:14:CC:A5:CA:77
                DirName:/CN=team623-net
                serial:55:C1:A8:A5:BB:FE:80:3B:7B:B2:F8:2A:D7:12:1D:D5:72:EA:20:AA

            X509v3 Extended Key Usage: 
                TLS Web Client Authentication
            X509v3 Key Usage: 
                Digital Signature
    Signature Algorithm: sha256WithRSAEncryption
         2c:e3:c9:ec:a2:49:a7:2d:cc:9c:d2:84:7f:12:a5:5a:6e:d3:
         34:17:fa:0f:70:df:7d:9b:36:65:52:37:d4:2d:f5:79:23:2f:
         b4:00:20:34:53:70:ce:56:ea:7a:eb:65:0c:90:cd:7f:bd:43:
         c6:52:97:ca:c5:65:bb:93:2a:a0:79:25:89:84:02:d4:17:38:
         d4:58:cb:6a:c2:22:4c:1b:00:33:4c:36:b0:35:ab:6b:e4:a7:
         07:56:90:03:d3:3e:24:c3:d6:e8:c6:a2:bc:df:a8:ca:0b:af:
         18:75:f6:5c:81:d1:4f:e1:7f:80:10:f1:75:82:0d:db:bd:86:
         87:ba:7e:c8:a1:91:54:f3:21:fd:47:3a:5d:2a:32:35:12:6f:
         fa:41:b0:25:20:4d:a5:15:b8:f5:2a:54:71:eb:6c:d5:60:05:
         48:42:5d:fa:11:01:49:69:81:3b:1f:77:87:ec:32:23:f9:a9:
         09:c4:b6:92:26:9c:e2:cf:7f:9f:ac:26:c8:cc:0b:b8:7e:b8:
         7a:9c:67:dc:b4:70:54:44:87:f8:29:39:6c:ab:94:17:9f:80:
         7e:d9:5b:5c:22:e2:57:9f:b5:63:ca:0e:9f:11:60:50:99:fd:
         bb:44:a8:6e:d6:33:8c:d0:ee:7b:13:9d:40:ac:9b:12:ef:be:
         05:ab:2c:8c
-----BEGIN CERTIFICATE-----
MIIDXDCCAkSgAwIBAgIQF6yG2fdNv4ce1S47f6vERzANBgkqhkiG9w0BAQsFADAW
MRQwEgYDVQQDDAt0ZWFtNjIzLW5ldDAeFw0yMjA1MTgyMzA0MDFaFw0yNTA1MDIy
MzA0MDFaMBkxFzAVBgNVBAMMDnRlYW02MjMtY2xpZW50MIIBIjANBgkqhkiG9w0B
AQEFAAOCAQ8AMIIBCgKCAQEAwVN1XGrCLYZSboWECnyyifhqu1kGAfpEOiPHR2gI
G9CinQxIQZT9q4rv0+HJ3VAYwQh5yI+zfsHU0cb/sGql0tfaLSn2iuNY2pBcOeH7
mYvqP2vEyeOEmn4g6dF7vMWPbUDm99nystXZK/lJugguwdwKYva+7FoRHWvZhfGu
87ytrAtWOgAQyv+ihGCOcUTDgWmUStCwI1wEIpaN08PVIoYXVHAqHInmnrJHVbLa
x+dfrfNWmgvQAvYr7Gn7EfCDN+QRot45Wqcz/HwMYanzA0bansC5xVY50gjXD5dY
lZGzHEws+0vJxr+1MRBl2w5K17EL1Y5hagW3Pp8JpENkgwIDAQABo4GiMIGfMAkG
A1UdEwQCMAAwHQYDVR0OBBYEFMBxsirsnt2njug2S4jc6Jy4PMTiMFEGA1UdIwRK
MEiAFAtpb0Ycqw5UIhU24OoihhTMpcp3oRqkGDAWMRQwEgYDVQQDDAt0ZWFtNjIz
LW5ldIIUVcGopbv+gDt7svgq1xId1XLqIKowEwYDVR0lBAwwCgYIKwYBBQUHAwIw
CwYDVR0PBAQDAgeAMA0GCSqGSIb3DQEBCwUAA4IBAQAs48nsokmnLcyc0oR/EqVa
btM0F/oPcN99mzZlUjfULfV5Iy+0ACA0U3DOVup662UMkM1/vUPGUpfKxWW7kyqg
eSWJhALUFzjUWMtqwiJMGwAzTDawNatr5KcHVpAD0z4kw9boxqK836jKC68YdfZc
gdFP4X+AEPF1gg3bvYaHun7IoZFU8yH9RzpdKjI1Em/6QbAlIE2lFbj1KlRx62zV
YAVIQl36EQFJaYE7H3eH7DIj+akJxLaSJpziz3+frCbIzAu4frh6nGfctHBURIf4
KTlsq5QXn4B+2VtcIuJXn7Vjyg6fEWBQmf27RKhu1jOM0O57E51ArJsS774FqyyM
-----END CERTIFICATE-----
