Certificate:
    Data:
        Version: 3 (0x2)
        Serial Number:
            f8:7d:b3:82:15:58:b8:2e:59:66:eb:eb:63:eb:44:ca
        Signature Algorithm: sha256WithRSAEncryption
        Issuer: CN=team761-net
        Validity
            Not Before: May 19 00:12:14 2022 GMT
            Not After : May  3 00:12:14 2025 GMT
        Subject: CN=team761-server
        Subject Public Key Info:
            Public Key Algorithm: rsaEncryption
                RSA Public-Key: (2048 bit)
                Modulus:
                    00:cf:54:b6:fe:d9:a5:d8:17:30:7d:30:e0:bd:a8:
                    0b:35:f9:a7:0d:59:83:69:a0:09:6c:3f:d4:0f:33:
                    31:c7:cf:e8:0b:96:5d:8a:19:2a:b0:7e:2b:42:e2:
                    d9:62:37:0e:c2:44:6e:66:ff:16:94:2d:c1:d9:54:
                    2b:24:ce:b9:ba:ee:fc:a6:12:04:d9:79:02:2f:52:
                    32:81:3c:34:80:9a:54:e8:e6:c2:74:7d:43:5b:8e:
                    5d:fd:6a:b2:76:ed:eb:7d:ad:68:d5:eb:c9:ee:c8:
                    8d:2b:4e:db:2a:0c:95:45:f5:d0:44:95:4f:18:04:
                    ce:c6:dc:3f:95:50:64:ac:f7:96:34:74:c8:3b:8a:
                    71:ea:e3:a1:41:b6:d7:52:d4:d2:5a:ea:14:1b:34:
                    42:0b:61:61:e1:c6:a2:4f:a2:d6:63:84:b3:04:d0:
                    b1:38:af:e5:ed:6a:58:6d:d4:63:23:28:8d:35:c9:
                    56:81:5d:bb:e4:6b:eb:17:12:56:9b:53:e2:7e:8b:
                    4e:86:de:2a:8c:71:c2:e1:f7:f5:56:4f:72:c9:42:
                    33:7e:33:fe:23:19:24:41:fd:93:6a:66:a2:44:7d:
                    71:b7:b4:49:ff:1f:09:4d:41:65:e8:2c:4e:1f:dc:
                    4f:8a:a4:b6:f1:3c:b2:9d:2f:e1:90:3a:a7:27:6c:
                    25:e9
                Exponent: 65537 (0x10001)
        X509v3 extensions:
            X509v3 Basic Constraints: 
                CA:FALSE
            X509v3 Subject Key Identifier: 
                63:27:25:01:EE:44:4B:CA:A1:FC:A6:79:C7:E7:90:46:CD:77:D6:26
            X509v3 Authority Key Identifier: 
                keyid:A7:09:CF:8D:E7:53:B0:B4:8B:12:CF:FE:B2:02:D5:71:22:CB:3F:63
                DirName:/CN=team761-net
                serial:57:88:6E:76:FE:00:14:58:DE:20:A7:99:0F:E4:3E:7B:F6:25:48:8E

            X509v3 Extended Key Usage: 
                TLS Web Server Authentication
            X509v3 Key Usage: 
                Digital Signature, Key Encipherment
            X509v3 Subject Alternative Name: 
                DNS:team761-server
    Signature Algorithm: sha256WithRSAEncryption
         1f:fa:64:8c:e0:b8:a4:44:f3:48:51:a0:19:a2:8a:9c:13:e7:
         76:95:c3:50:bc:f0:29:5a:d2:16:45:7e:d2:b5:18:12:22:65:
         c0:a1:dc:9d:aa:b0:0c:96:1e:d5:b0:51:09:04:87:7e:8c:90:
         e9:68:10:7e:bf:f6:57:a1:96:e6:2d:e5:43:6a:4f:b4:21:94:
         63:c2:f0:de:17:97:6a:b6:51:20:ea:e2:59:05:7d:35:03:a8:
         12:15:17:eb:a0:62:22:d7:41:37:d8:7f:c1:e1:74:b9:47:ca:
         5f:4d:6c:f2:9b:a9:22:5b:14:8b:e1:9a:90:51:1a:85:11:9a:
         56:57:67:ea:09:d0:4f:e7:c7:15:7e:b7:4f:e9:7e:51:1f:d8:
         3d:4a:59:e7:e7:6f:f2:e1:c2:62:68:2f:91:db:57:e3:33:1d:
         a3:3a:35:fc:af:1b:c3:64:d7:94:6a:e1:e3:90:fa:41:44:41:
         13:2b:f1:04:58:e6:4e:5b:09:73:c0:2c:37:11:d1:35:84:64:
         a6:7c:88:df:09:62:3b:dc:b6:71:1e:33:23:2d:22:3c:dd:04:
         8f:40:14:36:85:67:78:df:17:ab:cb:76:1b:6e:4a:7d:c7:c9:
         e6:b1:87:a3:bb:ac:ad:a2:b1:b6:53:69:00:11:83:ea:41:23:
         e0:a0:3e:18
-----BEGIN CERTIFICATE-----
MIIDeDCCAmCgAwIBAgIRAPh9s4IVWLguWWbr62PrRMowDQYJKoZIhvcNAQELBQAw
FjEUMBIGA1UEAwwLdGVhbTc2MS1uZXQwHhcNMjIwNTE5MDAxMjE0WhcNMjUwNTAz
MDAxMjE0WjAZMRcwFQYDVQQDDA50ZWFtNzYxLXNlcnZlcjCCASIwDQYJKoZIhvcN
AQEBBQADggEPADCCAQoCggEBAM9Utv7ZpdgXMH0w4L2oCzX5pw1Zg2mgCWw/1A8z
McfP6AuWXYoZKrB+K0Li2WI3DsJEbmb/FpQtwdlUKyTOubru/KYSBNl5Ai9SMoE8
NICaVOjmwnR9Q1uOXf1qsnbt632taNXrye7IjStO2yoMlUX10ESVTxgEzsbcP5VQ
ZKz3ljR0yDuKcerjoUG211LU0lrqFBs0QgthYeHGok+i1mOEswTQsTiv5e1qWG3U
YyMojTXJVoFdu+Rr6xcSVptT4n6LTobeKoxxwuH39VZPcslCM34z/iMZJEH9k2pm
okR9cbe0Sf8fCU1BZegsTh/cT4qktvE8sp0v4ZA6pydsJekCAwEAAaOBvTCBujAJ
BgNVHRMEAjAAMB0GA1UdDgQWBBRjJyUB7kRLyqH8pnnH55BGzXfWJjBRBgNVHSME
SjBIgBSnCc+N51OwtIsSz/6yAtVxIss/Y6EapBgwFjEUMBIGA1UEAwwLdGVhbTc2
MS1uZXSCFFeIbnb+ABRY3iCnmQ/kPnv2JUiOMBMGA1UdJQQMMAoGCCsGAQUFBwMB
MAsGA1UdDwQEAwIFoDAZBgNVHREEEjAQgg50ZWFtNzYxLXNlcnZlcjANBgkqhkiG
9w0BAQsFAAOCAQEAH/pkjOC4pETzSFGgGaKKnBPndpXDULzwKVrSFkV+0rUYEiJl
wKHcnaqwDJYe1bBRCQSHfoyQ6WgQfr/2V6GW5i3lQ2pPtCGUY8Lw3heXarZRIOri
WQV9NQOoEhUX66BiItdBN9h/weF0uUfKX01s8pupIlsUi+GakFEahRGaVldn6gnQ
T+fHFX63T+l+UR/YPUpZ5+dv8uHCYmgvkdtX4zMdozo1/K8bw2TXlGrh45D6QURB
EyvxBFjmTlsJc8AsNxHRNYRkpnyI3wliO9y2cR4zIy0iPN0Ej0AUNoVneN8Xq8t2
G25KfcfJ5rGHo7usraKxtlNpABGD6kEj4KA+GA==
-----END CERTIFICATE-----
