Certificate:
    Data:
        Version: 3 (0x2)
        Serial Number:
            48:89:b9:c4:bd:a5:0f:4a:8b:0d:ab:8d:e4:e3:c7:29
        Signature Algorithm: sha256WithRSAEncryption
        Issuer: CN=team110-net
        Validity
            Not Before: May 18 14:57:22 2022 GMT
            Not After : May  2 14:57:22 2025 GMT
        Subject: CN=team110-server
        Subject Public Key Info:
            Public Key Algorithm: rsaEncryption
                RSA Public-Key: (2048 bit)
                Modulus:
                    00:d6:df:8a:bd:d7:1f:24:69:10:f5:b2:44:86:5c:
                    60:5a:07:ae:12:d0:73:71:db:61:4c:ab:3d:04:56:
                    86:be:77:17:92:a2:54:76:1a:5d:1d:b2:1c:e7:b0:
                    30:ab:6c:2a:db:3e:52:e7:99:a9:b4:26:be:81:4b:
                    52:da:25:8e:f7:ea:59:bb:da:4d:56:14:dd:0a:29:
                    d1:b9:20:0c:24:dc:d1:89:18:56:76:4f:6c:aa:c7:
                    bb:a4:bc:fe:f7:eb:03:99:c5:57:29:3b:c2:46:7a:
                    b2:95:74:f7:b2:5e:1a:5c:72:a6:ef:5f:f0:ba:dc:
                    f2:e4:d6:07:db:20:46:00:84:a5:63:ab:0f:bb:d4:
                    31:50:01:c7:62:e5:ed:fd:de:26:e3:dd:93:6c:0c:
                    2b:71:36:f4:ef:93:74:4c:f6:9e:5d:92:98:90:53:
                    a9:2c:3c:52:95:d2:5c:1b:41:4b:7c:bc:29:33:ac:
                    75:d3:ba:56:d8:03:d3:48:1a:b8:30:6c:1f:85:eb:
                    03:ac:aa:55:0d:f6:42:39:52:f8:a4:19:d0:25:b2:
                    90:b1:e9:cd:f4:5a:f4:6c:cb:2d:a5:d0:0c:c3:a3:
                    55:0d:05:bb:50:ff:06:9f:7d:04:2e:29:1e:1d:d7:
                    f1:c5:9a:d1:7e:7a:4f:d5:85:4a:fa:83:54:7b:ae:
                    6f:e3
                Exponent: 65537 (0x10001)
        X509v3 extensions:
            X509v3 Basic Constraints: 
                CA:FALSE
            X509v3 Subject Key Identifier: 
                3A:37:39:DD:46:4E:62:C5:4E:61:D2:57:EE:35:DE:24:78:6F:2D:E7
            X509v3 Authority Key Identifier: 
                keyid:D7:CF:FC:A7:0B:4C:6F:B9:5F:D2:74:ED:BD:E7:03:FC:CE:05:77:57
                DirName:/CN=team110-net
                serial:54:85:42:5D:17:B0:30:CF:A5:7B:70:FA:BF:F6:44:03:69:ED:11:FD

            X509v3 Extended Key Usage: 
                TLS Web Server Authentication
            X509v3 Key Usage: 
                Digital Signature, Key Encipherment
            X509v3 Subject Alternative Name: 
                DNS:team110-server
    Signature Algorithm: sha256WithRSAEncryption
         66:17:ab:54:d1:a2:90:48:e9:3e:3e:41:33:f3:6a:5a:29:7c:
         55:03:12:01:8c:3f:83:81:c9:35:59:46:58:f9:a2:b6:b7:61:
         f0:6f:58:de:32:78:df:21:1d:06:6d:1d:08:43:39:12:a0:4d:
         13:b5:1f:3d:48:1f:9c:47:13:a3:dc:c9:69:e3:2f:ca:e4:b9:
         fd:41:5f:bc:39:ea:8c:76:f3:c2:83:41:f0:44:75:a7:34:c8:
         ef:0e:11:97:37:df:39:0c:f2:11:f5:41:dc:79:5a:d8:60:bc:
         89:d9:a7:ff:f0:4e:2e:a5:80:ff:e2:84:3e:97:42:c9:ac:83:
         ba:ba:57:6a:ec:93:13:4b:a9:1e:8f:e0:71:c1:a5:6e:80:45:
         28:59:7b:a6:7e:42:4b:bd:5b:bc:47:68:7b:84:a6:ff:ab:60:
         f1:11:81:d9:4c:00:b9:ec:53:07:fd:ed:b9:73:cf:c9:c8:61:
         5d:2b:c6:1d:f1:69:de:dd:b8:8c:98:f4:c6:fe:ff:38:9e:2a:
         8d:74:ee:dd:15:cb:80:80:7e:74:71:d2:04:2d:7d:ef:79:72:
         02:4f:31:00:f2:04:f2:00:4f:a4:ab:1c:f4:b2:c6:b3:8d:6a:
         6b:3b:44:5e:35:40:ea:91:06:07:69:6f:03:78:6f:51:82:cc:
         24:27:f7:f3
-----BEGIN CERTIFICATE-----
MIIDdzCCAl+gAwIBAgIQSIm5xL2lD0qLDauN5OPHKTANBgkqhkiG9w0BAQsFADAW
MRQwEgYDVQQDDAt0ZWFtMTEwLW5ldDAeFw0yMjA1MTgxNDU3MjJaFw0yNTA1MDIx
NDU3MjJaMBkxFzAVBgNVBAMMDnRlYW0xMTAtc2VydmVyMIIBIjANBgkqhkiG9w0B
AQEFAAOCAQ8AMIIBCgKCAQEA1t+KvdcfJGkQ9bJEhlxgWgeuEtBzcdthTKs9BFaG
vncXkqJUdhpdHbIc57Awq2wq2z5S55mptCa+gUtS2iWO9+pZu9pNVhTdCinRuSAM
JNzRiRhWdk9sqse7pLz+9+sDmcVXKTvCRnqylXT3sl4aXHKm71/wutzy5NYH2yBG
AISlY6sPu9QxUAHHYuXt/d4m492TbAwrcTb075N0TPaeXZKYkFOpLDxSldJcG0FL
fLwpM6x107pW2APTSBq4MGwfhesDrKpVDfZCOVL4pBnQJbKQsenN9Fr0bMstpdAM
w6NVDQW7UP8Gn30ELikeHdfxxZrRfnpP1YVK+oNUe65v4wIDAQABo4G9MIG6MAkG
A1UdEwQCMAAwHQYDVR0OBBYEFDo3Od1GTmLFTmHSV+413iR4by3nMFEGA1UdIwRK
MEiAFNfP/KcLTG+5X9J07b3nA/zOBXdXoRqkGDAWMRQwEgYDVQQDDAt0ZWFtMTEw
LW5ldIIUVIVCXRewMM+le3D6v/ZEA2ntEf0wEwYDVR0lBAwwCgYIKwYBBQUHAwEw
CwYDVR0PBAQDAgWgMBkGA1UdEQQSMBCCDnRlYW0xMTAtc2VydmVyMA0GCSqGSIb3
DQEBCwUAA4IBAQBmF6tU0aKQSOk+PkEz82paKXxVAxIBjD+Dgck1WUZY+aK2t2Hw
b1jeMnjfIR0GbR0IQzkSoE0TtR89SB+cRxOj3Mlp4y/K5Ln9QV+8OeqMdvPCg0Hw
RHWnNMjvDhGXN985DPIR9UHceVrYYLyJ2af/8E4upYD/4oQ+l0LJrIO6uldq7JMT
S6kej+BxwaVugEUoWXumfkJLvVu8R2h7hKb/q2DxEYHZTAC57FMH/e25c8/JyGFd
K8Yd8Wne3biMmPTG/v84niqNdO7dFcuAgH50cdIELX3veXICTzEA8gTyAE+kqxz0
ssazjWprO0ReNUDqkQYHaW8DeG9RgswkJ/fz
-----END CERTIFICATE-----
