Certificate:
    Data:
        Version: 3 (0x2)
        Serial Number:
            d1:bf:d0:ac:d6:10:f8:ca:6a:dd:94:0e:14:92:2b:07
        Signature Algorithm: sha256WithRSAEncryption
        Issuer: CN=team315-net
        Validity
            Not Before: May 18 20:15:24 2022 GMT
            Not After : May  2 20:15:24 2025 GMT
        Subject: CN=team315-server
        Subject Public Key Info:
            Public Key Algorithm: rsaEncryption
                RSA Public-Key: (2048 bit)
                Modulus:
                    00:f9:94:e7:a5:4e:aa:70:89:f9:db:7e:4e:d9:6a:
                    17:ce:d8:0c:24:75:32:e4:c9:c2:21:d9:ba:40:bc:
                    27:5a:d1:c9:66:48:8e:87:a9:7a:3d:05:cf:a2:38:
                    e5:f6:9e:c1:dd:ce:bb:47:87:2e:75:5a:3c:f0:f2:
                    85:67:38:1e:1e:d6:ae:50:29:f3:b7:d6:38:e4:c7:
                    44:8a:51:1f:37:6d:ae:cb:4a:71:3d:93:64:aa:4a:
                    a5:b8:b8:c4:57:55:b0:a8:1f:9c:c1:da:14:0b:ce:
                    11:dc:96:b7:07:e7:a7:af:05:e7:5f:a7:8d:e1:84:
                    d2:da:b6:a0:0a:5d:46:de:ba:73:94:64:a0:52:a5:
                    6b:75:ac:16:e7:42:f6:25:88:4b:42:0d:c1:24:2a:
                    57:bc:ee:b3:da:ff:e4:1f:a3:cf:6f:ee:2c:15:76:
                    49:f8:83:71:de:59:38:69:dd:45:f2:c5:c2:89:42:
                    1b:10:bd:90:89:f8:2c:4b:97:fa:05:26:d9:9a:26:
                    f0:dc:a4:ab:14:c5:3c:14:06:97:78:87:bd:7d:c5:
                    fb:29:c5:e7:65:82:c5:9c:d8:43:8c:2a:87:0a:fb:
                    ee:79:1c:a6:23:8f:22:3e:a6:b1:df:9e:c1:a2:df:
                    6c:5a:c7:93:95:eb:dd:b3:c1:11:0c:e5:fb:a3:05:
                    f8:f5
                Exponent: 65537 (0x10001)
        X509v3 extensions:
            X509v3 Basic Constraints: 
                CA:FALSE
            X509v3 Subject Key Identifier: 
                49:10:4A:4B:C4:DC:83:A8:F8:2E:B0:5B:4B:23:5A:22:1D:D7:7F:8B
            X509v3 Authority Key Identifier: 
                keyid:01:12:7A:45:B8:AC:6D:DF:F3:43:D4:BA:86:76:8F:7D:06:53:04:D8
                DirName:/CN=team315-net
                serial:68:C9:29:CD:C4:6B:C7:50:07:C3:D6:3D:C7:15:53:61:43:D4:EE:14

            X509v3 Extended Key Usage: 
                TLS Web Server Authentication
            X509v3 Key Usage: 
                Digital Signature, Key Encipherment
            X509v3 Subject Alternative Name: 
                DNS:team315-server
    Signature Algorithm: sha256WithRSAEncryption
         90:0d:62:e3:83:33:eb:5e:5b:7c:13:2f:5c:f5:38:f0:30:4d:
         87:70:2b:c3:c2:b6:7a:e2:a3:a3:e7:6f:0b:97:0d:5c:d4:dd:
         15:e2:97:32:c3:45:11:6d:95:c7:90:89:78:d7:c3:31:47:a1:
         62:03:04:7d:e6:e2:f5:76:9a:15:a2:67:ea:e8:0c:bd:12:7b:
         ac:da:bd:7f:ac:8a:08:bd:93:45:4c:9f:f7:f0:62:dc:22:ff:
         65:63:4a:85:bd:8b:cf:f3:5a:7f:22:a9:c8:eb:9d:6c:48:7e:
         27:bb:1c:c9:8d:d3:3b:4b:b2:25:8a:7e:b3:6e:03:1f:35:f8:
         54:d4:ce:a7:60:bf:a1:31:46:c2:1d:88:e8:02:07:e0:45:23:
         d9:3d:28:b1:b1:f6:9d:73:d2:1a:b7:27:ef:45:67:7c:01:45:
         24:8c:7d:46:03:7b:3b:a1:6a:b0:39:70:97:4f:bb:08:9e:e6:
         70:33:c4:0f:2e:d9:7e:56:d5:0b:b2:c9:37:bf:ed:36:8f:89:
         85:85:46:0a:32:07:de:a8:7f:1d:86:b9:e9:48:2f:56:90:95:
         33:d1:1d:06:5a:21:f8:a5:ed:3c:54:c1:22:00:30:60:4c:93:
         1c:5e:b2:e0:0d:dd:49:0e:67:35:d1:b3:2f:f1:9d:8b:b9:82:
         06:16:d1:86
-----BEGIN CERTIFICATE-----
MIIDeDCCAmCgAwIBAgIRANG/0KzWEPjKat2UDhSSKwcwDQYJKoZIhvcNAQELBQAw
FjEUMBIGA1UEAwwLdGVhbTMxNS1uZXQwHhcNMjIwNTE4MjAxNTI0WhcNMjUwNTAy
MjAxNTI0WjAZMRcwFQYDVQQDDA50ZWFtMzE1LXNlcnZlcjCCASIwDQYJKoZIhvcN
AQEBBQADggEPADCCAQoCggEBAPmU56VOqnCJ+dt+TtlqF87YDCR1MuTJwiHZukC8
J1rRyWZIjoepej0Fz6I45faewd3Ou0eHLnVaPPDyhWc4Hh7WrlAp87fWOOTHRIpR
HzdtrstKcT2TZKpKpbi4xFdVsKgfnMHaFAvOEdyWtwfnp68F51+njeGE0tq2oApd
Rt66c5RkoFKla3WsFudC9iWIS0INwSQqV7zus9r/5B+jz2/uLBV2SfiDcd5ZOGnd
RfLFwolCGxC9kIn4LEuX+gUm2Zom8NykqxTFPBQGl3iHvX3F+ynF52WCxZzYQ4wq
hwr77nkcpiOPIj6msd+ewaLfbFrHk5Xr3bPBEQzl+6MF+PUCAwEAAaOBvTCBujAJ
BgNVHRMEAjAAMB0GA1UdDgQWBBRJEEpLxNyDqPgusFtLI1oiHdd/izBRBgNVHSME
SjBIgBQBEnpFuKxt3/ND1LqGdo99BlME2KEapBgwFjEUMBIGA1UEAwwLdGVhbTMx
NS1uZXSCFGjJKc3Ea8dQB8PWPccVU2FD1O4UMBMGA1UdJQQMMAoGCCsGAQUFBwMB
MAsGA1UdDwQEAwIFoDAZBgNVHREEEjAQgg50ZWFtMzE1LXNlcnZlcjANBgkqhkiG
9w0BAQsFAAOCAQEAkA1i44Mz615bfBMvXPU48DBNh3Arw8K2euKjo+dvC5cNXNTd
FeKXMsNFEW2Vx5CJeNfDMUehYgMEfebi9XaaFaJn6ugMvRJ7rNq9f6yKCL2TRUyf
9/Bi3CL/ZWNKhb2Lz/NafyKpyOudbEh+J7scyY3TO0uyJYp+s24DHzX4VNTOp2C/
oTFGwh2I6AIH4EUj2T0osbH2nXPSGrcn70VnfAFFJIx9RgN7O6FqsDlwl0+7CJ7m
cDPEDy7ZflbVC7LJN7/tNo+JhYVGCjIH3qh/HYa56UgvVpCVM9EdBloh+KXtPFTB
IgAwYEyTHF6y4A3dSQ5nNdGzL/Gdi7mCBhbRhg==
-----END CERTIFICATE-----
