Certificate:
    Data:
        Version: 3 (0x2)
        Serial Number:
            09:b1:44:39:4e:8d:8e:69:b1:23:39:39:c5:e1:ff:6f
        Signature Algorithm: sha256WithRSAEncryption
        Issuer: CN=team557-net
        Validity
            Not Before: May 18 22:23:30 2022 GMT
            Not After : May  2 22:23:30 2025 GMT
        Subject: CN=team557-client
        Subject Public Key Info:
            Public Key Algorithm: rsaEncryption
                RSA Public-Key: (2048 bit)
                Modulus:
                    00:da:64:97:4b:66:cb:9b:d4:9c:5e:90:d8:c1:35:
                    4f:0d:c2:b2:a8:c3:c9:d1:a0:22:c1:26:29:2b:f4:
                    44:cb:0c:53:ab:84:ce:91:0f:80:85:95:e9:86:29:
                    18:79:85:db:0c:21:0a:d8:b2:d8:66:2f:a9:73:73:
                    f3:7c:6b:65:00:e3:28:75:70:a8:a2:72:e7:f5:b3:
                    66:2a:a5:d3:61:ea:ab:f7:ae:7e:9b:6c:e7:b2:76:
                    dc:65:1d:5d:29:62:d8:f4:81:d7:5e:18:a1:06:99:
                    31:d2:a5:96:53:7f:12:c8:82:d0:ab:ea:de:e8:6b:
                    be:80:3a:99:94:33:40:d4:db:fa:2e:5a:68:51:9a:
                    48:55:08:cd:fb:eb:a7:1b:73:7b:04:13:59:8c:6a:
                    6a:f5:c6:8b:22:fa:cc:8c:a3:f7:03:b6:19:5a:99:
                    c9:42:a5:01:7e:dd:9e:c6:0e:bb:45:ba:d4:7c:c8:
                    a3:f7:6b:36:45:6a:d5:19:4a:b4:0c:2d:c3:bf:8d:
                    02:df:c6:2c:58:ef:51:9c:b0:8a:cc:0a:e8:c2:99:
                    1f:a2:78:f3:40:d1:4a:f7:f9:91:ab:41:e3:44:29:
                    3f:f2:18:e9:d1:47:b6:a9:f6:a6:5e:e9:fc:c0:55:
                    b5:19:2d:65:a5:5c:0e:6b:50:8a:dd:43:3d:d7:a2:
                    3b:2f
                Exponent: 65537 (0x10001)
        X509v3 extensions:
            X509v3 Basic Constraints: 
                CA:FALSE
            X509v3 Subject Key Identifier: 
                8F:88:45:42:C6:82:49:71:64:6E:07:3B:4D:90:12:33:3A:29:82:C5
            X509v3 Authority Key Identifier: 
                keyid:C7:F2:0D:51:D8:E1:C5:6C:71:36:0F:18:28:DA:B1:2C:2E:61:86:9A
                DirName:/CN=team557-net
                serial:6E:59:71:5A:E5:B2:73:69:0E:B6:F4:34:B7:5B:1F:4A:79:F0:22:6D

            X509v3 Extended Key Usage: 
                TLS Web Client Authentication
            X509v3 Key Usage: 
                Digital Signature
    Signature Algorithm: sha256WithRSAEncryption
         93:08:9b:d9:16:1e:0a:c9:d2:b3:08:c6:ba:31:63:56:43:6b:
         dd:5f:2d:d6:89:a8:b8:8f:11:8e:f4:69:d6:88:9b:22:1d:b1:
         fc:1b:4c:aa:0c:f7:0a:fa:1d:14:dc:43:1c:3e:5a:d3:20:88:
         6b:37:8f:0f:90:ca:9f:c4:31:d7:44:56:f0:f4:a0:2b:95:06:
         36:4e:b4:50:2e:2a:84:95:f0:b5:73:4e:b0:52:72:1c:20:0e:
         51:2f:38:56:75:9a:b5:03:5f:ab:95:86:ec:cc:e1:ed:4d:5e:
         e2:29:e6:9c:4c:f7:d8:b5:14:f7:38:7e:ae:1b:7a:0f:e4:5a:
         50:60:88:43:a1:1e:7d:40:e1:43:1d:03:2f:d1:a0:62:80:8b:
         25:eb:7a:91:57:05:ad:e0:61:b2:f7:b7:cc:b8:36:40:35:39:
         0f:30:68:c8:42:cd:34:97:43:36:30:99:7e:1f:46:23:37:83:
         a0:0c:0b:78:30:e6:1b:82:d7:91:bd:0d:25:78:b1:b7:8c:2f:
         df:5e:c4:9f:e6:4e:95:90:69:ad:76:03:3c:35:df:3e:62:c3:
         58:23:0d:d7:96:e9:c3:2b:41:4d:54:38:3a:b8:62:e9:5e:44:
         9b:15:c4:bf:de:c8:94:99:e3:1a:3b:17:7b:52:73:5b:e6:2e:
         4c:d2:07:27
-----BEGIN CERTIFICATE-----
MIIDXDCCAkSgAwIBAgIQCbFEOU6NjmmxIzk5xeH/bzANBgkqhkiG9w0BAQsFADAW
MRQwEgYDVQQDDAt0ZWFtNTU3LW5ldDAeFw0yMjA1MTgyMjIzMzBaFw0yNTA1MDIy
MjIzMzBaMBkxFzAVBgNVBAMMDnRlYW01NTctY2xpZW50MIIBIjANBgkqhkiG9w0B
AQEFAAOCAQ8AMIIBCgKCAQEA2mSXS2bLm9ScXpDYwTVPDcKyqMPJ0aAiwSYpK/RE
ywxTq4TOkQ+AhZXphikYeYXbDCEK2LLYZi+pc3PzfGtlAOModXCoonLn9bNmKqXT
Yeqr965+m2znsnbcZR1dKWLY9IHXXhihBpkx0qWWU38SyILQq+re6Gu+gDqZlDNA
1Nv6LlpoUZpIVQjN++unG3N7BBNZjGpq9caLIvrMjKP3A7YZWpnJQqUBft2exg67
RbrUfMij92s2RWrVGUq0DC3Dv40C38YsWO9RnLCKzArowpkfonjzQNFK9/mRq0Hj
RCk/8hjp0Ue2qfamXun8wFW1GS1lpVwOa1CK3UM916I7LwIDAQABo4GiMIGfMAkG
A1UdEwQCMAAwHQYDVR0OBBYEFI+IRULGgklxZG4HO02QEjM6KYLFMFEGA1UdIwRK
MEiAFMfyDVHY4cVscTYPGCjasSwuYYaaoRqkGDAWMRQwEgYDVQQDDAt0ZWFtNTU3
LW5ldIIUbllxWuWyc2kOtvQ0t1sfSnnwIm0wEwYDVR0lBAwwCgYIKwYBBQUHAwIw
CwYDVR0PBAQDAgeAMA0GCSqGSIb3DQEBCwUAA4IBAQCTCJvZFh4KydKzCMa6MWNW
Q2vdXy3Wiai4jxGO9GnWiJsiHbH8G0yqDPcK+h0U3EMcPlrTIIhrN48PkMqfxDHX
RFbw9KArlQY2TrRQLiqElfC1c06wUnIcIA5RLzhWdZq1A1+rlYbszOHtTV7iKeac
TPfYtRT3OH6uG3oP5FpQYIhDoR59QOFDHQMv0aBigIsl63qRVwWt4GGy97fMuDZA
NTkPMGjIQs00l0M2MJl+H0YjN4OgDAt4MOYbgteRvQ0leLG3jC/fXsSf5k6VkGmt
dgM8Nd8+YsNYIw3XlunDK0FNVDg6uGLpXkSbFcS/3siUmeMaOxd7UnNb5i5M0gcn
-----END CERTIFICATE-----
