Certificate:
    Data:
        Version: 3 (0x2)
        Serial Number:
            4b:f3:c6:58:32:8f:07:a6:b0:2b:6e:e4:e3:c6:95:0b
        Signature Algorithm: sha256WithRSAEncryption
        Issuer: CN=team284-net
        Validity
            Not Before: May 18 19:51:36 2022 GMT
            Not After : May  2 19:51:36 2025 GMT
        Subject: CN=team284-client
        Subject Public Key Info:
            Public Key Algorithm: rsaEncryption
                RSA Public-Key: (2048 bit)
                Modulus:
                    00:d6:59:50:3a:9e:04:33:35:d0:0c:7b:b3:c0:1a:
                    78:9d:b3:0e:aa:46:a1:73:88:1e:cc:3b:f0:49:a7:
                    1e:5f:a6:75:9d:e2:39:30:08:c4:07:b9:f8:73:4d:
                    54:9b:cc:b2:fd:a6:2d:c0:67:c3:0d:c4:37:59:5b:
                    72:a3:7b:fe:84:7c:69:f1:05:15:84:97:8d:b6:50:
                    39:fd:9c:8c:1a:0e:4c:19:7d:74:07:5a:39:c3:f0:
                    65:ef:d8:14:98:48:e8:30:53:b6:67:99:db:da:2d:
                    47:56:96:be:00:0c:ce:c3:b0:48:f8:0d:2e:c7:a8:
                    cc:ce:ba:30:d2:47:bf:f2:12:5f:68:60:85:44:14:
                    e6:b6:bb:f3:30:38:9d:c5:c4:db:d9:a1:d5:04:b9:
                    49:03:bc:fe:c8:61:60:94:e6:05:fe:c8:73:33:eb:
                    47:30:35:ae:55:19:a4:61:8a:da:50:a1:33:78:98:
                    e4:2f:e4:59:1b:b2:16:78:a9:fc:42:9d:a5:cd:70:
                    8f:2a:87:82:5c:73:e3:98:41:03:dc:79:8c:39:20:
                    45:2a:38:ab:39:28:26:cc:6f:dc:93:0a:ad:03:f1:
                    ca:90:1b:ae:71:05:8e:fd:6f:5e:73:47:d7:72:ec:
                    f7:5c:99:4d:1e:46:ea:f6:c6:ec:16:d6:9b:f4:80:
                    fa:a3
                Exponent: 65537 (0x10001)
        X509v3 extensions:
            X509v3 Basic Constraints: 
                CA:FALSE
            X509v3 Subject Key Identifier: 
                88:64:42:97:6F:16:C5:3F:21:17:D4:F3:71:78:BC:C6:C3:A3:BC:72
            X509v3 Authority Key Identifier: 
                keyid:98:79:3C:78:EC:B6:88:18:B7:BE:25:86:A6:B4:71:D6:98:79:F3:90
                DirName:/CN=team284-net
                serial:46:FF:C4:4B:15:D1:BB:DB:22:19:1E:0E:50:A1:C8:B1:52:F3:6B:3D

            X509v3 Extended Key Usage: 
                TLS Web Client Authentication
            X509v3 Key Usage: 
                Digital Signature
    Signature Algorithm: sha256WithRSAEncryption
         89:26:d3:b8:fe:99:41:5c:fe:42:0f:77:ad:1c:0c:c5:39:f8:
         d4:0f:64:e6:50:0a:75:df:33:a2:3c:44:f7:31:9e:98:4f:00:
         97:d6:47:cc:dd:8c:78:8a:e0:1d:88:c0:80:9a:a7:72:11:ae:
         a3:02:75:e0:fd:2a:f9:39:a3:4a:81:23:b3:f0:bf:d3:1a:ea:
         03:1c:e8:c9:5e:5a:54:5c:93:2f:21:d7:67:22:56:a1:1d:51:
         a7:7c:e1:62:f3:95:3e:1a:4a:25:f7:43:a4:8c:6d:1c:6e:5d:
         e6:55:ab:bc:51:cc:0c:ca:55:c6:fe:d8:db:fa:e9:1b:de:26:
         b5:ba:72:ac:c1:69:0e:a3:3c:81:5f:55:0d:2e:e0:3a:e5:e3:
         76:86:d1:3c:59:85:c0:f2:f5:dd:fb:a0:17:5e:ca:f4:6c:ce:
         56:12:c9:3f:17:a8:46:e1:a1:ae:fa:96:5d:53:a4:1c:d8:d3:
         55:e3:97:d3:fe:14:50:10:13:bd:3a:a5:83:fe:3c:ae:a9:0f:
         8d:1f:31:a7:d2:65:34:4f:fa:af:58:a7:60:2d:0c:1a:13:e3:
         31:c3:7f:20:0f:8d:a7:c6:0a:ac:a2:16:d1:4f:d7:fe:cf:2e:
         04:7c:04:77:ce:2d:3e:c4:f0:2a:02:12:79:b8:aa:1e:7f:06:
         e8:e2:ba:b5
-----BEGIN CERTIFICATE-----
MIIDXDCCAkSgAwIBAgIQS/PGWDKPB6awK27k48aVCzANBgkqhkiG9w0BAQsFADAW
MRQwEgYDVQQDDAt0ZWFtMjg0LW5ldDAeFw0yMjA1MTgxOTUxMzZaFw0yNTA1MDIx
OTUxMzZaMBkxFzAVBgNVBAMMDnRlYW0yODQtY2xpZW50MIIBIjANBgkqhkiG9w0B
AQEFAAOCAQ8AMIIBCgKCAQEA1llQOp4EMzXQDHuzwBp4nbMOqkahc4gezDvwSace
X6Z1neI5MAjEB7n4c01Um8yy/aYtwGfDDcQ3WVtyo3v+hHxp8QUVhJeNtlA5/ZyM
Gg5MGX10B1o5w/Bl79gUmEjoMFO2Z5nb2i1HVpa+AAzOw7BI+A0ux6jMzrow0ke/
8hJfaGCFRBTmtrvzMDidxcTb2aHVBLlJA7z+yGFglOYF/shzM+tHMDWuVRmkYYra
UKEzeJjkL+RZG7IWeKn8Qp2lzXCPKoeCXHPjmEED3HmMOSBFKjirOSgmzG/ckwqt
A/HKkBuucQWO/W9ec0fXcuz3XJlNHkbq9sbsFtab9ID6owIDAQABo4GiMIGfMAkG
A1UdEwQCMAAwHQYDVR0OBBYEFIhkQpdvFsU/IRfU83F4vMbDo7xyMFEGA1UdIwRK
MEiAFJh5PHjstogYt74lhqa0cdaYefOQoRqkGDAWMRQwEgYDVQQDDAt0ZWFtMjg0
LW5ldIIURv/ESxXRu9siGR4OUKHIsVLzaz0wEwYDVR0lBAwwCgYIKwYBBQUHAwIw
CwYDVR0PBAQDAgeAMA0GCSqGSIb3DQEBCwUAA4IBAQCJJtO4/plBXP5CD3etHAzF
OfjUD2TmUAp13zOiPET3MZ6YTwCX1kfM3Yx4iuAdiMCAmqdyEa6jAnXg/Sr5OaNK
gSOz8L/TGuoDHOjJXlpUXJMvIddnIlahHVGnfOFi85U+Gkol90OkjG0cbl3mVau8
UcwMylXG/tjb+ukb3ia1unKswWkOozyBX1UNLuA65eN2htE8WYXA8vXd+6AXXsr0
bM5WEsk/F6hG4aGu+pZdU6Qc2NNV45fT/hRQEBO9OqWD/jyuqQ+NHzGn0mU0T/qv
WKdgLQwaE+Mxw38gD42nxgqsohbRT9f+zy4EfAR3zi0+xPAqAhJ5uKoefwbo4rq1
-----END CERTIFICATE-----
