Certificate:
    Data:
        Version: 3 (0x2)
        Serial Number:
            19:2a:bb:04:48:96:a3:9a:7b:67:79:d5:ff:51:3c:48
        Signature Algorithm: sha256WithRSAEncryption
        Issuer: CN=team498-net
        Validity
            Not Before: May 18 21:51:26 2022 GMT
            Not After : May  2 21:51:26 2025 GMT
        Subject: CN=team498-client
        Subject Public Key Info:
            Public Key Algorithm: rsaEncryption
                RSA Public-Key: (2048 bit)
                Modulus:
                    00:d8:a5:99:8d:14:99:e3:7b:05:4f:40:68:9e:a2:
                    76:f6:7c:de:b3:c6:23:aa:e4:76:51:39:e4:64:0b:
                    2e:66:d7:29:cb:fc:28:aa:de:51:a9:1e:e5:2c:c1:
                    27:57:5f:77:41:fb:37:d5:bd:38:17:cc:4e:41:3d:
                    cd:c4:f7:50:07:0a:b7:b4:16:7a:ce:8c:44:a1:e1:
                    c4:b2:b2:b8:38:88:68:52:31:7b:2c:03:1d:0d:f0:
                    be:a1:63:ca:ab:68:2b:b4:3a:4d:ff:87:a9:47:58:
                    6e:b8:61:8a:21:02:df:22:7c:60:2d:60:1f:fd:73:
                    8e:29:fc:5a:74:8e:b5:f3:0c:a4:4f:fb:e4:07:a6:
                    e5:e9:75:d4:e2:17:c0:fd:7a:40:27:06:17:29:ad:
                    53:9f:4b:11:a2:06:20:d6:43:11:57:b1:a9:87:e7:
                    6d:1e:63:1a:e7:8e:08:17:20:30:c1:84:cd:f7:73:
                    ce:cb:29:58:8b:43:20:05:7b:1a:e4:c6:65:b0:7f:
                    e1:93:5b:a7:d6:53:36:a8:3f:5c:75:14:58:27:3d:
                    ae:ca:7c:6d:d9:42:fe:fa:ff:4d:97:f9:31:92:58:
                    c3:85:f0:84:44:21:ae:76:e1:8c:4a:35:f0:5a:3b:
                    8e:b8:52:0d:d2:2d:77:6e:8c:fe:10:b0:51:e7:c1:
                    86:ef
                Exponent: 65537 (0x10001)
        X509v3 extensions:
            X509v3 Basic Constraints: 
                CA:FALSE
            X509v3 Subject Key Identifier: 
                B8:F5:50:4B:3F:4E:83:17:64:1D:95:02:7D:35:BE:8D:61:3A:D3:6E
            X509v3 Authority Key Identifier: 
                keyid:A0:92:92:E6:B5:BA:26:30:A9:91:BD:85:97:79:86:A6:7B:9E:15:7E
                DirName:/CN=team498-net
                serial:5D:5A:49:40:7B:02:BF:E1:1C:AF:F3:81:D7:B5:75:69:F0:56:17:EB

            X509v3 Extended Key Usage: 
                TLS Web Client Authentication
            X509v3 Key Usage: 
                Digital Signature
    Signature Algorithm: sha256WithRSAEncryption
         80:8a:0a:62:6c:1b:4a:55:4b:81:23:17:f5:c4:d9:7c:79:36:
         b4:1d:c9:f5:ca:9f:8d:69:2b:e7:88:9c:92:4b:9d:51:91:3e:
         ec:ef:a7:93:b7:8d:4f:bf:cd:54:2f:55:86:c3:fd:81:50:2b:
         62:5b:15:5c:3b:28:b2:96:c5:47:f9:b2:2f:b4:02:c3:dd:e8:
         a3:c2:f9:6c:fb:8a:a0:ce:d9:0a:ce:4e:f0:cb:cc:6d:57:84:
         02:9f:58:c0:d6:70:b3:db:6f:94:51:72:f7:3b:ed:ce:75:cc:
         4b:57:30:f7:14:ca:e0:b3:7e:17:1f:7b:33:50:a2:d3:8f:00:
         c2:e3:f8:ca:81:c4:4e:7e:6c:e2:31:40:af:9b:7e:cc:f4:02:
         dc:36:79:2a:c0:c3:c4:49:10:43:80:da:85:e3:55:81:73:69:
         0f:46:92:10:b8:f8:94:97:eb:c9:f5:af:8f:d6:cd:df:28:0a:
         27:a1:3f:af:fa:e2:ca:11:b7:0c:c8:94:81:00:d6:2e:be:7b:
         da:2c:88:f2:64:09:ff:fb:e4:1e:f0:15:23:0f:7a:69:27:d4:
         a2:fe:2c:28:2d:fb:eb:a5:e0:1d:c6:9a:02:7c:58:e5:e0:a1:
         07:74:38:39:6a:34:fe:95:29:c6:c4:bc:f7:76:ca:38:68:22:
         f4:54:b1:88
-----BEGIN CERTIFICATE-----
MIIDXDCCAkSgAwIBAgIQGSq7BEiWo5p7Z3nV/1E8SDANBgkqhkiG9w0BAQsFADAW
MRQwEgYDVQQDDAt0ZWFtNDk4LW5ldDAeFw0yMjA1MTgyMTUxMjZaFw0yNTA1MDIy
MTUxMjZaMBkxFzAVBgNVBAMMDnRlYW00OTgtY2xpZW50MIIBIjANBgkqhkiG9w0B
AQEFAAOCAQ8AMIIBCgKCAQEA2KWZjRSZ43sFT0BonqJ29nzes8YjquR2UTnkZAsu
Ztcpy/woqt5RqR7lLMEnV193Qfs31b04F8xOQT3NxPdQBwq3tBZ6zoxEoeHEsrK4
OIhoUjF7LAMdDfC+oWPKq2grtDpN/4epR1huuGGKIQLfInxgLWAf/XOOKfxadI61
8wykT/vkB6bl6XXU4hfA/XpAJwYXKa1Tn0sRogYg1kMRV7Gph+dtHmMa544IFyAw
wYTN93POyylYi0MgBXsa5MZlsH/hk1un1lM2qD9cdRRYJz2uynxt2UL++v9Nl/kx
kljDhfCERCGuduGMSjXwWjuOuFIN0i13boz+ELBR58GG7wIDAQABo4GiMIGfMAkG
A1UdEwQCMAAwHQYDVR0OBBYEFLj1UEs/ToMXZB2VAn01vo1hOtNuMFEGA1UdIwRK
MEiAFKCSkua1uiYwqZG9hZd5hqZ7nhV+oRqkGDAWMRQwEgYDVQQDDAt0ZWFtNDk4
LW5ldIIUXVpJQHsCv+Ecr/OB17V1afBWF+swEwYDVR0lBAwwCgYIKwYBBQUHAwIw
CwYDVR0PBAQDAgeAMA0GCSqGSIb3DQEBCwUAA4IBAQCAigpibBtKVUuBIxf1xNl8
eTa0Hcn1yp+NaSvniJySS51RkT7s76eTt41Pv81UL1WGw/2BUCtiWxVcOyiylsVH
+bIvtALD3eijwvls+4qgztkKzk7wy8xtV4QCn1jA1nCz22+UUXL3O+3OdcxLVzD3
FMrgs34XH3szUKLTjwDC4/jKgcROfmziMUCvm37M9ALcNnkqwMPESRBDgNqF41WB
c2kPRpIQuPiUl+vJ9a+P1s3fKAonoT+v+uLKEbcMyJSBANYuvnvaLIjyZAn/++Qe
8BUjD3ppJ9Si/iwoLfvrpeAdxpoCfFjl4KEHdDg5ajT+lSnGxLz3dso4aCL0VLGI
-----END CERTIFICATE-----
