Certificate:
    Data:
        Version: 3 (0x2)
        Serial Number:
            bf:50:01:60:2b:6d:ae:8b:20:c7:c5:ec:d0:28:39:9c
        Signature Algorithm: sha256WithRSAEncryption
        Issuer: CN=team498-net
        Validity
            Not Before: May 18 21:51:26 2022 GMT
            Not After : May  2 21:51:26 2025 GMT
        Subject: CN=team498-server
        Subject Public Key Info:
            Public Key Algorithm: rsaEncryption
                RSA Public-Key: (2048 bit)
                Modulus:
                    00:b6:2b:b5:2e:6f:fa:d9:04:57:b7:4e:73:22:8b:
                    d2:2f:7a:3b:c7:8f:36:ea:b4:bb:12:c7:1c:e5:83:
                    8a:05:77:85:51:f6:66:74:d6:ed:c9:e1:46:63:c6:
                    59:5c:c2:a5:94:c5:92:44:a5:99:a4:f6:ad:db:f9:
                    0f:b8:30:e9:c6:7b:2c:7b:64:f1:12:a8:bc:9a:ac:
                    8f:19:34:47:9b:d1:f8:f0:27:cb:79:1e:94:a7:52:
                    72:2c:ec:c3:cc:ee:5a:68:9a:c0:39:02:94:d5:cb:
                    6e:6d:bc:50:dd:88:61:b7:46:5c:91:d9:12:f3:6d:
                    93:f1:59:44:0e:54:27:6d:d8:96:62:15:f1:1a:17:
                    7c:81:74:cf:1d:60:37:f6:82:63:ec:58:40:9e:74:
                    de:69:6f:8f:c1:5d:4d:02:5b:d6:a8:39:61:5b:a8:
                    84:75:56:b8:5d:1b:df:d5:ad:fd:fe:08:c4:1f:7e:
                    22:d3:4a:aa:e5:00:4f:15:ba:85:89:7f:da:7e:66:
                    3d:f9:a0:bc:00:6a:c1:9e:53:49:42:7b:ca:04:ca:
                    9f:f4:69:6f:f2:5f:70:71:89:fd:66:c9:75:6b:c1:
                    5b:3e:36:4a:15:ca:0d:21:4b:2f:87:6d:b7:77:75:
                    de:6c:e2:d1:02:38:6e:0f:a1:77:4d:c3:ae:86:7c:
                    81:43
                Exponent: 65537 (0x10001)
        X509v3 extensions:
            X509v3 Basic Constraints: 
                CA:FALSE
            X509v3 Subject Key Identifier: 
                9F:9E:2E:35:5A:34:14:C6:7B:69:3F:5C:0D:11:6A:9C:FB:B0:C3:A0
            X509v3 Authority Key Identifier: 
                keyid:A0:92:92:E6:B5:BA:26:30:A9:91:BD:85:97:79:86:A6:7B:9E:15:7E
                DirName:/CN=team498-net
                serial:5D:5A:49:40:7B:02:BF:E1:1C:AF:F3:81:D7:B5:75:69:F0:56:17:EB

            X509v3 Extended Key Usage: 
                TLS Web Server Authentication
            X509v3 Key Usage: 
                Digital Signature, Key Encipherment
            X509v3 Subject Alternative Name: 
                DNS:team498-server
    Signature Algorithm: sha256WithRSAEncryption
         4e:3d:24:3e:07:a5:94:cf:ef:4e:86:05:3c:97:bb:ae:0c:0e:
         59:84:37:70:4f:cd:28:cb:1f:2b:92:19:f4:79:47:ae:2a:00:
         f0:aa:b5:f2:06:96:33:16:4a:20:4d:03:a5:91:74:85:12:ed:
         82:ef:83:8a:05:75:a6:f3:6a:d8:81:98:be:dd:ba:ae:1a:4c:
         e2:e1:a4:5f:4d:05:f0:0b:48:30:15:74:d5:dd:1f:81:0d:2d:
         da:e6:fc:18:23:0c:4b:19:39:db:5e:72:73:b5:d6:04:72:21:
         9b:dc:16:3f:b1:95:31:47:21:e9:cf:88:65:f2:72:29:e1:cc:
         f3:e7:83:99:49:32:c1:a9:36:98:ce:1b:ad:28:f6:76:ab:03:
         a5:39:aa:04:c6:d0:7a:be:ee:ae:71:73:05:1e:47:bd:c2:da:
         5b:59:31:47:2b:02:08:ec:d0:2e:38:21:85:b8:b8:f0:aa:68:
         cd:74:0c:dd:e6:18:ba:8d:b2:67:66:a7:0f:11:f7:9a:b9:e3:
         4f:b1:c4:c0:dc:05:09:08:6c:53:f1:ae:91:cb:9e:9c:75:50:
         9c:56:89:a4:b7:76:0e:68:38:77:3f:5e:a9:8f:c5:e2:dc:c6:
         14:a1:66:b4:17:73:72:2e:5e:79:0e:5c:df:39:f3:f5:d4:21:
         23:56:c0:62
-----BEGIN CERTIFICATE-----
MIIDeDCCAmCgAwIBAgIRAL9QAWArba6LIMfF7NAoOZwwDQYJKoZIhvcNAQELBQAw
FjEUMBIGA1UEAwwLdGVhbTQ5OC1uZXQwHhcNMjIwNTE4MjE1MTI2WhcNMjUwNTAy
MjE1MTI2WjAZMRcwFQYDVQQDDA50ZWFtNDk4LXNlcnZlcjCCASIwDQYJKoZIhvcN
AQEBBQADggEPADCCAQoCggEBALYrtS5v+tkEV7dOcyKL0i96O8ePNuq0uxLHHOWD
igV3hVH2ZnTW7cnhRmPGWVzCpZTFkkSlmaT2rdv5D7gw6cZ7LHtk8RKovJqsjxk0
R5vR+PAny3kelKdScizsw8zuWmiawDkClNXLbm28UN2IYbdGXJHZEvNtk/FZRA5U
J23YlmIV8RoXfIF0zx1gN/aCY+xYQJ503mlvj8FdTQJb1qg5YVuohHVWuF0b39Wt
/f4IxB9+ItNKquUATxW6hYl/2n5mPfmgvABqwZ5TSUJ7ygTKn/Rpb/JfcHGJ/WbJ
dWvBWz42ShXKDSFLL4dtt3d13mzi0QI4bg+hd03DroZ8gUMCAwEAAaOBvTCBujAJ
BgNVHRMEAjAAMB0GA1UdDgQWBBSfni41WjQUxntpP1wNEWqc+7DDoDBRBgNVHSME
SjBIgBSgkpLmtbomMKmRvYWXeYame54VfqEapBgwFjEUMBIGA1UEAwwLdGVhbTQ5
OC1uZXSCFF1aSUB7Ar/hHK/zgde1dWnwVhfrMBMGA1UdJQQMMAoGCCsGAQUFBwMB
MAsGA1UdDwQEAwIFoDAZBgNVHREEEjAQgg50ZWFtNDk4LXNlcnZlcjANBgkqhkiG
9w0BAQsFAAOCAQEATj0kPgellM/vToYFPJe7rgwOWYQ3cE/NKMsfK5IZ9HlHrioA
8Kq18gaWMxZKIE0DpZF0hRLtgu+DigV1pvNq2IGYvt26rhpM4uGkX00F8AtIMBV0
1d0fgQ0t2ub8GCMMSxk5215yc7XWBHIhm9wWP7GVMUch6c+IZfJyKeHM8+eDmUky
wak2mM4brSj2dqsDpTmqBMbQer7urnFzBR5HvcLaW1kxRysCCOzQLjghhbi48Kpo
zXQM3eYYuo2yZ2anDxH3mrnjT7HEwNwFCQhsU/GukcuenHVQnFaJpLd2Dmg4dz9e
qY/F4tzGFKFmtBdzci5eeQ5c3znz9dQhI1bAYg==
-----END CERTIFICATE-----
