Certificate:
    Data:
        Version: 3 (0x2)
        Serial Number:
            03:4c:74:02:90:49:09:08:37:8e:8e:d3:32:ce:02:d5
        Signature Algorithm: sha256WithRSAEncryption
        Issuer: CN=team533-net
        Validity
            Not Before: May 18 22:07:24 2022 GMT
            Not After : May  2 22:07:24 2025 GMT
        Subject: CN=team533-server
        Subject Public Key Info:
            Public Key Algorithm: rsaEncryption
                RSA Public-Key: (2048 bit)
                Modulus:
                    00:ca:aa:a4:ea:7b:69:42:13:f0:55:b9:13:81:1e:
                    69:ab:6e:83:0c:6a:76:37:27:91:59:b6:e1:b8:65:
                    e0:a1:76:78:7d:45:0c:19:fe:bd:a3:cd:e6:ad:98:
                    c0:5d:95:a7:56:55:fc:b3:25:81:04:5e:7c:a4:08:
                    e3:5e:1e:09:75:b2:43:bc:61:dc:20:31:a4:ab:67:
                    86:a8:d2:27:05:e4:66:41:60:2e:c8:42:c4:2a:c6:
                    c2:2e:23:26:98:47:1a:87:5f:fa:96:62:40:2c:c0:
                    54:66:cd:30:5c:8c:9b:d6:5b:00:4f:b4:e5:1a:88:
                    e5:51:65:cf:6b:35:73:7f:42:63:57:3b:d4:98:eb:
                    02:17:13:c5:ad:69:8e:bf:b6:fa:75:15:14:a0:d4:
                    1c:42:09:bb:63:75:43:70:5a:9b:24:9e:e4:18:6d:
                    13:57:63:4e:98:a8:30:e2:54:77:74:18:ce:60:60:
                    74:d6:bb:32:0d:d4:fd:6b:db:79:2e:62:11:f7:00:
                    9b:9d:46:7b:61:75:2d:55:11:5a:b7:54:ea:41:41:
                    f2:8c:89:a0:e1:1c:83:40:57:34:99:ec:f4:41:e1:
                    7e:6b:b7:fc:ce:7a:8e:01:b0:f4:54:88:69:ac:e2:
                    f2:f2:0e:8d:d4:e0:4f:a4:0f:02:48:8e:17:81:cd:
                    2e:b7
                Exponent: 65537 (0x10001)
        X509v3 extensions:
            X509v3 Basic Constraints: 
                CA:FALSE
            X509v3 Subject Key Identifier: 
                5E:E8:24:06:64:64:6C:A6:41:4A:87:AB:3F:91:D8:A6:61:14:CB:D4
            X509v3 Authority Key Identifier: 
                keyid:31:2C:A6:1C:00:79:1A:79:7C:36:51:88:D4:5E:E5:53:4A:9D:E0:EF
                DirName:/CN=team533-net
                serial:1D:28:8F:1B:FE:9D:2B:C7:F2:59:61:DC:C3:87:96:E2:B1:A1:AB:59

            X509v3 Extended Key Usage: 
                TLS Web Server Authentication
            X509v3 Key Usage: 
                Digital Signature, Key Encipherment
            X509v3 Subject Alternative Name: 
                DNS:team533-server
    Signature Algorithm: sha256WithRSAEncryption
         8b:c9:92:78:5e:c0:54:b2:71:b8:e6:78:cf:b2:63:57:39:c8:
         f1:8b:2b:1a:3b:13:c8:c2:6b:c0:ca:29:14:83:5a:9e:76:fc:
         91:b2:5e:8f:1d:d1:9b:97:8e:9d:56:80:43:ca:1c:fa:89:03:
         91:6f:ca:ab:d7:51:0b:92:54:4b:37:ef:e3:8a:93:c1:6e:26:
         17:d2:f6:85:72:74:1f:be:ab:a0:33:ee:3f:6a:03:02:ca:1f:
         3d:66:46:d5:f2:56:b5:66:6e:6b:70:f4:ff:3b:25:8f:5b:58:
         d4:40:ec:5f:d0:c2:5d:e5:dd:db:b4:70:b5:f4:a8:5f:22:3e:
         26:b5:71:47:80:ee:8d:e7:96:5c:33:c1:34:e6:38:e0:d7:d6:
         73:18:41:22:a8:dc:29:59:88:7f:0a:b2:42:f8:c1:cd:1d:3c:
         2a:95:f3:3e:49:fb:e4:74:9e:10:0c:23:58:1b:d4:da:64:14:
         8b:d6:04:e3:31:bc:9f:96:e3:0f:70:a8:78:d9:88:22:59:95:
         7a:04:0e:78:ed:09:ac:2f:63:e0:0d:d5:9d:28:98:bb:64:cc:
         bb:da:cd:80:35:0e:fb:4e:ce:49:7b:c7:3f:f9:6d:00:cb:41:
         24:3f:04:2d:8c:aa:4a:dc:62:1c:1c:4e:fe:da:b9:87:bd:8e:
         00:44:38:2d
-----BEGIN CERTIFICATE-----
MIIDdzCCAl+gAwIBAgIQA0x0ApBJCQg3jo7TMs4C1TANBgkqhkiG9w0BAQsFADAW
MRQwEgYDVQQDDAt0ZWFtNTMzLW5ldDAeFw0yMjA1MTgyMjA3MjRaFw0yNTA1MDIy
MjA3MjRaMBkxFzAVBgNVBAMMDnRlYW01MzMtc2VydmVyMIIBIjANBgkqhkiG9w0B
AQEFAAOCAQ8AMIIBCgKCAQEAyqqk6ntpQhPwVbkTgR5pq26DDGp2NyeRWbbhuGXg
oXZ4fUUMGf69o83mrZjAXZWnVlX8syWBBF58pAjjXh4JdbJDvGHcIDGkq2eGqNIn
BeRmQWAuyELEKsbCLiMmmEcah1/6lmJALMBUZs0wXIyb1lsAT7TlGojlUWXPazVz
f0JjVzvUmOsCFxPFrWmOv7b6dRUUoNQcQgm7Y3VDcFqbJJ7kGG0TV2NOmKgw4lR3
dBjOYGB01rsyDdT9a9t5LmIR9wCbnUZ7YXUtVRFat1TqQUHyjImg4RyDQFc0mez0
QeF+a7f8znqOAbD0VIhprOLy8g6N1OBPpA8CSI4Xgc0utwIDAQABo4G9MIG6MAkG
A1UdEwQCMAAwHQYDVR0OBBYEFF7oJAZkZGymQUqHqz+R2KZhFMvUMFEGA1UdIwRK
MEiAFDEsphwAeRp5fDZRiNRe5VNKneDvoRqkGDAWMRQwEgYDVQQDDAt0ZWFtNTMz
LW5ldIIUHSiPG/6dK8fyWWHcw4eW4rGhq1kwEwYDVR0lBAwwCgYIKwYBBQUHAwEw
CwYDVR0PBAQDAgWgMBkGA1UdEQQSMBCCDnRlYW01MzMtc2VydmVyMA0GCSqGSIb3
DQEBCwUAA4IBAQCLyZJ4XsBUsnG45njPsmNXOcjxiysaOxPIwmvAyikUg1qedvyR
sl6PHdGbl46dVoBDyhz6iQORb8qr11ELklRLN+/jipPBbiYX0vaFcnQfvqugM+4/
agMCyh89ZkbV8la1Zm5rcPT/OyWPW1jUQOxf0MJd5d3btHC19KhfIj4mtXFHgO6N
55ZcM8E05jjg19ZzGEEiqNwpWYh/CrJC+MHNHTwqlfM+SfvkdJ4QDCNYG9TaZBSL
1gTjMbyfluMPcKh42YgiWZV6BA547QmsL2PgDdWdKJi7ZMy72s2ANQ77Ts5Je8c/
+W0Ay0EkPwQtjKpK3GIcHE7+2rmHvY4ARDgt
-----END CERTIFICATE-----
