Certificate:
    Data:
        Version: 3 (0x2)
        Serial Number:
            96:ac:3c:4c:b5:10:29:56:98:96:ec:14:07:fc:88:83
        Signature Algorithm: sha256WithRSAEncryption
        Issuer: CN=team635-net
        Validity
            Not Before: May 18 22:56:46 2022 GMT
            Not After : May  2 22:56:46 2025 GMT
        Subject: CN=team635-client
        Subject Public Key Info:
            Public Key Algorithm: rsaEncryption
                RSA Public-Key: (2048 bit)
                Modulus:
                    00:df:70:22:8f:aa:8d:53:47:fb:1f:52:b4:dc:68:
                    14:7a:ad:f2:e1:07:ff:8a:f8:4f:5b:ee:f5:a8:9b:
                    9a:15:61:32:d3:cf:78:57:fb:88:4a:89:ad:9c:0f:
                    4c:79:b3:79:19:db:99:87:2a:20:27:87:38:04:00:
                    30:00:91:07:13:cb:bf:44:fe:83:c9:66:ab:94:64:
                    eb:42:0e:43:37:75:32:6e:54:d6:1d:da:df:df:21:
                    0e:e5:ca:30:3f:eb:e3:42:18:ed:d5:de:3c:44:21:
                    12:47:15:e6:f3:84:c2:a6:1a:77:a6:72:e2:af:59:
                    b6:ba:57:b6:35:7e:2b:49:bc:dd:eb:8e:2c:2b:22:
                    5e:f5:29:d9:d9:81:0f:b4:2c:47:39:38:3d:1e:90:
                    e1:a6:2e:3c:54:60:c7:4d:6c:e4:81:16:86:53:90:
                    0b:99:3b:b4:11:cf:e5:33:13:e8:a2:03:4d:84:12:
                    09:47:60:57:a0:9f:52:98:c0:88:86:d4:d4:94:a4:
                    f0:9c:77:76:b2:bd:5b:f6:51:32:93:3a:73:0f:7d:
                    80:ef:c2:5c:41:d6:8c:1d:83:25:03:b8:f1:67:ef:
                    98:8f:5b:78:3e:ce:98:e4:6a:37:26:a4:4c:5a:19:
                    30:a0:8b:72:32:ae:e6:00:fa:d9:50:d4:72:72:7f:
                    c4:eb
                Exponent: 65537 (0x10001)
        X509v3 extensions:
            X509v3 Basic Constraints: 
                CA:FALSE
            X509v3 Subject Key Identifier: 
                C2:48:77:42:08:CC:76:59:C7:E8:B1:E5:90:C6:8F:3D:DE:E9:6E:E1
            X509v3 Authority Key Identifier: 
                keyid:DD:B4:C0:7F:0F:09:AC:D9:C9:BB:15:E3:55:12:E1:14:D4:96:6C:B3
                DirName:/CN=team635-net
                serial:77:83:E1:3B:AE:11:4E:4D:C4:58:4E:73:A4:35:77:DC:08:AC:79:4B

            X509v3 Extended Key Usage: 
                TLS Web Client Authentication
            X509v3 Key Usage: 
                Digital Signature
    Signature Algorithm: sha256WithRSAEncryption
         76:56:02:b0:0d:52:a1:79:fb:42:12:8d:a4:72:bf:54:5e:4d:
         63:a6:25:12:e5:40:8f:e4:49:02:a1:19:4f:15:3e:29:b2:60:
         11:d2:9a:ee:47:4c:d0:87:e0:8f:0d:ea:de:3a:9f:48:11:2f:
         ad:28:aa:06:52:e8:84:b6:83:e8:b7:c9:46:74:97:e3:07:7b:
         73:18:1d:b9:92:a5:3b:eb:67:e0:7a:f2:f3:1b:8f:d4:de:50:
         fe:fc:16:21:c1:ab:e5:9a:a4:1f:e5:c1:3b:63:87:7b:1e:b7:
         d5:3c:4b:63:29:3a:49:7e:1d:a0:28:77:b7:a9:26:08:8d:28:
         fb:53:f2:c2:db:35:c2:24:1d:3e:81:a4:b7:b8:04:d4:98:42:
         5d:3c:ae:52:d9:13:b4:99:c3:78:45:5c:be:85:ae:97:f4:f2:
         06:71:df:61:d6:00:a5:4e:98:6c:1a:e3:a0:83:08:d4:ed:08:
         5a:c9:e5:98:de:5c:9a:4c:55:29:90:f2:9e:5a:51:df:f3:a5:
         5e:02:e1:74:e1:57:b9:97:ce:5a:e7:24:34:9a:71:9a:89:8a:
         af:39:c8:8f:9a:39:61:50:1a:89:13:01:25:20:3b:3a:b1:46:
         29:5f:62:cd:83:46:91:8c:17:14:51:d6:52:a7:92:19:15:a4:
         fb:20:12:5a
-----BEGIN CERTIFICATE-----
MIIDXTCCAkWgAwIBAgIRAJasPEy1EClWmJbsFAf8iIMwDQYJKoZIhvcNAQELBQAw
FjEUMBIGA1UEAwwLdGVhbTYzNS1uZXQwHhcNMjIwNTE4MjI1NjQ2WhcNMjUwNTAy
MjI1NjQ2WjAZMRcwFQYDVQQDDA50ZWFtNjM1LWNsaWVudDCCASIwDQYJKoZIhvcN
AQEBBQADggEPADCCAQoCggEBAN9wIo+qjVNH+x9StNxoFHqt8uEH/4r4T1vu9aib
mhVhMtPPeFf7iEqJrZwPTHmzeRnbmYcqICeHOAQAMACRBxPLv0T+g8lmq5Rk60IO
Qzd1Mm5U1h3a398hDuXKMD/r40IY7dXePEQhEkcV5vOEwqYad6Zy4q9ZtrpXtjV+
K0m83euOLCsiXvUp2dmBD7QsRzk4PR6Q4aYuPFRgx01s5IEWhlOQC5k7tBHP5TMT
6KIDTYQSCUdgV6CfUpjAiIbU1JSk8Jx3drK9W/ZRMpM6cw99gO/CXEHWjB2DJQO4
8WfvmI9beD7OmORqNyakTFoZMKCLcjKu5gD62VDUcnJ/xOsCAwEAAaOBojCBnzAJ
BgNVHRMEAjAAMB0GA1UdDgQWBBTCSHdCCMx2WcfoseWQxo893ulu4TBRBgNVHSME
SjBIgBTdtMB/Dwms2cm7FeNVEuEU1JZss6EapBgwFjEUMBIGA1UEAwwLdGVhbTYz
NS1uZXSCFHeD4TuuEU5NxFhOc6Q1d9wIrHlLMBMGA1UdJQQMMAoGCCsGAQUFBwMC
MAsGA1UdDwQEAwIHgDANBgkqhkiG9w0BAQsFAAOCAQEAdlYCsA1SoXn7QhKNpHK/
VF5NY6YlEuVAj+RJAqEZTxU+KbJgEdKa7kdM0Ifgjw3q3jqfSBEvrSiqBlLohLaD
6LfJRnSX4wd7cxgduZKlO+tn4Hry8xuP1N5Q/vwWIcGr5ZqkH+XBO2OHex631TxL
Yyk6SX4doCh3t6kmCI0o+1Pywts1wiQdPoGkt7gE1JhCXTyuUtkTtJnDeEVcvoWu
l/TyBnHfYdYApU6YbBrjoIMI1O0IWsnlmN5cmkxVKZDynlpR3/OlXgLhdOFXuZfO
WuckNJpxmomKrznIj5o5YVAaiRMBJSA7OrFGKV9izYNGkYwXFFHWUqeSGRWk+yAS
Wg==
-----END CERTIFICATE-----
