Certificate:
    Data:
        Version: 3 (0x2)
        Serial Number:
            3e:45:f0:0e:e5:f7:ab:fd:fb:5f:7e:3e:04:f1:4d:dd
        Signature Algorithm: sha256WithRSAEncryption
        Issuer: CN=team215-net
        Validity
            Not Before: May 18 19:18:11 2022 GMT
            Not After : May  2 19:18:11 2025 GMT
        Subject: CN=team215-server
        Subject Public Key Info:
            Public Key Algorithm: rsaEncryption
                RSA Public-Key: (2048 bit)
                Modulus:
                    00:de:f4:05:ca:df:b9:be:b1:e9:49:4c:ee:11:32:
                    b5:1e:c1:be:e5:99:61:e8:37:34:6a:67:45:63:b3:
                    2c:cf:5e:fb:89:90:96:19:f7:b0:0a:c4:b8:31:43:
                    57:c4:6c:d7:02:11:db:d0:47:3e:cd:1a:9f:3a:df:
                    a1:24:b8:18:c9:e4:6f:df:5d:48:56:e1:26:32:41:
                    e5:98:69:e0:bf:be:3e:63:54:10:ec:35:ef:8b:84:
                    2e:3c:ce:7d:03:e1:4b:63:a4:da:4c:5d:c3:96:cc:
                    97:01:ac:d2:3b:7c:e7:24:d5:c9:3d:5f:55:82:ad:
                    7a:42:33:2b:0a:a6:2c:dd:b9:ea:90:7f:84:22:be:
                    35:36:7d:7a:42:da:a8:58:f8:8b:07:26:90:8c:66:
                    26:e2:1d:d8:c0:31:22:e1:8f:88:32:4f:86:25:3d:
                    f7:c0:c8:ba:8d:9c:23:98:b7:bb:86:88:51:a8:1c:
                    ea:4c:71:96:97:b9:69:05:94:d7:bc:f5:b3:54:72:
                    1b:4e:47:62:21:60:83:9f:68:dd:98:9e:7f:df:cc:
                    97:dd:12:b7:78:9c:7a:40:82:10:bf:9e:2a:8c:39:
                    95:90:d4:c8:e3:96:74:75:4f:99:c5:03:08:9c:7a:
                    30:3b:38:77:91:d2:66:fc:b6:f6:62:73:a3:54:95:
                    41:a9
                Exponent: 65537 (0x10001)
        X509v3 extensions:
            X509v3 Basic Constraints: 
                CA:FALSE
            X509v3 Subject Key Identifier: 
                50:E1:B1:31:33:DD:CE:8F:20:C8:93:F9:98:67:FC:F6:60:52:9C:87
            X509v3 Authority Key Identifier: 
                keyid:BB:35:63:65:68:B4:4B:D5:1D:1A:6F:05:1F:68:76:76:33:20:9D:0D
                DirName:/CN=team215-net
                serial:3C:07:FC:38:11:E6:A4:55:63:B6:91:7F:AD:0F:62:7E:CC:CB:F0:D2

            X509v3 Extended Key Usage: 
                TLS Web Server Authentication
            X509v3 Key Usage: 
                Digital Signature, Key Encipherment
            X509v3 Subject Alternative Name: 
                DNS:team215-server
    Signature Algorithm: sha256WithRSAEncryption
         48:14:2c:8d:b4:cd:1f:6a:c1:bc:04:4f:e3:8b:4f:50:dd:8e:
         3f:56:f8:94:14:74:a7:f8:c8:10:c0:9f:48:65:ef:a8:82:37:
         a2:da:b3:2f:e7:e7:4c:73:1b:8c:c0:86:d2:06:8a:47:b9:e3:
         16:bf:59:7b:b6:0e:78:dc:02:f7:f4:bc:26:34:07:b4:7d:b7:
         9f:8e:73:f5:3d:9e:43:c2:af:a6:6d:4b:74:67:bc:98:ee:d7:
         cd:6a:ae:a0:52:10:a2:30:61:6b:72:bb:79:74:b7:2d:ed:38:
         95:5c:d9:50:ad:8e:fc:13:d1:1b:9b:58:09:6e:e4:6b:5a:dc:
         ab:71:19:c5:c6:70:b5:3c:0a:16:ba:03:f4:b1:80:11:1c:61:
         fa:b2:f3:92:f1:c1:71:9e:39:92:c2:28:af:ff:38:77:8d:2f:
         b6:69:38:64:e3:cd:6b:ee:2d:e2:73:5c:b6:52:c0:fa:6a:cb:
         d6:ba:57:fe:86:8c:16:39:44:ba:9e:e8:a5:36:4f:7b:a9:77:
         39:d0:e9:31:32:b9:74:58:84:61:85:60:a0:52:6e:56:d6:34:
         1f:28:70:1b:80:0e:11:60:85:ca:44:52:67:0a:52:0d:94:ae:
         64:f2:21:3e:04:ce:a9:2b:2c:67:5c:ef:2d:ce:08:da:a5:55:
         c1:d9:64:2e
-----BEGIN CERTIFICATE-----
MIIDdzCCAl+gAwIBAgIQPkXwDuX3q/37X34+BPFN3TANBgkqhkiG9w0BAQsFADAW
MRQwEgYDVQQDDAt0ZWFtMjE1LW5ldDAeFw0yMjA1MTgxOTE4MTFaFw0yNTA1MDIx
OTE4MTFaMBkxFzAVBgNVBAMMDnRlYW0yMTUtc2VydmVyMIIBIjANBgkqhkiG9w0B
AQEFAAOCAQ8AMIIBCgKCAQEA3vQFyt+5vrHpSUzuETK1HsG+5Zlh6Dc0amdFY7Ms
z177iZCWGfewCsS4MUNXxGzXAhHb0Ec+zRqfOt+hJLgYyeRv311IVuEmMkHlmGng
v74+Y1QQ7DXvi4QuPM59A+FLY6TaTF3DlsyXAazSO3znJNXJPV9Vgq16QjMrCqYs
3bnqkH+EIr41Nn16QtqoWPiLByaQjGYm4h3YwDEi4Y+IMk+GJT33wMi6jZwjmLe7
hohRqBzqTHGWl7lpBZTXvPWzVHIbTkdiIWCDn2jdmJ5/38yX3RK3eJx6QIIQv54q
jDmVkNTI45Z0dU+ZxQMInHowOzh3kdJm/Lb2YnOjVJVBqQIDAQABo4G9MIG6MAkG
A1UdEwQCMAAwHQYDVR0OBBYEFFDhsTEz3c6PIMiT+Zhn/PZgUpyHMFEGA1UdIwRK
MEiAFLs1Y2VotEvVHRpvBR9odnYzIJ0NoRqkGDAWMRQwEgYDVQQDDAt0ZWFtMjE1
LW5ldIIUPAf8OBHmpFVjtpF/rQ9ifszL8NIwEwYDVR0lBAwwCgYIKwYBBQUHAwEw
CwYDVR0PBAQDAgWgMBkGA1UdEQQSMBCCDnRlYW0yMTUtc2VydmVyMA0GCSqGSIb3
DQEBCwUAA4IBAQBIFCyNtM0fasG8BE/ji09Q3Y4/VviUFHSn+MgQwJ9IZe+ogjei
2rMv5+dMcxuMwIbSBopHueMWv1l7tg543AL39LwmNAe0fbefjnP1PZ5Dwq+mbUt0
Z7yY7tfNaq6gUhCiMGFrcrt5dLct7TiVXNlQrY78E9Ebm1gJbuRrWtyrcRnFxnC1
PAoWugP0sYARHGH6svOS8cFxnjmSwiiv/zh3jS+2aThk481r7i3ic1y2UsD6asvW
ulf+howWOUS6nuilNk97qXc50OkxMrl0WIRhhWCgUm5W1jQfKHAbgA4RYIXKRFJn
ClINlK5k8iE+BM6pKyxnXO8tzgjapVXB2WQu
-----END CERTIFICATE-----
