Certificate:
    Data:
        Version: 3 (0x2)
        Serial Number:
            9d:d9:bd:ae:5f:d7:c2:aa:dd:42:a1:61:da:5b:7f:a5
        Signature Algorithm: sha256WithRSAEncryption
        Issuer: CN=team215-net
        Validity
            Not Before: May 18 19:18:11 2022 GMT
            Not After : May  2 19:18:11 2025 GMT
        Subject: CN=team215-client
        Subject Public Key Info:
            Public Key Algorithm: rsaEncryption
                RSA Public-Key: (2048 bit)
                Modulus:
                    00:bb:f1:0b:8d:e6:27:f8:ef:00:38:c0:f1:e3:0f:
                    aa:5c:e5:9f:00:b7:f6:06:d4:a7:a6:7d:7f:5d:09:
                    a9:13:9d:21:f5:03:8d:fd:da:b0:08:06:37:e7:55:
                    5e:3d:3b:19:1c:b2:57:45:da:c1:31:42:44:60:18:
                    31:53:db:1f:ac:39:92:68:46:e0:9f:fd:8e:2f:ea:
                    fc:0a:25:92:04:f3:76:70:19:69:7b:3c:c1:bb:96:
                    f0:ae:c0:50:ec:a3:3c:3b:5f:e8:4c:fa:17:22:b3:
                    17:39:f6:0e:df:a5:4c:6e:f6:c0:b1:bd:f1:45:22:
                    db:93:02:23:68:bd:9c:1c:c5:33:5f:5c:66:73:a8:
                    78:51:ad:92:45:74:5c:3a:1a:05:0c:c2:d6:01:cf:
                    8a:c5:f5:e8:dd:2b:0c:aa:7e:2d:4e:58:7a:cc:c4:
                    51:d2:49:39:a0:d5:d9:90:63:67:ea:48:6a:a5:0e:
                    46:31:8a:e6:9a:1a:cc:12:ea:e6:2d:cf:4b:b1:ef:
                    a9:67:f5:51:50:0e:c7:f4:75:6b:85:b6:d5:7a:c5:
                    ec:64:f7:01:20:ce:a7:f9:c1:40:b6:f6:27:4c:7d:
                    f4:08:40:88:f7:53:77:6d:96:b9:18:21:db:44:b9:
                    b0:4c:d2:8c:86:3c:04:b5:79:d5:97:d8:a2:1b:c6:
                    8e:77
                Exponent: 65537 (0x10001)
        X509v3 extensions:
            X509v3 Basic Constraints: 
                CA:FALSE
            X509v3 Subject Key Identifier: 
                56:BB:1E:5C:28:EF:E4:07:1C:FE:51:8B:F0:55:EB:0C:BD:F2:DE:8A
            X509v3 Authority Key Identifier: 
                keyid:BB:35:63:65:68:B4:4B:D5:1D:1A:6F:05:1F:68:76:76:33:20:9D:0D
                DirName:/CN=team215-net
                serial:3C:07:FC:38:11:E6:A4:55:63:B6:91:7F:AD:0F:62:7E:CC:CB:F0:D2

            X509v3 Extended Key Usage: 
                TLS Web Client Authentication
            X509v3 Key Usage: 
                Digital Signature
    Signature Algorithm: sha256WithRSAEncryption
         1a:81:7b:80:f6:83:4c:c0:a5:ba:2e:a9:6b:12:9d:71:dc:10:
         e4:ed:07:66:28:6b:8c:40:77:21:9e:9b:79:27:8a:21:33:b9:
         ed:39:16:4a:ad:1d:a6:10:33:eb:aa:4a:34:7d:38:ab:06:63:
         cc:2a:fd:1e:94:6b:69:27:a1:3e:f0:c8:24:32:da:55:64:a8:
         d4:cd:93:5c:b6:30:09:30:f2:60:34:33:e2:2f:95:58:f6:af:
         aa:30:f4:5b:e2:d3:51:5c:a7:3d:72:69:12:6e:f2:8d:b9:d0:
         1c:d7:4e:d3:5e:a3:ad:00:65:ed:74:05:e4:ed:f2:85:1c:0b:
         ba:03:6b:e2:2f:bf:be:ef:bd:d6:f1:a3:f2:e6:6d:31:b2:6f:
         65:85:93:40:84:32:08:b5:d8:84:c5:0d:de:9e:5b:9f:13:a3:
         67:67:be:48:d8:14:eb:bb:7c:62:e6:85:b7:6a:95:2b:e3:3e:
         b8:9c:17:dc:3f:2e:4a:ee:63:7b:73:d4:a3:32:07:1a:59:ca:
         0b:20:9a:06:ea:0f:58:48:21:1a:88:5f:58:70:fa:b2:c2:18:
         4d:90:8b:7c:0a:16:57:c9:ab:a1:95:1b:dc:d8:42:85:fb:81:
         6c:56:ed:de:0f:ea:b7:40:cc:12:28:43:df:fe:88:ee:e8:4b:
         10:86:4c:58
-----BEGIN CERTIFICATE-----
MIIDXTCCAkWgAwIBAgIRAJ3Zva5f18Kq3UKhYdpbf6UwDQYJKoZIhvcNAQELBQAw
FjEUMBIGA1UEAwwLdGVhbTIxNS1uZXQwHhcNMjIwNTE4MTkxODExWhcNMjUwNTAy
MTkxODExWjAZMRcwFQYDVQQDDA50ZWFtMjE1LWNsaWVudDCCASIwDQYJKoZIhvcN
AQEBBQADggEPADCCAQoCggEBALvxC43mJ/jvADjA8eMPqlzlnwC39gbUp6Z9f10J
qROdIfUDjf3asAgGN+dVXj07GRyyV0XawTFCRGAYMVPbH6w5kmhG4J/9ji/q/Aol
kgTzdnAZaXs8wbuW8K7AUOyjPDtf6Ez6FyKzFzn2Dt+lTG72wLG98UUi25MCI2i9
nBzFM19cZnOoeFGtkkV0XDoaBQzC1gHPisX16N0rDKp+LU5YeszEUdJJOaDV2ZBj
Z+pIaqUORjGK5poazBLq5i3PS7HvqWf1UVAOx/R1a4W21XrF7GT3ASDOp/nBQLb2
J0x99AhAiPdTd22WuRgh20S5sEzSjIY8BLV51ZfYohvGjncCAwEAAaOBojCBnzAJ
BgNVHRMEAjAAMB0GA1UdDgQWBBRWux5cKO/kBxz+UYvwVesMvfLeijBRBgNVHSME
SjBIgBS7NWNlaLRL1R0abwUfaHZ2MyCdDaEapBgwFjEUMBIGA1UEAwwLdGVhbTIx
NS1uZXSCFDwH/DgR5qRVY7aRf60PYn7My/DSMBMGA1UdJQQMMAoGCCsGAQUFBwMC
MAsGA1UdDwQEAwIHgDANBgkqhkiG9w0BAQsFAAOCAQEAGoF7gPaDTMClui6paxKd
cdwQ5O0HZihrjEB3IZ6beSeKITO57TkWSq0dphAz66pKNH04qwZjzCr9HpRraSeh
PvDIJDLaVWSo1M2TXLYwCTDyYDQz4i+VWPavqjD0W+LTUVynPXJpEm7yjbnQHNdO
016jrQBl7XQF5O3yhRwLugNr4i+/vu+91vGj8uZtMbJvZYWTQIQyCLXYhMUN3p5b
nxOjZ2e+SNgU67t8YuaFt2qVK+M+uJwX3D8uSu5je3PUozIHGlnKCyCaBuoPWEgh
GohfWHD6ssIYTZCLfAoWV8mroZUb3NhChfuBbFbt3g/qt0DMEihD3/6I7uhLEIZM
WA==
-----END CERTIFICATE-----
