Certificate:
    Data:
        Version: 3 (0x2)
        Serial Number:
            f9:fe:a6:2d:d1:9e:29:83:a0:69:94:3e:94:2c:cc:9a
        Signature Algorithm: sha256WithRSAEncryption
        Issuer: CN=team353-net
        Validity
            Not Before: May 18 20:37:39 2022 GMT
            Not After : May  2 20:37:39 2025 GMT
        Subject: CN=team353-server
        Subject Public Key Info:
            Public Key Algorithm: rsaEncryption
                RSA Public-Key: (2048 bit)
                Modulus:
                    00:bc:4c:53:93:7a:2d:96:bb:ea:84:c7:eb:01:6d:
                    22:74:77:2e:3a:83:9d:b0:c2:19:b8:61:1a:4c:19:
                    e8:42:a9:fa:31:55:76:3c:96:31:78:77:15:b2:31:
                    25:75:9e:a7:00:46:38:56:17:44:f4:8d:1a:3e:95:
                    04:d7:3f:2c:38:66:8a:75:98:3c:4f:65:ea:e0:4b:
                    4a:a2:e8:ab:21:bb:46:1a:10:2d:af:25:83:a1:2d:
                    ed:8c:9d:77:71:d6:3d:06:6a:6a:29:53:16:ac:65:
                    25:c9:c3:ab:5e:99:e8:97:10:45:51:58:ff:a4:0e:
                    c0:5f:33:e7:48:04:c9:85:f9:58:bb:f9:0e:6c:37:
                    ef:f9:40:82:f1:02:1d:45:b5:46:dc:38:e9:d0:85:
                    ca:46:7b:cd:bc:d6:b5:0b:5b:1a:4b:6d:4b:27:72:
                    49:30:f6:04:2e:ae:cd:50:78:9a:3f:2a:5b:c0:0b:
                    e0:cb:9f:7f:ce:90:74:66:98:ea:ef:d2:c4:a2:37:
                    ba:d6:38:97:9b:52:68:d8:2f:ca:41:ad:a6:df:35:
                    82:5d:ac:46:d8:4f:70:42:d2:b0:63:8a:8b:99:e6:
                    cd:32:8d:cb:83:49:fb:6f:56:af:9c:b6:96:9c:bc:
                    a0:d7:2b:1d:42:97:dc:3c:d0:77:c5:f8:58:e8:42:
                    db:c3
                Exponent: 65537 (0x10001)
        X509v3 extensions:
            X509v3 Basic Constraints: 
                CA:FALSE
            X509v3 Subject Key Identifier: 
                2E:E8:DC:C2:64:37:30:C3:04:F9:44:FF:89:E5:CD:5C:D7:A0:BA:AA
            X509v3 Authority Key Identifier: 
                keyid:C5:3B:E5:7A:85:0F:49:33:32:9D:39:A8:99:25:2E:59:82:3E:AB:BB
                DirName:/CN=team353-net
                serial:38:50:A9:9B:34:45:C5:DD:70:CC:B1:CA:81:0E:20:2A:A5:B0:FC:15

            X509v3 Extended Key Usage: 
                TLS Web Server Authentication
            X509v3 Key Usage: 
                Digital Signature, Key Encipherment
            X509v3 Subject Alternative Name: 
                DNS:team353-server
    Signature Algorithm: sha256WithRSAEncryption
         82:c3:46:7b:58:bd:3b:c4:51:8c:79:ce:f3:bc:93:a9:b7:e7:
         04:f3:7a:f8:0b:c4:2f:d8:6e:2b:50:5b:69:bb:b9:7a:83:97:
         5b:48:4e:8f:5b:47:85:1a:a1:58:24:0d:00:77:66:96:83:f1:
         7d:83:05:32:34:d8:05:e1:f1:a7:09:7c:ec:21:3f:76:c7:a7:
         69:94:41:df:6a:18:de:2d:a4:8c:36:7b:70:23:14:cc:16:7e:
         e6:a2:b4:2a:6c:8c:de:70:9d:a6:c0:f1:34:c3:6d:81:3b:4a:
         f9:1f:7c:ce:5b:ab:75:ca:19:43:b5:70:d3:eb:47:73:88:d1:
         81:7f:ea:f8:c8:aa:1f:18:4d:f8:0e:4e:b3:f0:36:e7:58:26:
         ce:ca:b5:40:a5:99:2f:53:7d:96:8e:ff:a2:e6:19:3e:22:95:
         71:2d:94:93:a5:e9:84:15:fd:eb:4f:90:53:76:56:14:d2:3d:
         50:1d:73:d9:a1:25:62:2e:86:34:b8:c0:b7:cf:c9:bf:79:a1:
         8c:3b:05:d5:10:1e:99:35:8c:e7:de:09:84:5f:95:d3:98:4f:
         23:c2:b7:14:e6:ce:ba:14:31:81:0a:f1:ab:ce:50:a1:f0:86:
         60:2c:6c:21:6d:77:d8:f5:3a:5f:bb:ee:dd:95:f0:3f:ca:d8:
         b7:d6:8b:82
-----BEGIN CERTIFICATE-----
MIIDeDCCAmCgAwIBAgIRAPn+pi3RnimDoGmUPpQszJowDQYJKoZIhvcNAQELBQAw
FjEUMBIGA1UEAwwLdGVhbTM1My1uZXQwHhcNMjIwNTE4MjAzNzM5WhcNMjUwNTAy
MjAzNzM5WjAZMRcwFQYDVQQDDA50ZWFtMzUzLXNlcnZlcjCCASIwDQYJKoZIhvcN
AQEBBQADggEPADCCAQoCggEBALxMU5N6LZa76oTH6wFtInR3LjqDnbDCGbhhGkwZ
6EKp+jFVdjyWMXh3FbIxJXWepwBGOFYXRPSNGj6VBNc/LDhminWYPE9l6uBLSqLo
qyG7RhoQLa8lg6Et7Yydd3HWPQZqailTFqxlJcnDq16Z6JcQRVFY/6QOwF8z50gE
yYX5WLv5Dmw37/lAgvECHUW1Rtw46dCFykZ7zbzWtQtbGkttSydySTD2BC6uzVB4
mj8qW8AL4Muff86QdGaY6u/SxKI3utY4l5tSaNgvykGtpt81gl2sRthPcELSsGOK
i5nmzTKNy4NJ+29Wr5y2lpy8oNcrHUKX3DzQd8X4WOhC28MCAwEAAaOBvTCBujAJ
BgNVHRMEAjAAMB0GA1UdDgQWBBQu6NzCZDcwwwT5RP+J5c1c16C6qjBRBgNVHSME
SjBIgBTFO+V6hQ9JMzKdOaiZJS5Zgj6ru6EapBgwFjEUMBIGA1UEAwwLdGVhbTM1
My1uZXSCFDhQqZs0RcXdcMyxyoEOICqlsPwVMBMGA1UdJQQMMAoGCCsGAQUFBwMB
MAsGA1UdDwQEAwIFoDAZBgNVHREEEjAQgg50ZWFtMzUzLXNlcnZlcjANBgkqhkiG
9w0BAQsFAAOCAQEAgsNGe1i9O8RRjHnO87yTqbfnBPN6+AvEL9huK1Bbabu5eoOX
W0hOj1tHhRqhWCQNAHdmloPxfYMFMjTYBeHxpwl87CE/dsenaZRB32oY3i2kjDZ7
cCMUzBZ+5qK0KmyM3nCdpsDxNMNtgTtK+R98zlurdcoZQ7Vw0+tHc4jRgX/q+Miq
HxhN+A5Os/A251gmzsq1QKWZL1N9lo7/ouYZPiKVcS2Uk6XphBX960+QU3ZWFNI9
UB1z2aElYi6GNLjAt8/Jv3mhjDsF1RAemTWM594JhF+V05hPI8K3FObOuhQxgQrx
q85QofCGYCxsIW132PU6X7vu3ZXwP8rYt9aLgg==
-----END CERTIFICATE-----
