Certificate:
    Data:
        Version: 3 (0x2)
        Serial Number:
            28:1d:52:75:2e:82:88:d2:9a:f6:26:d5:82:84:83:91
        Signature Algorithm: sha256WithRSAEncryption
        Issuer: CN=team123-net
        Validity
            Not Before: May 18 15:05:37 2022 GMT
            Not After : May  2 15:05:37 2025 GMT
        Subject: CN=team123-client
        Subject Public Key Info:
            Public Key Algorithm: rsaEncryption
                RSA Public-Key: (2048 bit)
                Modulus:
                    00:e2:a6:94:1c:f5:24:3d:6a:bc:d9:6c:06:79:90:
                    8a:af:67:e7:af:fd:c9:45:87:28:21:60:2c:5e:11:
                    9f:8e:19:6e:28:f8:8b:c7:ac:f7:00:ba:fa:ad:1e:
                    c1:6e:74:ec:6d:04:62:f1:7b:08:ac:c3:d3:ff:08:
                    fc:49:14:27:78:9f:cf:a4:e8:88:1c:e3:ad:b1:08:
                    d1:09:7c:4b:77:cd:14:15:c6:5c:15:8d:3e:30:5a:
                    f5:ef:1b:28:60:ad:a2:32:d1:5f:68:d1:7e:c5:f6:
                    a3:11:4a:dc:28:53:12:66:18:dd:35:72:39:3f:c6:
                    e4:90:b4:8a:08:ea:d4:f6:6b:31:68:e0:c6:7c:4e:
                    a8:41:38:28:77:07:68:d0:09:4e:64:ff:37:ca:8c:
                    69:21:79:71:52:c8:b6:11:64:07:3f:6b:88:a8:2a:
                    ad:55:3a:e2:04:d4:c9:fd:6a:1c:2b:aa:da:f0:f4:
                    9b:dd:ec:33:d8:05:b3:1f:eb:98:56:1b:4f:16:0b:
                    3b:bb:6d:dc:f5:5b:fe:22:00:f5:ea:7a:ca:42:b5:
                    be:18:37:50:40:a1:64:3c:e5:b6:43:47:1e:04:6f:
                    78:a1:d9:18:18:c7:cf:fc:d2:c3:0c:8c:a3:02:bc:
                    4b:15:9a:a4:1f:88:3f:83:02:5e:9b:7f:01:46:cf:
                    e9:83
                Exponent: 65537 (0x10001)
        X509v3 extensions:
            X509v3 Basic Constraints: 
                CA:FALSE
            X509v3 Subject Key Identifier: 
                1A:81:0D:DD:ED:94:FB:76:24:0E:1A:4A:CF:41:8D:73:6F:0B:C2:3E
            X509v3 Authority Key Identifier: 
                keyid:C7:49:30:06:CE:82:C5:88:14:EB:5A:1B:30:4B:70:35:74:4C:0F:97
                DirName:/CN=team123-net
                serial:7A:84:28:6A:8A:71:7F:C1:78:E7:A2:49:63:F9:C3:18:E2:10:D8:80

            X509v3 Extended Key Usage: 
                TLS Web Client Authentication
            X509v3 Key Usage: 
                Digital Signature
    Signature Algorithm: sha256WithRSAEncryption
         3b:27:8f:19:3e:ca:cb:4f:6e:81:04:12:1d:f0:c5:2e:ad:47:
         44:ae:7b:7d:23:26:2d:91:af:5e:f8:32:d2:0c:ce:f7:ea:1b:
         dc:a6:a7:93:46:42:a5:a6:8b:51:d3:4e:c1:07:fa:12:81:07:
         96:0a:25:fe:4a:fa:cc:29:a2:c7:ef:5f:aa:16:c8:de:52:7c:
         85:2a:29:02:ef:56:58:bd:6e:19:9c:eb:b5:03:1a:b6:40:e2:
         91:d0:a8:e2:0e:48:26:8d:b4:58:ba:f4:4f:71:5d:e3:fc:4b:
         f0:eb:2b:47:5f:f4:66:d6:47:01:83:6e:5d:ed:d0:d0:cc:6b:
         32:7c:65:ea:5f:80:8e:fc:f4:81:89:29:3b:87:6f:8e:e7:0f:
         42:90:83:58:0b:a2:5f:f2:1b:59:01:5d:a9:68:9d:3e:45:31:
         bc:d6:ce:a7:fd:8c:f8:20:33:c1:a1:e4:f6:26:3f:06:df:b8:
         0c:c1:1a:b3:11:c0:ee:e5:27:46:42:51:75:e8:31:71:a3:00:
         81:c3:6d:d1:29:28:92:89:31:8f:4c:5b:86:da:4e:f2:a1:73:
         fe:d4:2c:53:74:bb:d3:9d:20:93:da:c3:14:f1:eb:d5:bb:3a:
         1d:8a:1c:9e:73:e2:df:65:b3:35:40:84:dc:18:1c:7d:61:20:
         21:ca:01:16
-----BEGIN CERTIFICATE-----
MIIDXDCCAkSgAwIBAgIQKB1SdS6CiNKa9ibVgoSDkTANBgkqhkiG9w0BAQsFADAW
MRQwEgYDVQQDDAt0ZWFtMTIzLW5ldDAeFw0yMjA1MTgxNTA1MzdaFw0yNTA1MDIx
NTA1MzdaMBkxFzAVBgNVBAMMDnRlYW0xMjMtY2xpZW50MIIBIjANBgkqhkiG9w0B
AQEFAAOCAQ8AMIIBCgKCAQEA4qaUHPUkPWq82WwGeZCKr2fnr/3JRYcoIWAsXhGf
jhluKPiLx6z3ALr6rR7BbnTsbQRi8XsIrMPT/wj8SRQneJ/PpOiIHOOtsQjRCXxL
d80UFcZcFY0+MFr17xsoYK2iMtFfaNF+xfajEUrcKFMSZhjdNXI5P8bkkLSKCOrU
9msxaODGfE6oQTgodwdo0AlOZP83yoxpIXlxUsi2EWQHP2uIqCqtVTriBNTJ/Woc
K6ra8PSb3ewz2AWzH+uYVhtPFgs7u23c9Vv+IgD16nrKQrW+GDdQQKFkPOW2Q0ce
BG94odkYGMfP/NLDDIyjArxLFZqkH4g/gwJem38BRs/pgwIDAQABo4GiMIGfMAkG
A1UdEwQCMAAwHQYDVR0OBBYEFBqBDd3tlPt2JA4aSs9BjXNvC8I+MFEGA1UdIwRK
MEiAFMdJMAbOgsWIFOtaGzBLcDV0TA+XoRqkGDAWMRQwEgYDVQQDDAt0ZWFtMTIz
LW5ldIIUeoQoaopxf8F456JJY/nDGOIQ2IAwEwYDVR0lBAwwCgYIKwYBBQUHAwIw
CwYDVR0PBAQDAgeAMA0GCSqGSIb3DQEBCwUAA4IBAQA7J48ZPsrLT26BBBId8MUu
rUdErnt9IyYtka9e+DLSDM736hvcpqeTRkKlpotR007BB/oSgQeWCiX+SvrMKaLH
71+qFsjeUnyFKikC71ZYvW4ZnOu1Axq2QOKR0KjiDkgmjbRYuvRPcV3j/Evw6ytH
X/Rm1kcBg25d7dDQzGsyfGXqX4CO/PSBiSk7h2+O5w9CkINYC6Jf8htZAV2paJ0+
RTG81s6n/Yz4IDPBoeT2Jj8G37gMwRqzEcDu5SdGQlF16DFxowCBw23RKSiSiTGP
TFuG2k7yoXP+1CxTdLvTnSCT2sMU8evVuzodihyec+LfZbM1QITcGBx9YSAhygEW
-----END CERTIFICATE-----
