Certificate:
    Data:
        Version: 3 (0x2)
        Serial Number:
            bd:38:9c:b8:43:fb:b5:97:71:e4:a9:7a:a9:dc:a6:01
        Signature Algorithm: sha256WithRSAEncryption
        Issuer: CN=team123-net
        Validity
            Not Before: May 18 15:05:38 2022 GMT
            Not After : May  2 15:05:38 2025 GMT
        Subject: CN=team123-server
        Subject Public Key Info:
            Public Key Algorithm: rsaEncryption
                RSA Public-Key: (2048 bit)
                Modulus:
                    00:b6:f2:be:d9:c4:1c:c9:0e:e2:c8:f9:c4:7a:0e:
                    13:12:83:36:1c:c9:80:32:05:1b:ee:1c:ed:52:03:
                    1a:25:27:cc:73:bc:bd:47:f6:54:f3:93:bf:f6:80:
                    9a:f4:cb:bb:44:36:b2:79:23:92:96:1c:20:9e:69:
                    8f:68:1c:71:10:17:14:36:19:f1:bd:2e:ee:8d:29:
                    1d:4c:95:e1:a2:91:f1:c9:5b:ba:e4:cd:29:04:a2:
                    2e:f9:b6:97:f5:c3:28:31:76:ac:48:1d:c3:0f:aa:
                    1a:a9:2d:0d:63:15:fa:06:10:11:96:59:d9:ee:25:
                    59:4a:2a:59:ec:4b:75:cf:07:da:ef:d4:38:27:94:
                    c6:a6:63:8d:c6:d3:a0:6e:aa:82:ad:e7:44:66:bb:
                    9c:ed:90:7f:bf:2e:fa:3e:11:16:5b:ee:10:d4:ce:
                    d2:ca:5f:1a:7e:f5:3d:5d:ed:a3:e2:40:7b:e2:9c:
                    5d:54:97:36:f4:13:04:8a:94:6d:f4:8c:ad:e6:0a:
                    66:18:6e:4f:e2:aa:70:d7:3f:08:2e:c3:4a:3d:7c:
                    69:0d:45:a0:a4:f7:28:55:23:b1:86:7a:25:f5:67:
                    f7:9e:55:50:68:c8:cd:d5:3b:1b:6c:58:88:43:f6:
                    46:15:4b:a6:85:fd:2b:43:a9:7e:fb:ba:0c:99:da:
                    6f:9b
                Exponent: 65537 (0x10001)
        X509v3 extensions:
            X509v3 Basic Constraints: 
                CA:FALSE
            X509v3 Subject Key Identifier: 
                AF:F4:F6:96:12:68:84:20:FF:B8:C5:E3:C6:69:0B:F9:D4:FC:F4:68
            X509v3 Authority Key Identifier: 
                keyid:C7:49:30:06:CE:82:C5:88:14:EB:5A:1B:30:4B:70:35:74:4C:0F:97
                DirName:/CN=team123-net
                serial:7A:84:28:6A:8A:71:7F:C1:78:E7:A2:49:63:F9:C3:18:E2:10:D8:80

            X509v3 Extended Key Usage: 
                TLS Web Server Authentication
            X509v3 Key Usage: 
                Digital Signature, Key Encipherment
            X509v3 Subject Alternative Name: 
                DNS:team123-server
    Signature Algorithm: sha256WithRSAEncryption
         97:ff:dc:e9:e1:d5:28:7d:d1:e7:a4:49:bd:7f:b4:06:e1:75:
         25:31:13:7e:0d:2d:aa:2a:d5:0b:55:62:0b:d1:51:76:a9:0d:
         6f:43:db:ef:92:c3:d2:55:63:70:1c:ba:1a:2b:f2:f4:f1:52:
         cf:a0:46:e7:e2:ef:5f:c8:dc:0f:f6:0e:a7:6f:ff:8f:3c:20:
         20:01:70:05:49:81:57:ba:e7:02:96:cd:ab:e5:50:15:9c:57:
         7d:c2:ae:3f:3c:60:a9:0e:66:f8:94:0a:aa:bd:3e:2b:58:68:
         d0:d3:31:71:0c:26:30:03:37:56:59:09:de:0e:fc:55:94:69:
         4c:fe:1b:6b:49:06:7f:de:4e:06:21:42:75:32:a4:f8:c3:b8:
         56:6d:63:7a:1f:92:ac:d6:6c:e1:d1:92:c4:50:48:04:a7:23:
         48:8a:db:66:bb:91:17:19:03:e7:61:3d:e0:83:6c:52:b5:75:
         f1:53:00:22:cf:aa:b6:c2:f9:79:b3:6b:a4:40:d9:4e:ea:89:
         9c:c2:2f:a8:c0:04:80:a7:1c:8e:d5:75:64:66:54:80:a7:83:
         a9:b9:49:68:c8:c1:86:25:c8:b2:4b:1b:6e:83:ee:27:c5:27:
         fc:a2:54:f4:34:e2:93:ff:41:9b:13:7f:5f:0f:89:6a:78:7e:
         e5:07:47:bf
-----BEGIN CERTIFICATE-----
MIIDeDCCAmCgAwIBAgIRAL04nLhD+7WXceSpeqncpgEwDQYJKoZIhvcNAQELBQAw
FjEUMBIGA1UEAwwLdGVhbTEyMy1uZXQwHhcNMjIwNTE4MTUwNTM4WhcNMjUwNTAy
MTUwNTM4WjAZMRcwFQYDVQQDDA50ZWFtMTIzLXNlcnZlcjCCASIwDQYJKoZIhvcN
AQEBBQADggEPADCCAQoCggEBALbyvtnEHMkO4sj5xHoOExKDNhzJgDIFG+4c7VID
GiUnzHO8vUf2VPOTv/aAmvTLu0Q2snkjkpYcIJ5pj2gccRAXFDYZ8b0u7o0pHUyV
4aKR8clbuuTNKQSiLvm2l/XDKDF2rEgdww+qGqktDWMV+gYQEZZZ2e4lWUoqWexL
dc8H2u/UOCeUxqZjjcbToG6qgq3nRGa7nO2Qf78u+j4RFlvuENTO0spfGn71PV3t
o+JAe+KcXVSXNvQTBIqUbfSMreYKZhhuT+KqcNc/CC7DSj18aQ1FoKT3KFUjsYZ6
JfVn955VUGjIzdU7G2xYiEP2RhVLpoX9K0Opfvu6DJnab5sCAwEAAaOBvTCBujAJ
BgNVHRMEAjAAMB0GA1UdDgQWBBSv9PaWEmiEIP+4xePGaQv51Pz0aDBRBgNVHSME
SjBIgBTHSTAGzoLFiBTrWhswS3A1dEwPl6EapBgwFjEUMBIGA1UEAwwLdGVhbTEy
My1uZXSCFHqEKGqKcX/BeOeiSWP5wxjiENiAMBMGA1UdJQQMMAoGCCsGAQUFBwMB
MAsGA1UdDwQEAwIFoDAZBgNVHREEEjAQgg50ZWFtMTIzLXNlcnZlcjANBgkqhkiG
9w0BAQsFAAOCAQEAl//c6eHVKH3R56RJvX+0BuF1JTETfg0tqirVC1ViC9FRdqkN
b0Pb75LD0lVjcBy6Givy9PFSz6BG5+LvX8jcD/YOp2//jzwgIAFwBUmBV7rnApbN
q+VQFZxXfcKuPzxgqQ5m+JQKqr0+K1ho0NMxcQwmMAM3VlkJ3g78VZRpTP4ba0kG
f95OBiFCdTKk+MO4Vm1jeh+SrNZs4dGSxFBIBKcjSIrbZruRFxkD52E94INsUrV1
8VMAIs+qtsL5ebNrpEDZTuqJnMIvqMAEgKccjtV1ZGZUgKeDqblJaMjBhiXIsksb
boPuJ8Un/KJU9DTik/9BmxN/Xw+Janh+5QdHvw==
-----END CERTIFICATE-----
