Certificate:
    Data:
        Version: 3 (0x2)
        Serial Number:
            40:f5:82:2f:e0:7e:92:61:28:ef:9f:f8:e4:a6:e3:4e
        Signature Algorithm: sha256WithRSAEncryption
        Issuer: CN=team510-net
        Validity
            Not Before: May 18 21:51:10 2022 GMT
            Not After : May  2 21:51:10 2025 GMT
        Subject: CN=team510-server
        Subject Public Key Info:
            Public Key Algorithm: rsaEncryption
                RSA Public-Key: (2048 bit)
                Modulus:
                    00:d4:03:d4:83:70:02:ac:54:79:f0:46:dc:3e:10:
                    0e:6e:76:e7:e9:3a:37:01:33:e3:e6:7a:db:5c:42:
                    01:1f:99:eb:ea:a9:36:0a:60:68:6e:d6:2f:c7:af:
                    04:5a:eb:e0:54:7c:1e:52:93:16:96:cf:9c:78:40:
                    40:ec:5c:f8:cd:73:ea:4f:9d:ba:3b:4a:c1:72:68:
                    93:64:08:d0:eb:3b:d9:e2:69:a9:6a:a0:f6:81:35:
                    4a:07:97:70:48:82:89:51:5f:9e:57:67:11:7d:93:
                    1a:a0:01:fb:2a:ab:b6:a6:35:b7:90:76:ee:d0:20:
                    c3:34:d6:6a:5e:dd:28:33:e9:21:b3:14:21:cc:85:
                    87:6f:b4:c1:31:70:57:9f:77:9d:1b:b1:a1:4f:60:
                    c3:16:84:4e:d1:9c:b8:70:b7:9f:31:7c:99:06:44:
                    77:42:06:fe:89:63:dc:34:0e:18:d5:5d:1c:05:9b:
                    fa:31:f0:47:bb:ee:62:95:80:45:ac:7e:69:05:4d:
                    51:c0:02:c8:63:89:e9:f3:fa:c0:ca:75:02:ba:29:
                    1d:ce:7c:02:e0:6d:90:81:fa:dc:5d:d4:9e:93:50:
                    11:07:75:0d:a9:02:96:53:31:8a:11:b9:f6:cd:69:
                    22:21:eb:81:ed:f2:f5:92:17:72:29:0b:09:45:04:
                    08:a3
                Exponent: 65537 (0x10001)
        X509v3 extensions:
            X509v3 Basic Constraints: 
                CA:FALSE
            X509v3 Subject Key Identifier: 
                88:74:27:63:CE:90:C6:85:86:4B:47:48:99:70:D4:2C:1B:1B:81:4F
            X509v3 Authority Key Identifier: 
                keyid:C2:07:AF:44:94:95:39:70:7F:E9:DB:B1:8D:EC:FB:16:40:85:51:7D
                DirName:/CN=team510-net
                serial:29:5B:F5:1F:3B:1B:D2:81:E6:25:73:E1:8A:56:D5:F0:84:BD:5F:8D

            X509v3 Extended Key Usage: 
                TLS Web Server Authentication
            X509v3 Key Usage: 
                Digital Signature, Key Encipherment
            X509v3 Subject Alternative Name: 
                DNS:team510-server
    Signature Algorithm: sha256WithRSAEncryption
         32:ed:32:a3:b0:33:3c:45:88:dd:38:e3:ef:49:27:ba:18:e6:
         03:7e:73:58:aa:57:52:9f:ce:6a:a6:3d:f7:48:15:1c:47:35:
         dc:96:7a:09:3b:e9:97:c7:c0:22:c1:9e:cf:b1:a9:8b:57:db:
         a4:84:f6:3d:8f:86:7a:3e:1a:b1:9b:62:7d:1e:f7:cd:c9:8a:
         ef:f9:79:dd:00:c1:65:06:86:ec:12:cb:af:a4:81:91:48:97:
         de:c4:dd:cd:0e:ce:d4:f6:19:79:3d:35:fb:80:5d:ab:f1:75:
         8e:d9:d8:1a:e4:ec:06:11:06:67:4b:7f:f2:c9:b0:cd:14:1b:
         d2:0d:22:cf:a5:db:df:d1:3e:e4:fd:a9:97:b1:f3:6b:29:41:
         3d:b0:b0:ca:83:19:19:b4:ec:52:b0:e2:79:42:c1:3a:9b:8a:
         af:ee:25:32:33:c3:71:60:01:48:8b:95:67:72:05:b9:77:73:
         4a:31:1c:dd:90:b0:f9:6e:6e:85:fc:0c:9f:15:8d:1d:36:f2:
         cd:ec:ee:5a:a9:4d:1f:2b:36:16:99:13:8f:36:93:c8:ad:03:
         ea:d8:ff:08:d4:f1:60:19:85:21:32:b2:55:09:d1:e2:5f:d2:
         11:1b:6f:fd:37:d5:49:e2:ee:c0:50:eb:b9:c0:1b:75:d9:01:
         f6:05:0e:ed
-----BEGIN CERTIFICATE-----
MIIDdzCCAl+gAwIBAgIQQPWCL+B+kmEo75/45KbjTjANBgkqhkiG9w0BAQsFADAW
MRQwEgYDVQQDDAt0ZWFtNTEwLW5ldDAeFw0yMjA1MTgyMTUxMTBaFw0yNTA1MDIy
MTUxMTBaMBkxFzAVBgNVBAMMDnRlYW01MTAtc2VydmVyMIIBIjANBgkqhkiG9w0B
AQEFAAOCAQ8AMIIBCgKCAQEA1APUg3ACrFR58EbcPhAObnbn6To3ATPj5nrbXEIB
H5nr6qk2CmBobtYvx68EWuvgVHweUpMWls+ceEBA7Fz4zXPqT526O0rBcmiTZAjQ
6zvZ4mmpaqD2gTVKB5dwSIKJUV+eV2cRfZMaoAH7Kqu2pjW3kHbu0CDDNNZqXt0o
M+khsxQhzIWHb7TBMXBXn3edG7GhT2DDFoRO0Zy4cLefMXyZBkR3Qgb+iWPcNA4Y
1V0cBZv6MfBHu+5ilYBFrH5pBU1RwALIY4np8/rAynUCuikdznwC4G2QgfrcXdSe
k1ARB3UNqQKWUzGKEbn2zWkiIeuB7fL1khdyKQsJRQQIowIDAQABo4G9MIG6MAkG
A1UdEwQCMAAwHQYDVR0OBBYEFIh0J2POkMaFhktHSJlw1CwbG4FPMFEGA1UdIwRK
MEiAFMIHr0SUlTlwf+nbsY3s+xZAhVF9oRqkGDAWMRQwEgYDVQQDDAt0ZWFtNTEw
LW5ldIIUKVv1Hzsb0oHmJXPhilbV8IS9X40wEwYDVR0lBAwwCgYIKwYBBQUHAwEw
CwYDVR0PBAQDAgWgMBkGA1UdEQQSMBCCDnRlYW01MTAtc2VydmVyMA0GCSqGSIb3
DQEBCwUAA4IBAQAy7TKjsDM8RYjdOOPvSSe6GOYDfnNYqldSn85qpj33SBUcRzXc
lnoJO+mXx8AiwZ7PsamLV9ukhPY9j4Z6Phqxm2J9HvfNyYrv+XndAMFlBobsEsuv
pIGRSJfexN3NDs7U9hl5PTX7gF2r8XWO2dga5OwGEQZnS3/yybDNFBvSDSLPpdvf
0T7k/amXsfNrKUE9sLDKgxkZtOxSsOJ5QsE6m4qv7iUyM8NxYAFIi5VncgW5d3NK
MRzdkLD5bm6F/AyfFY0dNvLN7O5aqU0fKzYWmROPNpPIrQPq2P8I1PFgGYUhMrJV
CdHiX9IRG2/9N9VJ4u7AUOu5wBt12QH2BQ7t
-----END CERTIFICATE-----
