Certificate:
    Data:
        Version: 3 (0x2)
        Serial Number:
            e2:5c:67:34:bb:1c:b2:84:ce:be:c8:77:f0:1a:d3:30
        Signature Algorithm: sha256WithRSAEncryption
        Issuer: CN=team510-net
        Validity
            Not Before: May 18 21:51:10 2022 GMT
            Not After : May  2 21:51:10 2025 GMT
        Subject: CN=team510-client
        Subject Public Key Info:
            Public Key Algorithm: rsaEncryption
                RSA Public-Key: (2048 bit)
                Modulus:
                    00:c8:0a:7c:06:0a:f0:ba:8b:a5:f4:bb:c6:1b:2d:
                    e7:f1:f3:99:fc:78:5b:98:c2:a8:fe:d5:75:06:71:
                    0a:be:8c:31:08:c6:44:39:a1:e9:15:1b:ba:91:76:
                    cd:19:d8:1b:64:e2:63:f6:53:47:32:d2:e4:3f:d6:
                    6a:8c:c1:3e:80:ff:0b:fb:e5:01:03:77:f2:8f:87:
                    ed:ce:f6:11:f6:dd:af:19:a1:f6:a7:8d:c6:18:42:
                    db:aa:5b:e4:72:95:c2:31:1e:fa:84:02:0a:c7:d2:
                    bc:12:04:7b:95:a7:2a:3d:59:2c:e2:45:80:18:17:
                    62:67:ad:25:ce:f6:c5:5c:15:76:f6:79:34:d2:c3:
                    10:bc:0a:5e:ee:ef:35:eb:70:a7:c4:46:56:94:d3:
                    9f:6d:35:c1:11:aa:33:a3:94:38:d3:d8:79:a7:94:
                    26:69:78:a2:16:6b:9c:67:1a:1f:13:86:2e:11:aa:
                    9c:f7:b8:8f:88:2b:cb:0a:7e:c6:d2:2c:17:dc:a6:
                    bd:5f:c1:48:a7:29:f5:c2:42:78:74:21:77:8e:3e:
                    21:41:10:25:dc:cc:95:69:cd:a2:ea:dd:dd:a7:ad:
                    7b:f9:d0:2c:fb:83:94:6d:b1:d2:08:f8:94:ef:f7:
                    72:a0:14:85:8b:59:fa:0d:8f:87:6e:14:81:25:4f:
                    20:9f
                Exponent: 65537 (0x10001)
        X509v3 extensions:
            X509v3 Basic Constraints: 
                CA:FALSE
            X509v3 Subject Key Identifier: 
                E6:96:59:E8:CB:8B:44:36:B8:71:09:8C:E7:08:D7:91:ED:6F:2F:97
            X509v3 Authority Key Identifier: 
                keyid:C2:07:AF:44:94:95:39:70:7F:E9:DB:B1:8D:EC:FB:16:40:85:51:7D
                DirName:/CN=team510-net
                serial:29:5B:F5:1F:3B:1B:D2:81:E6:25:73:E1:8A:56:D5:F0:84:BD:5F:8D

            X509v3 Extended Key Usage: 
                TLS Web Client Authentication
            X509v3 Key Usage: 
                Digital Signature
    Signature Algorithm: sha256WithRSAEncryption
         66:9b:32:41:6b:a6:9a:b7:02:a4:c6:23:1d:e9:04:9a:2b:3e:
         d9:e8:00:8b:dc:fa:05:98:bc:1b:55:43:b1:70:81:f6:f7:ce:
         41:ef:98:59:11:c0:eb:27:32:84:dd:76:2c:72:2c:c3:dc:f7:
         bf:b6:80:05:07:01:b3:75:f2:e3:54:a2:3a:b5:ab:66:5b:4d:
         de:76:9b:e3:fe:a2:6d:46:3f:ac:53:c7:73:20:2a:04:b7:c3:
         d7:1a:f6:37:fc:43:e7:87:2d:99:fc:b7:f5:f6:98:a5:13:1d:
         44:e5:fb:7c:33:f3:91:d0:fc:16:0a:b5:d2:d8:50:61:47:69:
         41:fa:6f:84:f7:9d:af:d6:db:bd:96:6b:b4:7c:bb:ba:de:03:
         f6:fe:b8:ab:45:85:f5:01:89:1d:44:2f:4b:03:15:ed:5b:e3:
         c1:52:e6:43:15:10:1f:01:f5:07:d9:e6:04:c1:65:bf:c8:1c:
         bf:7c:79:8f:47:0b:12:3d:3f:68:bd:33:b4:be:86:50:79:ae:
         d9:37:97:a4:b0:5a:77:85:95:49:cc:cb:1c:78:da:ed:d6:bc:
         1f:7d:7f:b5:fa:c1:c7:ac:a5:36:2d:b1:f5:46:e6:15:03:ab:
         ed:8d:6d:42:ba:6a:0e:35:d0:6d:e2:ab:bf:f4:01:35:b6:1e:
         76:dc:b9:9a
-----BEGIN CERTIFICATE-----
MIIDXTCCAkWgAwIBAgIRAOJcZzS7HLKEzr7Id/Aa0zAwDQYJKoZIhvcNAQELBQAw
FjEUMBIGA1UEAwwLdGVhbTUxMC1uZXQwHhcNMjIwNTE4MjE1MTEwWhcNMjUwNTAy
MjE1MTEwWjAZMRcwFQYDVQQDDA50ZWFtNTEwLWNsaWVudDCCASIwDQYJKoZIhvcN
AQEBBQADggEPADCCAQoCggEBAMgKfAYK8LqLpfS7xhst5/Hzmfx4W5jCqP7VdQZx
Cr6MMQjGRDmh6RUbupF2zRnYG2TiY/ZTRzLS5D/WaozBPoD/C/vlAQN38o+H7c72
Efbdrxmh9qeNxhhC26pb5HKVwjEe+oQCCsfSvBIEe5WnKj1ZLOJFgBgXYmetJc72
xVwVdvZ5NNLDELwKXu7vNetwp8RGVpTTn201wRGqM6OUONPYeaeUJml4ohZrnGca
HxOGLhGqnPe4j4grywp+xtIsF9ymvV/BSKcp9cJCeHQhd44+IUEQJdzMlWnNourd
3aete/nQLPuDlG2x0gj4lO/3cqAUhYtZ+g2Ph24UgSVPIJ8CAwEAAaOBojCBnzAJ
BgNVHRMEAjAAMB0GA1UdDgQWBBTmllnoy4tENrhxCYznCNeR7W8vlzBRBgNVHSME
SjBIgBTCB69ElJU5cH/p27GN7PsWQIVRfaEapBgwFjEUMBIGA1UEAwwLdGVhbTUx
MC1uZXSCFClb9R87G9KB5iVz4YpW1fCEvV+NMBMGA1UdJQQMMAoGCCsGAQUFBwMC
MAsGA1UdDwQEAwIHgDANBgkqhkiG9w0BAQsFAAOCAQEAZpsyQWummrcCpMYjHekE
mis+2egAi9z6BZi8G1VDsXCB9vfOQe+YWRHA6ycyhN12LHIsw9z3v7aABQcBs3Xy
41SiOrWrZltN3nab4/6ibUY/rFPHcyAqBLfD1xr2N/xD54ctmfy39faYpRMdROX7
fDPzkdD8Fgq10thQYUdpQfpvhPedr9bbvZZrtHy7ut4D9v64q0WF9QGJHUQvSwMV
7VvjwVLmQxUQHwH1B9nmBMFlv8gcv3x5j0cLEj0/aL0ztL6GUHmu2TeXpLBad4WV
SczLHHja7da8H31/tfrBx6ylNi2x9UbmFQOr7Y1tQrpqDjXQbeKrv/QBNbYedty5
mg==
-----END CERTIFICATE-----
