Certificate:
    Data:
        Version: 3 (0x2)
        Serial Number:
            64:e7:d4:99:57:64:5e:cb:f4:62:50:f5:e2:03:f7:88
        Signature Algorithm: sha256WithRSAEncryption
        Issuer: CN=team294-net
        Validity
            Not Before: May 18 19:55:57 2022 GMT
            Not After : May  2 19:55:57 2025 GMT
        Subject: CN=team294-client
        Subject Public Key Info:
            Public Key Algorithm: rsaEncryption
                RSA Public-Key: (2048 bit)
                Modulus:
                    00:cd:f1:c4:a0:fc:8e:35:fe:cb:ba:3e:22:ef:b4:
                    61:9a:83:7d:af:7f:f7:8e:b2:89:cf:b6:38:69:de:
                    47:e9:36:ef:88:fe:be:20:3d:8e:b1:9f:2c:6b:e9:
                    3c:03:08:94:1c:ee:f9:09:85:e8:8c:4c:67:c4:a6:
                    6b:5b:de:71:7d:60:18:ed:40:f0:99:52:5b:d3:e1:
                    3c:e5:d7:92:08:b1:54:f9:d5:87:f1:bf:ff:e8:9a:
                    ed:54:a6:d1:08:d7:e9:47:0b:33:85:1b:86:b9:4b:
                    b3:e7:8f:37:7c:5d:b6:b5:96:be:2c:db:91:7e:d6:
                    c4:72:3e:e9:58:7b:91:89:56:81:93:35:95:c6:e3:
                    1e:f1:fa:37:48:ce:c5:54:c0:dd:32:67:92:65:76:
                    f4:8d:e8:f8:b8:6c:b3:55:40:10:bb:f2:6f:1f:ee:
                    fd:74:10:9d:f3:d1:f7:ae:6f:79:9a:a4:c6:6e:00:
                    42:4a:f4:09:a1:8f:87:b4:94:a2:ab:3b:86:2c:35:
                    95:a6:6e:1f:53:69:63:b5:ac:8f:85:ab:25:72:5c:
                    89:be:81:c4:91:ad:b5:22:b1:5d:7f:11:bc:35:27:
                    9b:04:60:6e:20:30:65:f7:39:4e:ef:c0:c3:a2:43:
                    12:fd:53:8a:6c:1f:07:84:41:d0:34:5e:ab:6f:67:
                    98:79
                Exponent: 65537 (0x10001)
        X509v3 extensions:
            X509v3 Basic Constraints: 
                CA:FALSE
            X509v3 Subject Key Identifier: 
                CE:97:A6:20:8F:5C:66:68:F9:6F:04:9B:3C:7C:80:3D:81:BC:92:CD
            X509v3 Authority Key Identifier: 
                keyid:4C:D6:B3:D5:81:D5:32:55:AC:36:CA:83:E0:A7:6C:B2:7B:39:95:08
                DirName:/CN=team294-net
                serial:4C:92:B9:54:6A:83:BC:68:F3:BD:A8:A5:1C:26:B2:89:EA:57:B9:29

            X509v3 Extended Key Usage: 
                TLS Web Client Authentication
            X509v3 Key Usage: 
                Digital Signature
    Signature Algorithm: sha256WithRSAEncryption
         2e:b4:80:6b:7b:18:a9:2d:32:a1:93:71:0e:8d:fe:d8:f3:c6:
         38:0e:aa:fc:8b:60:f7:6d:c9:2d:c6:82:5b:88:b4:2e:b3:32:
         98:8c:d5:c9:70:e9:9f:40:90:d1:0a:d1:d5:2c:7c:86:32:0a:
         25:5c:f8:11:68:cb:4c:5d:81:7b:63:3f:da:2b:64:7f:ec:81:
         4d:d1:f6:8a:0b:56:7c:ae:20:ff:7a:d2:a4:f9:cb:35:78:17:
         61:a3:1b:f9:da:92:23:21:cd:f0:55:a0:4a:d3:40:00:1f:41:
         49:e6:8f:7b:48:9d:d1:4b:d5:1d:41:61:2a:0e:5e:e5:0d:08:
         3f:e2:0b:cd:4d:57:b4:e3:bf:5d:77:56:15:4d:de:a7:2c:ed:
         d1:c9:30:af:66:04:cf:42:c9:2a:ea:a3:5d:9e:b7:aa:6a:4a:
         05:3d:70:96:05:03:9d:f0:1b:44:5e:ff:00:31:16:83:a8:21:
         03:f9:3a:a1:ad:c1:ae:3a:74:14:5c:8f:09:e5:c8:eb:e0:22:
         1b:e6:6e:94:7e:7a:3d:e9:58:ae:f7:d9:a8:8e:3f:9a:40:d3:
         d8:38:2a:62:d1:0b:e1:a1:3c:19:db:c6:e3:6d:66:2e:bd:29:
         2d:23:aa:c4:43:31:01:d5:40:28:ea:b0:09:8a:af:7d:88:35:
         38:26:f2:64
-----BEGIN CERTIFICATE-----
MIIDXDCCAkSgAwIBAgIQZOfUmVdkXsv0YlD14gP3iDANBgkqhkiG9w0BAQsFADAW
MRQwEgYDVQQDDAt0ZWFtMjk0LW5ldDAeFw0yMjA1MTgxOTU1NTdaFw0yNTA1MDIx
OTU1NTdaMBkxFzAVBgNVBAMMDnRlYW0yOTQtY2xpZW50MIIBIjANBgkqhkiG9w0B
AQEFAAOCAQ8AMIIBCgKCAQEAzfHEoPyONf7Luj4i77RhmoN9r3/3jrKJz7Y4ad5H
6TbviP6+ID2OsZ8sa+k8AwiUHO75CYXojExnxKZrW95xfWAY7UDwmVJb0+E85deS
CLFU+dWH8b//6JrtVKbRCNfpRwszhRuGuUuz5483fF22tZa+LNuRftbEcj7pWHuR
iVaBkzWVxuMe8fo3SM7FVMDdMmeSZXb0jej4uGyzVUAQu/JvH+79dBCd89H3rm95
mqTGbgBCSvQJoY+HtJSiqzuGLDWVpm4fU2ljtayPhaslclyJvoHEka21IrFdfxG8
NSebBGBuIDBl9zlO78DDokMS/VOKbB8HhEHQNF6rb2eYeQIDAQABo4GiMIGfMAkG
A1UdEwQCMAAwHQYDVR0OBBYEFM6XpiCPXGZo+W8Emzx8gD2BvJLNMFEGA1UdIwRK
MEiAFEzWs9WB1TJVrDbKg+CnbLJ7OZUIoRqkGDAWMRQwEgYDVQQDDAt0ZWFtMjk0
LW5ldIIUTJK5VGqDvGjzvailHCayiepXuSkwEwYDVR0lBAwwCgYIKwYBBQUHAwIw
CwYDVR0PBAQDAgeAMA0GCSqGSIb3DQEBCwUAA4IBAQAutIBrexipLTKhk3EOjf7Y
88Y4Dqr8i2D3bcktxoJbiLQuszKYjNXJcOmfQJDRCtHVLHyGMgolXPgRaMtMXYF7
Yz/aK2R/7IFN0faKC1Z8riD/etKk+cs1eBdhoxv52pIjIc3wVaBK00AAH0FJ5o97
SJ3RS9UdQWEqDl7lDQg/4gvNTVe0479dd1YVTd6nLO3RyTCvZgTPQskq6qNdnreq
akoFPXCWBQOd8BtEXv8AMRaDqCED+TqhrcGuOnQUXI8J5cjr4CIb5m6Ufno96Viu
99mojj+aQNPYOCpi0QvhoTwZ28bjbWYuvSktI6rEQzEB1UAo6rAJiq99iDU4JvJk
-----END CERTIFICATE-----
