Certificate:
    Data:
        Version: 3 (0x2)
        Serial Number:
            63:db:f8:28:80:30:72:c1:1e:34:69:4a:ea:ad:17:4c
        Signature Algorithm: sha256WithRSAEncryption
        Issuer: CN=team26-net
        Validity
            Not Before: May 18 14:10:07 2022 GMT
            Not After : May  2 14:10:07 2025 GMT
        Subject: CN=team26-server
        Subject Public Key Info:
            Public Key Algorithm: rsaEncryption
                RSA Public-Key: (2048 bit)
                Modulus:
                    00:eb:16:d1:09:27:20:dc:9e:00:20:fb:19:8d:4a:
                    84:95:6e:6a:52:0e:06:88:b5:7e:5b:24:3a:f1:87:
                    67:de:d0:b9:a1:6f:bb:09:04:e5:6c:b0:51:74:19:
                    a6:08:76:36:2e:cc:b2:fe:4b:e7:00:06:76:ea:1b:
                    a0:4b:fc:94:d8:93:a5:2a:3f:5b:14:fb:5c:10:b3:
                    52:1b:9e:27:de:cd:c8:17:75:3a:2f:78:1d:b0:e2:
                    e0:32:e1:1e:e4:2a:62:89:2a:b9:1e:e1:81:a0:88:
                    3b:12:a8:7a:4c:84:b3:5f:33:2e:91:8b:2d:bb:4d:
                    c4:ef:09:ad:de:a1:8a:13:19:61:1a:10:aa:c7:85:
                    9f:22:fe:e3:e8:e0:1e:2b:35:42:ac:59:da:96:00:
                    f2:42:eb:83:97:da:b7:2c:ad:e9:25:d1:ce:c6:af:
                    f8:ee:29:4e:23:79:73:b6:97:8b:8c:ad:99:f8:6d:
                    b6:5d:36:3c:00:d6:e5:e9:c4:75:50:39:fd:36:b7:
                    44:18:27:7b:fb:9e:4c:ae:66:c6:73:93:44:08:8b:
                    13:f4:66:08:bc:1f:99:d4:2c:2c:4c:65:0a:9a:3c:
                    a2:d7:04:25:06:a0:bf:fa:40:30:09:48:63:fc:b4:
                    77:09:da:27:71:71:e9:e1:a0:e2:13:07:82:92:64:
                    67:35
                Exponent: 65537 (0x10001)
        X509v3 extensions:
            X509v3 Basic Constraints: 
                CA:FALSE
            X509v3 Subject Key Identifier: 
                B3:38:10:1F:6B:61:05:10:DB:25:EA:56:7B:4E:8A:0F:1A:AA:D5:E8
            X509v3 Authority Key Identifier: 
                keyid:96:41:4A:7E:A1:A2:B9:10:73:65:3C:79:8B:60:BE:2B:11:D9:D6:57
                DirName:/CN=team26-net
                serial:65:FF:94:D7:D8:7C:66:DA:E8:A2:3C:5E:97:C5:98:F7:9B:20:64:BA

            X509v3 Extended Key Usage: 
                TLS Web Server Authentication
            X509v3 Key Usage: 
                Digital Signature, Key Encipherment
            X509v3 Subject Alternative Name: 
                DNS:team26-server
    Signature Algorithm: sha256WithRSAEncryption
         8a:67:60:b3:c0:d8:2e:57:3e:8b:43:ac:42:61:d5:bf:17:94:
         17:bb:02:77:c5:b5:bc:88:59:b9:e9:b9:bf:e8:0a:67:c5:24:
         5d:0b:00:59:03:aa:a7:12:dc:56:8c:95:e9:c1:1c:6e:ad:8d:
         64:86:88:70:c3:4e:8a:56:33:7e:41:6b:44:ec:da:5c:90:25:
         80:5f:f6:ab:21:d6:a2:2c:cb:19:b8:24:df:af:06:09:d1:b1:
         a5:bf:c2:82:42:c4:e3:d6:4e:22:e7:ac:ab:3c:82:ac:d3:bd:
         0e:f3:e5:77:67:43:5d:0f:0b:08:17:bc:e2:02:dc:2b:bd:5f:
         88:7e:5f:e2:33:6b:55:30:d2:89:61:25:83:4e:9f:47:54:f6:
         e2:f9:dd:0e:b9:1b:95:93:8f:a3:19:fa:cc:10:ae:d6:75:66:
         cb:54:ee:c7:34:3b:62:98:4d:22:01:41:d5:e3:45:bf:fc:2b:
         d8:f4:fd:23:b3:aa:6c:e7:73:8c:9d:1a:cb:d0:d3:92:c9:4a:
         ff:d7:90:1d:84:9b:d2:8b:52:ad:0c:ab:cc:52:cd:a8:86:9a:
         cd:8a:2c:f2:f0:d0:a0:e0:ec:bd:a8:c6:05:67:52:61:0f:c6:
         17:ee:9a:4a:30:49:fc:05:19:0f:f3:ca:6f:10:fa:20:e7:da:
         87:40:58:a5
-----BEGIN CERTIFICATE-----
MIIDczCCAlugAwIBAgIQY9v4KIAwcsEeNGlK6q0XTDANBgkqhkiG9w0BAQsFADAV
MRMwEQYDVQQDDAp0ZWFtMjYtbmV0MB4XDTIyMDUxODE0MTAwN1oXDTI1MDUwMjE0
MTAwN1owGDEWMBQGA1UEAwwNdGVhbTI2LXNlcnZlcjCCASIwDQYJKoZIhvcNAQEB
BQADggEPADCCAQoCggEBAOsW0QknINyeACD7GY1KhJVualIOBoi1flskOvGHZ97Q
uaFvuwkE5WywUXQZpgh2Ni7Msv5L5wAGduoboEv8lNiTpSo/WxT7XBCzUhueJ97N
yBd1Oi94HbDi4DLhHuQqYokquR7hgaCIOxKoekyEs18zLpGLLbtNxO8Jrd6hihMZ
YRoQqseFnyL+4+jgHis1QqxZ2pYA8kLrg5fatyyt6SXRzsav+O4pTiN5c7aXi4yt
mfhttl02PADW5enEdVA5/Ta3RBgne/ueTK5mxnOTRAiLE/RmCLwfmdQsLExlCpo8
otcEJQagv/pAMAlIY/y0dwnaJ3Fx6eGg4hMHgpJkZzUCAwEAAaOBuzCBuDAJBgNV
HRMEAjAAMB0GA1UdDgQWBBSzOBAfa2EFENsl6lZ7TooPGqrV6DBQBgNVHSMESTBH
gBSWQUp+oaK5EHNlPHmLYL4rEdnWV6EZpBcwFTETMBEGA1UEAwwKdGVhbTI2LW5l
dIIUZf+U19h8Ztroojxel8WY95sgZLowEwYDVR0lBAwwCgYIKwYBBQUHAwEwCwYD
VR0PBAQDAgWgMBgGA1UdEQQRMA+CDXRlYW0yNi1zZXJ2ZXIwDQYJKoZIhvcNAQEL
BQADggEBAIpnYLPA2C5XPotDrEJh1b8XlBe7AnfFtbyIWbnpub/oCmfFJF0LAFkD
qqcS3FaMlenBHG6tjWSGiHDDTopWM35Ba0Ts2lyQJYBf9qsh1qIsyxm4JN+vBgnR
saW/woJCxOPWTiLnrKs8gqzTvQ7z5XdnQ10PCwgXvOIC3Cu9X4h+X+Iza1Uw0olh
JYNOn0dU9uL53Q65G5WTj6MZ+swQrtZ1ZstU7sc0O2KYTSIBQdXjRb/8K9j0/SOz
qmznc4ydGsvQ05LJSv/XkB2Em9KLUq0Mq8xSzaiGms2KLPLw0KDg7L2oxgVnUmEP
xhfumkowSfwFGQ/zym8Q+iDn2odAWKU=
-----END CERTIFICATE-----
