Certificate:
    Data:
        Version: 3 (0x2)
        Serial Number:
            e4:8c:24:bf:a4:e4:c6:48:7a:8d:8a:81:cb:6a:c7:15
        Signature Algorithm: sha256WithRSAEncryption
        Issuer: CN=team104-net
        Validity
            Not Before: May 18 14:51:33 2022 GMT
            Not After : May  2 14:51:33 2025 GMT
        Subject: CN=team104-client
        Subject Public Key Info:
            Public Key Algorithm: rsaEncryption
                RSA Public-Key: (2048 bit)
                Modulus:
                    00:ae:f8:d5:15:30:f5:81:a2:cf:c1:a3:5f:be:ac:
                    70:3c:ec:f5:a8:19:77:90:37:bf:02:f2:51:ca:da:
                    eb:fe:e8:81:c9:7a:28:74:c2:27:37:cc:df:fc:39:
                    25:c3:43:1d:72:98:af:7b:75:13:bd:19:79:42:8d:
                    3d:ae:d2:a4:a7:37:5a:88:59:f7:ba:97:8b:49:4b:
                    e9:34:c0:31:ab:94:0f:69:86:bb:9c:9c:11:33:3d:
                    45:dc:e8:51:c6:e3:0c:3c:f1:5e:26:9b:1a:53:37:
                    0b:c8:5f:ee:ee:f0:5a:26:73:9e:4e:d6:23:f8:45:
                    1e:2c:2d:25:9d:11:60:50:5d:f5:bb:cb:d3:38:e6:
                    58:cb:74:00:46:d6:69:62:8c:fb:e0:01:0d:0d:0b:
                    d8:18:f8:0e:f0:92:8b:de:f2:8f:95:32:d3:38:bc:
                    0b:db:b4:69:ee:f5:78:5e:e0:dd:17:1c:53:5b:43:
                    7a:2f:98:00:57:7f:26:e0:d3:b6:24:79:f2:64:92:
                    e8:5f:c2:7d:fd:07:ef:92:2b:c8:78:cc:c8:6d:72:
                    ef:cf:fe:29:9e:af:91:4b:f5:d7:5a:a3:87:72:7a:
                    59:64:6c:73:3c:d6:c4:c4:75:9a:08:2e:28:25:ec:
                    04:20:0d:cc:28:de:85:b5:3b:a4:23:65:b3:2e:a5:
                    57:f3
                Exponent: 65537 (0x10001)
        X509v3 extensions:
            X509v3 Basic Constraints: 
                CA:FALSE
            X509v3 Subject Key Identifier: 
                C0:4C:52:27:A8:25:E1:65:46:89:F0:98:4F:2A:B0:2B:A3:DD:66:C7
            X509v3 Authority Key Identifier: 
                keyid:AA:D1:86:8A:01:E3:91:23:09:91:55:EE:16:7F:BE:3B:C8:E4:A8:1C
                DirName:/CN=team104-net
                serial:4C:11:5A:0C:35:AD:00:38:4B:7A:FD:7F:D1:12:5F:F4:E3:B1:70:B2

            X509v3 Extended Key Usage: 
                TLS Web Client Authentication
            X509v3 Key Usage: 
                Digital Signature
    Signature Algorithm: sha256WithRSAEncryption
         80:c7:cb:38:40:95:bd:4a:b3:8d:86:5b:33:90:71:b6:57:6f:
         0e:52:3e:49:68:f1:c6:d4:f2:58:83:ba:ff:bb:0f:a6:54:c2:
         bd:d9:b5:5e:c6:b0:d0:35:69:a1:07:52:00:fd:2a:e8:b1:67:
         dc:69:d5:fd:b2:8f:f6:bd:8e:d6:56:c9:d6:89:90:f9:2b:d4:
         01:d6:05:66:2d:65:79:c0:1b:63:46:f3:01:dc:4f:d1:70:52:
         5d:27:19:30:b3:33:74:16:bd:a5:ee:08:6d:a0:10:cf:86:86:
         70:09:e9:f4:04:ee:f4:54:59:39:b8:51:da:70:1e:59:24:29:
         ca:51:cf:c4:22:35:9f:fb:c5:ea:0f:3f:29:0b:3c:37:3a:2f:
         b8:7b:2f:21:32:34:f2:96:84:90:14:53:e9:91:b9:a1:b4:05:
         6e:72:a6:2f:1d:a3:b1:68:c6:db:ab:9e:b1:24:17:e1:ba:b0:
         73:88:5a:46:fb:8c:9f:c7:77:2f:8e:f5:f7:a7:97:4f:eb:15:
         52:1e:80:6f:d3:82:3d:ad:4a:3b:04:a2:3b:7e:70:a3:05:7e:
         32:56:5f:6b:a1:7c:83:e1:7b:6d:9b:2f:c4:8f:65:ff:2a:52:
         19:0c:70:a9:33:5f:12:84:2a:3f:ae:ad:69:08:37:42:37:6a:
         db:56:ce:3f
-----BEGIN CERTIFICATE-----
MIIDXTCCAkWgAwIBAgIRAOSMJL+k5MZIeo2KgctqxxUwDQYJKoZIhvcNAQELBQAw
FjEUMBIGA1UEAwwLdGVhbTEwNC1uZXQwHhcNMjIwNTE4MTQ1MTMzWhcNMjUwNTAy
MTQ1MTMzWjAZMRcwFQYDVQQDDA50ZWFtMTA0LWNsaWVudDCCASIwDQYJKoZIhvcN
AQEBBQADggEPADCCAQoCggEBAK741RUw9YGiz8GjX76scDzs9agZd5A3vwLyUcra
6/7ogcl6KHTCJzfM3/w5JcNDHXKYr3t1E70ZeUKNPa7SpKc3WohZ97qXi0lL6TTA
MauUD2mGu5ycETM9RdzoUcbjDDzxXiabGlM3C8hf7u7wWiZznk7WI/hFHiwtJZ0R
YFBd9bvL0zjmWMt0AEbWaWKM++ABDQ0L2Bj4DvCSi97yj5Uy0zi8C9u0ae71eF7g
3RccU1tDei+YAFd/JuDTtiR58mSS6F/Cff0H75IryHjMyG1y78/+KZ6vkUv111qj
h3J6WWRsczzWxMR1mgguKCXsBCANzCjehbU7pCNlsy6lV/MCAwEAAaOBojCBnzAJ
BgNVHRMEAjAAMB0GA1UdDgQWBBTATFInqCXhZUaJ8JhPKrAro91mxzBRBgNVHSME
SjBIgBSq0YaKAeORIwmRVe4Wf747yOSoHKEapBgwFjEUMBIGA1UEAwwLdGVhbTEw
NC1uZXSCFEwRWgw1rQA4S3r9f9ESX/TjsXCyMBMGA1UdJQQMMAoGCCsGAQUFBwMC
MAsGA1UdDwQEAwIHgDANBgkqhkiG9w0BAQsFAAOCAQEAgMfLOECVvUqzjYZbM5Bx
tldvDlI+SWjxxtTyWIO6/7sPplTCvdm1Xsaw0DVpoQdSAP0q6LFn3GnV/bKP9r2O
1lbJ1omQ+SvUAdYFZi1lecAbY0bzAdxP0XBSXScZMLMzdBa9pe4IbaAQz4aGcAnp
9ATu9FRZObhR2nAeWSQpylHPxCI1n/vF6g8/KQs8NzovuHsvITI08paEkBRT6ZG5
obQFbnKmLx2jsWjG26uesSQX4bqwc4haRvuMn8d3L47196eXT+sVUh6Ab9OCPa1K
OwSiO35wowV+MlZfa6F8g+F7bZsvxI9l/ypSGQxwqTNfEoQqP66taQg3Qjdq21bO
Pw==
-----END CERTIFICATE-----
