Certificate:
    Data:
        Version: 3 (0x2)
        Serial Number:
            5b:25:94:24:fb:11:27:4f:0d:04:56:9a:a9:4f:c6:53
        Signature Algorithm: sha256WithRSAEncryption
        Issuer: CN=team549-net
        Validity
            Not Before: May 18 22:17:27 2022 GMT
            Not After : May  2 22:17:27 2025 GMT
        Subject: CN=team549-server
        Subject Public Key Info:
            Public Key Algorithm: rsaEncryption
                RSA Public-Key: (2048 bit)
                Modulus:
                    00:b1:cf:d5:24:6c:7f:97:4c:6f:21:bb:d8:df:ea:
                    61:21:ce:11:08:0f:6c:ed:1f:34:da:65:c6:90:39:
                    b4:f1:70:5f:d2:0d:fb:52:73:e0:01:3c:57:63:28:
                    1d:bf:e5:93:f3:ea:b5:0f:f4:c8:e8:8a:5a:4e:82:
                    31:7b:ac:79:36:78:31:a2:90:11:a3:15:3c:f1:22:
                    cd:c1:8b:20:f5:0d:45:f7:cd:40:b5:13:51:f2:2b:
                    17:a5:42:b2:b5:40:a3:f0:6e:26:fe:9e:08:c4:ba:
                    ba:f5:84:41:31:ed:9b:7d:e3:0f:08:b5:d2:c4:6d:
                    50:24:bb:bb:7c:83:bc:4e:92:c6:40:cb:a1:e2:8e:
                    e7:96:78:95:f6:cd:9e:f4:78:11:3a:5b:59:8a:d3:
                    c5:65:31:69:4e:f3:1d:fe:cb:4c:70:5d:5a:ac:b8:
                    25:40:6b:99:0a:68:fb:f3:a4:be:d7:1e:36:02:26:
                    5f:66:ac:08:76:2f:aa:4f:9b:02:74:38:a5:4d:07:
                    70:63:81:20:b1:cb:40:86:61:ac:c6:41:01:1c:e1:
                    2a:e5:99:af:ad:2d:05:c8:5e:0c:84:45:fd:c4:e0:
                    21:d2:26:83:1e:3d:6a:b2:2f:a5:99:de:50:61:7f:
                    27:17:5b:e4:1a:97:e7:cb:44:2f:3f:d6:6d:bd:f2:
                    c4:dd
                Exponent: 65537 (0x10001)
        X509v3 extensions:
            X509v3 Basic Constraints: 
                CA:FALSE
            X509v3 Subject Key Identifier: 
                3C:FF:8C:D0:37:27:E5:E1:57:1F:41:76:E2:97:27:16:DE:A9:11:D6
            X509v3 Authority Key Identifier: 
                keyid:C6:B1:D0:D5:F3:52:40:A8:87:4C:4B:96:64:05:EE:89:75:A3:B1:6F
                DirName:/CN=team549-net
                serial:59:59:DD:8A:03:45:0A:C2:A3:EE:8F:D3:6F:52:A8:E6:B9:05:43:B5

            X509v3 Extended Key Usage: 
                TLS Web Server Authentication
            X509v3 Key Usage: 
                Digital Signature, Key Encipherment
            X509v3 Subject Alternative Name: 
                DNS:team549-server
    Signature Algorithm: sha256WithRSAEncryption
         05:7c:d4:76:cd:e2:e0:6c:35:39:cc:f5:c6:26:f0:cb:55:70:
         2d:e1:6f:2d:fe:bf:67:8b:f7:81:87:d1:f6:52:22:c8:5c:61:
         e8:38:f3:04:ff:9e:93:43:9a:87:18:69:68:82:97:fa:95:5e:
         54:ac:90:69:1b:d9:6b:1c:53:f1:fc:14:ac:01:e5:fc:39:80:
         5b:8c:d8:23:0a:16:e3:58:3b:94:02:50:12:ce:6c:b1:e6:1d:
         32:92:9a:f1:e4:09:60:72:f7:af:8d:5e:af:ba:3e:60:c1:04:
         b3:dd:3e:64:e8:88:9f:ed:57:73:7d:16:e6:53:e3:6c:df:2e:
         93:69:58:b9:63:1d:e7:e5:ca:e8:a8:13:68:c6:fe:be:1c:32:
         6c:91:70:9b:f5:4c:f7:17:93:7f:9e:36:3f:01:8b:c1:dd:51:
         ce:4d:69:e5:a7:f4:65:a5:d3:5c:88:38:b4:46:12:da:ce:2e:
         f9:8b:2e:92:3c:c3:17:de:40:c5:bd:30:a7:d3:df:55:aa:f3:
         6a:d7:58:d3:09:bd:b7:29:46:09:c0:be:43:a5:d3:2f:ce:e3:
         9d:2b:7b:39:35:91:4f:3d:36:41:f5:80:9d:82:b3:3b:d7:c3:
         2c:93:18:a4:61:f4:1a:18:6d:f8:e9:65:f8:84:6b:95:5b:af:
         a5:85:2b:97
-----BEGIN CERTIFICATE-----
MIIDdzCCAl+gAwIBAgIQWyWUJPsRJ08NBFaaqU/GUzANBgkqhkiG9w0BAQsFADAW
MRQwEgYDVQQDDAt0ZWFtNTQ5LW5ldDAeFw0yMjA1MTgyMjE3MjdaFw0yNTA1MDIy
MjE3MjdaMBkxFzAVBgNVBAMMDnRlYW01NDktc2VydmVyMIIBIjANBgkqhkiG9w0B
AQEFAAOCAQ8AMIIBCgKCAQEAsc/VJGx/l0xvIbvY3+phIc4RCA9s7R802mXGkDm0
8XBf0g37UnPgATxXYygdv+WT8+q1D/TI6IpaToIxe6x5NngxopARoxU88SLNwYsg
9Q1F981AtRNR8isXpUKytUCj8G4m/p4IxLq69YRBMe2bfeMPCLXSxG1QJLu7fIO8
TpLGQMuh4o7nlniV9s2e9HgROltZitPFZTFpTvMd/stMcF1arLglQGuZCmj786S+
1x42AiZfZqwIdi+qT5sCdDilTQdwY4EgsctAhmGsxkEBHOEq5ZmvrS0FyF4MhEX9
xOAh0iaDHj1qsi+lmd5QYX8nF1vkGpfny0QvP9ZtvfLE3QIDAQABo4G9MIG6MAkG
A1UdEwQCMAAwHQYDVR0OBBYEFDz/jNA3J+XhVx9BduKXJxbeqRHWMFEGA1UdIwRK
MEiAFMax0NXzUkCoh0xLlmQF7ol1o7FvoRqkGDAWMRQwEgYDVQQDDAt0ZWFtNTQ5
LW5ldIIUWVndigNFCsKj7o/Tb1Ko5rkFQ7UwEwYDVR0lBAwwCgYIKwYBBQUHAwEw
CwYDVR0PBAQDAgWgMBkGA1UdEQQSMBCCDnRlYW01NDktc2VydmVyMA0GCSqGSIb3
DQEBCwUAA4IBAQAFfNR2zeLgbDU5zPXGJvDLVXAt4W8t/r9ni/eBh9H2UiLIXGHo
OPME/56TQ5qHGGlogpf6lV5UrJBpG9lrHFPx/BSsAeX8OYBbjNgjChbjWDuUAlAS
zmyx5h0ykprx5AlgcvevjV6vuj5gwQSz3T5k6Iif7VdzfRbmU+Ns3y6TaVi5Yx3n
5croqBNoxv6+HDJskXCb9Uz3F5N/njY/AYvB3VHOTWnlp/RlpdNciDi0RhLazi75
iy6SPMMX3kDFvTCn099VqvNq11jTCb23KUYJwL5DpdMvzuOdK3s5NZFPPTZB9YCd
grM718MskxikYfQaGG346WX4hGuVW6+lhSuX
-----END CERTIFICATE-----
