Certificate:
    Data:
        Version: 3 (0x2)
        Serial Number:
            a7:e5:06:24:3a:00:fb:fd:33:2b:c5:70:f1:03:e9:e7
        Signature Algorithm: sha256WithRSAEncryption
        Issuer: CN=team261-net
        Validity
            Not Before: May 18 19:43:49 2022 GMT
            Not After : May  2 19:43:49 2025 GMT
        Subject: CN=team261-server
        Subject Public Key Info:
            Public Key Algorithm: rsaEncryption
                RSA Public-Key: (2048 bit)
                Modulus:
                    00:bc:e4:c9:e1:7a:1d:b1:39:11:61:64:7c:3b:f7:
                    7b:01:8c:ac:e2:c5:c3:67:aa:6c:5b:54:a6:6d:4a:
                    d6:d5:0d:8b:af:1b:30:0d:a3:58:a6:9e:d7:ad:56:
                    ca:e3:e7:bc:61:49:75:bd:6a:68:95:45:56:90:b0:
                    75:ef:bf:97:82:43:87:67:e1:6b:4f:31:c4:80:b5:
                    61:73:de:a9:dd:3c:31:57:9a:57:f3:42:f5:c0:24:
                    56:84:03:d2:ee:69:be:b0:3c:13:fa:45:7d:f8:48:
                    d4:4d:bd:57:56:f6:08:e5:f1:d9:e7:4a:0e:9f:46:
                    7c:a3:89:ac:51:20:0c:dd:4f:72:92:31:60:ae:a7:
                    87:69:cf:03:1a:0d:6a:55:c4:5e:fd:78:3e:57:5d:
                    6f:5c:1e:f6:63:28:cd:11:e8:d5:19:49:c0:86:fd:
                    a9:57:e2:ce:47:c2:3f:db:f4:f8:b6:2b:a4:ce:7e:
                    24:3f:56:cc:8a:ca:bd:00:46:42:d6:e3:93:29:a1:
                    ad:db:47:6d:7c:b5:fa:6c:a0:d9:35:cf:c1:b5:f8:
                    95:f1:2d:c5:54:c3:a3:2b:f3:85:85:8a:3e:9c:72:
                    cd:e0:5d:4c:42:51:5f:0a:d1:25:69:aa:be:6b:74:
                    44:af:96:16:29:14:c3:c2:70:5f:fa:36:81:4f:0f:
                    8a:a7
                Exponent: 65537 (0x10001)
        X509v3 extensions:
            X509v3 Basic Constraints: 
                CA:FALSE
            X509v3 Subject Key Identifier: 
                4D:02:8C:30:14:7D:BD:30:CB:30:62:82:2B:44:5E:AA:E6:95:FA:4C
            X509v3 Authority Key Identifier: 
                keyid:DD:E0:8A:A2:88:8E:FE:94:43:B4:A9:B2:24:B9:39:45:C0:1D:4F:19
                DirName:/CN=team261-net
                serial:26:48:CF:DA:87:52:BF:F3:DA:05:2E:AB:94:0A:94:9A:26:61:A0:0A

            X509v3 Extended Key Usage: 
                TLS Web Server Authentication
            X509v3 Key Usage: 
                Digital Signature, Key Encipherment
            X509v3 Subject Alternative Name: 
                DNS:team261-server
    Signature Algorithm: sha256WithRSAEncryption
         5c:ba:e1:13:84:ce:ef:7e:3d:b8:c1:8c:da:87:42:de:6b:7a:
         3b:ce:b3:b8:e2:6c:18:23:46:90:3b:b2:10:81:21:b5:18:d6:
         02:30:7a:40:c2:3c:38:9f:ed:ba:29:ce:85:b4:fc:4f:a8:0f:
         9f:72:fc:2a:96:34:a2:f7:cb:1d:d7:b1:1e:37:2c:cb:e9:bf:
         5e:11:89:7f:6d:4f:1f:c7:b6:c6:1c:f5:e4:c5:32:9d:ce:f2:
         2d:7a:dc:71:9a:a6:3f:47:af:c2:6e:4b:fb:99:e8:84:10:5f:
         3d:32:3b:5c:d4:d4:14:87:57:f5:e8:1a:8c:6a:4b:c6:65:b9:
         af:d4:e6:c0:1e:ff:f8:eb:99:92:4f:5c:1a:f2:22:f0:24:8c:
         3a:15:1d:44:1a:74:a4:40:fd:b8:f8:82:c5:e9:f4:37:84:14:
         44:7a:1b:10:95:32:05:45:5b:aa:0b:e2:a8:b8:c8:2b:a1:3c:
         97:bb:dd:52:50:ff:c9:3c:11:71:8a:76:16:48:ca:f4:28:61:
         97:4d:99:ad:e9:f7:f2:50:18:74:70:53:65:64:8a:a0:b4:86:
         6c:9c:16:d3:8e:cc:12:6c:10:b3:97:da:0d:bb:e4:7d:2b:25:
         84:8a:d1:32:80:3c:76:30:2e:5b:9d:2f:d6:d8:bd:a8:27:64:
         f9:56:15:bc
-----BEGIN CERTIFICATE-----
MIIDeDCCAmCgAwIBAgIRAKflBiQ6APv9MyvFcPED6ecwDQYJKoZIhvcNAQELBQAw
FjEUMBIGA1UEAwwLdGVhbTI2MS1uZXQwHhcNMjIwNTE4MTk0MzQ5WhcNMjUwNTAy
MTk0MzQ5WjAZMRcwFQYDVQQDDA50ZWFtMjYxLXNlcnZlcjCCASIwDQYJKoZIhvcN
AQEBBQADggEPADCCAQoCggEBALzkyeF6HbE5EWFkfDv3ewGMrOLFw2eqbFtUpm1K
1tUNi68bMA2jWKae161WyuPnvGFJdb1qaJVFVpCwde+/l4JDh2fha08xxIC1YXPe
qd08MVeaV/NC9cAkVoQD0u5pvrA8E/pFffhI1E29V1b2COXx2edKDp9GfKOJrFEg
DN1PcpIxYK6nh2nPAxoNalXEXv14Plddb1we9mMozRHo1RlJwIb9qVfizkfCP9v0
+LYrpM5+JD9WzIrKvQBGQtbjkymhrdtHbXy1+myg2TXPwbX4lfEtxVTDoyvzhYWK
PpxyzeBdTEJRXwrRJWmqvmt0RK+WFikUw8JwX/o2gU8PiqcCAwEAAaOBvTCBujAJ
BgNVHRMEAjAAMB0GA1UdDgQWBBRNAowwFH29MMswYoIrRF6q5pX6TDBRBgNVHSME
SjBIgBTd4IqiiI7+lEO0qbIkuTlFwB1PGaEapBgwFjEUMBIGA1UEAwwLdGVhbTI2
MS1uZXSCFCZIz9qHUr/z2gUuq5QKlJomYaAKMBMGA1UdJQQMMAoGCCsGAQUFBwMB
MAsGA1UdDwQEAwIFoDAZBgNVHREEEjAQgg50ZWFtMjYxLXNlcnZlcjANBgkqhkiG
9w0BAQsFAAOCAQEAXLrhE4TO7349uMGM2odC3mt6O86zuOJsGCNGkDuyEIEhtRjW
AjB6QMI8OJ/tuinOhbT8T6gPn3L8KpY0ovfLHdexHjcsy+m/XhGJf21PH8e2xhz1
5MUync7yLXrccZqmP0evwm5L+5nohBBfPTI7XNTUFIdX9egajGpLxmW5r9TmwB7/
+OuZkk9cGvIi8CSMOhUdRBp0pED9uPiCxen0N4QURHobEJUyBUVbqgviqLjIK6E8
l7vdUlD/yTwRcYp2FkjK9Chhl02Zren38lAYdHBTZWSKoLSGbJwW047MEmwQs5fa
DbvkfSslhIrRMoA8djAuW50v1ti9qCdk+VYVvA==
-----END CERTIFICATE-----
