Certificate:
    Data:
        Version: 3 (0x2)
        Serial Number:
            42:20:05:a3:bc:18:86:b4:c0:a4:23:ca:fd:59:7b:c4
        Signature Algorithm: sha256WithRSAEncryption
        Issuer: CN=team166-net
        Validity
            Not Before: May 18 18:50:04 2022 GMT
            Not After : May  2 18:50:04 2025 GMT
        Subject: CN=team166-client
        Subject Public Key Info:
            Public Key Algorithm: rsaEncryption
                RSA Public-Key: (2048 bit)
                Modulus:
                    00:c6:d3:2f:bf:de:6e:6e:d8:1d:07:08:f9:56:af:
                    49:ea:28:aa:17:e5:2c:b7:f4:1d:d4:3e:49:93:fd:
                    c5:0a:17:36:dc:4e:6a:6e:bc:24:b1:c1:02:83:bd:
                    49:05:5d:ab:7e:df:19:ed:49:46:00:ad:46:a1:0a:
                    2c:6e:53:e7:ba:f2:c8:ff:38:13:47:e3:46:66:dc:
                    ea:7b:0d:03:c8:aa:c0:a6:58:2c:a5:aa:34:8f:28:
                    64:a5:a9:c7:59:cf:ac:05:e6:ed:1a:fa:56:38:4d:
                    f8:a6:f2:77:4e:79:bc:51:50:12:e3:d9:c7:ba:ae:
                    7a:c6:e6:19:de:db:38:d6:67:80:10:44:ba:53:b1:
                    2a:9a:74:f9:a5:cb:02:0f:96:80:86:c6:8c:a6:74:
                    17:ba:0e:1d:7a:15:2a:ea:e1:60:ad:3a:62:59:3a:
                    98:ed:b6:f2:3e:60:a6:df:eb:c2:45:4e:55:8a:09:
                    86:cf:fe:60:15:f3:1d:ca:c1:27:80:5e:e4:d6:cd:
                    2e:d3:9c:15:20:bc:b7:cd:3d:0f:33:d0:dd:9e:89:
                    64:18:3a:91:da:db:05:cc:c1:38:4a:3c:01:06:e3:
                    bf:14:ba:39:69:16:6e:ad:a6:e5:9a:3d:c1:13:ff:
                    25:2f:d0:dd:c3:f1:6b:94:a9:79:0d:78:0c:68:f1:
                    a5:57
                Exponent: 65537 (0x10001)
        X509v3 extensions:
            X509v3 Basic Constraints: 
                CA:FALSE
            X509v3 Subject Key Identifier: 
                53:96:2A:FC:67:84:2F:C9:62:EC:98:DB:77:EB:73:35:ED:3D:02:6C
            X509v3 Authority Key Identifier: 
                keyid:63:CC:B0:A9:54:C6:92:40:CA:7F:A3:C8:7B:55:AC:E5:4E:EE:94:0E
                DirName:/CN=team166-net
                serial:49:8E:AB:74:9D:13:8D:65:FD:3B:D1:E6:1D:0E:A1:BA:6F:56:03:FD

            X509v3 Extended Key Usage: 
                TLS Web Client Authentication
            X509v3 Key Usage: 
                Digital Signature
    Signature Algorithm: sha256WithRSAEncryption
         c7:63:a2:7b:86:22:6e:63:a4:96:e0:11:92:90:84:5b:27:24:
         22:ae:8c:bf:13:e2:b6:a3:bb:2d:46:32:2f:50:90:00:9c:8a:
         c3:2e:fa:e1:3a:4f:d1:5c:2d:5a:04:48:8f:c6:23:81:12:88:
         13:ca:ea:ba:0c:2e:ba:76:49:d8:6d:1b:a9:1f:d5:c7:b3:6f:
         6f:57:5e:84:a5:9d:74:4c:88:0d:56:05:33:76:d6:b5:fc:20:
         b2:c6:b5:60:96:d5:a0:8f:22:0f:b7:8b:e4:92:f9:50:72:b0:
         20:17:1c:d3:75:48:f2:ea:dd:7a:34:08:01:2c:b3:43:81:07:
         b6:94:88:5c:f4:09:47:7f:e8:d6:6a:57:92:4f:df:98:45:63:
         d0:64:ee:64:99:46:36:f1:bc:f1:23:80:5f:10:5b:46:0a:13:
         5c:a7:ec:7e:da:37:c4:18:be:cd:77:dd:7b:88:c6:1b:68:a6:
         af:bb:40:32:b5:1c:bc:b3:57:a7:0a:b5:5c:eb:e3:8d:43:44:
         e3:b4:e5:e9:47:fb:5e:64:52:9f:64:e0:44:cf:16:9a:0b:ad:
         f4:c6:73:c7:55:d8:77:d1:8d:b9:f9:6c:3e:bc:ec:62:85:fa:
         95:a0:ea:e0:ee:11:b0:2e:75:11:e9:6a:66:82:3b:d9:dc:01:
         ca:46:42:82
-----BEGIN CERTIFICATE-----
MIIDXDCCAkSgAwIBAgIQQiAFo7wYhrTApCPK/Vl7xDANBgkqhkiG9w0BAQsFADAW
MRQwEgYDVQQDDAt0ZWFtMTY2LW5ldDAeFw0yMjA1MTgxODUwMDRaFw0yNTA1MDIx
ODUwMDRaMBkxFzAVBgNVBAMMDnRlYW0xNjYtY2xpZW50MIIBIjANBgkqhkiG9w0B
AQEFAAOCAQ8AMIIBCgKCAQEAxtMvv95ubtgdBwj5Vq9J6iiqF+Ust/Qd1D5Jk/3F
Chc23E5qbrwkscECg71JBV2rft8Z7UlGAK1GoQosblPnuvLI/zgTR+NGZtzqew0D
yKrAplgspao0jyhkpanHWc+sBebtGvpWOE34pvJ3Tnm8UVAS49nHuq56xuYZ3ts4
1meAEES6U7EqmnT5pcsCD5aAhsaMpnQXug4dehUq6uFgrTpiWTqY7bbyPmCm3+vC
RU5VigmGz/5gFfMdysEngF7k1s0u05wVILy3zT0PM9DdnolkGDqR2tsFzME4SjwB
BuO/FLo5aRZurablmj3BE/8lL9Ddw/FrlKl5DXgMaPGlVwIDAQABo4GiMIGfMAkG
A1UdEwQCMAAwHQYDVR0OBBYEFFOWKvxnhC/JYuyY23frczXtPQJsMFEGA1UdIwRK
MEiAFGPMsKlUxpJAyn+jyHtVrOVO7pQOoRqkGDAWMRQwEgYDVQQDDAt0ZWFtMTY2
LW5ldIIUSY6rdJ0TjWX9O9HmHQ6hum9WA/0wEwYDVR0lBAwwCgYIKwYBBQUHAwIw
CwYDVR0PBAQDAgeAMA0GCSqGSIb3DQEBCwUAA4IBAQDHY6J7hiJuY6SW4BGSkIRb
JyQiroy/E+K2o7stRjIvUJAAnIrDLvrhOk/RXC1aBEiPxiOBEogTyuq6DC66dknY
bRupH9XHs29vV16EpZ10TIgNVgUzdta1/CCyxrVgltWgjyIPt4vkkvlQcrAgFxzT
dUjy6t16NAgBLLNDgQe2lIhc9AlHf+jWaleST9+YRWPQZO5kmUY28bzxI4BfEFtG
ChNcp+x+2jfEGL7Nd917iMYbaKavu0AytRy8s1enCrVc6+ONQ0TjtOXpR/teZFKf
ZOBEzxaaC630xnPHVdh30Y25+Ww+vOxihfqVoOrg7hGwLnUR6WpmgjvZ3AHKRkKC
-----END CERTIFICATE-----
