Certificate:
    Data:
        Version: 3 (0x2)
        Serial Number:
            3d:f8:82:32:a7:49:f9:e3:f1:18:8d:fb:b7:3c:34:66
        Signature Algorithm: sha256WithRSAEncryption
        Issuer: CN=team289-net
        Validity
            Not Before: May 18 19:54:11 2022 GMT
            Not After : May  2 19:54:11 2025 GMT
        Subject: CN=team289-server
        Subject Public Key Info:
            Public Key Algorithm: rsaEncryption
                RSA Public-Key: (2048 bit)
                Modulus:
                    00:af:6e:22:60:cd:bd:23:32:44:bc:1b:3f:ef:bc:
                    f0:2b:81:26:0d:9a:1d:62:6b:68:97:69:f4:ee:bc:
                    8f:91:b1:86:e5:64:49:2f:3b:43:cc:4f:b1:41:d6:
                    45:4c:cc:59:dd:a3:4f:be:1e:1c:0f:6a:19:51:95:
                    82:27:3f:2d:29:48:51:20:c1:fd:5f:84:da:8e:13:
                    6b:82:9a:bf:af:00:d8:00:63:e1:10:30:6c:0b:33:
                    11:03:b5:d2:3b:74:ac:a4:fe:f7:25:b1:11:48:df:
                    0c:56:8c:b9:de:ae:72:ef:9e:ca:86:45:52:3b:f6:
                    c1:60:63:6d:13:fc:fd:f5:31:27:59:db:3b:18:c4:
                    0c:bd:b7:e4:08:46:8e:0f:2c:3b:e2:b6:d1:cb:aa:
                    3a:18:be:b2:b3:3b:05:75:d6:cd:a3:ef:11:64:13:
                    fd:3e:f9:6b:a6:de:9b:c9:14:fb:b6:c0:e4:2c:40:
                    77:e5:dc:e8:e4:48:79:a6:f2:32:b7:51:68:22:a1:
                    50:3b:96:5d:ee:77:eb:a4:74:be:ba:f0:99:10:ad:
                    fa:d5:0e:40:b8:e3:96:3e:38:e2:24:7c:2d:82:56:
                    68:48:89:ef:f3:76:be:4c:81:c9:b5:58:fa:4c:8b:
                    62:f3:40:29:fa:0c:c3:87:ee:52:2b:85:63:e6:34:
                    97:07
                Exponent: 65537 (0x10001)
        X509v3 extensions:
            X509v3 Basic Constraints: 
                CA:FALSE
            X509v3 Subject Key Identifier: 
                15:8D:74:49:79:52:8E:45:60:F4:6B:24:6E:76:D6:5A:D4:3D:4E:DB
            X509v3 Authority Key Identifier: 
                keyid:CF:5C:5B:F3:0B:90:6A:21:AA:BB:CA:C2:3B:51:23:57:A8:E1:E1:FA
                DirName:/CN=team289-net
                serial:75:69:76:4F:EB:D3:A9:90:A2:25:6E:FE:8F:D5:17:91:47:1E:FE:F0

            X509v3 Extended Key Usage: 
                TLS Web Server Authentication
            X509v3 Key Usage: 
                Digital Signature, Key Encipherment
            X509v3 Subject Alternative Name: 
                DNS:team289-server
    Signature Algorithm: sha256WithRSAEncryption
         31:13:88:6d:a9:e0:c2:a5:b2:d9:ea:05:1b:7a:53:39:17:0f:
         b7:17:22:b1:54:e7:3e:7d:09:23:e5:db:a6:46:c8:bb:cd:6e:
         56:14:79:fb:cc:cd:ab:3d:1e:27:61:bf:d9:98:eb:24:4a:66:
         67:e2:c5:3b:4c:c4:d9:b0:86:10:4e:a9:10:33:2b:9a:5f:bf:
         4a:68:7a:38:29:f8:d5:6e:72:3b:f1:03:b6:11:5d:7e:a2:8d:
         3b:1d:02:0b:71:7a:99:fa:e9:4a:a4:df:64:e9:b4:39:44:14:
         23:c4:98:44:bf:c6:35:88:ff:6d:b7:de:ee:48:47:1d:4a:90:
         b0:fb:22:80:5a:50:74:e5:d9:a2:95:7b:5f:86:c4:bf:e0:1a:
         dd:97:c8:af:e0:51:f3:92:2d:25:95:73:96:99:00:16:77:06:
         18:e5:f1:f9:55:1f:07:23:be:c3:a7:4f:94:dd:19:06:67:6c:
         30:54:b7:13:2e:5a:13:db:f1:71:ee:d4:73:d2:40:5f:a3:a2:
         bc:02:f2:52:85:d7:85:23:2d:be:10:3b:77:70:3f:c3:c2:7f:
         2f:65:6a:1e:3d:91:72:1f:be:85:f1:4d:c6:67:af:ce:5e:b2:
         5a:f7:a6:89:06:48:b8:62:c1:b5:47:e9:0b:17:c5:68:f2:07:
         17:a9:f0:c2
-----BEGIN CERTIFICATE-----
MIIDdzCCAl+gAwIBAgIQPfiCMqdJ+ePxGI37tzw0ZjANBgkqhkiG9w0BAQsFADAW
MRQwEgYDVQQDDAt0ZWFtMjg5LW5ldDAeFw0yMjA1MTgxOTU0MTFaFw0yNTA1MDIx
OTU0MTFaMBkxFzAVBgNVBAMMDnRlYW0yODktc2VydmVyMIIBIjANBgkqhkiG9w0B
AQEFAAOCAQ8AMIIBCgKCAQEAr24iYM29IzJEvBs/77zwK4EmDZodYmtol2n07ryP
kbGG5WRJLztDzE+xQdZFTMxZ3aNPvh4cD2oZUZWCJz8tKUhRIMH9X4TajhNrgpq/
rwDYAGPhEDBsCzMRA7XSO3SspP73JbERSN8MVoy53q5y757KhkVSO/bBYGNtE/z9
9TEnWds7GMQMvbfkCEaODyw74rbRy6o6GL6yszsFddbNo+8RZBP9Pvlrpt6byRT7
tsDkLEB35dzo5Eh5pvIyt1FoIqFQO5Zd7nfrpHS+uvCZEK361Q5AuOOWPjjiJHwt
glZoSInv83a+TIHJtVj6TIti80Ap+gzDh+5SK4Vj5jSXBwIDAQABo4G9MIG6MAkG
A1UdEwQCMAAwHQYDVR0OBBYEFBWNdEl5Uo5FYPRrJG521lrUPU7bMFEGA1UdIwRK
MEiAFM9cW/MLkGohqrvKwjtRI1eo4eH6oRqkGDAWMRQwEgYDVQQDDAt0ZWFtMjg5
LW5ldIIUdWl2T+vTqZCiJW7+j9UXkUce/vAwEwYDVR0lBAwwCgYIKwYBBQUHAwEw
CwYDVR0PBAQDAgWgMBkGA1UdEQQSMBCCDnRlYW0yODktc2VydmVyMA0GCSqGSIb3
DQEBCwUAA4IBAQAxE4htqeDCpbLZ6gUbelM5Fw+3FyKxVOc+fQkj5dumRsi7zW5W
FHn7zM2rPR4nYb/ZmOskSmZn4sU7TMTZsIYQTqkQMyuaX79KaHo4KfjVbnI78QO2
EV1+oo07HQILcXqZ+ulKpN9k6bQ5RBQjxJhEv8Y1iP9tt97uSEcdSpCw+yKAWlB0
5dmilXtfhsS/4Brdl8iv4FHzki0llXOWmQAWdwYY5fH5VR8HI77Dp0+U3RkGZ2ww
VLcTLloT2/Fx7tRz0kBfo6K8AvJShdeFIy2+EDt3cD/Dwn8vZWoePZFyH76F8U3G
Z6/OXrJa96aJBki4YsG1R+kLF8Vo8gcXqfDC
-----END CERTIFICATE-----
