Certificate:
    Data:
        Version: 3 (0x2)
        Serial Number:
            9f:c8:26:28:d8:70:b6:8d:7e:18:c4:88:c3:f7:34:bd
        Signature Algorithm: sha256WithRSAEncryption
        Issuer: CN=team289-net
        Validity
            Not Before: May 18 19:54:10 2022 GMT
            Not After : May  2 19:54:10 2025 GMT
        Subject: CN=team289-client
        Subject Public Key Info:
            Public Key Algorithm: rsaEncryption
                RSA Public-Key: (2048 bit)
                Modulus:
                    00:e1:49:06:da:a7:4e:f5:f6:e1:65:2e:ca:60:c2:
                    a8:ba:d0:17:43:8b:d3:2e:65:b6:bf:48:a5:c8:59:
                    3f:4b:9f:1d:08:2d:1f:4f:88:f0:8b:9e:44:b7:0d:
                    a2:3b:bf:1e:dc:4f:ef:60:45:dc:43:5c:ec:83:58:
                    9b:0d:33:bc:ea:f1:c0:15:c6:85:38:99:34:52:11:
                    bc:35:d2:be:8b:a1:3f:86:5a:89:11:67:c4:c4:d2:
                    6a:b1:7e:5f:c8:11:b4:74:4e:18:b1:72:ee:8f:75:
                    a4:d1:1f:23:c4:80:89:46:13:72:df:d1:a3:f6:ec:
                    d3:1b:25:0d:0d:4e:d2:86:ca:84:cb:0c:7a:1d:bd:
                    d5:07:c7:c0:a2:c2:62:1b:0f:a5:98:6d:ce:c2:c2:
                    b6:b5:67:09:06:95:2d:2f:d4:83:9a:4f:c7:15:25:
                    a3:86:09:e0:9d:8a:77:7e:10:09:1d:bd:f3:ad:73:
                    be:69:94:80:98:b7:99:a0:97:2b:ea:0a:01:d3:7c:
                    8b:e5:e2:08:06:bf:83:75:33:7f:e7:0d:8c:dc:9f:
                    62:fa:c6:76:2d:fc:7a:dc:83:b1:86:c7:61:1c:ca:
                    0c:4d:72:a1:1f:bf:b7:01:d0:b9:13:16:a8:89:da:
                    b5:7f:78:39:46:4e:22:38:8e:94:9e:39:25:b2:29:
                    ab:27
                Exponent: 65537 (0x10001)
        X509v3 extensions:
            X509v3 Basic Constraints: 
                CA:FALSE
            X509v3 Subject Key Identifier: 
                6E:91:1E:D4:15:80:17:AD:FF:0F:41:0C:F2:F5:37:62:7F:31:8E:AC
            X509v3 Authority Key Identifier: 
                keyid:CF:5C:5B:F3:0B:90:6A:21:AA:BB:CA:C2:3B:51:23:57:A8:E1:E1:FA
                DirName:/CN=team289-net
                serial:75:69:76:4F:EB:D3:A9:90:A2:25:6E:FE:8F:D5:17:91:47:1E:FE:F0

            X509v3 Extended Key Usage: 
                TLS Web Client Authentication
            X509v3 Key Usage: 
                Digital Signature
    Signature Algorithm: sha256WithRSAEncryption
         26:f1:63:d0:d5:d3:c9:5b:de:f0:1a:3c:9d:64:94:bc:44:82:
         2f:82:9e:7e:d4:fa:e6:19:ec:e8:e8:ec:47:7e:dd:5a:f6:11:
         8d:f5:c7:4a:ed:f7:22:ec:f0:d7:75:7d:6a:10:c4:4f:e7:08:
         94:56:b8:ff:d5:01:3d:79:50:7d:4a:3e:0e:c5:a2:48:f7:2e:
         01:e8:65:c6:1d:ea:b9:5b:08:36:45:52:cf:d5:2c:1b:81:24:
         c1:f4:05:60:a9:32:a3:8a:d6:5f:13:90:06:de:69:fd:14:06:
         1e:0c:03:3f:cc:7f:36:3d:37:7f:37:1a:97:50:43:a9:0a:e6:
         fe:d6:9a:1b:eb:cd:a1:0b:63:83:fd:26:06:69:60:d0:41:e7:
         d7:80:e2:f8:63:91:9d:08:ac:79:28:28:43:06:ad:53:d4:f3:
         e5:0f:8a:8c:61:bf:df:1a:4b:88:25:56:a9:24:96:e2:ea:68:
         9e:36:b7:23:cc:3e:0a:e0:c0:e1:ae:83:3e:1c:ed:b5:2c:e8:
         84:e2:0d:42:72:cb:f7:ed:5a:9c:c9:f6:7c:9e:9a:e4:3e:57:
         bc:01:b7:3b:cb:af:11:84:3e:2a:a4:cd:4a:1d:27:00:18:e3:
         d1:c0:42:01:c9:bb:31:74:7d:09:02:3b:ce:3d:10:86:ae:d4:
         16:14:da:9c
-----BEGIN CERTIFICATE-----
MIIDXTCCAkWgAwIBAgIRAJ/IJijYcLaNfhjEiMP3NL0wDQYJKoZIhvcNAQELBQAw
FjEUMBIGA1UEAwwLdGVhbTI4OS1uZXQwHhcNMjIwNTE4MTk1NDEwWhcNMjUwNTAy
MTk1NDEwWjAZMRcwFQYDVQQDDA50ZWFtMjg5LWNsaWVudDCCASIwDQYJKoZIhvcN
AQEBBQADggEPADCCAQoCggEBAOFJBtqnTvX24WUuymDCqLrQF0OL0y5ltr9IpchZ
P0ufHQgtH0+I8IueRLcNoju/HtxP72BF3ENc7INYmw0zvOrxwBXGhTiZNFIRvDXS
vouhP4ZaiRFnxMTSarF+X8gRtHROGLFy7o91pNEfI8SAiUYTct/Ro/bs0xslDQ1O
0obKhMsMeh291QfHwKLCYhsPpZhtzsLCtrVnCQaVLS/Ug5pPxxUlo4YJ4J2Kd34Q
CR29861zvmmUgJi3maCXK+oKAdN8i+XiCAa/g3Uzf+cNjNyfYvrGdi38etyDsYbH
YRzKDE1yoR+/twHQuRMWqInatX94OUZOIjiOlJ45JbIpqycCAwEAAaOBojCBnzAJ
BgNVHRMEAjAAMB0GA1UdDgQWBBRukR7UFYAXrf8PQQzy9TdifzGOrDBRBgNVHSME
SjBIgBTPXFvzC5BqIaq7ysI7USNXqOHh+qEapBgwFjEUMBIGA1UEAwwLdGVhbTI4
OS1uZXSCFHVpdk/r06mQoiVu/o/VF5FHHv7wMBMGA1UdJQQMMAoGCCsGAQUFBwMC
MAsGA1UdDwQEAwIHgDANBgkqhkiG9w0BAQsFAAOCAQEAJvFj0NXTyVve8Bo8nWSU
vESCL4KeftT65hns6OjsR37dWvYRjfXHSu33Iuzw13V9ahDET+cIlFa4/9UBPXlQ
fUo+DsWiSPcuAehlxh3quVsINkVSz9UsG4EkwfQFYKkyo4rWXxOQBt5p/RQGHgwD
P8x/Nj03fzcal1BDqQrm/taaG+vNoQtjg/0mBmlg0EHn14Di+GORnQiseSgoQwat
U9Tz5Q+KjGG/3xpLiCVWqSSW4uponja3I8w+CuDA4a6DPhzttSzohOINQnLL9+1a
nMn2fJ6a5D5XvAG3O8uvEYQ+KqTNSh0nABjj0cBCAcm7MXR9CQI7zj0Qhq7UFhTa
nA==
-----END CERTIFICATE-----
