Certificate:
    Data:
        Version: 3 (0x2)
        Serial Number:
            e0:15:53:00:19:21:52:bb:d1:98:53:ba:11:76:b9:01
        Signature Algorithm: sha256WithRSAEncryption
        Issuer: CN=team671-net
        Validity
            Not Before: May 18 23:15:48 2022 GMT
            Not After : May  2 23:15:48 2025 GMT
        Subject: CN=team671-client
        Subject Public Key Info:
            Public Key Algorithm: rsaEncryption
                RSA Public-Key: (2048 bit)
                Modulus:
                    00:d1:53:b6:9e:69:71:d2:43:fa:23:8a:8e:73:de:
                    8a:e9:ca:69:9b:e9:91:07:b6:de:42:91:63:99:ad:
                    90:ff:12:c4:ff:e5:64:57:15:6e:1e:88:5e:b9:7f:
                    6f:77:b4:5c:8c:61:51:18:f9:db:23:e1:25:bd:50:
                    11:c2:3e:af:64:01:01:64:eb:74:5f:11:15:3e:cf:
                    2a:d7:bd:13:4d:c6:c8:c3:64:06:26:0a:35:7e:3c:
                    34:6b:a4:b1:38:8b:30:b1:5f:0a:35:d2:6f:d9:cd:
                    d6:32:06:86:a5:17:c3:b9:86:a6:57:8e:a3:20:ff:
                    16:5d:55:98:4b:a9:8e:b0:db:1a:28:f3:e6:6b:aa:
                    01:5e:e0:0d:17:06:70:0c:31:e1:fd:09:03:cf:2c:
                    59:ff:50:b7:cd:39:4b:f1:93:11:c1:56:2b:f9:ed:
                    1d:ed:5d:dd:81:77:a1:8d:9b:65:4c:97:8d:c3:f0:
                    21:9e:66:4e:c3:e7:ba:44:85:d9:93:aa:fd:2c:04:
                    9f:6b:5b:12:53:36:8b:0f:31:d3:f1:b2:20:17:1b:
                    6d:d5:ab:94:ed:f9:3f:d6:5c:1e:38:e1:38:b8:03:
                    31:b0:4a:0a:5c:3d:22:fd:29:df:d2:9e:b6:c7:08:
                    6c:56:ee:a3:e1:5e:3a:38:44:ee:08:b1:65:3d:5b:
                    8c:c1
                Exponent: 65537 (0x10001)
        X509v3 extensions:
            X509v3 Basic Constraints: 
                CA:FALSE
            X509v3 Subject Key Identifier: 
                FA:30:3F:71:00:D1:FA:DD:17:45:3E:70:E7:69:0E:8C:A2:72:5C:79
            X509v3 Authority Key Identifier: 
                keyid:31:10:52:BB:A9:27:07:C3:C5:85:0D:CD:9E:A4:C0:9A:CA:6B:5C:E6
                DirName:/CN=team671-net
                serial:0A:2A:29:CE:BB:81:84:39:FF:DB:8C:BA:5A:B8:A2:3D:E0:96:24:BF

            X509v3 Extended Key Usage: 
                TLS Web Client Authentication
            X509v3 Key Usage: 
                Digital Signature
    Signature Algorithm: sha256WithRSAEncryption
         1e:62:8a:e5:c4:89:77:eb:24:ec:87:a0:b4:f0:d9:fe:be:35:
         58:ca:0c:9d:62:a6:54:4f:8a:cc:f9:1c:61:dc:6c:10:ea:9b:
         8a:8f:db:9f:55:64:33:45:12:af:d5:77:c4:02:9e:d4:76:9e:
         fa:44:09:4f:34:79:b0:46:7e:de:55:ce:a4:39:ae:07:4d:b8:
         2b:52:2e:e1:26:cd:7a:76:1d:59:9a:09:ce:bb:a0:e7:a7:ce:
         aa:75:f5:3b:ec:1e:f6:2c:c4:ad:51:bc:61:c7:bd:87:d6:9a:
         a2:eb:44:99:51:88:35:dd:05:0f:f3:93:6a:7a:63:79:cf:3d:
         78:77:91:c1:90:22:64:c2:b6:2d:df:0e:80:28:6a:21:d0:c0:
         c9:5e:92:4f:8a:f1:09:30:01:9d:60:07:7b:14:4f:99:d2:3f:
         b3:b3:1c:b4:a7:af:55:c3:d1:00:16:eb:63:fd:b8:00:27:60:
         26:79:e6:45:ca:8f:73:f4:0f:31:ca:18:27:63:7e:e0:45:ac:
         af:47:1d:f1:d6:0d:f1:91:27:6f:18:0c:8a:58:65:cf:c1:84:
         da:96:c8:1b:5c:0b:93:c9:4d:09:e1:f5:d6:b2:5f:d9:6c:22:
         13:a9:30:db:cc:3f:4c:1f:a0:a0:3f:40:02:c3:4d:03:88:c4:
         c3:75:03:a3
-----BEGIN CERTIFICATE-----
MIIDXTCCAkWgAwIBAgIRAOAVUwAZIVK70ZhTuhF2uQEwDQYJKoZIhvcNAQELBQAw
FjEUMBIGA1UEAwwLdGVhbTY3MS1uZXQwHhcNMjIwNTE4MjMxNTQ4WhcNMjUwNTAy
MjMxNTQ4WjAZMRcwFQYDVQQDDA50ZWFtNjcxLWNsaWVudDCCASIwDQYJKoZIhvcN
AQEBBQADggEPADCCAQoCggEBANFTtp5pcdJD+iOKjnPeiunKaZvpkQe23kKRY5mt
kP8SxP/lZFcVbh6IXrl/b3e0XIxhURj52yPhJb1QEcI+r2QBAWTrdF8RFT7PKte9
E03GyMNkBiYKNX48NGuksTiLMLFfCjXSb9nN1jIGhqUXw7mGpleOoyD/Fl1VmEup
jrDbGijz5muqAV7gDRcGcAwx4f0JA88sWf9Qt805S/GTEcFWK/ntHe1d3YF3oY2b
ZUyXjcPwIZ5mTsPnukSF2ZOq/SwEn2tbElM2iw8x0/GyIBcbbdWrlO35P9ZcHjjh
OLgDMbBKClw9Iv0p39KetscIbFbuo+FeOjhE7gixZT1bjMECAwEAAaOBojCBnzAJ
BgNVHRMEAjAAMB0GA1UdDgQWBBT6MD9xANH63RdFPnDnaQ6MonJceTBRBgNVHSME
SjBIgBQxEFK7qScHw8WFDc2epMCaymtc5qEapBgwFjEUMBIGA1UEAwwLdGVhbTY3
MS1uZXSCFAoqKc67gYQ5/9uMulq4oj3gliS/MBMGA1UdJQQMMAoGCCsGAQUFBwMC
MAsGA1UdDwQEAwIHgDANBgkqhkiG9w0BAQsFAAOCAQEAHmKK5cSJd+sk7IegtPDZ
/r41WMoMnWKmVE+KzPkcYdxsEOqbio/bn1VkM0USr9V3xAKe1Hae+kQJTzR5sEZ+
3lXOpDmuB024K1Iu4SbNenYdWZoJzrug56fOqnX1O+we9izErVG8Yce9h9aaoutE
mVGINd0FD/OTanpjec89eHeRwZAiZMK2Ld8OgChqIdDAyV6ST4rxCTABnWAHexRP
mdI/s7MctKevVcPRABbrY/24ACdgJnnmRcqPc/QPMcoYJ2N+4EWsr0cd8dYN8ZEn
bxgMilhlz8GE2pbIG1wLk8lNCeH11rJf2WwiE6kw28w/TB+goD9AAsNNA4jEw3UD
ow==
-----END CERTIFICATE-----
