Certificate:
    Data:
        Version: 3 (0x2)
        Serial Number:
            3c:eb:b3:82:de:da:63:f0:18:ba:b4:b3:ef:27:98:a8
        Signature Algorithm: sha256WithRSAEncryption
        Issuer: CN=team28-net
        Validity
            Not Before: May 18 14:05:04 2022 GMT
            Not After : May  2 14:05:04 2025 GMT
        Subject: CN=team28-client
        Subject Public Key Info:
            Public Key Algorithm: rsaEncryption
                RSA Public-Key: (2048 bit)
                Modulus:
                    00:b7:3c:9b:f6:61:de:5b:87:25:b4:cf:e0:87:49:
                    a4:39:02:a1:d8:e3:b2:9e:31:48:c2:53:76:41:a4:
                    90:bb:dd:c3:48:62:66:da:1c:c8:63:67:82:39:bf:
                    9a:72:c1:6d:de:cf:e4:fd:23:63:8e:e2:92:fb:aa:
                    b3:ce:44:4a:04:ac:3f:c4:a9:53:ed:67:5b:2c:22:
                    b1:36:86:e1:31:5f:9a:70:ae:36:95:54:2d:26:be:
                    7a:0f:7d:c7:65:bc:2f:1c:8f:72:ae:79:c2:77:f0:
                    40:01:88:46:92:dc:83:76:b8:33:8b:91:43:fc:38:
                    ae:45:7c:d4:93:92:b7:1b:e2:ad:e9:fc:f1:9e:32:
                    b5:1a:ff:e5:00:7d:38:35:70:87:22:db:b6:0a:f9:
                    0c:bb:b9:ba:7f:e4:4b:a2:cb:95:02:37:54:e4:62:
                    71:2f:95:8a:88:e0:55:6d:2d:bd:38:6e:13:d8:b0:
                    14:97:1c:d1:6d:12:a0:7d:a2:ac:9d:2e:a7:2e:b2:
                    01:96:ec:8f:3c:22:ae:89:6a:86:5d:2d:87:38:e0:
                    4f:36:20:8d:e2:b4:23:76:42:a0:59:98:7e:b6:46:
                    05:47:d5:65:e0:3b:24:c2:3a:71:73:25:e1:52:b1:
                    66:a1:6a:ce:ef:49:95:c4:36:3c:10:35:bc:d7:f7:
                    36:49
                Exponent: 65537 (0x10001)
        X509v3 extensions:
            X509v3 Basic Constraints: 
                CA:FALSE
            X509v3 Subject Key Identifier: 
                7D:F7:A7:C4:23:6A:4A:75:75:C1:F6:57:5B:CC:73:5B:CE:0A:E5:0D
            X509v3 Authority Key Identifier: 
                keyid:4D:17:AC:CA:50:D9:FF:33:29:9F:06:1C:4B:49:36:D9:AB:12:C1:A1
                DirName:/CN=team28-net
                serial:4A:B4:94:FC:50:BB:4B:C7:76:32:B3:D3:4C:EC:4B:F4:13:95:07:6B

            X509v3 Extended Key Usage: 
                TLS Web Client Authentication
            X509v3 Key Usage: 
                Digital Signature
    Signature Algorithm: sha256WithRSAEncryption
         2b:29:70:ca:60:b2:3e:91:a4:5e:25:24:90:22:7a:4f:74:d7:
         64:41:75:ef:23:0b:05:1e:48:3e:b2:4c:0f:79:b0:2a:8f:b2:
         28:6a:00:d2:3d:3b:7e:80:c3:f4:22:89:64:56:92:96:4a:87:
         5f:e8:38:db:be:9b:70:ff:38:50:02:15:7c:dd:30:7a:a1:63:
         25:36:53:f2:2c:b9:bd:0e:0f:28:3f:0c:bb:84:d5:62:fa:d1:
         bc:67:20:a3:04:bc:13:f2:52:18:db:63:b1:9b:8a:e5:a1:00:
         0c:d3:0a:10:f6:70:5b:05:7b:85:ed:3a:8c:c8:d5:ac:93:b7:
         1f:a0:35:e6:0d:46:1f:c1:be:a9:f9:7e:5e:b1:ed:18:6c:2c:
         59:68:92:c4:c9:e7:33:5f:f4:66:2e:45:b6:bd:fe:8f:26:79:
         6f:43:69:e2:28:91:c0:f8:7e:08:3d:dd:37:11:4d:dd:17:9f:
         d7:54:7e:db:b0:07:0d:b3:9a:33:9d:2a:78:29:ea:01:89:21:
         eb:61:f7:5c:83:3f:9e:b1:91:d6:42:53:12:20:bd:be:c1:7e:
         7e:82:4c:e4:16:bd:5c:cf:3c:07:77:06:ea:10:a6:12:a1:6f:
         2c:ca:88:3f:d3:da:9b:43:fb:88:61:d3:60:af:ab:56:13:f6:
         95:e7:a2:2b
-----BEGIN CERTIFICATE-----
MIIDWTCCAkGgAwIBAgIQPOuzgt7aY/AYurSz7yeYqDANBgkqhkiG9w0BAQsFADAV
MRMwEQYDVQQDDAp0ZWFtMjgtbmV0MB4XDTIyMDUxODE0MDUwNFoXDTI1MDUwMjE0
MDUwNFowGDEWMBQGA1UEAwwNdGVhbTI4LWNsaWVudDCCASIwDQYJKoZIhvcNAQEB
BQADggEPADCCAQoCggEBALc8m/Zh3luHJbTP4IdJpDkCodjjsp4xSMJTdkGkkLvd
w0hiZtocyGNngjm/mnLBbd7P5P0jY47ikvuqs85ESgSsP8SpU+1nWywisTaG4TFf
mnCuNpVULSa+eg99x2W8LxyPcq55wnfwQAGIRpLcg3a4M4uRQ/w4rkV81JOStxvi
ren88Z4ytRr/5QB9ODVwhyLbtgr5DLu5un/kS6LLlQI3VORicS+ViojgVW0tvThu
E9iwFJcc0W0SoH2irJ0upy6yAZbsjzwirolqhl0thzjgTzYgjeK0I3ZCoFmYfrZG
BUfVZeA7JMI6cXMl4VKxZqFqzu9JlcQ2PBA1vNf3NkkCAwEAAaOBoTCBnjAJBgNV
HRMEAjAAMB0GA1UdDgQWBBR996fEI2pKdXXB9ldbzHNbzgrlDTBQBgNVHSMESTBH
gBRNF6zKUNn/MymfBhxLSTbZqxLBoaEZpBcwFTETMBEGA1UEAwwKdGVhbTI4LW5l
dIIUSrSU/FC7S8d2MrPTTOxL9BOVB2swEwYDVR0lBAwwCgYIKwYBBQUHAwIwCwYD
VR0PBAQDAgeAMA0GCSqGSIb3DQEBCwUAA4IBAQArKXDKYLI+kaReJSSQInpPdNdk
QXXvIwsFHkg+skwPebAqj7IoagDSPTt+gMP0IolkVpKWSodf6Djbvptw/zhQAhV8
3TB6oWMlNlPyLLm9Dg8oPwy7hNVi+tG8ZyCjBLwT8lIY22Oxm4rloQAM0woQ9nBb
BXuF7TqMyNWsk7cfoDXmDUYfwb6p+X5ese0YbCxZaJLEyeczX/RmLkW2vf6PJnlv
Q2niKJHA+H4IPd03EU3dF5/XVH7bsAcNs5oznSp4KeoBiSHrYfdcgz+esZHWQlMS
IL2+wX5+gkzkFr1czzwHdwbqEKYSoW8syog/09qbQ/uIYdNgr6tWE/aV56Ir
-----END CERTIFICATE-----
