Certificate:
    Data:
        Version: 3 (0x2)
        Serial Number:
            ef:de:94:07:48:ee:4f:ae:24:f5:65:d8:61:40:1f:9a
        Signature Algorithm: sha256WithRSAEncryption
        Issuer: CN=team151-net
        Validity
            Not Before: May 18 18:41:13 2022 GMT
            Not After : May  2 18:41:13 2025 GMT
        Subject: CN=team151-server
        Subject Public Key Info:
            Public Key Algorithm: rsaEncryption
                RSA Public-Key: (2048 bit)
                Modulus:
                    00:b9:9e:e1:c7:54:78:94:fc:85:51:d0:93:75:87:
                    03:f4:a6:fd:aa:05:07:8a:ac:76:93:a2:af:10:19:
                    50:ec:09:69:2c:b3:47:3e:35:1b:c5:b9:59:95:d7:
                    00:f5:23:df:55:25:d3:7f:5f:dd:e0:f0:47:5d:8d:
                    83:dd:af:fe:c4:d9:85:16:2c:9a:64:6d:4c:f0:91:
                    61:7e:d2:cd:59:dc:68:e1:5b:4d:2e:d4:20:15:bf:
                    71:13:cb:4d:93:59:16:1f:5b:50:dd:50:6f:4b:8e:
                    0d:82:da:f3:7f:0d:cb:08:62:d5:89:d5:a0:04:4e:
                    62:62:2f:38:0b:a4:e5:ae:7a:3a:1f:7a:90:e1:43:
                    08:56:8b:c6:e6:8d:f5:a0:95:5f:3f:a7:b8:e6:72:
                    ed:fe:aa:c1:18:92:7b:61:4b:b9:e1:3e:5d:42:27:
                    01:42:59:37:b6:d2:99:70:9a:16:1f:f6:98:67:a9:
                    9f:fb:d0:52:ec:79:2f:68:bd:3f:bf:fc:ef:69:6d:
                    d8:ef:e6:47:8f:8e:61:8d:4a:6f:a1:71:34:28:58:
                    b8:9e:27:a8:8f:4a:db:2b:e7:42:8b:91:e9:d4:44:
                    dc:b3:9f:13:00:ae:f3:ae:1f:21:7e:ba:60:2a:a6:
                    2e:42:81:76:2a:25:cd:f1:0f:8e:1b:d8:36:30:47:
                    1c:41
                Exponent: 65537 (0x10001)
        X509v3 extensions:
            X509v3 Basic Constraints: 
                CA:FALSE
            X509v3 Subject Key Identifier: 
                E9:EF:A8:E7:43:E3:18:DC:30:8F:67:A8:B5:59:74:8F:6A:D7:DD:FF
            X509v3 Authority Key Identifier: 
                keyid:6E:8B:F7:63:D4:64:F3:71:DF:A8:87:DD:1A:C4:77:FA:01:D1:85:A2
                DirName:/CN=team151-net
                serial:0B:CB:8B:FA:5F:D1:D0:10:18:F8:2A:54:8F:2E:42:8E:6C:87:81:DC

            X509v3 Extended Key Usage: 
                TLS Web Server Authentication
            X509v3 Key Usage: 
                Digital Signature, Key Encipherment
            X509v3 Subject Alternative Name: 
                DNS:team151-server
    Signature Algorithm: sha256WithRSAEncryption
         02:6d:56:5f:37:2d:31:e2:7c:c0:3e:57:f8:dc:16:76:a5:b2:
         94:15:48:41:dd:17:9a:17:6a:d6:1d:11:9f:9f:6f:c7:ef:4d:
         a7:fe:d8:46:5f:68:92:4b:7f:e5:b4:3d:3d:e8:7a:7c:3f:2a:
         46:b2:06:85:b4:7c:06:df:05:cd:bd:8e:7e:cc:89:ec:c6:dd:
         7d:bb:5b:9a:31:8f:e0:7b:cf:98:ed:91:11:fa:02:a8:9b:b8:
         5e:e5:23:29:2a:d1:43:a8:7e:69:86:ea:3c:28:94:d0:e1:40:
         68:09:0d:49:09:0c:6c:39:a4:d7:55:ac:ba:84:d7:28:39:92:
         e8:1f:f7:d9:4d:a2:e0:e0:1a:dd:85:1a:44:5b:6c:2b:8e:57:
         74:86:80:7a:16:7f:7e:23:3d:67:29:20:a0:87:2f:fc:ad:83:
         45:9f:35:89:e6:18:3c:00:a3:25:c0:82:a6:01:c1:f3:7a:26:
         bf:f1:91:35:8f:ca:d2:e0:e0:2a:0b:4a:8a:2e:b2:cf:16:dd:
         0d:ed:0b:04:6b:20:83:12:d1:39:75:0f:13:95:08:6c:e4:24:
         09:11:f5:1d:b0:ec:c9:ef:48:d7:81:9a:d6:be:d9:f5:2f:f4:
         e3:fe:43:99:23:55:a0:e6:8b:1a:9e:9c:12:b5:29:e3:24:57:
         03:46:b2:ea
-----BEGIN CERTIFICATE-----
MIIDeDCCAmCgAwIBAgIRAO/elAdI7k+uJPVl2GFAH5owDQYJKoZIhvcNAQELBQAw
FjEUMBIGA1UEAwwLdGVhbTE1MS1uZXQwHhcNMjIwNTE4MTg0MTEzWhcNMjUwNTAy
MTg0MTEzWjAZMRcwFQYDVQQDDA50ZWFtMTUxLXNlcnZlcjCCASIwDQYJKoZIhvcN
AQEBBQADggEPADCCAQoCggEBALme4cdUeJT8hVHQk3WHA/Sm/aoFB4qsdpOirxAZ
UOwJaSyzRz41G8W5WZXXAPUj31Ul039f3eDwR12Ng92v/sTZhRYsmmRtTPCRYX7S
zVncaOFbTS7UIBW/cRPLTZNZFh9bUN1Qb0uODYLa838Nywhi1YnVoAROYmIvOAuk
5a56Oh96kOFDCFaLxuaN9aCVXz+nuOZy7f6qwRiSe2FLueE+XUInAUJZN7bSmXCa
Fh/2mGepn/vQUux5L2i9P7/872lt2O/mR4+OYY1Kb6FxNChYuJ4nqI9K2yvnQouR
6dRE3LOfEwCu864fIX66YCqmLkKBdiolzfEPjhvYNjBHHEECAwEAAaOBvTCBujAJ
BgNVHRMEAjAAMB0GA1UdDgQWBBTp76jnQ+MY3DCPZ6i1WXSPatfd/zBRBgNVHSME
SjBIgBRui/dj1GTzcd+oh90axHf6AdGFoqEapBgwFjEUMBIGA1UEAwwLdGVhbTE1
MS1uZXSCFAvLi/pf0dAQGPgqVI8uQo5sh4HcMBMGA1UdJQQMMAoGCCsGAQUFBwMB
MAsGA1UdDwQEAwIFoDAZBgNVHREEEjAQgg50ZWFtMTUxLXNlcnZlcjANBgkqhkiG
9w0BAQsFAAOCAQEAAm1WXzctMeJ8wD5X+NwWdqWylBVIQd0Xmhdq1h0Rn59vx+9N
p/7YRl9okkt/5bQ9Peh6fD8qRrIGhbR8Bt8Fzb2OfsyJ7MbdfbtbmjGP4HvPmO2R
EfoCqJu4XuUjKSrRQ6h+aYbqPCiU0OFAaAkNSQkMbDmk11WsuoTXKDmS6B/32U2i
4OAa3YUaRFtsK45XdIaAehZ/fiM9ZykgoIcv/K2DRZ81ieYYPACjJcCCpgHB83om
v/GRNY/K0uDgKgtKii6yzxbdDe0LBGsggxLROXUPE5UIbOQkCRH1HbDsye9I14Ga
1r7Z9S/04/5DmSNVoOaLGp6cErUp4yRXA0ay6g==
-----END CERTIFICATE-----
