Certificate:
    Data:
        Version: 3 (0x2)
        Serial Number:
            8b:83:41:ac:dc:7c:30:45:12:05:70:d9:8b:68:3d:55
        Signature Algorithm: sha256WithRSAEncryption
        Issuer: CN=team733-net
        Validity
            Not Before: May 18 23:52:05 2022 GMT
            Not After : May  2 23:52:05 2025 GMT
        Subject: CN=team733-server
        Subject Public Key Info:
            Public Key Algorithm: rsaEncryption
                RSA Public-Key: (2048 bit)
                Modulus:
                    00:bb:f3:0a:3e:55:ae:f0:3d:e3:66:0c:0c:d6:48:
                    e6:08:ad:95:32:b6:23:23:f1:cf:51:ae:8c:20:08:
                    66:5b:13:1e:31:0d:84:92:12:37:94:7a:c5:02:65:
                    77:82:4d:db:3b:2d:42:06:58:42:7b:51:ec:10:ce:
                    1d:53:30:74:23:12:88:3d:e4:28:35:13:d9:d6:7b:
                    7a:02:c0:1f:42:fd:e3:cd:46:99:72:0d:d3:c5:69:
                    6f:29:cd:a8:67:d9:ee:48:b7:eb:e1:bc:42:52:4e:
                    6d:a2:e8:4c:7d:b0:0f:e8:88:6d:09:05:80:b6:08:
                    c6:df:11:85:7c:36:6b:79:39:c5:6e:b1:c4:5c:52:
                    0a:2f:38:19:dd:24:72:d1:60:e1:7e:de:5e:68:88:
                    77:58:1e:e3:cf:63:4c:6f:65:ca:6b:8a:80:1e:60:
                    b3:45:03:f5:de:47:f1:c9:f1:9f:64:f2:fc:65:9a:
                    8b:a4:6f:3f:1b:b5:7c:38:3d:d2:1e:29:92:84:97:
                    a5:c9:bb:81:79:65:86:fe:a2:0d:28:15:dc:13:dc:
                    92:60:0d:bc:6c:71:50:bb:1a:2a:49:23:96:0d:94:
                    62:54:7c:d0:45:42:a2:a5:88:8a:85:b1:8e:4d:06:
                    48:76:8e:29:7d:8d:07:70:e9:58:a1:d5:72:b6:df:
                    1b:67
                Exponent: 65537 (0x10001)
        X509v3 extensions:
            X509v3 Basic Constraints: 
                CA:FALSE
            X509v3 Subject Key Identifier: 
                C0:0C:A0:7C:AD:A3:1A:42:05:DA:CC:CF:E2:9D:2A:73:FE:E1:8A:6A
            X509v3 Authority Key Identifier: 
                keyid:E2:D3:49:ED:20:E1:90:9E:53:E8:F7:6C:5F:B6:EE:83:FF:9C:9B:09
                DirName:/CN=team733-net
                serial:3F:BA:19:65:55:3A:48:3A:9C:28:01:8C:3A:3C:46:C1:46:C7:AB:58

            X509v3 Extended Key Usage: 
                TLS Web Server Authentication
            X509v3 Key Usage: 
                Digital Signature, Key Encipherment
            X509v3 Subject Alternative Name: 
                DNS:team733-server
    Signature Algorithm: sha256WithRSAEncryption
         98:97:44:c5:ea:17:2d:0e:13:12:ae:eb:fe:9d:1f:1a:0e:cb:
         08:59:31:54:7e:90:eb:78:56:bc:71:f3:66:b2:a8:15:a9:4a:
         07:de:9b:be:a9:1e:e3:af:f3:e5:dc:37:2e:16:6f:31:f1:1e:
         67:e1:c9:d6:6f:65:60:52:7d:e4:a9:d8:45:8d:af:f6:c9:12:
         17:e7:17:4e:74:63:87:87:0c:1a:82:82:e4:13:89:3c:b6:e6:
         d2:ab:5d:5d:84:34:09:d9:e1:ac:08:4f:be:a1:83:1b:b0:8e:
         55:39:83:ac:81:48:f9:56:a4:77:c9:ae:ec:8e:fa:45:37:d0:
         8a:80:0e:7e:5c:e6:ae:cd:fa:76:6c:f5:f3:3c:c3:46:97:d2:
         d4:a1:6c:dd:81:54:ca:61:6f:5d:50:89:9f:a1:46:15:94:a8:
         f8:50:38:42:99:b8:12:6d:7d:85:5d:4a:53:2b:d8:49:f4:4c:
         d0:d6:9b:ab:ce:2b:03:bb:26:0c:b2:5d:99:78:38:e6:b9:0e:
         6a:3b:a2:6d:e0:bf:5e:72:57:ae:55:1e:15:cf:95:c2:88:f7:
         73:9b:cf:18:22:2d:66:4f:0d:65:90:ed:95:34:b6:53:f6:87:
         2a:ba:13:b9:43:a3:ec:bc:48:52:99:06:3a:7f:73:70:08:fa:
         af:6c:1a:16
-----BEGIN CERTIFICATE-----
MIIDeDCCAmCgAwIBAgIRAIuDQazcfDBFEgVw2YtoPVUwDQYJKoZIhvcNAQELBQAw
FjEUMBIGA1UEAwwLdGVhbTczMy1uZXQwHhcNMjIwNTE4MjM1MjA1WhcNMjUwNTAy
MjM1MjA1WjAZMRcwFQYDVQQDDA50ZWFtNzMzLXNlcnZlcjCCASIwDQYJKoZIhvcN
AQEBBQADggEPADCCAQoCggEBALvzCj5VrvA942YMDNZI5gitlTK2IyPxz1GujCAI
ZlsTHjENhJISN5R6xQJld4JN2zstQgZYQntR7BDOHVMwdCMSiD3kKDUT2dZ7egLA
H0L9481GmXIN08VpbynNqGfZ7ki36+G8QlJObaLoTH2wD+iIbQkFgLYIxt8RhXw2
a3k5xW6xxFxSCi84Gd0kctFg4X7eXmiId1ge489jTG9lymuKgB5gs0UD9d5H8cnx
n2Ty/GWai6RvPxu1fDg90h4pkoSXpcm7gXllhv6iDSgV3BPckmANvGxxULsaKkkj
lg2UYlR80EVCoqWIioWxjk0GSHaOKX2NB3DpWKHVcrbfG2cCAwEAAaOBvTCBujAJ
BgNVHRMEAjAAMB0GA1UdDgQWBBTADKB8raMaQgXazM/inSpz/uGKajBRBgNVHSME
SjBIgBTi00ntIOGQnlPo92xftu6D/5ybCaEapBgwFjEUMBIGA1UEAwwLdGVhbTcz
My1uZXSCFD+6GWVVOkg6nCgBjDo8RsFGx6tYMBMGA1UdJQQMMAoGCCsGAQUFBwMB
MAsGA1UdDwQEAwIFoDAZBgNVHREEEjAQgg50ZWFtNzMzLXNlcnZlcjANBgkqhkiG
9w0BAQsFAAOCAQEAmJdExeoXLQ4TEq7r/p0fGg7LCFkxVH6Q63hWvHHzZrKoFalK
B96bvqke46/z5dw3LhZvMfEeZ+HJ1m9lYFJ95KnYRY2v9skSF+cXTnRjh4cMGoKC
5BOJPLbm0qtdXYQ0CdnhrAhPvqGDG7COVTmDrIFI+Vakd8mu7I76RTfQioAOflzm
rs36dmz18zzDRpfS1KFs3YFUymFvXVCJn6FGFZSo+FA4Qpm4Em19hV1KUyvYSfRM
0Nabq84rA7smDLJdmXg45rkOajuibeC/XnJXrlUeFc+Vwoj3c5vPGCItZk8NZZDt
lTS2U/aHKroTuUOj7LxIUpkGOn9zcAj6r2waFg==
-----END CERTIFICATE-----
