Certificate:
    Data:
        Version: 3 (0x2)
        Serial Number:
            f0:56:dd:a1:d1:01:f9:4e:6f:81:fd:6c:da:cb:01:fc
        Signature Algorithm: sha256WithRSAEncryption
        Issuer: CN=team733-net
        Validity
            Not Before: May 18 23:52:04 2022 GMT
            Not After : May  2 23:52:04 2025 GMT
        Subject: CN=team733-client
        Subject Public Key Info:
            Public Key Algorithm: rsaEncryption
                RSA Public-Key: (2048 bit)
                Modulus:
                    00:f0:89:6e:a1:c8:89:d7:bb:68:e0:88:f4:c7:a9:
                    1b:68:d8:35:9a:43:1c:84:57:e0:74:28:ba:d1:09:
                    48:76:7a:89:37:a3:ab:f3:49:c0:22:9b:ac:c4:d4:
                    5d:2e:49:bc:80:c8:94:02:17:e2:f6:d5:ce:b3:2f:
                    ff:e6:f6:b6:22:d9:fc:d6:f2:35:54:22:4a:a5:27:
                    35:8a:47:b7:f6:a1:af:a9:ca:c0:8a:af:9b:fa:23:
                    86:d0:e8:a5:e1:ce:53:69:12:42:82:38:fd:a2:0b:
                    51:47:02:f7:ae:da:78:96:2f:ce:5b:ed:c9:55:25:
                    e0:df:a2:8b:8c:94:ae:c7:47:20:28:6b:1b:51:69:
                    f8:91:b2:ef:7f:aa:da:d4:13:50:0e:99:1f:b6:64:
                    a3:4f:7d:2b:8e:89:12:1a:85:05:5e:cb:e5:4d:16:
                    67:b3:b2:af:b3:13:95:d3:59:96:f4:6d:92:c1:75:
                    b3:ef:57:e2:35:7d:ee:5c:14:7f:1e:8c:84:a4:e9:
                    8d:27:40:72:34:88:ca:8a:99:03:21:72:f8:25:6f:
                    18:f5:7d:f2:69:63:77:03:ac:35:dc:ef:a0:a7:58:
                    f9:3f:80:f6:66:0c:5b:56:af:3a:36:9a:53:2f:de:
                    99:43:a6:4b:22:ba:8d:01:0b:80:76:65:e7:4a:f7:
                    c7:17
                Exponent: 65537 (0x10001)
        X509v3 extensions:
            X509v3 Basic Constraints: 
                CA:FALSE
            X509v3 Subject Key Identifier: 
                B4:10:23:F9:E6:87:26:24:0A:0E:89:76:F5:27:52:4B:DE:3D:4B:A3
            X509v3 Authority Key Identifier: 
                keyid:E2:D3:49:ED:20:E1:90:9E:53:E8:F7:6C:5F:B6:EE:83:FF:9C:9B:09
                DirName:/CN=team733-net
                serial:3F:BA:19:65:55:3A:48:3A:9C:28:01:8C:3A:3C:46:C1:46:C7:AB:58

            X509v3 Extended Key Usage: 
                TLS Web Client Authentication
            X509v3 Key Usage: 
                Digital Signature
    Signature Algorithm: sha256WithRSAEncryption
         5f:7a:93:cd:fa:6a:ea:21:d3:74:56:1b:b2:72:44:08:59:b3:
         9a:13:95:c7:2b:ae:17:00:f9:75:a3:f2:d3:4d:e2:9e:c7:c8:
         2f:75:1a:b8:60:5c:95:02:9d:6b:a9:4e:48:09:78:01:c4:bb:
         a9:19:1e:04:65:c3:b3:de:11:a7:c4:3b:5b:ff:81:98:54:3f:
         a2:95:ce:7e:3f:b5:85:10:f0:05:19:e6:20:61:a8:b8:45:ce:
         48:c7:5c:2e:d9:04:67:f5:d4:f1:e5:2d:aa:51:dd:48:9d:65:
         d5:04:08:fe:45:3a:eb:82:75:4e:4c:bf:44:ce:8b:ec:09:7b:
         10:0d:b7:ee:f2:44:13:e3:3a:95:06:54:b5:4f:2a:4e:e2:97:
         6b:7d:13:8c:58:e2:4c:47:eb:1f:7c:b8:9e:bd:12:56:ff:fa:
         f1:0b:9c:e1:53:b6:a8:a1:ef:b0:af:6e:dd:45:41:d5:db:c7:
         03:eb:e7:94:1c:fe:f2:50:d1:7a:0b:cd:4f:07:b4:28:3a:8b:
         da:d2:e3:94:51:8c:66:6c:2f:7a:7f:e1:c8:3f:4d:7e:f5:64:
         34:e0:fe:38:6b:45:58:2d:84:bd:e0:fc:e5:d3:5f:e9:d5:4e:
         09:70:3e:2f:6d:c8:ba:29:2d:8a:67:80:33:5c:4f:c0:ae:81:
         b9:3e:26:a6
-----BEGIN CERTIFICATE-----
MIIDXTCCAkWgAwIBAgIRAPBW3aHRAflOb4H9bNrLAfwwDQYJKoZIhvcNAQELBQAw
FjEUMBIGA1UEAwwLdGVhbTczMy1uZXQwHhcNMjIwNTE4MjM1MjA0WhcNMjUwNTAy
MjM1MjA0WjAZMRcwFQYDVQQDDA50ZWFtNzMzLWNsaWVudDCCASIwDQYJKoZIhvcN
AQEBBQADggEPADCCAQoCggEBAPCJbqHIide7aOCI9MepG2jYNZpDHIRX4HQoutEJ
SHZ6iTejq/NJwCKbrMTUXS5JvIDIlAIX4vbVzrMv/+b2tiLZ/NbyNVQiSqUnNYpH
t/ahr6nKwIqvm/ojhtDopeHOU2kSQoI4/aILUUcC967aeJYvzlvtyVUl4N+ii4yU
rsdHIChrG1Fp+JGy73+q2tQTUA6ZH7Zko099K46JEhqFBV7L5U0WZ7Oyr7MTldNZ
lvRtksF1s+9X4jV97lwUfx6MhKTpjSdAcjSIyoqZAyFy+CVvGPV98mljdwOsNdzv
oKdY+T+A9mYMW1avOjaaUy/emUOmSyK6jQELgHZl50r3xxcCAwEAAaOBojCBnzAJ
BgNVHRMEAjAAMB0GA1UdDgQWBBS0ECP55ocmJAoOiXb1J1JL3j1LozBRBgNVHSME
SjBIgBTi00ntIOGQnlPo92xftu6D/5ybCaEapBgwFjEUMBIGA1UEAwwLdGVhbTcz
My1uZXSCFD+6GWVVOkg6nCgBjDo8RsFGx6tYMBMGA1UdJQQMMAoGCCsGAQUFBwMC
MAsGA1UdDwQEAwIHgDANBgkqhkiG9w0BAQsFAAOCAQEAX3qTzfpq6iHTdFYbsnJE
CFmzmhOVxyuuFwD5daPy003insfIL3UauGBclQKda6lOSAl4AcS7qRkeBGXDs94R
p8Q7W/+BmFQ/opXOfj+1hRDwBRnmIGGouEXOSMdcLtkEZ/XU8eUtqlHdSJ1l1QQI
/kU664J1Tky/RM6L7Al7EA237vJEE+M6lQZUtU8qTuKXa30TjFjiTEfrH3y4nr0S
Vv/68Quc4VO2qKHvsK9u3UVB1dvHA+vnlBz+8lDRegvNTwe0KDqL2tLjlFGMZmwv
en/hyD9NfvVkNOD+OGtFWC2EveD85dNf6dVOCXA+L23IuiktimeAM1xPwK6BuT4m
pg==
-----END CERTIFICATE-----
