Certificate:
    Data:
        Version: 3 (0x2)
        Serial Number:
            d6:90:98:a2:b0:47:fa:0a:be:fd:09:cf:03:8a:86:2d
        Signature Algorithm: sha256WithRSAEncryption
        Issuer: CN=team660-net
        Validity
            Not Before: May 18 23:23:08 2022 GMT
            Not After : May  2 23:23:08 2025 GMT
        Subject: CN=team660-client
        Subject Public Key Info:
            Public Key Algorithm: rsaEncryption
                RSA Public-Key: (2048 bit)
                Modulus:
                    00:bd:5d:aa:4f:d7:f0:d3:41:3c:fc:eb:48:b2:e0:
                    93:56:97:2f:3d:31:a0:b5:05:c6:e4:14:6a:fd:01:
                    13:6a:2f:18:4c:73:f3:b9:4e:28:4b:e2:a7:a1:61:
                    a7:1f:38:96:9b:a3:17:57:ab:d9:4b:50:54:ba:33:
                    8a:81:0e:68:2e:29:40:a0:3d:8f:2b:80:5b:b2:75:
                    53:59:84:e8:4a:3e:33:95:a1:78:1c:2e:6b:4c:7b:
                    15:5b:00:57:c5:32:6b:0b:20:b8:ea:6a:87:6b:d1:
                    2a:79:eb:f7:b7:d7:40:8f:19:c6:c9:c2:14:16:a1:
                    6c:b9:5e:31:a8:55:88:2c:8d:c8:52:13:a6:c6:63:
                    0d:17:a2:33:da:0c:94:bf:8a:23:3c:b0:fb:9f:50:
                    12:c8:e1:7c:e4:11:ae:c7:11:95:0d:85:7d:67:2c:
                    61:b8:ba:eb:88:cd:30:9a:0a:4d:7f:ed:75:31:5c:
                    ba:6e:3a:39:8d:98:49:d7:37:53:bd:62:3c:e2:e9:
                    87:24:b7:33:61:80:dc:da:20:c8:fb:38:95:b7:08:
                    2f:02:95:18:b0:8c:8d:c4:2e:bc:eb:3a:10:21:3e:
                    0c:d7:75:cb:6f:57:2e:6c:24:c8:b2:2e:d7:1e:27:
                    0d:91:94:da:94:16:ee:62:bc:fc:1f:e4:48:4a:4b:
                    3c:19
                Exponent: 65537 (0x10001)
        X509v3 extensions:
            X509v3 Basic Constraints: 
                CA:FALSE
            X509v3 Subject Key Identifier: 
                49:AC:DA:05:5C:3C:FA:08:4F:74:34:17:E2:67:48:14:F8:B8:9A:56
            X509v3 Authority Key Identifier: 
                keyid:23:6D:0D:14:07:D5:BF:01:88:45:03:EC:80:E4:AB:83:C9:D3:CE:27
                DirName:/CN=team660-net
                serial:3C:48:9E:93:6C:3E:72:E8:F3:15:5D:A1:8F:DC:75:CD:B9:5C:04:26

            X509v3 Extended Key Usage: 
                TLS Web Client Authentication
            X509v3 Key Usage: 
                Digital Signature
    Signature Algorithm: sha256WithRSAEncryption
         a4:25:0d:b1:fa:2f:71:00:a9:0d:9e:2f:2e:b6:b3:f0:f9:af:
         72:1d:f2:7b:dc:c7:9d:99:8a:6a:19:9e:08:92:b0:ef:4f:12:
         3d:4e:e5:14:b3:21:bd:8f:e3:0c:57:56:a9:96:44:64:26:e1:
         99:99:ef:10:cc:1e:0c:c4:2c:51:0d:36:a0:8c:36:5c:ba:6c:
         4c:26:e9:a0:c8:87:f7:a0:a6:74:25:4e:0d:d7:8e:73:d4:e2:
         03:17:1e:fb:2f:e3:f7:b5:c7:03:64:bb:76:3c:96:e4:c6:b2:
         fb:c0:82:b4:33:34:28:8d:f7:8f:90:9f:52:8a:4a:25:c6:05:
         7d:6b:74:47:48:18:c8:d3:9b:1b:ae:95:5c:4d:6e:ed:60:6e:
         b9:bb:17:60:1d:1c:76:41:72:50:fb:e6:54:fe:97:24:58:53:
         a3:d8:09:95:9f:ae:d7:66:1a:36:ef:ae:de:51:fc:72:0a:b1:
         c9:d7:c2:da:36:eb:b2:37:b8:13:71:00:06:5e:f8:59:de:f6:
         b1:09:d8:0b:e5:92:7f:85:b9:6a:5a:b2:c1:f0:cc:e5:fc:33:
         d6:05:12:99:4c:a8:9e:8d:69:bf:8a:df:57:ba:50:32:58:e0:
         8d:c1:df:59:2b:24:f0:de:f7:5e:4e:d7:3a:0e:6c:f9:89:f9:
         78:fb:b5:57
-----BEGIN CERTIFICATE-----
MIIDXTCCAkWgAwIBAgIRANaQmKKwR/oKvv0JzwOKhi0wDQYJKoZIhvcNAQELBQAw
FjEUMBIGA1UEAwwLdGVhbTY2MC1uZXQwHhcNMjIwNTE4MjMyMzA4WhcNMjUwNTAy
MjMyMzA4WjAZMRcwFQYDVQQDDA50ZWFtNjYwLWNsaWVudDCCASIwDQYJKoZIhvcN
AQEBBQADggEPADCCAQoCggEBAL1dqk/X8NNBPPzrSLLgk1aXLz0xoLUFxuQUav0B
E2ovGExz87lOKEvip6Fhpx84lpujF1er2UtQVLozioEOaC4pQKA9jyuAW7J1U1mE
6Eo+M5WheBwua0x7FVsAV8UyawsguOpqh2vRKnnr97fXQI8ZxsnCFBahbLleMahV
iCyNyFITpsZjDReiM9oMlL+KIzyw+59QEsjhfOQRrscRlQ2FfWcsYbi664jNMJoK
TX/tdTFcum46OY2YSdc3U71iPOLphyS3M2GA3NogyPs4lbcILwKVGLCMjcQuvOs6
ECE+DNd1y29XLmwkyLIu1x4nDZGU2pQW7mK8/B/kSEpLPBkCAwEAAaOBojCBnzAJ
BgNVHRMEAjAAMB0GA1UdDgQWBBRJrNoFXDz6CE90NBfiZ0gU+LiaVjBRBgNVHSME
SjBIgBQjbQ0UB9W/AYhFA+yA5KuDydPOJ6EapBgwFjEUMBIGA1UEAwwLdGVhbTY2
MC1uZXSCFDxInpNsPnLo8xVdoY/cdc25XAQmMBMGA1UdJQQMMAoGCCsGAQUFBwMC
MAsGA1UdDwQEAwIHgDANBgkqhkiG9w0BAQsFAAOCAQEApCUNsfovcQCpDZ4vLraz
8Pmvch3ye9zHnZmKahmeCJKw708SPU7lFLMhvY/jDFdWqZZEZCbhmZnvEMweDMQs
UQ02oIw2XLpsTCbpoMiH96CmdCVODdeOc9TiAxce+y/j97XHA2S7djyW5May+8CC
tDM0KI33j5CfUopKJcYFfWt0R0gYyNObG66VXE1u7WBuubsXYB0cdkFyUPvmVP6X
JFhTo9gJlZ+u12YaNu+u3lH8cgqxydfC2jbrsje4E3EABl74Wd72sQnYC+WSf4W5
alqywfDM5fwz1gUSmUyono1pv4rfV7pQMljgjcHfWSsk8N73Xk7XOg5s+Yn5ePu1
Vw==
-----END CERTIFICATE-----
