Certificate:
    Data:
        Version: 3 (0x2)
        Serial Number:
            3e:27:be:d0:ac:f2:70:98:01:db:0c:35:6a:71:79:44
        Signature Algorithm: sha256WithRSAEncryption
        Issuer: CN=team363-net
        Validity
            Not Before: May 18 20:44:12 2022 GMT
            Not After : May  2 20:44:12 2025 GMT
        Subject: CN=team363-client
        Subject Public Key Info:
            Public Key Algorithm: rsaEncryption
                RSA Public-Key: (2048 bit)
                Modulus:
                    00:f2:77:22:b8:5b:2d:61:2e:c5:6d:ac:a3:b7:a4:
                    7b:8f:ab:c9:1a:64:d3:85:65:d9:7d:84:e7:d2:a5:
                    03:2c:ff:7d:c8:45:2d:a3:46:25:b5:55:a9:63:42:
                    a3:c7:34:ea:ab:62:94:c3:9b:e4:dc:cd:a4:5d:59:
                    3e:86:ef:b2:93:91:f2:b5:4c:59:f4:5d:14:cf:6d:
                    d1:d9:2d:f6:3d:7c:c6:6d:16:99:c9:80:70:b4:d8:
                    a3:c8:fe:cf:33:cc:6f:09:c5:7f:2f:7d:c7:0a:6a:
                    2c:90:ae:88:91:55:91:d5:00:bc:18:6b:e6:a5:b5:
                    63:53:21:03:a0:fd:5a:e7:5e:3a:37:23:4f:1b:41:
                    93:57:3f:5a:f4:59:ef:67:2b:f4:da:cc:50:4d:3b:
                    17:80:cd:48:5c:85:f9:e6:b4:92:c2:04:c1:72:70:
                    26:da:cc:b2:6a:64:1e:fa:c3:28:1a:7b:bc:f2:da:
                    bd:ca:aa:9e:94:9f:9f:9e:9f:c2:ef:18:54:39:c9:
                    1c:9c:7e:fe:a8:92:a7:2c:c0:6e:d6:c9:38:ea:77:
                    b0:93:95:da:a1:65:1d:2d:57:a3:96:d5:29:f8:60:
                    51:2c:27:92:f2:a6:d9:a7:cc:f9:3c:e4:ea:fb:c3:
                    68:44:78:65:5a:2f:bf:b3:99:54:84:27:5d:e5:a7:
                    72:43
                Exponent: 65537 (0x10001)
        X509v3 extensions:
            X509v3 Basic Constraints: 
                CA:FALSE
            X509v3 Subject Key Identifier: 
                55:8D:47:D5:06:F6:3D:2D:23:56:E6:4F:CE:3D:65:2E:1C:ED:09:E2
            X509v3 Authority Key Identifier: 
                keyid:1B:0D:42:F6:2D:AB:21:11:4F:6F:0C:26:AD:43:2C:98:AC:22:9F:94
                DirName:/CN=team363-net
                serial:33:9B:1A:E2:BF:B2:B7:9F:8A:BF:D8:18:D6:A2:EE:45:BA:C1:51:59

            X509v3 Extended Key Usage: 
                TLS Web Client Authentication
            X509v3 Key Usage: 
                Digital Signature
    Signature Algorithm: sha256WithRSAEncryption
         34:22:34:29:9b:1e:a3:25:2b:a5:b9:27:14:40:96:e2:ab:3e:
         43:86:58:3a:5b:11:f1:f5:3d:74:0d:1f:18:65:c9:7e:da:5e:
         5c:bd:ee:d9:ae:ba:26:3c:1b:45:92:5a:8f:b3:2f:16:3e:d6:
         fc:49:05:25:15:24:1f:92:a0:fc:ec:6a:67:b4:00:9c:37:bf:
         4f:77:f8:1c:c9:48:d2:fe:e3:7f:70:e4:27:c4:32:69:91:34:
         ee:45:22:6b:ad:42:b5:89:70:26:8b:fa:e5:ef:90:9b:65:a7:
         74:09:dd:bd:59:b7:23:15:f2:f5:a2:22:d4:b5:54:81:03:4a:
         85:61:73:a9:a3:ef:f7:17:fc:8c:8f:43:f8:fd:8b:ae:bd:b3:
         9f:4a:93:f9:b2:96:5b:ad:e7:01:0b:8c:1d:84:ac:7f:da:c0:
         76:a5:7e:61:b4:ef:af:c9:83:fc:61:20:7e:65:53:96:5a:3f:
         f3:8f:dd:83:d1:e8:47:48:9e:71:6d:f0:5f:b0:e6:1b:ef:63:
         39:9a:a0:1b:e4:bf:37:d7:d9:af:eb:54:3e:2f:68:6e:08:3c:
         5e:f3:54:46:84:f2:63:92:e3:e0:75:0e:59:41:2c:17:24:73:
         97:c4:23:8f:fe:c8:e9:1c:4d:46:5e:8b:b4:bf:5d:5b:e5:15:
         e4:dd:5c:4c
-----BEGIN CERTIFICATE-----
MIIDXDCCAkSgAwIBAgIQPie+0KzycJgB2ww1anF5RDANBgkqhkiG9w0BAQsFADAW
MRQwEgYDVQQDDAt0ZWFtMzYzLW5ldDAeFw0yMjA1MTgyMDQ0MTJaFw0yNTA1MDIy
MDQ0MTJaMBkxFzAVBgNVBAMMDnRlYW0zNjMtY2xpZW50MIIBIjANBgkqhkiG9w0B
AQEFAAOCAQ8AMIIBCgKCAQEA8nciuFstYS7Fbayjt6R7j6vJGmTThWXZfYTn0qUD
LP99yEUto0YltVWpY0KjxzTqq2KUw5vk3M2kXVk+hu+yk5HytUxZ9F0Uz23R2S32
PXzGbRaZyYBwtNijyP7PM8xvCcV/L33HCmoskK6IkVWR1QC8GGvmpbVjUyEDoP1a
5146NyNPG0GTVz9a9FnvZyv02sxQTTsXgM1IXIX55rSSwgTBcnAm2syyamQe+sMo
Gnu88tq9yqqelJ+fnp/C7xhUOckcnH7+qJKnLMBu1sk46newk5XaoWUdLVejltUp
+GBRLCeS8qbZp8z5POTq+8NoRHhlWi+/s5lUhCdd5adyQwIDAQABo4GiMIGfMAkG
A1UdEwQCMAAwHQYDVR0OBBYEFFWNR9UG9j0tI1bmT849ZS4c7QniMFEGA1UdIwRK
MEiAFBsNQvYtqyERT28MJq1DLJisIp+UoRqkGDAWMRQwEgYDVQQDDAt0ZWFtMzYz
LW5ldIIUM5sa4r+yt5+Kv9gY1qLuRbrBUVkwEwYDVR0lBAwwCgYIKwYBBQUHAwIw
CwYDVR0PBAQDAgeAMA0GCSqGSIb3DQEBCwUAA4IBAQA0IjQpmx6jJSuluScUQJbi
qz5Dhlg6WxHx9T10DR8YZcl+2l5cve7ZrromPBtFklqPsy8WPtb8SQUlFSQfkqD8
7GpntACcN79Pd/gcyUjS/uN/cOQnxDJpkTTuRSJrrUK1iXAmi/rl75CbZad0Cd29
WbcjFfL1oiLUtVSBA0qFYXOpo+/3F/yMj0P4/YuuvbOfSpP5spZbrecBC4wdhKx/
2sB2pX5htO+vyYP8YSB+ZVOWWj/zj92D0ehHSJ5xbfBfsOYb72M5mqAb5L8319mv
61Q+L2huCDxe81RGhPJjkuPgdQ5ZQSwXJHOXxCOP/sjpHE1GXou0v11b5RXk3VxM
-----END CERTIFICATE-----
