Certificate:
    Data:
        Version: 3 (0x2)
        Serial Number:
            c6:a0:0f:fa:c6:db:fa:cd:f1:c6:3c:d3:36:e0:58:9c
        Signature Algorithm: sha256WithRSAEncryption
        Issuer: CN=team476-net
        Validity
            Not Before: May 18 21:37:57 2022 GMT
            Not After : May  2 21:37:57 2025 GMT
        Subject: CN=team476-server
        Subject Public Key Info:
            Public Key Algorithm: rsaEncryption
                RSA Public-Key: (2048 bit)
                Modulus:
                    00:d8:af:83:7d:fe:e2:7c:fb:e6:d2:0f:43:33:15:
                    87:ca:76:36:3f:ff:ae:e0:12:10:58:85:68:bf:f0:
                    84:c6:22:31:01:09:90:86:46:6d:5b:78:7f:cc:42:
                    e6:3e:3d:eb:41:f9:44:e5:5b:01:29:4e:21:c5:49:
                    6d:56:f1:af:2c:76:e3:37:ec:5e:35:1a:e4:28:bd:
                    2a:e3:3d:89:40:68:81:46:9f:47:65:71:20:fc:3a:
                    d0:a8:c2:bc:cf:ee:8b:fb:99:6d:15:54:7c:89:69:
                    65:05:40:6f:30:de:dc:7a:67:d8:3b:5f:5d:c4:e4:
                    b1:c0:e8:e9:fc:58:b7:b5:c4:06:5d:e1:5a:6a:86:
                    4c:96:a4:19:d8:78:bd:46:58:42:bf:e3:8e:e8:c3:
                    ac:d8:46:d0:02:fe:3c:0d:95:09:1a:f4:87:2d:40:
                    4b:55:d0:71:16:60:a9:6e:9f:0d:77:b0:f0:94:37:
                    ee:d0:36:3d:b6:fc:a5:cf:1f:03:da:eb:3f:b1:1a:
                    b8:53:df:fd:d2:bc:6b:bd:68:d2:06:92:0a:79:f3:
                    9b:2e:fe:67:ed:98:3a:e4:cd:b7:53:fe:0b:15:15:
                    b1:87:9d:4a:c7:44:9a:78:24:95:45:c2:60:b3:8f:
                    bc:3b:d0:ce:16:a0:26:75:92:93:58:49:c1:7b:fa:
                    4e:4d
                Exponent: 65537 (0x10001)
        X509v3 extensions:
            X509v3 Basic Constraints: 
                CA:FALSE
            X509v3 Subject Key Identifier: 
                B8:CD:66:BE:B0:16:55:73:FC:52:E7:2E:5A:1B:D1:68:21:8D:63:9D
            X509v3 Authority Key Identifier: 
                keyid:62:B3:51:B7:DB:92:73:98:0A:8E:70:F6:3B:C6:45:F6:4E:51:F8:B4
                DirName:/CN=team476-net
                serial:11:FB:E4:07:7B:C7:18:26:20:A2:C2:6F:AC:76:2A:82:B1:B7:A2:EA

            X509v3 Extended Key Usage: 
                TLS Web Server Authentication
            X509v3 Key Usage: 
                Digital Signature, Key Encipherment
            X509v3 Subject Alternative Name: 
                DNS:team476-server
    Signature Algorithm: sha256WithRSAEncryption
         b1:3a:7c:9b:11:ea:2f:24:45:bf:15:c5:cf:77:88:59:b7:45:
         55:12:c8:10:9b:b5:eb:29:d1:34:a6:c1:01:40:1f:e6:1f:4a:
         0e:13:b1:02:f2:80:b0:10:f7:ec:7f:df:1c:31:09:b1:34:cd:
         60:2c:d9:9f:8f:5a:63:bd:61:e0:e7:35:ba:a0:df:50:c0:d1:
         07:aa:a8:64:9f:dd:8d:96:fa:46:25:44:49:e3:47:55:0b:76:
         89:de:d3:85:e4:53:71:e4:2f:bc:f6:83:74:9c:ec:8d:d0:73:
         6c:66:0e:7a:e1:99:f9:c2:1d:e8:b6:70:5a:68:02:ee:55:4b:
         48:c7:c3:25:8e:48:8a:b7:a6:57:e5:53:f2:47:68:cc:50:db:
         aa:63:ab:4e:01:9b:16:b2:44:d6:66:23:47:0f:cb:44:b2:d8:
         ee:39:63:fb:80:1a:1a:92:08:d5:75:68:9c:66:6c:70:71:4e:
         40:7f:2a:db:4a:d5:3e:6b:2a:9a:17:c7:5e:e9:78:5b:a8:b0:
         d6:91:ac:db:36:97:c1:a4:9e:c9:52:f3:1a:ea:c4:5f:8b:e3:
         99:63:7d:32:4b:68:18:17:62:5e:ed:f0:46:87:32:f5:70:cd:
         cc:e8:95:ce:07:09:c3:3f:0d:8a:bd:06:ef:c8:e2:ca:4f:0f:
         44:c5:f9:ec
-----BEGIN CERTIFICATE-----
MIIDeDCCAmCgAwIBAgIRAMagD/rG2/rN8cY80zbgWJwwDQYJKoZIhvcNAQELBQAw
FjEUMBIGA1UEAwwLdGVhbTQ3Ni1uZXQwHhcNMjIwNTE4MjEzNzU3WhcNMjUwNTAy
MjEzNzU3WjAZMRcwFQYDVQQDDA50ZWFtNDc2LXNlcnZlcjCCASIwDQYJKoZIhvcN
AQEBBQADggEPADCCAQoCggEBANivg33+4nz75tIPQzMVh8p2Nj//ruASEFiFaL/w
hMYiMQEJkIZGbVt4f8xC5j4960H5ROVbASlOIcVJbVbxryx24zfsXjUa5Ci9KuM9
iUBogUafR2VxIPw60KjCvM/ui/uZbRVUfIlpZQVAbzDe3Hpn2DtfXcTkscDo6fxY
t7XEBl3hWmqGTJakGdh4vUZYQr/jjujDrNhG0AL+PA2VCRr0hy1AS1XQcRZgqW6f
DXew8JQ37tA2Pbb8pc8fA9rrP7EauFPf/dK8a71o0gaSCnnzmy7+Z+2YOuTNt1P+
CxUVsYedSsdEmngklUXCYLOPvDvQzhagJnWSk1hJwXv6Tk0CAwEAAaOBvTCBujAJ
BgNVHRMEAjAAMB0GA1UdDgQWBBS4zWa+sBZVc/xS5y5aG9FoIY1jnTBRBgNVHSME
SjBIgBRis1G325JzmAqOcPY7xkX2TlH4tKEapBgwFjEUMBIGA1UEAwwLdGVhbTQ3
Ni1uZXSCFBH75Ad7xxgmIKLCb6x2KoKxt6LqMBMGA1UdJQQMMAoGCCsGAQUFBwMB
MAsGA1UdDwQEAwIFoDAZBgNVHREEEjAQgg50ZWFtNDc2LXNlcnZlcjANBgkqhkiG
9w0BAQsFAAOCAQEAsTp8mxHqLyRFvxXFz3eIWbdFVRLIEJu16ynRNKbBAUAf5h9K
DhOxAvKAsBD37H/fHDEJsTTNYCzZn49aY71h4Oc1uqDfUMDRB6qoZJ/djZb6RiVE
SeNHVQt2id7TheRTceQvvPaDdJzsjdBzbGYOeuGZ+cId6LZwWmgC7lVLSMfDJY5I
iremV+VT8kdozFDbqmOrTgGbFrJE1mYjRw/LRLLY7jlj+4AaGpII1XVonGZscHFO
QH8q20rVPmsqmhfHXul4W6iw1pGs2zaXwaSeyVLzGurEX4vjmWN9MktoGBdiXu3w
Rocy9XDNzOiVzgcJwz8Nir0G78jiyk8PRMX57A==
-----END CERTIFICATE-----
