Certificate:
    Data:
        Version: 3 (0x2)
        Serial Number:
            24:98:5f:19:e8:a7:b0:5f:4d:18:5d:d4:44:7a:e4:48
        Signature Algorithm: sha256WithRSAEncryption
        Issuer: CN=team476-net
        Validity
            Not Before: May 18 21:37:57 2022 GMT
            Not After : May  2 21:37:57 2025 GMT
        Subject: CN=team476-client
        Subject Public Key Info:
            Public Key Algorithm: rsaEncryption
                RSA Public-Key: (2048 bit)
                Modulus:
                    00:be:6b:55:8f:9e:5f:c0:1c:45:2c:a7:37:e3:da:
                    45:b4:7b:4c:17:ec:ae:f6:a1:15:2b:cf:9e:ac:7c:
                    73:ed:f5:1c:5d:3d:aa:e3:26:4a:b5:f3:dd:3c:6d:
                    6e:5f:7c:d3:ba:84:c2:30:89:df:7d:e0:94:60:4b:
                    d5:da:c6:4b:c1:b8:ad:5f:f3:0f:93:67:43:5f:19:
                    03:60:4b:14:8b:f6:60:aa:2f:6a:d4:05:35:71:06:
                    5b:3c:d9:b2:6f:fe:67:ae:1a:10:92:95:0e:e7:51:
                    f3:ec:6d:00:c8:9c:cf:7c:75:2d:59:5a:bc:91:10:
                    2c:8c:df:71:56:89:1d:2d:d2:03:ab:2c:4e:f3:82:
                    e3:36:6c:38:0d:9d:2d:fc:11:7d:32:08:c9:80:65:
                    e7:39:be:84:59:24:af:14:21:d5:f7:ad:6b:16:4d:
                    46:32:7a:b1:f1:50:6b:87:a8:1a:5d:d9:8c:44:d9:
                    e3:e7:a4:ee:35:e2:df:19:6b:44:ad:8a:f9:62:5a:
                    8e:ac:cd:42:33:b8:ea:ff:ef:51:96:e2:89:2b:d1:
                    1e:65:8c:f6:4f:16:89:2e:05:8d:ae:77:d2:d1:14:
                    5d:16:19:06:a3:61:4f:d9:3e:eb:f6:80:e5:05:28:
                    8e:50:18:9b:1e:68:a4:6d:1e:e0:02:cb:6a:b7:d5:
                    fb:45
                Exponent: 65537 (0x10001)
        X509v3 extensions:
            X509v3 Basic Constraints: 
                CA:FALSE
            X509v3 Subject Key Identifier: 
                A3:5C:3A:74:B0:E2:B9:85:03:FB:5C:24:9B:2E:DC:00:8C:3F:E5:23
            X509v3 Authority Key Identifier: 
                keyid:62:B3:51:B7:DB:92:73:98:0A:8E:70:F6:3B:C6:45:F6:4E:51:F8:B4
                DirName:/CN=team476-net
                serial:11:FB:E4:07:7B:C7:18:26:20:A2:C2:6F:AC:76:2A:82:B1:B7:A2:EA

            X509v3 Extended Key Usage: 
                TLS Web Client Authentication
            X509v3 Key Usage: 
                Digital Signature
    Signature Algorithm: sha256WithRSAEncryption
         a2:09:99:b7:81:ab:8d:b5:12:90:85:e3:60:8d:d8:28:8f:ae:
         a4:f6:79:98:28:ca:b1:77:b4:cc:3a:5a:03:a5:19:d0:cb:33:
         d1:34:b9:9f:aa:3b:4b:2e:59:e0:c7:91:89:2e:9a:67:d1:60:
         af:f7:a8:67:4c:3c:87:56:fa:42:ed:7d:99:e4:30:b9:0a:86:
         a6:98:24:32:03:65:16:36:9d:55:be:1d:f7:2e:bf:c2:08:32:
         67:ad:ed:e2:58:05:5f:7d:b6:19:cf:ed:c4:1b:c9:96:47:5f:
         8b:a5:7d:a8:08:b3:9a:9e:a4:a7:fa:e6:74:2a:4b:08:c3:31:
         f0:99:d1:71:f8:1d:2b:80:53:d1:11:d7:96:57:b0:95:f7:2e:
         fd:a5:8f:b6:f7:44:b2:ae:73:d7:41:a9:a7:6e:47:cc:cc:00:
         dd:d5:1c:0e:25:f2:f1:b5:9f:c2:ef:4e:2c:56:f5:42:65:cd:
         2f:9d:e2:27:40:b1:8d:9b:4e:9a:38:8d:b7:ac:d7:f3:d0:9e:
         f5:2b:1e:83:10:f8:65:d3:97:7f:c9:2f:3c:e9:fd:5d:c1:25:
         00:56:c3:13:fb:9f:0b:6e:20:7d:3b:9a:b5:77:37:1c:34:5b:
         1a:12:7c:64:46:4b:df:1f:41:a0:45:55:dd:ea:9a:ca:25:cf:
         44:31:d3:d0
-----BEGIN CERTIFICATE-----
MIIDXDCCAkSgAwIBAgIQJJhfGeinsF9NGF3URHrkSDANBgkqhkiG9w0BAQsFADAW
MRQwEgYDVQQDDAt0ZWFtNDc2LW5ldDAeFw0yMjA1MTgyMTM3NTdaFw0yNTA1MDIy
MTM3NTdaMBkxFzAVBgNVBAMMDnRlYW00NzYtY2xpZW50MIIBIjANBgkqhkiG9w0B
AQEFAAOCAQ8AMIIBCgKCAQEAvmtVj55fwBxFLKc349pFtHtMF+yu9qEVK8+erHxz
7fUcXT2q4yZKtfPdPG1uX3zTuoTCMInffeCUYEvV2sZLwbitX/MPk2dDXxkDYEsU
i/Zgqi9q1AU1cQZbPNmyb/5nrhoQkpUO51Hz7G0AyJzPfHUtWVq8kRAsjN9xVokd
LdIDqyxO84LjNmw4DZ0t/BF9MgjJgGXnOb6EWSSvFCHV961rFk1GMnqx8VBrh6ga
XdmMRNnj56TuNeLfGWtErYr5YlqOrM1CM7jq/+9RluKJK9EeZYz2TxaJLgWNrnfS
0RRdFhkGo2FP2T7r9oDlBSiOUBibHmikbR7gAstqt9X7RQIDAQABo4GiMIGfMAkG
A1UdEwQCMAAwHQYDVR0OBBYEFKNcOnSw4rmFA/tcJJsu3ACMP+UjMFEGA1UdIwRK
MEiAFGKzUbfbknOYCo5w9jvGRfZOUfi0oRqkGDAWMRQwEgYDVQQDDAt0ZWFtNDc2
LW5ldIIUEfvkB3vHGCYgosJvrHYqgrG3ouowEwYDVR0lBAwwCgYIKwYBBQUHAwIw
CwYDVR0PBAQDAgeAMA0GCSqGSIb3DQEBCwUAA4IBAQCiCZm3gauNtRKQheNgjdgo
j66k9nmYKMqxd7TMOloDpRnQyzPRNLmfqjtLLlngx5GJLppn0WCv96hnTDyHVvpC
7X2Z5DC5CoammCQyA2UWNp1Vvh33Lr/CCDJnre3iWAVffbYZz+3EG8mWR1+LpX2o
CLOanqSn+uZ0KksIwzHwmdFx+B0rgFPREdeWV7CV9y79pY+290SyrnPXQamnbkfM
zADd1RwOJfLxtZ/C704sVvVCZc0vneInQLGNm06aOI23rNfz0J71Kx6DEPhl05d/
yS886f1dwSUAVsMT+58LbiB9O5q1dzccNFsaEnxkRkvfH0GgRVXd6prKJc9EMdPQ
-----END CERTIFICATE-----
