Certificate:
    Data:
        Version: 3 (0x2)
        Serial Number:
            eb:84:07:48:29:64:8e:e1:a3:4e:02:cf:ed:33:60:21
        Signature Algorithm: sha256WithRSAEncryption
        Issuer: CN=team152-net
        Validity
            Not Before: May 18 18:42:52 2022 GMT
            Not After : May  2 18:42:52 2025 GMT
        Subject: CN=team152-server
        Subject Public Key Info:
            Public Key Algorithm: rsaEncryption
                RSA Public-Key: (2048 bit)
                Modulus:
                    00:ae:f7:2b:72:91:f4:ba:df:1f:42:e4:94:cb:36:
                    d0:b1:6b:ec:89:f6:7a:1f:34:f6:a9:bc:e8:f1:61:
                    3b:bf:cd:09:f2:6c:34:08:89:4b:63:04:12:70:07:
                    ee:57:0d:09:e6:9b:7d:e9:2f:3d:8a:a3:3b:4b:7e:
                    0d:aa:dc:68:a7:90:0e:54:c0:4e:67:94:02:7f:85:
                    2b:a1:96:28:7c:2c:99:66:28:31:61:d3:b5:7c:30:
                    f9:ea:b3:a5:d9:6f:a3:34:ad:ef:76:31:35:9c:fd:
                    3f:e9:d5:7a:4f:9f:ea:07:bb:9e:64:88:5c:a8:f8:
                    5f:c6:c0:09:e7:87:7e:3a:b5:9a:b5:ad:ca:13:55:
                    a5:9e:86:7d:fa:9f:e4:f0:c2:74:5d:f0:01:a5:69:
                    37:8d:bc:80:44:58:a0:4a:ff:7b:51:85:cb:ec:04:
                    24:31:c8:5c:5d:3c:06:9b:62:ce:17:c1:a8:ed:94:
                    a5:39:b9:eb:d4:f0:bd:9f:c5:c0:6c:73:5e:a5:fc:
                    23:4a:a0:02:eb:ba:42:77:04:0e:9a:4b:e8:73:d6:
                    b5:49:ff:2b:ee:42:42:96:b1:61:4f:d6:60:33:38:
                    78:f5:b3:a8:18:7f:c1:17:bb:33:ec:cf:f8:fc:a6:
                    fc:10:73:7d:f1:32:42:e9:d7:f6:e3:bd:52:eb:76:
                    01:95
                Exponent: 65537 (0x10001)
        X509v3 extensions:
            X509v3 Basic Constraints: 
                CA:FALSE
            X509v3 Subject Key Identifier: 
                39:5F:C2:C7:6E:8B:FA:0B:3F:45:3F:F6:7E:D2:09:2D:BA:07:3D:5E
            X509v3 Authority Key Identifier: 
                keyid:12:21:7D:C5:8B:25:CB:3B:A4:50:3E:D5:99:19:54:85:53:F7:7C:F1
                DirName:/CN=team152-net
                serial:15:C5:5D:2D:1F:A7:38:B6:2F:06:0A:EB:62:C7:ED:47:03:91:2A:E9

            X509v3 Extended Key Usage: 
                TLS Web Server Authentication
            X509v3 Key Usage: 
                Digital Signature, Key Encipherment
            X509v3 Subject Alternative Name: 
                DNS:team152-server
    Signature Algorithm: sha256WithRSAEncryption
         8c:b1:ac:f8:4d:bc:a7:28:62:c4:45:b7:05:42:0f:a8:7d:1c:
         a3:cd:c3:af:56:13:b7:d4:60:2e:0e:8c:5e:ac:2a:54:e9:4b:
         8d:67:fa:32:87:33:9f:ea:57:93:fe:eb:1c:39:77:99:2e:7c:
         a1:02:57:db:26:00:08:0d:19:f1:22:c5:2b:a4:eb:fa:c1:fc:
         38:93:fc:9f:18:45:2b:7f:53:3e:ce:82:5f:d3:36:ea:14:e6:
         2a:59:2a:03:ac:b9:60:e5:d0:fd:21:25:66:1c:b8:07:64:b3:
         39:42:4b:07:f0:a2:23:59:ee:e3:3d:97:c1:51:61:ea:57:82:
         8c:6d:b8:f1:33:e9:99:1f:9f:9d:53:14:a6:83:3c:2a:74:d2:
         21:9e:a2:73:5b:71:42:1d:98:98:e5:90:40:33:6d:25:9c:bb:
         f4:bd:15:32:4a:36:5f:e7:61:5b:cf:ad:64:80:93:41:89:01:
         e9:e0:e4:75:7a:0c:c0:30:d8:b0:85:64:d9:f8:b8:df:ab:db:
         36:41:48:02:86:aa:84:9f:28:63:26:0c:a7:28:96:1d:34:36:
         28:03:c6:a2:2a:9e:55:34:b7:ab:e6:f9:6b:f2:7d:6a:91:38:
         b2:6c:62:e5:14:d2:4b:c6:ab:10:5f:53:81:3a:1e:75:ed:76:
         95:e2:ba:1a
-----BEGIN CERTIFICATE-----
MIIDeDCCAmCgAwIBAgIRAOuEB0gpZI7ho04Cz+0zYCEwDQYJKoZIhvcNAQELBQAw
FjEUMBIGA1UEAwwLdGVhbTE1Mi1uZXQwHhcNMjIwNTE4MTg0MjUyWhcNMjUwNTAy
MTg0MjUyWjAZMRcwFQYDVQQDDA50ZWFtMTUyLXNlcnZlcjCCASIwDQYJKoZIhvcN
AQEBBQADggEPADCCAQoCggEBAK73K3KR9LrfH0LklMs20LFr7In2eh809qm86PFh
O7/NCfJsNAiJS2MEEnAH7lcNCeabfekvPYqjO0t+DarcaKeQDlTATmeUAn+FK6GW
KHwsmWYoMWHTtXww+eqzpdlvozSt73YxNZz9P+nVek+f6ge7nmSIXKj4X8bACeeH
fjq1mrWtyhNVpZ6Gffqf5PDCdF3wAaVpN428gERYoEr/e1GFy+wEJDHIXF08Bpti
zhfBqO2UpTm569TwvZ/FwGxzXqX8I0qgAuu6QncEDppL6HPWtUn/K+5CQpaxYU/W
YDM4ePWzqBh/wRe7M+zP+Pym/BBzffEyQunX9uO9Uut2AZUCAwEAAaOBvTCBujAJ
BgNVHRMEAjAAMB0GA1UdDgQWBBQ5X8LHbov6Cz9FP/Z+0gktugc9XjBRBgNVHSME
SjBIgBQSIX3FiyXLO6RQPtWZGVSFU/d88aEapBgwFjEUMBIGA1UEAwwLdGVhbTE1
Mi1uZXSCFBXFXS0fpzi2LwYK62LH7UcDkSrpMBMGA1UdJQQMMAoGCCsGAQUFBwMB
MAsGA1UdDwQEAwIFoDAZBgNVHREEEjAQgg50ZWFtMTUyLXNlcnZlcjANBgkqhkiG
9w0BAQsFAAOCAQEAjLGs+E28pyhixEW3BUIPqH0co83Dr1YTt9RgLg6MXqwqVOlL
jWf6Moczn+pXk/7rHDl3mS58oQJX2yYACA0Z8SLFK6Tr+sH8OJP8nxhFK39TPs6C
X9M26hTmKlkqA6y5YOXQ/SElZhy4B2SzOUJLB/CiI1nu4z2XwVFh6leCjG248TPp
mR+fnVMUpoM8KnTSIZ6ic1txQh2YmOWQQDNtJZy79L0VMko2X+dhW8+tZICTQYkB
6eDkdXoMwDDYsIVk2fi436vbNkFIAoaqhJ8oYyYMpyiWHTQ2KAPGoiqeVTS3q+b5
a/J9apE4smxi5RTSS8arEF9TgToede12leK6Gg==
-----END CERTIFICATE-----
