Certificate:
    Data:
        Version: 3 (0x2)
        Serial Number:
            20:36:4c:aa:80:e8:99:7b:90:67:9c:0e:d4:64:cf:36
        Signature Algorithm: sha256WithRSAEncryption
        Issuer: CN=team539-net
        Validity
            Not Before: May 18 22:08:50 2022 GMT
            Not After : May  2 22:08:50 2025 GMT
        Subject: CN=team539-client
        Subject Public Key Info:
            Public Key Algorithm: rsaEncryption
                RSA Public-Key: (2048 bit)
                Modulus:
                    00:c4:47:f7:69:73:af:8c:06:d2:3f:f2:ca:62:be:
                    f7:c1:f4:56:39:b6:62:d7:8d:2e:e8:da:e3:18:c5:
                    32:d8:88:aa:d2:b9:09:5e:d4:65:a4:c9:d6:72:6a:
                    59:af:22:96:27:b2:ce:30:3a:7e:9f:b8:1e:bc:37:
                    51:c0:74:16:56:d7:cf:10:dc:3c:0e:36:3e:6c:c7:
                    94:78:9e:98:ce:b9:a8:5a:e4:87:c0:70:a7:1f:94:
                    96:25:2f:14:59:00:82:70:d5:1b:98:d6:80:44:d3:
                    97:dc:5b:e0:a8:f4:a8:07:81:bf:21:10:e2:72:5a:
                    b4:3c:b7:76:e2:ff:12:c7:0e:2b:de:c5:54:c5:c6:
                    ba:43:45:d2:f5:64:4a:b0:bf:a1:cb:25:bf:25:31:
                    4a:9c:07:d1:fb:9a:30:2f:55:82:28:63:fa:3d:af:
                    aa:4b:72:ac:ac:c9:95:47:55:06:fb:39:90:ae:1f:
                    87:17:1c:47:9b:51:11:ab:e3:df:dc:7b:e9:74:af:
                    34:71:4c:61:82:35:d8:57:e0:3a:6d:6b:77:33:53:
                    20:53:31:75:b9:16:cd:e3:34:73:d9:33:19:75:aa:
                    d6:2e:68:c7:85:bf:5a:77:77:f2:0b:fd:25:7f:12:
                    bb:9e:d3:79:dd:6d:7b:67:ae:2e:37:13:b1:aa:b9:
                    65:91
                Exponent: 65537 (0x10001)
        X509v3 extensions:
            X509v3 Basic Constraints: 
                CA:FALSE
            X509v3 Subject Key Identifier: 
                26:8A:FA:61:BD:53:EF:89:EC:86:41:82:2F:F8:9D:BF:A2:CF:8F:53
            X509v3 Authority Key Identifier: 
                keyid:B0:64:C0:D7:04:B5:10:07:D9:45:E5:C8:1C:F4:7E:98:EB:00:5B:FD
                DirName:/CN=team539-net
                serial:4F:59:DE:5B:72:9E:47:1D:7D:79:62:9F:89:72:3F:D3:04:27:29:89

            X509v3 Extended Key Usage: 
                TLS Web Client Authentication
            X509v3 Key Usage: 
                Digital Signature
    Signature Algorithm: sha256WithRSAEncryption
         4f:24:00:8a:30:e5:d4:e8:e2:ab:70:9f:38:64:0e:fa:2a:22:
         ad:24:53:3c:5a:53:0f:99:42:8d:f4:45:eb:64:71:4a:58:a6:
         5c:19:19:4d:e4:80:c2:52:ff:48:99:41:01:8f:22:fb:0c:e1:
         ca:89:be:22:68:01:81:7e:32:a9:28:b5:ae:72:f3:a9:c2:54:
         26:6c:7c:78:e9:73:07:4b:96:31:7d:90:e6:1d:b1:bd:b8:3e:
         61:fe:bf:61:c1:f5:fa:ee:32:6b:22:c1:ce:ca:94:4c:a6:81:
         29:5f:14:52:08:1a:6f:c8:21:2d:71:f7:42:9d:b4:5b:7d:69:
         d4:05:32:e9:3a:91:df:37:28:18:fb:6e:03:a6:5d:48:af:81:
         57:db:a8:79:d4:1c:1d:c6:49:8d:1a:70:9f:e5:60:48:b6:a7:
         14:6e:01:92:9e:af:b6:fa:9f:c1:02:75:4c:08:6d:43:9e:ee:
         6a:82:73:57:55:06:cb:72:96:ff:ba:6c:0d:4b:ea:ec:d3:ef:
         12:39:37:0f:a2:13:35:46:c7:9a:4e:e3:cd:4a:96:e1:7d:41:
         07:10:59:a9:d1:c2:ba:c7:6a:b6:75:19:2a:4d:2a:96:16:6d:
         85:4e:40:da:d2:cf:af:fb:51:69:f8:99:c0:4c:d2:4b:b6:78:
         fd:4c:e9:01
-----BEGIN CERTIFICATE-----
MIIDXDCCAkSgAwIBAgIQIDZMqoDomXuQZ5wO1GTPNjANBgkqhkiG9w0BAQsFADAW
MRQwEgYDVQQDDAt0ZWFtNTM5LW5ldDAeFw0yMjA1MTgyMjA4NTBaFw0yNTA1MDIy
MjA4NTBaMBkxFzAVBgNVBAMMDnRlYW01MzktY2xpZW50MIIBIjANBgkqhkiG9w0B
AQEFAAOCAQ8AMIIBCgKCAQEAxEf3aXOvjAbSP/LKYr73wfRWObZi140u6NrjGMUy
2Iiq0rkJXtRlpMnWcmpZryKWJ7LOMDp+n7gevDdRwHQWVtfPENw8DjY+bMeUeJ6Y
zrmoWuSHwHCnH5SWJS8UWQCCcNUbmNaARNOX3FvgqPSoB4G/IRDiclq0PLd24v8S
xw4r3sVUxca6Q0XS9WRKsL+hyyW/JTFKnAfR+5owL1WCKGP6Pa+qS3KsrMmVR1UG
+zmQrh+HFxxHm1ERq+Pf3HvpdK80cUxhgjXYV+A6bWt3M1MgUzF1uRbN4zRz2TMZ
darWLmjHhb9ad3fyC/0lfxK7ntN53W17Z64uNxOxqrllkQIDAQABo4GiMIGfMAkG
A1UdEwQCMAAwHQYDVR0OBBYEFCaK+mG9U++J7IZBgi/4nb+iz49TMFEGA1UdIwRK
MEiAFLBkwNcEtRAH2UXlyBz0fpjrAFv9oRqkGDAWMRQwEgYDVQQDDAt0ZWFtNTM5
LW5ldIIUT1neW3KeRx19eWKfiXI/0wQnKYkwEwYDVR0lBAwwCgYIKwYBBQUHAwIw
CwYDVR0PBAQDAgeAMA0GCSqGSIb3DQEBCwUAA4IBAQBPJACKMOXU6OKrcJ84ZA76
KiKtJFM8WlMPmUKN9EXrZHFKWKZcGRlN5IDCUv9ImUEBjyL7DOHKib4iaAGBfjKp
KLWucvOpwlQmbHx46XMHS5YxfZDmHbG9uD5h/r9hwfX67jJrIsHOypRMpoEpXxRS
CBpvyCEtcfdCnbRbfWnUBTLpOpHfNygY+24Dpl1Ir4FX26h51BwdxkmNGnCf5WBI
tqcUbgGSnq+2+p/BAnVMCG1Dnu5qgnNXVQbLcpb/umwNS+rs0+8SOTcPohM1Rsea
TuPNSpbhfUEHEFmp0cK6x2q2dRkqTSqWFm2FTkDa0s+v+1Fp+JnATNJLtnj9TOkB
-----END CERTIFICATE-----
