Certificate:
    Data:
        Version: 3 (0x2)
        Serial Number:
            3a:ff:6b:29:ac:d6:88:2d:4d:19:b8:b3:8b:e1:67:77
        Signature Algorithm: sha256WithRSAEncryption
        Issuer: CN=team539-net
        Validity
            Not Before: May 18 22:08:50 2022 GMT
            Not After : May  2 22:08:50 2025 GMT
        Subject: CN=team539-server
        Subject Public Key Info:
            Public Key Algorithm: rsaEncryption
                RSA Public-Key: (2048 bit)
                Modulus:
                    00:e1:0f:7f:cf:34:90:98:cf:e1:58:34:d0:4f:be:
                    e0:bb:51:c8:6a:8c:b7:48:2a:71:aa:45:fb:df:10:
                    68:00:87:50:66:24:da:3b:6e:a0:29:d4:7b:32:e0:
                    4a:ab:b8:7c:53:d7:1a:a3:5b:fd:4d:92:86:b6:24:
                    47:48:2c:4c:28:c0:40:56:ec:4f:ab:6f:07:ff:dd:
                    64:80:60:cb:2b:14:e5:31:ea:bf:91:e8:c5:0c:d8:
                    66:38:b4:8d:40:9e:90:a4:24:4d:29:0d:bb:b9:6d:
                    b5:28:37:aa:fd:60:ee:96:1c:70:35:f8:8b:2a:48:
                    cf:d0:51:9b:ac:be:73:2f:87:b4:4b:70:b6:d4:cf:
                    c9:68:c4:a9:1c:40:fb:62:df:74:72:44:a1:70:b4:
                    23:26:16:65:bc:ca:dc:52:c5:35:11:b4:0e:8b:27:
                    47:ba:97:51:d1:9f:29:94:3f:dc:b0:1d:47:45:19:
                    43:9c:68:ed:bf:fd:a0:dd:91:df:94:e8:0e:30:7b:
                    76:d0:85:7c:73:6a:a7:5a:c1:5f:3d:e6:a3:54:95:
                    95:c3:0f:88:ff:a7:20:a0:11:6b:c5:bb:68:39:91:
                    20:59:c0:8d:9d:32:93:19:fe:ba:a6:e1:26:d6:56:
                    b0:fc:34:14:9c:49:a2:23:a5:20:f9:1c:4e:db:41:
                    d1:0f
                Exponent: 65537 (0x10001)
        X509v3 extensions:
            X509v3 Basic Constraints: 
                CA:FALSE
            X509v3 Subject Key Identifier: 
                E1:5D:BD:EF:FB:14:BD:0B:C0:80:92:28:4E:95:AE:96:47:C9:84:83
            X509v3 Authority Key Identifier: 
                keyid:B0:64:C0:D7:04:B5:10:07:D9:45:E5:C8:1C:F4:7E:98:EB:00:5B:FD
                DirName:/CN=team539-net
                serial:4F:59:DE:5B:72:9E:47:1D:7D:79:62:9F:89:72:3F:D3:04:27:29:89

            X509v3 Extended Key Usage: 
                TLS Web Server Authentication
            X509v3 Key Usage: 
                Digital Signature, Key Encipherment
            X509v3 Subject Alternative Name: 
                DNS:team539-server
    Signature Algorithm: sha256WithRSAEncryption
         bc:0f:8b:0b:26:4b:a8:85:99:be:77:b3:73:5b:96:88:f2:d5:
         9e:f8:eb:bd:7a:30:d0:9c:65:74:7b:ae:bc:ed:20:0b:23:53:
         38:9d:37:75:4a:de:8f:14:1e:44:96:8a:6e:77:44:09:cd:ac:
         2b:ea:81:f8:7c:b7:ee:8f:42:33:49:00:45:32:fb:74:12:23:
         f7:06:e2:ce:40:32:b9:88:db:37:f5:3e:77:d2:c7:c6:86:a7:
         50:12:67:5c:c2:49:90:9f:88:58:83:0c:e9:09:fb:4d:b9:e2:
         2f:50:18:a2:e1:71:fa:46:f0:a8:02:47:40:dd:ad:10:f4:e2:
         68:de:e8:1b:c7:fe:c4:79:dc:16:be:ea:e0:92:5c:31:b4:b9:
         44:2f:08:08:b0:3e:67:11:68:5a:c0:3b:0b:be:cc:fe:2d:67:
         b2:ba:1a:be:c7:9b:af:d5:3d:77:a2:7e:cf:b3:04:92:c2:84:
         e5:10:43:26:42:12:3d:bb:44:4a:21:2d:1d:1c:25:8b:f2:f8:
         f0:ed:09:06:58:d3:b0:15:b9:5a:f1:f1:63:09:cd:1f:41:6e:
         c7:ba:ad:7b:5c:5d:36:d7:d6:f3:0f:a7:a0:19:72:48:c1:94:
         4e:b3:e8:b0:b1:9a:9a:3b:d7:d7:de:a3:eb:49:4a:f8:5f:ce:
         c4:2c:a2:81
-----BEGIN CERTIFICATE-----
MIIDdzCCAl+gAwIBAgIQOv9rKazWiC1NGbizi+FndzANBgkqhkiG9w0BAQsFADAW
MRQwEgYDVQQDDAt0ZWFtNTM5LW5ldDAeFw0yMjA1MTgyMjA4NTBaFw0yNTA1MDIy
MjA4NTBaMBkxFzAVBgNVBAMMDnRlYW01Mzktc2VydmVyMIIBIjANBgkqhkiG9w0B
AQEFAAOCAQ8AMIIBCgKCAQEA4Q9/zzSQmM/hWDTQT77gu1HIaoy3SCpxqkX73xBo
AIdQZiTaO26gKdR7MuBKq7h8U9cao1v9TZKGtiRHSCxMKMBAVuxPq28H/91kgGDL
KxTlMeq/kejFDNhmOLSNQJ6QpCRNKQ27uW21KDeq/WDulhxwNfiLKkjP0FGbrL5z
L4e0S3C21M/JaMSpHED7Yt90ckShcLQjJhZlvMrcUsU1EbQOiydHupdR0Z8plD/c
sB1HRRlDnGjtv/2g3ZHflOgOMHt20IV8c2qnWsFfPeajVJWVww+I/6cgoBFrxbto
OZEgWcCNnTKTGf66puEm1law/DQUnEmiI6Ug+RxO20HRDwIDAQABo4G9MIG6MAkG
A1UdEwQCMAAwHQYDVR0OBBYEFOFdve/7FL0LwICSKE6VrpZHyYSDMFEGA1UdIwRK
MEiAFLBkwNcEtRAH2UXlyBz0fpjrAFv9oRqkGDAWMRQwEgYDVQQDDAt0ZWFtNTM5
LW5ldIIUT1neW3KeRx19eWKfiXI/0wQnKYkwEwYDVR0lBAwwCgYIKwYBBQUHAwEw
CwYDVR0PBAQDAgWgMBkGA1UdEQQSMBCCDnRlYW01Mzktc2VydmVyMA0GCSqGSIb3
DQEBCwUAA4IBAQC8D4sLJkuohZm+d7NzW5aI8tWe+Ou9ejDQnGV0e6687SALI1M4
nTd1St6PFB5Elopud0QJzawr6oH4fLfuj0IzSQBFMvt0EiP3BuLOQDK5iNs39T53
0sfGhqdQEmdcwkmQn4hYgwzpCftNueIvUBii4XH6RvCoAkdA3a0Q9OJo3ugbx/7E
edwWvurgklwxtLlELwgIsD5nEWhawDsLvsz+LWeyuhq+x5uv1T13on7PswSSwoTl
EEMmQhI9u0RKIS0dHCWL8vjw7QkGWNOwFbla8fFjCc0fQW7Huq17XF0219bzD6eg
GXJIwZROs+iwsZqaO9fX3qPrSUr4X87ELKKB
-----END CERTIFICATE-----
