Certificate:
    Data:
        Version: 3 (0x2)
        Serial Number:
            92:8e:68:93:8f:37:a1:5b:81:54:36:0f:8a:cb:55:28
        Signature Algorithm: sha256WithRSAEncryption
        Issuer: CN=team594-net
        Validity
            Not Before: May 18 22:46:04 2022 GMT
            Not After : May  2 22:46:04 2025 GMT
        Subject: CN=team594-server
        Subject Public Key Info:
            Public Key Algorithm: rsaEncryption
                RSA Public-Key: (2048 bit)
                Modulus:
                    00:ac:4c:d3:1f:95:fa:c8:c4:df:de:5a:90:8e:ba:
                    0f:9e:fc:25:b8:91:0c:44:7c:27:88:e7:61:48:0a:
                    8d:6b:3b:89:85:72:cb:be:79:04:5f:fd:d0:bc:b0:
                    40:73:7f:ef:4c:fd:6c:7e:70:44:d9:d9:a0:dd:90:
                    6a:82:d7:f9:0a:27:e5:ec:1e:ca:44:7c:a5:f3:a4:
                    1f:c3:5c:b0:5b:71:54:30:c1:82:47:81:48:0b:bd:
                    69:5b:77:d6:d9:a9:6b:6a:57:5c:a9:7c:d9:cf:8f:
                    d7:ab:ba:28:82:8d:33:0f:45:16:5e:4e:51:19:5b:
                    42:cb:28:27:3c:fa:d6:7f:ac:41:b7:da:6e:fe:47:
                    1f:10:b4:76:48:40:6a:67:a4:3d:93:ab:33:34:11:
                    80:96:68:00:56:fc:0f:bc:3a:9a:b1:d3:d4:73:17:
                    fc:75:94:d8:0a:d4:dc:95:10:63:ee:df:82:74:1c:
                    2e:af:16:11:89:65:0e:30:51:dc:94:e7:29:42:a6:
                    cd:27:e6:52:96:08:50:65:3a:7a:63:87:d6:83:ed:
                    4e:ab:da:cc:cb:c2:e9:50:df:17:5c:cb:c8:48:99:
                    af:23:db:8d:43:b0:ff:b2:7d:33:a5:a6:bc:7a:ff:
                    99:10:39:7c:46:be:9e:b4:52:39:90:b8:f5:d0:05:
                    57:63
                Exponent: 65537 (0x10001)
        X509v3 extensions:
            X509v3 Basic Constraints: 
                CA:FALSE
            X509v3 Subject Key Identifier: 
                AF:49:D5:3B:5D:A6:57:8E:E1:B9:8A:B0:F9:9A:36:F5:84:B2:6A:55
            X509v3 Authority Key Identifier: 
                keyid:EB:7E:86:69:B1:AD:0B:04:10:E4:04:B9:DE:39:BC:A0:51:AB:11:74
                DirName:/CN=team594-net
                serial:3E:E6:F6:A7:74:28:4F:79:4F:DE:BF:BF:FC:7F:53:3D:D0:05:8F:76

            X509v3 Extended Key Usage: 
                TLS Web Server Authentication
            X509v3 Key Usage: 
                Digital Signature, Key Encipherment
            X509v3 Subject Alternative Name: 
                DNS:team594-server
    Signature Algorithm: sha256WithRSAEncryption
         81:d3:8c:11:5a:92:94:cd:ae:9d:4c:46:25:6e:22:ad:18:85:
         0f:59:cf:31:05:48:1f:63:c0:b7:28:1d:4e:19:ec:43:50:11:
         34:3e:5b:31:02:43:75:f1:36:1a:6b:62:ba:17:fc:6b:cf:ed:
         da:22:de:77:03:44:98:97:6b:34:71:06:67:41:64:2c:06:2b:
         97:e3:90:a1:23:69:8a:26:68:fc:82:f2:ab:30:c3:fc:e5:8f:
         2c:32:8f:63:e9:c6:fd:c8:b6:4c:90:1a:24:49:50:6f:63:65:
         ce:2c:74:48:f0:3b:d8:c5:26:7e:27:93:f7:13:d7:21:30:68:
         42:f0:02:c5:c5:93:5a:c7:a0:2a:43:7b:14:10:9e:84:b7:19:
         1e:9c:e2:bf:b2:ab:f6:24:5a:f5:07:7d:db:a8:38:94:f6:3c:
         0e:71:38:65:c9:0f:e8:e9:eb:7e:83:85:53:bd:ff:45:d1:0a:
         03:5e:6e:c3:c4:ec:c6:e5:6e:53:c7:21:af:0a:f5:e8:cc:c3:
         db:27:6b:6d:1d:11:dc:b5:8e:23:49:07:a4:f4:a0:e9:35:86:
         34:07:09:4c:bb:2f:c1:93:24:58:21:33:01:c6:cd:58:15:66:
         0e:6d:14:a7:bf:2b:0f:3e:f3:72:7c:e5:58:9a:44:d2:a0:7b:
         99:eb:1a:c8
-----BEGIN CERTIFICATE-----
MIIDeDCCAmCgAwIBAgIRAJKOaJOPN6FbgVQ2D4rLVSgwDQYJKoZIhvcNAQELBQAw
FjEUMBIGA1UEAwwLdGVhbTU5NC1uZXQwHhcNMjIwNTE4MjI0NjA0WhcNMjUwNTAy
MjI0NjA0WjAZMRcwFQYDVQQDDA50ZWFtNTk0LXNlcnZlcjCCASIwDQYJKoZIhvcN
AQEBBQADggEPADCCAQoCggEBAKxM0x+V+sjE395akI66D578JbiRDER8J4jnYUgK
jWs7iYVyy755BF/90LywQHN/70z9bH5wRNnZoN2QaoLX+Qon5eweykR8pfOkH8Nc
sFtxVDDBgkeBSAu9aVt31tmpa2pXXKl82c+P16u6KIKNMw9FFl5OURlbQssoJzz6
1n+sQbfabv5HHxC0dkhAamekPZOrMzQRgJZoAFb8D7w6mrHT1HMX/HWU2ArU3JUQ
Y+7fgnQcLq8WEYllDjBR3JTnKUKmzSfmUpYIUGU6emOH1oPtTqvazMvC6VDfF1zL
yEiZryPbjUOw/7J9M6WmvHr/mRA5fEa+nrRSOZC49dAFV2MCAwEAAaOBvTCBujAJ
BgNVHRMEAjAAMB0GA1UdDgQWBBSvSdU7XaZXjuG5irD5mjb1hLJqVTBRBgNVHSME
SjBIgBTrfoZpsa0LBBDkBLneObygUasRdKEapBgwFjEUMBIGA1UEAwwLdGVhbTU5
NC1uZXSCFD7m9qd0KE95T96/v/x/Uz3QBY92MBMGA1UdJQQMMAoGCCsGAQUFBwMB
MAsGA1UdDwQEAwIFoDAZBgNVHREEEjAQgg50ZWFtNTk0LXNlcnZlcjANBgkqhkiG
9w0BAQsFAAOCAQEAgdOMEVqSlM2unUxGJW4irRiFD1nPMQVIH2PAtygdThnsQ1AR
ND5bMQJDdfE2Gmtiuhf8a8/t2iLedwNEmJdrNHEGZ0FkLAYrl+OQoSNpiiZo/ILy
qzDD/OWPLDKPY+nG/ci2TJAaJElQb2Nlzix0SPA72MUmfieT9xPXITBoQvACxcWT
WsegKkN7FBCehLcZHpziv7Kr9iRa9Qd926g4lPY8DnE4ZckP6OnrfoOFU73/RdEK
A15uw8TsxuVuU8chrwr16MzD2ydrbR0R3LWOI0kHpPSg6TWGNAcJTLsvwZMkWCEz
AcbNWBVmDm0Up78rDz7zcnzlWJpE0qB7mesayA==
-----END CERTIFICATE-----
