Certificate:
    Data:
        Version: 3 (0x2)
        Serial Number:
            6d:d7:dc:92:d9:a9:ae:23:09:b1:15:48:85:6e:aa:ba
        Signature Algorithm: sha256WithRSAEncryption
        Issuer: CN=team403-net
        Validity
            Not Before: May 18 21:03:27 2022 GMT
            Not After : May  2 21:03:27 2025 GMT
        Subject: CN=team403-client
        Subject Public Key Info:
            Public Key Algorithm: rsaEncryption
                RSA Public-Key: (2048 bit)
                Modulus:
                    00:d4:34:af:3f:c3:67:91:4c:53:04:4e:00:03:68:
                    94:6b:03:86:f7:2c:e2:d2:b9:64:5e:4e:25:d6:b6:
                    33:fc:95:bd:00:a7:6d:a4:c2:3d:36:c9:c9:ad:30:
                    2e:ed:a9:81:b0:c9:fd:26:74:f1:9b:84:c6:24:3d:
                    11:82:db:a0:f7:8a:1c:af:ba:6e:b7:31:b2:7b:14:
                    32:7f:2d:ac:0c:52:67:79:ad:cf:64:29:3f:af:54:
                    c0:6c:53:96:73:af:b2:de:ff:db:d5:23:57:f6:0a:
                    a5:0d:fc:9b:e6:0c:68:5a:7e:d7:95:3b:62:4e:c6:
                    bd:aa:bb:a9:42:7f:68:39:a0:51:09:94:62:7f:c6:
                    ee:78:c9:22:59:9c:79:f5:af:dc:58:0d:0b:24:8c:
                    76:3b:45:f3:64:51:99:fd:ad:9e:10:c2:ba:74:65:
                    c3:7c:69:db:cf:e7:66:6b:c8:05:9d:9a:27:e4:04:
                    42:31:fc:5c:d3:f0:e6:bb:94:0f:c3:66:06:c4:d6:
                    25:64:0c:1e:6d:1f:d3:cf:53:c8:84:53:8a:77:51:
                    f8:68:0f:bd:83:a6:46:37:ba:d9:7b:f8:a7:4f:f0:
                    83:4d:7d:1a:74:9f:de:5b:d9:71:45:0d:d7:fc:0b:
                    09:3b:39:2f:09:af:39:da:9c:e7:e0:bc:9a:de:ff:
                    91:43
                Exponent: 65537 (0x10001)
        X509v3 extensions:
            X509v3 Basic Constraints: 
                CA:FALSE
            X509v3 Subject Key Identifier: 
                B5:C5:F2:09:54:E9:9E:3C:87:CB:EE:FB:F9:15:9D:E6:AB:51:7B:7F
            X509v3 Authority Key Identifier: 
                keyid:37:7F:34:19:19:4B:14:85:FF:F9:3C:DB:01:26:68:EF:14:2D:A8:53
                DirName:/CN=team403-net
                serial:1E:08:68:96:DE:6D:4A:8F:52:A4:82:6F:39:19:84:58:9F:73:DE:0D

            X509v3 Extended Key Usage: 
                TLS Web Client Authentication
            X509v3 Key Usage: 
                Digital Signature
    Signature Algorithm: sha256WithRSAEncryption
         57:52:66:39:7c:47:b6:93:09:ec:f0:dc:93:f3:69:53:87:a3:
         8b:05:e9:28:39:9d:9e:ee:37:96:e9:ac:70:d3:cf:42:e7:ce:
         ca:47:84:90:c4:b4:5d:b1:0a:98:27:3d:c3:0a:52:1c:ea:56:
         f2:b8:6e:69:5c:0d:09:2c:0f:7b:83:a7:9e:27:f6:d2:fb:3f:
         4f:29:f0:e2:f4:3e:fb:ae:f1:6c:27:18:83:3d:ff:74:9a:be:
         ea:51:6e:0b:a2:af:6c:52:77:3d:21:e3:0c:0b:61:a4:ef:07:
         f8:4e:ca:c1:2d:ba:a8:4f:7f:6b:74:8a:5d:a1:c5:e7:87:bc:
         92:f3:99:98:33:e6:91:b4:12:16:ce:5a:2d:c4:75:49:94:0f:
         ed:00:41:9a:d5:92:6e:36:e0:cd:b1:02:c6:9d:40:f8:db:43:
         c2:57:1c:3d:ec:dd:61:46:89:95:c5:e0:88:0d:1d:04:1e:41:
         e3:51:a3:88:05:4a:62:33:88:67:ed:83:f4:a6:4f:65:4f:2d:
         e0:04:0b:4a:81:d0:bb:05:39:1a:02:b6:96:85:cd:03:36:8a:
         71:99:c9:a1:45:11:6d:2f:81:f2:88:52:3b:b4:17:46:e6:12:
         0d:22:40:cb:6a:82:d3:2c:68:4c:74:3f:7a:66:63:75:35:ff:
         2c:47:b8:07
-----BEGIN CERTIFICATE-----
MIIDXDCCAkSgAwIBAgIQbdfcktmpriMJsRVIhW6qujANBgkqhkiG9w0BAQsFADAW
MRQwEgYDVQQDDAt0ZWFtNDAzLW5ldDAeFw0yMjA1MTgyMTAzMjdaFw0yNTA1MDIy
MTAzMjdaMBkxFzAVBgNVBAMMDnRlYW00MDMtY2xpZW50MIIBIjANBgkqhkiG9w0B
AQEFAAOCAQ8AMIIBCgKCAQEA1DSvP8NnkUxTBE4AA2iUawOG9yzi0rlkXk4l1rYz
/JW9AKdtpMI9NsnJrTAu7amBsMn9JnTxm4TGJD0Rgtug94ocr7putzGyexQyfy2s
DFJnea3PZCk/r1TAbFOWc6+y3v/b1SNX9gqlDfyb5gxoWn7XlTtiTsa9qrupQn9o
OaBRCZRif8bueMkiWZx59a/cWA0LJIx2O0XzZFGZ/a2eEMK6dGXDfGnbz+dma8gF
nZon5ARCMfxc0/Dmu5QPw2YGxNYlZAwebR/Tz1PIhFOKd1H4aA+9g6ZGN7rZe/in
T/CDTX0adJ/eW9lxRQ3X/AsJOzkvCa852pzn4Lya3v+RQwIDAQABo4GiMIGfMAkG
A1UdEwQCMAAwHQYDVR0OBBYEFLXF8glU6Z48h8vu+/kVnearUXt/MFEGA1UdIwRK
MEiAFDd/NBkZSxSF//k82wEmaO8ULahToRqkGDAWMRQwEgYDVQQDDAt0ZWFtNDAz
LW5ldIIUHgholt5tSo9SpIJvORmEWJ9z3g0wEwYDVR0lBAwwCgYIKwYBBQUHAwIw
CwYDVR0PBAQDAgeAMA0GCSqGSIb3DQEBCwUAA4IBAQBXUmY5fEe2kwns8NyT82lT
h6OLBekoOZ2e7jeW6axw089C587KR4SQxLRdsQqYJz3DClIc6lbyuG5pXA0JLA97
g6eeJ/bS+z9PKfDi9D77rvFsJxiDPf90mr7qUW4Loq9sUnc9IeMMC2Gk7wf4TsrB
LbqoT39rdIpdocXnh7yS85mYM+aRtBIWzlotxHVJlA/tAEGa1ZJuNuDNsQLGnUD4
20PCVxw97N1hRomVxeCIDR0EHkHjUaOIBUpiM4hn7YP0pk9lTy3gBAtKgdC7BTka
AraWhc0DNopxmcmhRRFtL4HyiFI7tBdG5hINIkDLaoLTLGhMdD96ZmN1Nf8sR7gH
-----END CERTIFICATE-----
