Certificate:
    Data:
        Version: 3 (0x2)
        Serial Number:
            38:d1:fb:89:8c:64:48:76:aa:68:a5:e0:37:2d:67:24
        Signature Algorithm: sha256WithRSAEncryption
        Issuer: CN=team232-net
        Validity
            Not Before: May 18 19:28:51 2022 GMT
            Not After : May  2 19:28:51 2025 GMT
        Subject: CN=team232-server
        Subject Public Key Info:
            Public Key Algorithm: rsaEncryption
                RSA Public-Key: (2048 bit)
                Modulus:
                    00:c8:da:b0:b0:0a:01:2d:1a:9e:21:97:a1:c5:f7:
                    cd:ae:33:f0:1c:31:cf:42:f2:a9:a1:f3:31:8b:bc:
                    b5:a1:00:e5:2c:dd:09:3f:ff:ff:b7:0c:03:da:dd:
                    7d:c9:4a:fb:fa:53:8b:69:ae:fb:f4:21:92:6c:cd:
                    5a:3a:f6:9f:c5:67:74:77:bc:21:76:83:1f:c1:37:
                    bc:83:d2:2f:26:c2:ac:f8:ba:c8:a8:c5:8c:fe:8a:
                    ae:f4:37:14:ef:8e:bc:1a:a4:20:d0:23:f4:99:a3:
                    fd:47:97:57:de:7f:45:a4:35:e8:2b:67:ba:b3:9d:
                    53:4d:c8:e9:64:e9:6a:43:79:d3:92:4a:a3:95:10:
                    5e:a2:70:1f:92:08:b3:5d:ba:ee:43:02:f5:c6:f3:
                    0d:bc:2b:ee:a7:e5:83:81:e1:e0:f4:1c:cc:1f:31:
                    1b:a5:64:95:ae:a9:44:f4:b5:d6:63:5f:b4:dc:cd:
                    a8:85:23:0c:14:d8:e5:3f:1d:ec:e3:f3:e7:48:2a:
                    67:a6:69:16:19:d7:93:61:08:44:0e:a7:ee:48:60:
                    6c:fb:2f:c8:77:77:10:fc:74:fc:a6:4f:93:92:25:
                    11:db:bc:2c:7f:78:4c:59:fe:1d:d9:d2:eb:32:93:
                    df:89:4b:fa:0c:01:b4:04:54:4c:b9:52:f0:7e:28:
                    a6:f9
                Exponent: 65537 (0x10001)
        X509v3 extensions:
            X509v3 Basic Constraints: 
                CA:FALSE
            X509v3 Subject Key Identifier: 
                3F:FB:41:A5:C6:CE:54:FE:70:95:79:46:F7:8D:36:DC:21:52:8B:A8
            X509v3 Authority Key Identifier: 
                keyid:D7:9B:11:A7:9E:8E:B7:75:D1:BD:83:E5:88:9D:49:4D:D7:80:2F:9A
                DirName:/CN=team232-net
                serial:0D:45:45:8C:02:F2:B5:50:BF:2C:81:56:31:B6:D2:21:E1:52:CA:6D

            X509v3 Extended Key Usage: 
                TLS Web Server Authentication
            X509v3 Key Usage: 
                Digital Signature, Key Encipherment
            X509v3 Subject Alternative Name: 
                DNS:team232-server
    Signature Algorithm: sha256WithRSAEncryption
         44:7e:91:ed:dd:84:43:90:2e:b5:fe:1c:11:e7:ba:34:7f:7d:
         08:c3:42:b4:24:da:38:fa:a1:ad:96:c8:3c:aa:75:f7:52:93:
         cb:44:89:32:e1:90:e6:f6:e0:d3:0b:d3:a3:be:87:e6:07:4a:
         69:21:29:99:46:c5:38:64:72:a4:36:ef:d3:79:9f:62:b6:f9:
         8b:55:9d:03:b4:bc:65:42:79:44:e0:70:f2:ff:7a:47:72:24:
         53:6b:07:63:12:97:10:4b:16:b7:1e:ed:87:f9:c6:de:2d:88:
         c6:ee:41:27:5e:48:f4:e0:1e:3e:c8:fc:23:07:68:c9:ff:e5:
         3d:98:dc:b9:b0:77:ef:2b:7e:06:95:21:66:a9:dc:5a:b2:e4:
         2e:20:b9:c0:07:bd:22:c0:bb:3a:4c:97:28:f3:bf:73:17:4f:
         b9:f1:5e:fd:d6:b1:e7:2a:78:0e:d3:d2:b3:28:ba:fc:69:77:
         c8:28:95:85:6a:c6:01:26:eb:39:15:df:90:b4:e7:e1:8a:c6:
         70:cd:5d:fc:45:09:2b:57:5a:76:ff:2f:26:ed:a7:4f:76:b9:
         a9:50:2c:e1:d1:2c:af:6d:37:74:ad:d7:16:d3:1a:be:d1:c7:
         70:40:fc:1d:da:c4:60:dc:e0:c3:5b:ba:c8:87:94:34:66:07:
         b6:fb:f5:9a
-----BEGIN CERTIFICATE-----
MIIDdzCCAl+gAwIBAgIQONH7iYxkSHaqaKXgNy1nJDANBgkqhkiG9w0BAQsFADAW
MRQwEgYDVQQDDAt0ZWFtMjMyLW5ldDAeFw0yMjA1MTgxOTI4NTFaFw0yNTA1MDIx
OTI4NTFaMBkxFzAVBgNVBAMMDnRlYW0yMzItc2VydmVyMIIBIjANBgkqhkiG9w0B
AQEFAAOCAQ8AMIIBCgKCAQEAyNqwsAoBLRqeIZehxffNrjPwHDHPQvKpofMxi7y1
oQDlLN0JP///twwD2t19yUr7+lOLaa779CGSbM1aOvafxWd0d7whdoMfwTe8g9Iv
JsKs+LrIqMWM/oqu9DcU7468GqQg0CP0maP9R5dX3n9FpDXoK2e6s51TTcjpZOlq
Q3nTkkqjlRBeonAfkgizXbruQwL1xvMNvCvup+WDgeHg9BzMHzEbpWSVrqlE9LXW
Y1+03M2ohSMMFNjlPx3s4/PnSCpnpmkWGdeTYQhEDqfuSGBs+y/Id3cQ/HT8pk+T
kiUR27wsf3hMWf4d2dLrMpPfiUv6DAG0BFRMuVLwfiim+QIDAQABo4G9MIG6MAkG
A1UdEwQCMAAwHQYDVR0OBBYEFD/7QaXGzlT+cJV5RveNNtwhUouoMFEGA1UdIwRK
MEiAFNebEaeejrd10b2D5YidSU3XgC+aoRqkGDAWMRQwEgYDVQQDDAt0ZWFtMjMy
LW5ldIIUDUVFjALytVC/LIFWMbbSIeFSym0wEwYDVR0lBAwwCgYIKwYBBQUHAwEw
CwYDVR0PBAQDAgWgMBkGA1UdEQQSMBCCDnRlYW0yMzItc2VydmVyMA0GCSqGSIb3
DQEBCwUAA4IBAQBEfpHt3YRDkC61/hwR57o0f30Iw0K0JNo4+qGtlsg8qnX3UpPL
RIky4ZDm9uDTC9OjvofmB0ppISmZRsU4ZHKkNu/TeZ9itvmLVZ0DtLxlQnlE4HDy
/3pHciRTawdjEpcQSxa3Hu2H+cbeLYjG7kEnXkj04B4+yPwjB2jJ/+U9mNy5sHfv
K34GlSFmqdxasuQuILnAB70iwLs6TJco879zF0+58V791rHnKngO09KzKLr8aXfI
KJWFasYBJus5Fd+QtOfhisZwzV38RQkrV1p2/y8m7adPdrmpUCzh0SyvbTd0rdcW
0xq+0cdwQPwd2sRg3ODDW7rIh5Q0Zge2+/Wa
-----END CERTIFICATE-----
