Certificate:
    Data:
        Version: 3 (0x2)
        Serial Number:
            ae:8c:80:6e:1e:27:3a:56:41:c4:b2:d9:72:66:84:94
        Signature Algorithm: sha256WithRSAEncryption
        Issuer: CN=team323-net
        Validity
            Not Before: May 18 20:23:01 2022 GMT
            Not After : May  2 20:23:01 2025 GMT
        Subject: CN=team323-server
        Subject Public Key Info:
            Public Key Algorithm: rsaEncryption
                RSA Public-Key: (2048 bit)
                Modulus:
                    00:f7:ed:93:59:9d:17:70:cd:af:85:4d:9f:80:a1:
                    5b:7a:cf:7b:a5:43:22:d6:96:07:a4:f0:3f:6c:0f:
                    93:d3:53:f1:10:43:74:e6:80:b0:76:1b:53:9c:68:
                    6d:a4:3b:88:e1:20:25:57:89:d6:8f:df:5a:96:6a:
                    f6:8c:7f:0a:bb:7f:ab:a6:18:d4:2f:12:29:d6:70:
                    81:bb:48:ba:06:1d:86:d6:50:ee:31:3f:ff:96:1b:
                    10:fd:f8:fc:ce:63:0f:58:99:8b:40:f8:b3:28:aa:
                    32:15:7a:d9:2a:99:ba:09:1c:40:4b:77:1c:1d:4d:
                    e6:b1:59:b4:89:24:70:ed:0b:88:9f:a8:30:80:ba:
                    37:98:24:08:1d:1c:6e:91:06:c9:e7:a3:17:46:db:
                    b1:f1:d7:4d:c2:06:f6:72:bb:d7:90:e8:90:d8:40:
                    58:d2:de:ac:53:c2:98:0e:54:4e:2e:98:3f:e1:13:
                    f5:1e:42:6e:8a:fb:be:b6:a0:db:d5:69:d7:3f:d3:
                    7f:7a:95:8d:86:8b:64:1e:ac:b3:27:b2:35:8d:de:
                    92:0c:1c:85:e5:82:34:0b:10:84:68:84:16:ba:23:
                    6b:13:4d:8c:38:ea:bf:89:2e:e7:69:34:96:62:90:
                    02:34:0d:80:6f:44:86:20:6d:12:2f:5d:b6:c9:7f:
                    ba:77
                Exponent: 65537 (0x10001)
        X509v3 extensions:
            X509v3 Basic Constraints: 
                CA:FALSE
            X509v3 Subject Key Identifier: 
                31:5E:CD:A7:93:29:F2:3F:5B:A4:C6:FA:36:34:0C:97:9E:86:7D:C8
            X509v3 Authority Key Identifier: 
                keyid:52:60:82:7F:AF:0A:9A:93:4E:41:2F:BC:0D:FC:44:CB:D5:B5:72:5C
                DirName:/CN=team323-net
                serial:43:BF:A6:C3:AB:C9:12:BA:7E:17:44:C3:D1:5A:9D:84:E0:3A:44:94

            X509v3 Extended Key Usage: 
                TLS Web Server Authentication
            X509v3 Key Usage: 
                Digital Signature, Key Encipherment
            X509v3 Subject Alternative Name: 
                DNS:team323-server
    Signature Algorithm: sha256WithRSAEncryption
         0a:3d:84:ea:97:65:ff:bd:82:5f:18:04:db:79:36:3b:74:7a:
         0c:3b:5b:76:6f:21:e4:f2:b1:9e:71:0f:42:28:f7:be:f8:1d:
         b0:07:51:2c:23:4f:24:2e:f4:35:16:8a:e7:d5:31:1f:da:50:
         6a:ae:46:91:9c:c9:0a:49:b1:92:0e:26:76:9e:d5:7a:ec:01:
         3c:12:a5:26:e3:73:b2:d2:16:b5:ff:35:3c:47:a4:74:5e:ac:
         be:e0:ab:5e:af:dc:cb:30:68:ef:f5:e8:32:92:f7:67:19:58:
         ea:4a:2c:e6:4b:b8:5e:b3:42:79:92:04:d6:81:3d:68:04:06:
         4b:cb:fe:51:65:89:d9:21:4b:03:64:b8:81:92:73:35:36:95:
         ac:90:ec:eb:d0:7a:48:98:be:df:fd:bf:a8:33:17:93:46:f2:
         25:ca:6c:10:c5:57:06:a4:08:6c:f9:e7:44:75:b8:25:ef:7c:
         00:79:62:64:02:3e:3e:80:08:64:e8:0f:35:f9:c8:4a:3d:95:
         d9:11:0d:b0:8c:27:f0:16:7d:35:80:28:13:fc:20:ef:a4:35:
         ed:e3:e6:db:55:8a:46:17:47:48:73:59:61:a1:ca:1b:fa:9a:
         37:42:f1:29:d8:8b:9b:c9:63:9e:8c:f3:c6:06:1c:f2:a0:54:
         99:56:10:1e
-----BEGIN CERTIFICATE-----
MIIDeDCCAmCgAwIBAgIRAK6MgG4eJzpWQcSy2XJmhJQwDQYJKoZIhvcNAQELBQAw
FjEUMBIGA1UEAwwLdGVhbTMyMy1uZXQwHhcNMjIwNTE4MjAyMzAxWhcNMjUwNTAy
MjAyMzAxWjAZMRcwFQYDVQQDDA50ZWFtMzIzLXNlcnZlcjCCASIwDQYJKoZIhvcN
AQEBBQADggEPADCCAQoCggEBAPftk1mdF3DNr4VNn4ChW3rPe6VDItaWB6TwP2wP
k9NT8RBDdOaAsHYbU5xobaQ7iOEgJVeJ1o/fWpZq9ox/Crt/q6YY1C8SKdZwgbtI
ugYdhtZQ7jE//5YbEP34/M5jD1iZi0D4syiqMhV62SqZugkcQEt3HB1N5rFZtIkk
cO0LiJ+oMIC6N5gkCB0cbpEGyeejF0bbsfHXTcIG9nK715DokNhAWNLerFPCmA5U
Ti6YP+ET9R5Cbor7vrag29Vp1z/Tf3qVjYaLZB6ssyeyNY3ekgwcheWCNAsQhGiE
FrojaxNNjDjqv4ku52k0lmKQAjQNgG9EhiBtEi9dtsl/uncCAwEAAaOBvTCBujAJ
BgNVHRMEAjAAMB0GA1UdDgQWBBQxXs2nkynyP1ukxvo2NAyXnoZ9yDBRBgNVHSME
SjBIgBRSYIJ/rwqak05BL7wN/ETL1bVyXKEapBgwFjEUMBIGA1UEAwwLdGVhbTMy
My1uZXSCFEO/psOryRK6fhdEw9FanYTgOkSUMBMGA1UdJQQMMAoGCCsGAQUFBwMB
MAsGA1UdDwQEAwIFoDAZBgNVHREEEjAQgg50ZWFtMzIzLXNlcnZlcjANBgkqhkiG
9w0BAQsFAAOCAQEACj2E6pdl/72CXxgE23k2O3R6DDtbdm8h5PKxnnEPQij3vvgd
sAdRLCNPJC70NRaK59UxH9pQaq5GkZzJCkmxkg4mdp7VeuwBPBKlJuNzstIWtf81
PEekdF6svuCrXq/cyzBo7/XoMpL3ZxlY6kos5ku4XrNCeZIE1oE9aAQGS8v+UWWJ
2SFLA2S4gZJzNTaVrJDs69B6SJi+3/2/qDMXk0byJcpsEMVXBqQIbPnnRHW4Je98
AHliZAI+PoAIZOgPNfnISj2V2RENsIwn8BZ9NYAoE/wg76Q17ePm21WKRhdHSHNZ
YaHKG/qaN0LxKdiLm8ljnozzxgYc8qBUmVYQHg==
-----END CERTIFICATE-----
