Certificate:
    Data:
        Version: 3 (0x2)
        Serial Number:
            56:7d:f7:47:7f:a5:f7:7a:aa:0d:32:1c:60:66:d0:6c
        Signature Algorithm: sha256WithRSAEncryption
        Issuer: CN=team293-net
        Validity
            Not Before: May 18 19:55:45 2022 GMT
            Not After : May  2 19:55:45 2025 GMT
        Subject: CN=team293-server
        Subject Public Key Info:
            Public Key Algorithm: rsaEncryption
                RSA Public-Key: (2048 bit)
                Modulus:
                    00:9e:b0:e4:56:6e:ee:af:21:62:69:29:d6:3c:f7:
                    26:7e:d7:d8:47:f6:29:d8:70:f9:7a:d6:53:c7:97:
                    f4:99:df:f7:6f:3c:c2:60:db:e0:9e:fd:f8:7f:ab:
                    c5:9c:03:f9:b8:f8:63:de:92:6e:a3:16:e3:26:fe:
                    b0:c2:61:57:db:4d:6b:fb:31:c1:48:11:37:70:cd:
                    b7:7e:5a:f2:86:ff:95:ff:fe:80:af:79:9c:ef:40:
                    32:cb:e7:30:d2:1d:ae:31:e0:7b:25:85:15:7e:eb:
                    60:f0:24:7e:e2:76:8e:65:77:8d:dc:af:ca:5f:8d:
                    c6:09:51:ef:b1:2d:e1:df:e7:88:75:43:8b:ef:93:
                    13:88:41:71:a9:66:5c:aa:50:96:3d:de:db:0c:39:
                    6c:ed:c2:bf:d3:1a:00:32:29:1c:60:22:e2:92:5d:
                    b1:b2:28:9d:97:0d:60:1a:eb:c1:2f:2c:5f:50:34:
                    c4:53:54:10:9e:9e:8c:58:12:38:9d:ff:fa:94:cb:
                    f1:de:7d:07:38:a4:61:c4:82:89:08:a1:47:a2:e2:
                    74:5c:f2:f1:f2:ad:66:35:ad:76:b3:e3:e4:0e:40:
                    42:21:3a:a5:8f:4f:6b:c2:68:e5:47:e5:e7:0b:1a:
                    97:91:a9:7c:d3:95:82:35:bb:7a:2d:e2:b4:90:3f:
                    c0:21
                Exponent: 65537 (0x10001)
        X509v3 extensions:
            X509v3 Basic Constraints: 
                CA:FALSE
            X509v3 Subject Key Identifier: 
                59:9B:26:C5:8C:3F:82:27:F3:DC:78:B3:D4:58:E1:0F:A2:6B:5D:86
            X509v3 Authority Key Identifier: 
                keyid:5D:C3:97:ED:29:B9:AC:F7:4C:62:A4:36:70:C2:CA:EA:25:83:64:25
                DirName:/CN=team293-net
                serial:19:98:32:21:51:9C:21:57:11:23:E1:6B:FE:A3:64:86:B8:DE:2C:AF

            X509v3 Extended Key Usage: 
                TLS Web Server Authentication
            X509v3 Key Usage: 
                Digital Signature, Key Encipherment
            X509v3 Subject Alternative Name: 
                DNS:team293-server
    Signature Algorithm: sha256WithRSAEncryption
         47:eb:44:9d:0d:b8:3a:93:61:c8:cc:37:b3:42:4a:01:92:8a:
         9a:4c:86:6a:14:93:12:5a:2b:6d:9a:9f:ee:7b:83:d5:8d:1a:
         d3:e1:7a:92:0f:4d:58:c9:70:0d:5f:ab:2c:51:6f:39:2c:eb:
         3c:31:9d:12:73:fd:ed:b1:82:4f:c8:85:76:94:b9:a6:f2:1f:
         3b:2d:7f:c4:2a:a6:70:a6:9d:53:d0:24:a5:b7:e3:2d:b8:8c:
         d8:c3:b0:68:ff:70:5d:c3:bd:98:98:87:2a:d2:be:c0:bf:da:
         7f:c9:81:d1:72:5c:92:17:79:78:65:db:3d:4a:8d:e1:7c:59:
         fc:8d:9e:93:70:5c:68:8b:b6:fd:52:a0:ab:94:46:ce:49:7a:
         a0:0a:fa:2a:ad:2b:0d:33:7f:3e:be:1a:47:e1:1a:d3:b4:3a:
         95:06:d9:ec:2c:7a:23:f3:a5:1a:66:81:7b:33:2e:cf:d6:54:
         10:78:90:1c:31:58:d6:08:6b:a9:cb:59:61:8d:b5:c4:5f:9f:
         dd:d9:b7:6c:f5:c9:11:7e:83:c8:c5:e2:46:fd:3f:5b:d5:e7:
         20:5a:1d:8f:d7:2b:0b:32:a6:31:38:77:67:91:ce:8d:9f:e6:
         be:b8:75:a4:f0:20:11:39:2d:3b:4c:92:05:e6:fd:f7:59:7f:
         03:6b:1b:ef
-----BEGIN CERTIFICATE-----
MIIDdzCCAl+gAwIBAgIQVn33R3+l93qqDTIcYGbQbDANBgkqhkiG9w0BAQsFADAW
MRQwEgYDVQQDDAt0ZWFtMjkzLW5ldDAeFw0yMjA1MTgxOTU1NDVaFw0yNTA1MDIx
OTU1NDVaMBkxFzAVBgNVBAMMDnRlYW0yOTMtc2VydmVyMIIBIjANBgkqhkiG9w0B
AQEFAAOCAQ8AMIIBCgKCAQEAnrDkVm7uryFiaSnWPPcmftfYR/Yp2HD5etZTx5f0
md/3bzzCYNvgnv34f6vFnAP5uPhj3pJuoxbjJv6wwmFX201r+zHBSBE3cM23flry
hv+V//6Ar3mc70Ayy+cw0h2uMeB7JYUVfutg8CR+4naOZXeN3K/KX43GCVHvsS3h
3+eIdUOL75MTiEFxqWZcqlCWPd7bDDls7cK/0xoAMikcYCLikl2xsiidlw1gGuvB
LyxfUDTEU1QQnp6MWBI4nf/6lMvx3n0HOKRhxIKJCKFHouJ0XPLx8q1mNa12s+Pk
DkBCITqlj09rwmjlR+XnCxqXkal805WCNbt6LeK0kD/AIQIDAQABo4G9MIG6MAkG
A1UdEwQCMAAwHQYDVR0OBBYEFFmbJsWMP4In89x4s9RY4Q+ia12GMFEGA1UdIwRK
MEiAFF3Dl+0puaz3TGKkNnDCyuolg2QloRqkGDAWMRQwEgYDVQQDDAt0ZWFtMjkz
LW5ldIIUGZgyIVGcIVcRI+Fr/qNkhrjeLK8wEwYDVR0lBAwwCgYIKwYBBQUHAwEw
CwYDVR0PBAQDAgWgMBkGA1UdEQQSMBCCDnRlYW0yOTMtc2VydmVyMA0GCSqGSIb3
DQEBCwUAA4IBAQBH60SdDbg6k2HIzDezQkoBkoqaTIZqFJMSWittmp/ue4PVjRrT
4XqSD01YyXANX6ssUW85LOs8MZ0Sc/3tsYJPyIV2lLmm8h87LX/EKqZwpp1T0CSl
t+MtuIzYw7Bo/3Bdw72YmIcq0r7Av9p/yYHRclySF3l4Zds9So3hfFn8jZ6TcFxo
i7b9UqCrlEbOSXqgCvoqrSsNM38+vhpH4RrTtDqVBtnsLHoj86UaZoF7My7P1lQQ
eJAcMVjWCGupy1lhjbXEX5/d2bds9ckRfoPIxeJG/T9b1ecgWh2P1ysLMqYxOHdn
kc6Nn+a+uHWk8CAROS07TJIF5v33WX8Daxvv
-----END CERTIFICATE-----
