Certificate:
    Data:
        Version: 3 (0x2)
        Serial Number:
            1d:de:6e:f8:ea:66:76:f1:56:b2:c5:9b:31:96:fe:cd
        Signature Algorithm: sha256WithRSAEncryption
        Issuer: CN=team497-net
        Validity
            Not Before: May 18 21:42:50 2022 GMT
            Not After : May  2 21:42:50 2025 GMT
        Subject: CN=team497-server
        Subject Public Key Info:
            Public Key Algorithm: rsaEncryption
                RSA Public-Key: (2048 bit)
                Modulus:
                    00:bd:98:47:ef:49:3f:16:84:9b:0c:cf:c3:94:e3:
                    3a:fc:1c:15:02:c2:ec:e8:ad:55:af:c2:a0:d3:c0:
                    ef:a5:cf:06:26:c7:26:e3:9b:c2:2c:db:0d:1d:b0:
                    d7:be:3c:d8:ae:09:87:00:8f:ac:68:6b:64:6a:19:
                    44:d5:18:f9:56:74:52:88:3a:98:86:d8:35:5c:f4:
                    83:b0:64:79:43:71:d0:98:23:bd:4d:30:3f:14:dc:
                    c6:0d:e0:ff:b8:89:f2:95:61:70:bd:59:d7:08:b9:
                    7f:6d:7a:1c:94:b0:b3:9e:00:c1:99:11:b0:d2:8f:
                    b1:e1:38:d6:99:e4:01:3e:f8:8c:54:5e:6b:04:a6:
                    9f:09:d4:e6:5f:3d:e1:41:94:d9:c3:79:b9:c0:e2:
                    fc:a3:fb:1e:3e:bd:33:de:2e:e4:00:ba:c3:76:8b:
                    b5:ed:18:10:27:d0:60:d3:c0:3d:3a:73:fe:5a:83:
                    90:ce:73:48:0a:f2:2f:55:6c:98:dc:9d:03:aa:4c:
                    ac:7c:cd:7b:5c:05:89:7c:b9:13:c4:28:a4:67:35:
                    6f:c8:c2:a8:d8:17:b1:4a:64:bb:d0:28:bf:44:95:
                    fe:27:e2:be:56:b7:11:1f:ba:0c:cb:58:e7:b0:e0:
                    85:6e:f1:9a:b8:73:c7:4f:f5:30:e3:47:d0:12:37:
                    ae:0f
                Exponent: 65537 (0x10001)
        X509v3 extensions:
            X509v3 Basic Constraints: 
                CA:FALSE
            X509v3 Subject Key Identifier: 
                9B:51:CF:8B:82:60:AB:FC:6F:CE:23:BA:A8:B0:52:27:3D:3D:4C:55
            X509v3 Authority Key Identifier: 
                keyid:16:4B:95:D5:48:4A:CD:EF:E5:2C:97:77:AB:4A:2A:24:2B:70:53:1F
                DirName:/CN=team497-net
                serial:05:ED:72:EE:C7:E6:E7:76:E4:DA:10:F7:94:F1:F1:B4:44:72:13:2F

            X509v3 Extended Key Usage: 
                TLS Web Server Authentication
            X509v3 Key Usage: 
                Digital Signature, Key Encipherment
            X509v3 Subject Alternative Name: 
                DNS:team497-server
    Signature Algorithm: sha256WithRSAEncryption
         70:2d:9e:7b:d8:39:7b:c1:a8:67:0d:35:46:c9:5d:7a:46:d8:
         dc:fd:a7:2f:17:44:45:a8:c1:69:bc:f3:5f:59:e5:b4:55:9d:
         ca:47:bd:64:fc:fc:84:34:35:54:f8:23:99:e2:36:ef:91:dc:
         23:35:59:b3:9c:8b:1a:d5:5f:8e:de:c5:99:2c:6e:8f:22:d3:
         3c:da:01:bb:45:34:99:ed:e4:5b:e7:e0:dd:d0:ae:aa:06:fa:
         dd:c5:b3:67:97:e0:b4:4a:2a:f6:bb:94:5e:66:77:99:68:71:
         dd:6b:a5:d4:98:08:58:37:cc:26:66:e4:9d:77:7e:c2:9e:95:
         69:61:ca:65:dc:49:2f:e5:87:c6:37:40:a1:3a:f6:60:88:ec:
         50:e5:c8:53:68:aa:00:2d:ee:8d:4f:65:61:e4:8c:c6:c3:d1:
         56:b9:9c:1e:02:0c:62:0c:e8:62:a1:86:52:25:c6:f7:39:d5:
         4e:ca:ce:c8:8a:fb:62:61:3e:42:cf:b4:d6:1a:5c:7c:ac:e1:
         85:3c:99:02:b5:bf:8b:7a:3a:af:90:b8:c2:7b:c5:37:f6:1b:
         57:f4:9a:e6:a3:d3:83:6a:a6:d8:5e:a3:28:77:70:3f:fd:b0:
         28:75:31:45:42:45:ee:18:bd:da:67:a2:fc:32:af:6f:f9:f6:
         e0:e5:2b:47
-----BEGIN CERTIFICATE-----
MIIDdzCCAl+gAwIBAgIQHd5u+OpmdvFWssWbMZb+zTANBgkqhkiG9w0BAQsFADAW
MRQwEgYDVQQDDAt0ZWFtNDk3LW5ldDAeFw0yMjA1MTgyMTQyNTBaFw0yNTA1MDIy
MTQyNTBaMBkxFzAVBgNVBAMMDnRlYW00OTctc2VydmVyMIIBIjANBgkqhkiG9w0B
AQEFAAOCAQ8AMIIBCgKCAQEAvZhH70k/FoSbDM/DlOM6/BwVAsLs6K1Vr8Kg08Dv
pc8GJscm45vCLNsNHbDXvjzYrgmHAI+saGtkahlE1Rj5VnRSiDqYhtg1XPSDsGR5
Q3HQmCO9TTA/FNzGDeD/uInylWFwvVnXCLl/bXoclLCzngDBmRGw0o+x4TjWmeQB
PviMVF5rBKafCdTmXz3hQZTZw3m5wOL8o/sePr0z3i7kALrDdou17RgQJ9Bg08A9
OnP+WoOQznNICvIvVWyY3J0DqkysfM17XAWJfLkTxCikZzVvyMKo2BexSmS70Ci/
RJX+J+K+VrcRH7oMy1jnsOCFbvGauHPHT/Uw40fQEjeuDwIDAQABo4G9MIG6MAkG
A1UdEwQCMAAwHQYDVR0OBBYEFJtRz4uCYKv8b84juqiwUic9PUxVMFEGA1UdIwRK
MEiAFBZLldVISs3v5SyXd6tKKiQrcFMfoRqkGDAWMRQwEgYDVQQDDAt0ZWFtNDk3
LW5ldIIUBe1y7sfm53bk2hD3lPHxtERyEy8wEwYDVR0lBAwwCgYIKwYBBQUHAwEw
CwYDVR0PBAQDAgWgMBkGA1UdEQQSMBCCDnRlYW00OTctc2VydmVyMA0GCSqGSIb3
DQEBCwUAA4IBAQBwLZ572Dl7wahnDTVGyV16Rtjc/acvF0RFqMFpvPNfWeW0VZ3K
R71k/PyENDVU+COZ4jbvkdwjNVmznIsa1V+O3sWZLG6PItM82gG7RTSZ7eRb5+Dd
0K6qBvrdxbNnl+C0Sir2u5ReZneZaHHda6XUmAhYN8wmZuSdd37CnpVpYcpl3Ekv
5YfGN0ChOvZgiOxQ5chTaKoALe6NT2Vh5IzGw9FWuZweAgxiDOhioYZSJcb3OdVO
ys7IivtiYT5Cz7TWGlx8rOGFPJkCtb+LejqvkLjCe8U39htX9Jrmo9ODaqbYXqMo
d3A//bAodTFFQkXuGL3aZ6L8Mq9v+fbg5StH
-----END CERTIFICATE-----
