Certificate:
    Data:
        Version: 3 (0x2)
        Serial Number:
            c2:95:7c:01:c6:91:b4:d7:73:d4:c5:37:87:9f:35:2a
        Signature Algorithm: sha256WithRSAEncryption
        Issuer: CN=team128-net
        Validity
            Not Before: May 18 15:10:52 2022 GMT
            Not After : May  2 15:10:52 2025 GMT
        Subject: CN=team128-server
        Subject Public Key Info:
            Public Key Algorithm: rsaEncryption
                RSA Public-Key: (2048 bit)
                Modulus:
                    00:e1:e8:68:d1:d0:a1:52:55:51:f9:e5:d0:86:c0:
                    80:42:30:e3:ca:3f:3f:2d:5c:32:41:dc:99:e3:e9:
                    89:02:e4:6b:d5:bd:59:f4:a3:cd:97:86:3c:a6:4c:
                    b8:57:80:0b:2a:c9:ca:df:44:c9:14:ad:17:7e:a2:
                    29:7d:a5:41:91:f4:c3:2f:a9:bf:ce:6b:83:5c:4a:
                    1e:39:55:0f:e6:9f:45:0a:33:d5:3e:27:e4:1b:9c:
                    a1:0a:80:22:45:c2:8c:de:c3:dc:85:ec:98:f5:67:
                    b8:9f:49:6f:22:df:40:e6:e1:f2:8a:45:02:3f:b9:
                    60:bb:d7:64:b2:6c:1f:72:cf:d8:99:15:ac:3b:d4:
                    58:ae:82:8e:13:68:72:7a:d9:0d:e9:50:a1:8d:e1:
                    85:0b:06:17:71:27:da:79:4a:0c:52:ea:af:2d:12:
                    95:62:a2:a1:e6:cc:ae:36:32:85:43:ec:14:1a:6d:
                    27:12:43:ab:37:7c:73:36:0f:67:9f:26:68:43:12:
                    0e:12:a5:fb:de:48:53:80:4c:b0:b8:2a:d9:af:65:
                    4e:42:59:80:9f:6f:98:90:58:d9:cb:03:16:d1:dc:
                    92:b3:34:6f:20:fc:22:b4:ef:1b:68:38:63:3d:9c:
                    09:71:ef:85:c1:34:27:4e:61:04:bf:8d:3b:01:93:
                    7a:79
                Exponent: 65537 (0x10001)
        X509v3 extensions:
            X509v3 Basic Constraints: 
                CA:FALSE
            X509v3 Subject Key Identifier: 
                2A:CF:8F:74:FC:31:2C:F1:C0:FA:C6:21:F2:B6:28:D9:52:62:E0:62
            X509v3 Authority Key Identifier: 
                keyid:96:C7:54:C0:B5:1F:5A:04:C0:92:11:4A:60:03:17:C8:6A:2A:76:A9
                DirName:/CN=team128-net
                serial:7F:14:18:3E:F5:EC:C9:28:77:2E:6D:B5:E5:45:7D:8C:EF:D7:A2:0E

            X509v3 Extended Key Usage: 
                TLS Web Server Authentication
            X509v3 Key Usage: 
                Digital Signature, Key Encipherment
            X509v3 Subject Alternative Name: 
                DNS:team128-server
    Signature Algorithm: sha256WithRSAEncryption
         13:03:52:ac:ae:d4:a3:3d:ab:7e:75:5b:83:7e:ef:13:b0:b8:
         2f:cf:11:41:20:2d:7c:41:d6:48:a5:d6:15:4d:d6:af:35:3f:
         5f:c2:b2:bb:25:60:a3:35:23:3e:d1:6f:8f:1c:1b:ed:d0:aa:
         34:03:f7:39:d9:27:6a:4e:0c:7e:d5:cb:da:ea:55:57:52:37:
         dc:ec:ee:7d:7a:f2:d5:3c:fc:bc:ce:e6:b4:c1:d3:2e:8c:98:
         09:ca:0d:87:b2:1b:f1:4e:fc:ef:2e:9d:1d:46:98:43:1f:bd:
         59:9d:9c:14:94:bf:89:bc:b5:0f:e9:70:a3:a2:37:50:ac:5c:
         b0:97:00:aa:16:72:4a:5a:3a:8f:7e:bb:87:a5:98:5a:7f:df:
         a2:93:d4:52:0e:17:28:22:7e:10:c1:d0:27:53:f1:1f:15:39:
         bf:54:03:9c:c3:86:2c:e1:96:de:86:ee:93:a9:74:11:d6:e9:
         ab:b5:e9:7c:8d:b2:80:99:22:ce:58:bd:50:48:16:8d:26:75:
         5a:af:82:ae:f3:9d:0a:ac:b0:c6:0d:21:e7:34:15:13:d0:1d:
         98:ea:62:c0:87:25:9e:42:f8:b9:38:48:b5:c0:58:55:07:a8:
         0a:2f:8f:1c:97:1b:9a:06:c9:8a:35:14:03:59:33:5c:1a:fe:
         22:a9:7a:c4
-----BEGIN CERTIFICATE-----
MIIDeDCCAmCgAwIBAgIRAMKVfAHGkbTXc9TFN4efNSowDQYJKoZIhvcNAQELBQAw
FjEUMBIGA1UEAwwLdGVhbTEyOC1uZXQwHhcNMjIwNTE4MTUxMDUyWhcNMjUwNTAy
MTUxMDUyWjAZMRcwFQYDVQQDDA50ZWFtMTI4LXNlcnZlcjCCASIwDQYJKoZIhvcN
AQEBBQADggEPADCCAQoCggEBAOHoaNHQoVJVUfnl0IbAgEIw48o/Py1cMkHcmePp
iQLka9W9WfSjzZeGPKZMuFeACyrJyt9EyRStF36iKX2lQZH0wy+pv85rg1xKHjlV
D+afRQoz1T4n5BucoQqAIkXCjN7D3IXsmPVnuJ9JbyLfQObh8opFAj+5YLvXZLJs
H3LP2JkVrDvUWK6CjhNocnrZDelQoY3hhQsGF3En2nlKDFLqry0SlWKioebMrjYy
hUPsFBptJxJDqzd8czYPZ58maEMSDhKl+95IU4BMsLgq2a9lTkJZgJ9vmJBY2csD
FtHckrM0byD8IrTvG2g4Yz2cCXHvhcE0J05hBL+NOwGTenkCAwEAAaOBvTCBujAJ
BgNVHRMEAjAAMB0GA1UdDgQWBBQqz490/DEs8cD6xiHytijZUmLgYjBRBgNVHSME
SjBIgBSWx1TAtR9aBMCSEUpgAxfIaip2qaEapBgwFjEUMBIGA1UEAwwLdGVhbTEy
OC1uZXSCFH8UGD717Mkody5tteVFfYzv16IOMBMGA1UdJQQMMAoGCCsGAQUFBwMB
MAsGA1UdDwQEAwIFoDAZBgNVHREEEjAQgg50ZWFtMTI4LXNlcnZlcjANBgkqhkiG
9w0BAQsFAAOCAQEAEwNSrK7Uoz2rfnVbg37vE7C4L88RQSAtfEHWSKXWFU3WrzU/
X8KyuyVgozUjPtFvjxwb7dCqNAP3Odknak4MftXL2upVV1I33OzufXry1Tz8vM7m
tMHTLoyYCcoNh7Ib8U787y6dHUaYQx+9WZ2cFJS/iby1D+lwo6I3UKxcsJcAqhZy
Slo6j367h6WYWn/fopPUUg4XKCJ+EMHQJ1PxHxU5v1QDnMOGLOGW3obuk6l0Edbp
q7XpfI2ygJkizli9UEgWjSZ1Wq+CrvOdCqywxg0h5zQVE9AdmOpiwIclnkL4uThI
tcBYVQeoCi+PHJcbmgbJijUUA1kzXBr+Iql6xA==
-----END CERTIFICATE-----
