Certificate:
    Data:
        Version: 3 (0x2)
        Serial Number:
            db:0e:74:17:f3:6a:a4:27:f2:76:e3:00:d2:51:c2:95
        Signature Algorithm: sha256WithRSAEncryption
        Issuer: CN=team128-net
        Validity
            Not Before: May 18 15:10:52 2022 GMT
            Not After : May  2 15:10:52 2025 GMT
        Subject: CN=team128-client
        Subject Public Key Info:
            Public Key Algorithm: rsaEncryption
                RSA Public-Key: (2048 bit)
                Modulus:
                    00:b7:fa:60:58:4c:1d:20:5d:48:46:99:c7:96:5d:
                    49:57:0d:a6:d6:3a:a9:1a:91:7e:1f:18:f8:43:f8:
                    71:0b:14:40:11:e2:1e:74:0b:d3:dc:2e:10:aa:61:
                    39:ce:bf:20:61:58:39:3f:2b:1e:c2:5a:e2:0b:93:
                    6f:8f:fa:34:89:88:34:f5:0e:b4:f3:db:19:f0:6b:
                    68:be:34:d3:34:84:e4:3c:13:69:cd:58:be:02:c1:
                    7a:f6:3a:9b:2e:c0:7b:6c:f9:c4:6b:e0:f9:f7:f3:
                    95:86:40:75:ac:06:28:9a:f9:96:13:7b:71:b6:dd:
                    af:b8:d5:6b:b5:0f:eb:c0:1f:92:e2:26:f4:97:71:
                    50:72:fc:63:f3:6b:8b:00:f9:ea:62:ea:57:7a:e2:
                    81:51:f4:7a:d5:b6:d3:ea:d9:6e:43:7a:55:5d:d0:
                    cc:d9:f1:40:77:50:d5:7a:59:2a:c7:09:4e:ca:3d:
                    ee:53:79:23:c7:75:ce:0b:6e:f9:cf:7c:fa:c2:56:
                    cf:ce:d6:e6:5f:22:b4:60:dc:96:82:74:f5:bc:f4:
                    85:31:51:b4:ec:07:a0:50:ee:81:15:db:e6:30:58:
                    86:34:a9:42:64:3b:90:0a:29:ad:36:aa:5a:18:81:
                    1e:e6:d9:f6:03:72:b6:53:be:31:90:a4:b6:62:01:
                    04:bb
                Exponent: 65537 (0x10001)
        X509v3 extensions:
            X509v3 Basic Constraints: 
                CA:FALSE
            X509v3 Subject Key Identifier: 
                87:8A:1A:87:B7:39:F7:56:F7:B0:B0:3D:18:5D:2B:FF:E4:46:92:99
            X509v3 Authority Key Identifier: 
                keyid:96:C7:54:C0:B5:1F:5A:04:C0:92:11:4A:60:03:17:C8:6A:2A:76:A9
                DirName:/CN=team128-net
                serial:7F:14:18:3E:F5:EC:C9:28:77:2E:6D:B5:E5:45:7D:8C:EF:D7:A2:0E

            X509v3 Extended Key Usage: 
                TLS Web Client Authentication
            X509v3 Key Usage: 
                Digital Signature
    Signature Algorithm: sha256WithRSAEncryption
         17:9c:e8:40:6d:cf:70:b6:9c:dd:d4:da:7b:fc:9c:c5:4e:2f:
         fa:1c:73:dc:14:1d:2d:c6:61:97:7d:3c:45:96:7b:57:f1:90:
         45:06:7c:c5:6a:08:d7:8c:13:19:1e:7b:42:5b:c6:e4:b6:0f:
         dd:d6:5d:00:3e:84:bc:26:58:14:73:2b:eb:10:87:8a:61:47:
         eb:43:67:2e:0e:3a:6f:1c:18:27:34:bc:09:10:0d:1b:7c:02:
         75:9b:fc:02:51:6d:78:87:33:9e:c3:df:35:25:d1:29:ec:95:
         d4:2b:f3:d3:e3:a2:72:ce:41:84:64:0e:be:a0:14:07:b0:e4:
         56:5e:6d:ac:05:e6:49:0a:f9:67:cb:3a:0b:b5:19:78:11:ed:
         b8:f9:96:26:82:e9:90:93:d3:3c:90:39:d1:7b:0c:dd:a3:c1:
         79:1a:b8:4c:0a:47:59:97:77:0c:61:ad:25:61:bf:8c:59:f0:
         d0:c2:1e:da:03:c8:70:90:29:21:16:35:1a:bd:1b:fb:0a:41:
         e4:88:69:53:d6:8f:54:f3:1a:47:a5:3d:ad:0f:de:9f:d4:14:
         35:4f:a5:ff:58:18:2d:26:fa:a7:bc:12:f6:de:aa:7b:3f:49:
         e9:c5:9c:84:4e:2d:b2:e5:07:65:c6:48:52:a0:98:65:ae:78:
         c7:de:25:10
-----BEGIN CERTIFICATE-----
MIIDXTCCAkWgAwIBAgIRANsOdBfzaqQn8nbjANJRwpUwDQYJKoZIhvcNAQELBQAw
FjEUMBIGA1UEAwwLdGVhbTEyOC1uZXQwHhcNMjIwNTE4MTUxMDUyWhcNMjUwNTAy
MTUxMDUyWjAZMRcwFQYDVQQDDA50ZWFtMTI4LWNsaWVudDCCASIwDQYJKoZIhvcN
AQEBBQADggEPADCCAQoCggEBALf6YFhMHSBdSEaZx5ZdSVcNptY6qRqRfh8Y+EP4
cQsUQBHiHnQL09wuEKphOc6/IGFYOT8rHsJa4guTb4/6NImINPUOtPPbGfBraL40
0zSE5DwTac1YvgLBevY6my7Ae2z5xGvg+ffzlYZAdawGKJr5lhN7cbbdr7jVa7UP
68AfkuIm9JdxUHL8Y/NriwD56mLqV3rigVH0etW20+rZbkN6VV3QzNnxQHdQ1XpZ
KscJTso97lN5I8d1zgtu+c98+sJWz87W5l8itGDcloJ09bz0hTFRtOwHoFDugRXb
5jBYhjSpQmQ7kAoprTaqWhiBHubZ9gNytlO+MZCktmIBBLsCAwEAAaOBojCBnzAJ
BgNVHRMEAjAAMB0GA1UdDgQWBBSHihqHtzn3VvewsD0YXSv/5EaSmTBRBgNVHSME
SjBIgBSWx1TAtR9aBMCSEUpgAxfIaip2qaEapBgwFjEUMBIGA1UEAwwLdGVhbTEy
OC1uZXSCFH8UGD717Mkody5tteVFfYzv16IOMBMGA1UdJQQMMAoGCCsGAQUFBwMC
MAsGA1UdDwQEAwIHgDANBgkqhkiG9w0BAQsFAAOCAQEAF5zoQG3PcLac3dTae/yc
xU4v+hxz3BQdLcZhl308RZZ7V/GQRQZ8xWoI14wTGR57QlvG5LYP3dZdAD6EvCZY
FHMr6xCHimFH60NnLg46bxwYJzS8CRANG3wCdZv8AlFteIcznsPfNSXRKeyV1Cvz
0+Oics5BhGQOvqAUB7DkVl5trAXmSQr5Z8s6C7UZeBHtuPmWJoLpkJPTPJA50XsM
3aPBeRq4TApHWZd3DGGtJWG/jFnw0MIe2gPIcJApIRY1Gr0b+wpB5IhpU9aPVPMa
R6U9rQ/en9QUNU+l/1gYLSb6p7wS9t6qez9J6cWchE4tsuUHZcZIUqCYZa54x94l
EA==
-----END CERTIFICATE-----
