Certificate:
    Data:
        Version: 3 (0x2)
        Serial Number:
            83:0b:a8:06:32:8e:0c:c8:10:e1:9a:29:ac:dc:d1:a3
        Signature Algorithm: sha256WithRSAEncryption
        Issuer: CN=team666-net
        Validity
            Not Before: May 18 23:13:04 2022 GMT
            Not After : May  2 23:13:04 2025 GMT
        Subject: CN=team666-client
        Subject Public Key Info:
            Public Key Algorithm: rsaEncryption
                RSA Public-Key: (2048 bit)
                Modulus:
                    00:d2:5e:b0:f9:9f:f2:65:95:1a:d5:c7:41:5a:a9:
                    7c:1f:8f:68:8f:e0:ec:ef:a0:43:15:2f:b7:86:bb:
                    f7:77:87:fa:ab:c5:35:5a:4d:6c:8f:3a:5c:8d:7a:
                    37:74:2f:37:5e:0d:91:14:5f:09:d4:c7:0d:05:5d:
                    c9:df:b1:15:9d:56:04:c4:f0:ba:9f:93:e5:d8:82:
                    c3:a7:7a:95:15:13:f1:bf:3f:f2:b4:f7:e5:3c:f0:
                    6b:f8:01:d0:6d:07:1c:7c:b1:89:56:11:75:a9:1f:
                    1d:10:d7:13:02:7e:ab:fc:e2:64:92:06:c2:f7:d6:
                    6e:67:07:ef:66:23:f2:f6:61:90:c9:2f:31:cd:31:
                    0c:6f:09:c4:51:ab:b4:01:c7:3a:1b:a4:17:bb:bb:
                    bc:72:6a:11:de:19:76:4c:8e:70:31:b5:19:7b:12:
                    51:7f:49:45:3d:95:8b:fd:b9:8d:9d:47:b5:e4:bf:
                    f0:b7:02:62:41:bb:21:ad:ed:45:16:06:ea:18:d1:
                    b4:f9:f4:d1:ca:57:62:ff:7c:35:66:54:75:fd:87:
                    fd:85:d7:00:54:dc:6e:e8:66:c9:58:91:c0:93:27:
                    ff:6e:44:af:85:c5:db:33:7b:85:1b:3e:9e:6b:8f:
                    fe:20:cd:31:3c:c9:02:b9:b0:71:2b:fd:10:4c:13:
                    b6:b9
                Exponent: 65537 (0x10001)
        X509v3 extensions:
            X509v3 Basic Constraints: 
                CA:FALSE
            X509v3 Subject Key Identifier: 
                E0:EE:8C:27:18:EC:CC:CC:B6:83:41:DE:86:F2:4A:27:91:13:C0:58
            X509v3 Authority Key Identifier: 
                keyid:FE:C9:73:E6:21:F5:55:81:D1:0D:60:55:AF:E1:E6:12:7F:08:82:07
                DirName:/CN=team666-net
                serial:34:70:02:D8:D7:C0:46:D4:48:B2:0D:CB:75:AB:4F:24:EC:67:FB:6A

            X509v3 Extended Key Usage: 
                TLS Web Client Authentication
            X509v3 Key Usage: 
                Digital Signature
    Signature Algorithm: sha256WithRSAEncryption
         04:d9:92:9a:15:eb:be:75:fa:43:62:4c:ad:96:a8:d7:d3:39:
         35:8a:3f:5e:0e:c1:71:45:12:6a:c6:dd:3b:ac:c5:5d:93:a4:
         52:a0:90:78:a3:a4:27:da:38:92:96:72:50:89:d5:8e:c2:19:
         16:bb:39:5c:4a:a9:cf:3d:b5:ce:a3:e7:68:c0:a8:34:0e:e6:
         81:59:cb:f9:e7:c1:1f:aa:d6:5c:2b:08:01:1c:bf:56:7f:10:
         54:61:f0:9f:6f:8a:75:23:28:8d:ec:b4:67:e2:c6:84:09:d8:
         11:f7:6f:ba:f9:a3:3f:93:5f:85:77:75:15:40:e4:69:91:3e:
         9a:03:8c:12:95:9c:d6:d2:1c:5a:ed:e1:34:b9:48:aa:c4:24:
         14:87:e2:d6:e7:ca:80:3e:06:97:c4:ff:8a:1c:fe:77:36:c8:
         6e:ee:5e:32:b4:ab:fc:f2:e0:4f:79:6c:12:49:d0:92:1e:81:
         02:70:76:6a:4d:4e:be:32:15:35:2d:59:77:dd:07:95:ff:98:
         96:d2:a5:31:d7:32:8f:23:f1:f0:f9:1c:26:eb:08:29:e9:bd:
         eb:78:2c:1a:86:e5:72:76:e0:fe:d3:4d:a8:7f:7c:04:93:88:
         e5:59:e1:2f:b9:49:bb:97:78:09:c0:04:66:e5:f4:3b:f9:79:
         7a:72:08:22
-----BEGIN CERTIFICATE-----
MIIDXTCCAkWgAwIBAgIRAIMLqAYyjgzIEOGaKazc0aMwDQYJKoZIhvcNAQELBQAw
FjEUMBIGA1UEAwwLdGVhbTY2Ni1uZXQwHhcNMjIwNTE4MjMxMzA0WhcNMjUwNTAy
MjMxMzA0WjAZMRcwFQYDVQQDDA50ZWFtNjY2LWNsaWVudDCCASIwDQYJKoZIhvcN
AQEBBQADggEPADCCAQoCggEBANJesPmf8mWVGtXHQVqpfB+PaI/g7O+gQxUvt4a7
93eH+qvFNVpNbI86XI16N3QvN14NkRRfCdTHDQVdyd+xFZ1WBMTwup+T5diCw6d6
lRUT8b8/8rT35Tzwa/gB0G0HHHyxiVYRdakfHRDXEwJ+q/ziZJIGwvfWbmcH72Yj
8vZhkMkvMc0xDG8JxFGrtAHHOhukF7u7vHJqEd4ZdkyOcDG1GXsSUX9JRT2Vi/25
jZ1HteS/8LcCYkG7Ia3tRRYG6hjRtPn00cpXYv98NWZUdf2H/YXXAFTcbuhmyViR
wJMn/25Er4XF2zN7hRs+nmuP/iDNMTzJArmwcSv9EEwTtrkCAwEAAaOBojCBnzAJ
BgNVHRMEAjAAMB0GA1UdDgQWBBTg7ownGOzMzLaDQd6G8konkRPAWDBRBgNVHSME
SjBIgBT+yXPmIfVVgdENYFWv4eYSfwiCB6EapBgwFjEUMBIGA1UEAwwLdGVhbTY2
Ni1uZXSCFDRwAtjXwEbUSLINy3WrTyTsZ/tqMBMGA1UdJQQMMAoGCCsGAQUFBwMC
MAsGA1UdDwQEAwIHgDANBgkqhkiG9w0BAQsFAAOCAQEABNmSmhXrvnX6Q2JMrZao
19M5NYo/Xg7BcUUSasbdO6zFXZOkUqCQeKOkJ9o4kpZyUInVjsIZFrs5XEqpzz21
zqPnaMCoNA7mgVnL+efBH6rWXCsIARy/Vn8QVGHwn2+KdSMojey0Z+LGhAnYEfdv
uvmjP5NfhXd1FUDkaZE+mgOMEpWc1tIcWu3hNLlIqsQkFIfi1ufKgD4Gl8T/ihz+
dzbIbu5eMrSr/PLgT3lsEknQkh6BAnB2ak1OvjIVNS1Zd90Hlf+YltKlMdcyjyPx
8PkcJusIKem963gsGoblcnbg/tNNqH98BJOI5VnhL7lJu5d4CcAEZuX0O/l5enII
Ig==
-----END CERTIFICATE-----
