Certificate:
    Data:
        Version: 3 (0x2)
        Serial Number:
            5f:42:e8:91:46:e3:b2:3a:e8:0d:fa:39:8f:ea:8f:cd
        Signature Algorithm: sha256WithRSAEncryption
        Issuer: CN=team588-net
        Validity
            Not Before: May 18 22:36:15 2022 GMT
            Not After : May  2 22:36:15 2025 GMT
        Subject: CN=team588-server
        Subject Public Key Info:
            Public Key Algorithm: rsaEncryption
                RSA Public-Key: (2048 bit)
                Modulus:
                    00:ba:8e:1a:e6:27:87:fe:25:c8:ec:8c:56:b5:bb:
                    76:72:c6:d7:09:6e:bc:98:c3:ed:1d:5f:65:1b:f0:
                    02:6c:72:83:48:ba:0a:bf:8c:7b:53:b6:28:71:56:
                    3c:ce:32:9d:9f:95:46:b8:63:e5:a9:a8:2b:26:74:
                    a4:5e:69:62:8d:f7:87:71:3e:f8:cc:72:34:40:f5:
                    24:98:e3:86:1c:41:fe:06:05:9b:ea:e8:9d:04:d8:
                    ea:07:83:81:24:2e:c6:3c:cb:e6:05:8a:32:24:96:
                    4e:f7:b8:9e:5b:03:c0:26:64:19:d4:08:d3:88:40:
                    ed:16:1f:98:00:ba:3e:a0:3f:66:83:7b:38:88:a9:
                    00:34:c6:a5:4e:fb:c6:3e:6f:3a:09:6e:54:b5:b0:
                    21:fa:f5:b5:ca:61:24:11:ca:0c:d8:c5:fc:c1:1d:
                    de:f5:93:56:5f:b2:fe:2c:fe:8d:4e:27:e7:a4:ce:
                    21:1d:cd:9d:32:a0:54:bf:c6:7b:c6:13:7e:bb:de:
                    9c:d7:70:6f:51:2d:90:c4:59:f6:65:1e:58:1e:29:
                    a0:76:fd:4c:aa:21:35:17:04:cb:d0:95:7a:62:94:
                    ed:63:18:11:57:d3:01:d1:2c:92:a0:a0:0f:df:92:
                    b0:2d:f4:2a:92:b0:c0:0d:3e:56:bb:1c:3f:de:6e:
                    6f:cd
                Exponent: 65537 (0x10001)
        X509v3 extensions:
            X509v3 Basic Constraints: 
                CA:FALSE
            X509v3 Subject Key Identifier: 
                A8:D9:9C:E9:9D:E5:BE:4F:35:F3:54:32:77:B6:7A:11:27:28:28:15
            X509v3 Authority Key Identifier: 
                keyid:65:5A:D6:4C:D4:14:2D:92:22:61:6C:B2:58:4F:F4:E1:C2:A8:20:3B
                DirName:/CN=team588-net
                serial:2C:D3:B7:C6:7E:83:8A:AA:AA:54:E3:D6:78:84:4A:CB:73:95:70:8D

            X509v3 Extended Key Usage: 
                TLS Web Server Authentication
            X509v3 Key Usage: 
                Digital Signature, Key Encipherment
            X509v3 Subject Alternative Name: 
                DNS:team588-server
    Signature Algorithm: sha256WithRSAEncryption
         b9:7a:39:1b:32:80:8e:ae:b3:50:2b:4d:cd:02:4e:af:4a:07:
         a0:97:fc:7a:98:f9:bb:a5:24:fc:5a:3c:be:cc:ca:6d:37:3a:
         ce:72:e1:56:4d:af:87:9e:6e:bc:d6:4a:ed:c7:5e:4d:ce:50:
         71:07:26:39:22:87:29:90:80:07:ae:8a:a0:01:1d:dc:6f:65:
         32:fe:29:b2:bf:c9:92:55:d4:54:91:db:d4:d0:d9:6c:e4:a9:
         6b:00:bf:7a:99:44:66:a7:ed:65:cd:13:2f:ae:bc:5f:cc:45:
         fb:ee:25:a9:d4:5a:4f:8f:f8:23:86:4a:fb:8c:67:39:2c:e7:
         6b:c8:e1:bc:f7:c7:11:d8:5d:f3:3d:56:ec:e6:45:48:5d:9f:
         9e:9f:41:79:22:de:e8:16:70:33:8d:b7:4b:18:8f:99:2a:3e:
         02:04:65:21:b9:b9:ae:35:ef:52:4c:eb:a9:d8:0b:ad:c5:51:
         57:ea:2a:c4:65:3c:59:94:01:b8:d1:5e:ca:21:5a:e2:5f:3e:
         14:a2:0e:fa:2f:2f:e4:b5:b9:d7:cd:00:55:78:ed:ed:e3:59:
         75:dd:5c:f4:9d:45:45:9a:f8:1c:8e:42:ee:d8:b5:3c:30:1f:
         a3:ae:96:72:76:d9:3d:25:cf:50:be:f4:e6:dc:2f:01:d3:c1:
         35:8f:f8:30
-----BEGIN CERTIFICATE-----
MIIDdzCCAl+gAwIBAgIQX0LokUbjsjroDfo5j+qPzTANBgkqhkiG9w0BAQsFADAW
MRQwEgYDVQQDDAt0ZWFtNTg4LW5ldDAeFw0yMjA1MTgyMjM2MTVaFw0yNTA1MDIy
MjM2MTVaMBkxFzAVBgNVBAMMDnRlYW01ODgtc2VydmVyMIIBIjANBgkqhkiG9w0B
AQEFAAOCAQ8AMIIBCgKCAQEAuo4a5ieH/iXI7IxWtbt2csbXCW68mMPtHV9lG/AC
bHKDSLoKv4x7U7YocVY8zjKdn5VGuGPlqagrJnSkXmlijfeHcT74zHI0QPUkmOOG
HEH+BgWb6uidBNjqB4OBJC7GPMvmBYoyJJZO97ieWwPAJmQZ1AjTiEDtFh+YALo+
oD9mg3s4iKkANMalTvvGPm86CW5UtbAh+vW1ymEkEcoM2MX8wR3e9ZNWX7L+LP6N
TifnpM4hHc2dMqBUv8Z7xhN+u96c13BvUS2QxFn2ZR5YHimgdv1MqiE1FwTL0JV6
YpTtYxgRV9MB0SySoKAP35KwLfQqkrDADT5Wuxw/3m5vzQIDAQABo4G9MIG6MAkG
A1UdEwQCMAAwHQYDVR0OBBYEFKjZnOmd5b5PNfNUMne2ehEnKCgVMFEGA1UdIwRK
MEiAFGVa1kzUFC2SImFsslhP9OHCqCA7oRqkGDAWMRQwEgYDVQQDDAt0ZWFtNTg4
LW5ldIIULNO3xn6DiqqqVOPWeIRKy3OVcI0wEwYDVR0lBAwwCgYIKwYBBQUHAwEw
CwYDVR0PBAQDAgWgMBkGA1UdEQQSMBCCDnRlYW01ODgtc2VydmVyMA0GCSqGSIb3
DQEBCwUAA4IBAQC5ejkbMoCOrrNQK03NAk6vSgegl/x6mPm7pST8Wjy+zMptNzrO
cuFWTa+Hnm681krtx15NzlBxByY5IocpkIAHroqgAR3cb2Uy/imyv8mSVdRUkdvU
0Nls5KlrAL96mURmp+1lzRMvrrxfzEX77iWp1FpPj/gjhkr7jGc5LOdryOG898cR
2F3zPVbs5kVIXZ+en0F5It7oFnAzjbdLGI+ZKj4CBGUhubmuNe9STOup2AutxVFX
6irEZTxZlAG40V7KIVriXz4Uog76Ly/ktbnXzQBVeO3t41l13Vz0nUVFmvgcjkLu
2LU8MB+jrpZydtk9Jc9QvvTm3C8B08E1j/gw
-----END CERTIFICATE-----
