Certificate:
    Data:
        Version: 3 (0x2)
        Serial Number:
            46:c8:e8:16:ed:22:e2:93:e4:de:8f:ee:b4:1c:02:df
        Signature Algorithm: sha256WithRSAEncryption
        Issuer: CN=team667-net
        Validity
            Not Before: May 18 23:14:45 2022 GMT
            Not After : May  2 23:14:45 2025 GMT
        Subject: CN=team667-server
        Subject Public Key Info:
            Public Key Algorithm: rsaEncryption
                RSA Public-Key: (2048 bit)
                Modulus:
                    00:cf:e2:d0:8d:bb:35:66:c9:00:6f:ce:f0:06:c2:
                    24:d3:42:d0:72:d6:df:96:76:2f:62:e0:33:c1:ce:
                    74:73:49:8d:d1:4f:4d:62:68:21:9f:4e:4f:4c:a6:
                    e7:37:12:cf:d9:93:f9:9f:49:2d:17:1a:3f:6e:0a:
                    3b:55:0e:71:02:82:64:04:70:6f:e2:34:4d:20:9f:
                    0b:2f:eb:db:83:d7:a3:e1:28:d8:f6:73:a3:c9:81:
                    87:e2:48:d8:51:ae:a9:ab:fd:97:c0:37:78:ee:80:
                    80:9f:89:69:37:5c:5b:ee:ea:87:9b:5b:3f:ad:a0:
                    18:f3:9c:68:60:6f:c3:b8:80:8c:6e:56:13:61:5a:
                    26:75:9d:96:0a:80:c9:9b:bd:50:57:a0:88:b8:2b:
                    00:36:15:9a:13:2a:ab:dc:dc:00:86:fc:e8:1c:5f:
                    ea:54:fb:55:da:cd:29:87:b1:cb:9f:aa:73:21:07:
                    ed:43:d9:26:d7:6a:9a:9d:13:5d:bb:52:c0:4d:a1:
                    8f:8e:d4:95:54:60:96:95:ad:21:b9:15:8c:82:50:
                    6e:f4:01:f7:b3:20:f1:a2:c9:34:35:98:b2:12:ad:
                    16:6c:fb:99:47:1a:35:77:94:96:52:fe:72:5c:b2:
                    1e:0d:f9:6d:9b:ca:ce:5b:2a:b8:6f:1a:08:85:81:
                    40:31
                Exponent: 65537 (0x10001)
        X509v3 extensions:
            X509v3 Basic Constraints: 
                CA:FALSE
            X509v3 Subject Key Identifier: 
                46:A3:A6:A3:D7:29:66:EA:2B:03:EB:31:1F:12:52:57:F8:89:35:B2
            X509v3 Authority Key Identifier: 
                keyid:F9:CA:EF:EB:72:AD:03:EE:29:16:4B:B8:D1:3E:28:34:BD:A0:25:9F
                DirName:/CN=team667-net
                serial:3F:8B:23:CC:81:BB:C6:BE:C7:D8:CA:13:B4:5F:77:DF:F0:94:92:37

            X509v3 Extended Key Usage: 
                TLS Web Server Authentication
            X509v3 Key Usage: 
                Digital Signature, Key Encipherment
            X509v3 Subject Alternative Name: 
                DNS:team667-server
    Signature Algorithm: sha256WithRSAEncryption
         5a:2e:40:93:20:33:e9:70:a3:5f:47:e1:9f:4b:50:98:46:9d:
         ae:30:e4:f9:81:46:63:c3:d2:8c:27:fe:60:22:19:dc:18:59:
         d1:ec:f2:ed:14:40:15:d2:7b:cf:3e:84:90:93:62:3f:33:1f:
         f4:61:fd:9c:83:cc:47:cf:cc:d3:ab:a0:08:21:32:7a:5d:87:
         8f:f9:1d:fb:7c:f5:9e:05:d7:dc:d9:4a:22:5a:a5:5f:2f:73:
         44:8f:23:cf:09:e8:2c:04:54:4b:e2:bb:5d:14:db:8e:04:ec:
         1c:f2:36:52:54:13:31:bd:97:72:3f:0c:b5:b0:c5:37:a9:68:
         21:e7:1a:a4:09:67:02:f6:6a:02:e0:5d:c4:92:3d:57:38:87:
         b4:23:bc:41:e2:66:87:9e:f5:dd:71:3a:4f:a7:ad:d3:06:b0:
         fe:f1:64:b5:42:e1:09:84:08:3d:f7:3c:53:d6:86:6b:36:37:
         41:60:ac:df:6f:31:69:6f:8a:03:c7:14:09:e2:29:ed:80:9b:
         d0:3e:1d:0e:76:68:dd:c7:1d:0a:3a:f1:f6:8a:b8:ce:66:ca:
         56:07:e6:e6:3a:d0:7c:dd:05:b9:97:b1:ad:2c:e7:9d:2d:87:
         f1:e3:50:f8:b1:0c:86:47:bf:37:a4:38:64:74:29:50:e6:30:
         dd:90:91:7b
-----BEGIN CERTIFICATE-----
MIIDdzCCAl+gAwIBAgIQRsjoFu0i4pPk3o/utBwC3zANBgkqhkiG9w0BAQsFADAW
MRQwEgYDVQQDDAt0ZWFtNjY3LW5ldDAeFw0yMjA1MTgyMzE0NDVaFw0yNTA1MDIy
MzE0NDVaMBkxFzAVBgNVBAMMDnRlYW02Njctc2VydmVyMIIBIjANBgkqhkiG9w0B
AQEFAAOCAQ8AMIIBCgKCAQEAz+LQjbs1ZskAb87wBsIk00LQctbflnYvYuAzwc50
c0mN0U9NYmghn05PTKbnNxLP2ZP5n0ktFxo/bgo7VQ5xAoJkBHBv4jRNIJ8LL+vb
g9ej4SjY9nOjyYGH4kjYUa6pq/2XwDd47oCAn4lpN1xb7uqHm1s/raAY85xoYG/D
uICMblYTYVomdZ2WCoDJm71QV6CIuCsANhWaEyqr3NwAhvzoHF/qVPtV2s0ph7HL
n6pzIQftQ9km12qanRNdu1LATaGPjtSVVGCWla0huRWMglBu9AH3syDxosk0NZiy
Eq0WbPuZRxo1d5SWUv5yXLIeDfltm8rOWyq4bxoIhYFAMQIDAQABo4G9MIG6MAkG
A1UdEwQCMAAwHQYDVR0OBBYEFEajpqPXKWbqKwPrMR8SUlf4iTWyMFEGA1UdIwRK
MEiAFPnK7+tyrQPuKRZLuNE+KDS9oCWfoRqkGDAWMRQwEgYDVQQDDAt0ZWFtNjY3
LW5ldIIUP4sjzIG7xr7H2MoTtF933/CUkjcwEwYDVR0lBAwwCgYIKwYBBQUHAwEw
CwYDVR0PBAQDAgWgMBkGA1UdEQQSMBCCDnRlYW02Njctc2VydmVyMA0GCSqGSIb3
DQEBCwUAA4IBAQBaLkCTIDPpcKNfR+GfS1CYRp2uMOT5gUZjw9KMJ/5gIhncGFnR
7PLtFEAV0nvPPoSQk2I/Mx/0Yf2cg8xHz8zTq6AIITJ6XYeP+R37fPWeBdfc2Uoi
WqVfL3NEjyPPCegsBFRL4rtdFNuOBOwc8jZSVBMxvZdyPwy1sMU3qWgh5xqkCWcC
9moC4F3Ekj1XOIe0I7xB4maHnvXdcTpPp63TBrD+8WS1QuEJhAg99zxT1oZrNjdB
YKzfbzFpb4oDxxQJ4intgJvQPh0Odmjdxx0KOvH2irjOZspWB+bmOtB83QW5l7Gt
LOedLYfx41D4sQyGR783pDhkdClQ5jDdkJF7
-----END CERTIFICATE-----
