Certificate:
    Data:
        Version: 3 (0x2)
        Serial Number:
            47:08:c7:b3:04:6f:a2:34:08:8e:fa:eb:b2:dd:c8:bd
        Signature Algorithm: sha256WithRSAEncryption
        Issuer: CN=team408-net
        Validity
            Not Before: May 18 20:52:01 2022 GMT
            Not After : May  2 20:52:01 2025 GMT
        Subject: CN=team408-server
        Subject Public Key Info:
            Public Key Algorithm: rsaEncryption
                RSA Public-Key: (2048 bit)
                Modulus:
                    00:c5:af:4c:b8:c5:23:58:37:01:39:a5:68:fd:c6:
                    82:64:39:c8:cb:56:d6:da:4f:c3:60:71:38:5c:cd:
                    11:b0:e2:c0:7a:8d:ab:99:fc:ba:25:78:c8:46:20:
                    97:fa:dd:05:d9:4c:c5:25:f6:38:3b:8f:68:0f:89:
                    7e:81:65:5b:5a:e4:61:5c:ce:18:f0:80:a0:3a:ea:
                    22:d1:b7:99:96:65:05:ab:e0:92:4c:fa:fb:20:a5:
                    4a:2d:ad:8c:d9:c6:eb:93:d0:88:78:4e:19:94:07:
                    f5:cd:89:9a:57:2f:f6:96:76:1e:f9:30:0b:d5:b0:
                    b5:66:97:a5:4b:45:eb:f1:7e:a4:70:99:05:a7:45:
                    92:4b:cf:47:4a:73:67:ee:42:9c:3b:30:07:a3:2f:
                    17:94:fc:da:c6:5e:b1:fd:aa:3e:fb:0f:d1:59:fd:
                    ac:8a:e8:98:9d:86:11:6b:0a:0d:4c:5e:ce:f8:f8:
                    9b:d0:08:6f:4d:f0:06:9d:92:4f:f8:d9:6b:08:04:
                    9b:c2:eb:10:20:54:2b:10:80:c4:74:ba:ff:7f:09:
                    34:a8:8d:0c:58:75:4f:63:03:2e:31:cb:bf:31:f4:
                    58:96:d2:eb:4b:c1:ce:5c:1c:c1:6b:ba:8d:a0:78:
                    02:1b:26:33:33:c5:a3:51:46:ec:3b:47:26:d9:a2:
                    61:f1
                Exponent: 65537 (0x10001)
        X509v3 extensions:
            X509v3 Basic Constraints: 
                CA:FALSE
            X509v3 Subject Key Identifier: 
                1C:2F:3A:AF:70:0C:31:86:B0:A6:00:39:A6:4B:27:16:B5:53:F1:DC
            X509v3 Authority Key Identifier: 
                keyid:CD:D4:B1:0E:D4:3A:07:74:50:F6:96:A8:88:E8:D4:2A:3F:AA:2A:A0
                DirName:/CN=team408-net
                serial:7B:62:7C:70:45:6D:2E:C9:A8:13:0D:06:8C:14:BD:8C:11:EE:EC:0D

            X509v3 Extended Key Usage: 
                TLS Web Server Authentication
            X509v3 Key Usage: 
                Digital Signature, Key Encipherment
            X509v3 Subject Alternative Name: 
                DNS:team408-server
    Signature Algorithm: sha256WithRSAEncryption
         32:81:9f:56:b4:f9:1f:cb:56:40:06:be:34:85:d5:44:c0:63:
         20:c5:d4:eb:9b:9d:42:7a:2e:ae:2b:f1:14:3c:cd:73:88:f1:
         c1:8b:1a:a8:d1:29:95:e3:57:5b:ab:bd:9e:64:3d:d7:63:91:
         80:4c:30:a3:f0:bd:57:7d:13:23:d6:e0:d9:d1:de:b6:04:f5:
         1c:db:7d:50:aa:7d:e1:5a:69:3b:83:51:4b:c8:d4:7c:5a:24:
         46:a8:28:ba:0e:61:fe:14:34:7b:d5:1f:1b:63:fd:66:00:d8:
         10:6d:26:20:fb:5c:b1:a8:d4:62:ab:04:d9:e3:98:e6:b9:7a:
         40:bc:b5:0d:67:fc:06:c2:72:c5:cd:60:e7:ab:98:4a:a3:71:
         26:9d:1d:04:78:a7:68:44:c4:f3:16:cf:6c:f5:5b:ea:e8:37:
         1f:43:b6:f9:d8:88:dd:02:4a:a2:79:4d:44:ed:6b:ab:af:a4:
         17:2f:d0:5a:8f:1f:68:5f:a7:e7:f3:d6:f9:2b:7f:6c:e6:a2:
         7f:b2:08:3a:1b:61:a1:ca:4b:63:d6:63:30:69:a0:04:02:b9:
         4e:3b:cf:fa:c5:cf:ad:7d:40:29:5b:66:22:1e:31:49:29:57:
         02:0b:28:7c:35:83:a7:44:dc:ec:0d:13:e0:96:7a:5e:79:82:
         82:7c:ed:a9
-----BEGIN CERTIFICATE-----
MIIDdzCCAl+gAwIBAgIQRwjHswRvojQIjvrrst3IvTANBgkqhkiG9w0BAQsFADAW
MRQwEgYDVQQDDAt0ZWFtNDA4LW5ldDAeFw0yMjA1MTgyMDUyMDFaFw0yNTA1MDIy
MDUyMDFaMBkxFzAVBgNVBAMMDnRlYW00MDgtc2VydmVyMIIBIjANBgkqhkiG9w0B
AQEFAAOCAQ8AMIIBCgKCAQEAxa9MuMUjWDcBOaVo/caCZDnIy1bW2k/DYHE4XM0R
sOLAeo2rmfy6JXjIRiCX+t0F2UzFJfY4O49oD4l+gWVbWuRhXM4Y8ICgOuoi0beZ
lmUFq+CSTPr7IKVKLa2M2cbrk9CIeE4ZlAf1zYmaVy/2lnYe+TAL1bC1ZpelS0Xr
8X6kcJkFp0WSS89HSnNn7kKcOzAHoy8XlPzaxl6x/ao++w/RWf2siuiYnYYRawoN
TF7O+Pib0AhvTfAGnZJP+NlrCASbwusQIFQrEIDEdLr/fwk0qI0MWHVPYwMuMcu/
MfRYltLrS8HOXBzBa7qNoHgCGyYzM8WjUUbsO0cm2aJh8QIDAQABo4G9MIG6MAkG
A1UdEwQCMAAwHQYDVR0OBBYEFBwvOq9wDDGGsKYAOaZLJxa1U/HcMFEGA1UdIwRK
MEiAFM3UsQ7UOgd0UPaWqIjo1Co/qiqgoRqkGDAWMRQwEgYDVQQDDAt0ZWFtNDA4
LW5ldIIUe2J8cEVtLsmoEw0GjBS9jBHu7A0wEwYDVR0lBAwwCgYIKwYBBQUHAwEw
CwYDVR0PBAQDAgWgMBkGA1UdEQQSMBCCDnRlYW00MDgtc2VydmVyMA0GCSqGSIb3
DQEBCwUAA4IBAQAygZ9WtPkfy1ZABr40hdVEwGMgxdTrm51Cei6uK/EUPM1ziPHB
ixqo0SmV41dbq72eZD3XY5GATDCj8L1XfRMj1uDZ0d62BPUc231Qqn3hWmk7g1FL
yNR8WiRGqCi6DmH+FDR71R8bY/1mANgQbSYg+1yxqNRiqwTZ45jmuXpAvLUNZ/wG
wnLFzWDnq5hKo3EmnR0EeKdoRMTzFs9s9Vvq6DcfQ7b52IjdAkqieU1E7Wurr6QX
L9Bajx9oX6fn89b5K39s5qJ/sgg6G2Ghyktj1mMwaaAEArlOO8/6xc+tfUApW2Yi
HjFJKVcCCyh8NYOnRNzsDRPglnpeeYKCfO2p
-----END CERTIFICATE-----
