Certificate:
    Data:
        Version: 3 (0x2)
        Serial Number:
            19:80:02:e1:90:89:28:57:91:e6:71:ca:fe:0c:91:b6
        Signature Algorithm: sha256WithRSAEncryption
        Issuer: CN=team130-net
        Validity
            Not Before: May 18 15:07:01 2022 GMT
            Not After : May  2 15:07:01 2025 GMT
        Subject: CN=team130-server
        Subject Public Key Info:
            Public Key Algorithm: rsaEncryption
                RSA Public-Key: (2048 bit)
                Modulus:
                    00:bf:66:2f:c0:a1:67:28:33:dc:ce:33:03:38:41:
                    7e:2b:e0:15:d1:ed:fb:6a:f6:48:19:ca:86:1b:f0:
                    e1:b4:6b:a7:0c:de:35:48:18:91:37:05:33:dc:d6:
                    ef:ee:18:e1:fc:1f:11:bc:ac:48:54:cc:93:f2:39:
                    44:4a:aa:d4:e7:cf:2a:1f:53:7a:60:e1:ca:d5:a1:
                    2c:66:5f:25:d9:84:66:2b:95:e3:7c:d3:28:66:f9:
                    a9:75:cb:94:aa:e2:f0:c1:3a:60:c8:02:29:50:b5:
                    4b:e9:cc:00:11:e6:eb:10:bf:3f:43:35:84:61:8c:
                    11:2c:4a:df:7f:ba:df:e0:c6:81:4f:b2:a8:00:99:
                    b7:a0:17:90:26:82:9b:8f:15:a3:0e:4c:82:66:b4:
                    aa:22:4c:ad:5d:8a:db:98:ec:38:4a:29:39:32:0f:
                    7c:d9:f2:3a:b5:bf:82:c2:52:d4:82:8d:08:e7:48:
                    a2:bc:17:0d:7b:85:f2:16:bc:a3:39:47:73:fb:16:
                    58:a6:5b:20:37:28:8d:9c:96:0b:14:af:c7:ed:85:
                    d9:3a:03:af:1e:db:c2:64:21:44:d1:df:66:64:dc:
                    4e:ac:0b:ea:8a:8c:1d:55:ee:b3:d0:9c:f6:4d:e2:
                    d1:b1:1a:35:17:9e:b5:f5:53:df:0f:3c:57:aa:36:
                    b6:f5
                Exponent: 65537 (0x10001)
        X509v3 extensions:
            X509v3 Basic Constraints: 
                CA:FALSE
            X509v3 Subject Key Identifier: 
                3C:1C:0A:57:87:6A:D3:EB:51:30:9F:42:A7:EF:F8:14:68:D1:44:5D
            X509v3 Authority Key Identifier: 
                keyid:84:1B:09:5D:6A:61:20:B8:B0:C9:C7:06:46:B9:91:40:59:01:2B:BA
                DirName:/CN=team130-net
                serial:59:8E:A3:6C:8C:5A:15:65:10:F8:5C:2B:AF:84:78:FB:79:01:60:04

            X509v3 Extended Key Usage: 
                TLS Web Server Authentication
            X509v3 Key Usage: 
                Digital Signature, Key Encipherment
            X509v3 Subject Alternative Name: 
                DNS:team130-server
    Signature Algorithm: sha256WithRSAEncryption
         84:c3:26:88:45:07:e4:0c:fa:63:88:0d:cb:02:e7:39:cc:4d:
         be:2b:de:0d:d5:98:88:a7:1a:f8:09:6c:e4:76:fe:2d:1a:e2:
         0f:72:36:b4:de:b5:7e:7c:a2:90:01:f9:ce:86:a9:b0:e9:eb:
         d9:f0:07:5a:52:6d:f3:70:db:7f:c7:11:8c:37:a4:04:28:4e:
         6b:56:8a:87:0f:58:22:7b:7c:87:3e:5e:8e:b4:a8:58:87:c1:
         10:c6:7d:8b:62:e5:14:31:c1:49:46:b1:8e:91:d2:c5:35:50:
         71:1b:fa:72:1a:0d:1c:d6:e8:6f:45:c6:c7:ae:e1:48:7c:8c:
         25:2b:70:d6:0c:6d:94:6a:b7:cb:a3:46:04:3f:cf:75:b8:8c:
         4f:5a:f2:6f:d4:b0:dc:4f:8b:df:6a:a9:04:7f:da:76:f9:80:
         56:60:e3:3a:9c:fc:83:07:7b:ca:a1:0f:aa:96:05:e3:b6:a4:
         51:c3:15:a8:0c:85:6d:ea:ab:d9:bf:a8:41:9d:94:09:2f:ca:
         b5:77:af:2a:c3:56:d3:fa:ec:9e:8a:86:b5:24:3a:d1:ef:75:
         9c:0e:f1:f4:2b:e8:5e:f5:fa:fa:32:79:86:52:85:55:55:d5:
         e4:df:6a:ed:4a:20:8a:6c:c0:a8:26:7f:7a:06:ca:5a:e3:36:
         70:60:16:d2
-----BEGIN CERTIFICATE-----
MIIDdzCCAl+gAwIBAgIQGYAC4ZCJKFeR5nHK/gyRtjANBgkqhkiG9w0BAQsFADAW
MRQwEgYDVQQDDAt0ZWFtMTMwLW5ldDAeFw0yMjA1MTgxNTA3MDFaFw0yNTA1MDIx
NTA3MDFaMBkxFzAVBgNVBAMMDnRlYW0xMzAtc2VydmVyMIIBIjANBgkqhkiG9w0B
AQEFAAOCAQ8AMIIBCgKCAQEAv2YvwKFnKDPczjMDOEF+K+AV0e37avZIGcqGG/Dh
tGunDN41SBiRNwUz3Nbv7hjh/B8RvKxIVMyT8jlESqrU588qH1N6YOHK1aEsZl8l
2YRmK5XjfNMoZvmpdcuUquLwwTpgyAIpULVL6cwAEebrEL8/QzWEYYwRLErff7rf
4MaBT7KoAJm3oBeQJoKbjxWjDkyCZrSqIkytXYrbmOw4Sik5Mg982fI6tb+CwlLU
go0I50iivBcNe4XyFryjOUdz+xZYplsgNyiNnJYLFK/H7YXZOgOvHtvCZCFE0d9m
ZNxOrAvqiowdVe6z0Jz2TeLRsRo1F5619VPfDzxXqja29QIDAQABo4G9MIG6MAkG
A1UdEwQCMAAwHQYDVR0OBBYEFDwcCleHatPrUTCfQqfv+BRo0URdMFEGA1UdIwRK
MEiAFIQbCV1qYSC4sMnHBka5kUBZASu6oRqkGDAWMRQwEgYDVQQDDAt0ZWFtMTMw
LW5ldIIUWY6jbIxaFWUQ+Fwrr4R4+3kBYAQwEwYDVR0lBAwwCgYIKwYBBQUHAwEw
CwYDVR0PBAQDAgWgMBkGA1UdEQQSMBCCDnRlYW0xMzAtc2VydmVyMA0GCSqGSIb3
DQEBCwUAA4IBAQCEwyaIRQfkDPpjiA3LAuc5zE2+K94N1ZiIpxr4CWzkdv4tGuIP
cja03rV+fKKQAfnOhqmw6evZ8AdaUm3zcNt/xxGMN6QEKE5rVoqHD1gie3yHPl6O
tKhYh8EQxn2LYuUUMcFJRrGOkdLFNVBxG/pyGg0c1uhvRcbHruFIfIwlK3DWDG2U
arfLo0YEP891uIxPWvJv1LDcT4vfaqkEf9p2+YBWYOM6nPyDB3vKoQ+qlgXjtqRR
wxWoDIVt6qvZv6hBnZQJL8q1d68qw1bT+uyeioa1JDrR73WcDvH0K+he9fr6MnmG
UoVVVdXk32rtSiCKbMCoJn96Bspa4zZwYBbS
-----END CERTIFICATE-----
