Certificate:
    Data:
        Version: 3 (0x2)
        Serial Number:
            fc:4d:f5:90:b6:d4:c9:9e:fa:98:57:c1:b3:71:5c:56
        Signature Algorithm: sha256WithRSAEncryption
        Issuer: CN=team479-net
        Validity
            Not Before: May 18 21:40:13 2022 GMT
            Not After : May  2 21:40:13 2025 GMT
        Subject: CN=team479-server
        Subject Public Key Info:
            Public Key Algorithm: rsaEncryption
                RSA Public-Key: (2048 bit)
                Modulus:
                    00:c8:c0:fa:0d:a7:d0:0e:9a:95:a9:f1:84:08:8d:
                    d6:5d:fb:e7:77:25:71:f8:95:58:f7:c8:de:22:9e:
                    01:9c:ba:81:08:e5:ac:c6:70:91:cb:36:3c:c0:ee:
                    ad:5c:6d:35:31:21:45:83:43:07:88:e2:19:78:96:
                    2a:17:46:f8:c7:ab:f4:ec:36:03:49:ed:22:31:a7:
                    fe:30:f0:66:f8:0d:18:d2:1c:40:07:b2:55:6e:a5:
                    b3:26:90:52:ba:4c:f9:59:a4:76:36:e0:07:c1:64:
                    4c:35:47:4f:71:a8:32:d3:cd:68:d6:8b:d8:cc:5e:
                    c3:cb:2a:4f:08:2a:bf:d1:d9:d1:f8:b6:ce:0c:ab:
                    a6:a7:77:0e:d8:e7:98:42:81:4f:36:19:57:d9:78:
                    d2:d8:bd:7e:f2:b6:4c:4e:9a:e3:b4:eb:26:b8:25:
                    54:27:fc:eb:61:86:7e:fc:98:fa:41:17:f3:d8:29:
                    61:80:2d:67:02:10:a9:1c:88:d5:c3:35:c7:46:e3:
                    62:0f:d5:97:da:03:56:ec:71:d1:7f:d4:f4:5f:1c:
                    d1:76:b6:1d:e7:1e:47:9e:e5:5d:d6:3f:06:66:b6:
                    2d:75:40:4e:bc:5e:74:32:a8:d8:ca:3c:d9:2b:87:
                    5c:61:46:a7:c1:02:6c:4d:3f:f9:55:7d:9d:f4:d8:
                    d1:8f
                Exponent: 65537 (0x10001)
        X509v3 extensions:
            X509v3 Basic Constraints: 
                CA:FALSE
            X509v3 Subject Key Identifier: 
                18:C9:00:0F:23:F8:AF:46:22:A0:D9:69:9D:90:02:B2:0F:1A:23:D1
            X509v3 Authority Key Identifier: 
                keyid:4B:6F:B5:3E:1D:85:3B:41:45:0F:51:4E:4D:9F:71:A7:75:E6:13:FF
                DirName:/CN=team479-net
                serial:2B:FD:A4:FC:E7:23:4C:0F:E8:B5:F8:20:7B:DA:AF:62:6E:BD:B0:0F

            X509v3 Extended Key Usage: 
                TLS Web Server Authentication
            X509v3 Key Usage: 
                Digital Signature, Key Encipherment
            X509v3 Subject Alternative Name: 
                DNS:team479-server
    Signature Algorithm: sha256WithRSAEncryption
         85:64:61:b2:1c:ea:77:2c:9d:f0:f7:d6:a0:91:61:1d:72:dd:
         f9:a2:e2:85:81:82:83:fb:1a:8d:63:cf:af:2e:70:ab:06:d6:
         5a:d5:da:4d:73:f2:3f:95:ad:b1:37:ef:65:5b:df:a3:57:14:
         ae:04:83:51:68:4a:1f:90:03:2d:f6:f8:9c:10:a1:9c:f3:c6:
         08:8e:48:65:dd:77:06:d0:a4:42:0e:16:e1:6e:ac:20:5d:c2:
         5f:c1:1e:6c:8b:a4:bb:1f:40:87:fb:1d:51:14:f9:f3:b1:b4:
         ca:ba:77:7c:70:1d:05:30:ea:22:a4:84:52:49:63:0b:8a:3e:
         b2:23:99:39:db:7c:9d:47:85:61:29:2f:54:c5:ba:8d:75:9e:
         5e:1c:52:fb:c9:83:0f:73:05:b9:70:92:dc:9e:d4:2c:2e:46:
         66:80:f5:f2:cf:d0:3a:80:aa:f4:57:c4:be:99:17:d8:10:df:
         d9:48:95:6c:14:42:49:96:a2:55:57:b4:0a:e8:b4:5b:c6:39:
         c7:4f:52:81:0f:30:51:bd:48:79:1f:78:2b:37:34:0f:f3:78:
         d1:7b:33:ab:29:e3:58:bc:cf:91:4f:d3:70:f1:73:ca:43:7d:
         3d:03:b3:ac:b9:fe:84:d1:6e:3e:e3:1a:7d:b5:b7:d6:17:a2:
         37:a5:5e:38
-----BEGIN CERTIFICATE-----
MIIDeDCCAmCgAwIBAgIRAPxN9ZC21Mme+phXwbNxXFYwDQYJKoZIhvcNAQELBQAw
FjEUMBIGA1UEAwwLdGVhbTQ3OS1uZXQwHhcNMjIwNTE4MjE0MDEzWhcNMjUwNTAy
MjE0MDEzWjAZMRcwFQYDVQQDDA50ZWFtNDc5LXNlcnZlcjCCASIwDQYJKoZIhvcN
AQEBBQADggEPADCCAQoCggEBAMjA+g2n0A6alanxhAiN1l3753clcfiVWPfI3iKe
AZy6gQjlrMZwkcs2PMDurVxtNTEhRYNDB4jiGXiWKhdG+Mer9Ow2A0ntIjGn/jDw
ZvgNGNIcQAeyVW6lsyaQUrpM+VmkdjbgB8FkTDVHT3GoMtPNaNaL2Mxew8sqTwgq
v9HZ0fi2zgyrpqd3DtjnmEKBTzYZV9l40ti9fvK2TE6a47TrJrglVCf862GGfvyY
+kEX89gpYYAtZwIQqRyI1cM1x0bjYg/Vl9oDVuxx0X/U9F8c0Xa2HeceR57lXdY/
Bma2LXVATrxedDKo2Mo82SuHXGFGp8ECbE0/+VV9nfTY0Y8CAwEAAaOBvTCBujAJ
BgNVHRMEAjAAMB0GA1UdDgQWBBQYyQAPI/ivRiKg2WmdkAKyDxoj0TBRBgNVHSME
SjBIgBRLb7U+HYU7QUUPUU5Nn3GndeYT/6EapBgwFjEUMBIGA1UEAwwLdGVhbTQ3
OS1uZXSCFCv9pPznI0wP6LX4IHvar2JuvbAPMBMGA1UdJQQMMAoGCCsGAQUFBwMB
MAsGA1UdDwQEAwIFoDAZBgNVHREEEjAQgg50ZWFtNDc5LXNlcnZlcjANBgkqhkiG
9w0BAQsFAAOCAQEAhWRhshzqdyyd8PfWoJFhHXLd+aLihYGCg/sajWPPry5wqwbW
WtXaTXPyP5WtsTfvZVvfo1cUrgSDUWhKH5ADLfb4nBChnPPGCI5IZd13BtCkQg4W
4W6sIF3CX8EebIukux9Ah/sdURT587G0yrp3fHAdBTDqIqSEUkljC4o+siOZOdt8
nUeFYSkvVMW6jXWeXhxS+8mDD3MFuXCS3J7ULC5GZoD18s/QOoCq9FfEvpkX2BDf
2UiVbBRCSZaiVVe0Cui0W8Y5x09SgQ8wUb1IeR94Kzc0D/N40XszqynjWLzPkU/T
cPFzykN9PQOzrLn+hNFuPuMafbW31heiN6VeOA==
-----END CERTIFICATE-----
