Certificate:
    Data:
        Version: 3 (0x2)
        Serial Number:
            76:d8:08:ca:a7:56:64:19:7b:de:d7:fb:c8:95:3d:8e
        Signature Algorithm: sha256WithRSAEncryption
        Issuer: CN=team491-net
        Validity
            Not Before: May 18 21:46:17 2022 GMT
            Not After : May  2 21:46:17 2025 GMT
        Subject: CN=team491-server
        Subject Public Key Info:
            Public Key Algorithm: rsaEncryption
                RSA Public-Key: (2048 bit)
                Modulus:
                    00:c4:d5:c0:25:11:13:4a:04:12:13:ea:1a:4e:79:
                    da:3c:26:81:bc:ef:61:ee:a1:54:15:9c:69:5a:a5:
                    d3:af:20:14:e2:45:48:ca:a1:fd:21:95:24:67:b6:
                    a4:54:62:73:55:53:17:7e:83:7d:e8:15:29:43:83:
                    61:0b:1a:e1:1e:07:32:4b:64:e5:f5:9c:b7:74:dd:
                    4c:6e:5e:58:03:81:37:80:2f:1b:c9:aa:f1:e6:91:
                    2e:b1:69:a4:dd:34:71:82:0a:e8:72:0c:d2:2e:ca:
                    a1:d2:39:88:e4:8b:50:d5:6c:05:1d:4a:9b:86:e7:
                    92:da:00:d0:7b:ce:00:82:a7:b2:71:42:fe:8a:5f:
                    0b:65:3f:74:22:10:fa:ed:cc:35:53:18:c8:0d:d7:
                    c8:64:59:20:9d:7c:de:6c:0c:a9:e8:1b:5e:27:38:
                    f9:45:f5:4f:6e:5e:2d:54:e2:7b:c6:d2:5c:65:02:
                    54:f5:88:ac:0f:87:5f:e7:00:68:64:3b:fb:49:3b:
                    a4:f8:df:d4:7b:75:a0:9f:b8:5c:a5:d9:9e:01:9e:
                    83:74:2b:72:7d:7a:f1:d6:d6:d0:f6:a2:68:0e:c2:
                    a2:35:a0:59:69:d4:0a:e6:c7:83:4f:b9:c3:d1:0f:
                    0c:8e:bc:da:1a:d5:35:ce:e7:c4:71:44:8c:76:69:
                    86:a5
                Exponent: 65537 (0x10001)
        X509v3 extensions:
            X509v3 Basic Constraints: 
                CA:FALSE
            X509v3 Subject Key Identifier: 
                8C:6E:EA:74:46:0C:1F:C6:BE:C9:34:0F:B9:46:98:3B:08:2D:CB:39
            X509v3 Authority Key Identifier: 
                keyid:C4:C2:28:4E:15:94:8C:5E:64:3E:5C:ED:0B:FF:D1:A9:C1:F8:63:B0
                DirName:/CN=team491-net
                serial:51:8F:40:B5:14:6D:CB:6A:1C:C9:D0:31:C4:B9:A4:51:DF:47:6C:80

            X509v3 Extended Key Usage: 
                TLS Web Server Authentication
            X509v3 Key Usage: 
                Digital Signature, Key Encipherment
            X509v3 Subject Alternative Name: 
                DNS:team491-server
    Signature Algorithm: sha256WithRSAEncryption
         16:98:65:9b:b2:6b:c6:a5:fc:fe:fb:db:f7:27:96:e6:7a:71:
         ea:df:20:e1:51:1f:1a:15:bf:51:c1:ae:ae:ab:96:ba:1d:20:
         dd:10:0d:7d:c1:9f:38:ef:7e:c9:db:75:40:3d:7d:c8:5e:23:
         17:28:03:71:a2:81:dd:2f:9f:05:b9:f9:f0:f0:78:3e:68:8d:
         c3:0a:c4:18:ff:f4:5b:80:38:64:de:38:e4:88:b5:33:4b:8c:
         e1:10:dc:15:90:05:e8:bc:1c:9d:d6:51:f2:cc:49:c8:3d:59:
         c0:ca:d2:d6:41:31:7b:27:92:6d:cf:a4:8e:18:8d:02:a9:c3:
         63:89:1c:30:3b:b1:02:0b:5e:4b:81:db:3c:e9:49:17:a6:b0:
         61:5c:99:fa:ad:43:6d:1f:da:fb:06:03:51:d0:cf:37:6a:80:
         8e:f1:ab:5a:34:5d:7c:01:36:5a:c9:44:bb:89:01:3f:ca:6f:
         f7:5b:a4:8d:3d:6a:78:32:82:f1:cd:c6:59:2e:91:45:64:0f:
         49:bd:34:e5:2f:b0:76:1e:d7:6e:69:fc:bc:5c:01:84:9d:eb:
         d7:af:00:22:53:3e:f7:e4:66:f9:dd:e0:b0:9f:34:2d:bf:2e:
         68:a5:5d:5e:fb:b0:9a:b6:4c:21:30:42:6d:01:20:d3:a3:56:
         3d:9a:47:2e
-----BEGIN CERTIFICATE-----
MIIDdzCCAl+gAwIBAgIQdtgIyqdWZBl73tf7yJU9jjANBgkqhkiG9w0BAQsFADAW
MRQwEgYDVQQDDAt0ZWFtNDkxLW5ldDAeFw0yMjA1MTgyMTQ2MTdaFw0yNTA1MDIy
MTQ2MTdaMBkxFzAVBgNVBAMMDnRlYW00OTEtc2VydmVyMIIBIjANBgkqhkiG9w0B
AQEFAAOCAQ8AMIIBCgKCAQEAxNXAJRETSgQSE+oaTnnaPCaBvO9h7qFUFZxpWqXT
ryAU4kVIyqH9IZUkZ7akVGJzVVMXfoN96BUpQ4NhCxrhHgcyS2Tl9Zy3dN1Mbl5Y
A4E3gC8byarx5pEusWmk3TRxggrocgzSLsqh0jmI5ItQ1WwFHUqbhueS2gDQe84A
gqeycUL+il8LZT90IhD67cw1UxjIDdfIZFkgnXzebAyp6BteJzj5RfVPbl4tVOJ7
xtJcZQJU9YisD4df5wBoZDv7STuk+N/Ue3Wgn7hcpdmeAZ6DdCtyfXrx1tbQ9qJo
DsKiNaBZadQK5seDT7nD0Q8MjrzaGtU1zufEcUSMdmmGpQIDAQABo4G9MIG6MAkG
A1UdEwQCMAAwHQYDVR0OBBYEFIxu6nRGDB/Gvsk0D7lGmDsILcs5MFEGA1UdIwRK
MEiAFMTCKE4VlIxeZD5c7Qv/0anB+GOwoRqkGDAWMRQwEgYDVQQDDAt0ZWFtNDkx
LW5ldIIUUY9AtRRty2ocydAxxLmkUd9HbIAwEwYDVR0lBAwwCgYIKwYBBQUHAwEw
CwYDVR0PBAQDAgWgMBkGA1UdEQQSMBCCDnRlYW00OTEtc2VydmVyMA0GCSqGSIb3
DQEBCwUAA4IBAQAWmGWbsmvGpfz++9v3J5bmenHq3yDhUR8aFb9Rwa6uq5a6HSDd
EA19wZ84737J23VAPX3IXiMXKANxooHdL58Fufnw8Hg+aI3DCsQY//RbgDhk3jjk
iLUzS4zhENwVkAXovByd1lHyzEnIPVnAytLWQTF7J5Jtz6SOGI0CqcNjiRwwO7EC
C15Lgds86UkXprBhXJn6rUNtH9r7BgNR0M83aoCO8ataNF18ATZayUS7iQE/ym/3
W6SNPWp4MoLxzcZZLpFFZA9JvTTlL7B2Htduafy8XAGEnevXrwAiUz735Gb53eCw
nzQtvy5opV1e+7CatkwhMEJtASDTo1Y9mkcu
-----END CERTIFICATE-----
