Certificate:
    Data:
        Version: 3 (0x2)
        Serial Number:
            1b:0a:0e:0f:a1:f0:49:2c:ff:e8:7d:0b:fe:ee:69:06
        Signature Algorithm: sha256WithRSAEncryption
        Issuer: CN=team511-net
        Validity
            Not Before: May 18 22:00:10 2022 GMT
            Not After : May  2 22:00:10 2025 GMT
        Subject: CN=team511-client
        Subject Public Key Info:
            Public Key Algorithm: rsaEncryption
                RSA Public-Key: (2048 bit)
                Modulus:
                    00:9c:11:12:63:5a:68:2b:86:24:79:5f:95:81:08:
                    32:7c:43:ad:c0:bc:d0:0c:5d:40:9c:24:24:72:66:
                    55:52:a6:37:1f:d8:a1:ff:01:08:1e:28:ea:c6:d5:
                    8f:ee:a0:55:3d:8b:f3:ea:ec:73:c2:db:22:12:a9:
                    0b:c9:ee:73:70:6d:40:28:50:6c:eb:ae:ed:e5:d2:
                    58:99:c1:a8:bb:8b:5c:5d:75:55:74:34:59:1d:b4:
                    92:14:97:0e:d2:08:93:41:39:01:b3:bf:47:8e:cd:
                    38:74:63:09:91:5b:c8:4f:3d:a3:02:9a:ba:11:61:
                    b1:6f:c4:12:1f:3d:fc:93:36:4f:49:e6:77:88:16:
                    6d:5b:fb:ce:13:4b:cb:07:86:e3:0c:26:03:d2:b1:
                    8f:ea:a2:c4:e0:6e:55:d4:33:5f:bf:98:2a:37:ad:
                    c2:c7:d1:b7:d1:47:16:64:67:8d:bc:ac:31:6b:c0:
                    81:40:d4:ad:d0:bc:c5:d5:de:4f:b9:e3:0e:64:f4:
                    44:30:6b:84:9b:22:b9:fc:7d:01:b2:71:32:7b:3f:
                    0b:20:a8:40:f2:bd:27:0f:e4:41:8b:d7:0d:86:e2:
                    90:bf:b5:37:dd:cc:44:72:dc:87:23:c5:6d:7d:4c:
                    9f:47:67:03:16:62:e0:b2:00:c5:d9:64:e8:d6:bd:
                    81:35
                Exponent: 65537 (0x10001)
        X509v3 extensions:
            X509v3 Basic Constraints: 
                CA:FALSE
            X509v3 Subject Key Identifier: 
                35:C0:30:84:B9:84:50:C0:A2:8E:11:91:38:B7:BC:4D:7A:94:78:81
            X509v3 Authority Key Identifier: 
                keyid:CB:1A:63:7A:AD:BB:AD:FF:E7:DF:7D:83:02:A1:F9:41:1F:5F:D7:74
                DirName:/CN=team511-net
                serial:1C:56:80:0F:76:BD:FE:DF:73:E3:ED:A4:D9:54:1F:6E:DC:3E:46:F4

            X509v3 Extended Key Usage: 
                TLS Web Client Authentication
            X509v3 Key Usage: 
                Digital Signature
    Signature Algorithm: sha256WithRSAEncryption
         5e:4e:6b:22:d3:98:ea:8a:5a:d2:fb:bb:95:d2:10:86:28:a9:
         8a:ad:2b:de:8c:19:9f:ef:78:0f:e7:bb:b1:14:ab:86:64:8b:
         58:45:17:9b:50:10:e1:be:23:bd:88:8c:be:57:9e:1c:81:a6:
         e0:7c:9c:60:c3:8d:a4:13:b4:43:dc:53:4f:bb:99:a7:33:8c:
         e7:4d:f9:19:82:9c:d7:3e:ac:8b:e4:b6:6a:eb:67:85:3c:5c:
         53:90:fc:6c:32:37:31:8d:4b:6b:d7:cc:3b:2e:b5:23:b5:70:
         f8:f5:f2:4f:c8:74:fe:96:3e:b2:34:2d:78:19:e6:0d:3e:be:
         3c:50:04:b5:ec:cc:f3:af:a6:5b:6e:98:d5:ea:e7:b8:6e:c9:
         22:02:38:50:eb:98:41:ff:ea:55:96:ea:1f:6f:b4:b1:a7:38:
         46:ec:57:1e:39:ed:dd:4e:71:55:da:8e:1d:fd:a8:da:76:10:
         60:1e:f9:f0:95:e3:c9:6c:1e:37:ac:ce:df:91:c1:bc:78:a0:
         a2:75:03:1c:44:1d:81:35:72:03:e9:5a:97:ca:f0:e6:fb:b6:
         d5:72:f3:d1:57:e9:70:2c:66:a7:f3:60:d3:5e:a3:e2:1d:ef:
         fa:3c:68:16:ae:3b:28:04:cc:8c:70:4d:3a:76:25:26:82:9b:
         36:ba:dd:08
-----BEGIN CERTIFICATE-----
MIIDXDCCAkSgAwIBAgIQGwoOD6HwSSz/6H0L/u5pBjANBgkqhkiG9w0BAQsFADAW
MRQwEgYDVQQDDAt0ZWFtNTExLW5ldDAeFw0yMjA1MTgyMjAwMTBaFw0yNTA1MDIy
MjAwMTBaMBkxFzAVBgNVBAMMDnRlYW01MTEtY2xpZW50MIIBIjANBgkqhkiG9w0B
AQEFAAOCAQ8AMIIBCgKCAQEAnBESY1poK4YkeV+VgQgyfEOtwLzQDF1AnCQkcmZV
UqY3H9ih/wEIHijqxtWP7qBVPYvz6uxzwtsiEqkLye5zcG1AKFBs667t5dJYmcGo
u4tcXXVVdDRZHbSSFJcO0giTQTkBs79Hjs04dGMJkVvITz2jApq6EWGxb8QSHz38
kzZPSeZ3iBZtW/vOE0vLB4bjDCYD0rGP6qLE4G5V1DNfv5gqN63Cx9G30UcWZGeN
vKwxa8CBQNSt0LzF1d5PueMOZPREMGuEmyK5/H0BsnEyez8LIKhA8r0nD+RBi9cN
huKQv7U33cxEctyHI8VtfUyfR2cDFmLgsgDF2WTo1r2BNQIDAQABo4GiMIGfMAkG
A1UdEwQCMAAwHQYDVR0OBBYEFDXAMIS5hFDAoo4RkTi3vE16lHiBMFEGA1UdIwRK
MEiAFMsaY3qtu63/5999gwKh+UEfX9d0oRqkGDAWMRQwEgYDVQQDDAt0ZWFtNTEx
LW5ldIIUHFaAD3a9/t9z4+2k2VQfbtw+RvQwEwYDVR0lBAwwCgYIKwYBBQUHAwIw
CwYDVR0PBAQDAgeAMA0GCSqGSIb3DQEBCwUAA4IBAQBeTmsi05jqilrS+7uV0hCG
KKmKrSvejBmf73gP57uxFKuGZItYRRebUBDhviO9iIy+V54cgabgfJxgw42kE7RD
3FNPu5mnM4znTfkZgpzXPqyL5LZq62eFPFxTkPxsMjcxjUtr18w7LrUjtXD49fJP
yHT+lj6yNC14GeYNPr48UAS17Mzzr6ZbbpjV6ue4bskiAjhQ65hB/+pVluofb7Sx
pzhG7FceOe3dTnFV2o4d/ajadhBgHvnwlePJbB43rM7fkcG8eKCidQMcRB2BNXID
6VqXyvDm+7bVcvPRV+lwLGan82DTXqPiHe/6PGgWrjsoBMyMcE06diUmgps2ut0I
-----END CERTIFICATE-----
