Certificate:
    Data:
        Version: 3 (0x2)
        Serial Number:
            55:4b:d1:bf:f3:be:b8:87:58:3e:1f:13:bf:0e:0d:52
        Signature Algorithm: sha256WithRSAEncryption
        Issuer: CN=team444-net
        Validity
            Not Before: May 18 21:18:06 2022 GMT
            Not After : May  2 21:18:06 2025 GMT
        Subject: CN=team444-server
        Subject Public Key Info:
            Public Key Algorithm: rsaEncryption
                RSA Public-Key: (2048 bit)
                Modulus:
                    00:a1:60:c5:e4:fd:2f:22:da:3c:db:c4:1f:4f:1e:
                    be:1e:45:9b:11:08:13:c2:0a:d2:a2:80:ee:ba:e3:
                    35:70:ab:28:74:a7:5b:a0:ae:a1:a4:15:60:64:cd:
                    3b:4d:3a:16:04:c5:6e:ef:b0:f2:bb:8c:6b:cb:55:
                    cf:7a:d3:43:7c:dd:06:c3:bf:1a:3e:c4:2f:18:cd:
                    ca:02:6e:2d:33:80:4a:94:e7:6d:34:5f:23:87:12:
                    11:20:16:d3:7c:e4:b7:27:17:00:fe:e1:85:0e:81:
                    9d:73:56:94:0c:6a:f3:73:bd:a4:66:94:ec:a5:39:
                    54:6d:94:4d:63:72:7d:bb:dd:b6:d6:ae:a3:bf:43:
                    7a:2b:ea:b8:fe:78:7b:21:a9:99:67:12:78:1e:5e:
                    9a:7c:93:56:de:e9:49:25:c1:6e:03:b7:81:6d:a8:
                    43:77:f7:14:e9:52:01:34:a5:d1:d0:b1:9c:4c:ac:
                    7f:c6:10:72:a1:04:08:e1:7e:f4:f2:b6:da:8e:c6:
                    fb:88:ce:f5:32:48:3e:8b:83:1f:5c:da:aa:ac:73:
                    6f:90:a9:6d:d8:8a:4e:f7:e1:63:b3:5f:00:59:3b:
                    86:49:18:f0:d8:af:c6:7e:43:62:a1:2f:99:e8:c3:
                    d4:fa:57:39:c8:f7:26:6e:e1:89:b6:0f:12:1b:e3:
                    04:3b
                Exponent: 65537 (0x10001)
        X509v3 extensions:
            X509v3 Basic Constraints: 
                CA:FALSE
            X509v3 Subject Key Identifier: 
                6B:DB:DF:CD:4C:2D:5E:44:82:42:6B:35:E7:2B:F4:47:56:46:5C:AA
            X509v3 Authority Key Identifier: 
                keyid:6C:EE:C6:2D:58:CC:49:B4:CB:6F:CE:EC:84:AE:42:C1:82:CA:9E:3C
                DirName:/CN=team444-net
                serial:0E:C9:7D:A9:44:C7:F8:8F:75:F8:03:22:78:43:73:8D:AB:29:0D:3B

            X509v3 Extended Key Usage: 
                TLS Web Server Authentication
            X509v3 Key Usage: 
                Digital Signature, Key Encipherment
            X509v3 Subject Alternative Name: 
                DNS:team444-server
    Signature Algorithm: sha256WithRSAEncryption
         1a:1a:a7:8b:a7:33:b7:2d:8a:ba:2f:48:c4:12:f8:3a:de:08:
         e4:94:5d:01:a8:9c:f1:3e:6f:86:e2:e2:5c:61:58:cd:72:85:
         52:bd:14:3c:eb:fb:38:b7:08:12:f2:da:6b:7f:ca:ed:20:d3:
         79:af:45:4f:f5:90:1d:f0:a1:cd:ee:cd:60:6f:f0:50:2d:98:
         34:7b:4d:b3:3e:35:61:3e:0b:72:a1:0e:59:29:13:51:63:0e:
         db:d6:89:fe:1f:5f:08:38:46:b6:ab:e4:64:32:49:51:76:20:
         b8:ec:6a:8d:43:0d:27:bc:32:78:a8:08:de:78:fb:bc:54:6e:
         75:48:b4:bb:07:ee:a9:63:1f:80:9f:54:ba:d3:c0:f2:28:16:
         dc:fc:34:e3:ad:49:14:65:ad:b4:19:33:2c:ce:85:ed:61:27:
         6d:99:77:8d:fd:dd:fd:12:fe:4c:da:2e:b0:7c:84:16:bb:10:
         38:21:7e:b3:de:65:5f:3c:72:ec:35:7f:71:56:6f:23:cd:40:
         68:1a:27:a7:9c:2e:93:10:38:c6:09:ec:ae:d0:08:fd:63:97:
         fa:dd:42:b6:1f:a2:86:44:1f:75:0e:9f:2f:3c:6f:7b:15:2d:
         48:9e:2d:f3:e6:26:29:e7:08:f6:65:91:67:4f:d3:11:a9:68:
         da:0b:b1:38
-----BEGIN CERTIFICATE-----
MIIDdzCCAl+gAwIBAgIQVUvRv/O+uIdYPh8Tvw4NUjANBgkqhkiG9w0BAQsFADAW
MRQwEgYDVQQDDAt0ZWFtNDQ0LW5ldDAeFw0yMjA1MTgyMTE4MDZaFw0yNTA1MDIy
MTE4MDZaMBkxFzAVBgNVBAMMDnRlYW00NDQtc2VydmVyMIIBIjANBgkqhkiG9w0B
AQEFAAOCAQ8AMIIBCgKCAQEAoWDF5P0vIto828QfTx6+HkWbEQgTwgrSooDuuuM1
cKsodKdboK6hpBVgZM07TToWBMVu77Dyu4xry1XPetNDfN0Gw78aPsQvGM3KAm4t
M4BKlOdtNF8jhxIRIBbTfOS3JxcA/uGFDoGdc1aUDGrzc72kZpTspTlUbZRNY3J9
u9221q6jv0N6K+q4/nh7IamZZxJ4Hl6afJNW3ulJJcFuA7eBbahDd/cU6VIBNKXR
0LGcTKx/xhByoQQI4X708rbajsb7iM71Mkg+i4MfXNqqrHNvkKlt2IpO9+Fjs18A
WTuGSRjw2K/GfkNioS+Z6MPU+lc5yPcmbuGJtg8SG+MEOwIDAQABo4G9MIG6MAkG
A1UdEwQCMAAwHQYDVR0OBBYEFGvb381MLV5EgkJrNecr9EdWRlyqMFEGA1UdIwRK
MEiAFGzuxi1YzEm0y2/O7ISuQsGCyp48oRqkGDAWMRQwEgYDVQQDDAt0ZWFtNDQ0
LW5ldIIUDsl9qUTH+I91+AMieENzjaspDTswEwYDVR0lBAwwCgYIKwYBBQUHAwEw
CwYDVR0PBAQDAgWgMBkGA1UdEQQSMBCCDnRlYW00NDQtc2VydmVyMA0GCSqGSIb3
DQEBCwUAA4IBAQAaGqeLpzO3LYq6L0jEEvg63gjklF0BqJzxPm+G4uJcYVjNcoVS
vRQ86/s4twgS8tprf8rtINN5r0VP9ZAd8KHN7s1gb/BQLZg0e02zPjVhPgtyoQ5Z
KRNRYw7b1on+H18IOEa2q+RkMklRdiC47GqNQw0nvDJ4qAjeePu8VG51SLS7B+6p
Yx+An1S608DyKBbc/DTjrUkUZa20GTMszoXtYSdtmXeN/d39Ev5M2i6wfIQWuxA4
IX6z3mVfPHLsNX9xVm8jzUBoGiennC6TEDjGCeyu0Aj9Y5f63UK2H6KGRB91Dp8v
PG97FS1Ini3z5iYp5wj2ZZFnT9MRqWjaC7E4
-----END CERTIFICATE-----
