Certificate:
    Data:
        Version: 3 (0x2)
        Serial Number:
            f1:c3:3e:f4:5e:45:3b:16:b6:2d:e1:11:da:31:80:4f
        Signature Algorithm: sha256WithRSAEncryption
        Issuer: CN=team306-net
        Validity
            Not Before: May 18 20:00:23 2022 GMT
            Not After : May  2 20:00:23 2025 GMT
        Subject: CN=team306-client
        Subject Public Key Info:
            Public Key Algorithm: rsaEncryption
                RSA Public-Key: (2048 bit)
                Modulus:
                    00:a5:0f:d0:c2:06:ec:66:8c:4c:c1:2a:3a:8f:c5:
                    42:1e:8f:29:86:42:34:e2:62:0d:b6:b8:ea:7b:7e:
                    3b:b6:43:dd:99:da:c1:6c:f3:3c:e0:ca:40:63:21:
                    09:5e:79:56:5a:eb:28:dd:88:32:f8:2b:23:28:25:
                    4a:ad:c5:b0:01:f5:6a:99:21:1c:51:84:5d:ca:ba:
                    17:81:c0:a4:d4:9f:b0:ff:b9:ea:f0:e7:c0:d2:20:
                    1d:e8:80:97:a2:22:03:cd:2d:1e:93:97:a3:f3:50:
                    e3:ff:c9:da:99:09:98:f5:d2:d5:44:76:ad:6b:74:
                    e6:2b:ff:60:c3:8a:c8:39:94:72:39:b4:e0:75:36:
                    53:e9:70:fe:b4:8a:9c:ff:58:35:d1:0f:ae:f4:84:
                    f5:7f:c6:64:d1:74:68:04:79:58:ce:5f:47:48:c7:
                    fa:b4:99:a6:16:dc:5a:b1:65:3c:0c:4a:f4:a3:28:
                    52:1e:7e:53:30:06:46:73:6e:60:f1:a8:02:39:e3:
                    fd:42:ca:ff:4d:c6:16:66:63:c6:83:d9:ed:3e:e1:
                    ae:c0:ca:08:8e:81:72:31:ba:34:6f:6b:7c:99:d7:
                    29:03:46:26:31:c8:f8:38:c9:a3:3e:02:9a:7c:5d:
                    ed:79:3a:eb:c2:1b:2b:ce:da:3c:b4:07:44:b3:ec:
                    8f:57
                Exponent: 65537 (0x10001)
        X509v3 extensions:
            X509v3 Basic Constraints: 
                CA:FALSE
            X509v3 Subject Key Identifier: 
                74:CD:66:82:43:57:D0:20:97:5B:96:E6:2B:68:5D:CD:DE:51:C0:4F
            X509v3 Authority Key Identifier: 
                keyid:D2:1F:DD:C3:9A:04:46:B3:56:3D:AE:D4:39:5A:45:25:B7:37:5D:97
                DirName:/CN=team306-net
                serial:40:37:AA:FA:E8:3A:77:41:5A:7F:CB:8B:B7:5C:83:91:A0:8A:3D:8C

            X509v3 Extended Key Usage: 
                TLS Web Client Authentication
            X509v3 Key Usage: 
                Digital Signature
    Signature Algorithm: sha256WithRSAEncryption
         b4:74:1b:9f:4f:ce:54:bc:1a:6e:4b:20:ce:81:53:3f:d2:10:
         ab:c5:8d:84:39:3b:42:e4:8c:6f:2d:d0:39:fc:92:b8:77:06:
         ab:ee:3d:6d:4b:fc:00:07:8a:7e:d4:02:cf:26:04:29:45:ed:
         42:bd:31:62:40:de:4c:22:95:f4:53:71:86:b2:c2:f8:2a:c2:
         d8:27:1b:82:24:20:75:fe:ad:87:5a:e7:45:a0:08:53:be:c3:
         e6:ba:70:2b:90:09:1d:16:1e:fa:2b:ed:4e:46:1a:43:13:0c:
         89:e4:e4:65:ed:3d:8a:c9:c0:69:ea:e1:55:20:35:4f:21:9d:
         e3:5c:84:d3:a1:c0:c9:0f:3b:ef:c5:fe:49:30:65:a0:24:50:
         76:52:4d:06:67:23:8c:b1:b8:4f:e9:d8:30:e6:35:8f:a5:20:
         da:5e:f6:17:78:ab:20:02:03:ae:82:37:f3:a8:f9:2e:c0:c2:
         a1:dc:75:d3:24:ff:de:f4:e9:c3:e6:3f:57:80:e9:53:43:59:
         22:2a:f7:b0:cf:45:0a:ca:2e:44:8a:d0:3f:ab:cd:75:f7:db:
         4b:b0:5a:5c:79:dd:d6:22:6c:4a:96:2e:e4:3a:14:9a:a3:28:
         2c:2e:d7:f6:8f:8d:37:ff:c8:aa:33:1c:2c:18:20:c9:fc:ab:
         3f:e7:15:56
-----BEGIN CERTIFICATE-----
MIIDXTCCAkWgAwIBAgIRAPHDPvReRTsWti3hEdoxgE8wDQYJKoZIhvcNAQELBQAw
FjEUMBIGA1UEAwwLdGVhbTMwNi1uZXQwHhcNMjIwNTE4MjAwMDIzWhcNMjUwNTAy
MjAwMDIzWjAZMRcwFQYDVQQDDA50ZWFtMzA2LWNsaWVudDCCASIwDQYJKoZIhvcN
AQEBBQADggEPADCCAQoCggEBAKUP0MIG7GaMTMEqOo/FQh6PKYZCNOJiDba46nt+
O7ZD3ZnawWzzPODKQGMhCV55VlrrKN2IMvgrIyglSq3FsAH1apkhHFGEXcq6F4HA
pNSfsP+56vDnwNIgHeiAl6IiA80tHpOXo/NQ4//J2pkJmPXS1UR2rWt05iv/YMOK
yDmUcjm04HU2U+lw/rSKnP9YNdEPrvSE9X/GZNF0aAR5WM5fR0jH+rSZphbcWrFl
PAxK9KMoUh5+UzAGRnNuYPGoAjnj/ULK/03GFmZjxoPZ7T7hrsDKCI6BcjG6NG9r
fJnXKQNGJjHI+DjJoz4Cmnxd7Xk668IbK87aPLQHRLPsj1cCAwEAAaOBojCBnzAJ
BgNVHRMEAjAAMB0GA1UdDgQWBBR0zWaCQ1fQIJdbluYraF3N3lHATzBRBgNVHSME
SjBIgBTSH93DmgRGs1Y9rtQ5WkUltzddl6EapBgwFjEUMBIGA1UEAwwLdGVhbTMw
Ni1uZXSCFEA3qvroOndBWn/Li7dcg5Ggij2MMBMGA1UdJQQMMAoGCCsGAQUFBwMC
MAsGA1UdDwQEAwIHgDANBgkqhkiG9w0BAQsFAAOCAQEAtHQbn0/OVLwabksgzoFT
P9IQq8WNhDk7QuSMby3QOfySuHcGq+49bUv8AAeKftQCzyYEKUXtQr0xYkDeTCKV
9FNxhrLC+CrC2CcbgiQgdf6th1rnRaAIU77D5rpwK5AJHRYe+ivtTkYaQxMMieTk
Ze09isnAaerhVSA1TyGd41yE06HAyQ8778X+STBloCRQdlJNBmcjjLG4T+nYMOY1
j6Ug2l72F3irIAIDroI386j5LsDCodx10yT/3vTpw+Y/V4DpU0NZIir3sM9FCsou
RIrQP6vNdffbS7BaXHnd1iJsSpYu5DoUmqMoLC7X9o+NN//IqjMcLBggyfyrP+cV
Vg==
-----END CERTIFICATE-----
