Certificate:
    Data:
        Version: 3 (0x2)
        Serial Number:
            6e:34:09:f5:a2:78:2e:1f:da:b8:1e:5f:7b:0f:f7:bc
        Signature Algorithm: sha256WithRSAEncryption
        Issuer: CN=team598-net
        Validity
            Not Before: May 18 22:48:16 2022 GMT
            Not After : May  2 22:48:16 2025 GMT
        Subject: CN=team598-client
        Subject Public Key Info:
            Public Key Algorithm: rsaEncryption
                RSA Public-Key: (2048 bit)
                Modulus:
                    00:db:40:83:92:3a:ca:88:1c:1d:5f:0a:63:12:4b:
                    82:f5:07:c2:86:46:02:a0:9d:e7:b0:21:04:b9:c4:
                    bd:f7:69:e7:46:c3:62:5c:8a:f0:a2:39:ab:b0:51:
                    35:bd:16:7f:26:dd:ad:35:d6:ff:7e:e7:72:0d:11:
                    f2:09:14:75:b1:bc:60:54:76:a8:ea:7a:10:e5:63:
                    b5:80:00:9d:8e:cb:2b:3e:ed:70:9d:a3:f0:bf:4b:
                    00:cb:89:c7:77:cd:c9:3a:1e:e9:72:d8:c0:36:fe:
                    c1:84:1f:82:ab:34:1b:02:65:f1:39:cb:93:94:c8:
                    49:af:b2:54:c5:67:9c:86:d5:4a:be:6d:44:6c:23:
                    ba:4c:30:f6:50:93:97:c1:e1:60:cb:aa:c3:a3:ac:
                    87:02:67:c7:2c:95:b4:89:18:68:18:83:a8:a7:3f:
                    f8:36:f3:08:aa:79:7b:4b:f0:e2:3f:6a:5b:a1:55:
                    4b:df:99:72:f1:15:82:ee:b2:8f:62:49:a0:ca:a7:
                    ac:c3:0d:ec:3f:f8:71:bf:82:33:e1:97:5f:79:9f:
                    a3:15:1a:a3:d1:cd:36:89:e4:7d:c2:76:bc:4d:64:
                    49:fc:6f:a8:ea:59:89:61:cb:9e:ed:15:ad:d2:26:
                    40:b9:c0:c9:82:96:93:17:cb:aa:de:94:df:f1:f7:
                    4d:8b
                Exponent: 65537 (0x10001)
        X509v3 extensions:
            X509v3 Basic Constraints: 
                CA:FALSE
            X509v3 Subject Key Identifier: 
                0A:6D:33:06:86:88:EE:43:96:A9:AC:1D:46:39:54:15:6C:03:4E:BF
            X509v3 Authority Key Identifier: 
                keyid:8D:04:61:1E:70:DE:B0:A0:99:86:DE:6C:01:9D:71:87:A6:A5:E7:52
                DirName:/CN=team598-net
                serial:51:8E:0C:DB:10:CF:BC:03:11:31:AD:97:34:48:6A:A7:66:2C:82:0E

            X509v3 Extended Key Usage: 
                TLS Web Client Authentication
            X509v3 Key Usage: 
                Digital Signature
    Signature Algorithm: sha256WithRSAEncryption
         29:08:de:e5:4a:2d:72:0e:01:41:1a:68:a3:e9:9f:30:5b:ca:
         d7:b3:fd:2e:27:07:b2:b6:91:b6:34:f9:ca:39:7c:51:66:ef:
         f0:b3:26:18:e9:1d:f9:7c:fe:c5:33:84:b7:78:80:c1:c7:10:
         92:6c:d9:26:b7:f8:b4:a0:ca:ca:35:4a:e0:de:3c:7b:b1:f8:
         1a:eb:50:63:2d:35:ac:32:11:15:c5:c5:7c:8a:1c:40:b7:a8:
         88:39:62:1f:64:0d:f9:e9:14:8d:19:ac:55:24:75:2a:81:9e:
         31:1b:52:eb:b1:6e:77:fb:92:1c:31:78:c1:f6:69:ed:4c:4c:
         57:b5:e5:d2:79:b9:04:4d:cd:61:1b:58:ef:dd:17:e2:73:01:
         0a:62:fa:65:ce:a0:a7:bf:fe:72:33:19:49:c6:1b:dd:f6:08:
         a3:22:74:59:d7:8c:07:5d:6d:41:86:b7:44:38:14:a0:78:92:
         b5:8a:75:39:b8:1f:02:fb:dd:76:84:cb:b1:c1:78:ee:0b:31:
         ba:06:21:26:8c:72:55:a5:b8:87:f6:69:8d:4e:8b:3f:3c:8e:
         33:e7:46:dc:1a:41:5d:b2:70:dd:c0:c1:ec:03:4d:d1:37:ab:
         c0:04:e9:02:60:63:d5:e9:40:67:75:2f:82:d7:d7:64:df:c6:
         2f:8b:71:25
-----BEGIN CERTIFICATE-----
MIIDXDCCAkSgAwIBAgIQbjQJ9aJ4Lh/auB5few/3vDANBgkqhkiG9w0BAQsFADAW
MRQwEgYDVQQDDAt0ZWFtNTk4LW5ldDAeFw0yMjA1MTgyMjQ4MTZaFw0yNTA1MDIy
MjQ4MTZaMBkxFzAVBgNVBAMMDnRlYW01OTgtY2xpZW50MIIBIjANBgkqhkiG9w0B
AQEFAAOCAQ8AMIIBCgKCAQEA20CDkjrKiBwdXwpjEkuC9QfChkYCoJ3nsCEEucS9
92nnRsNiXIrwojmrsFE1vRZ/Jt2tNdb/fudyDRHyCRR1sbxgVHao6noQ5WO1gACd
jssrPu1wnaPwv0sAy4nHd83JOh7pctjANv7BhB+CqzQbAmXxOcuTlMhJr7JUxWec
htVKvm1EbCO6TDD2UJOXweFgy6rDo6yHAmfHLJW0iRhoGIOopz/4NvMIqnl7S/Di
P2pboVVL35ly8RWC7rKPYkmgyqesww3sP/hxv4Iz4ZdfeZ+jFRqj0c02ieR9wna8
TWRJ/G+o6lmJYcue7RWt0iZAucDJgpaTF8uq3pTf8fdNiwIDAQABo4GiMIGfMAkG
A1UdEwQCMAAwHQYDVR0OBBYEFAptMwaGiO5DlqmsHUY5VBVsA06/MFEGA1UdIwRK
MEiAFI0EYR5w3rCgmYbebAGdcYempedSoRqkGDAWMRQwEgYDVQQDDAt0ZWFtNTk4
LW5ldIIUUY4M2xDPvAMRMa2XNEhqp2Ysgg4wEwYDVR0lBAwwCgYIKwYBBQUHAwIw
CwYDVR0PBAQDAgeAMA0GCSqGSIb3DQEBCwUAA4IBAQApCN7lSi1yDgFBGmij6Z8w
W8rXs/0uJweytpG2NPnKOXxRZu/wsyYY6R35fP7FM4S3eIDBxxCSbNkmt/i0oMrK
NUrg3jx7sfga61BjLTWsMhEVxcV8ihxAt6iIOWIfZA356RSNGaxVJHUqgZ4xG1Lr
sW53+5IcMXjB9mntTExXteXSebkETc1hG1jv3RficwEKYvplzqCnv/5yMxlJxhvd
9gijInRZ14wHXW1BhrdEOBSgeJK1inU5uB8C+912hMuxwXjuCzG6BiEmjHJVpbiH
9mmNTos/PI4z50bcGkFdsnDdwMHsA03RN6vABOkCYGPV6UBndS+C19dk38Yvi3El
-----END CERTIFICATE-----
