Certificate:
    Data:
        Version: 3 (0x2)
        Serial Number:
            a3:91:13:a9:b0:9e:39:02:f4:4b:63:23:91:f5:e6:90
        Signature Algorithm: sha256WithRSAEncryption
        Issuer: CN=team282-net
        Validity
            Not Before: May 18 19:55:02 2022 GMT
            Not After : May  2 19:55:02 2025 GMT
        Subject: CN=team282-server
        Subject Public Key Info:
            Public Key Algorithm: rsaEncryption
                RSA Public-Key: (2048 bit)
                Modulus:
                    00:9a:02:70:83:23:34:41:8d:e2:a3:9f:c4:6a:c7:
                    b7:e5:50:88:39:af:bc:16:10:f3:7f:4f:17:5c:d8:
                    61:cf:5a:2b:b1:5d:ea:54:7f:0f:aa:ff:2d:9b:c1:
                    c6:f5:78:31:12:70:c8:cc:97:2d:0d:07:d2:9c:c5:
                    22:e6:52:d4:30:02:15:0c:a8:b7:35:b4:34:32:20:
                    68:31:9b:36:cb:3a:a9:9f:a8:fb:7a:e7:65:6d:d0:
                    92:bf:55:e9:ca:ac:22:87:b8:01:4b:98:c1:03:c9:
                    e1:24:81:a7:c9:4a:23:7a:c4:a0:f3:c2:8e:46:ce:
                    30:d4:90:84:9e:ba:5f:e6:b2:55:8a:1c:24:30:c2:
                    f7:92:9a:4c:54:b2:2a:3a:f6:92:b3:47:06:fd:ec:
                    cf:8a:9b:21:73:51:a4:72:8d:e6:ce:c7:e0:3c:f1:
                    93:3a:c5:6c:25:bb:1b:32:99:f6:6c:b4:91:0c:ac:
                    35:87:ac:59:04:fd:66:e5:c9:be:da:09:87:b9:50:
                    a2:c0:39:82:cd:b1:f0:75:99:f9:b5:f9:2c:15:6a:
                    75:11:c7:b0:ce:23:ee:cb:1a:ea:54:75:3f:25:7d:
                    df:b0:0d:1a:dd:66:de:8a:1a:79:a7:a6:4e:bb:ff:
                    a2:ca:7e:8c:da:43:37:a0:2a:2d:ea:de:db:12:da:
                    82:c5
                Exponent: 65537 (0x10001)
        X509v3 extensions:
            X509v3 Basic Constraints: 
                CA:FALSE
            X509v3 Subject Key Identifier: 
                67:7D:DA:00:01:03:E9:43:61:37:31:32:9D:63:5D:E2:1D:D7:FD:E1
            X509v3 Authority Key Identifier: 
                keyid:33:E3:2D:BF:E1:E8:79:1D:3A:05:37:DD:3F:EE:A4:5D:73:2F:04:13
                DirName:/CN=team282-net
                serial:44:F3:FA:FB:11:1A:1A:A2:47:2D:38:10:19:9F:34:B1:2C:7D:43:BE

            X509v3 Extended Key Usage: 
                TLS Web Server Authentication
            X509v3 Key Usage: 
                Digital Signature, Key Encipherment
            X509v3 Subject Alternative Name: 
                DNS:team282-server
    Signature Algorithm: sha256WithRSAEncryption
         35:85:a4:f8:6b:a3:76:d4:52:33:eb:04:89:f1:6b:8c:6b:11:
         ef:41:66:b5:88:c7:12:55:30:d2:e4:b7:8a:f0:f4:cb:31:5c:
         7b:1e:66:98:1a:ea:8a:5e:34:84:6e:33:99:7c:63:fe:88:b3:
         e7:b3:e1:3b:e6:70:c5:6b:16:1b:a4:3c:6b:68:84:f1:45:c1:
         06:1d:d5:b6:e7:94:b8:fc:1f:e5:ac:dc:f9:cb:a4:93:b0:53:
         26:7b:c3:2b:ae:48:30:42:ce:a5:36:60:ec:52:12:f8:40:8b:
         2f:9f:b4:0a:32:3d:65:36:fb:9b:90:15:6b:20:60:11:75:43:
         ce:7a:be:dc:94:6f:ba:9a:32:56:e7:d3:b2:64:59:85:a8:ab:
         74:30:36:21:01:bd:89:75:af:6d:36:cf:fa:44:3c:ed:c6:e8:
         38:57:af:78:1f:26:64:73:bc:66:b9:99:b7:ea:e6:ce:f2:da:
         b9:ef:cd:c9:9f:d3:d1:c3:78:87:50:67:cd:5e:ba:8b:13:5d:
         b6:51:1c:a8:07:a5:d3:86:40:65:80:6c:4d:b3:b2:3c:14:a3:
         89:59:2d:0c:33:6b:af:2e:df:cb:42:de:13:4b:f1:32:0b:13:
         9a:a1:18:d0:ed:84:43:b2:cc:88:27:02:50:df:f5:6c:3e:65:
         6a:62:b4:ce
-----BEGIN CERTIFICATE-----
MIIDeDCCAmCgAwIBAgIRAKORE6mwnjkC9EtjI5H15pAwDQYJKoZIhvcNAQELBQAw
FjEUMBIGA1UEAwwLdGVhbTI4Mi1uZXQwHhcNMjIwNTE4MTk1NTAyWhcNMjUwNTAy
MTk1NTAyWjAZMRcwFQYDVQQDDA50ZWFtMjgyLXNlcnZlcjCCASIwDQYJKoZIhvcN
AQEBBQADggEPADCCAQoCggEBAJoCcIMjNEGN4qOfxGrHt+VQiDmvvBYQ839PF1zY
Yc9aK7Fd6lR/D6r/LZvBxvV4MRJwyMyXLQ0H0pzFIuZS1DACFQyotzW0NDIgaDGb
Nss6qZ+o+3rnZW3Qkr9V6cqsIoe4AUuYwQPJ4SSBp8lKI3rEoPPCjkbOMNSQhJ66
X+ayVYocJDDC95KaTFSyKjr2krNHBv3sz4qbIXNRpHKN5s7H4DzxkzrFbCW7GzKZ
9my0kQysNYesWQT9ZuXJvtoJh7lQosA5gs2x8HWZ+bX5LBVqdRHHsM4j7ssa6lR1
PyV937ANGt1m3ooaeaemTrv/osp+jNpDN6AqLere2xLagsUCAwEAAaOBvTCBujAJ
BgNVHRMEAjAAMB0GA1UdDgQWBBRnfdoAAQPpQ2E3MTKdY13iHdf94TBRBgNVHSME
SjBIgBQz4y2/4eh5HToFN90/7qRdcy8EE6EapBgwFjEUMBIGA1UEAwwLdGVhbTI4
Mi1uZXSCFETz+vsRGhqiRy04EBmfNLEsfUO+MBMGA1UdJQQMMAoGCCsGAQUFBwMB
MAsGA1UdDwQEAwIFoDAZBgNVHREEEjAQgg50ZWFtMjgyLXNlcnZlcjANBgkqhkiG
9w0BAQsFAAOCAQEANYWk+GujdtRSM+sEifFrjGsR70FmtYjHElUw0uS3ivD0yzFc
ex5mmBrqil40hG4zmXxj/oiz57PhO+ZwxWsWG6Q8a2iE8UXBBh3VtueUuPwf5azc
+cukk7BTJnvDK65IMELOpTZg7FIS+ECLL5+0CjI9ZTb7m5AVayBgEXVDznq+3JRv
upoyVufTsmRZhairdDA2IQG9iXWvbTbP+kQ87cboOFeveB8mZHO8ZrmZt+rmzvLa
ue/NyZ/T0cN4h1BnzV66ixNdtlEcqAel04ZAZYBsTbOyPBSjiVktDDNrry7fy0Le
E0vxMgsTmqEY0O2EQ7LMiCcCUN/1bD5lamK0zg==
-----END CERTIFICATE-----
