Certificate:
    Data:
        Version: 3 (0x2)
        Serial Number:
            ee:6f:50:d9:4c:e7:16:e2:2c:ab:01:e1:cd:34:c7:3f
        Signature Algorithm: sha256WithRSAEncryption
        Issuer: CN=team408-net
        Validity
            Not Before: May 18 21:04:51 2022 GMT
            Not After : May  2 21:04:51 2025 GMT
        Subject: CN=team408-server
        Subject Public Key Info:
            Public Key Algorithm: rsaEncryption
                RSA Public-Key: (2048 bit)
                Modulus:
                    00:f1:01:e8:bb:52:3c:91:0e:e8:61:a7:e9:51:1c:
                    e0:d4:0c:cc:93:5d:9a:55:73:b5:60:93:37:ac:46:
                    1d:7f:1c:7c:1e:f1:08:41:7c:d4:2e:af:0b:25:0f:
                    62:b9:ac:4b:1e:b9:3e:1c:1a:eb:fb:35:3d:84:d7:
                    4c:d8:e6:78:77:ce:72:c4:ba:4f:3f:a8:b6:d1:91:
                    2c:e1:a1:8a:20:a8:2a:97:02:a1:3f:cb:e0:c2:61:
                    36:10:f6:0b:76:49:81:78:57:8a:7d:c6:e1:df:49:
                    8f:9b:1e:a9:09:2e:52:4e:9b:7d:f7:85:97:f4:25:
                    3e:32:9b:2d:25:a9:3f:17:79:5f:a4:12:85:0d:41:
                    27:1f:22:cd:d1:8f:d0:93:d8:56:fe:44:8d:8e:df:
                    ea:13:5e:0a:32:ee:58:26:c5:c3:8e:25:a5:91:54:
                    8a:65:81:61:d0:e5:eb:88:a9:5e:64:0d:f0:8c:d7:
                    6b:01:0e:9a:f0:4a:24:d5:d4:d5:96:5c:74:81:0d:
                    88:43:86:f2:f2:d7:2b:ac:db:a2:53:fe:60:da:78:
                    a3:0c:fa:71:bd:8d:d9:8e:de:11:59:0a:b9:84:bd:
                    4d:4d:eb:81:fd:a1:84:b0:f0:58:d0:84:83:ab:04:
                    36:b2:f0:d6:2d:6f:7f:aa:f0:46:ae:00:9c:8f:19:
                    4e:af
                Exponent: 65537 (0x10001)
        X509v3 extensions:
            X509v3 Basic Constraints: 
                CA:FALSE
            X509v3 Subject Key Identifier: 
                ED:7B:0E:81:BD:61:87:09:6B:B5:3D:20:16:B7:D3:CB:DE:D5:29:65
            X509v3 Authority Key Identifier: 
                keyid:1B:25:AF:D4:5A:36:59:D0:F2:07:4D:D8:72:77:BA:F1:E3:DD:4B:B5
                DirName:/CN=team408-net
                serial:35:C6:1C:59:EA:A7:BB:62:0A:81:BF:69:23:82:29:B8:D2:88:FC:88

            X509v3 Extended Key Usage: 
                TLS Web Server Authentication
            X509v3 Key Usage: 
                Digital Signature, Key Encipherment
            X509v3 Subject Alternative Name: 
                DNS:team408-server
    Signature Algorithm: sha256WithRSAEncryption
         57:39:71:ab:dd:51:00:b3:ee:22:3e:b4:29:05:21:49:74:d9:
         6a:ea:e7:99:b4:c3:fd:9a:1f:87:8b:f5:b8:b4:3c:e2:b0:28:
         a0:b9:95:7f:53:e0:9d:eb:69:4d:f7:d2:05:bc:00:91:a2:44:
         d1:21:ed:ce:c4:4e:ac:c6:55:9c:2a:97:16:76:6a:e3:84:4d:
         cc:3a:79:44:08:ef:7b:de:b5:7b:51:de:93:ad:b8:10:4f:2b:
         cc:d1:4c:72:62:01:1f:1c:b6:b5:88:ff:ed:b9:72:63:d5:c4:
         6c:dd:bf:c9:ed:dd:25:b7:61:22:1b:48:b1:44:03:22:7d:dd:
         c6:ff:54:0d:dd:00:4b:ff:b0:ed:a9:93:62:14:06:db:27:2c:
         bb:21:4b:ba:33:89:68:dc:c8:dd:1a:ca:36:81:16:8c:6c:01:
         d1:b4:65:4b:97:3b:1f:99:07:16:77:22:69:b3:08:95:e4:a2:
         f4:f6:dd:02:20:50:8b:fc:53:47:d5:97:b6:d5:2f:7c:c7:cd:
         93:71:a9:23:9b:f6:84:26:32:50:c4:1e:5a:ba:df:b2:db:44:
         d5:c7:30:d0:89:83:25:b7:96:11:b8:3a:b6:58:b7:3b:30:b9:
         56:7a:85:c6:fe:55:12:62:76:3d:af:ea:d0:3b:42:ea:eb:89:
         e9:fd:df:78
-----BEGIN CERTIFICATE-----
MIIDeDCCAmCgAwIBAgIRAO5vUNlM5xbiLKsB4c00xz8wDQYJKoZIhvcNAQELBQAw
FjEUMBIGA1UEAwwLdGVhbTQwOC1uZXQwHhcNMjIwNTE4MjEwNDUxWhcNMjUwNTAy
MjEwNDUxWjAZMRcwFQYDVQQDDA50ZWFtNDA4LXNlcnZlcjCCASIwDQYJKoZIhvcN
AQEBBQADggEPADCCAQoCggEBAPEB6LtSPJEO6GGn6VEc4NQMzJNdmlVztWCTN6xG
HX8cfB7xCEF81C6vCyUPYrmsSx65Phwa6/s1PYTXTNjmeHfOcsS6Tz+ottGRLOGh
iiCoKpcCoT/L4MJhNhD2C3ZJgXhXin3G4d9Jj5seqQkuUk6bffeFl/QlPjKbLSWp
Pxd5X6QShQ1BJx8izdGP0JPYVv5EjY7f6hNeCjLuWCbFw44lpZFUimWBYdDl64ip
XmQN8IzXawEOmvBKJNXU1ZZcdIENiEOG8vLXK6zbolP+YNp4owz6cb2N2Y7eEVkK
uYS9TU3rgf2hhLDwWNCEg6sENrLw1i1vf6rwRq4AnI8ZTq8CAwEAAaOBvTCBujAJ
BgNVHRMEAjAAMB0GA1UdDgQWBBTtew6BvWGHCWu1PSAWt9PL3tUpZTBRBgNVHSME
SjBIgBQbJa/UWjZZ0PIHTdhyd7rx491LtaEapBgwFjEUMBIGA1UEAwwLdGVhbTQw
OC1uZXSCFDXGHFnqp7tiCoG/aSOCKbjSiPyIMBMGA1UdJQQMMAoGCCsGAQUFBwMB
MAsGA1UdDwQEAwIFoDAZBgNVHREEEjAQgg50ZWFtNDA4LXNlcnZlcjANBgkqhkiG
9w0BAQsFAAOCAQEAVzlxq91RALPuIj60KQUhSXTZaurnmbTD/Zofh4v1uLQ84rAo
oLmVf1PgnetpTffSBbwAkaJE0SHtzsROrMZVnCqXFnZq44RNzDp5RAjve961e1He
k624EE8rzNFMcmIBHxy2tYj/7blyY9XEbN2/ye3dJbdhIhtIsUQDIn3dxv9UDd0A
S/+w7amTYhQG2ycsuyFLujOJaNzI3RrKNoEWjGwB0bRlS5c7H5kHFnciabMIleSi
9PbdAiBQi/xTR9WXttUvfMfNk3GpI5v2hCYyUMQeWrrfsttE1ccw0ImDJbeWEbg6
tli3OzC5VnqFxv5VEmJ2Pa/q0DtC6uuJ6f3feA==
-----END CERTIFICATE-----
