Certificate:
    Data:
        Version: 3 (0x2)
        Serial Number:
            2f:4e:21:e6:53:62:55:0f:6b:27:dc:55:5a:fc:1b:ee
        Signature Algorithm: sha256WithRSAEncryption
        Issuer: CN=team380-net
        Validity
            Not Before: May 18 20:40:35 2022 GMT
            Not After : May  2 20:40:35 2025 GMT
        Subject: CN=team380-client
        Subject Public Key Info:
            Public Key Algorithm: rsaEncryption
                RSA Public-Key: (2048 bit)
                Modulus:
                    00:ca:f6:af:2f:2b:f2:50:3c:87:7c:6f:0b:45:53:
                    ac:ef:2f:e4:90:5d:97:08:ca:4a:52:13:69:05:53:
                    f2:95:23:3b:1a:b0:75:e7:c9:db:26:74:2f:04:3f:
                    50:3d:25:00:7e:dd:2e:2c:60:d8:96:0c:bc:88:e9:
                    43:8b:ea:2e:8b:74:3b:6e:4b:9f:c9:07:1b:f4:e0:
                    1e:d8:63:9b:39:c4:a9:31:8e:6b:91:b5:26:58:24:
                    78:88:0b:cf:b6:06:e2:a2:29:79:59:b2:05:ef:f5:
                    39:9c:92:ba:f7:6a:81:7e:c1:fb:c1:d3:22:d0:78:
                    8b:b0:fc:b3:25:56:f1:d5:19:9d:3c:67:7d:6d:1c:
                    11:57:b3:6e:d4:2b:1d:d7:ca:a6:64:d9:29:06:90:
                    f1:bb:fa:8b:84:a7:95:a8:38:4d:7b:bb:13:fe:3f:
                    31:05:72:19:b3:49:5c:38:35:c1:cf:31:b8:74:5d:
                    70:64:19:fe:61:4b:67:08:05:55:60:cd:0a:8b:de:
                    d1:a5:16:bc:7f:af:44:e2:40:db:b8:2f:4d:b6:f9:
                    c8:3a:35:f0:14:1c:3d:80:5a:de:7d:55:23:b4:f9:
                    c8:c5:95:f2:c6:59:09:ca:94:f8:f7:0f:a5:26:a5:
                    c9:e1:de:e4:e2:73:cf:20:ec:70:8c:c7:3f:ff:38:
                    bc:15
                Exponent: 65537 (0x10001)
        X509v3 extensions:
            X509v3 Basic Constraints: 
                CA:FALSE
            X509v3 Subject Key Identifier: 
                CB:91:D6:CD:E7:A6:69:6E:0F:60:6D:E7:EF:8B:4C:1C:09:A4:FF:86
            X509v3 Authority Key Identifier: 
                keyid:66:15:4C:A3:86:D9:01:B4:B4:9B:10:74:12:A2:D4:87:B4:02:4B:BC
                DirName:/CN=team380-net
                serial:40:2F:46:F1:E8:1C:49:72:62:10:21:84:34:4F:BB:EB:E2:2B:39:56

            X509v3 Extended Key Usage: 
                TLS Web Client Authentication
            X509v3 Key Usage: 
                Digital Signature
    Signature Algorithm: sha256WithRSAEncryption
         0c:e8:73:34:10:4c:ab:bb:ca:30:0e:c2:4d:15:a1:5f:0a:5d:
         78:62:5c:c2:7d:ec:a0:c5:93:f0:78:4a:03:e7:12:fd:b8:71:
         89:28:e6:a4:d0:0e:83:d0:df:35:89:27:5f:f2:be:ea:4f:78:
         9e:98:0a:43:d8:e0:0d:01:78:cd:43:05:fc:5a:b0:b4:38:18:
         a6:16:30:35:3f:77:e3:5d:e2:b1:8d:f5:60:fa:e9:58:c6:d3:
         72:6d:d8:e2:a6:5b:17:73:e2:15:f6:55:0f:cf:63:45:9d:b2:
         82:5f:53:21:6f:43:8f:ba:b9:09:40:48:a7:e9:f9:e9:36:47:
         54:fe:01:5c:2f:ae:e3:da:ee:4b:56:9b:48:b8:2f:c6:d1:b2:
         2d:35:55:a3:c2:50:b5:70:ac:04:34:c2:8e:e8:4b:55:8a:7a:
         aa:82:12:b0:69:0e:0f:4e:c1:64:8b:e7:91:1b:5d:79:61:c9:
         d1:1b:c4:9a:a0:f2:e6:8e:92:c7:30:ce:c6:ff:11:0a:a3:f2:
         e9:32:0a:98:de:03:5b:72:c9:8b:43:45:64:72:03:70:33:0d:
         3c:36:29:70:bd:15:58:5a:2f:82:8e:d6:c2:95:ee:2c:57:b0:
         67:2c:93:a8:6f:60:d4:8f:2b:c9:c2:f1:34:36:5c:08:3d:28:
         28:36:9a:f0
-----BEGIN CERTIFICATE-----
MIIDXDCCAkSgAwIBAgIQL04h5lNiVQ9rJ9xVWvwb7jANBgkqhkiG9w0BAQsFADAW
MRQwEgYDVQQDDAt0ZWFtMzgwLW5ldDAeFw0yMjA1MTgyMDQwMzVaFw0yNTA1MDIy
MDQwMzVaMBkxFzAVBgNVBAMMDnRlYW0zODAtY2xpZW50MIIBIjANBgkqhkiG9w0B
AQEFAAOCAQ8AMIIBCgKCAQEAyvavLyvyUDyHfG8LRVOs7y/kkF2XCMpKUhNpBVPy
lSM7GrB158nbJnQvBD9QPSUAft0uLGDYlgy8iOlDi+oui3Q7bkufyQcb9OAe2GOb
OcSpMY5rkbUmWCR4iAvPtgbioil5WbIF7/U5nJK692qBfsH7wdMi0HiLsPyzJVbx
1RmdPGd9bRwRV7Nu1Csd18qmZNkpBpDxu/qLhKeVqDhNe7sT/j8xBXIZs0lcODXB
zzG4dF1wZBn+YUtnCAVVYM0Ki97RpRa8f69E4kDbuC9NtvnIOjXwFBw9gFrefVUj
tPnIxZXyxlkJypT49w+lJqXJ4d7k4nPPIOxwjMc//zi8FQIDAQABo4GiMIGfMAkG
A1UdEwQCMAAwHQYDVR0OBBYEFMuR1s3npmluD2Bt5++LTBwJpP+GMFEGA1UdIwRK
MEiAFGYVTKOG2QG0tJsQdBKi1Ie0Aku8oRqkGDAWMRQwEgYDVQQDDAt0ZWFtMzgw
LW5ldIIUQC9G8egcSXJiECGENE+76+IrOVYwEwYDVR0lBAwwCgYIKwYBBQUHAwIw
CwYDVR0PBAQDAgeAMA0GCSqGSIb3DQEBCwUAA4IBAQAM6HM0EEyru8owDsJNFaFf
Cl14YlzCfeygxZPweEoD5xL9uHGJKOak0A6D0N81iSdf8r7qT3iemApD2OANAXjN
QwX8WrC0OBimFjA1P3fjXeKxjfVg+ulYxtNybdjiplsXc+IV9lUPz2NFnbKCX1Mh
b0OPurkJQEin6fnpNkdU/gFcL67j2u5LVptIuC/G0bItNVWjwlC1cKwENMKO6EtV
inqqghKwaQ4PTsFki+eRG115YcnRG8SaoPLmjpLHMM7G/xEKo/LpMgqY3gNbcsmL
Q0VkcgNwMw08NilwvRVYWi+CjtbCle4sV7BnLJOob2DUjyvJwvE0NlwIPSgoNprw
-----END CERTIFICATE-----
