Certificate:
    Data:
        Version: 3 (0x2)
        Serial Number:
            2f:ca:db:cd:70:fc:ea:62:5c:af:2e:ed:ac:04:b7:09
        Signature Algorithm: sha256WithRSAEncryption
        Issuer: CN=team147-net
        Validity
            Not Before: May 18 18:36:19 2022 GMT
            Not After : May  2 18:36:19 2025 GMT
        Subject: CN=team147-client
        Subject Public Key Info:
            Public Key Algorithm: rsaEncryption
                RSA Public-Key: (2048 bit)
                Modulus:
                    00:b6:5d:5e:f4:cb:d1:69:45:a5:60:8c:db:9d:7d:
                    30:59:b3:91:d2:d0:3f:67:1d:65:58:b9:20:6c:e7:
                    aa:3d:e3:ac:f0:a0:55:6c:5f:35:ee:7f:f2:7f:79:
                    97:2a:4c:dc:f0:2b:c2:4e:66:c3:fe:03:b9:59:1b:
                    e2:a4:3a:35:01:40:3c:c9:19:bb:af:bd:17:20:a2:
                    52:8c:d2:90:95:ff:3e:fc:1e:5f:04:99:a5:e2:c3:
                    4f:9c:30:34:82:9b:11:43:ac:99:8f:a1:7d:ae:c2:
                    82:99:fc:de:1c:9b:bf:cc:f4:f8:a9:49:91:04:53:
                    9d:69:e4:65:e5:df:61:d3:77:7a:20:38:0c:f0:6c:
                    4d:2a:c2:33:14:cf:75:34:83:15:2d:e2:9e:93:e0:
                    2a:80:97:8b:95:36:89:d8:97:31:dc:a5:56:99:25:
                    79:81:e8:f2:f4:82:33:8b:e3:6d:8d:2b:3f:f2:c3:
                    1e:fd:30:4f:11:53:77:37:11:f9:0e:c4:90:66:a9:
                    1f:ef:f3:8b:14:b4:3d:e9:55:54:fb:7f:ea:fc:df:
                    2e:d7:88:dc:76:96:66:09:e9:af:db:de:bc:9c:ed:
                    db:87:51:b0:a3:f4:ec:70:fc:ea:16:fb:a2:6e:9b:
                    db:c6:9d:71:a2:98:06:8e:4a:bf:15:68:0b:8c:a5:
                    b5:09
                Exponent: 65537 (0x10001)
        X509v3 extensions:
            X509v3 Basic Constraints: 
                CA:FALSE
            X509v3 Subject Key Identifier: 
                1D:D3:AA:B3:CF:4F:2F:7C:AB:C3:79:12:1D:0F:BE:20:CE:0F:6D:E2
            X509v3 Authority Key Identifier: 
                keyid:D8:6B:EB:50:79:C5:71:85:B2:70:5D:38:2C:EF:31:7D:12:FD:67:F3
                DirName:/CN=team147-net
                serial:6E:60:F9:DF:F9:33:5F:91:F0:32:83:93:0E:F7:4C:37:1B:41:8F:AB

            X509v3 Extended Key Usage: 
                TLS Web Client Authentication
            X509v3 Key Usage: 
                Digital Signature
    Signature Algorithm: sha256WithRSAEncryption
         1c:2f:1b:22:7f:6d:d1:64:56:a5:c5:47:bd:d4:07:35:44:c8:
         6d:54:14:94:47:ec:f9:f1:83:49:f6:7b:35:97:7c:8d:ef:74:
         a9:99:f1:b1:61:9a:ac:90:20:06:44:6a:e0:45:d7:9b:0b:e5:
         2e:2c:a4:50:3d:25:fa:94:eb:40:e8:dc:b4:25:06:17:f3:4f:
         a9:a0:7a:b6:a9:2e:c6:4e:a4:a5:25:3b:7a:94:ba:32:24:45:
         43:7f:b9:23:87:c3:ce:71:29:dc:9d:a6:3b:5f:72:46:26:29:
         9d:2c:b0:1d:d1:79:2c:99:03:24:51:12:d2:0e:6d:58:58:af:
         5c:9f:62:25:f8:8d:47:2e:89:35:45:7a:98:bd:12:3f:e3:5b:
         87:68:85:f7:7f:b8:24:1e:72:a3:dc:b1:fe:45:6c:e4:e3:d8:
         f1:b6:f0:e6:cc:58:a6:2d:03:9c:9e:90:4f:3e:59:6e:b5:b5:
         36:4a:5d:33:05:ad:d1:0f:06:ab:3f:c9:78:da:9f:3b:6f:5c:
         89:38:a3:18:48:47:34:a8:a7:9b:fc:57:5d:0b:f8:46:ba:d1:
         db:e3:ee:1b:d0:03:c0:b4:8f:43:17:ed:88:4c:ae:77:30:c0:
         49:c2:bc:35:91:d7:39:2e:15:d8:f5:9f:8d:4a:b7:8b:5b:0a:
         7e:d1:90:04
-----BEGIN CERTIFICATE-----
MIIDXDCCAkSgAwIBAgIQL8rbzXD86mJcry7trAS3CTANBgkqhkiG9w0BAQsFADAW
MRQwEgYDVQQDDAt0ZWFtMTQ3LW5ldDAeFw0yMjA1MTgxODM2MTlaFw0yNTA1MDIx
ODM2MTlaMBkxFzAVBgNVBAMMDnRlYW0xNDctY2xpZW50MIIBIjANBgkqhkiG9w0B
AQEFAAOCAQ8AMIIBCgKCAQEAtl1e9MvRaUWlYIzbnX0wWbOR0tA/Zx1lWLkgbOeq
PeOs8KBVbF817n/yf3mXKkzc8CvCTmbD/gO5WRvipDo1AUA8yRm7r70XIKJSjNKQ
lf8+/B5fBJml4sNPnDA0gpsRQ6yZj6F9rsKCmfzeHJu/zPT4qUmRBFOdaeRl5d9h
03d6IDgM8GxNKsIzFM91NIMVLeKek+AqgJeLlTaJ2Jcx3KVWmSV5gejy9IIzi+Nt
jSs/8sMe/TBPEVN3NxH5DsSQZqkf7/OLFLQ96VVU+3/q/N8u14jcdpZmCemv2968
nO3bh1Gwo/TscPzqFvuibpvbxp1xopgGjkq/FWgLjKW1CQIDAQABo4GiMIGfMAkG
A1UdEwQCMAAwHQYDVR0OBBYEFB3TqrPPTy98q8N5Eh0PviDOD23iMFEGA1UdIwRK
MEiAFNhr61B5xXGFsnBdOCzvMX0S/WfzoRqkGDAWMRQwEgYDVQQDDAt0ZWFtMTQ3
LW5ldIIUbmD53/kzX5HwMoOTDvdMNxtBj6swEwYDVR0lBAwwCgYIKwYBBQUHAwIw
CwYDVR0PBAQDAgeAMA0GCSqGSIb3DQEBCwUAA4IBAQAcLxsif23RZFalxUe91Ac1
RMhtVBSUR+z58YNJ9ns1l3yN73SpmfGxYZqskCAGRGrgRdebC+UuLKRQPSX6lOtA
6Ny0JQYX80+poHq2qS7GTqSlJTt6lLoyJEVDf7kjh8POcSncnaY7X3JGJimdLLAd
0XksmQMkURLSDm1YWK9cn2Il+I1HLok1RXqYvRI/41uHaIX3f7gkHnKj3LH+RWzk
49jxtvDmzFimLQOcnpBPPllutbU2Sl0zBa3RDwarP8l42p87b1yJOKMYSEc0qKeb
/FddC/hGutHb4+4b0APAtI9DF+2ITK53MMBJwrw1kdc5LhXY9Z+NSreLWwp+0ZAE
-----END CERTIFICATE-----
