Certificate:
    Data:
        Version: 3 (0x2)
        Serial Number:
            fa:e9:bd:93:0c:7a:4c:11:d3:73:52:c4:ad:da:34:e3
        Signature Algorithm: sha256WithRSAEncryption
        Issuer: CN=team335-net
        Validity
            Not Before: May 18 20:19:52 2022 GMT
            Not After : May  2 20:19:52 2025 GMT
        Subject: CN=team335-client
        Subject Public Key Info:
            Public Key Algorithm: rsaEncryption
                RSA Public-Key: (2048 bit)
                Modulus:
                    00:d1:59:29:ab:7e:bc:4c:89:1d:69:10:c9:31:77:
                    22:7d:01:37:f7:07:b9:fc:cd:e2:56:6c:8c:54:e9:
                    c9:2a:c3:14:a9:6d:26:72:08:a9:b9:b0:99:e3:83:
                    0e:76:f5:37:a6:a6:a8:0b:18:48:63:5c:b6:59:04:
                    96:bd:f6:06:c9:6a:1f:6e:59:c1:b4:5a:e2:80:6a:
                    a0:c3:31:0a:c0:b5:dd:0c:94:2d:13:dc:07:a6:c5:
                    9b:d7:5e:81:59:83:b5:98:c1:dd:d6:3f:65:4e:68:
                    29:be:ab:7d:41:d5:70:dc:03:99:13:b7:b1:cd:7b:
                    cf:81:c3:ad:9c:01:7c:22:ab:bb:e9:a3:e4:81:aa:
                    82:e3:75:7f:99:ca:4d:bf:26:a3:ec:22:07:88:02:
                    bf:41:c1:b0:d0:d2:81:52:09:59:2e:a3:7d:b7:e1:
                    40:c3:9e:8b:d1:23:9d:75:8b:df:f0:0b:28:58:53:
                    22:a3:a8:3d:b7:2b:29:b0:de:06:42:0b:8c:06:fe:
                    de:b3:ac:48:87:04:da:5a:f8:fd:9a:37:bf:0c:c1:
                    6d:89:50:b1:11:58:c2:70:4e:56:eb:be:08:05:37:
                    3a:91:0d:86:3c:e2:58:61:5f:c5:e3:04:84:94:ee:
                    9e:aa:46:c5:5b:ff:fe:14:a6:65:a0:1b:1b:1e:da:
                    3b:77
                Exponent: 65537 (0x10001)
        X509v3 extensions:
            X509v3 Basic Constraints: 
                CA:FALSE
            X509v3 Subject Key Identifier: 
                13:6E:DA:78:6D:36:6A:85:61:B7:8D:93:CD:2A:13:FA:70:18:DA:FA
            X509v3 Authority Key Identifier: 
                keyid:8D:A9:0B:B9:EC:35:B0:FC:6E:D0:D1:B8:99:6A:5E:FC:5A:6B:22:81
                DirName:/CN=team335-net
                serial:57:B5:93:91:09:41:E5:41:6D:17:B7:70:B7:56:DB:2F:93:C2:95:B6

            X509v3 Extended Key Usage: 
                TLS Web Client Authentication
            X509v3 Key Usage: 
                Digital Signature
    Signature Algorithm: sha256WithRSAEncryption
         15:df:99:96:d0:40:a9:64:10:50:a5:7b:6c:3a:0b:90:f5:30:
         29:f3:1d:5c:5c:b9:86:b8:43:16:2b:91:58:bb:88:4b:d3:a1:
         c2:85:1d:be:1d:f6:f5:bd:57:44:b7:b0:00:34:73:cb:fc:57:
         6e:d4:ef:bf:1c:18:14:da:83:9f:3e:56:15:0c:79:b2:c0:1d:
         6f:49:f9:55:96:7f:c5:2f:e3:39:94:53:04:eb:36:e1:50:4d:
         45:e1:10:67:db:0d:a3:68:3f:0c:93:da:11:d8:fc:3c:40:46:
         6a:2e:d6:b6:5f:d1:0d:35:1a:81:68:1b:0e:91:7b:7a:93:5d:
         1b:a4:e2:07:29:98:88:df:d6:38:fa:b1:92:2b:1b:37:5c:e6:
         30:16:35:98:2e:20:a0:3c:32:09:a3:21:2e:da:8e:ea:d4:3b:
         e2:4a:a3:bb:99:d3:b7:c5:cd:ba:78:a7:74:da:26:97:24:15:
         d3:8d:29:35:60:17:d3:15:d7:98:3c:e9:c3:03:6d:c8:24:a0:
         88:ab:8d:7e:de:9e:c7:09:1f:a4:8a:e5:b5:9d:46:19:e2:f6:
         40:de:e9:08:88:e0:62:65:d7:19:2a:15:fd:dc:89:68:0b:0c:
         d5:4d:57:ed:bd:5c:1f:55:2d:4a:6f:84:a3:1d:60:a2:92:ad:
         77:83:59:a0
-----BEGIN CERTIFICATE-----
MIIDXTCCAkWgAwIBAgIRAPrpvZMMekwR03NSxK3aNOMwDQYJKoZIhvcNAQELBQAw
FjEUMBIGA1UEAwwLdGVhbTMzNS1uZXQwHhcNMjIwNTE4MjAxOTUyWhcNMjUwNTAy
MjAxOTUyWjAZMRcwFQYDVQQDDA50ZWFtMzM1LWNsaWVudDCCASIwDQYJKoZIhvcN
AQEBBQADggEPADCCAQoCggEBANFZKat+vEyJHWkQyTF3In0BN/cHufzN4lZsjFTp
ySrDFKltJnIIqbmwmeODDnb1N6amqAsYSGNctlkElr32BslqH25ZwbRa4oBqoMMx
CsC13QyULRPcB6bFm9degVmDtZjB3dY/ZU5oKb6rfUHVcNwDmRO3sc17z4HDrZwB
fCKru+mj5IGqguN1f5nKTb8mo+wiB4gCv0HBsNDSgVIJWS6jfbfhQMOei9EjnXWL
3/ALKFhTIqOoPbcrKbDeBkILjAb+3rOsSIcE2lr4/Zo3vwzBbYlQsRFYwnBOVuu+
CAU3OpENhjziWGFfxeMEhJTunqpGxVv//hSmZaAbGx7aO3cCAwEAAaOBojCBnzAJ
BgNVHRMEAjAAMB0GA1UdDgQWBBQTbtp4bTZqhWG3jZPNKhP6cBja+jBRBgNVHSME
SjBIgBSNqQu57DWw/G7Q0biZal78WmsigaEapBgwFjEUMBIGA1UEAwwLdGVhbTMz
NS1uZXSCFFe1k5EJQeVBbRe3cLdW2y+TwpW2MBMGA1UdJQQMMAoGCCsGAQUFBwMC
MAsGA1UdDwQEAwIHgDANBgkqhkiG9w0BAQsFAAOCAQEAFd+ZltBAqWQQUKV7bDoL
kPUwKfMdXFy5hrhDFiuRWLuIS9OhwoUdvh329b1XRLewADRzy/xXbtTvvxwYFNqD
nz5WFQx5ssAdb0n5VZZ/xS/jOZRTBOs24VBNReEQZ9sNo2g/DJPaEdj8PEBGai7W
tl/RDTUagWgbDpF7epNdG6TiBymYiN/WOPqxkisbN1zmMBY1mC4goDwyCaMhLtqO
6tQ74kqju5nTt8XNunindNomlyQV040pNWAX0xXXmDzpwwNtyCSgiKuNft6exwkf
pIrltZ1GGeL2QN7pCIjgYmXXGSoV/dyJaAsM1U1X7b1cH1UtSm+Eox1gopKtd4NZ
oA==
-----END CERTIFICATE-----
