Certificate:
    Data:
        Version: 3 (0x2)
        Serial Number:
            a9:1e:ad:03:6d:c7:a6:85:30:f2:9a:48:f8:f0:91:09
        Signature Algorithm: sha256WithRSAEncryption
        Issuer: CN=team356-net
        Validity
            Not Before: May 18 20:38:47 2022 GMT
            Not After : May  2 20:38:47 2025 GMT
        Subject: CN=team356-client
        Subject Public Key Info:
            Public Key Algorithm: rsaEncryption
                RSA Public-Key: (2048 bit)
                Modulus:
                    00:9f:88:44:11:f7:5c:11:28:83:38:da:f3:47:e8:
                    09:e0:4f:6f:3a:eb:2e:71:5a:df:22:b0:e8:29:ff:
                    74:3b:ca:1c:5a:43:34:61:38:f6:74:22:e7:ba:9a:
                    8b:2a:46:02:b0:4b:7d:2c:5c:1d:c2:d5:68:41:19:
                    6c:56:88:5f:70:a4:18:38:bd:38:b7:a4:f9:53:b2:
                    91:3d:8f:57:c7:75:a5:1f:2f:b4:cf:51:93:26:2d:
                    d4:b4:1c:e6:c2:6e:ed:94:75:97:9b:e0:12:d2:c3:
                    7d:13:3e:f7:23:a1:54:61:24:ea:4b:93:9c:53:94:
                    73:3e:78:18:e9:1f:10:6c:fb:98:5e:1e:76:41:d4:
                    83:13:36:7b:ff:1a:4c:a4:78:fe:52:59:2d:53:2e:
                    06:ce:ed:08:ae:79:47:86:74:e1:cc:94:10:44:64:
                    23:03:c4:26:aa:3a:94:e7:da:34:73:e8:14:27:71:
                    51:a0:bc:8b:26:4c:2c:27:df:68:33:e7:c4:38:8b:
                    9a:45:b6:27:53:73:58:37:6e:d7:2a:c3:12:98:13:
                    f5:59:73:15:31:3e:2a:62:fc:e1:f2:69:81:8e:b8:
                    de:cb:69:67:4c:0c:24:57:46:c1:fe:5f:3b:d2:6a:
                    78:2b:d5:41:bd:96:0a:1f:22:49:53:c9:96:81:92:
                    44:4f
                Exponent: 65537 (0x10001)
        X509v3 extensions:
            X509v3 Basic Constraints: 
                CA:FALSE
            X509v3 Subject Key Identifier: 
                B9:E3:B6:BB:AD:EA:A0:5E:69:FB:9C:77:C7:B6:2A:99:DA:A0:BF:3F
            X509v3 Authority Key Identifier: 
                keyid:35:7D:DC:B0:DC:EE:9B:9A:28:B3:20:14:97:D6:AB:BE:E7:D9:48:3E
                DirName:/CN=team356-net
                serial:21:0D:A6:3A:06:12:65:0D:27:88:2D:CA:E8:4E:70:FB:22:AB:0D:FA

            X509v3 Extended Key Usage: 
                TLS Web Client Authentication
            X509v3 Key Usage: 
                Digital Signature
    Signature Algorithm: sha256WithRSAEncryption
         77:5d:2b:ad:47:95:8e:ab:e3:f1:14:31:6d:24:91:85:af:0c:
         3a:10:3b:80:a6:6e:67:f0:f7:58:c5:5a:28:d3:c4:cc:f8:37:
         8b:91:96:4d:2f:7b:d8:ed:77:46:69:aa:c9:2a:a7:09:7e:fa:
         ad:dd:f4:d7:78:87:d0:0d:04:db:6a:f6:08:da:81:01:ab:ac:
         c4:75:fd:e3:79:ea:d1:f5:5c:d8:a8:98:10:9b:85:b2:3d:ec:
         37:2a:cb:9e:38:76:ce:46:d0:d6:e6:50:f1:d7:1d:16:f5:91:
         f3:ad:01:65:16:5a:da:59:0f:29:40:40:55:50:20:98:8c:9c:
         5d:af:b3:da:98:ae:a1:56:06:88:cd:61:eb:5c:58:36:48:81:
         cf:fc:8d:04:9f:42:8e:9f:2e:a9:f6:56:e2:13:dd:6d:83:f7:
         e1:0a:3e:de:54:98:d5:9d:29:ad:a4:81:eb:83:2b:40:78:00:
         52:09:bd:be:53:ba:e3:4a:01:76:eb:21:0c:d8:34:99:50:97:
         78:28:ef:65:35:18:3f:e0:53:34:4d:d2:44:0d:17:3f:9e:60:
         72:38:4b:da:a4:c4:71:b7:58:13:da:db:72:5f:ab:76:da:f6:
         7d:e3:52:c2:65:0c:f4:eb:0e:43:1e:63:72:10:62:01:17:6e:
         7e:3b:b3:c7
-----BEGIN CERTIFICATE-----
MIIDXTCCAkWgAwIBAgIRAKkerQNtx6aFMPKaSPjwkQkwDQYJKoZIhvcNAQELBQAw
FjEUMBIGA1UEAwwLdGVhbTM1Ni1uZXQwHhcNMjIwNTE4MjAzODQ3WhcNMjUwNTAy
MjAzODQ3WjAZMRcwFQYDVQQDDA50ZWFtMzU2LWNsaWVudDCCASIwDQYJKoZIhvcN
AQEBBQADggEPADCCAQoCggEBAJ+IRBH3XBEogzja80foCeBPbzrrLnFa3yKw6Cn/
dDvKHFpDNGE49nQi57qaiypGArBLfSxcHcLVaEEZbFaIX3CkGDi9OLek+VOykT2P
V8d1pR8vtM9RkyYt1LQc5sJu7ZR1l5vgEtLDfRM+9yOhVGEk6kuTnFOUcz54GOkf
EGz7mF4edkHUgxM2e/8aTKR4/lJZLVMuBs7tCK55R4Z04cyUEERkIwPEJqo6lOfa
NHPoFCdxUaC8iyZMLCffaDPnxDiLmkW2J1NzWDdu1yrDEpgT9VlzFTE+KmL84fJp
gY643stpZ0wMJFdGwf5fO9JqeCvVQb2WCh8iSVPJloGSRE8CAwEAAaOBojCBnzAJ
BgNVHRMEAjAAMB0GA1UdDgQWBBS547a7reqgXmn7nHfHtiqZ2qC/PzBRBgNVHSME
SjBIgBQ1fdyw3O6bmiizIBSX1qu+59lIPqEapBgwFjEUMBIGA1UEAwwLdGVhbTM1
Ni1uZXSCFCENpjoGEmUNJ4gtyuhOcPsiqw36MBMGA1UdJQQMMAoGCCsGAQUFBwMC
MAsGA1UdDwQEAwIHgDANBgkqhkiG9w0BAQsFAAOCAQEAd10rrUeVjqvj8RQxbSSR
ha8MOhA7gKZuZ/D3WMVaKNPEzPg3i5GWTS972O13RmmqySqnCX76rd3013iH0A0E
22r2CNqBAausxHX943nq0fVc2KiYEJuFsj3sNyrLnjh2zkbQ1uZQ8dcdFvWR860B
ZRZa2lkPKUBAVVAgmIycXa+z2piuoVYGiM1h61xYNkiBz/yNBJ9Cjp8uqfZW4hPd
bYP34Qo+3lSY1Z0praSB64MrQHgAUgm9vlO640oBdushDNg0mVCXeCjvZTUYP+BT
NE3SRA0XP55gcjhL2qTEcbdYE9rbcl+rdtr2feNSwmUM9OsOQx5jchBiARdufjuz
xw==
-----END CERTIFICATE-----
