Certificate:
    Data:
        Version: 3 (0x2)
        Serial Number:
            bb:8f:70:77:1d:a2:b3:87:be:f3:98:c4:87:b8:0a:b8
        Signature Algorithm: sha256WithRSAEncryption
        Issuer: CN=team745-net
        Validity
            Not Before: May 19 00:01:57 2022 GMT
            Not After : May  3 00:01:57 2025 GMT
        Subject: CN=team745-client
        Subject Public Key Info:
            Public Key Algorithm: rsaEncryption
                RSA Public-Key: (2048 bit)
                Modulus:
                    00:a2:2f:8f:21:3f:05:1e:a4:67:c9:33:3d:56:fe:
                    8f:68:63:c9:4f:dc:cd:81:c5:44:86:51:08:54:0e:
                    0a:24:ed:9d:f0:9c:1b:ff:c9:32:24:23:1e:e7:f6:
                    70:14:df:c2:8e:45:79:b9:71:a5:6b:94:2a:ee:89:
                    ab:9f:4b:5e:74:15:85:ef:62:3d:99:e9:07:9c:02:
                    33:80:63:b3:1f:d4:b1:b3:08:2f:29:b9:ec:ad:33:
                    e9:60:f6:8e:08:34:18:df:d0:47:d9:a2:01:8c:71:
                    d5:28:d2:9a:8d:10:08:78:9a:16:ee:90:0b:68:b7:
                    6c:e0:b5:93:56:77:a1:9b:38:ce:39:13:9a:40:05:
                    9f:77:56:a2:54:de:bc:b1:eb:d4:23:10:86:55:d1:
                    a5:62:07:60:a7:36:6a:76:37:c4:76:75:1b:c4:02:
                    38:6e:d8:c2:6b:fb:95:5b:33:43:db:ba:6c:13:a1:
                    cc:29:f1:e3:3d:35:c6:c0:3a:bd:9a:21:eb:e7:83:
                    bd:1e:bd:b7:76:57:b4:a2:4d:f7:84:52:6b:c7:00:
                    d7:94:de:7a:90:0d:bb:25:4a:38:79:d3:a8:d7:3e:
                    66:14:a7:c4:3f:26:d4:c1:3d:a5:ac:7a:32:6c:34:
                    a4:b2:42:e4:78:5d:0e:e0:f5:2c:96:37:f8:cb:51:
                    c4:29
                Exponent: 65537 (0x10001)
        X509v3 extensions:
            X509v3 Basic Constraints: 
                CA:FALSE
            X509v3 Subject Key Identifier: 
                7A:9B:88:A2:9F:8D:40:DA:BB:33:9D:82:49:D3:5F:50:48:88:B2:18
            X509v3 Authority Key Identifier: 
                keyid:A8:A2:FF:B6:B0:49:F7:09:25:B3:BC:AD:89:51:50:C7:E9:10:F8:C0
                DirName:/CN=team745-net
                serial:64:72:89:1A:2A:2B:6A:0F:95:89:FB:E6:23:39:D2:99:BB:44:2A:FE

            X509v3 Extended Key Usage: 
                TLS Web Client Authentication
            X509v3 Key Usage: 
                Digital Signature
    Signature Algorithm: sha256WithRSAEncryption
         9b:5a:5d:74:2b:59:55:5a:fd:74:aa:3d:f4:42:f0:ad:bc:03:
         30:9e:72:b7:75:2f:70:77:95:50:d8:d3:80:a7:5e:16:cb:16:
         28:fc:4a:4c:be:4f:94:79:7c:fb:5a:38:54:98:e7:fe:be:56:
         16:9c:f5:8d:69:b5:b8:06:52:16:a2:f8:40:9e:4d:b1:7f:16:
         3b:d2:29:a0:65:8c:17:a6:05:17:67:b7:54:25:e6:10:c0:f8:
         a9:2d:1a:60:9a:fc:e8:6d:26:b5:2f:ba:d7:6b:28:1a:a1:9c:
         c0:7f:05:ec:51:8a:2c:d6:47:da:5c:ff:ac:3b:23:e0:29:73:
         56:48:86:72:66:73:ea:4a:31:9d:c9:44:b2:49:f3:5a:71:e0:
         49:cc:c7:ba:a0:23:9b:8a:bf:b5:6f:b1:1f:38:4a:eb:db:4c:
         c5:8c:fc:a3:69:07:88:89:03:cf:c3:3a:d9:c1:df:9c:05:e8:
         d3:ed:c1:d0:b2:43:55:b8:aa:b2:57:26:fa:b1:c2:7a:3f:96:
         cc:56:fa:e7:9e:d5:a1:01:92:3c:e3:c9:e9:76:d8:64:d5:4c:
         04:69:23:25:0e:1a:49:34:d5:a9:66:15:9f:d5:df:04:20:03:
         99:38:48:b4:e6:14:a9:e5:ec:40:3c:1c:9d:4c:b4:df:50:ce:
         95:9e:6e:53
-----BEGIN CERTIFICATE-----
MIIDXTCCAkWgAwIBAgIRALuPcHcdorOHvvOYxIe4CrgwDQYJKoZIhvcNAQELBQAw
FjEUMBIGA1UEAwwLdGVhbTc0NS1uZXQwHhcNMjIwNTE5MDAwMTU3WhcNMjUwNTAz
MDAwMTU3WjAZMRcwFQYDVQQDDA50ZWFtNzQ1LWNsaWVudDCCASIwDQYJKoZIhvcN
AQEBBQADggEPADCCAQoCggEBAKIvjyE/BR6kZ8kzPVb+j2hjyU/czYHFRIZRCFQO
CiTtnfCcG//JMiQjHuf2cBTfwo5FeblxpWuUKu6Jq59LXnQVhe9iPZnpB5wCM4Bj
sx/UsbMILym57K0z6WD2jgg0GN/QR9miAYxx1SjSmo0QCHiaFu6QC2i3bOC1k1Z3
oZs4zjkTmkAFn3dWolTevLHr1CMQhlXRpWIHYKc2anY3xHZ1G8QCOG7Ywmv7lVsz
Q9u6bBOhzCnx4z01xsA6vZoh6+eDvR69t3ZXtKJN94RSa8cA15TeepANuyVKOHnT
qNc+ZhSnxD8m1ME9pax6Mmw0pLJC5HhdDuD1LJY3+MtRxCkCAwEAAaOBojCBnzAJ
BgNVHRMEAjAAMB0GA1UdDgQWBBR6m4iin41A2rsznYJJ019QSIiyGDBRBgNVHSME
SjBIgBSoov+2sEn3CSWzvK2JUVDH6RD4wKEapBgwFjEUMBIGA1UEAwwLdGVhbTc0
NS1uZXSCFGRyiRoqK2oPlYn75iM50pm7RCr+MBMGA1UdJQQMMAoGCCsGAQUFBwMC
MAsGA1UdDwQEAwIHgDANBgkqhkiG9w0BAQsFAAOCAQEAm1pddCtZVVr9dKo99ELw
rbwDMJ5yt3UvcHeVUNjTgKdeFssWKPxKTL5PlHl8+1o4VJjn/r5WFpz1jWm1uAZS
FqL4QJ5NsX8WO9IpoGWMF6YFF2e3VCXmEMD4qS0aYJr86G0mtS+612soGqGcwH8F
7FGKLNZH2lz/rDsj4ClzVkiGcmZz6koxnclEsknzWnHgSczHuqAjm4q/tW+xHzhK
69tMxYz8o2kHiIkDz8M62cHfnAXo0+3B0LJDVbiqslcm+rHCej+WzFb6557VoQGS
POPJ6XbYZNVMBGkjJQ4aSTTVqWYVn9XfBCADmThItOYUqeXsQDwcnUy031DOlZ5u
Uw==
-----END CERTIFICATE-----
