Certificate:
    Data:
        Version: 3 (0x2)
        Serial Number:
            73:2f:df:c3:45:4a:9d:ba:5c:c5:c4:7f:eb:c6:67:43
        Signature Algorithm: sha256WithRSAEncryption
        Issuer: CN=team98-net
        Validity
            Not Before: May 18 14:49:23 2022 GMT
            Not After : May  2 14:49:23 2025 GMT
        Subject: CN=team98-client
        Subject Public Key Info:
            Public Key Algorithm: rsaEncryption
                RSA Public-Key: (2048 bit)
                Modulus:
                    00:be:7c:68:d5:69:f0:2e:9b:92:8c:95:a7:b2:05:
                    05:57:a1:b4:e9:bc:4d:8a:ac:58:bb:8b:cd:b7:b9:
                    27:8a:35:aa:78:28:58:a0:71:13:07:56:5d:28:8f:
                    d4:67:42:6a:17:d8:72:6c:f7:ea:a3:e7:44:63:82:
                    a2:86:74:85:ad:78:48:b0:a1:84:2a:19:32:4d:d7:
                    fe:07:80:df:3c:8b:3f:9e:53:f1:76:28:3c:11:2d:
                    06:ac:6b:f0:96:81:c5:b9:55:3d:32:49:96:dd:14:
                    96:1b:48:13:aa:42:dc:7a:66:3d:96:9b:d8:d1:50:
                    39:03:4b:97:19:4d:0e:74:93:18:ad:43:29:f5:c4:
                    44:f7:9c:58:f0:13:e0:3d:96:25:e7:98:92:6d:bd:
                    6e:f4:90:2f:94:92:b3:d7:e9:a6:d6:0b:2b:38:f3:
                    07:d9:e5:88:a1:5d:2c:76:8c:ed:da:0e:d0:55:bc:
                    cc:f8:5f:5b:2d:14:51:f8:ef:7f:f7:fb:93:4f:7b:
                    d7:fb:cb:88:2f:bd:6f:52:c9:ed:e1:97:e5:80:3f:
                    43:c0:97:d3:eb:65:71:da:23:f1:e9:29:75:9f:2c:
                    3c:39:12:16:e4:17:8a:91:da:96:e4:23:bd:52:aa:
                    ad:f6:ed:d2:58:aa:c5:d0:93:7b:25:46:ef:a1:b4:
                    0b:61
                Exponent: 65537 (0x10001)
        X509v3 extensions:
            X509v3 Basic Constraints: 
                CA:FALSE
            X509v3 Subject Key Identifier: 
                76:F8:63:89:CE:DF:4C:74:6C:24:4A:48:81:08:00:46:04:55:07:ED
            X509v3 Authority Key Identifier: 
                keyid:C6:E4:78:4E:C7:EF:9A:DF:A5:92:94:C5:64:B4:57:63:01:B5:74:66
                DirName:/CN=team98-net
                serial:63:B9:9D:09:FE:D7:7C:8F:99:F2:A7:4F:B3:33:1C:18:E2:27:79:B5

            X509v3 Extended Key Usage: 
                TLS Web Client Authentication
            X509v3 Key Usage: 
                Digital Signature
    Signature Algorithm: sha256WithRSAEncryption
         41:bb:e5:e9:95:7b:ae:20:1f:b5:98:59:a5:ab:2e:41:bf:c9:
         8d:46:c6:e3:a1:95:c8:67:25:9c:3b:2e:d6:59:09:1e:3b:bf:
         d7:5d:a9:39:37:14:8e:86:ce:54:8d:b6:8a:49:0c:8b:0c:93:
         a7:5f:13:c0:d6:6c:a9:e6:73:3b:36:62:0e:57:e6:a5:04:29:
         1f:6d:d6:59:77:91:82:1b:6f:3f:6a:5f:21:73:f8:a0:b5:9d:
         6a:9a:cf:66:72:3e:af:76:25:9a:bc:e1:a8:62:3e:fa:e9:fb:
         7c:75:1a:fc:c5:f9:83:06:8a:58:13:72:b3:1a:2d:4f:11:6c:
         26:07:ab:18:df:d8:1d:b5:94:8e:23:c4:82:e4:fc:27:7e:60:
         a8:9a:c8:8a:9b:e1:c2:67:2a:1b:a9:65:ed:c6:4f:e4:e8:94:
         bb:7d:39:dc:28:5d:a2:c4:3f:aa:cf:5b:26:2d:5d:1f:5a:17:
         0c:a0:9d:99:c1:71:a3:49:6c:c8:4e:cf:f5:49:57:a3:8e:59:
         02:8c:8a:61:87:85:ed:e3:7f:0c:9f:4d:ad:8b:a1:8c:06:df:
         a6:a4:b0:1e:8b:93:89:ab:ad:09:f5:83:49:3c:27:52:8c:83:
         77:cf:7c:04:fd:0f:ac:fe:b2:a8:39:9c:73:9b:5d:44:50:de:
         9e:69:ce:47
-----BEGIN CERTIFICATE-----
MIIDWTCCAkGgAwIBAgIQcy/fw0VKnbpcxcR/68ZnQzANBgkqhkiG9w0BAQsFADAV
MRMwEQYDVQQDDAp0ZWFtOTgtbmV0MB4XDTIyMDUxODE0NDkyM1oXDTI1MDUwMjE0
NDkyM1owGDEWMBQGA1UEAwwNdGVhbTk4LWNsaWVudDCCASIwDQYJKoZIhvcNAQEB
BQADggEPADCCAQoCggEBAL58aNVp8C6bkoyVp7IFBVehtOm8TYqsWLuLzbe5J4o1
qngoWKBxEwdWXSiP1GdCahfYcmz36qPnRGOCooZ0ha14SLChhCoZMk3X/geA3zyL
P55T8XYoPBEtBqxr8JaBxblVPTJJlt0UlhtIE6pC3HpmPZab2NFQOQNLlxlNDnST
GK1DKfXERPecWPAT4D2WJeeYkm29bvSQL5SSs9fpptYLKzjzB9nliKFdLHaM7doO
0FW8zPhfWy0UUfjvf/f7k0971/vLiC+9b1LJ7eGX5YA/Q8CX0+tlcdoj8ekpdZ8s
PDkSFuQXipHaluQjvVKqrfbt0liqxdCTeyVG76G0C2ECAwEAAaOBoTCBnjAJBgNV
HRMEAjAAMB0GA1UdDgQWBBR2+GOJzt9MdGwkSkiBCABGBFUH7TBQBgNVHSMESTBH
gBTG5HhOx++a36WSlMVktFdjAbV0ZqEZpBcwFTETMBEGA1UEAwwKdGVhbTk4LW5l
dIIUY7mdCf7XfI+Z8qdPszMcGOInebUwEwYDVR0lBAwwCgYIKwYBBQUHAwIwCwYD
VR0PBAQDAgeAMA0GCSqGSIb3DQEBCwUAA4IBAQBBu+XplXuuIB+1mFmlqy5Bv8mN
RsbjoZXIZyWcOy7WWQkeO7/XXak5NxSOhs5UjbaKSQyLDJOnXxPA1myp5nM7NmIO
V+alBCkfbdZZd5GCG28/al8hc/igtZ1qms9mcj6vdiWavOGoYj766ft8dRr8xfmD
BopYE3KzGi1PEWwmB6sY39gdtZSOI8SC5PwnfmComsiKm+HCZyobqWXtxk/k6JS7
fTncKF2ixD+qz1smLV0fWhcMoJ2ZwXGjSWzITs/1SVejjlkCjIphh4Xt438Mn02t
i6GMBt+mpLAei5OJq60J9YNJPCdSjIN3z3wE/Q+s/rKoOZxzm11EUN6eac5H
-----END CERTIFICATE-----
