Certificate:
    Data:
        Version: 3 (0x2)
        Serial Number:
            d5:6b:e0:83:a6:d0:7e:24:23:9f:35:8a:c7:21:d4:b4
        Signature Algorithm: sha256WithRSAEncryption
        Issuer: CN=team279-net
        Validity
            Not Before: May 18 19:46:31 2022 GMT
            Not After : May  2 19:46:31 2025 GMT
        Subject: CN=team279-client
        Subject Public Key Info:
            Public Key Algorithm: rsaEncryption
                RSA Public-Key: (2048 bit)
                Modulus:
                    00:d1:5e:f5:4d:da:73:72:5b:5e:ac:1e:6e:5a:4f:
                    bb:1c:e8:85:5d:6b:98:7f:6e:89:88:49:6c:e3:2d:
                    b6:d2:f5:01:ed:96:94:3a:1d:b5:66:1a:74:9d:95:
                    37:eb:68:d7:c2:4d:d1:80:6c:47:50:a1:84:53:77:
                    73:cc:35:60:68:75:4e:2b:f6:b6:ee:1f:7d:54:21:
                    c5:91:cf:87:d7:ac:46:be:ea:6f:69:e2:45:f9:07:
                    d0:5d:7c:43:14:c9:71:d8:f4:16:ee:f1:f7:e4:0d:
                    4a:45:1d:cf:c7:96:55:e2:af:ef:a4:0f:7d:8f:67:
                    26:68:b5:ad:40:f7:2f:90:45:4a:0d:9b:f1:8f:7d:
                    c0:31:d1:64:ad:5f:ba:7d:d9:46:4c:cc:4c:4f:33:
                    8b:54:18:33:df:ea:70:fc:52:47:c9:6d:5b:eb:5a:
                    d8:de:0d:53:20:20:e8:0d:1b:bc:f7:ce:96:04:87:
                    21:b5:f4:44:5d:d3:8d:b6:55:70:ef:4e:44:dd:f4:
                    ae:89:be:83:f5:cb:a5:e8:d4:dd:40:2e:03:c6:49:
                    f8:00:5c:6c:cd:a3:c6:92:e9:dd:3e:73:86:c5:96:
                    1f:6d:fb:a9:f0:53:3d:cd:93:1d:29:1e:cb:9f:02:
                    c6:e1:a2:61:a6:be:66:46:3c:c8:84:4f:df:48:cd:
                    9b:71
                Exponent: 65537 (0x10001)
        X509v3 extensions:
            X509v3 Basic Constraints: 
                CA:FALSE
            X509v3 Subject Key Identifier: 
                08:0F:62:D4:20:3D:CD:2C:5F:DA:A9:94:F2:A3:5F:75:9B:D4:B9:6E
            X509v3 Authority Key Identifier: 
                keyid:57:3F:B3:9D:36:4F:20:B1:E7:B8:4E:78:70:A1:B2:2C:CD:C3:A3:B4
                DirName:/CN=team279-net
                serial:0C:40:50:16:63:39:2A:BE:26:87:50:9F:4C:86:B6:74:8A:A8:13:2A

            X509v3 Extended Key Usage: 
                TLS Web Client Authentication
            X509v3 Key Usage: 
                Digital Signature
    Signature Algorithm: sha256WithRSAEncryption
         5f:66:32:6e:5b:a4:90:be:5a:6a:bb:a5:d2:b2:71:fa:f5:d3:
         c0:45:7b:e2:48:f3:e8:35:13:0d:83:2b:5c:9c:bb:a4:95:8f:
         74:92:2c:ef:f2:6f:86:0e:60:3e:7b:14:9e:20:bd:69:46:cb:
         56:dc:ad:78:02:bd:1c:08:72:da:a4:74:56:82:91:6e:33:70:
         7f:37:27:02:90:c2:bd:c5:ca:0c:88:3b:ed:cc:50:a1:86:2b:
         a3:85:80:d6:a4:40:63:c2:6c:c2:e2:fe:aa:96:c1:ce:41:5e:
         1b:5b:8b:9c:76:cf:e7:f2:2c:49:28:89:a7:27:c7:1d:48:8e:
         8a:8c:35:dd:42:5f:2a:fb:b5:d5:0d:3d:a7:e5:bd:9d:4d:e5:
         56:cb:08:d1:9a:4a:67:c4:ce:38:77:6a:ac:f6:87:2c:32:13:
         ea:a5:03:8d:48:9c:99:58:fa:95:ec:2c:b1:90:d3:fd:bc:ca:
         dd:d2:4d:d8:bd:46:0a:50:df:c1:38:0b:bd:07:2a:dd:17:f1:
         c3:d5:31:bc:6b:2c:82:c6:7b:fe:49:d3:94:04:ba:cd:25:d1:
         c6:02:77:70:40:86:55:84:53:83:dd:99:d2:7f:54:06:e5:63:
         27:b3:c9:24:70:58:86:4c:66:e7:22:32:72:4a:85:72:02:c0:
         3b:6d:33:fd
-----BEGIN CERTIFICATE-----
MIIDXTCCAkWgAwIBAgIRANVr4IOm0H4kI581isch1LQwDQYJKoZIhvcNAQELBQAw
FjEUMBIGA1UEAwwLdGVhbTI3OS1uZXQwHhcNMjIwNTE4MTk0NjMxWhcNMjUwNTAy
MTk0NjMxWjAZMRcwFQYDVQQDDA50ZWFtMjc5LWNsaWVudDCCASIwDQYJKoZIhvcN
AQEBBQADggEPADCCAQoCggEBANFe9U3ac3JbXqweblpPuxzohV1rmH9uiYhJbOMt
ttL1Ae2WlDodtWYadJ2VN+to18JN0YBsR1ChhFN3c8w1YGh1Tiv2tu4ffVQhxZHP
h9esRr7qb2niRfkH0F18QxTJcdj0Fu7x9+QNSkUdz8eWVeKv76QPfY9nJmi1rUD3
L5BFSg2b8Y99wDHRZK1fun3ZRkzMTE8zi1QYM9/qcPxSR8ltW+ta2N4NUyAg6A0b
vPfOlgSHIbX0RF3TjbZVcO9ORN30rom+g/XLpejU3UAuA8ZJ+ABcbM2jxpLp3T5z
hsWWH237qfBTPc2THSkey58CxuGiYaa+ZkY8yIRP30jNm3ECAwEAAaOBojCBnzAJ
BgNVHRMEAjAAMB0GA1UdDgQWBBQID2LUID3NLF/aqZTyo191m9S5bjBRBgNVHSME
SjBIgBRXP7OdNk8gsee4TnhwobIszcOjtKEapBgwFjEUMBIGA1UEAwwLdGVhbTI3
OS1uZXSCFAxAUBZjOSq+JodQn0yGtnSKqBMqMBMGA1UdJQQMMAoGCCsGAQUFBwMC
MAsGA1UdDwQEAwIHgDANBgkqhkiG9w0BAQsFAAOCAQEAX2YyblukkL5aarul0rJx
+vXTwEV74kjz6DUTDYMrXJy7pJWPdJIs7/Jvhg5gPnsUniC9aUbLVtyteAK9HAhy
2qR0VoKRbjNwfzcnApDCvcXKDIg77cxQoYYro4WA1qRAY8JswuL+qpbBzkFeG1uL
nHbP5/IsSSiJpyfHHUiOiow13UJfKvu11Q09p+W9nU3lVssI0ZpKZ8TOOHdqrPaH
LDIT6qUDjUicmVj6lewssZDT/bzK3dJN2L1GClDfwTgLvQcq3Rfxw9UxvGssgsZ7
/knTlAS6zSXRxgJ3cECGVYRTg92Z0n9UBuVjJ7PJJHBYhkxm5yIyckqFcgLAO20z
/Q==
-----END CERTIFICATE-----
