Certificate:
    Data:
        Version: 3 (0x2)
        Serial Number:
            05:86:6f:fc:fd:d0:35:0a:ac:74:55:73:b0:1b:c9:06
        Signature Algorithm: sha256WithRSAEncryption
        Issuer: CN=team288-net
        Validity
            Not Before: May 18 19:59:27 2022 GMT
            Not After : May  2 19:59:27 2025 GMT
        Subject: CN=team288-client
        Subject Public Key Info:
            Public Key Algorithm: rsaEncryption
                RSA Public-Key: (2048 bit)
                Modulus:
                    00:da:d7:6e:4e:57:d8:95:61:64:28:56:ab:d8:f9:
                    04:9e:ef:d2:89:2b:ed:bb:51:4a:7e:94:c9:30:de:
                    88:9d:87:04:54:25:38:17:a2:fc:17:61:44:d9:31:
                    49:ae:1a:7d:18:9c:78:7d:7a:33:ce:53:5f:fc:ae:
                    69:cd:85:5f:2b:48:9f:24:ba:a9:d4:3b:67:c4:01:
                    d1:b0:4d:f0:db:71:1a:0a:68:a0:28:a7:38:b7:3d:
                    e6:31:7d:0f:86:10:ea:fc:5a:d4:82:d7:de:00:27:
                    90:ec:71:57:e2:bf:ba:14:1b:bd:d4:b1:05:f1:fe:
                    a3:e8:ab:72:35:48:a6:79:58:a0:73:1b:bb:f1:3e:
                    bc:32:85:dc:1a:cd:fd:e7:2e:63:18:7a:6d:c9:2d:
                    9f:31:40:4d:b6:9b:83:fd:cd:2a:93:7d:b7:8f:46:
                    30:24:58:52:38:a8:ef:ab:93:5c:ed:fa:10:99:1c:
                    7b:57:e6:a2:13:57:82:2c:57:49:26:2d:f7:f8:83:
                    79:c9:9e:1a:57:65:1d:66:41:09:2d:95:b0:0e:38:
                    d4:14:91:27:d1:98:dc:d2:7b:4b:61:92:2b:7e:5a:
                    ee:4b:03:f7:ba:8b:58:04:6c:fe:16:1c:bf:28:e5:
                    d6:d4:1b:40:e1:c7:56:64:51:ec:95:27:2a:bb:88:
                    3f:cb
                Exponent: 65537 (0x10001)
        X509v3 extensions:
            X509v3 Basic Constraints: 
                CA:FALSE
            X509v3 Subject Key Identifier: 
                40:6B:03:DA:DA:8F:CF:E8:2B:93:A3:AD:62:D5:93:B5:97:93:D7:D1
            X509v3 Authority Key Identifier: 
                keyid:4E:65:94:8E:41:7A:C7:21:3B:17:0F:28:F1:52:66:62:F7:E3:80:51
                DirName:/CN=team288-net
                serial:7F:45:64:8D:7E:5E:4D:DE:72:F4:10:7C:71:59:5E:66:DB:C9:30:87

            X509v3 Extended Key Usage: 
                TLS Web Client Authentication
            X509v3 Key Usage: 
                Digital Signature
    Signature Algorithm: sha256WithRSAEncryption
         37:89:1b:01:fe:f2:71:82:7d:50:66:b0:ce:83:a2:6e:e3:a5:
         59:80:cb:c8:ac:ef:3a:cd:03:f1:69:7c:0e:56:7a:82:3d:ed:
         3b:a9:bd:f5:e7:31:c6:90:e1:93:f1:44:7f:65:c3:e2:9d:93:
         ad:69:cf:e7:0f:8d:42:09:ae:ad:e2:67:cc:6a:87:4f:61:11:
         6b:e4:1b:09:ae:6d:23:90:2c:61:ab:7e:99:2c:53:eb:b9:20:
         ba:1d:33:bb:b5:fc:fb:98:15:a7:9e:0a:62:07:64:4c:59:4c:
         92:87:c5:cd:a8:cf:a6:08:09:53:da:e5:db:81:5d:f1:99:33:
         7a:8a:4d:e1:6f:b9:1a:10:3b:71:b1:df:eb:bc:0c:8d:35:75:
         22:21:e5:ff:79:60:66:b7:a7:14:65:a5:75:7d:3d:5c:83:b9:
         8f:1e:86:23:c3:5b:70:df:9a:d3:f2:74:58:7a:5b:dd:9a:92:
         2b:be:77:d7:e0:10:30:a5:4a:16:a6:51:11:4d:4b:9f:58:c4:
         58:6a:66:01:c6:7e:dc:b6:f1:62:c3:5d:78:cd:4d:9e:71:6b:
         61:c6:12:9e:6c:ca:62:b9:97:11:5c:e8:fa:4a:eb:b0:2a:b1:
         d0:7b:08:30:9e:83:12:58:11:6b:04:83:5f:f8:97:ed:eb:fb:
         1d:a2:23:50
-----BEGIN CERTIFICATE-----
MIIDXDCCAkSgAwIBAgIQBYZv/P3QNQqsdFVzsBvJBjANBgkqhkiG9w0BAQsFADAW
MRQwEgYDVQQDDAt0ZWFtMjg4LW5ldDAeFw0yMjA1MTgxOTU5MjdaFw0yNTA1MDIx
OTU5MjdaMBkxFzAVBgNVBAMMDnRlYW0yODgtY2xpZW50MIIBIjANBgkqhkiG9w0B
AQEFAAOCAQ8AMIIBCgKCAQEA2tduTlfYlWFkKFar2PkEnu/SiSvtu1FKfpTJMN6I
nYcEVCU4F6L8F2FE2TFJrhp9GJx4fXozzlNf/K5pzYVfK0ifJLqp1DtnxAHRsE3w
23EaCmigKKc4tz3mMX0PhhDq/FrUgtfeACeQ7HFX4r+6FBu91LEF8f6j6KtyNUim
eVigcxu78T68MoXcGs395y5jGHptyS2fMUBNtpuD/c0qk323j0YwJFhSOKjvq5Nc
7foQmRx7V+aiE1eCLFdJJi33+IN5yZ4aV2UdZkEJLZWwDjjUFJEn0Zjc0ntLYZIr
flruSwP3uotYBGz+Fhy/KOXW1BtA4cdWZFHslScqu4g/ywIDAQABo4GiMIGfMAkG
A1UdEwQCMAAwHQYDVR0OBBYEFEBrA9raj8/oK5OjrWLVk7WXk9fRMFEGA1UdIwRK
MEiAFE5llI5BeschOxcPKPFSZmL344BRoRqkGDAWMRQwEgYDVQQDDAt0ZWFtMjg4
LW5ldIIUf0VkjX5eTd5y9BB8cVleZtvJMIcwEwYDVR0lBAwwCgYIKwYBBQUHAwIw
CwYDVR0PBAQDAgeAMA0GCSqGSIb3DQEBCwUAA4IBAQA3iRsB/vJxgn1QZrDOg6Ju
46VZgMvIrO86zQPxaXwOVnqCPe07qb315zHGkOGT8UR/ZcPinZOtac/nD41CCa6t
4mfMaodPYRFr5BsJrm0jkCxhq36ZLFPruSC6HTO7tfz7mBWnngpiB2RMWUySh8XN
qM+mCAlT2uXbgV3xmTN6ik3hb7kaEDtxsd/rvAyNNXUiIeX/eWBmt6cUZaV1fT1c
g7mPHoYjw1tw35rT8nRYelvdmpIrvnfX4BAwpUoWplERTUufWMRYamYBxn7ctvFi
w114zU2ecWthxhKebMpiuZcRXOj6SuuwKrHQewgwnoMSWBFrBINf+Jft6/sdoiNQ
-----END CERTIFICATE-----
