Certificate:
    Data:
        Version: 3 (0x2)
        Serial Number:
            17:43:7f:bb:14:9f:0d:f3:0b:c6:c9:c8:ef:a6:5f:74
        Signature Algorithm: sha256WithRSAEncryption
        Issuer: CN=team313-net
        Validity
            Not Before: May 18 20:03:02 2022 GMT
            Not After : May  2 20:03:02 2025 GMT
        Subject: CN=team313-client
        Subject Public Key Info:
            Public Key Algorithm: rsaEncryption
                RSA Public-Key: (2048 bit)
                Modulus:
                    00:cc:aa:9b:f5:56:9d:02:2b:50:a5:db:81:51:fd:
                    a9:69:d6:ca:a8:84:8d:21:76:a6:0f:dd:8c:65:33:
                    56:a5:78:ac:0b:e8:65:24:c7:22:c2:62:e5:7d:4d:
                    57:1e:01:03:eb:9f:7c:9f:28:c8:0e:85:5c:63:b3:
                    0e:da:f1:09:e4:1e:df:e5:80:71:41:36:74:e6:59:
                    56:0a:05:14:91:fb:5c:7e:84:f2:60:fe:85:56:1c:
                    fe:3c:6c:4e:2c:81:11:53:37:31:1a:04:9f:25:58:
                    30:ac:e7:58:0b:9a:41:d3:7d:a1:06:02:b9:8d:ba:
                    c7:b8:c5:f6:26:63:3f:0c:89:e7:c6:b6:36:b6:5b:
                    9f:f0:35:f5:58:67:4f:6a:12:ba:8c:92:ac:00:69:
                    cb:51:da:9c:f8:60:6b:0c:94:a9:c2:18:d1:b7:a7:
                    50:af:e2:39:e4:0a:69:2f:46:f3:3d:d5:5f:86:e7:
                    88:0b:2d:2d:0d:ba:e0:fa:10:f8:a2:68:a0:67:38:
                    35:81:68:c3:7e:a6:dc:99:6f:16:7e:8a:31:f5:5a:
                    fe:2c:c2:cf:83:84:27:a5:bf:7b:72:e5:a7:33:de:
                    dd:76:09:3b:ca:b8:51:a9:fa:94:21:b5:4d:5d:3f:
                    b0:00:c5:46:d7:bc:6a:f6:32:8a:24:c5:08:f0:40:
                    d2:6d
                Exponent: 65537 (0x10001)
        X509v3 extensions:
            X509v3 Basic Constraints: 
                CA:FALSE
            X509v3 Subject Key Identifier: 
                5F:0C:43:86:B7:31:2C:37:5A:19:64:A6:70:06:ED:30:CC:3B:FB:83
            X509v3 Authority Key Identifier: 
                keyid:83:47:F5:99:2F:5C:18:A2:92:E1:C9:F2:CA:9B:78:6F:37:94:C9:57
                DirName:/CN=team313-net
                serial:35:A0:97:7D:45:5F:6B:2F:93:89:7A:B4:D5:59:DF:B8:D5:29:3D:47

            X509v3 Extended Key Usage: 
                TLS Web Client Authentication
            X509v3 Key Usage: 
                Digital Signature
    Signature Algorithm: sha256WithRSAEncryption
         d4:51:a9:03:5f:29:44:bb:eb:ab:1f:9c:2b:68:92:53:39:c2:
         cb:6f:b4:c0:cf:35:4b:ec:cf:4f:f9:62:df:d4:e2:35:20:f5:
         8d:e7:b5:71:d9:26:ad:98:52:2d:79:d4:d5:71:69:dd:71:2b:
         c5:fa:34:2f:96:69:b9:83:56:8c:10:3f:9f:4c:73:ac:f0:22:
         fa:16:1b:3d:4c:f9:79:ce:b2:48:c4:92:03:db:ed:59:c9:4f:
         96:3c:b3:ea:ca:07:4c:44:60:2a:bf:d0:67:47:19:7f:74:10:
         01:82:08:e5:09:93:e0:e9:1b:fa:0c:58:bb:68:3c:7a:4a:f1:
         ae:72:82:d0:fa:27:f6:6f:e2:f8:68:e7:38:b0:31:45:46:08:
         95:8c:3f:82:56:f4:29:f5:3e:c5:d9:93:d3:e6:94:a1:d3:ef:
         65:98:8d:e7:f6:d7:5b:10:aa:3a:d5:b3:e0:10:ff:00:30:9a:
         91:3e:80:da:ca:39:fd:a4:1d:0a:8e:48:b5:e1:0f:60:77:6a:
         6a:0e:c4:ec:62:ca:82:b0:2c:1b:5f:23:50:ec:9c:99:ab:c1:
         71:34:53:cc:a0:47:c8:da:ba:2d:81:50:a7:9c:9f:de:1d:74:
         24:cb:a9:1a:ff:fb:14:86:dc:33:c1:c8:cc:c5:f1:92:30:68:
         65:91:0b:eb
-----BEGIN CERTIFICATE-----
MIIDXDCCAkSgAwIBAgIQF0N/uxSfDfMLxsnI76ZfdDANBgkqhkiG9w0BAQsFADAW
MRQwEgYDVQQDDAt0ZWFtMzEzLW5ldDAeFw0yMjA1MTgyMDAzMDJaFw0yNTA1MDIy
MDAzMDJaMBkxFzAVBgNVBAMMDnRlYW0zMTMtY2xpZW50MIIBIjANBgkqhkiG9w0B
AQEFAAOCAQ8AMIIBCgKCAQEAzKqb9VadAitQpduBUf2padbKqISNIXamD92MZTNW
pXisC+hlJMciwmLlfU1XHgED6598nyjIDoVcY7MO2vEJ5B7f5YBxQTZ05llWCgUU
kftcfoTyYP6FVhz+PGxOLIERUzcxGgSfJVgwrOdYC5pB032hBgK5jbrHuMX2JmM/
DInnxrY2tluf8DX1WGdPahK6jJKsAGnLUdqc+GBrDJSpwhjRt6dQr+I55AppL0bz
PdVfhueICy0tDbrg+hD4omigZzg1gWjDfqbcmW8Wfoox9Vr+LMLPg4Qnpb97cuWn
M97ddgk7yrhRqfqUIbVNXT+wAMVG17xq9jKKJMUI8EDSbQIDAQABo4GiMIGfMAkG
A1UdEwQCMAAwHQYDVR0OBBYEFF8MQ4a3MSw3WhlkpnAG7TDMO/uDMFEGA1UdIwRK
MEiAFINH9ZkvXBiikuHJ8sqbeG83lMlXoRqkGDAWMRQwEgYDVQQDDAt0ZWFtMzEz
LW5ldIIUNaCXfUVfay+TiXq01VnfuNUpPUcwEwYDVR0lBAwwCgYIKwYBBQUHAwIw
CwYDVR0PBAQDAgeAMA0GCSqGSIb3DQEBCwUAA4IBAQDUUakDXylEu+urH5wraJJT
OcLLb7TAzzVL7M9P+WLf1OI1IPWN57Vx2SatmFItedTVcWndcSvF+jQvlmm5g1aM
ED+fTHOs8CL6Fhs9TPl5zrJIxJID2+1ZyU+WPLPqygdMRGAqv9BnRxl/dBABggjl
CZPg6Rv6DFi7aDx6SvGucoLQ+if2b+L4aOc4sDFFRgiVjD+CVvQp9T7F2ZPT5pSh
0+9lmI3n9tdbEKo61bPgEP8AMJqRPoDayjn9pB0Kjki14Q9gd2pqDsTsYsqCsCwb
XyNQ7JyZq8FxNFPMoEfI2rotgVCnnJ/eHXQky6ka//sUhtwzwcjMxfGSMGhlkQvr
-----END CERTIFICATE-----
