Certificate:
    Data:
        Version: 3 (0x2)
        Serial Number:
            6f:7c:7e:a5:fc:77:08:a5:e9:04:7b:dd:e6:16:b0:22
        Signature Algorithm: sha256WithRSAEncryption
        Issuer: CN=team313-net
        Validity
            Not Before: May 18 20:03:02 2022 GMT
            Not After : May  2 20:03:02 2025 GMT
        Subject: CN=team313-server
        Subject Public Key Info:
            Public Key Algorithm: rsaEncryption
                RSA Public-Key: (2048 bit)
                Modulus:
                    00:d3:41:b6:60:51:8b:69:da:9d:64:44:db:fa:5e:
                    54:52:82:15:de:52:76:98:ca:f5:20:99:8c:1b:51:
                    72:b8:46:60:18:18:c1:8b:a6:ae:50:ac:70:72:53:
                    f1:47:9e:eb:a9:03:34:96:e0:eb:55:58:76:30:d9:
                    e4:84:64:4c:57:51:93:78:2e:fa:4d:0b:93:e9:f6:
                    6c:58:72:d1:01:a4:51:21:82:0c:f9:7b:f3:b3:67:
                    82:94:72:2d:b0:cd:89:9d:f2:a8:73:4d:03:b5:1a:
                    6a:b9:b2:ad:bc:11:f0:b0:3e:ce:56:de:5e:45:32:
                    13:c3:19:8c:91:2b:74:c4:52:c8:c7:33:3c:61:3a:
                    7f:40:76:e3:b7:7f:a6:b3:5f:c8:0d:0b:6e:fc:24:
                    00:e2:9d:19:71:c6:21:02:6c:5e:2a:bd:04:c1:33:
                    86:29:a3:b4:71:fc:59:54:86:2f:82:40:1e:85:91:
                    84:c7:ed:7a:6b:ae:e2:34:59:9c:1e:56:86:d6:fd:
                    e4:86:51:e1:b2:f5:8c:3d:2d:ae:3c:12:81:fa:b8:
                    98:5c:4a:27:53:a7:30:5a:35:5a:46:9f:2a:4e:5d:
                    6e:85:a5:4b:0c:15:28:45:2b:49:e3:eb:6e:40:4f:
                    7e:04:19:81:0a:c3:a0:b9:54:c7:c9:17:40:a9:dd:
                    23:29
                Exponent: 65537 (0x10001)
        X509v3 extensions:
            X509v3 Basic Constraints: 
                CA:FALSE
            X509v3 Subject Key Identifier: 
                FA:C0:47:09:4A:D1:ED:5B:16:55:CD:52:BB:85:23:49:1C:3E:FD:19
            X509v3 Authority Key Identifier: 
                keyid:83:47:F5:99:2F:5C:18:A2:92:E1:C9:F2:CA:9B:78:6F:37:94:C9:57
                DirName:/CN=team313-net
                serial:35:A0:97:7D:45:5F:6B:2F:93:89:7A:B4:D5:59:DF:B8:D5:29:3D:47

            X509v3 Extended Key Usage: 
                TLS Web Server Authentication
            X509v3 Key Usage: 
                Digital Signature, Key Encipherment
            X509v3 Subject Alternative Name: 
                DNS:team313-server
    Signature Algorithm: sha256WithRSAEncryption
         1a:f9:7b:08:0f:ca:3c:20:38:8b:c5:e7:78:b7:81:f6:fc:b7:
         12:5c:76:c0:a3:ec:1b:6c:bf:27:d9:6d:d3:f9:71:7a:d2:74:
         98:be:d9:93:1a:7a:7c:25:2e:ef:5f:8c:03:35:de:f3:d7:d7:
         e7:0f:0d:99:87:29:fe:a1:53:95:24:76:85:58:75:02:ae:1a:
         e8:7f:3c:e0:43:d1:df:cf:22:ca:0e:b1:c3:c6:b6:a2:79:84:
         58:7d:5c:75:c8:d0:b7:1f:c7:57:d3:8c:6c:97:be:97:e5:4c:
         07:12:a8:96:85:c9:61:3d:27:74:39:d2:a8:9e:5c:28:c2:23:
         57:78:71:ae:69:bf:97:9a:62:25:ff:84:cb:dd:8d:a0:bd:ee:
         dc:37:55:ad:9b:b7:7f:5f:21:8f:aa:4b:4c:87:1a:eb:2c:7e:
         7f:71:e3:c0:6b:0f:da:87:52:e4:40:83:27:9e:3c:c8:69:65:
         d5:d3:f3:98:ba:c8:0d:18:ef:8a:84:87:fa:ea:87:d7:e0:dd:
         ac:ac:d5:06:70:c3:dc:77:ec:24:2b:17:3a:25:8d:f9:8d:6c:
         3a:f1:cc:10:a8:d2:a7:78:e9:1f:02:0d:ac:f5:ef:b6:ec:f9:
         e5:f0:12:15:c7:78:0c:b3:dd:1a:ee:d4:b7:3a:a1:13:59:78:
         a6:eb:02:83
-----BEGIN CERTIFICATE-----
MIIDdzCCAl+gAwIBAgIQb3x+pfx3CKXpBHvd5hawIjANBgkqhkiG9w0BAQsFADAW
MRQwEgYDVQQDDAt0ZWFtMzEzLW5ldDAeFw0yMjA1MTgyMDAzMDJaFw0yNTA1MDIy
MDAzMDJaMBkxFzAVBgNVBAMMDnRlYW0zMTMtc2VydmVyMIIBIjANBgkqhkiG9w0B
AQEFAAOCAQ8AMIIBCgKCAQEA00G2YFGLadqdZETb+l5UUoIV3lJ2mMr1IJmMG1Fy
uEZgGBjBi6auUKxwclPxR57rqQM0luDrVVh2MNnkhGRMV1GTeC76TQuT6fZsWHLR
AaRRIYIM+Xvzs2eClHItsM2JnfKoc00DtRpqubKtvBHwsD7OVt5eRTITwxmMkSt0
xFLIxzM8YTp/QHbjt3+ms1/IDQtu/CQA4p0ZccYhAmxeKr0EwTOGKaO0cfxZVIYv
gkAehZGEx+16a67iNFmcHlaG1v3khlHhsvWMPS2uPBKB+riYXEonU6cwWjVaRp8q
Tl1uhaVLDBUoRStJ4+tuQE9+BBmBCsOguVTHyRdAqd0jKQIDAQABo4G9MIG6MAkG
A1UdEwQCMAAwHQYDVR0OBBYEFPrARwlK0e1bFlXNUruFI0kcPv0ZMFEGA1UdIwRK
MEiAFINH9ZkvXBiikuHJ8sqbeG83lMlXoRqkGDAWMRQwEgYDVQQDDAt0ZWFtMzEz
LW5ldIIUNaCXfUVfay+TiXq01VnfuNUpPUcwEwYDVR0lBAwwCgYIKwYBBQUHAwEw
CwYDVR0PBAQDAgWgMBkGA1UdEQQSMBCCDnRlYW0zMTMtc2VydmVyMA0GCSqGSIb3
DQEBCwUAA4IBAQAa+XsID8o8IDiLxed4t4H2/LcSXHbAo+wbbL8n2W3T+XF60nSY
vtmTGnp8JS7vX4wDNd7z19fnDw2Zhyn+oVOVJHaFWHUCrhrofzzgQ9HfzyLKDrHD
xraieYRYfVx1yNC3H8dX04xsl76X5UwHEqiWhclhPSd0OdKonlwowiNXeHGuab+X
mmIl/4TL3Y2gve7cN1Wtm7d/XyGPqktMhxrrLH5/cePAaw/ah1LkQIMnnjzIaWXV
0/OYusgNGO+KhIf66ofX4N2srNUGcMPcd+wkKxc6JY35jWw68cwQqNKneOkfAg2s
9e+27Pnl8BIVx3gMs90a7tS3OqETWXim6wKD
-----END CERTIFICATE-----
