Certificate:
    Data:
        Version: 3 (0x2)
        Serial Number:
            37:4e:cb:69:fb:32:3f:90:5d:55:05:6a:a0:1c:30:9b
        Signature Algorithm: sha256WithRSAEncryption
        Issuer: CN=team552-net
        Validity
            Not Before: May 18 22:21:03 2022 GMT
            Not After : May  2 22:21:03 2025 GMT
        Subject: CN=team552-server
        Subject Public Key Info:
            Public Key Algorithm: rsaEncryption
                RSA Public-Key: (2048 bit)
                Modulus:
                    00:a4:bd:0a:44:70:d0:4f:5e:22:3a:a6:0a:4d:f0:
                    49:03:b7:e9:95:17:ea:82:ed:73:b9:96:bb:0b:02:
                    03:1c:38:df:3e:76:22:c4:8e:65:c6:3d:b1:f1:d9:
                    41:61:14:e2:bd:5c:fc:86:6f:9a:bf:cc:25:d0:3e:
                    ea:0a:47:fb:a2:05:0f:09:25:33:c8:f9:ab:87:14:
                    83:a3:2a:c1:9c:e4:5b:79:48:44:12:35:4b:49:76:
                    9e:e5:be:67:c1:cb:e1:4a:26:f4:2c:a3:f0:6c:2c:
                    a0:06:77:cd:ac:41:f0:32:b8:b5:92:87:e3:78:3e:
                    e2:13:7d:cc:cc:a9:cb:c5:29:e1:65:4c:49:f2:c7:
                    a8:20:a0:18:28:f8:66:3b:a4:83:e7:94:d5:f1:aa:
                    8b:dd:72:c0:73:76:ef:84:31:7a:c5:d3:02:4d:d1:
                    46:a5:77:a8:74:03:e7:36:a5:f3:1c:a0:bc:ae:e7:
                    1a:4f:3a:d0:9c:35:b3:2a:a9:da:3d:9d:46:a1:42:
                    c4:2a:32:38:c4:1a:f4:8d:59:c8:06:c4:19:17:88:
                    3c:dd:d6:90:e2:dc:38:7b:d2:47:9b:9b:55:d2:88:
                    f1:d7:1d:aa:33:c3:b3:20:7a:71:a5:08:14:ce:93:
                    22:49:31:db:f6:a7:cc:6e:c4:cd:e4:c5:ee:2d:04:
                    e2:41
                Exponent: 65537 (0x10001)
        X509v3 extensions:
            X509v3 Basic Constraints: 
                CA:FALSE
            X509v3 Subject Key Identifier: 
                06:84:2D:63:F0:49:6E:11:60:EA:9C:79:ED:90:CA:6F:29:D4:58:3A
            X509v3 Authority Key Identifier: 
                keyid:6C:59:A5:07:C7:AD:93:A1:8A:A6:4B:F1:AB:78:0E:1E:91:2D:C5:B1
                DirName:/CN=team552-net
                serial:51:1A:AE:12:D1:DE:8B:01:86:7F:A1:1C:5B:EF:54:4D:89:5B:39:A5

            X509v3 Extended Key Usage: 
                TLS Web Server Authentication
            X509v3 Key Usage: 
                Digital Signature, Key Encipherment
            X509v3 Subject Alternative Name: 
                DNS:team552-server
    Signature Algorithm: sha256WithRSAEncryption
         7a:3b:98:56:59:0e:4e:c0:61:27:ea:45:66:6a:15:4a:d1:9c:
         d2:43:8e:c4:39:d4:2d:f0:0f:b2:4a:a4:9f:73:3b:32:14:51:
         bf:1c:74:25:ff:f7:d6:4c:a9:45:b9:84:e5:46:e1:79:c8:19:
         6b:e8:b9:c0:2f:2e:9a:10:1c:e9:5e:10:17:4f:f7:17:d5:ff:
         88:87:19:62:88:66:eb:e2:2e:5b:95:fe:23:dd:d4:45:57:38:
         52:c2:d5:8d:fd:3f:78:8e:e6:59:da:97:5b:54:a5:dd:77:07:
         24:4f:78:78:5f:2e:e2:5a:0c:fb:55:4e:59:91:e0:f8:ce:e9:
         cd:96:66:9c:c5:c1:fb:ce:96:b7:7e:d0:f1:7b:22:8c:8a:cd:
         3c:c8:1e:c9:ac:49:47:40:32:35:28:fe:94:5f:5a:cc:dc:7e:
         5c:ee:b1:c3:83:c7:07:10:7d:a4:f2:23:a1:2b:28:84:a5:3e:
         de:2d:de:1e:c2:a7:a4:97:88:6d:03:8c:0c:48:e7:0e:f4:c4:
         59:09:7f:5d:9e:7b:04:c7:3a:24:8f:4e:63:0d:d3:45:f1:e9:
         21:06:c6:59:81:3d:1f:48:c5:2e:f3:37:12:85:b6:4b:cd:03:
         4a:0d:90:eb:da:ec:a4:f6:b6:80:43:b9:c8:5b:44:4b:60:a7:
         13:b8:69:e5
-----BEGIN CERTIFICATE-----
MIIDdzCCAl+gAwIBAgIQN07LafsyP5BdVQVqoBwwmzANBgkqhkiG9w0BAQsFADAW
MRQwEgYDVQQDDAt0ZWFtNTUyLW5ldDAeFw0yMjA1MTgyMjIxMDNaFw0yNTA1MDIy
MjIxMDNaMBkxFzAVBgNVBAMMDnRlYW01NTItc2VydmVyMIIBIjANBgkqhkiG9w0B
AQEFAAOCAQ8AMIIBCgKCAQEApL0KRHDQT14iOqYKTfBJA7fplRfqgu1zuZa7CwID
HDjfPnYixI5lxj2x8dlBYRTivVz8hm+av8wl0D7qCkf7ogUPCSUzyPmrhxSDoyrB
nORbeUhEEjVLSXae5b5nwcvhSib0LKPwbCygBnfNrEHwMri1kofjeD7iE33MzKnL
xSnhZUxJ8seoIKAYKPhmO6SD55TV8aqL3XLAc3bvhDF6xdMCTdFGpXeodAPnNqXz
HKC8rucaTzrQnDWzKqnaPZ1GoULEKjI4xBr0jVnIBsQZF4g83daQ4tw4e9JHm5tV
0ojx1x2qM8OzIHpxpQgUzpMiSTHb9qfMbsTN5MXuLQTiQQIDAQABo4G9MIG6MAkG
A1UdEwQCMAAwHQYDVR0OBBYEFAaELWPwSW4RYOqcee2Qym8p1Fg6MFEGA1UdIwRK
MEiAFGxZpQfHrZOhiqZL8at4Dh6RLcWxoRqkGDAWMRQwEgYDVQQDDAt0ZWFtNTUy
LW5ldIIUURquEtHeiwGGf6EcW+9UTYlbOaUwEwYDVR0lBAwwCgYIKwYBBQUHAwEw
CwYDVR0PBAQDAgWgMBkGA1UdEQQSMBCCDnRlYW01NTItc2VydmVyMA0GCSqGSIb3
DQEBCwUAA4IBAQB6O5hWWQ5OwGEn6kVmahVK0ZzSQ47EOdQt8A+ySqSfczsyFFG/
HHQl//fWTKlFuYTlRuF5yBlr6LnALy6aEBzpXhAXT/cX1f+IhxliiGbr4i5blf4j
3dRFVzhSwtWN/T94juZZ2pdbVKXddwckT3h4Xy7iWgz7VU5ZkeD4zunNlmacxcH7
zpa3ftDxeyKMis08yB7JrElHQDI1KP6UX1rM3H5c7rHDg8cHEH2k8iOhKyiEpT7e
Ld4ewqekl4htA4wMSOcO9MRZCX9dnnsExzokj05jDdNF8ekhBsZZgT0fSMUu8zcS
hbZLzQNKDZDr2uyk9raAQ7nIW0RLYKcTuGnl
-----END CERTIFICATE-----
