Certificate:
    Data:
        Version: 3 (0x2)
        Serial Number:
            2e:49:8f:f3:5f:de:1f:7d:f3:d1:5f:d3:c6:65:9a:a7
        Signature Algorithm: sha256WithRSAEncryption
        Issuer: CN=team429-net
        Validity
            Not Before: May 18 21:13:19 2022 GMT
            Not After : May  2 21:13:19 2025 GMT
        Subject: CN=team429-client
        Subject Public Key Info:
            Public Key Algorithm: rsaEncryption
                RSA Public-Key: (2048 bit)
                Modulus:
                    00:ef:5b:8f:05:c3:2d:51:d0:0c:13:6b:a3:e1:d2:
                    fb:14:a0:fa:e0:44:94:dd:c6:94:85:5b:f6:8d:c3:
                    53:d9:7e:14:b0:e3:df:83:51:c3:31:a4:ad:db:df:
                    9f:32:a0:8e:a9:c9:ff:6f:4f:85:c2:9c:bb:83:7e:
                    aa:25:ad:d0:69:4d:37:09:06:54:ec:e9:ee:88:00:
                    75:6c:a7:fb:53:2c:48:55:36:0d:0e:e3:4a:c8:8b:
                    56:82:c0:a2:87:dd:88:fa:00:b0:11:43:30:e1:98:
                    04:49:34:a1:5f:bd:51:a5:b1:ca:c1:a2:c3:b8:6a:
                    94:8f:a9:91:de:71:b6:ac:59:8f:cf:a9:31:9a:48:
                    a9:4b:28:c6:a1:a0:d9:c5:ad:c9:b2:c9:32:d1:d5:
                    82:78:14:08:20:64:ac:7c:88:f4:9e:b0:37:5f:16:
                    2d:2c:0d:f9:ad:8d:d9:ef:37:15:c0:09:0d:2b:20:
                    59:99:d3:12:c4:61:8e:e0:22:c7:02:ab:a5:38:e7:
                    38:e3:10:4b:b6:8e:75:3b:c1:32:62:6a:7d:97:e8:
                    06:57:e9:09:1c:9a:4e:ab:24:c4:9e:4a:7d:60:b9:
                    5c:54:94:17:24:62:82:1d:12:4a:02:85:fd:f2:bf:
                    48:f8:31:61:dc:c7:61:6b:3d:4c:dc:c2:6c:e4:c8:
                    06:5b
                Exponent: 65537 (0x10001)
        X509v3 extensions:
            X509v3 Basic Constraints: 
                CA:FALSE
            X509v3 Subject Key Identifier: 
                8D:A7:37:E9:C2:07:98:D0:13:61:4C:B2:20:47:8D:1B:76:95:27:F8
            X509v3 Authority Key Identifier: 
                keyid:CE:D4:9A:CA:B5:5A:6B:F2:00:3D:75:B3:00:0E:92:5A:AE:34:AD:31
                DirName:/CN=team429-net
                serial:5A:DB:90:E5:25:BC:15:7F:E4:CD:5A:83:EA:D5:56:2B:C2:AE:28:8C

            X509v3 Extended Key Usage: 
                TLS Web Client Authentication
            X509v3 Key Usage: 
                Digital Signature
    Signature Algorithm: sha256WithRSAEncryption
         1d:bb:04:23:9f:15:0e:85:00:1d:2f:bc:ee:1d:34:ad:5c:ed:
         95:fb:43:5e:a5:41:67:0b:03:0b:1f:c6:25:03:6f:8d:42:44:
         ef:0d:c7:ad:ae:5c:2a:8a:49:ca:e5:32:bc:d1:ee:c6:3d:ac:
         42:74:fb:98:cb:3e:93:d0:7c:52:33:02:ea:3c:f3:0d:e8:65:
         4e:e9:d8:27:2a:d1:d6:ce:37:d1:2c:81:5b:ef:82:27:e8:39:
         e1:49:cb:4f:79:40:8a:31:a6:45:7e:92:af:5a:17:e1:1d:6e:
         da:63:85:fb:56:a0:f3:41:06:4d:ba:d1:ea:e9:9a:3e:3d:f0:
         ed:5f:39:29:02:86:60:34:4d:dd:72:c5:43:f7:e5:2f:7f:a0:
         90:01:9e:52:8c:91:cc:73:19:37:c6:cb:35:6e:c9:e1:43:ed:
         a4:8c:7a:98:1a:2b:69:08:cf:57:ab:88:9b:7b:1e:c2:54:b6:
         82:8e:4b:32:50:56:71:85:19:29:21:3b:a4:b9:62:53:4e:8e:
         b4:38:8a:df:b4:40:98:6b:ee:ab:10:74:38:d8:e0:d9:ed:6c:
         ae:cc:89:2f:f8:bd:dc:92:6a:7b:00:4d:9e:1c:b4:bc:8f:e5:
         79:6d:10:0b:c4:9c:dc:cb:fe:38:ec:9b:ad:fb:b0:8d:8d:fd:
         23:c5:e9:d3
-----BEGIN CERTIFICATE-----
MIIDXDCCAkSgAwIBAgIQLkmP81/eH33z0V/TxmWapzANBgkqhkiG9w0BAQsFADAW
MRQwEgYDVQQDDAt0ZWFtNDI5LW5ldDAeFw0yMjA1MTgyMTEzMTlaFw0yNTA1MDIy
MTEzMTlaMBkxFzAVBgNVBAMMDnRlYW00MjktY2xpZW50MIIBIjANBgkqhkiG9w0B
AQEFAAOCAQ8AMIIBCgKCAQEA71uPBcMtUdAME2uj4dL7FKD64ESU3caUhVv2jcNT
2X4UsOPfg1HDMaSt29+fMqCOqcn/b0+Fwpy7g36qJa3QaU03CQZU7OnuiAB1bKf7
UyxIVTYNDuNKyItWgsCih92I+gCwEUMw4ZgESTShX71RpbHKwaLDuGqUj6mR3nG2
rFmPz6kxmkipSyjGoaDZxa3Jssky0dWCeBQIIGSsfIj0nrA3XxYtLA35rY3Z7zcV
wAkNKyBZmdMSxGGO4CLHAqulOOc44xBLto51O8EyYmp9l+gGV+kJHJpOqyTEnkp9
YLlcVJQXJGKCHRJKAoX98r9I+DFh3Mdhaz1M3MJs5MgGWwIDAQABo4GiMIGfMAkG
A1UdEwQCMAAwHQYDVR0OBBYEFI2nN+nCB5jQE2FMsiBHjRt2lSf4MFEGA1UdIwRK
MEiAFM7Umsq1WmvyAD11swAOklquNK0xoRqkGDAWMRQwEgYDVQQDDAt0ZWFtNDI5
LW5ldIIUWtuQ5SW8FX/kzVqD6tVWK8KuKIwwEwYDVR0lBAwwCgYIKwYBBQUHAwIw
CwYDVR0PBAQDAgeAMA0GCSqGSIb3DQEBCwUAA4IBAQAduwQjnxUOhQAdL7zuHTSt
XO2V+0NepUFnCwMLH8YlA2+NQkTvDcetrlwqiknK5TK80e7GPaxCdPuYyz6T0HxS
MwLqPPMN6GVO6dgnKtHWzjfRLIFb74In6DnhSctPeUCKMaZFfpKvWhfhHW7aY4X7
VqDzQQZNutHq6Zo+PfDtXzkpAoZgNE3dcsVD9+Uvf6CQAZ5SjJHMcxk3xss1bsnh
Q+2kjHqYGitpCM9Xq4ibex7CVLaCjksyUFZxhRkpITukuWJTTo60OIrftECYa+6r
EHQ42ODZ7WyuzIkv+L3ckmp7AE2eHLS8j+V5bRALxJzcy/447Jut+7CNjf0jxenT
-----END CERTIFICATE-----
