Certificate:
    Data:
        Version: 3 (0x2)
        Serial Number:
            e1:f8:da:86:6a:94:2e:90:03:1a:45:bf:9f:92:5a:5f
        Signature Algorithm: sha256WithRSAEncryption
        Issuer: CN=team429-net
        Validity
            Not Before: May 18 21:13:19 2022 GMT
            Not After : May  2 21:13:19 2025 GMT
        Subject: CN=team429-server
        Subject Public Key Info:
            Public Key Algorithm: rsaEncryption
                RSA Public-Key: (2048 bit)
                Modulus:
                    00:c2:6e:3e:d6:cf:9f:bb:0e:7e:49:fb:e2:d4:3b:
                    63:df:56:04:4b:a1:8d:3c:c1:ee:cc:ac:51:7f:ef:
                    a3:ec:1c:68:04:3d:d5:c0:15:ae:f2:e2:95:d8:aa:
                    f6:eb:8b:54:97:81:82:49:bb:ee:13:f0:6c:78:f6:
                    43:87:4d:07:bc:7c:2f:d7:a0:5c:d2:d9:e5:58:f7:
                    1f:7b:03:32:38:ac:6f:30:ca:e0:e4:a5:7c:f5:1b:
                    7d:6c:0d:e4:75:3b:41:e5:16:47:a6:ae:f3:6b:29:
                    6a:bc:31:f9:32:78:69:58:14:c0:83:c5:6b:34:13:
                    13:3e:79:21:7f:76:8e:af:4d:2a:99:55:2b:0f:ef:
                    31:d5:4f:93:19:22:fa:24:96:a3:1f:34:00:0b:31:
                    08:ea:66:a8:a8:24:cc:28:a0:87:55:bc:3f:a4:78:
                    80:7b:94:8e:fc:e8:fe:f7:58:3e:53:ed:e2:b4:dd:
                    f5:c4:49:33:38:2f:ef:21:c5:3e:33:bc:7e:35:ab:
                    c1:ea:0a:b6:0f:3e:37:c5:18:64:f5:d1:d9:e2:5d:
                    a0:2a:21:1a:db:e3:6b:7f:76:58:5e:9f:a2:9f:66:
                    3a:3d:56:48:79:e2:ba:ae:35:44:04:11:2f:ab:d9:
                    71:c6:c7:0c:f7:4e:4e:46:cf:94:4f:9d:a3:17:0d:
                    4d:df
                Exponent: 65537 (0x10001)
        X509v3 extensions:
            X509v3 Basic Constraints: 
                CA:FALSE
            X509v3 Subject Key Identifier: 
                FC:93:E0:DF:FC:92:54:6A:3F:A2:60:29:C9:A7:EF:51:CA:8F:BF:8D
            X509v3 Authority Key Identifier: 
                keyid:CE:D4:9A:CA:B5:5A:6B:F2:00:3D:75:B3:00:0E:92:5A:AE:34:AD:31
                DirName:/CN=team429-net
                serial:5A:DB:90:E5:25:BC:15:7F:E4:CD:5A:83:EA:D5:56:2B:C2:AE:28:8C

            X509v3 Extended Key Usage: 
                TLS Web Server Authentication
            X509v3 Key Usage: 
                Digital Signature, Key Encipherment
            X509v3 Subject Alternative Name: 
                DNS:team429-server
    Signature Algorithm: sha256WithRSAEncryption
         9a:08:27:f5:b2:e2:57:ec:21:51:21:ff:8a:7f:37:9e:eb:bd:
         9a:8f:97:ea:5c:95:1d:9d:05:be:37:31:51:d9:99:23:5a:a2:
         81:d0:9a:15:52:e0:2e:be:a4:4d:5f:53:e6:32:4b:12:9a:74:
         24:f7:28:26:8c:89:46:ba:dc:d7:fe:06:95:b9:34:6f:37:89:
         88:6b:09:85:3e:c1:9f:c5:df:e4:85:57:67:06:a0:90:d8:81:
         b2:6c:4d:39:1c:ca:5f:a9:f1:f9:5f:a6:13:ab:16:3b:72:e0:
         71:bd:74:24:5e:88:b3:13:14:68:60:d1:c1:ea:4a:f0:b1:99:
         e1:5f:17:1c:ab:1c:80:7e:8d:80:33:79:69:66:e4:b7:4c:f3:
         92:7f:09:dc:ac:22:81:60:9a:fd:98:71:ba:0c:59:15:84:1e:
         e5:6b:82:57:51:e0:74:82:59:14:a1:9d:04:13:14:da:68:bf:
         c2:24:42:35:c4:ed:e8:3e:6a:56:81:41:d2:cc:a8:08:d8:cb:
         8f:65:e8:8f:7e:61:72:85:74:70:9b:57:60:a1:b5:58:82:25:
         14:0a:92:bb:70:1a:85:65:34:cd:b4:c4:d4:db:08:1c:a9:f6:
         f3:e3:55:f3:ee:27:41:81:23:b4:c8:41:81:92:fb:7f:8c:31:
         fc:bc:cd:b4
-----BEGIN CERTIFICATE-----
MIIDeDCCAmCgAwIBAgIRAOH42oZqlC6QAxpFv5+SWl8wDQYJKoZIhvcNAQELBQAw
FjEUMBIGA1UEAwwLdGVhbTQyOS1uZXQwHhcNMjIwNTE4MjExMzE5WhcNMjUwNTAy
MjExMzE5WjAZMRcwFQYDVQQDDA50ZWFtNDI5LXNlcnZlcjCCASIwDQYJKoZIhvcN
AQEBBQADggEPADCCAQoCggEBAMJuPtbPn7sOfkn74tQ7Y99WBEuhjTzB7sysUX/v
o+wcaAQ91cAVrvLildiq9uuLVJeBgkm77hPwbHj2Q4dNB7x8L9egXNLZ5Vj3H3sD
MjisbzDK4OSlfPUbfWwN5HU7QeUWR6au82sparwx+TJ4aVgUwIPFazQTEz55IX92
jq9NKplVKw/vMdVPkxki+iSWox80AAsxCOpmqKgkzCigh1W8P6R4gHuUjvzo/vdY
PlPt4rTd9cRJMzgv7yHFPjO8fjWrweoKtg8+N8UYZPXR2eJdoCohGtvja392WF6f
op9mOj1WSHniuq41RAQRL6vZccbHDPdOTkbPlE+doxcNTd8CAwEAAaOBvTCBujAJ
BgNVHRMEAjAAMB0GA1UdDgQWBBT8k+Df/JJUaj+iYCnJp+9Ryo+/jTBRBgNVHSME
SjBIgBTO1JrKtVpr8gA9dbMADpJarjStMaEapBgwFjEUMBIGA1UEAwwLdGVhbTQy
OS1uZXSCFFrbkOUlvBV/5M1ag+rVVivCriiMMBMGA1UdJQQMMAoGCCsGAQUFBwMB
MAsGA1UdDwQEAwIFoDAZBgNVHREEEjAQgg50ZWFtNDI5LXNlcnZlcjANBgkqhkiG
9w0BAQsFAAOCAQEAmggn9bLiV+whUSH/in83nuu9mo+X6lyVHZ0FvjcxUdmZI1qi
gdCaFVLgLr6kTV9T5jJLEpp0JPcoJoyJRrrc1/4Glbk0bzeJiGsJhT7Bn8Xf5IVX
ZwagkNiBsmxNORzKX6nx+V+mE6sWO3Lgcb10JF6IsxMUaGDRwepK8LGZ4V8XHKsc
gH6NgDN5aWbkt0zzkn8J3KwigWCa/ZhxugxZFYQe5WuCV1HgdIJZFKGdBBMU2mi/
wiRCNcTt6D5qVoFB0syoCNjLj2Xoj35hcoV0cJtXYKG1WIIlFAqSu3AahWU0zbTE
1NsIHKn28+NV8+4nQYEjtMhBgZL7f4wx/LzNtA==
-----END CERTIFICATE-----
