Certificate:
    Data:
        Version: 3 (0x2)
        Serial Number:
            a8:2b:ab:65:bf:69:c2:73:73:74:22:e9:7a:4b:04:e8
        Signature Algorithm: sha256WithRSAEncryption
        Issuer: CN=team60-net
        Validity
            Not Before: May 18 14:25:28 2022 GMT
            Not After : May  2 14:25:28 2025 GMT
        Subject: CN=team60-server
        Subject Public Key Info:
            Public Key Algorithm: rsaEncryption
                RSA Public-Key: (2048 bit)
                Modulus:
                    00:cc:08:36:f9:1b:46:cf:83:5e:cc:44:6f:b2:d6:
                    4b:6c:5c:14:c9:61:60:08:dc:98:87:71:f3:3f:7e:
                    08:c8:73:5a:cd:80:29:f4:7b:c8:f2:0b:db:fe:6c:
                    0e:13:e2:89:e3:9d:8f:d9:71:e6:cb:36:58:ac:5a:
                    c4:14:12:76:5c:c1:45:2a:b4:63:95:c0:56:2a:08:
                    6e:38:de:fc:1c:f2:45:d5:76:cb:4d:c8:65:cd:ee:
                    f3:61:ff:cc:f6:f1:62:1b:1e:14:79:91:37:cd:9a:
                    f7:5f:cd:de:b6:79:ad:46:2d:57:3c:93:1f:df:2c:
                    1a:38:3d:2f:49:9c:06:28:f8:c5:97:5c:63:11:db:
                    cc:00:1b:ce:32:76:0a:2c:04:d0:06:a8:2c:5d:be:
                    35:cd:70:bb:1d:3c:40:a3:e7:58:30:84:9d:55:c9:
                    3d:73:b1:33:19:f2:8f:2c:14:6a:06:ea:4b:d6:db:
                    4e:e0:79:a7:9c:08:c6:e8:a9:3a:19:b1:00:6a:a1:
                    c9:44:dc:f9:3f:bd:a9:c6:26:50:3a:03:97:cc:de:
                    e6:6c:7b:48:e1:e6:79:10:a3:3d:c4:07:be:e6:74:
                    36:6e:49:6e:39:b4:17:36:89:99:2e:6c:5a:b8:9b:
                    2d:d8:a9:78:5c:24:f4:8a:dd:65:a6:7d:b9:40:f7:
                    6a:7f
                Exponent: 65537 (0x10001)
        X509v3 extensions:
            X509v3 Basic Constraints: 
                CA:FALSE
            X509v3 Subject Key Identifier: 
                20:FF:37:9E:CC:10:E6:85:2B:F7:69:29:E2:7B:B2:FB:FA:CA:CA:C5
            X509v3 Authority Key Identifier: 
                keyid:90:32:2E:65:D1:2E:15:9C:CB:AD:B3:D6:84:65:A7:48:1F:AE:A1:FA
                DirName:/CN=team60-net
                serial:27:DE:5B:2A:74:AE:D8:20:B5:88:36:83:9A:EA:E5:CB:45:F9:C6:A1

            X509v3 Extended Key Usage: 
                TLS Web Server Authentication
            X509v3 Key Usage: 
                Digital Signature, Key Encipherment
            X509v3 Subject Alternative Name: 
                DNS:team60-server
    Signature Algorithm: sha256WithRSAEncryption
         17:b0:f8:ff:9a:68:ba:5b:ec:0b:f3:24:39:dc:12:f9:c9:f7:
         33:b2:71:48:af:0d:a8:79:2c:d7:88:84:8b:13:cb:69:e9:10:
         cf:3f:db:17:39:ed:c2:d0:79:80:b2:40:9c:8c:ef:7e:8c:af:
         5e:1e:b7:8a:29:3a:cc:79:ba:1d:92:0e:e3:3a:fb:de:56:ab:
         5c:98:fa:c5:8e:3c:f8:5d:4f:5f:fe:23:ee:a4:26:bb:1e:eb:
         2e:2c:6f:c0:bf:98:b7:05:b3:1e:6b:bc:4d:df:62:42:3f:51:
         c1:26:bc:3d:c7:4b:db:05:a4:97:16:14:85:dd:f6:a1:4e:d9:
         f6:61:cb:8c:4c:ad:d9:dc:72:2c:01:7b:e9:87:74:2d:cb:f8:
         50:cc:ef:6f:f0:69:63:27:fd:26:91:82:a7:d1:0f:a2:58:1d:
         29:e8:51:38:11:d2:20:33:e6:d7:36:5d:f7:ab:2d:02:09:03:
         11:02:3a:79:ad:b5:8a:68:96:f0:58:cc:3a:8e:21:60:d4:9c:
         58:71:3f:bd:d2:01:dd:2a:33:6c:de:d9:a7:77:23:94:65:96:
         ff:4d:b7:07:34:64:cd:b3:9e:01:2c:b1:41:c9:67:2a:a7:27:
         a8:a7:30:82:dd:69:b9:84:75:4e:24:38:29:36:0e:2b:6a:0a:
         12:61:9b:25
-----BEGIN CERTIFICATE-----
MIIDdDCCAlygAwIBAgIRAKgrq2W/acJzc3Qi6XpLBOgwDQYJKoZIhvcNAQELBQAw
FTETMBEGA1UEAwwKdGVhbTYwLW5ldDAeFw0yMjA1MTgxNDI1MjhaFw0yNTA1MDIx
NDI1MjhaMBgxFjAUBgNVBAMMDXRlYW02MC1zZXJ2ZXIwggEiMA0GCSqGSIb3DQEB
AQUAA4IBDwAwggEKAoIBAQDMCDb5G0bPg17MRG+y1ktsXBTJYWAI3JiHcfM/fgjI
c1rNgCn0e8jyC9v+bA4T4onjnY/ZcebLNlisWsQUEnZcwUUqtGOVwFYqCG443vwc
8kXVdstNyGXN7vNh/8z28WIbHhR5kTfNmvdfzd62ea1GLVc8kx/fLBo4PS9JnAYo
+MWXXGMR28wAG84ydgosBNAGqCxdvjXNcLsdPECj51gwhJ1VyT1zsTMZ8o8sFGoG
6kvW207geaecCMboqToZsQBqoclE3Pk/vanGJlA6A5fM3uZse0jh5nkQoz3EB77m
dDZuSW45tBc2iZkubFq4my3YqXhcJPSK3WWmfblA92p/AgMBAAGjgbswgbgwCQYD
VR0TBAIwADAdBgNVHQ4EFgQUIP83nswQ5oUr92kp4nuy+/rKysUwUAYDVR0jBEkw
R4AUkDIuZdEuFZzLrbPWhGWnSB+uofqhGaQXMBUxEzARBgNVBAMMCnRlYW02MC1u
ZXSCFCfeWyp0rtggtYg2g5rq5ctF+cahMBMGA1UdJQQMMAoGCCsGAQUFBwMBMAsG
A1UdDwQEAwIFoDAYBgNVHREEETAPgg10ZWFtNjAtc2VydmVyMA0GCSqGSIb3DQEB
CwUAA4IBAQAXsPj/mmi6W+wL8yQ53BL5yfczsnFIrw2oeSzXiISLE8tp6RDPP9sX
Oe3C0HmAskCcjO9+jK9eHreKKTrMebodkg7jOvveVqtcmPrFjjz4XU9f/iPupCa7
HusuLG/Av5i3BbMea7xN32JCP1HBJrw9x0vbBaSXFhSF3fahTtn2YcuMTK3Z3HIs
AXvph3Qty/hQzO9v8GljJ/0mkYKn0Q+iWB0p6FE4EdIgM+bXNl33qy0CCQMRAjp5
rbWKaJbwWMw6jiFg1JxYcT+90gHdKjNs3tmndyOUZZb/TbcHNGTNs54BLLFByWcq
pyeopzCC3Wm5hHVOJDgpNg4ragoSYZsl
-----END CERTIFICATE-----
