Certificate:
    Data:
        Version: 3 (0x2)
        Serial Number:
            8f:c7:4f:66:fe:59:dd:d0:e9:b5:70:c6:dc:14:95:16
        Signature Algorithm: sha256WithRSAEncryption
        Issuer: CN=team269-net
        Validity
            Not Before: May 18 19:46:57 2022 GMT
            Not After : May  2 19:46:57 2025 GMT
        Subject: CN=team269-client
        Subject Public Key Info:
            Public Key Algorithm: rsaEncryption
                RSA Public-Key: (2048 bit)
                Modulus:
                    00:c7:ba:e6:4a:31:8b:35:9f:32:46:50:10:4f:95:
                    60:81:ee:9f:74:98:f8:2c:63:be:f2:25:18:b2:a0:
                    35:dc:8b:65:bf:6d:c1:12:00:43:80:fd:43:e7:97:
                    ee:5b:a8:33:c1:b9:c9:a1:df:70:2f:ab:d5:69:e3:
                    c9:e5:13:1d:ee:47:7b:9d:c0:cc:c6:08:59:38:35:
                    d6:a2:0f:be:ae:00:9f:f9:fb:b1:69:b7:30:2a:2d:
                    5a:14:41:c6:cb:20:4c:a4:1b:b4:e8:5f:6a:09:5b:
                    29:43:05:ae:96:90:da:52:16:bd:70:74:49:29:5a:
                    f3:98:66:7d:d3:6e:8e:0a:69:7c:ab:32:e8:2f:85:
                    90:c5:68:98:c4:48:b9:88:ab:f9:1c:ff:02:91:3c:
                    f2:06:43:f9:90:12:9f:30:e5:77:1c:65:84:3d:39:
                    b7:8b:7e:a0:6c:0e:fb:35:a0:b9:e3:5f:c8:33:9a:
                    92:b8:ec:1e:f2:4b:62:ef:2e:cb:94:03:ce:18:c5:
                    27:45:b2:80:74:cb:91:e7:31:e8:02:eb:cf:cc:67:
                    a4:8c:7c:da:5d:cb:b0:d8:d0:0e:93:6b:3e:7e:57:
                    ce:8f:e5:5e:57:92:70:90:12:f4:65:70:a0:db:ff:
                    d8:7b:83:50:45:7f:b6:8a:f3:65:3f:2e:56:86:4d:
                    c8:2d
                Exponent: 65537 (0x10001)
        X509v3 extensions:
            X509v3 Basic Constraints: 
                CA:FALSE
            X509v3 Subject Key Identifier: 
                C4:C4:10:27:90:F8:1D:01:57:14:CA:41:C5:BE:DE:65:A9:F4:27:40
            X509v3 Authority Key Identifier: 
                keyid:85:34:F4:4C:18:B6:11:28:CA:B7:60:A6:8B:D7:0C:0D:C1:13:13:8C
                DirName:/CN=team269-net
                serial:37:C8:9D:CF:7A:FC:72:30:23:73:81:14:E5:27:8A:3A:F4:07:ED:4D

            X509v3 Extended Key Usage: 
                TLS Web Client Authentication
            X509v3 Key Usage: 
                Digital Signature
    Signature Algorithm: sha256WithRSAEncryption
         3c:cc:bc:c0:28:b5:ab:11:d2:49:5f:ac:7b:b4:80:16:fa:72:
         9f:d1:84:b0:2b:54:51:43:31:d5:ce:69:50:41:ab:39:6a:da:
         98:7d:e8:79:96:6a:d3:fc:16:c0:a4:58:61:30:e9:54:26:9c:
         68:b0:e8:88:b1:c8:51:8d:ec:c6:b3:23:84:16:a7:42:33:24:
         35:db:de:d8:20:a6:0e:c2:71:1e:32:b9:6f:7e:d8:a4:8e:14:
         35:a2:28:dc:3d:15:59:21:c3:d1:83:fd:d5:ec:5f:e2:e3:e6:
         81:da:ad:12:8f:0a:26:79:a7:af:d9:c0:f8:89:b3:fe:cd:09:
         ac:52:fe:98:3f:48:8d:5e:e2:17:25:37:74:f4:00:11:eb:86:
         1a:1f:39:cd:fd:a1:df:af:ef:17:97:a5:6d:d9:ac:c3:21:d6:
         1c:cb:d2:0e:e5:3d:59:62:7a:92:07:53:66:8f:10:09:e0:95:
         8d:0e:3a:a1:96:59:de:96:88:28:97:30:ef:2c:7b:c3:75:05:
         f7:51:ca:28:14:75:36:1d:d3:1e:c7:07:07:1b:30:ad:3c:d5:
         f0:9e:31:dc:00:6a:ee:92:7c:3c:02:24:72:74:7f:12:a4:d0:
         72:72:5f:9b:81:df:ab:42:47:80:ce:07:8c:52:c0:4d:60:9d:
         4b:b4:25:e6
-----BEGIN CERTIFICATE-----
MIIDXTCCAkWgAwIBAgIRAI/HT2b+Wd3Q6bVwxtwUlRYwDQYJKoZIhvcNAQELBQAw
FjEUMBIGA1UEAwwLdGVhbTI2OS1uZXQwHhcNMjIwNTE4MTk0NjU3WhcNMjUwNTAy
MTk0NjU3WjAZMRcwFQYDVQQDDA50ZWFtMjY5LWNsaWVudDCCASIwDQYJKoZIhvcN
AQEBBQADggEPADCCAQoCggEBAMe65koxizWfMkZQEE+VYIHun3SY+CxjvvIlGLKg
NdyLZb9twRIAQ4D9Q+eX7luoM8G5yaHfcC+r1WnjyeUTHe5He53AzMYIWTg11qIP
vq4An/n7sWm3MCotWhRBxssgTKQbtOhfaglbKUMFrpaQ2lIWvXB0SSla85hmfdNu
jgppfKsy6C+FkMVomMRIuYir+Rz/ApE88gZD+ZASnzDldxxlhD05t4t+oGwO+zWg
ueNfyDOakrjsHvJLYu8uy5QDzhjFJ0WygHTLkecx6ALrz8xnpIx82l3LsNjQDpNr
Pn5Xzo/lXleScJAS9GVwoNv/2HuDUEV/torzZT8uVoZNyC0CAwEAAaOBojCBnzAJ
BgNVHRMEAjAAMB0GA1UdDgQWBBTExBAnkPgdAVcUykHFvt5lqfQnQDBRBgNVHSME
SjBIgBSFNPRMGLYRKMq3YKaL1wwNwRMTjKEapBgwFjEUMBIGA1UEAwwLdGVhbTI2
OS1uZXSCFDfInc96/HIwI3OBFOUnijr0B+1NMBMGA1UdJQQMMAoGCCsGAQUFBwMC
MAsGA1UdDwQEAwIHgDANBgkqhkiG9w0BAQsFAAOCAQEAPMy8wCi1qxHSSV+se7SA
Fvpyn9GEsCtUUUMx1c5pUEGrOWramH3oeZZq0/wWwKRYYTDpVCacaLDoiLHIUY3s
xrMjhBanQjMkNdve2CCmDsJxHjK5b37YpI4UNaIo3D0VWSHD0YP91exf4uPmgdqt
Eo8KJnmnr9nA+Imz/s0JrFL+mD9IjV7iFyU3dPQAEeuGGh85zf2h36/vF5elbdms
wyHWHMvSDuU9WWJ6kgdTZo8QCeCVjQ46oZZZ3paIKJcw7yx7w3UF91HKKBR1Nh3T
HscHBxswrTzV8J4x3ABq7pJ8PAIkcnR/EqTQcnJfm4Hfq0JHgM4HjFLATWCdS7Ql
5g==
-----END CERTIFICATE-----
