Certificate:
    Data:
        Version: 3 (0x2)
        Serial Number:
            b4:03:55:c8:35:ad:bb:5d:d0:a3:98:ef:32:44:d4:4b
        Signature Algorithm: sha256WithRSAEncryption
        Issuer: CN=team637-net
        Validity
            Not Before: May 18 23:12:18 2022 GMT
            Not After : May  2 23:12:18 2025 GMT
        Subject: CN=team637-client
        Subject Public Key Info:
            Public Key Algorithm: rsaEncryption
                RSA Public-Key: (2048 bit)
                Modulus:
                    00:cf:e0:df:95:ab:62:c8:ad:49:91:65:12:de:de:
                    90:d6:20:0d:c5:a7:95:5c:e3:79:fa:60:56:50:07:
                    14:56:fd:e2:1c:25:47:86:d7:07:86:e0:9e:bf:89:
                    ed:ba:35:95:55:99:31:a5:68:88:fb:21:2c:64:9b:
                    3d:72:8c:d7:9d:79:41:d6:c3:c4:d0:2e:64:f4:14:
                    1d:d0:a9:df:a2:2b:1d:77:3f:00:7d:dc:5b:31:bb:
                    3f:96:6a:0f:2e:b2:37:e2:04:35:09:00:65:c3:83:
                    de:02:3d:fe:d6:8e:5d:c8:4a:d6:04:95:93:92:d0:
                    09:01:9d:5c:48:d3:ec:2f:8c:9d:a8:99:46:98:82:
                    6c:bb:14:69:3c:8e:e7:7f:fb:dc:70:0d:37:ab:67:
                    c0:05:92:f8:5c:17:1a:36:07:39:41:4f:54:61:4c:
                    14:b1:0f:83:50:f9:85:ab:f6:60:b6:3b:bc:26:7e:
                    07:c2:07:5a:20:39:6f:46:cb:e8:6e:01:7a:fb:66:
                    23:82:9e:be:19:e6:e3:23:36:b5:c4:4a:88:c3:67:
                    ae:f9:36:57:85:00:a1:98:2c:fa:3e:73:62:91:47:
                    dd:cb:54:a0:bc:63:ed:8f:a2:e8:a9:ae:ae:0f:9c:
                    cf:5a:d4:f1:db:28:8f:a7:b1:5a:e6:15:59:0c:33:
                    a1:ad
                Exponent: 65537 (0x10001)
        X509v3 extensions:
            X509v3 Basic Constraints: 
                CA:FALSE
            X509v3 Subject Key Identifier: 
                76:0B:46:FE:3C:8E:C2:15:33:B8:F0:62:4A:C0:D5:F5:A6:97:FA:58
            X509v3 Authority Key Identifier: 
                keyid:5A:82:5D:CD:61:88:C3:BE:1E:F9:7D:3C:18:58:85:2C:29:4D:FC:8C
                DirName:/CN=team637-net
                serial:79:B4:BC:5D:86:35:3C:B4:F8:F8:3B:1F:8B:72:C2:5E:D1:23:01:28

            X509v3 Extended Key Usage: 
                TLS Web Client Authentication
            X509v3 Key Usage: 
                Digital Signature
    Signature Algorithm: sha256WithRSAEncryption
         7f:32:14:96:64:7c:e8:18:2c:1b:ae:72:b9:ba:12:eb:e5:0d:
         35:c6:9d:96:07:4b:a8:dd:35:71:ea:33:8f:c6:47:50:33:44:
         f9:4f:e0:ae:3f:8b:90:24:3e:28:30:cf:66:37:e9:c8:79:64:
         80:da:70:9c:02:90:42:98:6c:25:f5:44:78:b8:74:67:9c:c7:
         a1:fc:b5:d0:98:c7:2d:1b:a0:f8:84:6a:a2:57:b3:0d:7c:c5:
         a9:4c:c7:a8:dc:92:03:cf:ec:83:f0:0b:88:34:1f:82:f8:4a:
         93:82:fb:9e:00:e3:99:27:bb:1f:36:0e:64:4a:4b:f8:c7:0e:
         58:3c:7f:d8:a9:8b:f1:05:1f:78:92:fb:bc:76:2c:68:f5:07:
         03:0a:be:fd:d3:41:ca:92:a8:5c:4d:4d:aa:12:60:09:a9:fa:
         51:d7:2e:88:34:72:4c:74:c1:13:a2:20:bf:f1:59:d4:ca:0d:
         ee:c7:06:59:01:7a:8f:33:5d:cb:8a:b8:66:99:b4:f8:81:64:
         bf:19:e2:0e:76:f4:95:be:5c:5f:d5:0f:04:ba:91:1e:c8:91:
         5f:3c:17:09:2b:3d:7d:42:9b:80:05:99:2b:97:d6:37:84:d8:
         a0:87:53:cf:da:b0:79:2f:60:17:a0:8b:a5:80:ef:64:42:40:
         90:4a:38:df
-----BEGIN CERTIFICATE-----
MIIDXTCCAkWgAwIBAgIRALQDVcg1rbtd0KOY7zJE1EswDQYJKoZIhvcNAQELBQAw
FjEUMBIGA1UEAwwLdGVhbTYzNy1uZXQwHhcNMjIwNTE4MjMxMjE4WhcNMjUwNTAy
MjMxMjE4WjAZMRcwFQYDVQQDDA50ZWFtNjM3LWNsaWVudDCCASIwDQYJKoZIhvcN
AQEBBQADggEPADCCAQoCggEBAM/g35WrYsitSZFlEt7ekNYgDcWnlVzjefpgVlAH
FFb94hwlR4bXB4bgnr+J7bo1lVWZMaVoiPshLGSbPXKM1515QdbDxNAuZPQUHdCp
36IrHXc/AH3cWzG7P5ZqDy6yN+IENQkAZcOD3gI9/taOXchK1gSVk5LQCQGdXEjT
7C+MnaiZRpiCbLsUaTyO53/73HANN6tnwAWS+FwXGjYHOUFPVGFMFLEPg1D5hav2
YLY7vCZ+B8IHWiA5b0bL6G4BevtmI4Kevhnm4yM2tcRKiMNnrvk2V4UAoZgs+j5z
YpFH3ctUoLxj7Y+i6Kmurg+cz1rU8dsoj6exWuYVWQwzoa0CAwEAAaOBojCBnzAJ
BgNVHRMEAjAAMB0GA1UdDgQWBBR2C0b+PI7CFTO48GJKwNX1ppf6WDBRBgNVHSME
SjBIgBRagl3NYYjDvh75fTwYWIUsKU38jKEapBgwFjEUMBIGA1UEAwwLdGVhbTYz
Ny1uZXSCFHm0vF2GNTy0+Pg7H4tywl7RIwEoMBMGA1UdJQQMMAoGCCsGAQUFBwMC
MAsGA1UdDwQEAwIHgDANBgkqhkiG9w0BAQsFAAOCAQEAfzIUlmR86BgsG65yuboS
6+UNNcadlgdLqN01ceozj8ZHUDNE+U/grj+LkCQ+KDDPZjfpyHlkgNpwnAKQQphs
JfVEeLh0Z5zHofy10JjHLRug+IRqolezDXzFqUzHqNySA8/sg/ALiDQfgvhKk4L7
ngDjmSe7HzYOZEpL+McOWDx/2KmL8QUfeJL7vHYsaPUHAwq+/dNBypKoXE1NqhJg
Can6UdcuiDRyTHTBE6Igv/FZ1MoN7scGWQF6jzNdy4q4Zpm0+IFkvxniDnb0lb5c
X9UPBLqRHsiRXzwXCSs9fUKbgAWZK5fWN4TYoIdTz9qweS9gF6CLpYDvZEJAkEo4
3w==
-----END CERTIFICATE-----
