Certificate:
    Data:
        Version: 3 (0x2)
        Serial Number:
            2f:f9:af:24:f8:a7:d4:39:da:69:07:fb:bf:ca:cc:e3
        Signature Algorithm: sha256WithRSAEncryption
        Issuer: CN=team393-net
        Validity
            Not Before: May 18 20:46:27 2022 GMT
            Not After : May  2 20:46:27 2025 GMT
        Subject: CN=team393-client
        Subject Public Key Info:
            Public Key Algorithm: rsaEncryption
                RSA Public-Key: (2048 bit)
                Modulus:
                    00:a5:73:7d:0c:57:76:ed:3d:34:c5:65:4a:28:2f:
                    bf:19:0f:62:ae:11:e0:18:fe:56:0b:85:41:23:1f:
                    af:a1:a9:6e:94:ab:2c:81:63:90:a6:83:2f:a3:99:
                    82:dd:d1:a6:6f:17:f6:41:c2:00:51:ad:79:4a:a7:
                    d8:d1:03:c0:cb:af:4d:41:1f:37:64:12:05:6d:5d:
                    32:c6:9c:b5:88:49:f0:f3:be:7d:6b:e9:f3:28:17:
                    a2:a1:bd:15:fc:41:23:c1:74:c5:45:53:7a:07:35:
                    74:83:13:30:3c:cb:c7:57:5c:f3:d9:cc:4a:86:78:
                    f5:31:24:2a:58:12:85:24:e9:e9:96:44:c7:74:d6:
                    65:5a:42:f6:8a:50:b5:6e:ae:f6:af:2a:16:97:3d:
                    89:60:ef:63:b3:a6:7c:9d:68:ee:5a:6a:17:6c:0c:
                    02:54:f5:c9:83:d5:0d:82:b9:13:10:0b:b5:0d:7e:
                    5f:53:83:14:95:e3:fd:05:7f:1e:89:8d:1c:e5:ec:
                    12:71:04:7c:af:ce:4d:1c:97:5f:9f:f5:bb:44:29:
                    a8:32:0d:c5:bc:39:f1:13:61:0c:0d:b2:5a:88:ac:
                    82:87:8f:f8:d5:ec:e8:e2:51:9f:75:f3:51:7d:f0:
                    c3:16:eb:2e:3c:5b:dd:58:74:b6:c7:ad:f2:96:bc:
                    fa:b9
                Exponent: 65537 (0x10001)
        X509v3 extensions:
            X509v3 Basic Constraints: 
                CA:FALSE
            X509v3 Subject Key Identifier: 
                2B:27:ED:F2:7F:12:E8:71:CE:0B:5C:39:30:F9:29:36:11:BA:7B:D1
            X509v3 Authority Key Identifier: 
                keyid:22:DF:42:81:E5:B6:B9:CE:09:94:92:9B:A0:5E:C3:95:E8:8C:93:58
                DirName:/CN=team393-net
                serial:03:D0:2F:0F:5A:2E:EB:94:54:67:26:46:CF:19:A0:07:ED:AC:F3:03

            X509v3 Extended Key Usage: 
                TLS Web Client Authentication
            X509v3 Key Usage: 
                Digital Signature
    Signature Algorithm: sha256WithRSAEncryption
         a6:de:06:fe:2f:dc:8b:e5:bc:68:60:84:44:70:75:21:e8:5c:
         9f:4d:cf:b4:70:83:26:53:00:f7:a6:f3:ea:58:2b:00:aa:ca:
         b7:8e:b5:47:3d:a2:e4:a6:06:48:b3:e6:29:69:b8:d2:97:3e:
         06:77:9e:b6:9b:13:81:38:71:b5:11:a7:92:d2:d5:89:90:98:
         01:55:01:ae:2c:6a:7c:c4:41:53:4f:82:4c:82:5c:96:3e:d1:
         f8:6d:b1:9e:13:36:ef:86:4c:60:80:67:a4:ee:97:16:66:b1:
         43:e2:6e:10:4d:a2:7e:fc:2b:9a:74:55:e7:49:89:1b:91:65:
         56:9e:d6:46:77:ce:b8:03:7e:65:33:03:13:d0:11:c5:98:15:
         a4:d5:a0:24:b4:7f:b7:ed:9f:f9:f8:9c:66:33:e5:15:94:50:
         bc:fc:4b:da:30:e5:05:2b:66:e3:52:43:6a:20:45:b0:79:7f:
         53:88:07:cf:0a:d3:d5:42:9a:2a:f6:8d:54:a0:b8:aa:c2:13:
         1b:0b:70:5b:fd:f1:da:6c:23:5f:54:da:ae:cc:ae:9f:70:c8:
         3a:4b:55:37:fd:8b:4a:1f:59:49:79:cc:46:cc:f9:d8:fe:b3:
         e4:2f:db:df:4c:20:a2:8c:81:c4:e3:7f:fa:5c:7f:27:80:03:
         70:58:85:7c
-----BEGIN CERTIFICATE-----
MIIDXDCCAkSgAwIBAgIQL/mvJPin1DnaaQf7v8rM4zANBgkqhkiG9w0BAQsFADAW
MRQwEgYDVQQDDAt0ZWFtMzkzLW5ldDAeFw0yMjA1MTgyMDQ2MjdaFw0yNTA1MDIy
MDQ2MjdaMBkxFzAVBgNVBAMMDnRlYW0zOTMtY2xpZW50MIIBIjANBgkqhkiG9w0B
AQEFAAOCAQ8AMIIBCgKCAQEApXN9DFd27T00xWVKKC+/GQ9irhHgGP5WC4VBIx+v
oalulKssgWOQpoMvo5mC3dGmbxf2QcIAUa15SqfY0QPAy69NQR83ZBIFbV0yxpy1
iEnw8759a+nzKBeiob0V/EEjwXTFRVN6BzV0gxMwPMvHV1zz2cxKhnj1MSQqWBKF
JOnplkTHdNZlWkL2ilC1bq72ryoWlz2JYO9js6Z8nWjuWmoXbAwCVPXJg9UNgrkT
EAu1DX5fU4MUleP9BX8eiY0c5ewScQR8r85NHJdfn/W7RCmoMg3FvDnxE2EMDbJa
iKyCh4/41ezo4lGfdfNRffDDFusuPFvdWHS2x63ylrz6uQIDAQABo4GiMIGfMAkG
A1UdEwQCMAAwHQYDVR0OBBYEFCsn7fJ/EuhxzgtcOTD5KTYRunvRMFEGA1UdIwRK
MEiAFCLfQoHltrnOCZSSm6Bew5XojJNYoRqkGDAWMRQwEgYDVQQDDAt0ZWFtMzkz
LW5ldIIUA9AvD1ou65RUZyZGzxmgB+2s8wMwEwYDVR0lBAwwCgYIKwYBBQUHAwIw
CwYDVR0PBAQDAgeAMA0GCSqGSIb3DQEBCwUAA4IBAQCm3gb+L9yL5bxoYIREcHUh
6FyfTc+0cIMmUwD3pvPqWCsAqsq3jrVHPaLkpgZIs+YpabjSlz4Gd562mxOBOHG1
EaeS0tWJkJgBVQGuLGp8xEFTT4JMglyWPtH4bbGeEzbvhkxggGek7pcWZrFD4m4Q
TaJ+/CuadFXnSYkbkWVWntZGd864A35lMwMT0BHFmBWk1aAktH+37Z/5+JxmM+UV
lFC8/EvaMOUFK2bjUkNqIEWweX9TiAfPCtPVQpoq9o1UoLiqwhMbC3Bb/fHabCNf
VNquzK6fcMg6S1U3/YtKH1lJecxGzPnY/rPkL9vfTCCijIHE43/6XH8ngANwWIV8
-----END CERTIFICATE-----
