Certificate:
    Data:
        Version: 3 (0x2)
        Serial Number:
            80:d3:01:14:8b:0b:8b:72:90:53:82:48:19:0d:38:61
        Signature Algorithm: sha256WithRSAEncryption
        Issuer: CN=team393-net
        Validity
            Not Before: May 18 20:46:27 2022 GMT
            Not After : May  2 20:46:27 2025 GMT
        Subject: CN=team393-server
        Subject Public Key Info:
            Public Key Algorithm: rsaEncryption
                RSA Public-Key: (2048 bit)
                Modulus:
                    00:ba:59:4d:54:13:c1:0d:1f:08:07:c2:b2:00:07:
                    09:4a:fe:b0:5b:c4:ed:eb:f7:60:b0:2c:28:74:70:
                    86:ec:6d:df:97:e4:9f:89:4e:c8:94:b8:53:94:ca:
                    41:20:fe:ef:8a:f4:08:fb:e8:2b:ea:14:63:bc:db:
                    7a:5b:b4:ed:0e:24:59:98:6e:95:f7:d0:f8:5e:72:
                    96:14:7d:43:1a:b2:35:d3:05:2b:e4:90:90:26:2a:
                    2a:47:77:4f:99:55:00:60:19:1f:c8:6f:d4:3c:46:
                    ab:96:47:53:f1:9c:7b:3b:c8:4d:05:95:8f:a6:66:
                    2d:63:bb:1e:c1:99:cd:72:9c:d9:35:33:be:d6:ed:
                    52:54:72:e6:5c:c7:dd:72:2c:ef:ff:27:8e:44:de:
                    9d:f0:40:32:e1:df:3d:80:27:ba:19:4b:45:9d:dc:
                    fb:b8:a2:f5:30:b0:f7:c8:12:f0:c9:d1:13:df:75:
                    5f:b8:98:b6:ab:24:5f:d0:79:d5:c5:c1:ae:d9:93:
                    8a:b0:1a:a1:57:a2:21:7e:a6:39:61:46:be:3c:92:
                    63:41:c1:54:cf:1e:73:d6:3e:6c:53:1d:ed:2a:56:
                    24:8a:fe:9b:b1:90:10:81:e7:bd:ee:f5:47:3f:dd:
                    8d:12:14:63:ac:a3:5d:6b:8f:7e:25:69:fc:18:d3:
                    24:fd
                Exponent: 65537 (0x10001)
        X509v3 extensions:
            X509v3 Basic Constraints: 
                CA:FALSE
            X509v3 Subject Key Identifier: 
                BE:D8:8F:BF:78:CC:6A:8C:65:3F:06:72:9F:7A:57:76:05:9D:60:B6
            X509v3 Authority Key Identifier: 
                keyid:22:DF:42:81:E5:B6:B9:CE:09:94:92:9B:A0:5E:C3:95:E8:8C:93:58
                DirName:/CN=team393-net
                serial:03:D0:2F:0F:5A:2E:EB:94:54:67:26:46:CF:19:A0:07:ED:AC:F3:03

            X509v3 Extended Key Usage: 
                TLS Web Server Authentication
            X509v3 Key Usage: 
                Digital Signature, Key Encipherment
            X509v3 Subject Alternative Name: 
                DNS:team393-server
    Signature Algorithm: sha256WithRSAEncryption
         67:49:74:6b:36:f3:3f:ba:1b:ab:45:82:8b:48:67:5c:d4:f2:
         0d:d5:d4:43:f3:ce:9b:d7:d8:99:ab:68:1d:21:54:5c:96:58:
         94:44:bb:e6:36:b2:23:61:78:f6:43:18:63:80:85:c1:f1:9e:
         cf:62:3f:6d:7b:9d:88:91:d8:53:99:4e:10:47:0d:ae:64:07:
         2c:72:cb:ff:09:50:e9:0d:38:23:59:30:a3:d0:87:38:12:5f:
         c0:87:cc:33:f5:91:f4:1d:ec:32:b7:d8:ba:2e:03:6f:a1:a8:
         45:91:f6:76:e8:19:d1:18:cf:98:79:c9:4a:83:1d:af:5e:b2:
         ad:b4:55:43:3c:9f:02:3b:18:3d:a6:62:0d:59:6e:99:3c:f3:
         84:5f:1a:5a:6d:8b:80:2b:af:0e:9c:f4:16:9a:25:0e:52:ad:
         10:0a:d7:d7:c9:fd:1a:61:57:07:b6:b5:2f:db:c1:00:3c:4e:
         aa:bf:83:3d:a8:bb:bc:56:3d:89:fc:3a:08:cb:6a:f4:33:fa:
         02:01:06:58:8d:60:b7:f4:3f:26:01:3e:53:2a:c7:47:9f:41:
         0a:22:44:82:d0:df:50:c9:6b:26:70:55:1b:b6:38:f8:03:eb:
         b8:ef:72:60:56:76:67:5b:8d:2c:d9:4c:74:b5:90:44:b1:99:
         21:b9:00:9a
-----BEGIN CERTIFICATE-----
MIIDeDCCAmCgAwIBAgIRAIDTARSLC4tykFOCSBkNOGEwDQYJKoZIhvcNAQELBQAw
FjEUMBIGA1UEAwwLdGVhbTM5My1uZXQwHhcNMjIwNTE4MjA0NjI3WhcNMjUwNTAy
MjA0NjI3WjAZMRcwFQYDVQQDDA50ZWFtMzkzLXNlcnZlcjCCASIwDQYJKoZIhvcN
AQEBBQADggEPADCCAQoCggEBALpZTVQTwQ0fCAfCsgAHCUr+sFvE7ev3YLAsKHRw
huxt35fkn4lOyJS4U5TKQSD+74r0CPvoK+oUY7zbelu07Q4kWZhulffQ+F5ylhR9
QxqyNdMFK+SQkCYqKkd3T5lVAGAZH8hv1DxGq5ZHU/GcezvITQWVj6ZmLWO7HsGZ
zXKc2TUzvtbtUlRy5lzH3XIs7/8njkTenfBAMuHfPYAnuhlLRZ3c+7ii9TCw98gS
8MnRE991X7iYtqskX9B51cXBrtmTirAaoVeiIX6mOWFGvjySY0HBVM8ec9Y+bFMd
7SpWJIr+m7GQEIHnve71Rz/djRIUY6yjXWuPfiVp/BjTJP0CAwEAAaOBvTCBujAJ
BgNVHRMEAjAAMB0GA1UdDgQWBBS+2I+/eMxqjGU/BnKfeld2BZ1gtjBRBgNVHSME
SjBIgBQi30KB5ba5zgmUkpugXsOV6IyTWKEapBgwFjEUMBIGA1UEAwwLdGVhbTM5
My1uZXSCFAPQLw9aLuuUVGcmRs8ZoAftrPMDMBMGA1UdJQQMMAoGCCsGAQUFBwMB
MAsGA1UdDwQEAwIFoDAZBgNVHREEEjAQgg50ZWFtMzkzLXNlcnZlcjANBgkqhkiG
9w0BAQsFAAOCAQEAZ0l0azbzP7obq0WCi0hnXNTyDdXUQ/POm9fYmatoHSFUXJZY
lES75jayI2F49kMYY4CFwfGez2I/bXudiJHYU5lOEEcNrmQHLHLL/wlQ6Q04I1kw
o9CHOBJfwIfMM/WR9B3sMrfYui4Db6GoRZH2dugZ0RjPmHnJSoMdr16yrbRVQzyf
AjsYPaZiDVlumTzzhF8aWm2LgCuvDpz0FpolDlKtEArX18n9GmFXB7a1L9vBADxO
qr+DPai7vFY9ifw6CMtq9DP6AgEGWI1gt/Q/JgE+UyrHR59BCiJEgtDfUMlrJnBV
G7Y4+APruO9yYFZ2Z1uNLNlMdLWQRLGZIbkAmg==
-----END CERTIFICATE-----
