Certificate:
    Data:
        Version: 3 (0x2)
        Serial Number:
            3e:46:04:01:6d:5d:a2:97:61:3a:b4:f3:5f:7d:6d:1d
        Signature Algorithm: sha256WithRSAEncryption
        Issuer: CN=team401-net
        Validity
            Not Before: May 18 21:01:47 2022 GMT
            Not After : May  2 21:01:47 2025 GMT
        Subject: CN=team401-client
        Subject Public Key Info:
            Public Key Algorithm: rsaEncryption
                RSA Public-Key: (2048 bit)
                Modulus:
                    00:d6:aa:16:ec:d7:9d:6e:2c:a1:93:47:05:fa:26:
                    0c:a2:04:52:a2:f0:22:58:55:2f:dd:8e:2a:02:8a:
                    77:9c:ad:1a:50:c2:38:fa:0b:8a:76:67:96:73:1a:
                    e9:94:c5:fc:15:66:c5:8f:17:46:69:25:f0:c9:21:
                    5c:a0:9d:a9:c4:3e:fa:4d:05:18:e8:0d:94:f6:b7:
                    4f:5d:06:d2:b7:37:7e:92:9f:b4:0d:ed:12:74:f7:
                    6b:96:f1:0d:a0:71:22:39:ce:17:58:ac:ab:99:ab:
                    e3:b9:b4:5c:aa:2e:9a:69:26:af:a4:7a:23:c8:98:
                    24:19:8a:7c:11:2e:04:c0:a6:c0:b6:c2:91:33:4b:
                    00:15:d7:c6:ff:90:f6:30:b6:b9:0d:10:c7:8c:fa:
                    68:69:a8:17:30:9b:5a:b7:80:fb:77:b4:66:35:38:
                    b6:12:36:eb:3a:e5:90:1b:f2:a4:95:94:27:e8:82:
                    bd:30:34:e1:5a:da:4d:da:c7:d2:b5:a6:57:fd:c6:
                    ca:97:14:02:0c:5a:22:ab:ff:ee:d8:8c:8b:6f:78:
                    ef:b9:75:65:9d:54:d7:27:f4:31:41:48:56:79:ce:
                    2c:f1:7c:cb:aa:20:50:ff:33:61:50:4e:25:38:0b:
                    0a:c0:b0:92:ed:33:12:0c:a5:35:65:dd:fe:9c:79:
                    68:e5
                Exponent: 65537 (0x10001)
        X509v3 extensions:
            X509v3 Basic Constraints: 
                CA:FALSE
            X509v3 Subject Key Identifier: 
                ED:22:4D:78:01:9C:A1:F8:D6:12:61:AF:3B:1E:73:7D:8D:3D:B5:BD
            X509v3 Authority Key Identifier: 
                keyid:93:44:F2:7E:DF:94:7C:44:DA:5E:7A:D8:0C:CE:AF:73:BE:59:89:AC
                DirName:/CN=team401-net
                serial:2B:AB:E6:D4:30:2D:23:A1:B2:06:8D:0D:0E:6A:56:02:F9:6A:9D:65

            X509v3 Extended Key Usage: 
                TLS Web Client Authentication
            X509v3 Key Usage: 
                Digital Signature
    Signature Algorithm: sha256WithRSAEncryption
         05:f6:34:d5:5f:6e:fc:88:fe:a3:55:db:74:a9:11:de:07:21:
         34:11:b5:54:20:3d:8b:e3:c2:fe:88:fd:24:4d:0c:27:fc:47:
         32:53:c3:25:08:da:e6:2d:65:88:ce:79:b3:2e:68:10:97:47:
         bc:99:f2:8e:4b:90:50:5b:45:34:33:d5:5f:6d:37:d2:8f:9b:
         f4:8e:75:ae:c1:ef:a4:e3:92:00:6d:0f:02:9b:75:08:90:42:
         0a:23:fc:0c:75:51:4f:68:ab:f6:2d:f7:1d:ab:fe:b2:63:cd:
         9d:02:7f:a8:e1:6b:da:c9:44:24:aa:1b:b4:24:82:aa:e3:8a:
         61:9b:3d:2a:0a:fc:e6:6a:14:19:71:77:c1:c7:6e:8a:6b:44:
         1f:e6:69:0c:e8:b1:00:e0:7d:b3:34:6d:55:34:f9:46:27:f3:
         a2:9f:ca:1a:3b:20:15:f3:5f:a0:1e:d9:57:7c:62:60:ec:61:
         08:60:e2:06:83:f9:b3:39:b8:50:79:f2:f4:d2:78:b6:5e:6e:
         e3:7b:89:33:c6:0c:71:98:0f:66:3f:3a:4d:0f:37:b5:a9:f8:
         00:d5:04:a1:bb:7b:81:99:d8:60:41:9c:ff:d2:fb:29:08:ec:
         65:66:4e:55:a6:28:c8:d0:c9:2c:b2:e9:13:3e:3d:7a:83:a4:
         c8:3a:1e:71
-----BEGIN CERTIFICATE-----
MIIDXDCCAkSgAwIBAgIQPkYEAW1dopdhOrTzX31tHTANBgkqhkiG9w0BAQsFADAW
MRQwEgYDVQQDDAt0ZWFtNDAxLW5ldDAeFw0yMjA1MTgyMTAxNDdaFw0yNTA1MDIy
MTAxNDdaMBkxFzAVBgNVBAMMDnRlYW00MDEtY2xpZW50MIIBIjANBgkqhkiG9w0B
AQEFAAOCAQ8AMIIBCgKCAQEA1qoW7Nedbiyhk0cF+iYMogRSovAiWFUv3Y4qAop3
nK0aUMI4+guKdmeWcxrplMX8FWbFjxdGaSXwySFcoJ2pxD76TQUY6A2U9rdPXQbS
tzd+kp+0De0SdPdrlvENoHEiOc4XWKyrmavjubRcqi6aaSavpHojyJgkGYp8ES4E
wKbAtsKRM0sAFdfG/5D2MLa5DRDHjPpoaagXMJtat4D7d7RmNTi2EjbrOuWQG/Kk
lZQn6IK9MDThWtpN2sfStaZX/cbKlxQCDFoiq//u2IyLb3jvuXVlnVTXJ/QxQUhW
ec4s8XzLqiBQ/zNhUE4lOAsKwLCS7TMSDKU1Zd3+nHlo5QIDAQABo4GiMIGfMAkG
A1UdEwQCMAAwHQYDVR0OBBYEFO0iTXgBnKH41hJhrzsec32NPbW9MFEGA1UdIwRK
MEiAFJNE8n7flHxE2l562AzOr3O+WYmsoRqkGDAWMRQwEgYDVQQDDAt0ZWFtNDAx
LW5ldIIUK6vm1DAtI6GyBo0NDmpWAvlqnWUwEwYDVR0lBAwwCgYIKwYBBQUHAwIw
CwYDVR0PBAQDAgeAMA0GCSqGSIb3DQEBCwUAA4IBAQAF9jTVX278iP6jVdt0qRHe
ByE0EbVUID2L48L+iP0kTQwn/EcyU8MlCNrmLWWIznmzLmgQl0e8mfKOS5BQW0U0
M9VfbTfSj5v0jnWuwe+k45IAbQ8Cm3UIkEIKI/wMdVFPaKv2Lfcdq/6yY82dAn+o
4WvayUQkqhu0JIKq44phmz0qCvzmahQZcXfBx26Ka0Qf5mkM6LEA4H2zNG1VNPlG
J/Oin8oaOyAV81+gHtlXfGJg7GEIYOIGg/mzObhQefL00ni2Xm7je4kzxgxxmA9m
PzpNDze1qfgA1QShu3uBmdhgQZz/0vspCOxlZk5VpijI0MkssukTPj16g6TIOh5x
-----END CERTIFICATE-----
