Certificate:
    Data:
        Version: 3 (0x2)
        Serial Number:
            65:76:c0:79:b2:af:bd:ef:4a:4b:46:68:59:48:21:a8
        Signature Algorithm: sha256WithRSAEncryption
        Issuer: CN=team639-net
        Validity
            Not Before: May 18 23:13:32 2022 GMT
            Not After : May  2 23:13:32 2025 GMT
        Subject: CN=team639-server
        Subject Public Key Info:
            Public Key Algorithm: rsaEncryption
                RSA Public-Key: (2048 bit)
                Modulus:
                    00:cc:4f:4c:46:04:bc:6a:e1:1a:e3:03:c6:45:98:
                    a1:82:76:97:8d:2e:51:61:64:dc:c7:3d:6f:f6:88:
                    75:cc:06:76:3d:b3:60:3a:78:44:23:db:9b:51:39:
                    53:69:79:25:5b:75:09:7e:e8:3a:42:11:78:21:9e:
                    73:b8:25:16:55:92:5c:52:c2:f7:8b:1d:fa:e0:92:
                    48:1a:89:38:e4:68:fd:3d:53:8f:f9:74:90:6e:9b:
                    93:a7:82:d4:20:96:75:02:17:e2:13:6d:2c:68:64:
                    2a:e7:51:7a:b1:f4:60:44:c7:7a:91:a6:2e:0a:c5:
                    2e:4b:f1:9e:8b:7e:54:31:ab:23:10:c2:c1:9f:f9:
                    f4:88:14:58:7e:0a:65:b8:bf:46:f6:ac:f3:15:08:
                    17:f8:48:75:5e:52:57:3d:bf:93:f6:59:c2:09:a6:
                    a0:a9:dd:43:db:d9:dd:28:9a:f3:e9:69:5a:8f:16:
                    84:57:6d:29:db:41:c4:72:0d:1f:fc:c6:89:dd:bf:
                    57:db:14:da:29:bb:06:8b:64:f8:b5:c8:49:a2:a6:
                    bc:a2:12:41:a7:d8:2d:cc:8e:0e:15:05:37:40:3c:
                    88:1e:80:4c:58:e5:07:b8:77:a8:ba:b4:fb:3f:42:
                    19:41:9c:75:7c:24:4c:a8:da:99:91:90:7a:ac:2a:
                    69:c7
                Exponent: 65537 (0x10001)
        X509v3 extensions:
            X509v3 Basic Constraints: 
                CA:FALSE
            X509v3 Subject Key Identifier: 
                E6:ED:98:CB:E9:6C:92:42:D3:1A:F2:BD:BD:C3:1F:2B:E9:3A:11:F4
            X509v3 Authority Key Identifier: 
                keyid:A3:C4:FF:B6:67:CF:A7:55:A1:00:42:97:BF:CD:1F:14:E5:DF:D2:05
                DirName:/CN=team639-net
                serial:21:E8:7F:22:46:D5:AE:BF:3E:62:7A:8D:AB:68:D5:C0:51:4A:C9:D2

            X509v3 Extended Key Usage: 
                TLS Web Server Authentication
            X509v3 Key Usage: 
                Digital Signature, Key Encipherment
            X509v3 Subject Alternative Name: 
                DNS:team639-server
    Signature Algorithm: sha256WithRSAEncryption
         ad:a1:c9:d2:72:82:5c:98:5f:05:42:06:71:a5:f7:41:53:bb:
         ad:86:ad:d0:63:ba:6e:ba:e2:3e:9d:29:23:30:26:7f:43:a1:
         3a:87:24:23:d3:09:d8:2e:2d:80:1b:38:8a:33:00:e9:c9:1f:
         76:55:18:e1:e5:fe:ae:ad:df:89:0b:f2:f9:c4:06:fd:52:d4:
         14:1a:0f:11:9c:0e:9f:de:94:c2:41:9d:cb:18:ad:b6:4e:70:
         5a:54:d8:b0:81:aa:7a:df:35:aa:91:b6:e7:dd:96:95:d7:34:
         74:d9:12:65:cc:17:8f:cc:83:33:cf:16:e1:9e:c7:4d:2d:27:
         30:b6:ec:bc:80:46:5f:fa:72:cc:58:11:95:bd:bb:f6:66:d5:
         16:0e:09:da:7a:8e:bd:15:09:e8:63:75:3b:62:f6:a2:e8:64:
         5c:e1:2f:df:22:56:3c:03:9b:17:cf:d0:f4:7a:2f:53:0d:9b:
         88:d9:65:25:05:8a:dd:90:e3:aa:fc:8b:54:eb:98:41:d2:aa:
         ae:99:04:69:05:28:a0:cc:ce:bc:25:72:4e:44:77:99:78:52:
         cd:44:f0:80:0e:d8:b6:da:9c:39:d5:47:57:3d:15:5b:d6:63:
         20:03:f8:95:34:6b:45:5b:71:25:de:4c:d7:5c:b7:27:4c:f1:
         c8:f3:bd:f9
-----BEGIN CERTIFICATE-----
MIIDdzCCAl+gAwIBAgIQZXbAebKvve9KS0ZoWUghqDANBgkqhkiG9w0BAQsFADAW
MRQwEgYDVQQDDAt0ZWFtNjM5LW5ldDAeFw0yMjA1MTgyMzEzMzJaFw0yNTA1MDIy
MzEzMzJaMBkxFzAVBgNVBAMMDnRlYW02Mzktc2VydmVyMIIBIjANBgkqhkiG9w0B
AQEFAAOCAQ8AMIIBCgKCAQEAzE9MRgS8auEa4wPGRZihgnaXjS5RYWTcxz1v9oh1
zAZ2PbNgOnhEI9ubUTlTaXklW3UJfug6QhF4IZ5zuCUWVZJcUsL3ix364JJIGok4
5Gj9PVOP+XSQbpuTp4LUIJZ1AhfiE20saGQq51F6sfRgRMd6kaYuCsUuS/Gei35U
MasjEMLBn/n0iBRYfgpluL9G9qzzFQgX+Eh1XlJXPb+T9lnCCaagqd1D29ndKJrz
6WlajxaEV20p20HEcg0f/MaJ3b9X2xTaKbsGi2T4tchJoqa8ohJBp9gtzI4OFQU3
QDyIHoBMWOUHuHeourT7P0IZQZx1fCRMqNqZkZB6rCppxwIDAQABo4G9MIG6MAkG
A1UdEwQCMAAwHQYDVR0OBBYEFObtmMvpbJJC0xryvb3DHyvpOhH0MFEGA1UdIwRK
MEiAFKPE/7Znz6dVoQBCl7/NHxTl39IFoRqkGDAWMRQwEgYDVQQDDAt0ZWFtNjM5
LW5ldIIUIeh/IkbVrr8+YnqNq2jVwFFKydIwEwYDVR0lBAwwCgYIKwYBBQUHAwEw
CwYDVR0PBAQDAgWgMBkGA1UdEQQSMBCCDnRlYW02Mzktc2VydmVyMA0GCSqGSIb3
DQEBCwUAA4IBAQCtocnScoJcmF8FQgZxpfdBU7uthq3QY7puuuI+nSkjMCZ/Q6E6
hyQj0wnYLi2AGziKMwDpyR92VRjh5f6urd+JC/L5xAb9UtQUGg8RnA6f3pTCQZ3L
GK22TnBaVNiwgap63zWqkbbn3ZaV1zR02RJlzBePzIMzzxbhnsdNLScwtuy8gEZf
+nLMWBGVvbv2ZtUWDgnaeo69FQnoY3U7Yvai6GRc4S/fIlY8A5sXz9D0ei9TDZuI
2WUlBYrdkOOq/ItU65hB0qqumQRpBSigzM68JXJORHeZeFLNRPCADti22pw51UdX
PRVb1mMgA/iVNGtFW3El3kzXXLcnTPHI8735
-----END CERTIFICATE-----
