Certificate:
    Data:
        Version: 3 (0x2)
        Serial Number:
            7c:08:1a:57:70:45:26:26:3a:4f:a8:96:0b:c9:ab:06
        Signature Algorithm: sha256WithRSAEncryption
        Issuer: CN=team639-net
        Validity
            Not Before: May 18 23:13:32 2022 GMT
            Not After : May  2 23:13:32 2025 GMT
        Subject: CN=team639-client
        Subject Public Key Info:
            Public Key Algorithm: rsaEncryption
                RSA Public-Key: (2048 bit)
                Modulus:
                    00:b8:ac:cb:37:6c:0d:c9:10:99:fc:43:86:63:e4:
                    f5:00:03:5b:ac:88:9c:98:91:59:96:7f:c8:a1:d1:
                    f0:3f:f3:ff:1b:2c:f5:92:c6:31:e2:87:a9:1b:29:
                    24:47:df:8e:22:92:c7:13:d4:82:dc:e6:ac:4d:aa:
                    be:0b:63:99:0d:4b:5a:cd:61:c7:08:30:7b:77:4b:
                    00:93:43:9e:25:73:4c:f9:51:8b:7d:c0:1c:a5:c5:
                    cf:67:cf:2f:88:80:3c:fa:8f:cd:a6:ce:a5:06:e8:
                    4c:b4:3e:ff:16:7a:e8:dd:94:86:74:49:66:f0:bc:
                    69:2c:b1:6b:2b:48:5a:8f:8a:3b:2e:39:69:2b:2b:
                    93:c0:38:92:76:41:e1:66:27:30:98:47:e1:d2:6b:
                    11:14:0c:88:48:fe:27:0b:f5:03:ce:e5:ff:fc:06:
                    e1:27:9a:7e:4c:7b:26:9a:5b:14:1b:92:d2:68:0f:
                    ef:89:03:53:3f:0e:73:d7:00:be:16:b4:84:70:10:
                    fd:7d:d1:77:61:24:01:c6:11:b8:d8:15:07:42:21:
                    fa:02:b8:fb:27:7e:ae:ed:5e:30:dc:79:9b:35:d5:
                    f8:85:68:11:ea:46:12:da:b5:24:26:a8:a6:52:dd:
                    ac:4a:7b:7d:1e:a2:26:ba:18:92:3e:25:a8:1d:84:
                    09:bb
                Exponent: 65537 (0x10001)
        X509v3 extensions:
            X509v3 Basic Constraints: 
                CA:FALSE
            X509v3 Subject Key Identifier: 
                4B:AD:51:FB:18:61:75:24:12:90:AB:DE:45:AB:19:BA:C9:08:F9:98
            X509v3 Authority Key Identifier: 
                keyid:A3:C4:FF:B6:67:CF:A7:55:A1:00:42:97:BF:CD:1F:14:E5:DF:D2:05
                DirName:/CN=team639-net
                serial:21:E8:7F:22:46:D5:AE:BF:3E:62:7A:8D:AB:68:D5:C0:51:4A:C9:D2

            X509v3 Extended Key Usage: 
                TLS Web Client Authentication
            X509v3 Key Usage: 
                Digital Signature
    Signature Algorithm: sha256WithRSAEncryption
         6d:e0:59:a1:31:6e:2d:96:76:30:04:f2:83:b5:39:fc:25:48:
         1b:50:19:6f:31:e5:33:a5:4b:72:3c:73:57:cc:65:19:38:48:
         cd:50:be:23:98:28:07:c9:b2:57:0d:00:37:f3:88:0b:af:f2:
         cf:f9:b8:2f:f9:59:a7:65:06:7d:c2:7b:b0:e9:9a:81:86:97:
         df:e0:3f:dc:a7:b2:ff:c2:08:f5:bb:53:1a:5b:4a:cf:58:1a:
         76:e3:79:9a:2f:9f:81:b4:d6:0e:01:8e:7e:f1:c3:a8:9d:66:
         06:f7:e0:f0:d6:8a:22:24:e4:7a:8d:95:af:7e:00:a9:f6:04:
         9c:25:f2:1b:54:a5:e3:66:67:00:ba:97:74:d4:34:7a:5a:14:
         5c:fc:4b:ea:bd:47:ce:9e:59:2d:15:04:c8:47:6c:6d:c5:9a:
         e1:17:4b:45:85:56:78:57:c3:ef:3d:7a:30:32:47:aa:c5:9d:
         8a:f1:c3:36:fe:fb:e9:80:39:22:a2:94:4f:ca:47:f8:96:a6:
         c5:3d:5d:c9:f5:75:17:77:58:64:d2:24:d8:d5:af:a2:e7:a1:
         64:81:3f:24:c0:ba:92:0e:4a:ee:0e:a7:6e:bd:15:fd:6f:67:
         2b:59:be:ca:83:aa:eb:c2:6a:10:54:2b:90:67:f3:b6:d6:63:
         3c:b9:94:56
-----BEGIN CERTIFICATE-----
MIIDXDCCAkSgAwIBAgIQfAgaV3BFJiY6T6iWC8mrBjANBgkqhkiG9w0BAQsFADAW
MRQwEgYDVQQDDAt0ZWFtNjM5LW5ldDAeFw0yMjA1MTgyMzEzMzJaFw0yNTA1MDIy
MzEzMzJaMBkxFzAVBgNVBAMMDnRlYW02MzktY2xpZW50MIIBIjANBgkqhkiG9w0B
AQEFAAOCAQ8AMIIBCgKCAQEAuKzLN2wNyRCZ/EOGY+T1AANbrIicmJFZln/IodHw
P/P/Gyz1ksYx4oepGykkR9+OIpLHE9SC3OasTaq+C2OZDUtazWHHCDB7d0sAk0Oe
JXNM+VGLfcAcpcXPZ88viIA8+o/Nps6lBuhMtD7/Fnro3ZSGdElm8LxpLLFrK0ha
j4o7LjlpKyuTwDiSdkHhZicwmEfh0msRFAyISP4nC/UDzuX//AbhJ5p+THsmmlsU
G5LSaA/viQNTPw5z1wC+FrSEcBD9fdF3YSQBxhG42BUHQiH6Arj7J36u7V4w3Hmb
NdX4hWgR6kYS2rUkJqimUt2sSnt9HqImuhiSPiWoHYQJuwIDAQABo4GiMIGfMAkG
A1UdEwQCMAAwHQYDVR0OBBYEFEutUfsYYXUkEpCr3kWrGbrJCPmYMFEGA1UdIwRK
MEiAFKPE/7Znz6dVoQBCl7/NHxTl39IFoRqkGDAWMRQwEgYDVQQDDAt0ZWFtNjM5
LW5ldIIUIeh/IkbVrr8+YnqNq2jVwFFKydIwEwYDVR0lBAwwCgYIKwYBBQUHAwIw
CwYDVR0PBAQDAgeAMA0GCSqGSIb3DQEBCwUAA4IBAQBt4FmhMW4tlnYwBPKDtTn8
JUgbUBlvMeUzpUtyPHNXzGUZOEjNUL4jmCgHybJXDQA384gLr/LP+bgv+VmnZQZ9
wnuw6ZqBhpff4D/cp7L/wgj1u1MaW0rPWBp243maL5+BtNYOAY5+8cOonWYG9+Dw
1ooiJOR6jZWvfgCp9gScJfIbVKXjZmcAupd01DR6WhRc/EvqvUfOnlktFQTIR2xt
xZrhF0tFhVZ4V8PvPXowMkeqxZ2K8cM2/vvpgDkiopRPykf4lqbFPV3J9XUXd1hk
0iTY1a+i56FkgT8kwLqSDkruDqduvRX9b2crWb7Kg6rrwmoQVCuQZ/O21mM8uZRW
-----END CERTIFICATE-----
