Certificate:
    Data:
        Version: 3 (0x2)
        Serial Number:
            7a:44:ed:c6:31:36:51:1e:84:bd:04:22:05:d7:8b:c9
        Signature Algorithm: sha256WithRSAEncryption
        Issuer: CN=team258-net
        Validity
            Not Before: May 18 19:42:27 2022 GMT
            Not After : May  2 19:42:27 2025 GMT
        Subject: CN=team258-client
        Subject Public Key Info:
            Public Key Algorithm: rsaEncryption
                RSA Public-Key: (2048 bit)
                Modulus:
                    00:c6:87:d0:80:65:78:97:23:c1:f0:6a:ed:1f:08:
                    75:a0:1e:d0:77:e1:33:0a:44:ed:b5:fd:6f:6f:f3:
                    db:ab:91:38:da:cd:74:0c:d9:4a:06:63:d2:4c:22:
                    5b:d6:30:71:16:c7:fe:84:9e:41:eb:a0:f6:7b:84:
                    fc:26:46:28:e4:09:7b:dd:c3:de:34:85:1d:80:07:
                    eb:4b:46:7c:51:78:9e:f6:56:d8:82:00:bd:5a:36:
                    f0:23:94:e5:d4:4b:f1:2e:ff:7e:67:05:92:a9:d9:
                    4f:7a:8f:d4:87:2b:0b:06:ab:c1:3c:1f:49:c4:bd:
                    df:51:8d:2b:7e:29:fd:dc:da:61:0f:35:f8:82:d4:
                    a6:e7:00:96:77:f8:42:84:15:2c:24:ff:70:1f:d6:
                    d3:55:fd:7d:7f:4c:e8:b8:11:f4:77:c0:7e:78:f9:
                    49:bc:ff:6a:59:7e:05:6c:7d:4f:82:28:67:c8:52:
                    51:58:ee:82:c7:c4:26:45:3f:59:c7:66:3f:54:cd:
                    e4:16:8c:cd:3e:79:57:2d:84:42:82:17:da:e3:51:
                    22:77:9d:cd:dd:8d:d9:fb:95:6f:d4:1a:51:30:ad:
                    0e:11:df:c3:62:b6:ff:7a:b4:51:3a:74:73:8b:73:
                    4a:41:84:da:3a:ab:af:93:c9:cd:e7:13:8f:ab:68:
                    e8:8f
                Exponent: 65537 (0x10001)
        X509v3 extensions:
            X509v3 Basic Constraints: 
                CA:FALSE
            X509v3 Subject Key Identifier: 
                C8:FC:2A:A1:40:B2:09:7F:75:77:C7:49:BF:6A:21:C7:7F:82:D3:88
            X509v3 Authority Key Identifier: 
                keyid:1D:2F:AD:02:A2:83:FF:90:0A:73:4E:98:EC:5B:88:8F:3B:02:37:09
                DirName:/CN=team258-net
                serial:71:E4:B7:2D:E6:D4:F7:13:89:13:71:49:44:9F:30:33:C1:17:DE:B2

            X509v3 Extended Key Usage: 
                TLS Web Client Authentication
            X509v3 Key Usage: 
                Digital Signature
    Signature Algorithm: sha256WithRSAEncryption
         84:c4:6e:35:f9:73:ff:14:a5:cc:9b:48:b6:28:b1:57:7f:7d:
         af:b8:72:a9:36:f9:52:66:c3:42:85:07:89:b8:42:b0:65:50:
         79:94:bf:48:d8:cc:cf:32:26:75:c6:b1:3a:46:e8:7d:d9:57:
         08:7e:d5:58:02:93:7a:36:fa:3a:b0:b8:36:d0:c1:14:33:32:
         3e:33:33:82:13:b5:b3:20:02:b6:28:80:9d:2b:de:98:78:ce:
         95:4f:60:20:0e:e6:cd:d8:39:72:cd:3c:f1:bf:f5:67:f3:18:
         86:b5:64:47:b5:00:26:45:8b:68:96:23:26:9d:ac:76:d8:e8:
         5d:43:73:d4:fa:1e:eb:9e:78:dc:79:1d:18:f6:7d:f9:3c:8f:
         31:54:c5:96:57:ce:61:c0:45:90:6b:9a:71:a0:2a:cc:50:93:
         d9:82:8e:05:b0:33:41:2e:11:e3:e0:b5:8c:00:bf:c0:3b:3c:
         30:16:fa:1e:07:38:b0:b5:6f:3b:e8:cc:89:80:d0:6f:e1:97:
         ae:6b:79:c3:47:7c:03:17:42:66:ee:4b:c9:f4:04:c8:4c:c4:
         7e:1c:fe:88:b0:08:26:9c:eb:57:ef:d3:57:ab:78:e1:25:0e:
         0a:f6:cd:31:55:39:8c:60:b9:52:49:c7:bd:7e:bc:f0:2a:76:
         d9:7a:e9:20
-----BEGIN CERTIFICATE-----
MIIDXDCCAkSgAwIBAgIQekTtxjE2UR6EvQQiBdeLyTANBgkqhkiG9w0BAQsFADAW
MRQwEgYDVQQDDAt0ZWFtMjU4LW5ldDAeFw0yMjA1MTgxOTQyMjdaFw0yNTA1MDIx
OTQyMjdaMBkxFzAVBgNVBAMMDnRlYW0yNTgtY2xpZW50MIIBIjANBgkqhkiG9w0B
AQEFAAOCAQ8AMIIBCgKCAQEAxofQgGV4lyPB8GrtHwh1oB7Qd+EzCkTttf1vb/Pb
q5E42s10DNlKBmPSTCJb1jBxFsf+hJ5B66D2e4T8JkYo5Al73cPeNIUdgAfrS0Z8
UXie9lbYggC9WjbwI5Tl1EvxLv9+ZwWSqdlPeo/UhysLBqvBPB9JxL3fUY0rfin9
3NphDzX4gtSm5wCWd/hChBUsJP9wH9bTVf19f0zouBH0d8B+ePlJvP9qWX4FbH1P
gihnyFJRWO6Cx8QmRT9Zx2Y/VM3kFozNPnlXLYRCghfa41Eid53N3Y3Z+5Vv1BpR
MK0OEd/DYrb/erRROnRzi3NKQYTaOquvk8nN5xOPq2jojwIDAQABo4GiMIGfMAkG
A1UdEwQCMAAwHQYDVR0OBBYEFMj8KqFAsgl/dXfHSb9qIcd/gtOIMFEGA1UdIwRK
MEiAFB0vrQKig/+QCnNOmOxbiI87AjcJoRqkGDAWMRQwEgYDVQQDDAt0ZWFtMjU4
LW5ldIIUceS3LebU9xOJE3FJRJ8wM8EX3rIwEwYDVR0lBAwwCgYIKwYBBQUHAwIw
CwYDVR0PBAQDAgeAMA0GCSqGSIb3DQEBCwUAA4IBAQCExG41+XP/FKXMm0i2KLFX
f32vuHKpNvlSZsNChQeJuEKwZVB5lL9I2MzPMiZ1xrE6Ruh92VcIftVYApN6Nvo6
sLg20MEUMzI+MzOCE7WzIAK2KICdK96YeM6VT2AgDubN2DlyzTzxv/Vn8xiGtWRH
tQAmRYtoliMmnax22OhdQ3PU+h7rnnjceR0Y9n35PI8xVMWWV85hwEWQa5pxoCrM
UJPZgo4FsDNBLhHj4LWMAL/AOzwwFvoeBziwtW876MyJgNBv4Zeua3nDR3wDF0Jm
7kvJ9ATITMR+HP6IsAgmnOtX79NXq3jhJQ4K9s0xVTmMYLlSSce9frzwKnbZeukg
-----END CERTIFICATE-----
