Certificate:
    Data:
        Version: 3 (0x2)
        Serial Number:
            94:cf:52:d6:23:81:41:f6:da:c3:5b:98:9c:9c:2c:45
        Signature Algorithm: sha256WithRSAEncryption
        Issuer: CN=team96-net
        Validity
            Not Before: May 18 14:49:02 2022 GMT
            Not After : May  2 14:49:02 2025 GMT
        Subject: CN=team96-client
        Subject Public Key Info:
            Public Key Algorithm: rsaEncryption
                RSA Public-Key: (2048 bit)
                Modulus:
                    00:b8:9f:21:2b:94:53:29:d6:c2:00:ed:02:f3:b7:
                    4c:1e:2d:36:10:78:7a:d7:54:b7:59:cf:19:63:84:
                    bb:86:fd:32:ba:02:bb:80:f2:b3:3b:ee:47:99:1d:
                    c2:b6:ef:c5:b6:43:9d:9d:9c:f9:2d:5d:e7:1f:2f:
                    f1:d4:18:cd:fd:cf:0f:a4:89:d1:23:4b:aa:52:64:
                    0e:e3:79:37:9f:09:25:8d:f1:d5:64:75:d2:a7:0a:
                    78:9a:f4:04:7a:5b:6f:f3:99:36:cc:5c:31:ff:07:
                    1a:5a:76:45:43:8d:62:cf:87:32:37:c5:61:06:1d:
                    ed:6b:66:00:3a:b8:ea:82:56:af:02:90:f2:36:14:
                    2f:06:99:b2:cd:3f:82:47:37:d9:13:2e:72:28:3b:
                    9c:ea:c8:96:08:cd:ff:5a:38:d4:4c:a8:8a:cd:af:
                    47:b1:ed:55:5d:46:61:6d:5b:26:94:ab:21:d8:8f:
                    09:8b:85:ff:f7:56:c2:7a:21:82:46:75:14:44:6f:
                    54:1b:f3:d3:7e:50:e5:53:3d:79:02:a3:ed:c8:50:
                    63:90:3b:b4:14:40:ac:b5:2c:f2:80:c2:3b:a6:72:
                    c4:7c:b6:d2:8f:61:12:82:5d:d9:09:43:c7:b3:87:
                    31:f0:dd:6b:ad:a0:4b:ed:c7:bf:c8:7b:e9:80:90:
                    0f:35
                Exponent: 65537 (0x10001)
        X509v3 extensions:
            X509v3 Basic Constraints: 
                CA:FALSE
            X509v3 Subject Key Identifier: 
                57:AC:DA:8D:2E:5B:AA:DC:6C:FF:A6:F5:60:CF:25:B9:2A:C8:C0:10
            X509v3 Authority Key Identifier: 
                keyid:81:D1:AA:6D:96:A6:EB:D2:40:24:CC:DF:58:48:72:60:CB:72:B1:54
                DirName:/CN=team96-net
                serial:66:40:15:B4:D3:63:35:A1:B5:24:A1:F9:5F:6F:BB:A9:C3:52:13:3E

            X509v3 Extended Key Usage: 
                TLS Web Client Authentication
            X509v3 Key Usage: 
                Digital Signature
    Signature Algorithm: sha256WithRSAEncryption
         3c:b6:85:97:11:ec:7b:b8:1c:3c:71:d1:7f:14:3c:16:3e:a5:
         2f:13:d9:ca:75:e2:0a:39:1c:2f:4b:af:c6:08:a2:ae:bd:ed:
         a4:5e:f1:84:de:b0:9b:68:f7:ff:84:af:a6:70:f9:fb:25:b3:
         16:c9:44:a3:82:98:e7:a3:bc:0a:85:84:6b:90:94:16:b6:3e:
         c9:4c:41:33:8d:99:2f:8a:53:0a:1f:92:b9:20:52:53:2c:ea:
         11:6e:db:e6:a8:cc:13:da:a3:e5:00:f6:f4:3c:8b:0a:d3:ae:
         74:3c:cb:b9:d4:63:d7:ac:c7:ca:8f:f4:c3:d3:e3:51:34:80:
         49:31:93:4f:29:3f:fc:cb:bb:a4:eb:f1:31:62:ba:12:c1:1a:
         08:21:3a:11:27:59:fb:90:91:5b:fb:47:c9:76:a2:93:fc:64:
         93:5f:4a:d1:f1:7a:4e:f4:7e:89:cf:e7:bd:cc:02:fc:eb:c1:
         08:e0:3c:5e:42:e3:ea:36:82:c5:63:78:57:20:8f:ac:ca:f8:
         cf:c3:96:19:1a:32:8c:29:58:39:29:9e:e8:65:1f:58:64:88:
         62:cc:e5:59:63:f3:65:46:0b:33:78:02:16:8d:b5:a8:c4:f2:
         7e:5c:4c:44:b3:37:1f:bb:44:21:13:69:32:18:77:f4:21:43:
         09:43:49:04
-----BEGIN CERTIFICATE-----
MIIDWjCCAkKgAwIBAgIRAJTPUtYjgUH22sNbmJycLEUwDQYJKoZIhvcNAQELBQAw
FTETMBEGA1UEAwwKdGVhbTk2LW5ldDAeFw0yMjA1MTgxNDQ5MDJaFw0yNTA1MDIx
NDQ5MDJaMBgxFjAUBgNVBAMMDXRlYW05Ni1jbGllbnQwggEiMA0GCSqGSIb3DQEB
AQUAA4IBDwAwggEKAoIBAQC4nyErlFMp1sIA7QLzt0weLTYQeHrXVLdZzxljhLuG
/TK6AruA8rM77keZHcK278W2Q52dnPktXecfL/HUGM39zw+kidEjS6pSZA7jeTef
CSWN8dVkddKnCnia9AR6W2/zmTbMXDH/BxpadkVDjWLPhzI3xWEGHe1rZgA6uOqC
Vq8CkPI2FC8GmbLNP4JHN9kTLnIoO5zqyJYIzf9aONRMqIrNr0ex7VVdRmFtWyaU
qyHYjwmLhf/3VsJ6IYJGdRREb1Qb89N+UOVTPXkCo+3IUGOQO7QUQKy1LPKAwjum
csR8ttKPYRKCXdkJQ8ezhzHw3WutoEvtx7/Ie+mAkA81AgMBAAGjgaEwgZ4wCQYD
VR0TBAIwADAdBgNVHQ4EFgQUV6zajS5bqtxs/6b1YM8luSrIwBAwUAYDVR0jBEkw
R4AUgdGqbZam69JAJMzfWEhyYMtysVShGaQXMBUxEzARBgNVBAMMCnRlYW05Ni1u
ZXSCFGZAFbTTYzWhtSSh+V9vu6nDUhM+MBMGA1UdJQQMMAoGCCsGAQUFBwMCMAsG
A1UdDwQEAwIHgDANBgkqhkiG9w0BAQsFAAOCAQEAPLaFlxHse7gcPHHRfxQ8Fj6l
LxPZynXiCjkcL0uvxgiirr3tpF7xhN6wm2j3/4SvpnD5+yWzFslEo4KY56O8CoWE
a5CUFrY+yUxBM42ZL4pTCh+SuSBSUyzqEW7b5qjME9qj5QD29DyLCtOudDzLudRj
16zHyo/0w9PjUTSASTGTTyk//Mu7pOvxMWK6EsEaCCE6ESdZ+5CRW/tHyXaik/xk
k19K0fF6TvR+ic/nvcwC/OvBCOA8XkLj6jaCxWN4VyCPrMr4z8OWGRoyjClYOSme
6GUfWGSIYszlWWPzZUYLM3gCFo21qMTyflxMRLM3H7tEIRNpMhh39CFDCUNJBA==
-----END CERTIFICATE-----
