Certificate:
    Data:
        Version: 3 (0x2)
        Serial Number:
            46:dd:bb:b5:a7:5d:43:69:26:a8:98:d8:34:8b:25:c9
        Signature Algorithm: sha256WithRSAEncryption
        Issuer: CN=team356-net
        Validity
            Not Before: May 18 20:38:47 2022 GMT
            Not After : May  2 20:38:47 2025 GMT
        Subject: CN=team356-server
        Subject Public Key Info:
            Public Key Algorithm: rsaEncryption
                RSA Public-Key: (2048 bit)
                Modulus:
                    00:cc:6b:78:ea:c8:c3:5a:d2:10:5e:a9:84:63:d8:
                    68:60:5b:a3:7a:bc:35:54:5b:7a:88:38:d2:7e:d0:
                    df:e6:a9:86:e2:6a:a5:12:2c:33:33:40:7b:9f:f6:
                    d2:46:72:24:94:a7:b6:81:67:65:fe:51:48:cd:92:
                    ce:f7:51:28:8a:8f:48:15:3e:6b:5e:02:55:49:4e:
                    3e:46:ad:71:fa:1f:8a:a4:22:32:1f:24:81:d3:3d:
                    07:d5:19:e5:0a:59:2e:bf:16:37:f3:7d:7b:de:01:
                    a9:13:5e:16:14:9a:96:59:c7:8b:d2:38:d5:c4:13:
                    a0:2e:95:69:70:7b:b2:1c:5d:e0:9a:70:6f:98:96:
                    62:6c:c9:08:80:86:9e:9a:46:bb:01:d2:67:61:1d:
                    3b:03:77:fb:ab:26:8e:27:88:26:fe:ce:cb:75:38:
                    90:7e:1b:b8:92:f8:c2:0b:f1:77:b2:d6:f7:67:22:
                    a1:38:7e:dc:2c:e9:5f:27:1a:30:9f:e9:5d:57:2b:
                    09:33:2a:1d:57:01:61:3f:48:c9:45:b3:4b:a1:f7:
                    6d:2c:8d:42:4d:ce:83:df:34:62:b9:be:23:98:a0:
                    41:90:e5:46:09:95:c9:19:65:46:99:ff:74:f3:a5:
                    04:b6:1c:ae:52:0e:f4:8d:84:bd:40:e5:2e:75:72:
                    e3:cd
                Exponent: 65537 (0x10001)
        X509v3 extensions:
            X509v3 Basic Constraints: 
                CA:FALSE
            X509v3 Subject Key Identifier: 
                AD:72:ED:12:FE:E4:E5:1D:78:56:EC:80:E4:30:DA:0A:BC:45:7D:B8
            X509v3 Authority Key Identifier: 
                keyid:35:7D:DC:B0:DC:EE:9B:9A:28:B3:20:14:97:D6:AB:BE:E7:D9:48:3E
                DirName:/CN=team356-net
                serial:21:0D:A6:3A:06:12:65:0D:27:88:2D:CA:E8:4E:70:FB:22:AB:0D:FA

            X509v3 Extended Key Usage: 
                TLS Web Server Authentication
            X509v3 Key Usage: 
                Digital Signature, Key Encipherment
            X509v3 Subject Alternative Name: 
                DNS:team356-server
    Signature Algorithm: sha256WithRSAEncryption
         08:7a:64:b8:ab:70:23:f2:0b:5d:d4:7d:c0:d3:37:cd:67:1a:
         14:0e:46:ff:e3:99:78:d3:17:7c:51:f2:d1:b5:e3:35:e3:b6:
         bb:a1:74:f2:20:ce:f7:f5:8e:f6:da:44:01:5c:3d:97:96:ec:
         21:bd:7c:69:5f:e0:7b:42:09:8e:b2:ff:24:26:d4:dc:79:3c:
         4c:41:29:4f:e5:88:c9:d4:14:68:10:eb:f8:ca:36:6a:6d:00:
         9b:e1:cb:a9:74:b9:a2:61:da:cf:3b:e0:55:49:3f:fe:74:b3:
         c2:b0:71:76:db:9b:73:61:b0:91:80:61:72:b1:89:fe:67:49:
         5a:34:db:0a:de:6e:4a:e0:65:60:a2:1b:3b:fb:59:36:a1:bf:
         70:c5:48:89:00:56:10:35:86:c9:7c:b4:47:88:e6:5a:5e:29:
         bb:f6:c8:2a:97:ad:6f:f5:48:a6:f1:8e:73:99:fc:45:59:6a:
         57:c7:27:73:d4:3c:c0:31:39:22:24:43:86:fa:01:54:d7:4b:
         9a:a3:8a:aa:3b:b3:66:32:bf:0c:0e:81:d5:ca:d7:5c:48:20:
         1b:9c:83:a6:ad:e9:99:de:71:31:2f:f2:17:8a:4b:cc:cd:6f:
         59:97:2b:f1:a7:4e:6e:d7:cb:5d:df:20:c8:c9:16:d5:ae:89:
         a3:42:ea:26
-----BEGIN CERTIFICATE-----
MIIDdzCCAl+gAwIBAgIQRt27taddQ2kmqJjYNIslyTANBgkqhkiG9w0BAQsFADAW
MRQwEgYDVQQDDAt0ZWFtMzU2LW5ldDAeFw0yMjA1MTgyMDM4NDdaFw0yNTA1MDIy
MDM4NDdaMBkxFzAVBgNVBAMMDnRlYW0zNTYtc2VydmVyMIIBIjANBgkqhkiG9w0B
AQEFAAOCAQ8AMIIBCgKCAQEAzGt46sjDWtIQXqmEY9hoYFujerw1VFt6iDjSftDf
5qmG4mqlEiwzM0B7n/bSRnIklKe2gWdl/lFIzZLO91Eoio9IFT5rXgJVSU4+Rq1x
+h+KpCIyHySB0z0H1RnlClkuvxY383173gGpE14WFJqWWceL0jjVxBOgLpVpcHuy
HF3gmnBvmJZibMkIgIaemka7AdJnYR07A3f7qyaOJ4gm/s7LdTiQfhu4kvjCC/F3
stb3ZyKhOH7cLOlfJxown+ldVysJMyodVwFhP0jJRbNLofdtLI1CTc6D3zRiub4j
mKBBkOVGCZXJGWVGmf9086UEthyuUg70jYS9QOUudXLjzQIDAQABo4G9MIG6MAkG
A1UdEwQCMAAwHQYDVR0OBBYEFK1y7RL+5OUdeFbsgOQw2gq8RX24MFEGA1UdIwRK
MEiAFDV93LDc7puaKLMgFJfWq77n2Ug+oRqkGDAWMRQwEgYDVQQDDAt0ZWFtMzU2
LW5ldIIUIQ2mOgYSZQ0niC3K6E5w+yKrDfowEwYDVR0lBAwwCgYIKwYBBQUHAwEw
CwYDVR0PBAQDAgWgMBkGA1UdEQQSMBCCDnRlYW0zNTYtc2VydmVyMA0GCSqGSIb3
DQEBCwUAA4IBAQAIemS4q3Aj8gtd1H3A0zfNZxoUDkb/45l40xd8UfLRteM147a7
oXTyIM739Y722kQBXD2XluwhvXxpX+B7QgmOsv8kJtTceTxMQSlP5YjJ1BRoEOv4
yjZqbQCb4cupdLmiYdrPO+BVST/+dLPCsHF225tzYbCRgGFysYn+Z0laNNsK3m5K
4GVgohs7+1k2ob9wxUiJAFYQNYbJfLRHiOZaXim79sgql61v9Uim8Y5zmfxFWWpX
xydz1DzAMTkiJEOG+gFU10uao4qqO7NmMr8MDoHVytdcSCAbnIOmremZ3nExL/IX
ikvMzW9Zlyvxp05u18td3yDIyRbVromjQuom
-----END CERTIFICATE-----
