Certificate:
    Data:
        Version: 3 (0x2)
        Serial Number:
            0c:39:4c:3d:32:ee:77:6d:10:97:ae:d0:34:f5:d5:7c
        Signature Algorithm: sha256WithRSAEncryption
        Issuer: CN=team686-net
        Validity
            Not Before: May 18 23:39:16 2022 GMT
            Not After : May  2 23:39:16 2025 GMT
        Subject: CN=team686-client
        Subject Public Key Info:
            Public Key Algorithm: rsaEncryption
                RSA Public-Key: (2048 bit)
                Modulus:
                    00:a5:a6:33:0d:15:9c:d0:6b:c5:41:87:58:af:3f:
                    68:03:a5:df:39:0b:bf:a4:bd:f6:70:a1:5a:62:c0:
                    6b:f6:60:17:67:8a:85:0d:fe:d0:83:7b:af:63:a7:
                    e7:66:5b:36:b4:18:09:64:9b:ac:2f:32:99:19:5b:
                    f5:12:9b:df:48:94:c7:d1:b5:0d:db:9a:c5:11:c2:
                    29:bc:48:d5:63:fb:57:1a:cf:7e:f1:a9:1b:b1:8b:
                    32:7d:c1:f4:ca:2c:92:f8:c4:fa:3f:44:76:f9:4f:
                    0f:6f:cd:6f:db:75:ea:c1:b7:83:59:9e:89:bb:3b:
                    5e:37:b9:4a:8b:1d:d6:2a:5c:7c:ad:12:75:1c:58:
                    30:ab:21:54:e4:7c:2c:57:66:4c:24:d3:56:69:2e:
                    ee:a4:8b:33:e6:2e:f5:0a:27:da:51:6d:b6:43:01:
                    64:15:3f:75:0c:a8:5c:a8:5c:7b:75:51:f5:fd:9f:
                    a7:05:d1:07:75:f9:23:70:64:71:0f:87:bb:26:5c:
                    5c:c6:06:5c:e9:e5:4c:6e:89:b3:c7:45:33:38:2d:
                    b5:ab:f1:c4:de:5d:62:d7:3a:c6:34:a1:ce:9f:27:
                    a6:c7:1a:f6:e2:79:70:e1:41:f2:91:f6:8a:dd:65:
                    85:dd:2e:f6:5e:76:eb:bb:7e:0e:ed:2f:c2:ec:f1:
                    9c:9b
                Exponent: 65537 (0x10001)
        X509v3 extensions:
            X509v3 Basic Constraints: 
                CA:FALSE
            X509v3 Subject Key Identifier: 
                20:91:6C:4C:4D:45:87:E7:20:7E:B5:87:E6:B9:57:0F:71:3B:08:B8
            X509v3 Authority Key Identifier: 
                keyid:A6:89:D2:66:B5:10:20:5A:6E:42:F2:C8:58:F2:1C:47:FC:62:24:98
                DirName:/CN=team686-net
                serial:2E:6D:BA:79:C2:A9:96:12:34:9E:0A:39:B0:63:8D:2D:79:EF:84:DE

            X509v3 Extended Key Usage: 
                TLS Web Client Authentication
            X509v3 Key Usage: 
                Digital Signature
    Signature Algorithm: sha256WithRSAEncryption
         28:aa:e5:f2:10:71:20:25:d3:45:13:e4:d4:1b:a3:4e:44:e1:
         c0:b7:0a:34:bf:e7:7f:ef:af:02:de:dd:0f:31:1e:49:5e:1f:
         b9:c6:68:b3:be:85:10:41:64:0c:92:5f:48:a1:85:b8:bb:15:
         c9:15:85:32:5b:bf:0e:a0:1b:94:62:a8:0c:5b:a1:8a:d6:ac:
         48:09:1f:c0:5f:e6:c9:a4:5f:04:7a:5f:22:c0:9f:e6:92:79:
         ec:a1:ac:8a:7f:4e:79:ec:e8:5d:29:f0:db:fb:30:60:bf:58:
         f8:64:24:ab:45:db:58:ac:55:72:d3:b4:47:39:e8:fa:59:16:
         2b:4a:32:07:2e:5c:e6:02:c2:67:bd:f0:c0:8d:3f:7b:94:53:
         e5:64:02:ca:47:54:7e:2f:af:9d:ab:5f:d7:6f:79:02:b1:b9:
         1e:b4:57:88:be:0d:28:56:d0:95:87:8b:6e:50:48:3b:2a:1e:
         c6:9c:46:e5:17:68:4e:3f:d2:2d:59:07:d1:09:50:86:3f:3a:
         a9:11:44:70:1a:0a:1d:07:fb:6b:e8:b3:5b:c1:4d:47:b6:cb:
         40:96:10:65:1c:1e:4e:f0:3d:4d:0b:84:07:14:b0:04:1d:91:
         66:ea:13:5f:a6:c0:4e:23:fb:6d:39:fb:a5:ef:e4:62:1d:b2:
         56:6f:89:39
-----BEGIN CERTIFICATE-----
MIIDXDCCAkSgAwIBAgIQDDlMPTLud20Ql67QNPXVfDANBgkqhkiG9w0BAQsFADAW
MRQwEgYDVQQDDAt0ZWFtNjg2LW5ldDAeFw0yMjA1MTgyMzM5MTZaFw0yNTA1MDIy
MzM5MTZaMBkxFzAVBgNVBAMMDnRlYW02ODYtY2xpZW50MIIBIjANBgkqhkiG9w0B
AQEFAAOCAQ8AMIIBCgKCAQEApaYzDRWc0GvFQYdYrz9oA6XfOQu/pL32cKFaYsBr
9mAXZ4qFDf7Qg3uvY6fnZls2tBgJZJusLzKZGVv1EpvfSJTH0bUN25rFEcIpvEjV
Y/tXGs9+8akbsYsyfcH0yiyS+MT6P0R2+U8Pb81v23XqwbeDWZ6JuzteN7lKix3W
Klx8rRJ1HFgwqyFU5HwsV2ZMJNNWaS7upIsz5i71CifaUW22QwFkFT91DKhcqFx7
dVH1/Z+nBdEHdfkjcGRxD4e7JlxcxgZc6eVMbomzx0UzOC21q/HE3l1i1zrGNKHO
nyemxxr24nlw4UHykfaK3WWF3S72Xnbru34O7S/C7PGcmwIDAQABo4GiMIGfMAkG
A1UdEwQCMAAwHQYDVR0OBBYEFCCRbExNRYfnIH61h+a5Vw9xOwi4MFEGA1UdIwRK
MEiAFKaJ0ma1ECBabkLyyFjyHEf8YiSYoRqkGDAWMRQwEgYDVQQDDAt0ZWFtNjg2
LW5ldIIULm26ecKplhI0ngo5sGONLXnvhN4wEwYDVR0lBAwwCgYIKwYBBQUHAwIw
CwYDVR0PBAQDAgeAMA0GCSqGSIb3DQEBCwUAA4IBAQAoquXyEHEgJdNFE+TUG6NO
ROHAtwo0v+d/768C3t0PMR5JXh+5xmizvoUQQWQMkl9IoYW4uxXJFYUyW78OoBuU
YqgMW6GK1qxICR/AX+bJpF8Eel8iwJ/mknnsoayKf0557OhdKfDb+zBgv1j4ZCSr
RdtYrFVy07RHOej6WRYrSjIHLlzmAsJnvfDAjT97lFPlZALKR1R+L6+dq1/Xb3kC
sbketFeIvg0oVtCVh4tuUEg7Kh7GnEblF2hOP9ItWQfRCVCGPzqpEURwGgodB/tr
6LNbwU1HtstAlhBlHB5O8D1NC4QHFLAEHZFm6hNfpsBOI/ttOful7+RiHbJWb4k5
-----END CERTIFICATE-----
