Certificate:
    Data:
        Version: 3 (0x2)
        Serial Number:
            9f:d0:f0:c6:13:cf:33:0e:bd:26:e2:11:3c:da:1b:61
        Signature Algorithm: sha256WithRSAEncryption
        Issuer: CN=team340-net
        Validity
            Not Before: May 18 20:30:58 2022 GMT
            Not After : May  2 20:30:58 2025 GMT
        Subject: CN=team340-client
        Subject Public Key Info:
            Public Key Algorithm: rsaEncryption
                RSA Public-Key: (2048 bit)
                Modulus:
                    00:d8:90:32:79:38:d4:99:29:64:0a:ff:4c:39:4e:
                    e9:38:74:50:8e:db:bd:68:d7:ca:e3:01:49:b5:00:
                    34:02:2f:9a:d4:3e:0e:4e:df:45:65:14:63:35:3b:
                    bd:ed:e2:de:51:5c:36:29:5b:58:a2:9d:7c:b6:6f:
                    c4:8d:94:17:63:ed:6d:fa:8d:b9:ac:02:1c:d8:4d:
                    88:9d:c2:d5:ab:f1:3d:1b:ea:91:7b:94:8c:80:46:
                    16:14:08:ed:36:4c:a5:17:79:70:a8:e9:8d:ef:40:
                    8e:2b:75:8e:42:8d:4b:ad:57:19:b8:56:a9:16:20:
                    a9:9b:e5:86:70:e3:d4:d9:b9:cc:e1:6b:3f:c6:03:
                    22:60:60:2a:23:0e:84:f3:5c:2b:a5:60:c7:e2:f7:
                    fd:ae:0b:c2:3d:26:63:e6:e7:55:b5:d9:4a:21:4f:
                    3e:6f:d9:f5:1b:84:a2:f0:e8:0e:d3:81:c8:c3:68:
                    27:ef:ac:e5:3f:57:05:a9:b5:11:b4:b4:a3:84:d3:
                    f7:2c:71:e1:70:ed:fa:81:87:7e:b2:91:76:eb:46:
                    d9:76:39:75:0e:cd:4a:79:7d:2f:9d:55:4a:2b:3a:
                    17:f4:cd:8c:d6:95:ef:a8:d6:87:d2:46:7b:6b:d1:
                    23:87:14:65:54:d1:51:45:d7:70:9a:f6:33:30:2e:
                    bd:73
                Exponent: 65537 (0x10001)
        X509v3 extensions:
            X509v3 Basic Constraints: 
                CA:FALSE
            X509v3 Subject Key Identifier: 
                1C:12:DF:26:E3:15:C1:30:B2:9A:B1:B8:D9:40:74:1A:4D:82:B2:5A
            X509v3 Authority Key Identifier: 
                keyid:F3:E0:CD:E8:FA:81:91:30:F8:2E:A6:B1:CD:57:7F:EA:4D:95:DD:EE
                DirName:/CN=team340-net
                serial:15:F0:BB:0F:AA:8E:7E:8B:EC:EE:B6:C2:9C:48:50:13:F0:7D:C5:08

            X509v3 Extended Key Usage: 
                TLS Web Client Authentication
            X509v3 Key Usage: 
                Digital Signature
    Signature Algorithm: sha256WithRSAEncryption
         49:f2:5a:76:f1:a2:40:ac:ef:57:fa:81:9f:c0:6a:9c:76:fe:
         3b:cb:15:d2:c0:2e:77:8a:84:63:ff:38:6b:0e:9c:7f:ec:98:
         d1:0d:b0:bc:f3:83:c6:eb:61:a4:e6:e5:2f:7c:07:0a:03:15:
         e0:dc:f5:64:1a:dd:3e:79:7e:c5:9a:fe:40:3d:42:de:e1:e7:
         19:2a:2a:01:35:3d:ac:28:8d:d7:2e:21:01:d7:ec:03:5f:53:
         2a:3b:5c:b3:12:92:e6:3f:1e:c5:4a:0b:b6:96:3b:d6:4b:c5:
         9d:ec:fc:1d:d0:86:b3:cd:58:f3:9d:54:75:ea:4f:a8:8b:63:
         b7:9e:67:5d:1a:74:2d:28:82:2a:cf:99:4b:cd:03:af:46:26:
         d5:3c:d0:69:3e:40:03:50:49:73:55:bc:30:81:61:2c:c4:f3:
         1b:f9:fd:3a:b3:92:6f:dc:62:b2:53:d6:55:43:7a:bf:24:4a:
         0c:04:bf:a0:0f:bc:01:e6:4f:cf:b9:71:ab:22:fa:21:3a:97:
         f2:99:7a:16:49:d4:d9:6e:56:47:a9:67:4e:aa:5c:c0:d1:c5:
         d6:16:59:44:cd:74:17:3c:39:7a:e5:72:2c:a3:11:48:95:18:
         f7:6f:7b:d2:92:f6:64:3b:41:33:ea:a7:d3:85:b0:a8:bb:7e:
         29:ec:b8:2f
-----BEGIN CERTIFICATE-----
MIIDXTCCAkWgAwIBAgIRAJ/Q8MYTzzMOvSbiETzaG2EwDQYJKoZIhvcNAQELBQAw
FjEUMBIGA1UEAwwLdGVhbTM0MC1uZXQwHhcNMjIwNTE4MjAzMDU4WhcNMjUwNTAy
MjAzMDU4WjAZMRcwFQYDVQQDDA50ZWFtMzQwLWNsaWVudDCCASIwDQYJKoZIhvcN
AQEBBQADggEPADCCAQoCggEBANiQMnk41JkpZAr/TDlO6Th0UI7bvWjXyuMBSbUA
NAIvmtQ+Dk7fRWUUYzU7ve3i3lFcNilbWKKdfLZvxI2UF2PtbfqNuawCHNhNiJ3C
1avxPRvqkXuUjIBGFhQI7TZMpRd5cKjpje9Ajit1jkKNS61XGbhWqRYgqZvlhnDj
1Nm5zOFrP8YDImBgKiMOhPNcK6Vgx+L3/a4Lwj0mY+bnVbXZSiFPPm/Z9RuEovDo
DtOByMNoJ++s5T9XBam1EbS0o4TT9yxx4XDt+oGHfrKRdutG2XY5dQ7NSnl9L51V
Sis6F/TNjNaV76jWh9JGe2vRI4cUZVTRUUXXcJr2MzAuvXMCAwEAAaOBojCBnzAJ
BgNVHRMEAjAAMB0GA1UdDgQWBBQcEt8m4xXBMLKasbjZQHQaTYKyWjBRBgNVHSME
SjBIgBTz4M3o+oGRMPguprHNV3/qTZXd7qEapBgwFjEUMBIGA1UEAwwLdGVhbTM0
MC1uZXSCFBXwuw+qjn6L7O62wpxIUBPwfcUIMBMGA1UdJQQMMAoGCCsGAQUFBwMC
MAsGA1UdDwQEAwIHgDANBgkqhkiG9w0BAQsFAAOCAQEASfJadvGiQKzvV/qBn8Bq
nHb+O8sV0sAud4qEY/84aw6cf+yY0Q2wvPODxuthpOblL3wHCgMV4Nz1ZBrdPnl+
xZr+QD1C3uHnGSoqATU9rCiN1y4hAdfsA19TKjtcsxKS5j8exUoLtpY71kvFnez8
HdCGs81Y851UdepPqItjt55nXRp0LSiCKs+ZS80Dr0Ym1TzQaT5AA1BJc1W8MIFh
LMTzG/n9OrOSb9xislPWVUN6vyRKDAS/oA+8AeZPz7lxqyL6ITqX8pl6FknU2W5W
R6lnTqpcwNHF1hZZRM10Fzw5euVyLKMRSJUY92970pL2ZDtBM+qn04WwqLt+Key4
Lw==
-----END CERTIFICATE-----
