Certificate:
    Data:
        Version: 3 (0x2)
        Serial Number:
            b8:ff:4b:cd:b6:d3:c3:f3:8f:6f:3f:c3:3e:87:3b:37
        Signature Algorithm: sha256WithRSAEncryption
        Issuer: CN=team340-net
        Validity
            Not Before: May 18 20:30:58 2022 GMT
            Not After : May  2 20:30:58 2025 GMT
        Subject: CN=team340-server
        Subject Public Key Info:
            Public Key Algorithm: rsaEncryption
                RSA Public-Key: (2048 bit)
                Modulus:
                    00:e0:3c:ff:b3:2e:cf:92:35:3a:2c:1c:e1:ac:e5:
                    2f:a9:99:a7:03:e6:bd:21:82:06:33:c3:90:a3:e5:
                    df:a4:6a:ab:6f:a0:b0:83:7b:ea:a9:8b:f3:23:d5:
                    b3:48:96:fb:d3:6b:8e:8c:74:76:01:b1:86:36:1a:
                    6d:ca:e6:9a:d7:26:78:26:6e:5b:de:f3:72:1d:f2:
                    32:ae:7d:a8:a8:39:4d:f7:a5:a1:07:0f:14:63:8e:
                    3c:25:c5:b5:5f:f1:93:5a:f3:52:f5:14:8b:87:7a:
                    52:74:86:53:0e:39:ec:91:4b:e8:72:f0:4e:2f:d9:
                    94:c2:e1:01:de:04:6e:ca:45:27:39:11:f1:a9:9c:
                    ac:59:c1:f7:db:41:a0:c2:f8:2a:46:91:0a:7d:54:
                    4c:3c:ca:14:99:f4:b5:47:97:76:8e:5d:fb:b0:6d:
                    8c:a1:d9:bc:d4:21:d2:61:41:2e:83:ec:8d:9f:3a:
                    79:62:09:2c:66:e5:02:ac:89:e2:22:71:09:e7:f8:
                    22:06:13:39:20:96:32:41:d0:9a:9b:62:e7:75:ab:
                    f1:77:d3:60:9f:90:fb:88:0a:b7:9e:b0:92:af:62:
                    60:99:e3:a7:ad:b1:c8:d6:d5:66:37:2d:84:aa:14:
                    8c:67:dc:40:d5:49:4c:81:1d:9b:ff:16:99:f6:3a:
                    7d:b3
                Exponent: 65537 (0x10001)
        X509v3 extensions:
            X509v3 Basic Constraints: 
                CA:FALSE
            X509v3 Subject Key Identifier: 
                F7:7D:D0:32:45:30:7B:98:CB:2E:CE:6F:DE:75:E6:AA:D9:24:C8:04
            X509v3 Authority Key Identifier: 
                keyid:F3:E0:CD:E8:FA:81:91:30:F8:2E:A6:B1:CD:57:7F:EA:4D:95:DD:EE
                DirName:/CN=team340-net
                serial:15:F0:BB:0F:AA:8E:7E:8B:EC:EE:B6:C2:9C:48:50:13:F0:7D:C5:08

            X509v3 Extended Key Usage: 
                TLS Web Server Authentication
            X509v3 Key Usage: 
                Digital Signature, Key Encipherment
            X509v3 Subject Alternative Name: 
                DNS:team340-server
    Signature Algorithm: sha256WithRSAEncryption
         16:31:d0:27:c5:2d:60:c0:2c:60:05:1b:af:0e:09:bd:bd:d7:
         7a:23:89:18:5b:46:e3:c9:65:2f:b7:8d:29:43:43:af:b7:85:
         28:2c:1c:ba:ce:c5:a2:e1:66:3f:f1:00:83:42:7a:85:9d:c6:
         cd:96:eb:15:c8:16:6a:37:c7:35:c6:1f:7b:7b:44:f9:1b:56:
         48:07:e1:96:ca:07:17:31:4a:6d:43:8a:02:24:71:20:9c:10:
         28:77:59:13:43:50:ca:d1:da:92:82:25:ff:d7:34:cc:4e:45:
         f1:8c:ce:cf:62:7c:be:06:38:ef:e4:a5:14:d6:48:46:c2:a8:
         fd:50:0d:9f:28:ae:4c:fb:4e:40:ba:3e:0f:ff:68:58:ba:c3:
         3d:54:21:23:43:d8:40:dd:07:d9:ec:4a:f3:bf:7e:ee:c6:1d:
         bc:d9:6f:48:f1:7c:ef:e3:8e:91:35:97:52:ba:8c:3a:a5:e0:
         9e:b2:78:5f:42:29:1e:67:55:1e:1f:e7:8a:dc:de:0b:48:ad:
         1d:be:a0:56:d9:b7:88:58:0e:c0:5f:0a:56:05:84:11:4a:d2:
         ea:e9:29:19:05:2d:13:41:4b:37:7a:6f:95:1c:70:35:36:35:
         51:2a:0e:35:6d:e1:f2:97:12:88:62:45:d3:6b:ac:26:90:de:
         48:c2:b0:eb
-----BEGIN CERTIFICATE-----
MIIDeDCCAmCgAwIBAgIRALj/S82208Pzj28/wz6HOzcwDQYJKoZIhvcNAQELBQAw
FjEUMBIGA1UEAwwLdGVhbTM0MC1uZXQwHhcNMjIwNTE4MjAzMDU4WhcNMjUwNTAy
MjAzMDU4WjAZMRcwFQYDVQQDDA50ZWFtMzQwLXNlcnZlcjCCASIwDQYJKoZIhvcN
AQEBBQADggEPADCCAQoCggEBAOA8/7Muz5I1Oiwc4azlL6mZpwPmvSGCBjPDkKPl
36Rqq2+gsIN76qmL8yPVs0iW+9Nrjox0dgGxhjYabcrmmtcmeCZuW97zch3yMq59
qKg5TfeloQcPFGOOPCXFtV/xk1rzUvUUi4d6UnSGUw457JFL6HLwTi/ZlMLhAd4E
bspFJzkR8amcrFnB99tBoML4KkaRCn1UTDzKFJn0tUeXdo5d+7BtjKHZvNQh0mFB
LoPsjZ86eWIJLGblAqyJ4iJxCef4IgYTOSCWMkHQmpti53Wr8XfTYJ+Q+4gKt56w
kq9iYJnjp62xyNbVZjcthKoUjGfcQNVJTIEdm/8WmfY6fbMCAwEAAaOBvTCBujAJ
BgNVHRMEAjAAMB0GA1UdDgQWBBT3fdAyRTB7mMsuzm/edeaq2STIBDBRBgNVHSME
SjBIgBTz4M3o+oGRMPguprHNV3/qTZXd7qEapBgwFjEUMBIGA1UEAwwLdGVhbTM0
MC1uZXSCFBXwuw+qjn6L7O62wpxIUBPwfcUIMBMGA1UdJQQMMAoGCCsGAQUFBwMB
MAsGA1UdDwQEAwIFoDAZBgNVHREEEjAQgg50ZWFtMzQwLXNlcnZlcjANBgkqhkiG
9w0BAQsFAAOCAQEAFjHQJ8UtYMAsYAUbrw4Jvb3XeiOJGFtG48llL7eNKUNDr7eF
KCwcus7FouFmP/EAg0J6hZ3GzZbrFcgWajfHNcYfe3tE+RtWSAfhlsoHFzFKbUOK
AiRxIJwQKHdZE0NQytHakoIl/9c0zE5F8YzOz2J8vgY47+SlFNZIRsKo/VANnyiu
TPtOQLo+D/9oWLrDPVQhI0PYQN0H2exK879+7sYdvNlvSPF87+OOkTWXUrqMOqXg
nrJ4X0IpHmdVHh/nitzeC0itHb6gVtm3iFgOwF8KVgWEEUrS6ukpGQUtE0FLN3pv
lRxwNTY1USoONW3h8pcSiGJF02usJpDeSMKw6w==
-----END CERTIFICATE-----
