Certificate:
    Data:
        Version: 3 (0x2)
        Serial Number:
            05:4d:71:06:8d:5a:21:c9:e3:60:9d:4c:77:88:e4:40
        Signature Algorithm: sha256WithRSAEncryption
        Issuer: CN=team485-net
        Validity
            Not Before: May 18 21:36:46 2022 GMT
            Not After : May  2 21:36:46 2025 GMT
        Subject: CN=team485-server
        Subject Public Key Info:
            Public Key Algorithm: rsaEncryption
                RSA Public-Key: (2048 bit)
                Modulus:
                    00:d6:5e:92:33:f2:42:ba:51:14:f0:1e:ac:df:30:
                    af:3d:a0:97:ce:38:50:12:ab:d4:b9:f7:8a:a0:97:
                    31:e1:3d:73:da:6b:f0:cc:f6:11:de:6d:19:7d:75:
                    88:ed:ef:12:66:8a:a8:7f:97:ab:f6:4d:6b:c4:6e:
                    31:29:4f:87:41:c2:69:3b:b5:1f:f2:4d:d6:eb:fb:
                    22:db:1d:43:31:d0:61:83:1e:35:b9:6c:78:3a:07:
                    e5:bf:0a:9c:2d:63:db:58:e4:43:bf:fd:9a:f5:b8:
                    65:80:86:c2:57:6b:1c:dd:75:36:21:e0:20:fe:3a:
                    39:82:d6:3e:b0:c5:76:24:1c:2f:12:13:6f:23:e4:
                    67:ca:2f:e3:5a:6d:36:02:96:50:a1:11:e8:73:73:
                    80:99:72:9a:5a:40:23:30:d8:2a:50:43:a7:61:17:
                    cb:23:58:fc:6e:74:42:1a:43:58:73:35:32:ae:01:
                    78:3d:37:0b:9f:3e:9c:87:59:4b:49:89:1a:8c:5e:
                    55:a4:7e:ef:22:f0:5d:f3:b2:fe:20:b4:ce:0f:9f:
                    c3:ad:ac:28:d7:8b:2f:0f:ee:6f:fb:2b:1c:82:37:
                    b4:30:b4:22:8e:24:cc:13:87:a1:5c:7e:e9:0a:59:
                    54:64:40:4b:4e:dd:59:18:55:7b:da:da:30:06:8c:
                    eb:27
                Exponent: 65537 (0x10001)
        X509v3 extensions:
            X509v3 Basic Constraints: 
                CA:FALSE
            X509v3 Subject Key Identifier: 
                77:5B:B6:9D:83:2A:32:3B:94:44:0A:71:0D:9E:4E:B9:E6:DD:37:F7
            X509v3 Authority Key Identifier: 
                keyid:13:3E:BD:75:8C:01:69:4D:72:E9:AD:93:27:E1:78:A8:DB:62:26:B2
                DirName:/CN=team485-net
                serial:50:42:4A:5D:CF:5C:E2:E2:DC:B6:DA:EC:4E:89:28:AA:8D:6E:8A:42

            X509v3 Extended Key Usage: 
                TLS Web Server Authentication
            X509v3 Key Usage: 
                Digital Signature, Key Encipherment
            X509v3 Subject Alternative Name: 
                DNS:team485-server
    Signature Algorithm: sha256WithRSAEncryption
         61:f4:89:69:1a:76:7e:b9:d6:49:33:b4:14:08:01:e9:f5:3b:
         36:79:b7:fe:7e:ee:02:1e:a7:c7:76:57:bf:3d:53:f6:a3:b8:
         e0:07:4c:31:3a:1d:ea:b5:2e:9e:20:3f:46:0d:36:07:40:48:
         d5:ff:e9:3f:f1:04:70:88:65:64:01:ad:57:c5:8d:d1:e9:e2:
         3e:b4:b5:4d:5e:41:a7:52:c1:c2:f1:86:6c:1c:b8:36:75:ca:
         d4:0c:e3:8d:30:ef:f4:02:56:83:f3:48:52:bb:44:6c:62:21:
         02:94:52:5f:a6:aa:57:5b:db:aa:1e:68:33:76:07:07:31:06:
         49:dc:2f:ee:04:51:b9:20:38:1a:6b:e3:7b:f7:6c:8e:18:07:
         34:d2:67:ef:10:69:d0:13:9a:07:cf:fa:d3:5c:b2:54:d9:8c:
         06:8b:c9:98:66:51:8b:25:13:ca:f7:f3:40:ca:cc:5b:79:c3:
         f3:eb:f7:b9:08:3b:e7:a6:d5:4e:1e:b7:43:5a:39:8f:a0:67:
         9e:07:09:26:58:31:38:ac:46:63:f0:dd:b8:57:39:6a:c8:fe:
         04:17:be:dc:37:a2:ed:99:3d:10:70:cd:08:f5:70:08:2e:9b:
         51:cb:95:d8:6a:d7:0e:ae:4e:26:77:c4:d7:cd:46:1d:eb:34:
         ac:b6:78:bb
-----BEGIN CERTIFICATE-----
MIIDdzCCAl+gAwIBAgIQBU1xBo1aIcnjYJ1Md4jkQDANBgkqhkiG9w0BAQsFADAW
MRQwEgYDVQQDDAt0ZWFtNDg1LW5ldDAeFw0yMjA1MTgyMTM2NDZaFw0yNTA1MDIy
MTM2NDZaMBkxFzAVBgNVBAMMDnRlYW00ODUtc2VydmVyMIIBIjANBgkqhkiG9w0B
AQEFAAOCAQ8AMIIBCgKCAQEA1l6SM/JCulEU8B6s3zCvPaCXzjhQEqvUufeKoJcx
4T1z2mvwzPYR3m0ZfXWI7e8SZoqof5er9k1rxG4xKU+HQcJpO7Uf8k3W6/si2x1D
MdBhgx41uWx4OgflvwqcLWPbWORDv/2a9bhlgIbCV2sc3XU2IeAg/jo5gtY+sMV2
JBwvEhNvI+Rnyi/jWm02ApZQoRHoc3OAmXKaWkAjMNgqUEOnYRfLI1j8bnRCGkNY
czUyrgF4PTcLnz6ch1lLSYkajF5VpH7vIvBd87L+ILTOD5/Drawo14svD+5v+ysc
gje0MLQijiTME4ehXH7pCllUZEBLTt1ZGFV72towBozrJwIDAQABo4G9MIG6MAkG
A1UdEwQCMAAwHQYDVR0OBBYEFHdbtp2DKjI7lEQKcQ2eTrnm3Tf3MFEGA1UdIwRK
MEiAFBM+vXWMAWlNcumtkyfheKjbYiayoRqkGDAWMRQwEgYDVQQDDAt0ZWFtNDg1
LW5ldIIUUEJKXc9c4uLcttrsTokoqo1uikIwEwYDVR0lBAwwCgYIKwYBBQUHAwEw
CwYDVR0PBAQDAgWgMBkGA1UdEQQSMBCCDnRlYW00ODUtc2VydmVyMA0GCSqGSIb3
DQEBCwUAA4IBAQBh9IlpGnZ+udZJM7QUCAHp9Ts2ebf+fu4CHqfHdle/PVP2o7jg
B0wxOh3qtS6eID9GDTYHQEjV/+k/8QRwiGVkAa1XxY3R6eI+tLVNXkGnUsHC8YZs
HLg2dcrUDOONMO/0AlaD80hSu0RsYiEClFJfpqpXW9uqHmgzdgcHMQZJ3C/uBFG5
IDgaa+N792yOGAc00mfvEGnQE5oHz/rTXLJU2YwGi8mYZlGLJRPK9/NAysxbecPz
6/e5CDvnptVOHrdDWjmPoGeeBwkmWDE4rEZj8N24VzlqyP4EF77cN6LtmT0QcM0I
9XAILptRy5XYatcOrk4md8TXzUYd6zSstni7
-----END CERTIFICATE-----
