Certificate:
    Data:
        Version: 3 (0x2)
        Serial Number:
            d9:28:4c:09:7d:f9:2f:0f:60:d5:5b:06:2f:21:50:4d
        Signature Algorithm: sha256WithRSAEncryption
        Issuer: CN=team485-net
        Validity
            Not Before: May 18 21:36:45 2022 GMT
            Not After : May  2 21:36:45 2025 GMT
        Subject: CN=team485-client
        Subject Public Key Info:
            Public Key Algorithm: rsaEncryption
                RSA Public-Key: (2048 bit)
                Modulus:
                    00:dc:4a:25:43:93:73:cd:cf:2f:64:cc:5b:e4:93:
                    e7:52:ff:a2:85:30:eb:fc:21:bd:bf:f3:41:e2:9f:
                    10:24:a1:b0:4c:28:94:6b:2e:d2:b4:4c:e6:98:ee:
                    3e:06:63:56:90:49:6d:82:7c:02:f2:46:1f:be:de:
                    79:ff:1c:d3:24:86:13:17:5a:e0:40:97:3d:59:3f:
                    9c:15:b8:e2:1b:43:e3:21:4b:c0:1e:0b:ea:82:0b:
                    40:56:bf:89:05:58:2a:9c:b8:16:eb:ea:d8:23:87:
                    46:d3:35:de:78:7a:c0:c1:29:86:ec:32:a1:97:21:
                    2a:00:96:d8:ae:92:cb:92:65:1f:58:59:c5:48:c5:
                    70:02:91:66:bb:2b:cd:e0:59:8d:fb:53:c4:c3:7a:
                    c7:a6:ee:31:db:4a:dc:29:50:cc:b8:45:04:8e:1f:
                    76:35:a9:ca:4c:fe:9c:9b:a9:f8:5c:6c:cf:96:4f:
                    f0:9b:d8:45:4d:98:e5:c6:d0:7e:10:0b:ec:c3:3a:
                    9f:37:f4:32:85:bd:f9:c7:51:a2:5a:c8:33:a4:25:
                    88:73:cb:b2:63:ec:16:8d:ee:3a:f5:2e:04:12:e8:
                    c7:3b:f4:93:a8:f5:70:be:7a:9b:d1:cd:dc:34:67:
                    d6:8a:6e:3a:9d:3b:27:f9:3e:9c:81:55:c6:9b:bf:
                    31:cd
                Exponent: 65537 (0x10001)
        X509v3 extensions:
            X509v3 Basic Constraints: 
                CA:FALSE
            X509v3 Subject Key Identifier: 
                98:7E:B8:5D:1C:36:E2:D9:84:47:5C:11:26:F3:6A:1F:FF:47:F4:70
            X509v3 Authority Key Identifier: 
                keyid:13:3E:BD:75:8C:01:69:4D:72:E9:AD:93:27:E1:78:A8:DB:62:26:B2
                DirName:/CN=team485-net
                serial:50:42:4A:5D:CF:5C:E2:E2:DC:B6:DA:EC:4E:89:28:AA:8D:6E:8A:42

            X509v3 Extended Key Usage: 
                TLS Web Client Authentication
            X509v3 Key Usage: 
                Digital Signature
    Signature Algorithm: sha256WithRSAEncryption
         3f:30:48:36:4a:b8:e5:cb:74:0d:a1:92:42:33:15:64:8b:bf:
         4c:15:9c:4b:84:c2:de:3a:7e:c7:b9:6b:ca:80:28:fc:e3:05:
         4c:e9:e1:a1:0f:88:2e:ec:47:48:a6:83:92:7b:ae:d6:8f:39:
         74:71:c8:d8:31:77:60:0a:79:6e:7a:f1:d8:1a:75:f8:62:22:
         85:90:fd:c7:f8:3f:e2:e9:e7:06:0b:1f:0d:2f:72:ff:86:1f:
         c3:e1:c5:9d:12:bd:ec:32:f6:68:69:4e:02:4b:41:52:87:89:
         ce:99:80:b1:50:48:9e:81:87:69:71:1c:55:2e:c7:e9:cc:b3:
         4d:e0:c0:da:e4:07:fa:88:e5:49:3a:c1:9a:cf:c0:9d:31:99:
         74:f9:d2:eb:fe:5b:1d:94:4c:6c:ee:79:b8:29:e5:8d:99:cb:
         1d:42:c7:13:a5:f7:8e:f7:4e:f2:dd:54:55:31:b3:62:6c:5f:
         99:e8:91:ac:26:4c:d6:81:20:18:eb:1b:aa:e5:74:b8:19:20:
         89:1d:3c:af:89:05:20:b6:25:f9:e8:f0:98:19:52:4e:87:55:
         2b:6a:9c:1b:7b:e2:5b:b3:2b:85:69:5e:93:19:d5:e8:52:02:
         b4:a3:18:48:b8:5d:82:0c:b9:ff:ca:e9:ef:3f:54:ff:49:77:
         b0:03:0f:28
-----BEGIN CERTIFICATE-----
MIIDXTCCAkWgAwIBAgIRANkoTAl9+S8PYNVbBi8hUE0wDQYJKoZIhvcNAQELBQAw
FjEUMBIGA1UEAwwLdGVhbTQ4NS1uZXQwHhcNMjIwNTE4MjEzNjQ1WhcNMjUwNTAy
MjEzNjQ1WjAZMRcwFQYDVQQDDA50ZWFtNDg1LWNsaWVudDCCASIwDQYJKoZIhvcN
AQEBBQADggEPADCCAQoCggEBANxKJUOTc83PL2TMW+ST51L/ooUw6/whvb/zQeKf
ECShsEwolGsu0rRM5pjuPgZjVpBJbYJ8AvJGH77eef8c0ySGExda4ECXPVk/nBW4
4htD4yFLwB4L6oILQFa/iQVYKpy4Fuvq2COHRtM13nh6wMEphuwyoZchKgCW2K6S
y5JlH1hZxUjFcAKRZrsrzeBZjftTxMN6x6buMdtK3ClQzLhFBI4fdjWpykz+nJup
+Fxsz5ZP8JvYRU2Y5cbQfhAL7MM6nzf0MoW9+cdRolrIM6QliHPLsmPsFo3uOvUu
BBLoxzv0k6j1cL56m9HN3DRn1opuOp07J/k+nIFVxpu/Mc0CAwEAAaOBojCBnzAJ
BgNVHRMEAjAAMB0GA1UdDgQWBBSYfrhdHDbi2YRHXBEm82of/0f0cDBRBgNVHSME
SjBIgBQTPr11jAFpTXLprZMn4Xio22ImsqEapBgwFjEUMBIGA1UEAwwLdGVhbTQ4
NS1uZXSCFFBCSl3PXOLi3Lba7E6JKKqNbopCMBMGA1UdJQQMMAoGCCsGAQUFBwMC
MAsGA1UdDwQEAwIHgDANBgkqhkiG9w0BAQsFAAOCAQEAPzBINkq45ct0DaGSQjMV
ZIu/TBWcS4TC3jp+x7lryoAo/OMFTOnhoQ+ILuxHSKaDknuu1o85dHHI2DF3YAp5
bnrx2Bp1+GIihZD9x/g/4unnBgsfDS9y/4Yfw+HFnRK97DL2aGlOAktBUoeJzpmA
sVBInoGHaXEcVS7H6cyzTeDA2uQH+ojlSTrBms/AnTGZdPnS6/5bHZRMbO55uCnl
jZnLHULHE6X3jvdO8t1UVTGzYmxfmeiRrCZM1oEgGOsbquV0uBkgiR08r4kFILYl
+ejwmBlSTodVK2qcG3viW7MrhWlekxnV6FICtKMYSLhdggy5/8rp7z9U/0l3sAMP
KA==
-----END CERTIFICATE-----
