Certificate:
    Data:
        Version: 3 (0x2)
        Serial Number:
            19:a1:1a:f2:f1:e1:56:f2:7a:d6:65:a5:05:84:5f:58
        Signature Algorithm: sha256WithRSAEncryption
        Issuer: CN=team466-net
        Validity
            Not Before: May 18 21:32:15 2022 GMT
            Not After : May  2 21:32:15 2025 GMT
        Subject: CN=team466-server
        Subject Public Key Info:
            Public Key Algorithm: rsaEncryption
                RSA Public-Key: (2048 bit)
                Modulus:
                    00:c8:53:67:a0:4c:50:c7:33:f8:89:de:71:77:cf:
                    be:2b:c3:a7:e7:f9:2e:c7:9b:06:42:0e:20:f6:f4:
                    28:96:36:41:d4:88:ff:b6:13:ee:b7:f8:54:e5:3f:
                    00:19:cb:a5:8d:c5:13:1e:a5:db:fd:df:50:3b:0e:
                    84:b3:bb:93:d1:5d:26:08:8e:8b:73:cd:42:ad:bb:
                    48:65:77:10:01:39:25:c8:88:d3:aa:eb:3d:92:1a:
                    50:84:98:be:60:39:83:24:cc:f1:4e:3a:8f:dd:86:
                    1a:38:a5:58:eb:0e:23:bb:fd:50:a3:72:ac:38:d8:
                    fd:34:e2:3c:27:8a:dc:88:ba:6a:3f:f6:0a:be:7c:
                    bc:ea:84:91:c2:f9:0d:88:38:73:1a:05:32:2f:2f:
                    49:b6:ae:35:db:04:16:6d:fa:7e:3d:e4:1a:1d:6e:
                    e4:86:ef:1c:6f:46:b3:d1:1f:7b:29:38:7f:fc:32:
                    be:53:12:2f:2e:28:44:c3:67:84:97:79:53:da:12:
                    6e:8f:f3:dd:00:fc:62:69:8b:ac:17:6e:76:99:e3:
                    3f:5b:aa:52:4d:56:39:d0:cc:82:e7:c8:73:5b:ae:
                    c6:6b:15:c4:3a:53:99:d4:a7:f2:57:83:a4:e9:3b:
                    35:b9:f3:a5:65:13:4c:78:06:8e:f4:02:19:ba:a0:
                    59:3f
                Exponent: 65537 (0x10001)
        X509v3 extensions:
            X509v3 Basic Constraints: 
                CA:FALSE
            X509v3 Subject Key Identifier: 
                35:3C:29:37:E0:86:73:63:05:41:EF:F7:91:5A:28:07:17:59:0E:74
            X509v3 Authority Key Identifier: 
                keyid:47:70:B1:D3:64:38:44:C9:FE:85:05:3C:52:B1:A4:C6:9F:AC:F5:BA
                DirName:/CN=team466-net
                serial:3B:01:BC:59:86:B3:83:E8:28:B3:36:A2:35:23:52:A1:5E:FC:3E:0A

            X509v3 Extended Key Usage: 
                TLS Web Server Authentication
            X509v3 Key Usage: 
                Digital Signature, Key Encipherment
            X509v3 Subject Alternative Name: 
                DNS:team466-server
    Signature Algorithm: sha256WithRSAEncryption
         91:49:b5:e0:34:4c:1e:e3:ec:56:a1:02:18:0f:c9:5a:9d:b2:
         ef:f1:3f:30:f3:5b:a2:de:dd:2c:49:73:17:4f:a7:b2:cb:e3:
         05:07:36:59:4e:7e:13:89:38:0d:6a:e1:e2:18:d3:dd:53:3e:
         0c:94:b3:45:55:95:63:1f:2c:f0:3f:df:ab:b1:ac:69:ea:e2:
         00:31:f1:de:b9:a4:f9:f8:ec:dc:ad:c0:6e:47:d4:59:28:2e:
         3f:db:ce:a6:47:8d:03:71:57:05:ce:09:b1:09:c2:70:60:21:
         7c:80:7d:0c:e5:1f:76:74:25:c8:28:9c:3c:bd:23:81:d2:88:
         2c:2a:f3:f1:bb:d1:4a:e1:ec:1a:d2:7b:fb:91:53:28:96:3e:
         01:31:86:9c:f7:64:8d:2b:c7:51:e7:90:7f:79:b7:ff:0a:b6:
         62:ac:81:79:41:62:81:77:3f:ba:62:a6:06:7b:42:7b:97:7b:
         4e:cc:8e:cb:23:80:93:e0:05:07:b7:9b:d1:b8:63:a6:0c:54:
         c9:5d:49:6e:de:38:3b:14:47:2f:5f:74:fa:57:f9:f2:56:f0:
         68:10:eb:80:f1:4b:43:d1:be:1d:c2:ae:12:22:69:63:a5:22:
         e6:13:d0:6d:9f:94:85:a5:05:38:3c:12:7f:18:37:a2:70:22:
         db:79:1c:0c
-----BEGIN CERTIFICATE-----
MIIDdzCCAl+gAwIBAgIQGaEa8vHhVvJ61mWlBYRfWDANBgkqhkiG9w0BAQsFADAW
MRQwEgYDVQQDDAt0ZWFtNDY2LW5ldDAeFw0yMjA1MTgyMTMyMTVaFw0yNTA1MDIy
MTMyMTVaMBkxFzAVBgNVBAMMDnRlYW00NjYtc2VydmVyMIIBIjANBgkqhkiG9w0B
AQEFAAOCAQ8AMIIBCgKCAQEAyFNnoExQxzP4id5xd8++K8On5/kux5sGQg4g9vQo
ljZB1Ij/thPut/hU5T8AGculjcUTHqXb/d9QOw6Es7uT0V0mCI6Lc81CrbtIZXcQ
ATklyIjTqus9khpQhJi+YDmDJMzxTjqP3YYaOKVY6w4ju/1Qo3KsONj9NOI8J4rc
iLpqP/YKvny86oSRwvkNiDhzGgUyLy9Jtq412wQWbfp+PeQaHW7khu8cb0az0R97
KTh//DK+UxIvLihEw2eEl3lT2hJuj/PdAPxiaYusF252meM/W6pSTVY50MyC58hz
W67GaxXEOlOZ1KfyV4Ok6Ts1ufOlZRNMeAaO9AIZuqBZPwIDAQABo4G9MIG6MAkG
A1UdEwQCMAAwHQYDVR0OBBYEFDU8KTfghnNjBUHv95FaKAcXWQ50MFEGA1UdIwRK
MEiAFEdwsdNkOETJ/oUFPFKxpMafrPW6oRqkGDAWMRQwEgYDVQQDDAt0ZWFtNDY2
LW5ldIIUOwG8WYazg+goszaiNSNSoV78PgowEwYDVR0lBAwwCgYIKwYBBQUHAwEw
CwYDVR0PBAQDAgWgMBkGA1UdEQQSMBCCDnRlYW00NjYtc2VydmVyMA0GCSqGSIb3
DQEBCwUAA4IBAQCRSbXgNEwe4+xWoQIYD8lanbLv8T8w81ui3t0sSXMXT6eyy+MF
BzZZTn4TiTgNauHiGNPdUz4MlLNFVZVjHyzwP9+rsaxp6uIAMfHeuaT5+OzcrcBu
R9RZKC4/286mR40DcVcFzgmxCcJwYCF8gH0M5R92dCXIKJw8vSOB0ogsKvPxu9FK
4ewa0nv7kVMolj4BMYac92SNK8dR55B/ebf/CrZirIF5QWKBdz+6YqYGe0J7l3tO
zI7LI4CT4AUHt5vRuGOmDFTJXUlu3jg7FEcvX3T6V/nyVvBoEOuA8UtD0b4dwq4S
ImljpSLmE9Btn5SFpQU4PBJ/GDeicCLbeRwM
-----END CERTIFICATE-----
