Certificate:
    Data:
        Version: 3 (0x2)
        Serial Number:
            90:4f:91:42:97:8c:8b:ab:70:be:3c:3a:ed:f2:8b:61
        Signature Algorithm: sha256WithRSAEncryption
        Issuer: CN=team443-net
        Validity
            Not Before: May 18 21:17:56 2022 GMT
            Not After : May  2 21:17:56 2025 GMT
        Subject: CN=team443-client
        Subject Public Key Info:
            Public Key Algorithm: rsaEncryption
                RSA Public-Key: (2048 bit)
                Modulus:
                    00:d3:2d:c6:f9:31:cb:03:51:af:a0:21:74:cc:87:
                    a7:9b:5f:be:28:56:8a:fb:21:fa:b6:5c:0c:b2:d1:
                    49:86:8b:f5:9e:52:49:32:d6:cd:28:c2:c0:99:70:
                    62:a1:00:a5:9a:58:33:c4:93:ec:6c:12:ca:70:0b:
                    20:3e:7d:0f:7d:2c:92:f2:36:77:50:df:d9:3c:1f:
                    ef:69:27:8b:45:3b:6a:68:0c:2c:dc:91:8a:21:bf:
                    ad:c1:b3:6e:4d:af:4a:e3:ec:ad:fa:12:60:b6:42:
                    40:e8:54:39:ec:19:85:74:10:05:22:eb:4d:fd:41:
                    92:52:cf:16:2d:50:c7:8a:08:f0:60:ef:d6:08:7a:
                    fa:56:30:20:de:76:81:d2:58:4b:41:25:4f:bc:0e:
                    5f:25:bc:e7:89:7c:4a:11:0e:b9:a3:b4:fb:2a:63:
                    46:97:83:fd:e9:b3:78:e6:23:31:5d:ee:a7:3d:1f:
                    6a:46:09:ce:51:82:ad:ec:9c:30:1d:8e:31:78:9a:
                    42:8f:9b:bc:63:cd:4c:dd:d4:41:b2:b5:b7:49:31:
                    4a:1a:b4:6b:b2:d3:02:74:5a:2f:10:bc:5f:98:f3:
                    2b:34:94:d4:9a:ee:cc:aa:4a:31:b8:bb:3a:5d:82:
                    cb:e0:f4:b1:2b:be:6b:d9:1e:aa:87:28:be:fc:16:
                    3a:cb
                Exponent: 65537 (0x10001)
        X509v3 extensions:
            X509v3 Basic Constraints: 
                CA:FALSE
            X509v3 Subject Key Identifier: 
                ED:EC:E3:C7:EF:B9:44:1D:CD:F8:39:BE:F5:C7:31:33:47:69:4A:5C
            X509v3 Authority Key Identifier: 
                keyid:B7:7D:5D:F9:58:4C:07:40:AA:24:99:04:AF:0A:22:BD:22:6C:2A:4D
                DirName:/CN=team443-net
                serial:52:87:A2:E8:37:84:1B:EA:73:D2:61:22:0B:B3:BC:62:CA:2C:4C:62

            X509v3 Extended Key Usage: 
                TLS Web Client Authentication
            X509v3 Key Usage: 
                Digital Signature
    Signature Algorithm: sha256WithRSAEncryption
         90:84:d2:76:bf:06:7f:bb:26:6c:9b:bf:c2:45:be:6c:b7:5f:
         1c:62:2e:10:55:e8:5c:67:e1:a1:93:bb:b0:0c:2c:1c:3d:f5:
         26:41:be:d9:be:c9:11:86:ec:24:2a:b3:d4:86:2d:0d:89:39:
         cc:35:d5:aa:b4:a5:cc:2a:f1:f6:2a:9b:95:65:8f:96:c9:21:
         0d:8d:90:9b:bb:f1:d0:ee:62:0e:a7:a6:36:ab:ad:b2:03:3c:
         ae:8f:7a:3f:1e:b1:41:d8:30:68:66:a4:5f:b2:e7:9e:3d:1f:
         34:79:b8:ea:5a:35:c6:53:78:b3:f3:c7:83:a2:13:b8:e5:29:
         8a:ca:5c:b3:59:6f:e6:e1:c4:87:77:52:8f:f2:9c:14:7d:1c:
         be:1a:a7:9c:f2:21:d5:98:0b:22:d0:62:02:22:05:1b:e6:fe:
         57:cc:a6:a8:58:15:64:68:b5:3e:3a:e3:9d:8f:07:ef:00:b5:
         d6:8d:37:db:5c:5b:18:3e:d7:b2:64:e9:4d:7d:fa:b3:e8:6e:
         cb:6b:29:da:4d:39:1f:ce:83:c2:54:4c:a0:21:30:c6:d3:3a:
         8b:26:8b:ea:06:f0:62:0a:f8:47:86:c4:64:12:46:00:a9:37:
         20:57:72:58:16:8c:fb:07:e8:d0:58:06:bd:c5:23:ff:e4:c9:
         c9:9b:7b:29
-----BEGIN CERTIFICATE-----
MIIDXTCCAkWgAwIBAgIRAJBPkUKXjIurcL48Ou3yi2EwDQYJKoZIhvcNAQELBQAw
FjEUMBIGA1UEAwwLdGVhbTQ0My1uZXQwHhcNMjIwNTE4MjExNzU2WhcNMjUwNTAy
MjExNzU2WjAZMRcwFQYDVQQDDA50ZWFtNDQzLWNsaWVudDCCASIwDQYJKoZIhvcN
AQEBBQADggEPADCCAQoCggEBANMtxvkxywNRr6AhdMyHp5tfvihWivsh+rZcDLLR
SYaL9Z5SSTLWzSjCwJlwYqEApZpYM8ST7GwSynALID59D30skvI2d1Df2Twf72kn
i0U7amgMLNyRiiG/rcGzbk2vSuPsrfoSYLZCQOhUOewZhXQQBSLrTf1BklLPFi1Q
x4oI8GDv1gh6+lYwIN52gdJYS0ElT7wOXyW854l8ShEOuaO0+ypjRpeD/emzeOYj
MV3upz0fakYJzlGCreycMB2OMXiaQo+bvGPNTN3UQbK1t0kxShq0a7LTAnRaLxC8
X5jzKzSU1JruzKpKMbi7Ol2Cy+D0sSu+a9keqocovvwWOssCAwEAAaOBojCBnzAJ
BgNVHRMEAjAAMB0GA1UdDgQWBBTt7OPH77lEHc34Ob71xzEzR2lKXDBRBgNVHSME
SjBIgBS3fV35WEwHQKokmQSvCiK9ImwqTaEapBgwFjEUMBIGA1UEAwwLdGVhbTQ0
My1uZXSCFFKHoug3hBvqc9JhIguzvGLKLExiMBMGA1UdJQQMMAoGCCsGAQUFBwMC
MAsGA1UdDwQEAwIHgDANBgkqhkiG9w0BAQsFAAOCAQEAkITSdr8Gf7smbJu/wkW+
bLdfHGIuEFXoXGfhoZO7sAwsHD31JkG+2b7JEYbsJCqz1IYtDYk5zDXVqrSlzCrx
9iqblWWPlskhDY2Qm7vx0O5iDqemNqutsgM8ro96Px6xQdgwaGakX7Lnnj0fNHm4
6lo1xlN4s/PHg6ITuOUpispcs1lv5uHEh3dSj/KcFH0cvhqnnPIh1ZgLItBiAiIF
G+b+V8ymqFgVZGi1PjrjnY8H7wC11o0321xbGD7XsmTpTX36s+huy2sp2k05H86D
wlRMoCEwxtM6iyaL6gbwYgr4R4bEZBJGAKk3IFdyWBaM+wfo0FgGvcUj/+TJyZt7
KQ==
-----END CERTIFICATE-----
