Certificate:
    Data:
        Version: 3 (0x2)
        Serial Number:
            13:f4:b2:a9:50:b0:ca:b0:57:32:9f:6a:8f:45:8f:ae
        Signature Algorithm: sha256WithRSAEncryption
        Issuer: CN=team267-net
        Validity
            Not Before: May 18 19:38:23 2022 GMT
            Not After : May  2 19:38:23 2025 GMT
        Subject: CN=team267-server
        Subject Public Key Info:
            Public Key Algorithm: rsaEncryption
                RSA Public-Key: (2048 bit)
                Modulus:
                    00:d9:3b:e0:2e:37:a3:dd:bf:c6:23:c4:de:f8:80:
                    84:9c:36:ca:f7:47:42:4a:33:cf:f6:27:b6:59:10:
                    9d:22:27:7c:b2:34:6e:e5:c9:d4:11:b7:3e:3e:83:
                    ca:35:34:6b:32:cd:9f:b5:5c:56:4f:1e:cb:14:f4:
                    e5:fe:88:58:c9:0e:ab:f2:33:e0:9f:58:06:d6:7f:
                    96:8f:65:85:92:45:ad:a4:2f:f3:78:74:45:0b:d0:
                    d0:dd:78:e6:7f:8d:de:d7:52:0e:4c:f2:6a:34:42:
                    21:fe:53:5b:72:93:f4:a3:f9:21:f9:01:62:0c:0f:
                    de:4e:cc:86:90:e1:aa:0a:15:04:28:cc:cd:67:d9:
                    07:0a:5e:62:b1:97:e8:c1:03:ea:8f:85:d0:c1:82:
                    85:a1:1a:f0:5f:14:dc:f1:d1:03:8c:ac:b5:e3:4e:
                    e9:e9:5c:8e:71:ee:84:80:ba:78:18:aa:05:d7:40:
                    4f:2b:4b:46:9b:b6:48:1f:a1:26:86:29:17:bb:c2:
                    23:09:e8:a7:15:2c:1a:f1:29:f1:90:70:04:2c:ba:
                    b8:51:57:7a:d9:fd:6e:10:53:c8:10:2b:06:23:2d:
                    0e:41:30:e6:10:07:0d:2c:7a:92:f6:0d:79:50:d2:
                    74:f9:4b:73:ed:ae:f8:79:22:93:11:ec:23:96:23:
                    c1:45
                Exponent: 65537 (0x10001)
        X509v3 extensions:
            X509v3 Basic Constraints: 
                CA:FALSE
            X509v3 Subject Key Identifier: 
                BE:2A:1A:AF:C5:CF:2E:74:7F:0D:80:71:10:85:C5:B0:84:DB:DA:A6
            X509v3 Authority Key Identifier: 
                keyid:90:C4:FA:48:9B:30:FA:93:E0:08:3B:58:4C:51:B2:64:B0:2B:3F:A8
                DirName:/CN=team267-net
                serial:18:BE:05:C5:5C:94:F8:E9:26:7A:08:34:2C:1B:EF:A9:25:1A:F7:D1

            X509v3 Extended Key Usage: 
                TLS Web Server Authentication
            X509v3 Key Usage: 
                Digital Signature, Key Encipherment
            X509v3 Subject Alternative Name: 
                DNS:team267-server
    Signature Algorithm: sha256WithRSAEncryption
         2c:b0:a5:68:50:1f:20:4e:9c:dd:29:54:01:1a:cf:89:24:69:
         66:f1:2b:95:26:a0:d3:65:6c:f7:2a:0a:53:e9:34:58:4c:29:
         fd:a3:95:f4:6b:f7:26:60:87:5d:32:84:17:06:4b:07:a2:a1:
         9a:42:d5:1c:36:5e:ef:5d:18:86:2a:e6:9b:01:e7:4d:d9:af:
         a4:40:60:cf:34:42:91:ed:71:61:d0:44:6f:58:07:49:b3:92:
         41:91:83:73:05:01:23:14:73:89:7a:17:0d:41:35:9e:4c:eb:
         51:4c:0d:2d:e1:09:09:ec:e7:a4:d8:f1:96:9e:62:65:5e:5e:
         b9:c6:e0:76:38:49:8e:a8:ac:d0:10:cf:2c:ea:9e:96:59:5c:
         60:94:97:1b:d7:14:88:fe:92:81:96:c9:c0:6b:5f:cd:33:a1:
         67:0d:ac:d6:47:06:ea:78:16:26:82:e0:d3:f6:2d:26:28:2b:
         1f:dc:3e:82:49:30:c4:9d:c8:c7:e9:08:fc:ab:1a:e3:83:af:
         e5:01:c6:83:96:b4:af:df:c7:20:84:10:67:38:1d:0a:64:a3:
         df:85:d8:12:c2:b4:1c:50:15:1e:29:a3:b7:27:5d:2e:55:b2:
         4c:c8:ec:a7:77:c9:e8:27:7f:0e:02:d6:e3:9a:b8:17:d2:42:
         64:8d:9a:e0
-----BEGIN CERTIFICATE-----
MIIDdzCCAl+gAwIBAgIQE/SyqVCwyrBXMp9qj0WPrjANBgkqhkiG9w0BAQsFADAW
MRQwEgYDVQQDDAt0ZWFtMjY3LW5ldDAeFw0yMjA1MTgxOTM4MjNaFw0yNTA1MDIx
OTM4MjNaMBkxFzAVBgNVBAMMDnRlYW0yNjctc2VydmVyMIIBIjANBgkqhkiG9w0B
AQEFAAOCAQ8AMIIBCgKCAQEA2TvgLjej3b/GI8Te+ICEnDbK90dCSjPP9ie2WRCd
Iid8sjRu5cnUEbc+PoPKNTRrMs2ftVxWTx7LFPTl/ohYyQ6r8jPgn1gG1n+Wj2WF
kkWtpC/zeHRFC9DQ3Xjmf43e11IOTPJqNEIh/lNbcpP0o/kh+QFiDA/eTsyGkOGq
ChUEKMzNZ9kHCl5isZfowQPqj4XQwYKFoRrwXxTc8dEDjKy1407p6VyOce6EgLp4
GKoF10BPK0tGm7ZIH6EmhikXu8IjCeinFSwa8SnxkHAELLq4UVd62f1uEFPIECsG
Iy0OQTDmEAcNLHqS9g15UNJ0+Utz7a74eSKTEewjliPBRQIDAQABo4G9MIG6MAkG
A1UdEwQCMAAwHQYDVR0OBBYEFL4qGq/Fzy50fw2AcRCFxbCE29qmMFEGA1UdIwRK
MEiAFJDE+kibMPqT4Ag7WExRsmSwKz+ooRqkGDAWMRQwEgYDVQQDDAt0ZWFtMjY3
LW5ldIIUGL4FxVyU+Okmegg0LBvvqSUa99EwEwYDVR0lBAwwCgYIKwYBBQUHAwEw
CwYDVR0PBAQDAgWgMBkGA1UdEQQSMBCCDnRlYW0yNjctc2VydmVyMA0GCSqGSIb3
DQEBCwUAA4IBAQAssKVoUB8gTpzdKVQBGs+JJGlm8SuVJqDTZWz3KgpT6TRYTCn9
o5X0a/cmYIddMoQXBksHoqGaQtUcNl7vXRiGKuabAedN2a+kQGDPNEKR7XFh0ERv
WAdJs5JBkYNzBQEjFHOJehcNQTWeTOtRTA0t4QkJ7Oek2PGWnmJlXl65xuB2OEmO
qKzQEM8s6p6WWVxglJcb1xSI/pKBlsnAa1/NM6FnDazWRwbqeBYmguDT9i0mKCsf
3D6CSTDEncjH6Qj8qxrjg6/lAcaDlrSv38cghBBnOB0KZKPfhdgSwrQcUBUeKaO3
J10uVbJMyOynd8noJ38OAtbjmrgX0kJkjZrg
-----END CERTIFICATE-----
