Certificate:
    Data:
        Version: 3 (0x2)
        Serial Number:
            9c:5c:e3:b5:07:34:eb:8d:7f:ad:85:77:f2:8f:e9:24
        Signature Algorithm: sha256WithRSAEncryption
        Issuer: CN=team635-net
        Validity
            Not Before: May 18 23:10:04 2022 GMT
            Not After : May  2 23:10:04 2025 GMT
        Subject: CN=team635-client
        Subject Public Key Info:
            Public Key Algorithm: rsaEncryption
                RSA Public-Key: (2048 bit)
                Modulus:
                    00:a6:aa:fe:e3:3f:58:d4:31:19:73:13:e3:38:44:
                    17:d4:94:cf:60:44:31:25:64:04:09:70:b3:a9:4b:
                    9a:ac:2b:9e:dd:62:33:81:57:75:a9:28:11:a4:2b:
                    67:91:a3:fb:07:c5:1e:be:16:55:ca:8d:ae:c0:77:
                    f6:c6:db:3e:a7:5d:9e:53:db:23:d7:bc:be:86:21:
                    a0:bc:d2:4a:69:86:87:2b:10:b0:9c:04:1f:31:ff:
                    6e:b2:29:73:22:eb:18:87:3a:dd:06:0c:68:14:d7:
                    54:8d:d7:fb:38:af:f1:d3:50:b4:ac:08:1b:2b:15:
                    04:54:c2:20:49:3a:16:76:0d:7a:bf:70:8f:32:98:
                    30:22:eb:f3:5f:19:f1:fe:a3:1e:ec:86:34:b6:cc:
                    73:46:48:f3:ad:a3:46:c8:06:13:6b:84:fd:a5:59:
                    34:78:de:1e:a5:5a:cc:f9:ec:e4:77:7f:be:f1:00:
                    30:75:21:72:ca:2a:e3:aa:2f:79:5e:97:74:61:80:
                    fc:ec:8b:96:05:59:e7:d2:c2:c2:1e:2a:ae:79:99:
                    dd:76:0c:50:a6:30:88:e9:5a:a4:48:7d:1e:16:c5:
                    93:21:39:ef:6b:a4:4d:49:a7:78:c1:78:0a:d0:43:
                    e6:dc:49:b8:a8:f2:3b:4b:d6:b0:c7:66:d7:01:a1:
                    7f:95
                Exponent: 65537 (0x10001)
        X509v3 extensions:
            X509v3 Basic Constraints: 
                CA:FALSE
            X509v3 Subject Key Identifier: 
                24:61:4E:02:97:9C:3B:57:85:69:F7:1E:20:11:C6:D8:06:7D:6F:65
            X509v3 Authority Key Identifier: 
                keyid:EE:51:C9:5B:1B:AF:28:65:35:C5:75:8D:E0:61:C4:AA:64:09:1A:59
                DirName:/CN=team635-net
                serial:06:92:98:6C:21:15:27:9C:A8:C0:EA:EC:B9:4D:39:B5:A5:9C:0A:3D

            X509v3 Extended Key Usage: 
                TLS Web Client Authentication
            X509v3 Key Usage: 
                Digital Signature
    Signature Algorithm: sha256WithRSAEncryption
         af:2d:56:98:65:67:cf:d1:60:3e:a8:24:e2:93:51:80:c9:90:
         5f:a1:24:77:4a:cc:c4:31:82:46:c0:0e:0d:a9:83:da:f2:14:
         37:3f:54:76:37:04:01:83:61:da:ff:c3:ce:60:e1:f0:3b:aa:
         40:e1:8f:19:f1:b2:b4:0c:1c:20:19:21:57:0c:ad:a1:5b:43:
         94:f1:2a:7c:24:f6:18:2d:9f:90:84:df:da:11:bd:1d:df:40:
         a1:5d:dd:be:4e:fe:82:d2:0c:91:77:a9:96:3a:52:da:63:3a:
         a4:a7:2d:20:3d:bf:30:31:38:f1:cf:53:03:db:9e:73:aa:8b:
         c7:d7:0b:59:72:6d:d0:77:c5:53:f9:52:10:57:e6:81:a3:c4:
         d9:3d:0c:a2:f5:14:6c:f7:2a:40:8f:cf:99:03:26:67:96:e1:
         28:f8:26:5b:09:f1:ab:51:f6:eb:f4:91:b3:3d:e8:e1:b0:d0:
         6b:bc:e1:bc:bb:b1:ec:6b:64:75:7e:bc:96:ab:b3:62:96:19:
         bb:08:a2:16:80:e7:0c:b0:ab:b5:3f:d2:39:e9:4c:8e:39:1b:
         86:a7:d2:2d:0c:f3:c2:17:84:30:61:0e:08:6e:b1:86:21:bf:
         84:70:c9:62:72:e6:3a:29:c7:24:84:bc:50:80:0a:2e:71:5c:
         74:48:e8:18
-----BEGIN CERTIFICATE-----
MIIDXTCCAkWgAwIBAgIRAJxc47UHNOuNf62Fd/KP6SQwDQYJKoZIhvcNAQELBQAw
FjEUMBIGA1UEAwwLdGVhbTYzNS1uZXQwHhcNMjIwNTE4MjMxMDA0WhcNMjUwNTAy
MjMxMDA0WjAZMRcwFQYDVQQDDA50ZWFtNjM1LWNsaWVudDCCASIwDQYJKoZIhvcN
AQEBBQADggEPADCCAQoCggEBAKaq/uM/WNQxGXMT4zhEF9SUz2BEMSVkBAlws6lL
mqwrnt1iM4FXdakoEaQrZ5Gj+wfFHr4WVcqNrsB39sbbPqddnlPbI9e8voYhoLzS
SmmGhysQsJwEHzH/brIpcyLrGIc63QYMaBTXVI3X+ziv8dNQtKwIGysVBFTCIEk6
FnYNer9wjzKYMCLr818Z8f6jHuyGNLbMc0ZI862jRsgGE2uE/aVZNHjeHqVazPns
5Hd/vvEAMHUhcsoq46oveV6XdGGA/OyLlgVZ59LCwh4qrnmZ3XYMUKYwiOlapEh9
HhbFkyE572ukTUmneMF4CtBD5txJuKjyO0vWsMdm1wGhf5UCAwEAAaOBojCBnzAJ
BgNVHRMEAjAAMB0GA1UdDgQWBBQkYU4Cl5w7V4Vp9x4gEcbYBn1vZTBRBgNVHSME
SjBIgBTuUclbG68oZTXFdY3gYcSqZAkaWaEapBgwFjEUMBIGA1UEAwwLdGVhbTYz
NS1uZXSCFAaSmGwhFSecqMDq7LlNObWlnAo9MBMGA1UdJQQMMAoGCCsGAQUFBwMC
MAsGA1UdDwQEAwIHgDANBgkqhkiG9w0BAQsFAAOCAQEAry1WmGVnz9FgPqgk4pNR
gMmQX6Ekd0rMxDGCRsAODamD2vIUNz9UdjcEAYNh2v/DzmDh8DuqQOGPGfGytAwc
IBkhVwytoVtDlPEqfCT2GC2fkITf2hG9Hd9AoV3dvk7+gtIMkXepljpS2mM6pKct
ID2/MDE48c9TA9uec6qLx9cLWXJt0HfFU/lSEFfmgaPE2T0MovUUbPcqQI/PmQMm
Z5bhKPgmWwnxq1H26/SRsz3o4bDQa7zhvLux7GtkdX68lquzYpYZuwiiFoDnDLCr
tT/SOelMjjkbhqfSLQzzwheEMGEOCG6xhiG/hHDJYnLmOinHJIS8UIAKLnFcdEjo
GA==
-----END CERTIFICATE-----
