Certificate:
    Data:
        Version: 3 (0x2)
        Serial Number:
            5d:9a:d4:fb:ae:a2:0b:c6:e5:6a:20:12:91:c0:7c:46
        Signature Algorithm: sha256WithRSAEncryption
        Issuer: CN=team446-net
        Validity
            Not Before: May 18 21:13:55 2022 GMT
            Not After : May  2 21:13:55 2025 GMT
        Subject: CN=team446-server
        Subject Public Key Info:
            Public Key Algorithm: rsaEncryption
                RSA Public-Key: (2048 bit)
                Modulus:
                    00:df:e5:08:d2:29:49:a3:fd:6a:f1:ac:43:65:7f:
                    f1:52:44:b9:0e:2b:61:e7:ce:d9:d9:8c:fe:29:ef:
                    6f:11:50:f7:88:88:4a:10:52:f4:15:e1:07:8f:34:
                    3d:dc:cc:79:9d:97:af:8c:53:d7:58:f3:2d:40:8b:
                    6d:78:e2:2d:02:df:58:aa:0d:b7:5c:b6:a8:1d:86:
                    89:08:98:a5:e2:9f:8e:91:ff:d0:f9:60:b8:6a:ae:
                    bb:61:37:0b:d7:7e:20:50:98:7d:93:6a:8c:e0:7e:
                    62:20:54:ea:75:2a:95:43:65:69:b5:fe:4a:bf:9b:
                    5f:12:c2:fe:5b:74:ad:66:57:26:7f:40:99:53:fd:
                    e5:8a:27:bd:75:a3:c9:b3:53:04:77:81:25:cc:13:
                    44:04:ad:62:21:cd:8f:39:b9:7b:fc:64:1a:03:64:
                    3a:c7:5b:eb:c9:24:de:b7:95:1b:bf:e3:55:d0:9c:
                    2e:55:26:35:ac:be:46:60:86:f6:26:5d:c3:8f:e3:
                    3d:a3:86:d7:e5:da:08:9b:f9:11:4a:54:23:ae:c2:
                    33:f1:7f:58:32:e6:84:ff:1d:44:c7:b8:cf:e3:44:
                    e6:a3:c2:c6:87:98:72:42:47:ca:cf:7a:47:87:e9:
                    e9:dd:32:d3:ad:57:ce:15:14:78:48:35:f2:fa:bf:
                    2d:41
                Exponent: 65537 (0x10001)
        X509v3 extensions:
            X509v3 Basic Constraints: 
                CA:FALSE
            X509v3 Subject Key Identifier: 
                FB:7E:14:99:8A:83:42:EE:AB:A3:D7:DE:D3:A1:FB:17:50:ED:14:59
            X509v3 Authority Key Identifier: 
                keyid:48:58:D4:10:7D:40:C6:54:9E:BA:7F:50:12:45:14:F4:4A:75:A1:64
                DirName:/CN=team446-net
                serial:16:F8:9F:38:11:F4:25:80:DA:31:CA:73:E3:AF:CC:16:1C:E3:96:4A

            X509v3 Extended Key Usage: 
                TLS Web Server Authentication
            X509v3 Key Usage: 
                Digital Signature, Key Encipherment
            X509v3 Subject Alternative Name: 
                DNS:team446-server
    Signature Algorithm: sha256WithRSAEncryption
         36:69:b0:a7:bf:7e:77:1f:d6:74:13:18:b8:08:c6:36:f5:8e:
         7e:e6:09:62:70:63:a1:b4:c5:45:d0:dd:c9:56:ce:98:47:29:
         52:96:a1:a7:19:2c:44:de:b8:53:3c:a6:54:e1:33:7f:3b:bd:
         cd:ee:1c:1e:0e:54:ee:77:03:c2:ca:1b:ca:73:73:c2:62:f5:
         55:c8:11:67:13:b2:09:4c:6e:d7:ca:2f:21:a9:98:be:b7:e3:
         f9:5c:63:77:6c:b2:a2:5a:36:e3:e6:00:b3:fe:df:bc:b0:4a:
         30:f7:2f:e7:ac:e0:87:6a:67:2b:03:5b:62:0f:5d:91:4d:dc:
         07:77:bd:04:5c:ed:16:92:4d:82:e9:13:6b:71:4a:10:d7:db:
         7d:86:d0:0f:1e:26:75:4a:b1:74:51:6b:c4:68:89:9c:a8:2c:
         a9:51:3f:29:20:3f:e3:13:7d:2e:86:2f:77:a0:0a:98:c0:2f:
         3e:46:5a:1f:8c:a3:e9:13:5e:f9:42:95:95:bc:71:72:0a:5e:
         19:e1:dd:4f:7e:7d:46:f7:10:ee:b1:7a:3d:52:9a:09:0a:4a:
         a6:19:6c:30:7a:a5:dd:6a:53:46:0e:7d:14:a1:66:09:5e:f8:
         b3:fa:70:db:9a:51:28:27:a5:ef:13:e5:75:5b:54:20:0a:74:
         19:98:c9:5b
-----BEGIN CERTIFICATE-----
MIIDdzCCAl+gAwIBAgIQXZrU+66iC8blaiASkcB8RjANBgkqhkiG9w0BAQsFADAW
MRQwEgYDVQQDDAt0ZWFtNDQ2LW5ldDAeFw0yMjA1MTgyMTEzNTVaFw0yNTA1MDIy
MTEzNTVaMBkxFzAVBgNVBAMMDnRlYW00NDYtc2VydmVyMIIBIjANBgkqhkiG9w0B
AQEFAAOCAQ8AMIIBCgKCAQEA3+UI0ilJo/1q8axDZX/xUkS5Dith587Z2Yz+Ke9v
EVD3iIhKEFL0FeEHjzQ93Mx5nZevjFPXWPMtQItteOItAt9Yqg23XLaoHYaJCJil
4p+Okf/Q+WC4aq67YTcL134gUJh9k2qM4H5iIFTqdSqVQ2Vptf5Kv5tfEsL+W3St
Zlcmf0CZU/3liie9daPJs1MEd4ElzBNEBK1iIc2PObl7/GQaA2Q6x1vrySTet5Ub
v+NV0JwuVSY1rL5GYIb2Jl3Dj+M9o4bX5doIm/kRSlQjrsIz8X9YMuaE/x1Ex7jP
40Tmo8LGh5hyQkfKz3pHh+np3TLTrVfOFRR4SDXy+r8tQQIDAQABo4G9MIG6MAkG
A1UdEwQCMAAwHQYDVR0OBBYEFPt+FJmKg0Luq6PX3tOh+xdQ7RRZMFEGA1UdIwRK
MEiAFEhY1BB9QMZUnrp/UBJFFPRKdaFkoRqkGDAWMRQwEgYDVQQDDAt0ZWFtNDQ2
LW5ldIIUFvifOBH0JYDaMcpz46/MFhzjlkowEwYDVR0lBAwwCgYIKwYBBQUHAwEw
CwYDVR0PBAQDAgWgMBkGA1UdEQQSMBCCDnRlYW00NDYtc2VydmVyMA0GCSqGSIb3
DQEBCwUAA4IBAQA2abCnv353H9Z0Exi4CMY29Y5+5glicGOhtMVF0N3JVs6YRylS
lqGnGSxE3rhTPKZU4TN/O73N7hweDlTudwPCyhvKc3PCYvVVyBFnE7IJTG7Xyi8h
qZi+t+P5XGN3bLKiWjbj5gCz/t+8sEow9y/nrOCHamcrA1tiD12RTdwHd70EXO0W
kk2C6RNrcUoQ19t9htAPHiZ1SrF0UWvEaImcqCypUT8pID/jE30uhi93oAqYwC8+
RlofjKPpE175QpWVvHFyCl4Z4d1Pfn1G9xDusXo9UpoJCkqmGWwweqXdalNGDn0U
oWYJXviz+nDbmlEoJ6XvE+V1W1QgCnQZmMlb
-----END CERTIFICATE-----
