Certificate:
    Data:
        Version: 3 (0x2)
        Serial Number:
            9c:a5:f9:7e:f8:54:30:41:6d:0a:44:ce:2b:7f:63:de
        Signature Algorithm: sha256WithRSAEncryption
        Issuer: CN=team446-net
        Validity
            Not Before: May 18 21:13:55 2022 GMT
            Not After : May  2 21:13:55 2025 GMT
        Subject: CN=team446-client
        Subject Public Key Info:
            Public Key Algorithm: rsaEncryption
                RSA Public-Key: (2048 bit)
                Modulus:
                    00:a8:56:5b:44:66:db:d5:4b:17:5d:91:cd:6a:ed:
                    fd:cb:10:61:67:b8:28:c6:fd:f9:86:c7:0e:65:76:
                    b6:a5:76:67:b9:e7:72:ba:a7:85:a5:6b:3d:b5:df:
                    7b:a1:05:cc:4b:6e:9b:ff:97:d3:0d:79:7a:2b:9d:
                    9a:2e:4a:de:65:8d:ed:e6:e5:f6:2b:82:b9:37:09:
                    14:b5:91:d7:23:63:7d:53:c4:77:7b:91:b6:fa:54:
                    82:76:37:22:20:42:0b:1d:73:5d:e6:bc:c8:5b:ce:
                    36:97:99:a1:26:77:62:b4:bd:59:d0:32:b6:72:eb:
                    a7:7f:b9:28:cc:4c:3b:ab:80:61:16:b3:94:41:84:
                    6b:7b:91:fe:50:2b:2d:de:62:ec:af:46:7d:89:85:
                    f7:58:96:4a:ee:b9:f1:c2:44:93:5d:e2:24:b2:c1:
                    43:6e:1c:13:b9:cf:9b:fe:54:a2:c5:ca:2d:ad:50:
                    9d:8b:6f:77:4d:73:52:c2:7e:b2:33:7b:e1:b2:3c:
                    c7:e1:41:f4:32:cf:c2:b2:09:9c:87:45:c8:d6:7a:
                    95:f8:ce:75:05:98:7e:ea:d0:1c:79:65:f7:12:11:
                    35:58:60:a1:c2:21:e6:1a:a8:b9:a7:c4:55:c5:3b:
                    b5:6e:fe:4e:20:49:09:be:73:f0:d9:9e:fb:f8:a7:
                    41:31
                Exponent: 65537 (0x10001)
        X509v3 extensions:
            X509v3 Basic Constraints: 
                CA:FALSE
            X509v3 Subject Key Identifier: 
                8D:CD:04:12:B3:84:3C:04:B7:4E:20:13:57:52:85:6B:FB:EA:86:D2
            X509v3 Authority Key Identifier: 
                keyid:48:58:D4:10:7D:40:C6:54:9E:BA:7F:50:12:45:14:F4:4A:75:A1:64
                DirName:/CN=team446-net
                serial:16:F8:9F:38:11:F4:25:80:DA:31:CA:73:E3:AF:CC:16:1C:E3:96:4A

            X509v3 Extended Key Usage: 
                TLS Web Client Authentication
            X509v3 Key Usage: 
                Digital Signature
    Signature Algorithm: sha256WithRSAEncryption
         77:27:6f:90:95:b3:da:3c:14:75:67:33:67:ad:e5:ff:bf:51:
         a3:f9:ea:c1:dd:ca:03:00:e4:e7:02:a3:3d:d3:03:d0:66:56:
         7d:d7:89:3b:52:fb:79:60:c6:21:a7:80:3a:9e:d4:a8:63:3c:
         af:fe:7e:33:57:9d:9d:dc:ed:5c:5a:a0:c5:aa:53:e3:95:c1:
         7f:2b:ac:7a:d4:49:d4:a7:db:62:2f:c0:0e:c7:91:b7:9c:f5:
         8e:db:0d:23:8a:d6:ae:55:b7:87:c7:6e:da:ac:d6:bd:cb:a0:
         be:ef:5b:f3:8f:b1:c4:c7:52:10:cb:6e:24:05:90:33:a5:bf:
         25:4a:a0:1b:43:50:0b:67:e0:31:35:f3:3c:2e:4c:59:01:1c:
         37:dc:ec:7f:f9:9c:6e:44:e3:d6:09:60:27:e2:4b:60:56:57:
         33:20:a6:87:c0:60:11:f4:b9:45:3a:08:9e:99:1b:30:d2:7c:
         29:06:03:fd:5e:cf:67:0d:7d:4a:31:fa:d7:e5:8a:16:28:50:
         47:b2:a8:4e:89:be:ea:f1:98:75:6f:a2:57:ff:87:48:d7:76:
         b1:6b:40:87:4a:22:de:15:49:1c:ca:25:66:8b:cf:d5:71:b8:
         83:9b:38:4c:09:5a:82:fb:92:b2:da:83:63:22:e7:61:e4:63:
         e3:53:82:5f
-----BEGIN CERTIFICATE-----
MIIDXTCCAkWgAwIBAgIRAJyl+X74VDBBbQpEzit/Y94wDQYJKoZIhvcNAQELBQAw
FjEUMBIGA1UEAwwLdGVhbTQ0Ni1uZXQwHhcNMjIwNTE4MjExMzU1WhcNMjUwNTAy
MjExMzU1WjAZMRcwFQYDVQQDDA50ZWFtNDQ2LWNsaWVudDCCASIwDQYJKoZIhvcN
AQEBBQADggEPADCCAQoCggEBAKhWW0Rm29VLF12RzWrt/csQYWe4KMb9+YbHDmV2
tqV2Z7nncrqnhaVrPbXfe6EFzEtum/+X0w15eiudmi5K3mWN7ebl9iuCuTcJFLWR
1yNjfVPEd3uRtvpUgnY3IiBCCx1zXea8yFvONpeZoSZ3YrS9WdAytnLrp3+5KMxM
O6uAYRazlEGEa3uR/lArLd5i7K9GfYmF91iWSu658cJEk13iJLLBQ24cE7nPm/5U
osXKLa1QnYtvd01zUsJ+sjN74bI8x+FB9DLPwrIJnIdFyNZ6lfjOdQWYfurQHHll
9xIRNVhgocIh5hqouafEVcU7tW7+TiBJCb5z8Nme+/inQTECAwEAAaOBojCBnzAJ
BgNVHRMEAjAAMB0GA1UdDgQWBBSNzQQSs4Q8BLdOIBNXUoVr++qG0jBRBgNVHSME
SjBIgBRIWNQQfUDGVJ66f1ASRRT0SnWhZKEapBgwFjEUMBIGA1UEAwwLdGVhbTQ0
Ni1uZXSCFBb4nzgR9CWA2jHKc+OvzBYc45ZKMBMGA1UdJQQMMAoGCCsGAQUFBwMC
MAsGA1UdDwQEAwIHgDANBgkqhkiG9w0BAQsFAAOCAQEAdydvkJWz2jwUdWczZ63l
/79Ro/nqwd3KAwDk5wKjPdMD0GZWfdeJO1L7eWDGIaeAOp7UqGM8r/5+M1edndzt
XFqgxapT45XBfyusetRJ1KfbYi/ADseRt5z1jtsNI4rWrlW3h8du2qzWvcugvu9b
84+xxMdSEMtuJAWQM6W/JUqgG0NQC2fgMTXzPC5MWQEcN9zsf/mcbkTj1glgJ+JL
YFZXMyCmh8BgEfS5RToInpkbMNJ8KQYD/V7PZw19SjH61+WKFihQR7KoTom+6vGY
dW+iV/+HSNd2sWtAh0oi3hVJHMolZovP1XG4g5s4TAlagvuSstqDYyLnYeRj41OC
Xw==
-----END CERTIFICATE-----
