Certificate:
    Data:
        Version: 3 (0x2)
        Serial Number:
            23:15:b4:cd:cc:e4:ee:9c:4d:cc:b2:b1:b2:e5:7d:18
        Signature Algorithm: sha256WithRSAEncryption
        Issuer: CN=team4-net
        Validity
            Not Before: May 18 13:55:49 2022 GMT
            Not After : May  2 13:55:49 2025 GMT
        Subject: CN=team4-server
        Subject Public Key Info:
            Public Key Algorithm: rsaEncryption
                RSA Public-Key: (2048 bit)
                Modulus:
                    00:c6:a5:53:36:16:09:65:5a:e9:b6:6d:5e:ff:48:
                    03:e8:9d:39:9a:46:90:8f:e9:35:db:27:d9:f3:10:
                    9a:19:a4:07:26:85:13:4f:c2:94:3a:c0:dc:b0:67:
                    d6:d6:12:9d:06:1b:ae:52:73:95:7a:1d:7d:e6:b5:
                    73:26:a2:e0:4a:8a:c6:f9:66:70:08:49:f0:d2:8f:
                    f9:00:0e:08:7b:72:18:d0:4b:17:50:cf:f8:c8:fe:
                    86:06:d8:32:bc:4d:e2:8e:ac:44:9b:77:87:2c:2f:
                    be:df:00:38:58:2b:59:e7:c6:83:aa:04:f1:c3:4a:
                    35:1f:ea:9c:02:d4:6a:c9:65:c6:13:cc:dc:28:63:
                    a3:9b:0f:b3:20:00:95:c4:09:74:33:e6:15:2d:1b:
                    9a:1e:85:4e:bd:d1:2f:8a:bb:98:1f:bb:c7:b4:47:
                    9d:0f:55:a1:85:c3:88:75:c9:7d:4f:b2:46:be:9c:
                    61:11:dd:c9:f2:dd:ff:78:54:3a:dc:9e:ed:31:81:
                    e8:5e:17:81:59:c5:61:65:90:eb:27:80:38:03:af:
                    78:e5:78:88:2a:6f:6a:32:c6:2e:3d:0e:5c:9f:8d:
                    ab:52:5a:ac:50:93:4b:20:4c:8a:b1:0d:2f:a8:f8:
                    eb:5c:ac:82:da:89:d1:45:d5:de:29:a0:bf:5c:de:
                    f9:d9
                Exponent: 65537 (0x10001)
        X509v3 extensions:
            X509v3 Basic Constraints: 
                CA:FALSE
            X509v3 Subject Key Identifier: 
                C8:9E:14:D1:FC:80:46:9A:99:C5:CD:60:5A:1B:63:98:0B:4D:C1:DC
            X509v3 Authority Key Identifier: 
                keyid:C1:32:6A:D1:34:7C:73:39:74:46:C5:80:0A:40:EE:CF:87:1D:C5:89
                DirName:/CN=team4-net
                serial:37:F8:24:3E:BA:BC:CD:D8:5E:BE:16:FE:7B:68:41:12:81:0B:94:BE

            X509v3 Extended Key Usage: 
                TLS Web Server Authentication
            X509v3 Key Usage: 
                Digital Signature, Key Encipherment
            X509v3 Subject Alternative Name: 
                DNS:team4-server
    Signature Algorithm: sha256WithRSAEncryption
         67:dd:2b:3e:6e:cf:cb:66:da:64:e7:53:0a:e7:ba:4d:2a:63:
         be:a0:c7:9d:b0:5e:16:62:9c:5b:d7:ff:f2:7b:27:c9:f8:54:
         ed:3d:ce:d8:f7:e6:c8:1f:e4:c5:da:7b:bc:8a:48:db:9a:a0:
         5f:67:1f:82:15:7e:ea:f6:d8:f9:46:82:33:00:00:f7:49:da:
         cf:bb:f0:ca:52:f5:81:9c:ac:95:cf:a2:63:0c:fa:c5:81:21:
         e9:7e:41:74:bd:41:e3:d8:ab:15:05:52:12:69:a7:55:a4:21:
         db:d0:db:a6:74:50:8b:53:31:06:7b:4c:e6:48:0a:2e:92:c7:
         60:b6:f1:20:16:4d:95:a2:e7:24:a5:80:cc:01:6e:bf:aa:aa:
         3c:e4:da:ab:be:63:47:be:2c:d0:1f:08:e3:3c:b8:76:4f:98:
         79:c0:f0:07:ba:62:80:de:eb:14:51:de:0d:bb:28:dc:70:89:
         dd:e3:64:45:d9:28:65:fe:cf:c1:27:41:7e:25:96:58:20:5a:
         87:55:b8:4e:6e:a3:82:e1:26:b9:f1:2b:0d:6c:45:6e:51:47:
         9b:1d:55:aa:4d:1e:b1:33:28:6c:0b:18:1d:f5:ba:2a:1f:3f:
         90:7d:d7:d0:d4:fa:40:71:53:cb:9a:92:a1:f5:61:8d:d3:16:
         9c:c6:b8:5e
-----BEGIN CERTIFICATE-----
MIIDbzCCAlegAwIBAgIQIxW0zczk7pxNzLKxsuV9GDANBgkqhkiG9w0BAQsFADAU
MRIwEAYDVQQDDAl0ZWFtNC1uZXQwHhcNMjIwNTE4MTM1NTQ5WhcNMjUwNTAyMTM1
NTQ5WjAXMRUwEwYDVQQDDAx0ZWFtNC1zZXJ2ZXIwggEiMA0GCSqGSIb3DQEBAQUA
A4IBDwAwggEKAoIBAQDGpVM2FgllWum2bV7/SAPonTmaRpCP6TXbJ9nzEJoZpAcm
hRNPwpQ6wNywZ9bWEp0GG65Sc5V6HX3mtXMmouBKisb5ZnAISfDSj/kADgh7chjQ
SxdQz/jI/oYG2DK8TeKOrESbd4csL77fADhYK1nnxoOqBPHDSjUf6pwC1GrJZcYT
zNwoY6ObD7MgAJXECXQz5hUtG5oehU690S+Ku5gfu8e0R50PVaGFw4h1yX1Pska+
nGER3cny3f94VDrcnu0xgeheF4FZxWFlkOsngDgDr3jleIgqb2oyxi49DlyfjatS
WqxQk0sgTIqxDS+o+OtcrILaidFF1d4poL9c3vnZAgMBAAGjgbkwgbYwCQYDVR0T
BAIwADAdBgNVHQ4EFgQUyJ4U0fyARpqZxc1gWhtjmAtNwdwwTwYDVR0jBEgwRoAU
wTJq0TR8czl0RsWACkDuz4cdxYmhGKQWMBQxEjAQBgNVBAMMCXRlYW00LW5ldIIU
N/gkPrq8zdhevhb+e2hBEoELlL4wEwYDVR0lBAwwCgYIKwYBBQUHAwEwCwYDVR0P
BAQDAgWgMBcGA1UdEQQQMA6CDHRlYW00LXNlcnZlcjANBgkqhkiG9w0BAQsFAAOC
AQEAZ90rPm7Py2baZOdTCue6TSpjvqDHnbBeFmKcW9f/8nsnyfhU7T3O2PfmyB/k
xdp7vIpI25qgX2cfghV+6vbY+UaCMwAA90naz7vwylL1gZyslc+iYwz6xYEh6X5B
dL1B49irFQVSEmmnVaQh29DbpnRQi1MxBntM5kgKLpLHYLbxIBZNlaLnJKWAzAFu
v6qqPOTaq75jR74s0B8I4zy4dk+YecDwB7pigN7rFFHeDbso3HCJ3eNkRdkoZf7P
wSdBfiWWWCBah1W4Tm6jguEmufErDWxFblFHmx1Vqk0esTMobAsYHfW6Kh8/kH3X
0NT6QHFTy5qSofVhjdMWnMa4Xg==
-----END CERTIFICATE-----
