Certificate:
    Data:
        Version: 3 (0x2)
        Serial Number:
            5f:29:ff:c2:1b:d8:c8:90:ae:4a:50:48:77:84:e1:74
        Signature Algorithm: sha256WithRSAEncryption
        Issuer: CN=team537-net
        Validity
            Not Before: May 18 22:08:27 2022 GMT
            Not After : May  2 22:08:27 2025 GMT
        Subject: CN=team537-server
        Subject Public Key Info:
            Public Key Algorithm: rsaEncryption
                RSA Public-Key: (2048 bit)
                Modulus:
                    00:c6:4d:8b:f0:48:3f:4b:65:4a:95:8e:ff:1f:55:
                    cb:88:d3:9d:1a:e6:e0:c4:9c:5f:fe:95:9a:bf:76:
                    dc:08:f3:6d:7a:af:40:fd:62:53:73:13:44:17:b4:
                    d3:b6:7d:a9:34:04:e4:70:7a:05:3b:ce:1b:f9:03:
                    80:81:fb:6d:d1:9a:34:13:22:53:ee:4b:cb:8c:af:
                    72:1d:57:82:18:4b:fb:4d:8a:74:4a:8b:fc:ac:a1:
                    62:b8:2e:cb:4e:e8:28:87:cb:69:f1:90:c4:af:6d:
                    25:5a:e3:79:f3:5b:38:ce:b3:1f:27:5e:e1:0e:bd:
                    9b:41:1b:f3:56:13:da:12:5a:68:38:fa:e4:2b:08:
                    93:fc:39:3b:0b:79:f7:64:f7:19:5c:39:91:54:62:
                    b8:26:8c:e4:f5:99:42:ac:c2:3a:cc:11:8e:88:ea:
                    ef:3f:87:fe:15:a1:2d:a8:b5:ff:2c:85:92:d2:da:
                    68:37:f4:9c:e4:32:59:b2:7f:42:18:18:ea:6a:2a:
                    88:f9:92:00:d6:bd:61:aa:23:33:9e:61:fb:e3:53:
                    ef:a8:1a:17:fd:a9:0a:50:89:3d:1c:e8:e5:d8:2b:
                    ea:09:0a:15:f2:a8:e9:e8:2d:02:ca:2a:d6:60:88:
                    e1:44:53:2f:9c:e7:21:cc:5b:ea:2f:c6:f9:12:5c:
                    b9:d7
                Exponent: 65537 (0x10001)
        X509v3 extensions:
            X509v3 Basic Constraints: 
                CA:FALSE
            X509v3 Subject Key Identifier: 
                D0:EE:D2:CD:FB:F1:34:CF:F6:56:0B:8C:35:44:3B:E1:02:6E:82:0F
            X509v3 Authority Key Identifier: 
                keyid:84:77:AF:58:73:29:1B:6A:2A:F2:28:69:FC:6E:90:2C:4C:8E:B6:AC
                DirName:/CN=team537-net
                serial:23:1D:15:F7:64:80:EC:D5:DD:F3:99:13:37:C6:CB:8B:B8:53:78:47

            X509v3 Extended Key Usage: 
                TLS Web Server Authentication
            X509v3 Key Usage: 
                Digital Signature, Key Encipherment
            X509v3 Subject Alternative Name: 
                DNS:team537-server
    Signature Algorithm: sha256WithRSAEncryption
         67:7b:15:92:72:de:cd:3c:ac:68:41:7a:b3:2d:01:54:fe:84:
         03:fb:48:f0:4b:00:fb:6a:3a:6b:35:58:08:cc:27:55:d7:65:
         ca:95:4d:2d:70:cc:5b:d4:4c:b0:83:70:83:b1:2c:29:48:1f:
         63:ad:2b:44:5e:87:b9:f9:2d:1c:fc:5d:e4:25:ef:19:06:0a:
         c1:b0:c3:8a:d2:34:9a:91:f3:17:49:ca:68:49:ff:f0:06:b1:
         08:1e:a2:c0:15:2a:d5:9f:a9:bf:f7:16:4d:ae:7e:a5:44:6c:
         0c:05:c5:70:62:5c:cb:5d:25:81:8c:cf:c3:e8:f5:b9:e3:93:
         d3:43:0d:25:f7:be:07:c1:fe:b8:72:0e:87:fd:6a:a5:db:9e:
         82:e8:b4:8e:40:34:2a:0a:7c:fa:d4:07:f1:23:17:04:49:ca:
         b4:bd:a7:e7:c4:bf:f6:d0:89:e4:f9:ab:e3:59:71:4b:8e:9c:
         47:a0:49:bf:38:19:3e:83:1e:da:81:1f:2c:c1:6f:d5:3e:79:
         62:6f:f3:b3:21:56:1b:4e:42:ba:73:c5:f8:ee:65:dd:11:b7:
         6d:85:6b:3d:b2:cd:1b:5a:e8:fd:e9:b0:d0:34:0c:ec:c3:25:
         77:2a:28:3c:f8:95:aa:48:a3:c7:e3:02:ef:74:bb:02:e6:6b:
         d1:c5:6f:89
-----BEGIN CERTIFICATE-----
MIIDdzCCAl+gAwIBAgIQXyn/whvYyJCuSlBId4ThdDANBgkqhkiG9w0BAQsFADAW
MRQwEgYDVQQDDAt0ZWFtNTM3LW5ldDAeFw0yMjA1MTgyMjA4MjdaFw0yNTA1MDIy
MjA4MjdaMBkxFzAVBgNVBAMMDnRlYW01Mzctc2VydmVyMIIBIjANBgkqhkiG9w0B
AQEFAAOCAQ8AMIIBCgKCAQEAxk2L8Eg/S2VKlY7/H1XLiNOdGubgxJxf/pWav3bc
CPNteq9A/WJTcxNEF7TTtn2pNATkcHoFO84b+QOAgftt0Zo0EyJT7kvLjK9yHVeC
GEv7TYp0Sov8rKFiuC7LTugoh8tp8ZDEr20lWuN581s4zrMfJ17hDr2bQRvzVhPa
ElpoOPrkKwiT/Dk7C3n3ZPcZXDmRVGK4Jozk9ZlCrMI6zBGOiOrvP4f+FaEtqLX/
LIWS0tpoN/Sc5DJZsn9CGBjqaiqI+ZIA1r1hqiMznmH741PvqBoX/akKUIk9HOjl
2CvqCQoV8qjp6C0CyirWYIjhRFMvnOchzFvqL8b5Ely51wIDAQABo4G9MIG6MAkG
A1UdEwQCMAAwHQYDVR0OBBYEFNDu0s378TTP9lYLjDVEO+ECboIPMFEGA1UdIwRK
MEiAFIR3r1hzKRtqKvIoafxukCxMjrasoRqkGDAWMRQwEgYDVQQDDAt0ZWFtNTM3
LW5ldIIUIx0V92SA7NXd85kTN8bLi7hTeEcwEwYDVR0lBAwwCgYIKwYBBQUHAwEw
CwYDVR0PBAQDAgWgMBkGA1UdEQQSMBCCDnRlYW01Mzctc2VydmVyMA0GCSqGSIb3
DQEBCwUAA4IBAQBnexWSct7NPKxoQXqzLQFU/oQD+0jwSwD7ajprNVgIzCdV12XK
lU0tcMxb1Eywg3CDsSwpSB9jrStEXoe5+S0c/F3kJe8ZBgrBsMOK0jSakfMXScpo
Sf/wBrEIHqLAFSrVn6m/9xZNrn6lRGwMBcVwYlzLXSWBjM/D6PW545PTQw0l974H
wf64cg6H/Wql256C6LSOQDQqCnz61AfxIxcEScq0vafnxL/20Ink+avjWXFLjpxH
oEm/OBk+gx7agR8swW/VPnlib/OzIVYbTkK6c8X47mXdEbdthWs9ss0bWuj96bDQ
NAzswyV3Kig8+JWqSKPH4wLvdLsC5mvRxW+J
-----END CERTIFICATE-----
