Certificate:
    Data:
        Version: 3 (0x2)
        Serial Number:
            64:82:33:d3:b9:a8:a4:1c:76:c9:81:b2:e0:38:c8:d5
        Signature Algorithm: sha256WithRSAEncryption
        Issuer: CN=team593-net
        Validity
            Not Before: May 18 22:37:32 2022 GMT
            Not After : May  2 22:37:32 2025 GMT
        Subject: CN=team593-client
        Subject Public Key Info:
            Public Key Algorithm: rsaEncryption
                RSA Public-Key: (2048 bit)
                Modulus:
                    00:ac:ec:a8:d3:69:66:f1:a9:bc:39:b6:46:0f:6b:
                    df:e3:52:3a:ec:e3:7d:6a:7e:cb:9b:1c:8d:9f:95:
                    d0:bd:74:dc:42:f6:72:c0:d0:32:f8:db:83:1f:ab:
                    13:1e:03:84:01:21:25:7e:65:67:8e:6c:a8:fb:fe:
                    a3:51:9d:3d:67:69:df:2d:2f:a9:0e:ed:0c:0b:6f:
                    22:14:ea:b1:7b:74:52:59:70:fb:d0:86:a5:51:e2:
                    10:ee:ca:b7:a7:dd:56:93:ad:bc:c4:05:de:5e:8c:
                    89:02:22:fd:20:dd:49:c9:fd:8f:4e:69:db:b8:7c:
                    3e:7b:8f:40:10:92:4c:36:e0:f2:7d:6f:d6:8f:20:
                    12:7f:1b:96:64:a0:ea:f1:e5:cb:dd:bd:3c:fb:b8:
                    fa:68:a0:3e:25:e8:7b:22:43:b1:3b:64:b7:c1:ca:
                    20:81:8f:74:2b:68:7a:83:22:dd:11:a6:40:d6:b3:
                    78:87:e5:27:f4:aa:97:e0:ae:c9:c8:79:da:df:d2:
                    bb:06:61:87:db:37:0e:49:c7:6b:8b:de:35:61:51:
                    5e:f2:3a:8e:fb:a7:48:bc:e8:04:23:43:d9:e1:1b:
                    56:b6:6f:6e:bb:f4:0d:1d:91:83:17:7f:21:2a:ed:
                    f7:ce:0d:65:29:0e:54:3d:cb:91:ce:99:10:a2:02:
                    b7:93
                Exponent: 65537 (0x10001)
        X509v3 extensions:
            X509v3 Basic Constraints: 
                CA:FALSE
            X509v3 Subject Key Identifier: 
                5E:21:24:1B:A9:63:CD:98:BC:3C:10:DE:20:85:BA:F9:62:43:FD:ED
            X509v3 Authority Key Identifier: 
                keyid:DF:F3:6E:D6:4A:8D:11:A4:60:F5:C7:AC:1A:D0:C0:58:C1:1D:32:52
                DirName:/CN=team593-net
                serial:54:18:BE:D3:55:D3:C0:0E:93:33:87:AC:B5:39:5A:ED:FA:62:2D:49

            X509v3 Extended Key Usage: 
                TLS Web Client Authentication
            X509v3 Key Usage: 
                Digital Signature
    Signature Algorithm: sha256WithRSAEncryption
         25:e4:5f:8c:ed:49:4a:ca:13:47:9f:33:5a:f9:14:8e:7f:68:
         bc:c3:6c:ba:f6:3c:df:76:63:34:23:d4:57:c3:be:8d:f9:7b:
         58:62:d5:e2:c7:c2:d6:71:06:8f:74:76:44:ae:cf:f8:96:ae:
         4d:1f:71:20:01:5b:cd:f4:5c:0f:d2:64:60:df:bc:73:50:6e:
         46:51:00:fd:f0:61:0c:7a:4a:0b:ca:b2:1a:b4:b2:ed:5f:0b:
         80:36:9b:ee:19:51:99:46:10:e3:3d:43:65:e9:a2:cd:30:1e:
         78:51:5b:9e:88:46:ca:c5:1b:59:3d:03:16:70:04:50:ab:4c:
         67:59:1f:3c:8f:b3:d4:e4:75:a6:1f:4e:0e:d4:5e:b5:58:52:
         17:29:33:e3:89:25:f7:fa:24:90:36:50:44:f8:44:c5:ff:bb:
         87:70:c4:86:81:dc:ce:9e:70:fb:9f:df:0f:36:08:69:e2:36:
         f7:19:86:5c:32:cd:2b:a4:11:18:27:92:c4:3f:04:00:c2:a4:
         e3:a2:ec:44:05:33:90:da:d8:92:de:57:1f:4f:9a:6c:c4:ce:
         b4:4e:e8:35:f5:d5:62:05:02:7a:60:8b:e3:c5:15:b4:af:41:
         0d:a3:d3:ca:45:9a:9c:2e:7c:20:f9:ef:0f:42:bd:43:61:b9:
         05:8d:d3:94
-----BEGIN CERTIFICATE-----
MIIDXDCCAkSgAwIBAgIQZIIz07mopBx2yYGy4DjI1TANBgkqhkiG9w0BAQsFADAW
MRQwEgYDVQQDDAt0ZWFtNTkzLW5ldDAeFw0yMjA1MTgyMjM3MzJaFw0yNTA1MDIy
MjM3MzJaMBkxFzAVBgNVBAMMDnRlYW01OTMtY2xpZW50MIIBIjANBgkqhkiG9w0B
AQEFAAOCAQ8AMIIBCgKCAQEArOyo02lm8am8ObZGD2vf41I67ON9an7LmxyNn5XQ
vXTcQvZywNAy+NuDH6sTHgOEASElfmVnjmyo+/6jUZ09Z2nfLS+pDu0MC28iFOqx
e3RSWXD70IalUeIQ7sq3p91Wk628xAXeXoyJAiL9IN1Jyf2PTmnbuHw+e49AEJJM
NuDyfW/WjyASfxuWZKDq8eXL3b08+7j6aKA+Jeh7IkOxO2S3wcoggY90K2h6gyLd
EaZA1rN4h+Un9KqX4K7JyHna39K7BmGH2zcOScdri941YVFe8jqO+6dIvOgEI0PZ
4RtWtm9uu/QNHZGDF38hKu33zg1lKQ5UPcuRzpkQogK3kwIDAQABo4GiMIGfMAkG
A1UdEwQCMAAwHQYDVR0OBBYEFF4hJBupY82YvDwQ3iCFuvliQ/3tMFEGA1UdIwRK
MEiAFN/zbtZKjRGkYPXHrBrQwFjBHTJSoRqkGDAWMRQwEgYDVQQDDAt0ZWFtNTkz
LW5ldIIUVBi+01XTwA6TM4estTla7fpiLUkwEwYDVR0lBAwwCgYIKwYBBQUHAwIw
CwYDVR0PBAQDAgeAMA0GCSqGSIb3DQEBCwUAA4IBAQAl5F+M7UlKyhNHnzNa+RSO
f2i8w2y69jzfdmM0I9RXw76N+XtYYtXix8LWcQaPdHZErs/4lq5NH3EgAVvN9FwP
0mRg37xzUG5GUQD98GEMekoLyrIatLLtXwuANpvuGVGZRhDjPUNl6aLNMB54UVue
iEbKxRtZPQMWcARQq0xnWR88j7PU5HWmH04O1F61WFIXKTPjiSX3+iSQNlBE+ETF
/7uHcMSGgdzOnnD7n98PNghp4jb3GYZcMs0rpBEYJ5LEPwQAwqTjouxEBTOQ2tiS
3lcfT5psxM60Tug19dViBQJ6YIvjxRW0r0ENo9PKRZqcLnwg+e8PQr1DYbkFjdOU
-----END CERTIFICATE-----
