Certificate:
    Data:
        Version: 3 (0x2)
        Serial Number:
            75:44:1e:e7:94:b3:e7:c1:e6:c7:71:c5:62:73:ec:91
        Signature Algorithm: sha256WithRSAEncryption
        Issuer: CN=team336-net
        Validity
            Not Before: May 18 20:29:10 2022 GMT
            Not After : May  2 20:29:10 2025 GMT
        Subject: CN=team336-client
        Subject Public Key Info:
            Public Key Algorithm: rsaEncryption
                RSA Public-Key: (2048 bit)
                Modulus:
                    00:cd:51:c1:9c:62:37:9e:9a:96:61:a0:7a:70:6d:
                    f3:d4:fb:e9:ca:cd:bd:c6:ec:59:ac:60:6f:5e:91:
                    59:57:0f:ee:70:ff:55:76:2b:a5:dd:60:55:5a:0e:
                    2a:2b:62:3a:fb:73:a4:7c:56:7f:f0:94:55:1a:d4:
                    4f:16:86:ea:b7:74:1c:17:f1:2a:ac:2e:08:aa:72:
                    d6:70:16:57:ea:93:d5:ec:bd:f5:82:eb:12:c4:d2:
                    52:3d:db:04:15:8c:72:1a:c8:b9:63:f9:9e:cf:c8:
                    8c:41:1a:bb:96:21:bb:3e:82:9d:1e:3c:4e:f8:74:
                    49:74:74:3d:72:aa:ee:d9:85:cd:b2:e2:b7:7b:20:
                    53:83:08:0b:1b:28:60:d4:6b:9b:a6:eb:11:96:64:
                    9b:c8:d2:7d:9c:12:5d:e2:cb:d3:0d:99:9b:b5:25:
                    bc:2e:d8:58:13:fd:7c:4e:3b:4e:da:6f:8c:87:f6:
                    e9:98:e0:3d:ed:d2:39:ec:5a:b3:ac:a6:79:fc:8f:
                    30:92:bb:06:66:e5:7b:9f:d1:72:c4:c8:69:16:7e:
                    fd:dd:88:6f:1d:7c:f6:7e:26:ff:c1:db:a0:b0:dc:
                    db:22:6f:59:c2:95:f1:59:6a:c9:6f:57:ff:8a:2f:
                    12:04:99:35:78:23:c0:a5:a0:9a:fa:75:b7:27:04:
                    ac:93
                Exponent: 65537 (0x10001)
        X509v3 extensions:
            X509v3 Basic Constraints: 
                CA:FALSE
            X509v3 Subject Key Identifier: 
                99:D8:EE:46:74:6F:BE:46:99:26:28:A8:0A:E1:E0:70:42:BC:DF:0B
            X509v3 Authority Key Identifier: 
                keyid:46:66:87:57:4A:7F:C0:5C:D7:C3:9C:C9:00:0B:7B:6E:65:3B:B1:9F
                DirName:/CN=team336-net
                serial:3E:43:65:DD:55:8E:DE:9C:46:65:CB:CE:CE:6C:EA:14:BD:1C:00:F2

            X509v3 Extended Key Usage: 
                TLS Web Client Authentication
            X509v3 Key Usage: 
                Digital Signature
    Signature Algorithm: sha256WithRSAEncryption
         87:4e:81:41:3d:b4:df:39:e2:4a:43:1c:11:a1:c4:e3:db:36:
         57:ad:14:22:0e:50:06:2f:82:02:83:f8:ec:fc:c8:25:1b:c9:
         b4:69:f5:98:5a:89:59:2d:36:fd:31:ef:a7:14:87:ed:4d:78:
         9f:3c:3d:c4:35:f1:36:a2:bf:5b:2b:02:ef:4e:3f:dc:47:fc:
         78:b6:2d:a3:55:89:38:5d:90:0f:04:21:c5:61:c2:10:a1:1d:
         45:54:3b:af:77:7e:00:25:b4:dd:b9:95:a2:b3:d8:d3:64:09:
         e4:5e:59:77:71:19:6b:94:cf:be:e8:b9:7e:54:df:ed:d2:02:
         d1:e9:73:34:a8:54:44:8a:67:85:aa:e1:40:c9:ce:28:7d:d3:
         1f:f0:bf:74:7c:17:94:6a:47:c9:f9:72:0c:f1:c8:3c:51:ed:
         0a:b8:7a:da:0a:2e:f7:80:28:b5:0f:8a:1d:7c:af:1d:b6:15:
         f3:15:69:6c:42:cd:68:01:4f:39:10:4b:9d:a2:aa:fe:1a:79:
         39:e2:f0:4e:95:a7:b4:7b:e2:ab:a6:44:2e:36:5b:4e:55:67:
         3a:a1:8d:31:16:f6:ef:b8:ce:63:8d:cb:da:35:d3:aa:76:7b:
         da:b8:e8:1d:33:30:83:95:f6:bb:06:a0:d1:0f:bb:62:5f:4a:
         be:4d:18:c1
-----BEGIN CERTIFICATE-----
MIIDXDCCAkSgAwIBAgIQdUQe55Sz58Hmx3HFYnPskTANBgkqhkiG9w0BAQsFADAW
MRQwEgYDVQQDDAt0ZWFtMzM2LW5ldDAeFw0yMjA1MTgyMDI5MTBaFw0yNTA1MDIy
MDI5MTBaMBkxFzAVBgNVBAMMDnRlYW0zMzYtY2xpZW50MIIBIjANBgkqhkiG9w0B
AQEFAAOCAQ8AMIIBCgKCAQEAzVHBnGI3npqWYaB6cG3z1Pvpys29xuxZrGBvXpFZ
Vw/ucP9Vdiul3WBVWg4qK2I6+3OkfFZ/8JRVGtRPFobqt3QcF/EqrC4IqnLWcBZX
6pPV7L31gusSxNJSPdsEFYxyGsi5Y/mez8iMQRq7liG7PoKdHjxO+HRJdHQ9cqru
2YXNsuK3eyBTgwgLGyhg1GubpusRlmSbyNJ9nBJd4svTDZmbtSW8LthYE/18TjtO
2m+Mh/bpmOA97dI57FqzrKZ5/I8wkrsGZuV7n9FyxMhpFn793YhvHXz2fib/wdug
sNzbIm9ZwpXxWWrJb1f/ii8SBJk1eCPApaCa+nW3JwSskwIDAQABo4GiMIGfMAkG
A1UdEwQCMAAwHQYDVR0OBBYEFJnY7kZ0b75GmSYoqArh4HBCvN8LMFEGA1UdIwRK
MEiAFEZmh1dKf8Bc18OcyQALe25lO7GfoRqkGDAWMRQwEgYDVQQDDAt0ZWFtMzM2
LW5ldIIUPkNl3VWO3pxGZcvOzmzqFL0cAPIwEwYDVR0lBAwwCgYIKwYBBQUHAwIw
CwYDVR0PBAQDAgeAMA0GCSqGSIb3DQEBCwUAA4IBAQCHToFBPbTfOeJKQxwRocTj
2zZXrRQiDlAGL4ICg/js/MglG8m0afWYWolZLTb9Me+nFIftTXifPD3ENfE2or9b
KwLvTj/cR/x4ti2jVYk4XZAPBCHFYcIQoR1FVDuvd34AJbTduZWis9jTZAnkXll3
cRlrlM++6Ll+VN/t0gLR6XM0qFREimeFquFAyc4ofdMf8L90fBeUakfJ+XIM8cg8
Ue0KuHraCi73gCi1D4odfK8dthXzFWlsQs1oAU85EEudoqr+Gnk54vBOlae0e+Kr
pkQuNltOVWc6oY0xFvbvuM5jjcvaNdOqdnvauOgdMzCDlfa7BqDRD7tiX0q+TRjB
-----END CERTIFICATE-----
