Certificate:
    Data:
        Version: 3 (0x2)
        Serial Number:
            78:19:f0:f8:f2:1f:a2:21:9c:50:31:c6:f0:0e:08:e8
        Signature Algorithm: sha256WithRSAEncryption
        Issuer: CN=team336-net
        Validity
            Not Before: May 18 20:29:10 2022 GMT
            Not After : May  2 20:29:10 2025 GMT
        Subject: CN=team336-server
        Subject Public Key Info:
            Public Key Algorithm: rsaEncryption
                RSA Public-Key: (2048 bit)
                Modulus:
                    00:be:8a:bc:4e:af:f0:91:08:e2:6f:85:f6:9f:ad:
                    85:83:1a:77:1c:f3:59:96:7b:04:62:f7:68:b0:8d:
                    7d:15:61:94:63:26:c2:12:a1:8a:49:93:51:b0:5d:
                    2c:4f:4d:24:d4:07:c1:6b:93:a9:a6:ae:ce:7d:9d:
                    91:cd:9a:ad:4e:e5:fc:84:bc:fe:bb:7a:df:0f:93:
                    41:da:56:0c:99:7b:c1:f1:2a:41:91:1a:e1:5d:ba:
                    9c:19:40:0c:84:b6:0d:fa:38:c0:59:cc:0e:d7:fc:
                    ff:df:e9:b0:79:0e:8e:43:b8:1c:60:05:15:02:18:
                    ad:b4:d0:11:91:c1:f4:5b:26:d0:e2:c5:9f:ea:74:
                    d8:5a:dd:5e:0e:58:3e:df:06:7e:a5:c1:5e:e4:67:
                    f6:89:c8:57:af:c3:c3:5a:0d:d7:47:f9:36:32:3f:
                    66:64:10:6d:d5:2c:c1:9c:1e:dc:88:91:d2:14:f7:
                    2b:a3:f2:ab:81:8c:fa:1f:8c:6f:85:ca:0e:e1:a0:
                    bf:d2:53:b7:6a:5f:60:5c:ab:40:0e:22:e3:11:a2:
                    d5:71:e8:d0:0c:fb:f0:0f:32:84:26:01:90:c4:80:
                    f4:bd:97:18:e5:9d:71:05:64:9b:65:80:b1:1c:c4:
                    f4:2f:3b:0c:c4:3b:15:28:16:ef:f8:2f:eb:c0:3f:
                    3e:a1
                Exponent: 65537 (0x10001)
        X509v3 extensions:
            X509v3 Basic Constraints: 
                CA:FALSE
            X509v3 Subject Key Identifier: 
                89:B0:27:20:EA:60:BE:37:B2:1E:D6:7C:12:00:72:DA:3D:C7:81:13
            X509v3 Authority Key Identifier: 
                keyid:46:66:87:57:4A:7F:C0:5C:D7:C3:9C:C9:00:0B:7B:6E:65:3B:B1:9F
                DirName:/CN=team336-net
                serial:3E:43:65:DD:55:8E:DE:9C:46:65:CB:CE:CE:6C:EA:14:BD:1C:00:F2

            X509v3 Extended Key Usage: 
                TLS Web Server Authentication
            X509v3 Key Usage: 
                Digital Signature, Key Encipherment
            X509v3 Subject Alternative Name: 
                DNS:team336-server
    Signature Algorithm: sha256WithRSAEncryption
         59:2a:2f:86:3b:67:ec:b3:c3:25:e5:a3:47:b7:70:34:34:c2:
         26:c8:f3:7b:35:56:28:dc:33:e1:6b:43:0b:a8:64:c3:dc:f7:
         ce:34:17:3a:2d:6a:07:0e:2d:73:42:9c:ff:fb:74:e4:a4:bd:
         40:04:03:88:a1:4f:5d:85:5f:0e:ef:42:d6:89:0d:4d:7e:42:
         34:b3:a5:ef:e4:bc:12:2d:86:9a:ba:0c:67:4d:46:0f:54:f6:
         2b:aa:4e:71:6c:a9:9b:79:74:17:51:11:85:d4:e0:a7:88:a8:
         38:48:1e:4b:eb:a0:1e:9f:19:60:dc:2d:21:5e:c7:ef:c5:4a:
         38:99:90:77:24:39:e2:06:c7:45:ee:86:7b:d6:1a:09:b5:28:
         ab:5c:bf:26:47:7f:d0:8e:02:b3:2e:c5:5a:f1:bb:2b:bc:66:
         ff:f2:cf:07:53:40:e5:64:62:a3:8b:49:fe:2f:98:c2:47:bf:
         8f:77:14:3a:e1:44:19:61:0f:53:64:e8:a0:d3:b5:92:44:f2:
         00:66:2b:75:d2:c2:b3:67:10:42:1b:1f:8d:2f:7d:64:c4:0b:
         08:58:da:35:57:cc:00:01:d2:04:dc:83:db:1e:b7:20:18:f5:
         9b:c2:c0:2a:45:36:72:4e:04:dd:26:a5:4b:7f:64:54:ac:46:
         03:34:5c:50
-----BEGIN CERTIFICATE-----
MIIDdzCCAl+gAwIBAgIQeBnw+PIfoiGcUDHG8A4I6DANBgkqhkiG9w0BAQsFADAW
MRQwEgYDVQQDDAt0ZWFtMzM2LW5ldDAeFw0yMjA1MTgyMDI5MTBaFw0yNTA1MDIy
MDI5MTBaMBkxFzAVBgNVBAMMDnRlYW0zMzYtc2VydmVyMIIBIjANBgkqhkiG9w0B
AQEFAAOCAQ8AMIIBCgKCAQEAvoq8Tq/wkQjib4X2n62Fgxp3HPNZlnsEYvdosI19
FWGUYybCEqGKSZNRsF0sT00k1AfBa5Oppq7OfZ2RzZqtTuX8hLz+u3rfD5NB2lYM
mXvB8SpBkRrhXbqcGUAMhLYN+jjAWcwO1/z/3+mweQ6OQ7gcYAUVAhittNARkcH0
WybQ4sWf6nTYWt1eDlg+3wZ+pcFe5Gf2ichXr8PDWg3XR/k2Mj9mZBBt1SzBnB7c
iJHSFPcro/KrgYz6H4xvhcoO4aC/0lO3al9gXKtADiLjEaLVcejQDPvwDzKEJgGQ
xID0vZcY5Z1xBWSbZYCxHMT0LzsMxDsVKBbv+C/rwD8+oQIDAQABo4G9MIG6MAkG
A1UdEwQCMAAwHQYDVR0OBBYEFImwJyDqYL43sh7WfBIActo9x4ETMFEGA1UdIwRK
MEiAFEZmh1dKf8Bc18OcyQALe25lO7GfoRqkGDAWMRQwEgYDVQQDDAt0ZWFtMzM2
LW5ldIIUPkNl3VWO3pxGZcvOzmzqFL0cAPIwEwYDVR0lBAwwCgYIKwYBBQUHAwEw
CwYDVR0PBAQDAgWgMBkGA1UdEQQSMBCCDnRlYW0zMzYtc2VydmVyMA0GCSqGSIb3
DQEBCwUAA4IBAQBZKi+GO2fss8Ml5aNHt3A0NMImyPN7NVYo3DPha0MLqGTD3PfO
NBc6LWoHDi1zQpz/+3TkpL1ABAOIoU9dhV8O70LWiQ1NfkI0s6Xv5LwSLYaaugxn
TUYPVPYrqk5xbKmbeXQXURGF1OCniKg4SB5L66Aenxlg3C0hXsfvxUo4mZB3JDni
BsdF7oZ71hoJtSirXL8mR3/QjgKzLsVa8bsrvGb/8s8HU0DlZGKji0n+L5jCR7+P
dxQ64UQZYQ9TZOig07WSRPIAZit10sKzZxBCGx+NL31kxAsIWNo1V8wAAdIE3IPb
HrcgGPWbwsAqRTZyTgTdJqVLf2RUrEYDNFxQ
-----END CERTIFICATE-----
