Certificate:
    Data:
        Version: 3 (0x2)
        Serial Number:
            12:5c:30:3f:53:fa:55:27:ee:8f:ca:9b:a7:13:30:7e
        Signature Algorithm: sha256WithRSAEncryption
        Issuer: CN=team15-net
        Validity
            Not Before: May 18 14:04:19 2022 GMT
            Not After : May  2 14:04:19 2025 GMT
        Subject: CN=team15-server
        Subject Public Key Info:
            Public Key Algorithm: rsaEncryption
                RSA Public-Key: (2048 bit)
                Modulus:
                    00:bc:e1:9d:cd:a0:0a:cf:7e:bc:4f:75:cf:e8:32:
                    7f:29:1f:0d:c3:a1:d6:f1:d8:37:29:fe:bd:ef:51:
                    91:1c:40:3e:6f:86:ad:43:d8:46:f4:5c:05:bd:52:
                    38:68:63:d6:98:62:13:bf:18:d0:bc:ac:61:11:3d:
                    d2:02:93:01:a6:e2:e7:c4:fc:d3:ae:4e:1f:d9:74:
                    b2:6c:63:cd:06:d9:3c:f6:c3:88:e2:38:48:b5:3b:
                    2c:41:8b:0d:9d:bc:a5:6e:57:57:36:73:70:27:71:
                    1d:3f:ba:82:8d:ed:9f:4b:38:65:bc:88:90:54:2c:
                    88:27:ec:f4:5b:c8:d6:20:13:ec:b1:66:78:07:2f:
                    49:87:f2:a8:3b:0d:fb:63:ba:59:7e:8b:80:73:e8:
                    59:63:51:9b:c7:80:a3:a8:44:5b:d8:f9:1b:e6:7b:
                    20:8d:39:c4:8d:9f:0a:ab:48:6a:47:c7:e2:82:f0:
                    45:60:a6:e9:68:bd:cc:95:79:83:9b:03:d2:77:85:
                    1a:4d:9f:7b:c8:2a:e3:34:bf:05:9b:55:e8:17:91:
                    0d:e2:9e:8f:36:8e:ed:bb:cf:32:47:25:32:ab:8d:
                    54:35:01:4f:2d:d5:08:16:9b:c6:bf:a4:a1:2c:b9:
                    22:3a:ff:32:03:c4:f5:87:12:15:8f:b5:4e:b0:7a:
                    49:03
                Exponent: 65537 (0x10001)
        X509v3 extensions:
            X509v3 Basic Constraints: 
                CA:FALSE
            X509v3 Subject Key Identifier: 
                B9:A6:18:0E:4D:E8:2E:E8:0A:9C:6E:AF:BB:18:4F:0F:83:B0:0D:2B
            X509v3 Authority Key Identifier: 
                keyid:DD:AF:AD:DE:DD:43:23:29:C0:73:17:0C:A4:BB:21:F0:04:D2:75:D7
                DirName:/CN=team15-net
                serial:05:0C:09:EA:A8:FE:CA:B0:9D:18:F5:75:8F:22:5B:B6:3E:71:B4:13

            X509v3 Extended Key Usage: 
                TLS Web Server Authentication
            X509v3 Key Usage: 
                Digital Signature, Key Encipherment
            X509v3 Subject Alternative Name: 
                DNS:team15-server
    Signature Algorithm: sha256WithRSAEncryption
         02:94:4c:7e:fa:aa:63:2d:77:01:8c:3a:16:b3:e0:10:7f:48:
         7d:92:58:29:6d:90:dd:a7:67:94:56:43:79:57:b1:c7:e1:3e:
         3b:5f:3c:ec:e2:2e:df:e8:4f:aa:c8:e5:be:02:b8:31:7d:36:
         95:bb:34:1d:57:db:c1:4a:9a:bc:45:8f:b0:f8:d7:5b:80:33:
         58:b2:9f:e0:12:76:0c:ca:8d:27:7e:5c:71:87:0d:02:5f:42:
         16:ce:39:81:b3:3d:8f:35:b1:23:71:75:cd:1f:19:65:1d:b0:
         c0:27:8e:ae:4d:1b:f1:37:55:30:37:d8:1a:d4:fd:c3:85:da:
         8c:bc:f6:66:df:c4:9a:a8:d5:90:d3:76:49:05:66:a9:27:cd:
         d8:99:47:1a:5a:d9:1f:17:e6:60:e6:d7:57:ce:47:ef:2f:0d:
         92:5c:b7:32:38:f5:60:8d:aa:77:9b:01:e0:83:2e:7e:10:af:
         54:11:30:44:8c:76:a2:5e:18:77:31:70:bf:51:51:2f:8e:a8:
         e3:5a:b4:be:42:32:19:dd:f8:82:66:8d:20:5a:da:ac:9a:78:
         8e:5f:7d:bd:4e:77:b8:6a:f0:d4:68:ad:e2:8d:76:71:3f:7c:
         69:77:37:a6:83:bf:6e:cb:17:43:a0:8f:36:f6:a1:b8:88:d6:
         a5:b9:0d:1d
-----BEGIN CERTIFICATE-----
MIIDczCCAlugAwIBAgIQElwwP1P6VSfuj8qbpxMwfjANBgkqhkiG9w0BAQsFADAV
MRMwEQYDVQQDDAp0ZWFtMTUtbmV0MB4XDTIyMDUxODE0MDQxOVoXDTI1MDUwMjE0
MDQxOVowGDEWMBQGA1UEAwwNdGVhbTE1LXNlcnZlcjCCASIwDQYJKoZIhvcNAQEB
BQADggEPADCCAQoCggEBALzhnc2gCs9+vE91z+gyfykfDcOh1vHYNyn+ve9RkRxA
Pm+GrUPYRvRcBb1SOGhj1phiE78Y0LysYRE90gKTAabi58T8065OH9l0smxjzQbZ
PPbDiOI4SLU7LEGLDZ28pW5XVzZzcCdxHT+6go3tn0s4ZbyIkFQsiCfs9FvI1iAT
7LFmeAcvSYfyqDsN+2O6WX6LgHPoWWNRm8eAo6hEW9j5G+Z7II05xI2fCqtIakfH
4oLwRWCm6Wi9zJV5g5sD0neFGk2fe8gq4zS/BZtV6BeRDeKejzaO7bvPMkclMquN
VDUBTy3VCBabxr+koSy5Ijr/MgPE9YcSFY+1TrB6SQMCAwEAAaOBuzCBuDAJBgNV
HRMEAjAAMB0GA1UdDgQWBBS5phgOTegu6Aqcbq+7GE8Pg7ANKzBQBgNVHSMESTBH
gBTdr63e3UMjKcBzFwykuyHwBNJ116EZpBcwFTETMBEGA1UEAwwKdGVhbTE1LW5l
dIIUBQwJ6qj+yrCdGPV1jyJbtj5xtBMwEwYDVR0lBAwwCgYIKwYBBQUHAwEwCwYD
VR0PBAQDAgWgMBgGA1UdEQQRMA+CDXRlYW0xNS1zZXJ2ZXIwDQYJKoZIhvcNAQEL
BQADggEBAAKUTH76qmMtdwGMOhaz4BB/SH2SWCltkN2nZ5RWQ3lXscfhPjtfPOzi
Lt/oT6rI5b4CuDF9NpW7NB1X28FKmrxFj7D411uAM1iyn+ASdgzKjSd+XHGHDQJf
QhbOOYGzPY81sSNxdc0fGWUdsMAnjq5NG/E3VTA32BrU/cOF2oy89mbfxJqo1ZDT
dkkFZqknzdiZRxpa2R8X5mDm11fOR+8vDZJctzI49WCNqnebAeCDLn4Qr1QRMESM
dqJeGHcxcL9RUS+OqONatL5CMhnd+IJmjSBa2qyaeI5ffb1Od7hq8NRoreKNdnE/
fGl3N6aDv27LF0Ogjzb2obiI1qW5DR0=
-----END CERTIFICATE-----
