Certificate:
    Data:
        Version: 3 (0x2)
        Serial Number:
            44:47:ab:bb:a0:b9:81:f7:a3:dc:a9:2f:ed:41:d5:ba
        Signature Algorithm: sha256WithRSAEncryption
        Issuer: CN=team482-net
        Validity
            Not Before: May 18 21:33:59 2022 GMT
            Not After : May  2 21:33:59 2025 GMT
        Subject: CN=team482-server
        Subject Public Key Info:
            Public Key Algorithm: rsaEncryption
                RSA Public-Key: (2048 bit)
                Modulus:
                    00:ae:41:34:85:19:db:93:a8:d8:ef:c7:d0:b8:f8:
                    5e:fe:ad:ca:a4:e3:b7:4f:3b:eb:40:6e:e5:cb:09:
                    0d:b9:50:89:a5:80:04:17:5c:1c:e5:3c:ba:c9:1d:
                    3d:5b:16:40:f3:cf:09:4d:86:66:de:07:6c:1e:4a:
                    16:40:76:a3:9c:c6:06:a9:d3:ed:36:9d:6b:88:06:
                    4f:32:64:1e:da:a3:71:65:74:5b:07:d5:2f:24:9e:
                    96:6b:07:f4:fa:51:94:ac:04:84:56:e8:34:e6:58:
                    87:35:fd:75:c4:dc:8a:f2:85:9d:da:0a:52:65:81:
                    9f:47:4e:c8:fa:95:a0:14:77:42:5e:69:f4:7f:4b:
                    a8:3a:ff:56:11:06:99:8a:45:d1:eb:8f:df:d8:5f:
                    09:50:c4:42:ba:cf:1e:ac:10:05:44:45:27:8a:07:
                    77:29:89:eb:dd:db:e4:5c:8a:bc:3d:e6:1b:53:5c:
                    9c:19:57:f6:a7:ab:be:59:76:a3:70:43:a9:1b:15:
                    f9:ef:16:04:ac:72:8c:4c:46:01:36:d9:6e:4a:d4:
                    e0:8e:6e:20:87:d3:b2:6a:6d:5c:d8:9b:06:e8:cc:
                    a6:cd:98:f6:16:11:03:8a:e9:03:5e:13:26:ab:9e:
                    02:07:74:08:f8:b6:e7:69:1e:61:27:e4:86:b6:93:
                    8d:93
                Exponent: 65537 (0x10001)
        X509v3 extensions:
            X509v3 Basic Constraints: 
                CA:FALSE
            X509v3 Subject Key Identifier: 
                9B:B4:F8:5E:F7:AE:77:F6:C3:B3:C1:63:76:78:8A:10:AA:EC:98:47
            X509v3 Authority Key Identifier: 
                keyid:84:8F:5B:4E:BA:B9:E2:16:7E:83:0A:0D:CA:85:11:AD:70:AA:46:28
                DirName:/CN=team482-net
                serial:38:03:62:BC:98:73:99:FF:67:F1:A5:50:64:25:00:4E:63:9B:60:A9

            X509v3 Extended Key Usage: 
                TLS Web Server Authentication
            X509v3 Key Usage: 
                Digital Signature, Key Encipherment
            X509v3 Subject Alternative Name: 
                DNS:team482-server
    Signature Algorithm: sha256WithRSAEncryption
         03:0a:b4:a8:77:08:20:06:71:2b:0c:dd:d9:37:a9:0e:f8:a8:
         b5:e0:5e:31:d5:ec:f7:2f:f7:d1:1d:f2:6c:3e:df:4f:24:e5:
         ad:58:28:d2:b1:3a:17:4e:4e:59:2a:d1:de:7f:b6:8d:f8:e1:
         31:b1:66:0a:3f:50:cf:c5:78:6c:d0:3b:0b:c5:25:5a:55:9c:
         cd:cb:cb:f0:50:00:f9:35:e1:d6:61:d1:78:cc:f6:05:90:2f:
         f1:8b:90:ba:d2:9c:b5:23:67:46:93:25:47:7a:e9:2e:33:00:
         6e:06:0d:f7:ec:9c:69:b4:f1:47:3d:7c:8e:9e:ee:d8:2a:c3:
         a0:55:7e:1f:93:63:ae:37:4c:14:b1:54:6c:44:ef:e7:ee:ac:
         63:e8:1a:00:12:21:36:58:72:82:0f:02:fe:58:22:90:4e:6c:
         2b:9d:9c:62:e0:83:17:61:bc:72:06:ed:c7:48:a4:18:28:bc:
         fb:de:b9:1b:a4:ec:e7:da:6b:0b:47:56:12:ce:0b:cc:20:98:
         4e:f2:26:c4:80:e2:d3:67:af:62:52:b9:ac:a3:99:cc:77:52:
         98:c2:bd:23:35:3c:6c:8d:73:c1:ea:4d:39:ff:7e:7d:50:6e:
         dc:61:96:48:8f:c8:e8:a0:b1:30:6d:18:ab:bf:3f:3d:80:83:
         ed:b3:57:f1
-----BEGIN CERTIFICATE-----
MIIDdzCCAl+gAwIBAgIQREeru6C5gfej3Kkv7UHVujANBgkqhkiG9w0BAQsFADAW
MRQwEgYDVQQDDAt0ZWFtNDgyLW5ldDAeFw0yMjA1MTgyMTMzNTlaFw0yNTA1MDIy
MTMzNTlaMBkxFzAVBgNVBAMMDnRlYW00ODItc2VydmVyMIIBIjANBgkqhkiG9w0B
AQEFAAOCAQ8AMIIBCgKCAQEArkE0hRnbk6jY78fQuPhe/q3KpOO3TzvrQG7lywkN
uVCJpYAEF1wc5Ty6yR09WxZA888JTYZm3gdsHkoWQHajnMYGqdPtNp1riAZPMmQe
2qNxZXRbB9UvJJ6Wawf0+lGUrASEVug05liHNf11xNyK8oWd2gpSZYGfR07I+pWg
FHdCXmn0f0uoOv9WEQaZikXR64/f2F8JUMRCus8erBAFREUnigd3KYnr3dvkXIq8
PeYbU1ycGVf2p6u+WXajcEOpGxX57xYErHKMTEYBNtluStTgjm4gh9Oyam1c2JsG
6MymzZj2FhEDiukDXhMmq54CB3QI+LbnaR5hJ+SGtpONkwIDAQABo4G9MIG6MAkG
A1UdEwQCMAAwHQYDVR0OBBYEFJu0+F73rnf2w7PBY3Z4ihCq7JhHMFEGA1UdIwRK
MEiAFISPW066ueIWfoMKDcqFEa1wqkYooRqkGDAWMRQwEgYDVQQDDAt0ZWFtNDgy
LW5ldIIUOANivJhzmf9n8aVQZCUATmObYKkwEwYDVR0lBAwwCgYIKwYBBQUHAwEw
CwYDVR0PBAQDAgWgMBkGA1UdEQQSMBCCDnRlYW00ODItc2VydmVyMA0GCSqGSIb3
DQEBCwUAA4IBAQADCrSodwggBnErDN3ZN6kO+Ki14F4x1ez3L/fRHfJsPt9PJOWt
WCjSsToXTk5ZKtHef7aN+OExsWYKP1DPxXhs0DsLxSVaVZzNy8vwUAD5NeHWYdF4
zPYFkC/xi5C60py1I2dGkyVHeukuMwBuBg337JxptPFHPXyOnu7YKsOgVX4fk2Ou
N0wUsVRsRO/n7qxj6BoAEiE2WHKCDwL+WCKQTmwrnZxi4IMXYbxyBu3HSKQYKLz7
3rkbpOzn2msLR1YSzgvMIJhO8ibEgOLTZ69iUrmso5nMd1KYwr0jNTxsjXPB6k05
/359UG7cYZZIj8jooLEwbRirvz89gIPts1fx
-----END CERTIFICATE-----
