Certificate:
    Data:
        Version: 3 (0x2)
        Serial Number:
            72:38:bd:b0:69:3e:fb:b1:44:83:6d:1b:7a:b5:85:83
        Signature Algorithm: sha256WithRSAEncryption
        Issuer: CN=team482-net
        Validity
            Not Before: May 18 21:33:58 2022 GMT
            Not After : May  2 21:33:58 2025 GMT
        Subject: CN=team482-client
        Subject Public Key Info:
            Public Key Algorithm: rsaEncryption
                RSA Public-Key: (2048 bit)
                Modulus:
                    00:ab:44:31:f7:68:08:00:39:91:08:37:a3:99:da:
                    c2:c3:12:e2:9e:c3:54:30:f5:a1:34:40:b2:91:28:
                    4e:1d:53:35:90:9f:95:91:f9:5d:c3:df:a0:0c:33:
                    e4:54:c3:f5:a6:69:4e:fa:71:d2:85:14:35:c8:97:
                    51:90:63:fc:a5:6f:7e:5c:d0:1a:cf:ab:29:2e:f5:
                    d8:c5:bf:4f:1e:28:d4:a4:93:2d:52:f4:6c:01:51:
                    9c:f0:8d:f4:8a:1f:8c:02:2b:71:16:6c:ea:13:ae:
                    b7:b5:3a:97:60:4b:19:2b:0a:ea:ed:a0:e6:9e:8a:
                    0f:a3:47:4a:41:3d:f2:52:3d:36:41:ed:7f:a0:46:
                    c8:b6:77:67:4f:eb:dc:74:31:50:c9:0a:09:4a:93:
                    dd:da:f8:21:ec:89:5b:57:1e:f1:53:6f:63:33:cb:
                    1e:7f:50:b8:74:46:ea:0c:a3:5c:c7:78:5d:fe:ba:
                    ee:c0:59:49:11:10:d7:00:54:88:be:50:f5:d3:3b:
                    5d:26:9b:68:af:8a:ad:4c:5b:51:5e:a7:a6:ad:4d:
                    e2:1b:5e:6a:f6:31:e1:41:8a:1a:76:44:d7:24:af:
                    f1:ae:9a:c9:53:83:a1:42:9e:b5:e9:6d:3b:bc:b3:
                    29:58:b2:15:f2:c6:63:3d:f4:b3:5b:43:89:d1:66:
                    d0:cb
                Exponent: 65537 (0x10001)
        X509v3 extensions:
            X509v3 Basic Constraints: 
                CA:FALSE
            X509v3 Subject Key Identifier: 
                FE:09:BE:DA:83:9E:93:31:6C:A5:1B:5C:F1:1B:95:32:28:34:3A:4A
            X509v3 Authority Key Identifier: 
                keyid:84:8F:5B:4E:BA:B9:E2:16:7E:83:0A:0D:CA:85:11:AD:70:AA:46:28
                DirName:/CN=team482-net
                serial:38:03:62:BC:98:73:99:FF:67:F1:A5:50:64:25:00:4E:63:9B:60:A9

            X509v3 Extended Key Usage: 
                TLS Web Client Authentication
            X509v3 Key Usage: 
                Digital Signature
    Signature Algorithm: sha256WithRSAEncryption
         47:6f:dc:64:cf:20:d5:92:91:ea:5e:80:db:cb:7c:65:c6:02:
         69:e6:78:e4:41:27:1b:bf:00:99:77:5f:c2:f9:c3:86:58:7d:
         f5:e5:b5:49:ac:3f:8d:62:b3:be:90:8b:c1:33:b6:e8:78:c5:
         9f:60:c8:e6:20:8a:3e:cc:04:80:ec:de:a3:cb:b3:2d:d7:b4:
         76:87:de:72:08:9a:07:1a:1b:4c:91:19:53:ad:d3:8f:f5:02:
         29:3f:d3:0c:ee:94:5e:fe:9e:a4:b8:f3:84:a7:c1:4d:c1:99:
         40:0e:fe:ad:6f:61:45:26:05:b0:e4:11:e0:84:9a:47:c3:2a:
         7f:8e:cb:79:2e:c4:2d:cd:21:88:73:05:f2:71:a6:de:98:9c:
         3b:f4:e4:18:37:7e:c1:33:51:a2:03:37:d2:72:58:4d:fc:71:
         b6:33:1d:a5:bb:bc:e6:72:3d:1c:64:c7:9f:61:e1:56:62:9b:
         06:77:ff:25:7b:ec:63:e2:e5:2a:ad:ed:44:a2:06:c7:ff:26:
         b8:7a:f9:81:a5:11:95:1f:f0:63:fd:5b:2c:8c:70:e5:72:1b:
         38:a9:72:b1:27:53:0a:1e:ef:93:b1:b4:3c:e7:09:68:6d:74:
         ce:34:69:3d:15:ee:55:3f:0a:7d:66:2e:56:71:d2:77:be:ee:
         75:46:84:f5
-----BEGIN CERTIFICATE-----
MIIDXDCCAkSgAwIBAgIQcji9sGk++7FEg20berWFgzANBgkqhkiG9w0BAQsFADAW
MRQwEgYDVQQDDAt0ZWFtNDgyLW5ldDAeFw0yMjA1MTgyMTMzNThaFw0yNTA1MDIy
MTMzNThaMBkxFzAVBgNVBAMMDnRlYW00ODItY2xpZW50MIIBIjANBgkqhkiG9w0B
AQEFAAOCAQ8AMIIBCgKCAQEAq0Qx92gIADmRCDejmdrCwxLinsNUMPWhNECykShO
HVM1kJ+Vkfldw9+gDDPkVMP1pmlO+nHShRQ1yJdRkGP8pW9+XNAaz6spLvXYxb9P
HijUpJMtUvRsAVGc8I30ih+MAitxFmzqE663tTqXYEsZKwrq7aDmnooPo0dKQT3y
Uj02Qe1/oEbItndnT+vcdDFQyQoJSpPd2vgh7IlbVx7xU29jM8sef1C4dEbqDKNc
x3hd/rruwFlJERDXAFSIvlD10ztdJptor4qtTFtRXqemrU3iG15q9jHhQYoadkTX
JK/xrprJU4OhQp616W07vLMpWLIV8sZjPfSzW0OJ0WbQywIDAQABo4GiMIGfMAkG
A1UdEwQCMAAwHQYDVR0OBBYEFP4JvtqDnpMxbKUbXPEblTIoNDpKMFEGA1UdIwRK
MEiAFISPW066ueIWfoMKDcqFEa1wqkYooRqkGDAWMRQwEgYDVQQDDAt0ZWFtNDgy
LW5ldIIUOANivJhzmf9n8aVQZCUATmObYKkwEwYDVR0lBAwwCgYIKwYBBQUHAwIw
CwYDVR0PBAQDAgeAMA0GCSqGSIb3DQEBCwUAA4IBAQBHb9xkzyDVkpHqXoDby3xl
xgJp5njkQScbvwCZd1/C+cOGWH315bVJrD+NYrO+kIvBM7boeMWfYMjmIIo+zASA
7N6jy7Mt17R2h95yCJoHGhtMkRlTrdOP9QIpP9MM7pRe/p6kuPOEp8FNwZlADv6t
b2FFJgWw5BHghJpHwyp/jst5LsQtzSGIcwXycabemJw79OQYN37BM1GiAzfSclhN
/HG2Mx2lu7zmcj0cZMefYeFWYpsGd/8le+xj4uUqre1EogbH/ya4evmBpRGVH/Bj
/VssjHDlchs4qXKxJ1MKHu+TsbQ85wlobXTONGk9Fe5VPwp9Zi5WcdJ3vu51RoT1
-----END CERTIFICATE-----
