Certificate:
    Data:
        Version: 3 (0x2)
        Serial Number:
            5f:35:75:9d:31:24:55:17:df:07:06:c0:ec:db:90:91
        Signature Algorithm: sha256WithRSAEncryption
        Issuer: CN=team308-net
        Validity
            Not Before: May 18 20:01:21 2022 GMT
            Not After : May  2 20:01:21 2025 GMT
        Subject: CN=team308-server
        Subject Public Key Info:
            Public Key Algorithm: rsaEncryption
                RSA Public-Key: (2048 bit)
                Modulus:
                    00:cb:3c:49:6d:0b:f9:21:a0:48:08:49:c0:88:98:
                    51:da:94:4a:b5:71:2c:63:31:f7:96:36:b4:06:4b:
                    aa:a1:cf:05:f1:16:fb:06:12:17:3a:65:50:38:bc:
                    62:ee:7a:46:7b:27:0e:5a:de:15:75:9f:22:10:f1:
                    bc:5e:6c:94:be:28:bc:a2:c7:f3:a3:44:0a:f7:df:
                    96:3b:5c:42:a5:fb:b4:18:87:d5:1e:56:4b:dd:c2:
                    65:5e:89:e8:2f:07:ae:a9:c9:52:ca:4f:60:12:50:
                    ea:38:10:c3:f5:f2:bf:2b:90:73:0b:ba:b7:4c:3e:
                    32:08:ea:4b:f9:28:0f:0f:0a:29:4d:15:c7:42:ae:
                    cb:2c:d5:23:a9:76:81:bc:ad:da:1d:d1:f7:9b:92:
                    be:78:b3:04:ff:42:68:f5:63:48:4e:6f:b3:2a:82:
                    1d:95:ab:6a:59:ae:71:0f:83:be:53:8e:0e:78:e1:
                    d5:6d:7d:20:97:a6:c9:9c:bf:73:8a:10:2a:96:47:
                    f7:76:9e:ef:2c:b0:5b:7e:82:88:d1:16:75:4a:6d:
                    61:5c:65:7b:88:c2:f4:57:75:7e:6e:ee:2a:23:6f:
                    45:24:12:56:f1:03:0d:b2:db:e6:67:aa:5c:d9:82:
                    87:29:cf:7f:06:b3:11:74:b6:e6:69:c4:b2:f6:d0:
                    58:41
                Exponent: 65537 (0x10001)
        X509v3 extensions:
            X509v3 Basic Constraints: 
                CA:FALSE
            X509v3 Subject Key Identifier: 
                AE:CC:26:30:CF:0D:1C:89:14:ED:C3:E5:AF:33:FC:B9:9E:42:13:F7
            X509v3 Authority Key Identifier: 
                keyid:58:95:64:FA:4B:D5:05:4D:A7:5A:38:E2:F0:31:52:03:EE:58:0E:1D
                DirName:/CN=team308-net
                serial:36:F5:92:C5:D1:0B:75:FF:CC:45:6E:1D:5D:00:0D:3E:3D:54:7B:86

            X509v3 Extended Key Usage: 
                TLS Web Server Authentication
            X509v3 Key Usage: 
                Digital Signature, Key Encipherment
            X509v3 Subject Alternative Name: 
                DNS:team308-server
    Signature Algorithm: sha256WithRSAEncryption
         16:8d:96:5c:41:72:51:ba:44:01:1b:b3:f0:8c:6b:b1:8e:e3:
         78:f4:02:62:ec:e2:77:92:71:52:9f:93:b3:3e:d7:b1:7d:ca:
         ad:85:fc:c6:3a:0a:3f:24:bd:1e:35:88:66:a1:34:e5:f0:e2:
         7f:16:3b:19:c3:20:96:03:45:aa:db:99:2f:f2:fb:d0:81:c1:
         f1:c5:be:01:cd:5e:36:67:d7:8b:d4:2b:95:e9:f4:4a:42:0e:
         b1:d9:d4:f4:c1:22:fc:06:63:58:e8:ef:24:1b:49:d0:5f:bf:
         46:63:62:ec:9f:87:5d:ee:3b:f8:4e:f0:57:6a:d0:35:73:37:
         36:3c:eb:12:f3:29:2a:37:5a:eb:56:a8:ba:ad:1f:ac:41:69:
         7e:39:ac:e1:63:bd:45:0c:78:a4:56:8a:6f:68:68:36:65:a8:
         b9:3e:0f:1b:ab:93:44:42:cf:6c:11:6a:f8:3c:46:ea:84:ff:
         33:be:d0:23:9f:32:b9:9a:e6:c1:e4:87:ac:07:44:0c:50:b4:
         80:a1:71:20:9f:58:67:14:3a:24:46:bc:41:3d:d6:42:2b:af:
         e1:83:66:7e:ce:43:e6:bc:d6:c2:bf:f5:23:b5:89:43:5f:cb:
         d5:2e:52:c8:ca:2b:bf:f6:11:43:23:4d:10:83:4b:f6:f4:4f:
         ac:14:eb:59
-----BEGIN CERTIFICATE-----
MIIDdzCCAl+gAwIBAgIQXzV1nTEkVRffBwbA7NuQkTANBgkqhkiG9w0BAQsFADAW
MRQwEgYDVQQDDAt0ZWFtMzA4LW5ldDAeFw0yMjA1MTgyMDAxMjFaFw0yNTA1MDIy
MDAxMjFaMBkxFzAVBgNVBAMMDnRlYW0zMDgtc2VydmVyMIIBIjANBgkqhkiG9w0B
AQEFAAOCAQ8AMIIBCgKCAQEAyzxJbQv5IaBICEnAiJhR2pRKtXEsYzH3lja0Bkuq
oc8F8Rb7BhIXOmVQOLxi7npGeycOWt4VdZ8iEPG8XmyUvii8osfzo0QK99+WO1xC
pfu0GIfVHlZL3cJlXonoLweuqclSyk9gElDqOBDD9fK/K5BzC7q3TD4yCOpL+SgP
DwopTRXHQq7LLNUjqXaBvK3aHdH3m5K+eLME/0Jo9WNITm+zKoIdlatqWa5xD4O+
U44OeOHVbX0gl6bJnL9zihAqlkf3dp7vLLBbfoKI0RZ1Sm1hXGV7iML0V3V+bu4q
I29FJBJW8QMNstvmZ6pc2YKHKc9/BrMRdLbmacSy9tBYQQIDAQABo4G9MIG6MAkG
A1UdEwQCMAAwHQYDVR0OBBYEFK7MJjDPDRyJFO3D5a8z/LmeQhP3MFEGA1UdIwRK
MEiAFFiVZPpL1QVNp1o44vAxUgPuWA4doRqkGDAWMRQwEgYDVQQDDAt0ZWFtMzA4
LW5ldIIUNvWSxdELdf/MRW4dXQANPj1Ue4YwEwYDVR0lBAwwCgYIKwYBBQUHAwEw
CwYDVR0PBAQDAgWgMBkGA1UdEQQSMBCCDnRlYW0zMDgtc2VydmVyMA0GCSqGSIb3
DQEBCwUAA4IBAQAWjZZcQXJRukQBG7PwjGuxjuN49AJi7OJ3knFSn5OzPtexfcqt
hfzGOgo/JL0eNYhmoTTl8OJ/FjsZwyCWA0Wq25kv8vvQgcHxxb4BzV42Z9eL1CuV
6fRKQg6x2dT0wSL8BmNY6O8kG0nQX79GY2Lsn4dd7jv4TvBXatA1czc2POsS8ykq
N1rrVqi6rR+sQWl+OazhY71FDHikVopvaGg2Zai5Pg8bq5NEQs9sEWr4PEbqhP8z
vtAjnzK5mubB5IesB0QMULSAoXEgn1hnFDokRrxBPdZCK6/hg2Z+zkPmvNbCv/Uj
tYlDX8vVLlLIyiu/9hFDI00Qg0v29E+sFOtZ
-----END CERTIFICATE-----
