Certificate:
    Data:
        Version: 3 (0x2)
        Serial Number:
            7b:ec:15:4e:05:15:69:79:5d:30:df:23:49:98:c3:c7
        Signature Algorithm: sha256WithRSAEncryption
        Issuer: CN=team501-net
        Validity
            Not Before: May 18 21:45:15 2022 GMT
            Not After : May  2 21:45:15 2025 GMT
        Subject: CN=team501-server
        Subject Public Key Info:
            Public Key Algorithm: rsaEncryption
                RSA Public-Key: (2048 bit)
                Modulus:
                    00:9e:c1:f9:b8:0e:91:71:1a:8c:a4:16:14:0a:a6:
                    a4:8a:bd:c2:27:c8:7e:69:b8:7a:33:48:99:43:0d:
                    93:9e:90:49:8f:71:24:a6:5d:cb:ad:5d:69:1b:8f:
                    14:3a:ce:21:33:fb:7d:65:b8:3f:28:bf:7d:4e:4d:
                    d2:08:b4:32:02:6d:5b:7b:62:5d:a7:0e:98:5f:5c:
                    6e:83:b8:da:62:67:2d:06:44:7c:07:7d:e7:a6:f5:
                    bf:01:5c:c6:a3:c0:13:9e:f0:1f:36:c9:f4:6b:6b:
                    5f:03:5b:74:cd:fc:09:97:c6:d3:c5:79:2e:c4:06:
                    64:b6:bc:79:34:a5:a8:6b:96:83:38:ec:27:63:d3:
                    7f:37:c9:24:7d:32:2a:c7:40:8b:12:92:73:80:29:
                    e4:3f:39:9b:b9:95:a6:a6:cb:64:f1:6b:04:84:7b:
                    e1:11:0a:60:cc:d7:00:29:03:10:0c:d8:be:f1:42:
                    38:ce:98:60:10:16:d9:5b:af:2a:81:df:2a:47:1a:
                    9e:5f:45:1e:79:ff:a4:f8:30:79:87:1d:4b:48:16:
                    68:c0:83:9c:57:56:b6:9e:bf:64:df:3b:1e:1d:88:
                    fc:bf:e6:a9:ca:f2:8d:c5:fc:3f:3c:ae:01:6f:d3:
                    18:5e:39:33:63:dd:fb:79:b7:85:ad:bd:05:1b:ae:
                    bb:f9
                Exponent: 65537 (0x10001)
        X509v3 extensions:
            X509v3 Basic Constraints: 
                CA:FALSE
            X509v3 Subject Key Identifier: 
                51:FC:EB:C6:3A:C4:F4:8C:F2:EC:4F:90:0F:B2:B3:92:39:EA:E4:2E
            X509v3 Authority Key Identifier: 
                keyid:AD:8D:6B:20:43:7F:71:AF:7A:C7:AF:11:5B:5A:DB:F1:3A:C2:A7:DD
                DirName:/CN=team501-net
                serial:10:BB:7E:06:37:48:F9:2B:D8:FB:93:FC:CC:3B:AB:75:92:69:4F:FC

            X509v3 Extended Key Usage: 
                TLS Web Server Authentication
            X509v3 Key Usage: 
                Digital Signature, Key Encipherment
            X509v3 Subject Alternative Name: 
                DNS:team501-server
    Signature Algorithm: sha256WithRSAEncryption
         2d:15:4d:02:16:99:97:a7:0a:0d:fa:e6:bc:0c:30:28:c1:97:
         44:e4:97:88:e8:94:ee:b6:57:20:5c:38:fa:2f:cb:c6:91:0e:
         96:6c:b0:7c:c2:74:ac:a2:9a:a1:06:63:91:cc:d9:e5:b6:00:
         39:23:20:09:e8:4c:ba:a3:46:ae:66:da:1b:dd:8c:b2:c6:02:
         84:d2:b5:a2:10:94:e9:4d:ad:77:24:b2:9f:b3:78:93:f1:72:
         9e:ef:09:f1:93:cb:84:c5:b1:7d:42:4a:25:cd:5a:f9:c9:04:
         4d:11:77:12:b5:86:65:4c:c3:f5:53:cf:42:b1:cd:92:9a:19:
         67:0f:8f:d7:50:e9:f4:8e:7e:e5:2f:c3:57:51:65:38:6b:1b:
         1e:f8:cd:23:c6:6d:68:68:4a:9d:c6:05:50:99:c5:ba:9e:b4:
         03:b7:87:43:17:87:b4:24:e2:6a:e4:4d:3f:02:f5:e1:e3:95:
         4c:dd:87:42:8b:de:06:74:d8:02:cb:fe:40:2a:b9:c2:6a:38:
         a1:0e:95:e4:a2:2b:3b:0a:17:e5:ab:78:ee:d0:70:45:c9:dc:
         b4:1d:9e:dd:9e:22:f2:79:f3:da:e3:9c:b5:fa:31:d1:05:5b:
         c2:66:af:11:ee:08:de:74:70:c1:fd:91:43:82:43:9e:46:78:
         c6:ab:06:b7
-----BEGIN CERTIFICATE-----
MIIDdzCCAl+gAwIBAgIQe+wVTgUVaXldMN8jSZjDxzANBgkqhkiG9w0BAQsFADAW
MRQwEgYDVQQDDAt0ZWFtNTAxLW5ldDAeFw0yMjA1MTgyMTQ1MTVaFw0yNTA1MDIy
MTQ1MTVaMBkxFzAVBgNVBAMMDnRlYW01MDEtc2VydmVyMIIBIjANBgkqhkiG9w0B
AQEFAAOCAQ8AMIIBCgKCAQEAnsH5uA6RcRqMpBYUCqakir3CJ8h+abh6M0iZQw2T
npBJj3Ekpl3LrV1pG48UOs4hM/t9Zbg/KL99Tk3SCLQyAm1be2Jdpw6YX1xug7ja
YmctBkR8B33npvW/AVzGo8ATnvAfNsn0a2tfA1t0zfwJl8bTxXkuxAZktrx5NKWo
a5aDOOwnY9N/N8kkfTIqx0CLEpJzgCnkPzmbuZWmpstk8WsEhHvhEQpgzNcAKQMQ
DNi+8UI4zphgEBbZW68qgd8qRxqeX0Ueef+k+DB5hx1LSBZowIOcV1a2nr9k3zse
HYj8v+apyvKNxfw/PK4Bb9MYXjkzY937ebeFrb0FG667+QIDAQABo4G9MIG6MAkG
A1UdEwQCMAAwHQYDVR0OBBYEFFH868Y6xPSM8uxPkA+ys5I56uQuMFEGA1UdIwRK
MEiAFK2NayBDf3GvesevEVta2/E6wqfdoRqkGDAWMRQwEgYDVQQDDAt0ZWFtNTAx
LW5ldIIUELt+BjdI+SvY+5P8zDurdZJpT/wwEwYDVR0lBAwwCgYIKwYBBQUHAwEw
CwYDVR0PBAQDAgWgMBkGA1UdEQQSMBCCDnRlYW01MDEtc2VydmVyMA0GCSqGSIb3
DQEBCwUAA4IBAQAtFU0CFpmXpwoN+ua8DDAowZdE5JeI6JTutlcgXDj6L8vGkQ6W
bLB8wnSsopqhBmORzNnltgA5IyAJ6Ey6o0auZtob3YyyxgKE0rWiEJTpTa13JLKf
s3iT8XKe7wnxk8uExbF9QkolzVr5yQRNEXcStYZlTMP1U89Csc2SmhlnD4/XUOn0
jn7lL8NXUWU4axse+M0jxm1oaEqdxgVQmcW6nrQDt4dDF4e0JOJq5E0/AvXh45VM
3YdCi94GdNgCy/5AKrnCajihDpXkois7Chflq3ju0HBFydy0HZ7dniLyefPa45y1
+jHRBVvCZq8R7gjedHDB/ZFDgkOeRnjGqwa3
-----END CERTIFICATE-----
