Certificate:
    Data:
        Version: 3 (0x2)
        Serial Number:
            28:c7:39:c6:0d:ad:e2:a4:ae:a4:cc:88:a2:67:bf:23
        Signature Algorithm: sha256WithRSAEncryption
        Issuer: CN=team347-net
        Validity
            Not Before: May 18 20:34:36 2022 GMT
            Not After : May  2 20:34:36 2025 GMT
        Subject: CN=team347-client
        Subject Public Key Info:
            Public Key Algorithm: rsaEncryption
                RSA Public-Key: (2048 bit)
                Modulus:
                    00:a4:6d:3d:b5:70:cd:7e:42:f0:27:39:71:a0:2a:
                    c6:23:d7:e9:4e:dd:78:b9:ea:83:2b:51:91:2f:35:
                    e6:62:46:a4:16:80:3c:bb:d8:4e:3f:a9:3a:1c:1c:
                    da:44:5a:5a:2b:f2:7a:31:04:98:a5:91:f1:10:3e:
                    28:43:a5:82:47:e4:54:8b:f4:02:91:c5:36:4d:c3:
                    08:8c:01:a3:4c:09:6a:38:ec:d4:f5:6f:d1:ca:21:
                    f3:da:bb:c7:c2:57:f6:9a:76:f2:7a:94:8d:5e:79:
                    c8:07:d1:0a:ea:f2:2a:75:ef:41:08:50:70:c2:67:
                    02:6f:0c:33:6a:22:29:19:83:68:84:54:57:ea:58:
                    b0:60:b0:19:b9:6d:fa:ed:33:ec:44:b0:93:50:61:
                    72:72:40:bb:32:76:8a:ad:44:ca:c3:0d:21:bd:a1:
                    61:ee:75:3e:fa:0a:98:7c:70:7c:c9:9f:9d:f1:c7:
                    45:15:0c:e6:d4:e9:a1:eb:15:e8:50:df:37:11:8a:
                    12:fd:92:3a:4a:ef:90:40:e9:80:83:3f:ed:16:8c:
                    0f:15:d0:b8:d6:56:91:6b:0a:b2:1c:ef:c3:10:c3:
                    d2:2a:a1:49:94:cb:29:b6:46:79:1c:0d:b8:9a:68:
                    b3:02:85:82:24:ef:4f:2a:21:c6:65:30:e1:f3:ff:
                    21:0f
                Exponent: 65537 (0x10001)
        X509v3 extensions:
            X509v3 Basic Constraints: 
                CA:FALSE
            X509v3 Subject Key Identifier: 
                81:77:AB:CA:57:C8:08:D8:70:3E:37:F6:E8:60:61:9D:39:07:2A:AB
            X509v3 Authority Key Identifier: 
                keyid:3E:7C:81:F1:90:38:F0:4F:20:99:48:E5:DD:B0:A4:D7:B9:8B:BA:6D
                DirName:/CN=team347-net
                serial:6D:74:06:78:B9:6B:ED:7F:EC:C0:1E:2A:7C:4C:1B:C7:0A:C1:07:29

            X509v3 Extended Key Usage: 
                TLS Web Client Authentication
            X509v3 Key Usage: 
                Digital Signature
    Signature Algorithm: sha256WithRSAEncryption
         17:cd:83:a2:0b:f6:d7:39:c1:dd:a2:c3:78:82:f6:f3:63:db:
         06:d8:3d:08:2b:1e:ae:a5:cc:5e:c8:9f:c3:f1:c9:e1:e4:6b:
         20:dc:de:ee:74:2b:08:dc:45:36:61:ea:5d:39:1d:16:0e:d2:
         ca:41:72:b6:52:c1:c5:c7:4a:c2:00:da:62:1d:9a:54:89:ae:
         b3:4e:46:13:63:91:ca:52:18:f2:1d:85:4e:a9:f5:64:3e:09:
         a4:fa:b5:63:02:09:31:77:fc:7a:f8:1b:a6:40:9a:48:9a:09:
         0a:b3:82:c0:fa:94:c4:6d:dc:fb:7d:4c:a7:94:04:5b:72:ad:
         bf:d8:43:f5:b6:3a:a7:f0:f7:02:4d:12:8b:2f:c1:00:69:b8:
         d5:97:be:dd:ca:87:38:e1:5a:48:76:7e:05:c0:48:f1:ca:59:
         43:34:df:ba:a8:92:5d:b2:1f:16:a6:b2:78:20:f8:14:45:95:
         fe:d8:3e:ec:8c:d5:19:46:d9:73:7a:8b:46:2e:9e:67:3f:8f:
         1f:06:1c:dc:14:ab:fe:04:74:a4:d6:c9:63:5e:46:ac:65:59:
         a6:72:57:5e:2d:52:cd:40:84:f9:9e:ec:3b:77:26:43:98:d5:
         b0:61:b9:b7:22:0c:be:47:81:58:ea:95:15:d7:d1:9f:6e:6a:
         c9:d0:7d:de
-----BEGIN CERTIFICATE-----
MIIDXDCCAkSgAwIBAgIQKMc5xg2t4qSupMyIome/IzANBgkqhkiG9w0BAQsFADAW
MRQwEgYDVQQDDAt0ZWFtMzQ3LW5ldDAeFw0yMjA1MTgyMDM0MzZaFw0yNTA1MDIy
MDM0MzZaMBkxFzAVBgNVBAMMDnRlYW0zNDctY2xpZW50MIIBIjANBgkqhkiG9w0B
AQEFAAOCAQ8AMIIBCgKCAQEApG09tXDNfkLwJzlxoCrGI9fpTt14ueqDK1GRLzXm
YkakFoA8u9hOP6k6HBzaRFpaK/J6MQSYpZHxED4oQ6WCR+RUi/QCkcU2TcMIjAGj
TAlqOOzU9W/RyiHz2rvHwlf2mnbyepSNXnnIB9EK6vIqde9BCFBwwmcCbwwzaiIp
GYNohFRX6liwYLAZuW367TPsRLCTUGFyckC7MnaKrUTKww0hvaFh7nU++gqYfHB8
yZ+d8cdFFQzm1Omh6xXoUN83EYoS/ZI6Su+QQOmAgz/tFowPFdC41laRawqyHO/D
EMPSKqFJlMsptkZ5HA24mmizAoWCJO9PKiHGZTDh8/8hDwIDAQABo4GiMIGfMAkG
A1UdEwQCMAAwHQYDVR0OBBYEFIF3q8pXyAjYcD439uhgYZ05ByqrMFEGA1UdIwRK
MEiAFD58gfGQOPBPIJlI5d2wpNe5i7ptoRqkGDAWMRQwEgYDVQQDDAt0ZWFtMzQ3
LW5ldIIUbXQGeLlr7X/swB4qfEwbxwrBBykwEwYDVR0lBAwwCgYIKwYBBQUHAwIw
CwYDVR0PBAQDAgeAMA0GCSqGSIb3DQEBCwUAA4IBAQAXzYOiC/bXOcHdosN4gvbz
Y9sG2D0IKx6upcxeyJ/D8cnh5Gsg3N7udCsI3EU2YepdOR0WDtLKQXK2UsHFx0rC
ANpiHZpUia6zTkYTY5HKUhjyHYVOqfVkPgmk+rVjAgkxd/x6+BumQJpImgkKs4LA
+pTEbdz7fUynlARbcq2/2EP1tjqn8PcCTRKLL8EAabjVl77dyoc44VpIdn4FwEjx
yllDNN+6qJJdsh8WprJ4IPgURZX+2D7sjNUZRtlzeotGLp5nP48fBhzcFKv+BHSk
1sljXkasZVmmcldeLVLNQIT5nuw7dyZDmNWwYbm3Igy+R4FY6pUV19GfbmrJ0H3e
-----END CERTIFICATE-----
