Certificate:
    Data:
        Version: 3 (0x2)
        Serial Number:
            d4:ca:32:cb:67:d1:26:d0:c6:db:f4:08:0b:36:84:31
        Signature Algorithm: sha256WithRSAEncryption
        Issuer: CN=team347-net
        Validity
            Not Before: May 18 20:34:36 2022 GMT
            Not After : May  2 20:34:36 2025 GMT
        Subject: CN=team347-server
        Subject Public Key Info:
            Public Key Algorithm: rsaEncryption
                RSA Public-Key: (2048 bit)
                Modulus:
                    00:cf:31:bb:6a:41:5a:cf:4a:b9:1d:ab:13:d9:b3:
                    56:0e:94:5b:70:1d:89:61:87:24:0e:a8:b2:c1:c1:
                    c7:bb:0e:5d:1d:34:00:db:b1:15:bb:32:1e:97:27:
                    56:49:92:2d:32:d3:dd:65:af:7b:4e:70:60:cf:6d:
                    12:0b:29:ab:0d:a5:6f:8a:a2:a2:04:0f:bb:33:79:
                    ba:41:9a:f3:94:f3:58:68:8a:dd:81:9e:58:49:f9:
                    77:c8:d3:6f:66:64:6e:37:cf:dd:2e:32:6a:32:c2:
                    b4:5a:95:0e:d7:05:c7:58:a9:b8:53:11:88:b8:55:
                    59:d9:4e:ed:2e:ad:d2:fd:6d:2f:8c:e5:e7:a1:79:
                    09:a9:bd:63:69:b5:7d:7a:19:da:e7:1c:d7:98:47:
                    9e:bf:ff:6d:cd:28:8d:3e:2b:b7:ea:75:a5:bd:4d:
                    56:64:a6:84:1b:82:e0:de:b8:d3:f6:b0:89:75:a0:
                    f2:55:21:c6:4d:af:5f:30:b5:67:55:13:09:83:5c:
                    7d:34:49:f4:a5:40:6d:22:33:bc:0d:bd:a0:d1:fb:
                    ca:f4:3b:31:38:0c:48:5b:76:47:78:38:fd:f5:da:
                    33:c6:8e:24:43:ee:b9:7f:eb:90:a1:39:54:cb:b0:
                    90:d9:c8:a5:ed:1c:ff:a3:d6:f6:f7:b2:af:46:be:
                    70:2d
                Exponent: 65537 (0x10001)
        X509v3 extensions:
            X509v3 Basic Constraints: 
                CA:FALSE
            X509v3 Subject Key Identifier: 
                44:BE:20:CD:F4:AD:D8:76:AD:D1:CB:1F:86:3E:E8:35:AE:A2:06:A9
            X509v3 Authority Key Identifier: 
                keyid:3E:7C:81:F1:90:38:F0:4F:20:99:48:E5:DD:B0:A4:D7:B9:8B:BA:6D
                DirName:/CN=team347-net
                serial:6D:74:06:78:B9:6B:ED:7F:EC:C0:1E:2A:7C:4C:1B:C7:0A:C1:07:29

            X509v3 Extended Key Usage: 
                TLS Web Server Authentication
            X509v3 Key Usage: 
                Digital Signature, Key Encipherment
            X509v3 Subject Alternative Name: 
                DNS:team347-server
    Signature Algorithm: sha256WithRSAEncryption
         5b:2b:a1:16:21:cc:5c:f5:3f:4d:bb:43:a2:e2:4f:f5:74:1f:
         5e:0b:ea:5c:c5:24:45:2f:b5:c0:0e:e4:2d:54:5f:71:11:2f:
         c1:1b:90:1b:90:56:36:29:f6:cd:7a:fc:a4:0a:88:da:8c:c0:
         a6:07:ff:98:ea:fb:25:55:cf:8c:28:88:51:63:a9:f1:68:4e:
         8f:4c:0f:da:af:fb:77:db:f9:d9:6e:ea:98:64:f9:c7:35:d7:
         3b:05:27:82:f9:44:66:ab:8c:40:c5:9c:41:ba:ae:7c:7a:2d:
         4f:c5:1c:d6:2d:25:34:76:5d:97:d2:f6:a0:2a:76:30:64:ef:
         83:dd:13:90:8d:e1:34:5e:87:51:d8:e5:1c:3b:e6:f5:0b:1d:
         5d:15:90:1b:5f:cf:1a:c5:dc:0b:47:0d:b7:df:07:0a:ea:b8:
         18:d0:7e:1b:74:ec:58:6d:2d:6f:b2:85:37:b0:e3:b0:a1:2e:
         50:81:61:56:88:e5:ee:fd:1f:e1:32:cd:6e:e6:c2:3b:11:8e:
         56:2f:39:33:13:26:86:0e:cc:08:a7:c2:68:ed:32:7e:60:b6:
         f0:da:fc:a3:5a:d1:57:18:fb:91:94:39:d8:ef:5c:22:c8:b6:
         7d:b6:10:34:04:1d:30:2b:ae:6b:a5:3a:e8:cc:1c:63:0c:9c:
         0d:74:15:cb
-----BEGIN CERTIFICATE-----
MIIDeDCCAmCgAwIBAgIRANTKMstn0SbQxtv0CAs2hDEwDQYJKoZIhvcNAQELBQAw
FjEUMBIGA1UEAwwLdGVhbTM0Ny1uZXQwHhcNMjIwNTE4MjAzNDM2WhcNMjUwNTAy
MjAzNDM2WjAZMRcwFQYDVQQDDA50ZWFtMzQ3LXNlcnZlcjCCASIwDQYJKoZIhvcN
AQEBBQADggEPADCCAQoCggEBAM8xu2pBWs9KuR2rE9mzVg6UW3AdiWGHJA6ossHB
x7sOXR00ANuxFbsyHpcnVkmSLTLT3WWve05wYM9tEgspqw2lb4qiogQPuzN5ukGa
85TzWGiK3YGeWEn5d8jTb2ZkbjfP3S4yajLCtFqVDtcFx1ipuFMRiLhVWdlO7S6t
0v1tL4zl56F5Cam9Y2m1fXoZ2ucc15hHnr//bc0ojT4rt+p1pb1NVmSmhBuC4N64
0/awiXWg8lUhxk2vXzC1Z1UTCYNcfTRJ9KVAbSIzvA29oNH7yvQ7MTgMSFt2R3g4
/fXaM8aOJEPuuX/rkKE5VMuwkNnIpe0c/6PW9veyr0a+cC0CAwEAAaOBvTCBujAJ
BgNVHRMEAjAAMB0GA1UdDgQWBBREviDN9K3Ydq3Ryx+GPug1rqIGqTBRBgNVHSME
SjBIgBQ+fIHxkDjwTyCZSOXdsKTXuYu6baEapBgwFjEUMBIGA1UEAwwLdGVhbTM0
Ny1uZXSCFG10Bni5a+1/7MAeKnxMG8cKwQcpMBMGA1UdJQQMMAoGCCsGAQUFBwMB
MAsGA1UdDwQEAwIFoDAZBgNVHREEEjAQgg50ZWFtMzQ3LXNlcnZlcjANBgkqhkiG
9w0BAQsFAAOCAQEAWyuhFiHMXPU/TbtDouJP9XQfXgvqXMUkRS+1wA7kLVRfcREv
wRuQG5BWNin2zXr8pAqI2ozApgf/mOr7JVXPjCiIUWOp8WhOj0wP2q/7d9v52W7q
mGT5xzXXOwUngvlEZquMQMWcQbqufHotT8Uc1i0lNHZdl9L2oCp2MGTvg90TkI3h
NF6HUdjlHDvm9QsdXRWQG1/PGsXcC0cNt98HCuq4GNB+G3TsWG0tb7KFN7DjsKEu
UIFhVojl7v0f4TLNbubCOxGOVi85MxMmhg7MCKfCaO0yfmC28Nr8o1rRVxj7kZQ5
2O9cIsi2fbYQNAQdMCuua6U66MwcYwycDXQVyw==
-----END CERTIFICATE-----
