Certificate:
    Data:
        Version: 3 (0x2)
        Serial Number:
            04:f6:1f:77:90:cd:75:4d:59:58:5f:ea:af:93:ff:77
        Signature Algorithm: sha256WithRSAEncryption
        Issuer: CN=team149-net
        Validity
            Not Before: May 18 18:36:35 2022 GMT
            Not After : May  2 18:36:35 2025 GMT
        Subject: CN=team149-server
        Subject Public Key Info:
            Public Key Algorithm: rsaEncryption
                RSA Public-Key: (2048 bit)
                Modulus:
                    00:ad:e9:f5:91:3d:93:61:41:b4:ea:e6:b5:ce:6b:
                    8b:4e:dc:77:b6:2a:d7:ad:32:23:65:f3:41:b5:e9:
                    cd:db:b7:84:eb:6c:f6:59:b3:78:98:4b:5e:b8:1c:
                    67:ea:95:24:68:dc:14:cf:73:49:2b:f7:02:54:2c:
                    af:5b:74:96:ea:cc:17:8c:4c:fb:a6:05:b2:78:ab:
                    63:ae:dd:60:49:02:61:c7:6d:73:89:36:ef:17:30:
                    65:d0:32:0e:9d:7b:95:e6:ab:10:6b:c3:fe:ba:e2:
                    10:38:15:ca:cb:42:2d:47:0b:26:77:6e:7e:d5:59:
                    ee:e3:f7:33:8f:17:19:3f:cf:16:2f:51:87:c0:ba:
                    91:43:0f:29:01:22:b1:eb:6c:41:d4:99:8e:aa:da:
                    a2:54:db:b8:6d:bc:f4:64:aa:db:32:1c:c4:bb:f8:
                    f8:c9:64:1c:5f:a7:85:b0:2d:17:e1:cf:03:93:5d:
                    73:60:a8:56:f5:7d:95:e6:de:5e:00:7a:2f:02:2c:
                    c3:d8:f0:4f:5d:9b:cb:0f:1e:47:f9:13:f7:23:88:
                    9f:92:0d:39:e4:06:f6:92:c4:6c:bc:be:6c:0a:67:
                    72:e2:fe:63:d6:9a:99:72:4e:65:17:46:41:18:aa:
                    cf:22:98:41:62:ac:a5:3c:74:1e:14:89:39:a8:12:
                    31:ab
                Exponent: 65537 (0x10001)
        X509v3 extensions:
            X509v3 Basic Constraints: 
                CA:FALSE
            X509v3 Subject Key Identifier: 
                D8:8A:56:5C:00:56:93:61:5E:A6:09:E0:A9:13:59:5C:95:1D:4F:49
            X509v3 Authority Key Identifier: 
                keyid:FA:7A:2F:CD:81:5D:18:DD:BC:65:67:33:B0:17:50:63:D1:31:C7:53
                DirName:/CN=team149-net
                serial:13:5F:D7:4E:0D:4B:68:DD:07:91:C0:5E:AC:47:1D:33:DF:9B:D8:7C

            X509v3 Extended Key Usage: 
                TLS Web Server Authentication
            X509v3 Key Usage: 
                Digital Signature, Key Encipherment
            X509v3 Subject Alternative Name: 
                DNS:team149-server
    Signature Algorithm: sha256WithRSAEncryption
         4b:0c:53:ec:bf:6a:86:52:a2:ee:63:ce:7f:20:b1:58:09:a7:
         3c:70:22:03:70:3b:00:87:f0:dc:39:91:fa:ef:b5:86:1d:e2:
         74:59:d2:a6:fc:8e:f7:37:c9:16:c0:67:75:3e:0f:e5:93:29:
         34:67:06:6a:91:d0:b9:d7:17:8b:a2:57:b8:c6:51:7b:f6:e1:
         fa:d0:c4:56:dd:4e:00:b9:81:9d:29:43:82:94:2a:02:2b:22:
         99:b4:0f:a3:50:e6:b5:e2:04:34:45:aa:ab:19:cd:ad:c7:74:
         96:ea:fb:39:3e:3c:16:e2:bd:6d:19:a7:be:db:78:10:3c:e0:
         0a:c4:b8:2c:f5:26:16:55:2d:b8:10:6d:59:62:80:e1:5d:03:
         45:87:0a:05:0d:c5:b9:c7:8a:6a:4d:54:f8:62:a6:34:ca:51:
         f2:82:3c:d8:b3:ad:f7:b1:25:7d:60:2a:ef:90:e8:81:1b:87:
         97:91:9c:71:43:c3:3b:61:60:b6:fa:d7:95:e6:1e:31:df:5e:
         00:4a:62:08:b2:24:63:50:85:3f:5c:70:18:4e:7b:80:15:c8:
         19:72:df:b0:03:95:4b:24:0e:f5:fd:e1:e4:51:10:6c:31:92:
         46:18:96:ea:47:23:6b:6a:9a:11:88:8f:86:ed:e4:4b:3c:8e:
         50:b8:cb:80
-----BEGIN CERTIFICATE-----
MIIDdzCCAl+gAwIBAgIQBPYfd5DNdU1ZWF/qr5P/dzANBgkqhkiG9w0BAQsFADAW
MRQwEgYDVQQDDAt0ZWFtMTQ5LW5ldDAeFw0yMjA1MTgxODM2MzVaFw0yNTA1MDIx
ODM2MzVaMBkxFzAVBgNVBAMMDnRlYW0xNDktc2VydmVyMIIBIjANBgkqhkiG9w0B
AQEFAAOCAQ8AMIIBCgKCAQEAren1kT2TYUG06ua1zmuLTtx3tirXrTIjZfNBtenN
27eE62z2WbN4mEteuBxn6pUkaNwUz3NJK/cCVCyvW3SW6swXjEz7pgWyeKtjrt1g
SQJhx21ziTbvFzBl0DIOnXuV5qsQa8P+uuIQOBXKy0ItRwsmd25+1Vnu4/czjxcZ
P88WL1GHwLqRQw8pASKx62xB1JmOqtqiVNu4bbz0ZKrbMhzEu/j4yWQcX6eFsC0X
4c8Dk11zYKhW9X2V5t5eAHovAizD2PBPXZvLDx5H+RP3I4ifkg055Ab2ksRsvL5s
Cmdy4v5j1pqZck5lF0ZBGKrPIphBYqylPHQeFIk5qBIxqwIDAQABo4G9MIG6MAkG
A1UdEwQCMAAwHQYDVR0OBBYEFNiKVlwAVpNhXqYJ4KkTWVyVHU9JMFEGA1UdIwRK
MEiAFPp6L82BXRjdvGVnM7AXUGPRMcdToRqkGDAWMRQwEgYDVQQDDAt0ZWFtMTQ5
LW5ldIIUE1/XTg1LaN0HkcBerEcdM9+b2HwwEwYDVR0lBAwwCgYIKwYBBQUHAwEw
CwYDVR0PBAQDAgWgMBkGA1UdEQQSMBCCDnRlYW0xNDktc2VydmVyMA0GCSqGSIb3
DQEBCwUAA4IBAQBLDFPsv2qGUqLuY85/ILFYCac8cCIDcDsAh/DcOZH677WGHeJ0
WdKm/I73N8kWwGd1Pg/lkyk0ZwZqkdC51xeLole4xlF79uH60MRW3U4AuYGdKUOC
lCoCKyKZtA+jUOa14gQ0RaqrGc2tx3SW6vs5PjwW4r1tGae+23gQPOAKxLgs9SYW
VS24EG1ZYoDhXQNFhwoFDcW5x4pqTVT4YqY0ylHygjzYs633sSV9YCrvkOiBG4eX
kZxxQ8M7YWC2+teV5h4x314ASmIIsiRjUIU/XHAYTnuAFcgZct+wA5VLJA71/eHk
URBsMZJGGJbqRyNrapoRiI+G7eRLPI5QuMuA
-----END CERTIFICATE-----
