Certificate:
    Data:
        Version: 3 (0x2)
        Serial Number:
            3c:9c:4c:be:31:07:74:86:6a:ac:38:ad:e6:b8:22:e3
        Signature Algorithm: sha256WithRSAEncryption
        Issuer: CN=team419-net
        Validity
            Not Before: May 18 21:09:44 2022 GMT
            Not After : May  2 21:09:44 2025 GMT
        Subject: CN=team419-client
        Subject Public Key Info:
            Public Key Algorithm: rsaEncryption
                RSA Public-Key: (2048 bit)
                Modulus:
                    00:af:a1:6f:c6:2f:34:08:86:09:37:b6:e2:20:fe:
                    16:0e:ca:48:02:51:54:02:e7:75:18:43:23:a9:bc:
                    4d:d0:58:33:3f:ef:44:c3:b9:68:18:cd:a9:74:f1:
                    9a:05:cd:28:a7:71:21:a0:d0:7f:3b:7e:11:10:8e:
                    5b:fc:ae:3e:0f:7a:d0:1a:bf:d1:61:fd:68:d3:66:
                    72:d9:d5:0f:f3:8a:12:74:a4:68:c5:2f:9f:56:65:
                    9a:c3:4c:87:fb:55:12:4b:61:e7:1f:de:89:63:c3:
                    f5:73:06:7b:af:df:cc:d1:11:86:b2:21:7c:6f:84:
                    3b:91:8e:71:2c:48:58:f1:7e:2c:cc:69:8c:1c:04:
                    d5:dd:be:98:97:b6:8c:7d:ad:98:6b:1e:d3:f3:74:
                    79:bd:29:bd:de:eb:a5:fb:02:a0:aa:c7:aa:63:3e:
                    92:af:94:8f:09:3f:1d:f4:86:6c:e4:bb:84:58:fa:
                    83:ad:6a:88:22:0d:2f:3c:76:ca:17:f4:a0:9f:e0:
                    b7:24:67:06:88:8b:67:56:a3:09:86:17:75:97:62:
                    08:4f:6b:02:01:ce:cf:44:cf:80:1f:60:b2:39:60:
                    a0:0d:c2:cc:07:24:e1:98:a7:f0:14:20:55:ef:7f:
                    a8:87:81:df:93:f2:7c:a4:43:7a:a9:6d:f0:d1:be:
                    d1:41
                Exponent: 65537 (0x10001)
        X509v3 extensions:
            X509v3 Basic Constraints: 
                CA:FALSE
            X509v3 Subject Key Identifier: 
                71:CF:48:C0:D8:DD:34:7E:86:02:AE:9E:36:F9:8F:06:CC:8F:E0:14
            X509v3 Authority Key Identifier: 
                keyid:02:54:08:83:C7:60:F1:45:CA:D9:52:74:BD:F4:80:90:37:CB:D7:6C
                DirName:/CN=team419-net
                serial:0A:10:93:19:6D:9D:9C:AB:A8:E7:09:92:88:60:07:5B:53:C1:92:9E

            X509v3 Extended Key Usage: 
                TLS Web Client Authentication
            X509v3 Key Usage: 
                Digital Signature
    Signature Algorithm: sha256WithRSAEncryption
         a7:88:31:15:1a:75:45:6c:04:8d:7e:47:fb:36:9c:85:99:e0:
         6a:9e:b7:7f:bb:20:47:80:6c:62:2e:4e:5c:a8:f1:6f:2f:a3:
         01:4f:7e:a1:f3:2d:6f:d6:03:0a:eb:53:af:a5:bb:34:54:51:
         6d:f9:ca:82:0c:86:0c:dc:8e:98:0b:60:1d:a3:23:73:5a:e6:
         07:ac:01:ed:f4:a5:87:4f:a3:3e:36:9d:ec:a3:dd:10:16:6d:
         8f:6b:81:c0:41:02:81:7e:80:db:4c:89:a8:93:c7:b8:07:05:
         94:1e:3c:ae:f8:0a:ff:7b:79:b0:5a:e6:73:30:1d:42:e3:8e:
         bb:63:87:bb:f0:ea:b1:01:6a:2a:2b:ef:83:50:da:e9:34:fe:
         3c:d7:0b:c3:05:7a:16:ad:0a:01:33:62:8d:5a:94:0c:35:1f:
         b3:be:e9:36:75:0e:85:48:52:ad:e6:a0:cf:b4:80:79:77:1b:
         18:da:1f:03:01:38:6f:8e:bc:21:e9:de:55:43:20:f0:80:21:
         e8:3c:5a:33:96:25:59:a3:f7:86:ee:d8:ba:74:a4:3c:4f:27:
         17:be:07:a5:0a:b9:0b:8b:9d:9c:13:48:07:27:f2:45:20:05:
         35:f0:b1:92:00:26:c3:47:a4:a9:89:24:ef:37:23:41:c9:d6:
         3d:e4:60:13
-----BEGIN CERTIFICATE-----
MIIDXDCCAkSgAwIBAgIQPJxMvjEHdIZqrDit5rgi4zANBgkqhkiG9w0BAQsFADAW
MRQwEgYDVQQDDAt0ZWFtNDE5LW5ldDAeFw0yMjA1MTgyMTA5NDRaFw0yNTA1MDIy
MTA5NDRaMBkxFzAVBgNVBAMMDnRlYW00MTktY2xpZW50MIIBIjANBgkqhkiG9w0B
AQEFAAOCAQ8AMIIBCgKCAQEAr6Fvxi80CIYJN7biIP4WDspIAlFUAud1GEMjqbxN
0FgzP+9Ew7loGM2pdPGaBc0op3EhoNB/O34REI5b/K4+D3rQGr/RYf1o02Zy2dUP
84oSdKRoxS+fVmWaw0yH+1USS2HnH96JY8P1cwZ7r9/M0RGGsiF8b4Q7kY5xLEhY
8X4szGmMHATV3b6Yl7aMfa2Yax7T83R5vSm93uul+wKgqseqYz6Sr5SPCT8d9IZs
5LuEWPqDrWqIIg0vPHbKF/Sgn+C3JGcGiItnVqMJhhd1l2IIT2sCAc7PRM+AH2Cy
OWCgDcLMByThmKfwFCBV73+oh4Hfk/J8pEN6qW3w0b7RQQIDAQABo4GiMIGfMAkG
A1UdEwQCMAAwHQYDVR0OBBYEFHHPSMDY3TR+hgKunjb5jwbMj+AUMFEGA1UdIwRK
MEiAFAJUCIPHYPFFytlSdL30gJA3y9dsoRqkGDAWMRQwEgYDVQQDDAt0ZWFtNDE5
LW5ldIIUChCTGW2dnKuo5wmSiGAHW1PBkp4wEwYDVR0lBAwwCgYIKwYBBQUHAwIw
CwYDVR0PBAQDAgeAMA0GCSqGSIb3DQEBCwUAA4IBAQCniDEVGnVFbASNfkf7NpyF
meBqnrd/uyBHgGxiLk5cqPFvL6MBT36h8y1v1gMK61Ovpbs0VFFt+cqCDIYM3I6Y
C2AdoyNzWuYHrAHt9KWHT6M+Np3so90QFm2Pa4HAQQKBfoDbTImok8e4BwWUHjyu
+Ar/e3mwWuZzMB1C4467Y4e78OqxAWoqK++DUNrpNP481wvDBXoWrQoBM2KNWpQM
NR+zvuk2dQ6FSFKt5qDPtIB5dxsY2h8DAThvjrwh6d5VQyDwgCHoPFozliVZo/eG
7ti6dKQ8TycXvgelCrkLi52cE0gHJ/JFIAU18LGSACbDR6SpiSTvNyNBydY95GAT
-----END CERTIFICATE-----
