Certificate:
    Data:
        Version: 3 (0x2)
        Serial Number:
            cf:62:19:75:72:f8:99:4a:2d:71:a0:44:de:29:d5:18
        Signature Algorithm: sha256WithRSAEncryption
        Issuer: CN=team126-net
        Validity
            Not Before: May 18 15:08:21 2022 GMT
            Not After : May  2 15:08:21 2025 GMT
        Subject: CN=team126-server
        Subject Public Key Info:
            Public Key Algorithm: rsaEncryption
                RSA Public-Key: (2048 bit)
                Modulus:
                    00:d8:9d:f9:12:95:7e:bd:16:8e:65:52:68:61:66:
                    be:f9:c0:38:6c:bc:4c:0e:4b:61:8f:a2:6f:cf:a1:
                    be:fc:eb:25:e8:86:66:c7:1a:8d:70:5f:b9:2e:63:
                    d5:5c:9c:a6:84:a8:d7:c7:6c:e4:4c:4f:bb:f8:0e:
                    65:e6:97:15:2e:ce:28:61:dd:69:77:67:db:8b:4a:
                    0a:f5:0f:94:ba:d8:49:9c:18:3c:47:a3:e2:b7:62:
                    6b:e3:46:cf:7a:f1:21:d6:91:cc:72:6a:63:be:6b:
                    7d:85:35:5f:80:9a:f4:ea:a6:56:aa:99:23:21:ab:
                    c6:66:ab:a2:d8:10:c4:76:2b:8d:2c:60:34:f5:3e:
                    c7:02:67:36:e6:a4:87:32:52:26:4c:37:a6:2d:89:
                    59:48:47:d8:78:26:a0:5f:44:5b:71:89:18:d7:09:
                    be:ce:29:1f:a2:39:9e:53:ad:84:4e:14:38:39:76:
                    55:64:c3:6f:80:8d:9d:1f:62:d9:ca:20:1f:43:3e:
                    9d:98:11:8a:d0:65:9f:60:0d:d5:4d:42:f7:7f:c4:
                    df:74:1b:16:16:0e:1f:46:ca:e5:df:bf:95:7c:15:
                    4e:ea:6d:08:d7:e3:41:c2:e7:6f:d8:59:5b:31:f6:
                    be:98:89:2e:1c:34:32:5c:66:a8:c8:d8:fc:4e:a1:
                    44:a7
                Exponent: 65537 (0x10001)
        X509v3 extensions:
            X509v3 Basic Constraints: 
                CA:FALSE
            X509v3 Subject Key Identifier: 
                B6:ED:75:C8:5F:5F:34:FD:99:17:07:6F:A4:42:FA:E8:46:A4:B8:C8
            X509v3 Authority Key Identifier: 
                keyid:C2:3E:60:12:45:FB:62:4F:02:AE:86:42:9E:1B:F9:CA:7A:16:6D:76
                DirName:/CN=team126-net
                serial:6B:EB:E2:DA:E8:7E:AA:9F:E0:2C:1D:2D:3E:72:7E:4B:0A:C7:9B:38

            X509v3 Extended Key Usage: 
                TLS Web Server Authentication
            X509v3 Key Usage: 
                Digital Signature, Key Encipherment
            X509v3 Subject Alternative Name: 
                DNS:team126-server
    Signature Algorithm: sha256WithRSAEncryption
         5a:23:f0:e4:74:42:54:99:eb:a3:0e:21:a4:98:3b:57:14:0c:
         0c:f3:54:7f:b2:8c:5a:d7:5a:6f:4d:82:0a:3d:8b:39:6e:bf:
         90:10:a1:ae:8d:e1:78:ea:f2:c9:04:81:b8:13:72:7f:a1:7d:
         f0:6a:28:23:95:a3:c3:3d:48:39:9d:af:96:3d:27:5a:6a:d9:
         8a:93:95:0d:9e:e1:2e:a2:25:07:15:3f:ce:43:2a:f0:a3:52:
         68:b1:dc:30:f3:66:82:74:f3:08:49:3d:fb:8c:dd:56:a6:ae:
         81:14:45:e8:50:2b:ad:b6:35:80:97:16:59:ab:42:80:17:fa:
         40:aa:75:db:3e:77:30:64:d1:1d:f7:86:e2:50:77:95:63:d4:
         f4:ff:57:48:c8:51:94:bf:f4:39:93:ff:95:31:23:cc:fb:ca:
         2f:b2:48:c7:38:8b:9d:7c:a1:2d:c4:da:8c:d7:97:ff:d3:54:
         dd:02:d1:e0:0f:b9:14:27:2d:f0:99:84:5b:12:a3:2d:b2:db:
         3a:08:37:b4:62:7f:2f:f5:bb:e1:91:b2:bc:4a:7f:9f:6e:30:
         97:54:58:12:06:23:f3:21:5f:60:d9:71:d6:85:f3:13:68:39:
         49:7d:36:8b:64:e5:f6:0f:a5:cc:f6:60:b2:02:d9:25:bc:89:
         c0:8b:eb:a6
-----BEGIN CERTIFICATE-----
MIIDeDCCAmCgAwIBAgIRAM9iGXVy+JlKLXGgRN4p1RgwDQYJKoZIhvcNAQELBQAw
FjEUMBIGA1UEAwwLdGVhbTEyNi1uZXQwHhcNMjIwNTE4MTUwODIxWhcNMjUwNTAy
MTUwODIxWjAZMRcwFQYDVQQDDA50ZWFtMTI2LXNlcnZlcjCCASIwDQYJKoZIhvcN
AQEBBQADggEPADCCAQoCggEBANid+RKVfr0WjmVSaGFmvvnAOGy8TA5LYY+ib8+h
vvzrJeiGZscajXBfuS5j1VycpoSo18ds5ExPu/gOZeaXFS7OKGHdaXdn24tKCvUP
lLrYSZwYPEej4rdia+NGz3rxIdaRzHJqY75rfYU1X4Ca9OqmVqqZIyGrxmarotgQ
xHYrjSxgNPU+xwJnNuakhzJSJkw3pi2JWUhH2HgmoF9EW3GJGNcJvs4pH6I5nlOt
hE4UODl2VWTDb4CNnR9i2cogH0M+nZgRitBln2AN1U1C93/E33QbFhYOH0bK5d+/
lXwVTuptCNfjQcLnb9hZWzH2vpiJLhw0MlxmqMjY/E6hRKcCAwEAAaOBvTCBujAJ
BgNVHRMEAjAAMB0GA1UdDgQWBBS27XXIX180/ZkXB2+kQvroRqS4yDBRBgNVHSME
SjBIgBTCPmASRftiTwKuhkKeG/nKehZtdqEapBgwFjEUMBIGA1UEAwwLdGVhbTEy
Ni1uZXSCFGvr4trofqqf4CwdLT5yfksKx5s4MBMGA1UdJQQMMAoGCCsGAQUFBwMB
MAsGA1UdDwQEAwIFoDAZBgNVHREEEjAQgg50ZWFtMTI2LXNlcnZlcjANBgkqhkiG
9w0BAQsFAAOCAQEAWiPw5HRCVJnrow4hpJg7VxQMDPNUf7KMWtdab02CCj2LOW6/
kBChro3heOryyQSBuBNyf6F98GooI5Wjwz1IOZ2vlj0nWmrZipOVDZ7hLqIlBxU/
zkMq8KNSaLHcMPNmgnTzCEk9+4zdVqaugRRF6FArrbY1gJcWWatCgBf6QKp12z53
MGTRHfeG4lB3lWPU9P9XSMhRlL/0OZP/lTEjzPvKL7JIxziLnXyhLcTajNeX/9NU
3QLR4A+5FCct8JmEWxKjLbLbOgg3tGJ/L/W74ZGyvEp/n24wl1RYEgYj8yFfYNlx
1oXzE2g5SX02i2Tl9g+lzPZgsgLZJbyJwIvrpg==
-----END CERTIFICATE-----
