Certificate:
    Data:
        Version: 3 (0x2)
        Serial Number:
            09:d1:b2:fc:e1:a0:97:eb:3e:4e:97:e6:38:fd:cf:f2
        Signature Algorithm: sha256WithRSAEncryption
        Issuer: CN=team394-net
        Validity
            Not Before: May 18 20:58:23 2022 GMT
            Not After : May  2 20:58:23 2025 GMT
        Subject: CN=team394-client
        Subject Public Key Info:
            Public Key Algorithm: rsaEncryption
                RSA Public-Key: (2048 bit)
                Modulus:
                    00:b8:48:8f:75:63:09:68:5f:dc:e1:8b:fa:42:8f:
                    39:17:5a:ea:53:07:34:f3:21:5e:b8:c3:b5:66:d7:
                    3f:bf:0a:24:8d:4d:b6:72:9f:48:df:d5:51:78:80:
                    a3:fd:80:a4:ba:2c:16:c6:93:f3:23:31:19:9e:ad:
                    6d:ab:22:e5:ea:0b:7e:d9:dd:70:6d:39:2c:bb:6e:
                    0a:ef:29:fc:4f:08:16:68:27:97:aa:05:11:1c:30:
                    cf:a0:5d:e0:57:22:e5:d3:c3:ae:26:9f:7c:9f:7e:
                    2b:4d:56:72:5b:4b:43:ff:7a:a3:be:4e:15:52:2b:
                    cd:ce:94:8d:83:e2:45:a0:6a:e6:84:0c:84:45:d4:
                    5c:67:4c:95:30:41:54:e6:eb:17:19:f3:38:83:d6:
                    f0:4c:07:4b:d8:fe:57:d7:26:1e:cb:ed:d3:65:e5:
                    73:25:10:c1:0e:60:72:ff:73:95:6b:9d:45:0a:6f:
                    64:df:f0:27:d0:6e:10:d8:31:39:03:2b:52:0f:d4:
                    46:5b:1b:53:9a:52:16:5c:66:77:d4:7e:47:c7:f3:
                    2e:d8:e8:3c:6a:69:9d:3e:d3:ea:56:9e:5a:66:cc:
                    8a:84:e4:25:ae:5f:07:7b:31:5e:eb:df:ff:aa:30:
                    bd:83:d1:48:8a:08:d8:e3:ee:b7:3d:18:a3:44:51:
                    06:09
                Exponent: 65537 (0x10001)
        X509v3 extensions:
            X509v3 Basic Constraints: 
                CA:FALSE
            X509v3 Subject Key Identifier: 
                88:35:DD:B5:E2:70:02:D6:6C:48:18:8B:DB:BB:78:DB:3A:26:B1:A6
            X509v3 Authority Key Identifier: 
                keyid:F4:6E:A5:59:D2:39:50:8B:46:17:99:7B:22:E7:13:BA:96:AE:C8:FE
                DirName:/CN=team394-net
                serial:35:F9:E3:60:29:C7:EE:63:80:54:8A:88:F8:24:D3:3F:DF:AD:3F:9C

            X509v3 Extended Key Usage: 
                TLS Web Client Authentication
            X509v3 Key Usage: 
                Digital Signature
    Signature Algorithm: sha256WithRSAEncryption
         15:ee:17:24:cb:8c:42:50:c6:56:19:9c:17:ac:d1:31:cc:72:
         2e:16:43:cb:17:06:99:9d:a4:9a:27:62:7e:e9:df:4c:d7:00:
         ff:46:e4:f0:29:01:36:a7:f4:77:c7:23:2b:b8:53:e1:54:d9:
         f7:e5:d2:2f:90:66:c4:4d:08:0e:a7:13:d7:b0:fa:0b:7f:a6:
         47:8f:37:73:99:ea:49:25:bf:08:41:96:34:63:9a:db:a3:1a:
         9f:be:70:15:3d:b3:10:c4:a9:10:e2:3b:6e:20:c8:7c:65:06:
         34:48:27:cf:73:26:7e:91:0c:cb:ff:e4:82:c9:6d:be:53:c5:
         7e:9d:6c:3e:6b:c0:bf:c0:87:5d:8f:ac:59:46:21:b1:24:1d:
         7b:97:ba:ec:18:c3:0e:9d:16:84:23:f1:3f:62:71:c6:01:c9:
         d5:f5:8e:bc:de:47:a1:55:3b:c6:76:2c:67:c7:6c:e9:75:a8:
         c3:87:92:ef:eb:fa:53:39:20:0e:fa:61:2c:72:e5:07:b2:59:
         d8:60:ab:cc:ad:af:75:63:b8:09:c5:fb:92:71:79:c0:f1:20:
         25:ca:80:65:ad:9e:36:ec:0e:bd:d6:d5:c7:36:88:fa:74:b3:
         cf:84:cf:e0:fd:6c:a8:ea:2e:a2:a2:eb:94:67:fa:66:59:09:
         b3:93:f8:48
-----BEGIN CERTIFICATE-----
MIIDXDCCAkSgAwIBAgIQCdGy/OGgl+s+TpfmOP3P8jANBgkqhkiG9w0BAQsFADAW
MRQwEgYDVQQDDAt0ZWFtMzk0LW5ldDAeFw0yMjA1MTgyMDU4MjNaFw0yNTA1MDIy
MDU4MjNaMBkxFzAVBgNVBAMMDnRlYW0zOTQtY2xpZW50MIIBIjANBgkqhkiG9w0B
AQEFAAOCAQ8AMIIBCgKCAQEAuEiPdWMJaF/c4Yv6Qo85F1rqUwc08yFeuMO1Ztc/
vwokjU22cp9I39VReICj/YCkuiwWxpPzIzEZnq1tqyLl6gt+2d1wbTksu24K7yn8
TwgWaCeXqgURHDDPoF3gVyLl08OuJp98n34rTVZyW0tD/3qjvk4VUivNzpSNg+JF
oGrmhAyERdRcZ0yVMEFU5usXGfM4g9bwTAdL2P5X1yYey+3TZeVzJRDBDmBy/3OV
a51FCm9k3/An0G4Q2DE5AytSD9RGWxtTmlIWXGZ31H5Hx/Mu2Og8ammdPtPqVp5a
ZsyKhOQlrl8HezFe69//qjC9g9FIigjY4+63PRijRFEGCQIDAQABo4GiMIGfMAkG
A1UdEwQCMAAwHQYDVR0OBBYEFIg13bXicALWbEgYi9u7eNs6JrGmMFEGA1UdIwRK
MEiAFPRupVnSOVCLRheZeyLnE7qWrsj+oRqkGDAWMRQwEgYDVQQDDAt0ZWFtMzk0
LW5ldIIUNfnjYCnH7mOAVIqI+CTTP9+tP5wwEwYDVR0lBAwwCgYIKwYBBQUHAwIw
CwYDVR0PBAQDAgeAMA0GCSqGSIb3DQEBCwUAA4IBAQAV7hcky4xCUMZWGZwXrNEx
zHIuFkPLFwaZnaSaJ2J+6d9M1wD/RuTwKQE2p/R3xyMruFPhVNn35dIvkGbETQgO
pxPXsPoLf6ZHjzdzmepJJb8IQZY0Y5rboxqfvnAVPbMQxKkQ4jtuIMh8ZQY0SCfP
cyZ+kQzL/+SCyW2+U8V+nWw+a8C/wIddj6xZRiGxJB17l7rsGMMOnRaEI/E/YnHG
AcnV9Y683kehVTvGdixnx2zpdajDh5Lv6/pTOSAO+mEscuUHslnYYKvMra91Y7gJ
xfuScXnA8SAlyoBlrZ427A691tXHNoj6dLPPhM/g/Wyo6i6iouuUZ/pmWQmzk/hI
-----END CERTIFICATE-----
