Certificate:
    Data:
        Version: 3 (0x2)
        Serial Number:
            43:33:4b:de:1a:5e:34:03:2f:8b:9e:90:6a:35:4b:ea
        Signature Algorithm: sha256WithRSAEncryption
        Issuer: CN=team268-net
        Validity
            Not Before: May 18 19:46:42 2022 GMT
            Not After : May  2 19:46:42 2025 GMT
        Subject: CN=team268-client
        Subject Public Key Info:
            Public Key Algorithm: rsaEncryption
                RSA Public-Key: (2048 bit)
                Modulus:
                    00:9d:87:c7:8d:96:68:8b:55:07:86:48:f0:ba:98:
                    0d:0f:b5:7e:1f:22:89:2f:d4:aa:f8:92:ff:06:e5:
                    ee:bd:b9:05:3f:ed:bd:be:57:c9:4e:dc:e2:a0:3f:
                    10:11:4d:3c:89:56:68:02:7b:fd:82:a8:f5:cd:9b:
                    5e:1b:49:13:16:f4:ac:0c:40:ee:6d:5f:24:1c:f7:
                    07:45:16:ea:87:a9:0e:06:ba:4c:ed:8d:5b:82:a5:
                    90:71:3d:b7:82:7d:1b:e8:d9:46:0e:22:ad:d5:8b:
                    98:d5:10:8f:56:ea:30:21:53:dd:88:14:c8:55:1e:
                    dd:3e:58:9e:47:0b:8e:ef:c3:db:7e:35:00:aa:dd:
                    0b:f4:df:5e:16:35:e9:c1:75:40:d7:f3:fb:13:c4:
                    a0:35:3d:96:06:bb:1b:5a:57:73:32:13:8d:1e:15:
                    1e:30:2b:63:8a:ed:12:78:33:8c:56:f7:d4:f8:54:
                    8b:27:55:6d:62:88:ef:0c:b8:63:9f:75:fa:1b:6c:
                    66:0d:99:b9:cb:cd:29:76:d2:5c:27:34:b7:e2:ee:
                    91:cf:36:c1:2e:64:91:c4:be:d1:55:1f:c8:9f:23:
                    37:a0:b8:7a:8c:7a:2d:c8:e7:c4:e7:ee:6f:d4:68:
                    27:d1:26:e0:58:d3:c5:f4:92:cf:b6:7d:09:84:dd:
                    0a:67
                Exponent: 65537 (0x10001)
        X509v3 extensions:
            X509v3 Basic Constraints: 
                CA:FALSE
            X509v3 Subject Key Identifier: 
                08:89:4B:5D:0D:4B:68:CE:E2:A3:41:CC:DF:42:99:DA:86:01:6B:0B
            X509v3 Authority Key Identifier: 
                keyid:30:5D:66:51:8E:00:DA:32:26:AB:59:B3:82:34:7A:C9:24:00:A5:16
                DirName:/CN=team268-net
                serial:3A:7D:D2:56:66:A1:F9:45:B7:19:72:64:36:85:E2:C5:CB:1C:6E:09

            X509v3 Extended Key Usage: 
                TLS Web Client Authentication
            X509v3 Key Usage: 
                Digital Signature
    Signature Algorithm: sha256WithRSAEncryption
         96:28:ea:4e:15:dc:49:3f:70:36:80:0e:00:9f:e7:60:60:44:
         5f:5a:59:3b:81:17:7d:10:be:fc:63:83:90:0e:75:45:90:a5:
         95:ab:90:2b:a5:4b:4d:ad:5e:13:7f:a7:07:10:d7:6d:e2:9e:
         d8:68:22:7a:4d:c8:6e:e3:1d:18:e8:df:bd:52:f2:0c:d8:b4:
         24:0c:59:dc:91:bc:0b:8d:ce:2c:ae:4f:52:f0:c1:94:8b:e8:
         70:86:11:4d:22:0b:d6:fe:69:84:05:3b:7c:ff:90:f6:c5:0e:
         23:c5:74:c5:24:01:55:35:f0:37:73:e1:02:5d:89:2b:29:61:
         b4:0e:09:0b:2d:7d:5e:33:af:15:71:e8:51:c0:64:e7:f6:b9:
         f3:a5:4f:68:7d:e1:fd:fc:b5:41:86:d3:c9:13:d9:13:66:57:
         81:30:cb:85:85:e6:de:5e:41:cc:f0:ae:4b:d5:1e:47:3a:eb:
         c0:2a:1a:12:66:b7:fc:6f:c9:2d:91:cd:2a:20:d8:46:67:cb:
         4f:c3:e3:f6:bb:2a:8d:dd:c1:11:38:4e:93:b0:c0:a1:65:b6:
         71:db:44:0f:d1:19:f6:d2:bd:e9:41:dd:02:87:8c:b4:7b:a5:
         12:f8:96:dd:70:02:85:27:88:0b:69:27:7b:fa:a0:49:ec:68:
         e8:30:ff:b2
-----BEGIN CERTIFICATE-----
MIIDXDCCAkSgAwIBAgIQQzNL3hpeNAMvi56QajVL6jANBgkqhkiG9w0BAQsFADAW
MRQwEgYDVQQDDAt0ZWFtMjY4LW5ldDAeFw0yMjA1MTgxOTQ2NDJaFw0yNTA1MDIx
OTQ2NDJaMBkxFzAVBgNVBAMMDnRlYW0yNjgtY2xpZW50MIIBIjANBgkqhkiG9w0B
AQEFAAOCAQ8AMIIBCgKCAQEAnYfHjZZoi1UHhkjwupgND7V+HyKJL9Sq+JL/BuXu
vbkFP+29vlfJTtzioD8QEU08iVZoAnv9gqj1zZteG0kTFvSsDEDubV8kHPcHRRbq
h6kOBrpM7Y1bgqWQcT23gn0b6NlGDiKt1YuY1RCPVuowIVPdiBTIVR7dPlieRwuO
78PbfjUAqt0L9N9eFjXpwXVA1/P7E8SgNT2WBrsbWldzMhONHhUeMCtjiu0SeDOM
VvfU+FSLJ1VtYojvDLhjn3X6G2xmDZm5y80pdtJcJzS34u6RzzbBLmSRxL7RVR/I
nyM3oLh6jHotyOfE5+5v1Ggn0SbgWNPF9JLPtn0JhN0KZwIDAQABo4GiMIGfMAkG
A1UdEwQCMAAwHQYDVR0OBBYEFAiJS10NS2jO4qNBzN9CmdqGAWsLMFEGA1UdIwRK
MEiAFDBdZlGOANoyJqtZs4I0eskkAKUWoRqkGDAWMRQwEgYDVQQDDAt0ZWFtMjY4
LW5ldIIUOn3SVmah+UW3GXJkNoXixcscbgkwEwYDVR0lBAwwCgYIKwYBBQUHAwIw
CwYDVR0PBAQDAgeAMA0GCSqGSIb3DQEBCwUAA4IBAQCWKOpOFdxJP3A2gA4An+dg
YERfWlk7gRd9EL78Y4OQDnVFkKWVq5ArpUtNrV4Tf6cHENdt4p7YaCJ6Tchu4x0Y
6N+9UvIM2LQkDFnckbwLjc4srk9S8MGUi+hwhhFNIgvW/mmEBTt8/5D2xQ4jxXTF
JAFVNfA3c+ECXYkrKWG0DgkLLX1eM68VcehRwGTn9rnzpU9ofeH9/LVBhtPJE9kT
ZleBMMuFhebeXkHM8K5L1R5HOuvAKhoSZrf8b8ktkc0qINhGZ8tPw+P2uyqN3cER
OE6TsMChZbZx20QP0Rn20r3pQd0Ch4y0e6US+JbdcAKFJ4gLaSd7+qBJ7GjoMP+y
-----END CERTIFICATE-----
