Certificate:
    Data:
        Version: 3 (0x2)
        Serial Number:
            ed:16:83:8b:4e:2d:e5:2f:85:41:df:3c:e3:e2:c1:67
        Signature Algorithm: sha256WithRSAEncryption
        Issuer: CN=team632-net
        Validity
            Not Before: May 18 23:08:18 2022 GMT
            Not After : May  2 23:08:18 2025 GMT
        Subject: CN=team632-server
        Subject Public Key Info:
            Public Key Algorithm: rsaEncryption
                RSA Public-Key: (2048 bit)
                Modulus:
                    00:ea:42:ca:2f:cd:d7:f6:0a:3e:0f:55:1a:05:53:
                    ea:97:c7:d5:66:56:c5:47:c7:7a:1c:e1:f4:fd:93:
                    06:ac:6b:4f:12:ad:fb:19:a2:fe:1f:8d:3d:a6:15:
                    ea:db:e8:3e:1b:c2:dc:5a:fd:d8:bf:24:e7:a1:45:
                    34:5a:9e:fd:b9:03:f6:66:23:78:b6:cc:14:3e:41:
                    96:57:6a:6d:22:eb:66:38:f3:d7:9e:70:5b:20:08:
                    89:1f:d5:6d:84:8e:77:52:92:07:23:77:25:6c:d8:
                    b1:e6:93:78:96:e5:9e:fe:e5:9a:49:e8:08:09:47:
                    f6:76:21:8e:75:10:48:4c:75:42:be:46:2a:97:ce:
                    c0:b5:84:2f:f2:60:91:c6:9d:e9:5c:88:37:ff:b1:
                    be:98:58:bc:2c:39:1e:87:d8:1e:b7:84:2e:72:6e:
                    aa:04:7a:4c:98:80:2d:bb:fc:63:3b:cb:23:03:fb:
                    06:c2:4d:b7:15:1c:4c:bf:ff:60:bc:62:92:58:ef:
                    58:d2:22:fc:6b:24:77:e4:64:ca:cb:31:8c:58:f2:
                    5e:0c:4e:ae:b8:6d:1c:b5:4c:9a:76:09:d4:fa:87:
                    10:74:1d:b8:46:53:0d:85:c9:72:8c:39:4e:fa:ed:
                    1b:8a:a2:5a:35:09:2c:35:cf:83:ee:43:f9:8c:df:
                    98:83
                Exponent: 65537 (0x10001)
        X509v3 extensions:
            X509v3 Basic Constraints: 
                CA:FALSE
            X509v3 Subject Key Identifier: 
                66:8F:7D:F6:A7:FB:23:7E:FE:2B:6D:23:4E:BF:34:65:45:4A:B6:55
            X509v3 Authority Key Identifier: 
                keyid:7C:FD:0E:46:EB:2E:C5:75:0E:16:DC:40:DD:4A:25:F3:38:54:F6:92
                DirName:/CN=team632-net
                serial:1C:22:39:99:02:E9:81:25:A8:1A:7E:E2:4C:66:0D:A4:06:A9:BF:28

            X509v3 Extended Key Usage: 
                TLS Web Server Authentication
            X509v3 Key Usage: 
                Digital Signature, Key Encipherment
            X509v3 Subject Alternative Name: 
                DNS:team632-server
    Signature Algorithm: sha256WithRSAEncryption
         3c:d5:05:f4:c3:0a:df:93:11:9f:93:0c:99:ea:ee:ab:64:20:
         19:54:b3:f8:52:92:11:6b:fe:93:72:cf:ac:3e:d6:ca:20:b9:
         9b:9f:3e:69:be:33:45:20:fb:c4:be:18:57:ae:73:3e:a1:db:
         fb:fb:77:76:bd:7c:6f:f7:88:d7:33:0a:03:b1:57:09:ed:7e:
         62:39:ce:d6:b8:a1:ff:b6:8c:20:6c:4d:d5:21:ea:16:58:8d:
         c6:97:19:34:9c:11:2e:98:f5:01:c3:29:9e:ab:e3:82:b0:47:
         56:75:0d:a5:80:e8:c8:7e:86:fa:f1:ca:2b:33:cb:e9:ab:0c:
         20:34:8d:32:0a:63:fc:96:50:ef:59:43:c8:01:4e:a8:42:d1:
         96:15:7b:45:16:11:25:25:3c:00:be:82:2a:82:39:aa:42:ac:
         5f:56:17:17:e7:17:89:97:a2:c6:c0:51:36:e6:8c:fe:e4:77:
         cb:e8:d4:3f:7a:f4:8c:b3:27:eb:f9:e5:f3:28:5f:0f:ce:97:
         9f:6d:af:da:9a:b0:bf:e5:46:f8:e7:52:28:9b:3b:70:2e:3a:
         b9:74:16:91:74:82:2a:37:0c:98:04:04:fd:80:dd:24:3b:4e:
         a3:5e:d6:4d:7c:a8:58:3a:61:cb:5d:fb:66:72:4f:c0:6b:71:
         1f:8b:13:a3
-----BEGIN CERTIFICATE-----
MIIDeDCCAmCgAwIBAgIRAO0Wg4tOLeUvhUHfPOPiwWcwDQYJKoZIhvcNAQELBQAw
FjEUMBIGA1UEAwwLdGVhbTYzMi1uZXQwHhcNMjIwNTE4MjMwODE4WhcNMjUwNTAy
MjMwODE4WjAZMRcwFQYDVQQDDA50ZWFtNjMyLXNlcnZlcjCCASIwDQYJKoZIhvcN
AQEBBQADggEPADCCAQoCggEBAOpCyi/N1/YKPg9VGgVT6pfH1WZWxUfHehzh9P2T
BqxrTxKt+xmi/h+NPaYV6tvoPhvC3Fr92L8k56FFNFqe/bkD9mYjeLbMFD5Blldq
bSLrZjjz155wWyAIiR/VbYSOd1KSByN3JWzYseaTeJblnv7lmknoCAlH9nYhjnUQ
SEx1Qr5GKpfOwLWEL/Jgkcad6VyIN/+xvphYvCw5HofYHreELnJuqgR6TJiALbv8
YzvLIwP7BsJNtxUcTL//YLxikljvWNIi/Gskd+RkyssxjFjyXgxOrrhtHLVMmnYJ
1PqHEHQduEZTDYXJcow5TvrtG4qiWjUJLDXPg+5D+YzfmIMCAwEAAaOBvTCBujAJ
BgNVHRMEAjAAMB0GA1UdDgQWBBRmj332p/sjfv4rbSNOvzRlRUq2VTBRBgNVHSME
SjBIgBR8/Q5G6y7FdQ4W3EDdSiXzOFT2kqEapBgwFjEUMBIGA1UEAwwLdGVhbTYz
Mi1uZXSCFBwiOZkC6YElqBp+4kxmDaQGqb8oMBMGA1UdJQQMMAoGCCsGAQUFBwMB
MAsGA1UdDwQEAwIFoDAZBgNVHREEEjAQgg50ZWFtNjMyLXNlcnZlcjANBgkqhkiG
9w0BAQsFAAOCAQEAPNUF9MMK35MRn5MMmeruq2QgGVSz+FKSEWv+k3LPrD7WyiC5
m58+ab4zRSD7xL4YV65zPqHb+/t3dr18b/eI1zMKA7FXCe1+YjnO1rih/7aMIGxN
1SHqFliNxpcZNJwRLpj1AcMpnqvjgrBHVnUNpYDoyH6G+vHKKzPL6asMIDSNMgpj
/JZQ71lDyAFOqELRlhV7RRYRJSU8AL6CKoI5qkKsX1YXF+cXiZeixsBRNuaM/uR3
y+jUP3r0jLMn6/nl8yhfD86Xn22v2pqwv+VG+OdSKJs7cC46uXQWkXSCKjcMmAQE
/YDdJDtOo17WTXyoWDphy137ZnJPwGtxH4sTow==
-----END CERTIFICATE-----
