Certificate:
    Data:
        Version: 3 (0x2)
        Serial Number:
            f0:01:c0:48:6b:05:1c:26:af:f5:61:d1:fd:9f:f9:ef
        Signature Algorithm: sha256WithRSAEncryption
        Issuer: CN=team632-net
        Validity
            Not Before: May 18 23:08:18 2022 GMT
            Not After : May  2 23:08:18 2025 GMT
        Subject: CN=team632-client
        Subject Public Key Info:
            Public Key Algorithm: rsaEncryption
                RSA Public-Key: (2048 bit)
                Modulus:
                    00:e3:4f:f4:ed:bb:fc:94:de:42:c0:1d:27:c7:87:
                    4b:09:31:39:d3:7f:d8:19:e0:21:7e:61:5f:df:6e:
                    b0:c3:ec:65:3e:a9:52:7e:f2:5d:20:3e:70:5c:15:
                    db:51:6a:04:9b:1a:34:6f:05:18:3b:bf:07:8b:04:
                    c2:36:1f:cc:56:bf:ff:a8:14:df:40:36:c3:0e:f0:
                    fa:3e:2f:07:ed:34:02:b0:64:4c:a8:f9:8b:a5:a1:
                    66:6e:f9:29:90:95:15:d9:ef:c0:bd:93:8e:68:8b:
                    dd:40:b7:89:d1:e8:9e:9b:ab:28:d7:62:c0:50:ea:
                    57:7c:5b:a7:cd:e4:64:22:d4:2c:4e:95:0d:cc:4d:
                    e5:0e:7a:c5:bc:5e:f1:6f:79:a0:8a:aa:68:9c:22:
                    e7:e8:5c:ae:97:96:60:d2:3a:4b:b0:48:de:28:d2:
                    77:42:9b:4c:f3:c4:6a:14:90:e4:9c:3b:aa:7a:29:
                    b7:44:10:c0:cb:d9:d8:0d:e3:c6:2a:cc:0d:60:f1:
                    9f:ac:1d:d2:ad:78:12:4a:f3:01:ef:a9:1b:91:47:
                    2a:06:20:c9:22:62:be:88:b2:5e:0f:a7:98:e6:bc:
                    7a:ca:5e:c8:1f:45:49:01:65:94:6b:ce:15:82:75:
                    d1:66:d8:12:38:eb:da:a6:9f:1c:f8:63:44:19:e5:
                    32:d7
                Exponent: 65537 (0x10001)
        X509v3 extensions:
            X509v3 Basic Constraints: 
                CA:FALSE
            X509v3 Subject Key Identifier: 
                C3:9F:09:E5:64:00:B4:4A:92:B9:E8:69:03:06:00:44:E4:45:DA:FC
            X509v3 Authority Key Identifier: 
                keyid:7C:FD:0E:46:EB:2E:C5:75:0E:16:DC:40:DD:4A:25:F3:38:54:F6:92
                DirName:/CN=team632-net
                serial:1C:22:39:99:02:E9:81:25:A8:1A:7E:E2:4C:66:0D:A4:06:A9:BF:28

            X509v3 Extended Key Usage: 
                TLS Web Client Authentication
            X509v3 Key Usage: 
                Digital Signature
    Signature Algorithm: sha256WithRSAEncryption
         a3:10:de:68:2e:31:1c:9f:fb:cb:50:4a:23:83:97:61:79:a9:
         bf:46:a2:c0:05:cd:e9:81:eb:a8:8c:49:4e:08:51:33:60:53:
         bf:f8:26:0a:15:cf:bf:86:a5:74:f2:ca:86:7c:40:77:3e:8b:
         8c:d8:c7:eb:f2:bb:22:81:de:b4:69:cb:ac:0d:a9:5d:cb:03:
         05:72:10:22:fc:cc:4b:6f:3c:90:0b:a2:c0:8d:1e:66:96:26:
         4a:83:6d:30:69:31:48:62:03:db:17:ec:42:f6:f1:45:0c:24:
         4e:f4:0b:60:cf:12:7d:12:8d:63:ba:03:ea:3a:8d:91:9b:5b:
         5c:57:a8:68:b2:cb:03:7d:a0:c2:65:e3:0b:22:b5:12:97:f7:
         03:54:31:6b:f9:e8:53:33:31:89:6f:bb:f9:fa:ea:16:0c:e3:
         4e:79:47:dc:47:64:01:7d:64:81:a4:85:1c:41:53:da:80:0b:
         ef:64:c6:8d:e6:38:b9:1a:26:73:82:c6:45:5e:6b:55:e0:68:
         22:fa:46:21:e3:52:60:90:57:4f:d2:24:f4:e2:eb:9f:94:b2:
         55:33:76:93:e1:88:a8:13:4e:2b:57:3c:74:1d:a8:35:d1:d5:
         30:86:16:65:7c:0e:45:1c:71:d6:88:d5:a1:2a:bc:37:1c:13:
         28:6c:e9:25
-----BEGIN CERTIFICATE-----
MIIDXTCCAkWgAwIBAgIRAPABwEhrBRwmr/Vh0f2f+e8wDQYJKoZIhvcNAQELBQAw
FjEUMBIGA1UEAwwLdGVhbTYzMi1uZXQwHhcNMjIwNTE4MjMwODE4WhcNMjUwNTAy
MjMwODE4WjAZMRcwFQYDVQQDDA50ZWFtNjMyLWNsaWVudDCCASIwDQYJKoZIhvcN
AQEBBQADggEPADCCAQoCggEBAONP9O27/JTeQsAdJ8eHSwkxOdN/2BngIX5hX99u
sMPsZT6pUn7yXSA+cFwV21FqBJsaNG8FGDu/B4sEwjYfzFa//6gU30A2ww7w+j4v
B+00ArBkTKj5i6WhZm75KZCVFdnvwL2TjmiL3UC3idHonpurKNdiwFDqV3xbp83k
ZCLULE6VDcxN5Q56xbxe8W95oIqqaJwi5+hcrpeWYNI6S7BI3ijSd0KbTPPEahSQ
5Jw7qnopt0QQwMvZ2A3jxirMDWDxn6wd0q14EkrzAe+pG5FHKgYgySJivoiyXg+n
mOa8espeyB9FSQFllGvOFYJ10WbYEjjr2qafHPhjRBnlMtcCAwEAAaOBojCBnzAJ
BgNVHRMEAjAAMB0GA1UdDgQWBBTDnwnlZAC0SpK56GkDBgBE5EXa/DBRBgNVHSME
SjBIgBR8/Q5G6y7FdQ4W3EDdSiXzOFT2kqEapBgwFjEUMBIGA1UEAwwLdGVhbTYz
Mi1uZXSCFBwiOZkC6YElqBp+4kxmDaQGqb8oMBMGA1UdJQQMMAoGCCsGAQUFBwMC
MAsGA1UdDwQEAwIHgDANBgkqhkiG9w0BAQsFAAOCAQEAoxDeaC4xHJ/7y1BKI4OX
YXmpv0aiwAXN6YHrqIxJTghRM2BTv/gmChXPv4aldPLKhnxAdz6LjNjH6/K7IoHe
tGnLrA2pXcsDBXIQIvzMS288kAuiwI0eZpYmSoNtMGkxSGID2xfsQvbxRQwkTvQL
YM8SfRKNY7oD6jqNkZtbXFeoaLLLA32gwmXjCyK1Epf3A1Qxa/noUzMxiW+7+frq
FgzjTnlH3EdkAX1kgaSFHEFT2oAL72TGjeY4uRomc4LGRV5rVeBoIvpGIeNSYJBX
T9Ik9OLrn5SyVTN2k+GIqBNOK1c8dB2oNdHVMIYWZXwORRxx1ojVoSq8NxwTKGzp
JQ==
-----END CERTIFICATE-----
