Certificate:
    Data:
        Version: 3 (0x2)
        Serial Number:
            1f:1b:96:5f:27:c0:ba:cf:11:a9:4c:d8:e4:8d:41:b7
        Signature Algorithm: sha256WithRSAEncryption
        Issuer: CN=team148-net
        Validity
            Not Before: May 18 18:36:24 2022 GMT
            Not After : May  2 18:36:24 2025 GMT
        Subject: CN=team148-server
        Subject Public Key Info:
            Public Key Algorithm: rsaEncryption
                RSA Public-Key: (2048 bit)
                Modulus:
                    00:f4:61:a5:a0:b1:e7:03:c3:f3:d8:16:af:a1:e5:
                    62:30:84:97:31:8c:f3:d3:33:f9:7b:4e:7e:d7:76:
                    97:cc:e1:c9:8a:80:f9:a9:c3:cc:f3:b4:08:69:ec:
                    08:34:c0:ba:3d:77:f8:10:a4:a2:15:c9:f5:68:5d:
                    dd:d4:32:24:ea:d2:a8:65:fe:5b:42:f6:17:3f:45:
                    ec:54:6c:32:32:c3:e5:37:6d:d3:a4:9f:8d:07:81:
                    d4:b1:ae:be:1f:49:8a:ca:10:4e:41:b1:c0:1e:d7:
                    9c:d7:ef:88:95:26:37:23:25:00:b5:92:59:63:57:
                    1c:13:0a:b5:99:73:df:c6:b6:65:12:dc:b3:a5:41:
                    ef:ef:5e:cf:59:4b:cc:00:57:7e:c3:60:ad:b0:80:
                    d8:87:2e:fa:ac:a9:23:31:e3:35:ca:64:e6:90:2f:
                    9a:07:bd:a6:82:ac:e1:ea:4f:55:0b:bc:c8:aa:5b:
                    72:e9:8a:3f:b3:e0:fd:61:99:5b:f0:ad:68:30:63:
                    e6:86:f9:e4:54:06:5e:ea:c8:73:35:57:1b:16:cc:
                    ef:84:d1:ba:2c:47:49:36:98:31:a1:c6:85:83:d4:
                    be:d6:c5:d1:c4:fb:ed:f0:74:6a:26:c4:81:c1:4f:
                    cd:fe:14:24:aa:61:8b:08:31:6b:fe:22:9b:e1:88:
                    a9:e7
                Exponent: 65537 (0x10001)
        X509v3 extensions:
            X509v3 Basic Constraints: 
                CA:FALSE
            X509v3 Subject Key Identifier: 
                DB:36:30:9E:6C:A7:3C:92:B9:66:2B:EF:5F:83:95:21:F9:E6:57:65
            X509v3 Authority Key Identifier: 
                keyid:42:33:B2:D3:B6:7E:25:4A:9B:47:96:27:2F:0B:8D:3C:F1:EC:EE:B0
                DirName:/CN=team148-net
                serial:67:FD:F5:02:83:E0:D2:18:64:E3:42:60:8B:9E:9B:A9:B1:85:18:40

            X509v3 Extended Key Usage: 
                TLS Web Server Authentication
            X509v3 Key Usage: 
                Digital Signature, Key Encipherment
            X509v3 Subject Alternative Name: 
                DNS:team148-server
    Signature Algorithm: sha256WithRSAEncryption
         86:ae:32:0b:32:d0:17:1c:59:84:c5:fa:1f:bc:44:10:b9:97:
         58:dd:5a:e2:cd:12:3e:2d:77:67:e5:ac:c1:7e:67:f3:ce:af:
         7e:9a:b2:22:00:94:f1:80:7e:3b:3f:87:07:61:48:63:b4:10:
         53:fa:e8:8d:f9:a1:71:aa:bd:8d:a1:39:47:e3:a8:f9:4a:9c:
         7a:be:cb:2b:93:e9:ea:0d:3e:7c:54:b7:8d:96:b3:9f:c0:c8:
         5c:b1:15:8e:3b:eb:0b:39:c6:a5:94:38:b9:a6:8e:b8:a0:74:
         24:dc:07:b5:91:55:d0:30:46:bc:45:d5:5d:79:c4:fd:64:76:
         d6:db:ca:25:03:b8:49:85:5c:d4:b3:bf:cc:02:5b:f5:16:74:
         94:c2:cd:25:82:f4:7d:76:82:cd:a5:e1:20:af:4a:72:cc:07:
         b8:16:fc:ef:1a:a1:77:8c:21:b1:ab:8b:e1:3a:ad:0c:74:9a:
         72:25:49:4a:e8:d8:f2:80:2d:49:1b:4f:fd:c8:96:f8:35:a8:
         83:51:1b:f4:cd:f2:52:56:91:7c:fe:13:55:51:a5:a7:df:a9:
         78:e5:d7:42:8a:82:ba:78:8b:49:b3:86:54:57:25:44:c3:56:
         38:11:12:bd:eb:11:70:4f:ad:8a:ac:8c:19:69:ac:71:e6:7f:
         d7:f5:f4:b8
-----BEGIN CERTIFICATE-----
MIIDdzCCAl+gAwIBAgIQHxuWXyfAus8RqUzY5I1BtzANBgkqhkiG9w0BAQsFADAW
MRQwEgYDVQQDDAt0ZWFtMTQ4LW5ldDAeFw0yMjA1MTgxODM2MjRaFw0yNTA1MDIx
ODM2MjRaMBkxFzAVBgNVBAMMDnRlYW0xNDgtc2VydmVyMIIBIjANBgkqhkiG9w0B
AQEFAAOCAQ8AMIIBCgKCAQEA9GGloLHnA8Pz2BavoeViMISXMYzz0zP5e05+13aX
zOHJioD5qcPM87QIaewINMC6PXf4EKSiFcn1aF3d1DIk6tKoZf5bQvYXP0XsVGwy
MsPlN23TpJ+NB4HUsa6+H0mKyhBOQbHAHtec1++IlSY3IyUAtZJZY1ccEwq1mXPf
xrZlEtyzpUHv717PWUvMAFd+w2CtsIDYhy76rKkjMeM1ymTmkC+aB72mgqzh6k9V
C7zIqlty6Yo/s+D9YZlb8K1oMGPmhvnkVAZe6shzNVcbFszvhNG6LEdJNpgxocaF
g9S+1sXRxPvt8HRqJsSBwU/N/hQkqmGLCDFr/iKb4Yip5wIDAQABo4G9MIG6MAkG
A1UdEwQCMAAwHQYDVR0OBBYEFNs2MJ5spzySuWYr71+DlSH55ldlMFEGA1UdIwRK
MEiAFEIzstO2fiVKm0eWJy8LjTzx7O6woRqkGDAWMRQwEgYDVQQDDAt0ZWFtMTQ4
LW5ldIIUZ/31AoPg0hhk40Jgi56bqbGFGEAwEwYDVR0lBAwwCgYIKwYBBQUHAwEw
CwYDVR0PBAQDAgWgMBkGA1UdEQQSMBCCDnRlYW0xNDgtc2VydmVyMA0GCSqGSIb3
DQEBCwUAA4IBAQCGrjILMtAXHFmExfofvEQQuZdY3VrizRI+LXdn5azBfmfzzq9+
mrIiAJTxgH47P4cHYUhjtBBT+uiN+aFxqr2NoTlH46j5Spx6vssrk+nqDT58VLeN
lrOfwMhcsRWOO+sLOcallDi5po64oHQk3Ae1kVXQMEa8RdVdecT9ZHbW28olA7hJ
hVzUs7/MAlv1FnSUws0lgvR9doLNpeEgr0pyzAe4FvzvGqF3jCGxq4vhOq0MdJpy
JUlK6NjygC1JG0/9yJb4NaiDURv0zfJSVpF8/hNVUaWn36l45ddCioK6eItJs4ZU
VyVEw1Y4ERK96xFwT62KrIwZaaxx5n/X9fS4
-----END CERTIFICATE-----
