Certificate:
    Data:
        Version: 3 (0x2)
        Serial Number:
            fb:f2:dc:fc:e8:8b:1f:17:45:bb:4e:8f:44:7b:7d:5c
        Signature Algorithm: sha256WithRSAEncryption
        Issuer: CN=team304-net
        Validity
            Not Before: May 18 20:00:06 2022 GMT
            Not After : May  2 20:00:06 2025 GMT
        Subject: CN=team304-server
        Subject Public Key Info:
            Public Key Algorithm: rsaEncryption
                RSA Public-Key: (2048 bit)
                Modulus:
                    00:e3:bc:79:dd:46:ba:0c:92:6d:33:fd:d6:a6:fd:
                    69:e5:08:38:14:49:db:4f:a4:ab:1f:26:02:d5:d9:
                    c0:d0:7e:33:83:01:6a:fa:9f:01:08:2b:52:a6:7c:
                    62:cf:cd:15:df:92:ed:84:dd:a5:5d:37:28:9e:59:
                    4d:9c:2f:2a:20:39:ef:1c:7d:ea:eb:c1:2f:a7:e9:
                    94:90:55:08:cc:e3:42:10:97:79:ce:da:f1:9f:7d:
                    6e:c9:6c:5b:45:42:a7:00:ce:20:93:11:65:55:3c:
                    5e:c2:05:ac:26:ad:56:96:02:fb:35:4a:0d:aa:50:
                    0a:71:83:2b:2f:d0:37:35:eb:9c:98:92:fb:1a:fa:
                    df:14:9f:9b:49:19:8f:05:46:e3:46:9f:a6:9c:f0:
                    2e:b0:47:03:22:38:0c:95:5d:6f:f8:93:95:bf:7c:
                    ad:3e:f3:a1:c6:71:ab:9c:f6:d1:77:dd:99:27:29:
                    be:7e:b4:db:02:f4:3d:ad:52:5b:bb:09:92:92:bf:
                    cb:d8:17:e4:bb:1b:6b:1d:5f:42:72:71:8c:75:31:
                    6d:3a:b5:85:ed:8a:01:31:3e:9c:ad:23:08:b6:12:
                    66:3d:76:70:f1:77:66:fc:d9:24:a0:0d:a9:ac:6d:
                    33:4f:f0:2d:32:58:c8:9e:ff:79:77:5f:97:bf:c1:
                    51:7b
                Exponent: 65537 (0x10001)
        X509v3 extensions:
            X509v3 Basic Constraints: 
                CA:FALSE
            X509v3 Subject Key Identifier: 
                77:88:BC:F5:22:E7:DE:99:86:52:2A:0D:2B:DD:EF:97:4D:10:8D:8C
            X509v3 Authority Key Identifier: 
                keyid:4C:AA:69:18:93:B6:DA:C9:AB:56:06:9D:A1:05:DA:0A:72:7E:E2:78
                DirName:/CN=team304-net
                serial:37:EA:C6:13:2E:F0:4E:1E:0A:3B:BA:7B:9D:56:64:B4:B5:85:EB:EB

            X509v3 Extended Key Usage: 
                TLS Web Server Authentication
            X509v3 Key Usage: 
                Digital Signature, Key Encipherment
            X509v3 Subject Alternative Name: 
                DNS:team304-server
    Signature Algorithm: sha256WithRSAEncryption
         cf:15:a3:67:76:6c:d0:15:33:d5:f5:3d:81:01:a3:20:76:e4:
         8e:59:23:f1:0c:e6:94:2a:c1:55:16:73:bd:c6:e2:cb:f7:54:
         97:7f:e0:f3:b7:f3:9c:5d:5f:a7:b2:20:b7:8f:5e:64:bc:ba:
         8b:13:d7:07:e2:7d:1b:1f:b1:ff:95:93:c9:f2:97:5e:e8:9b:
         06:cc:39:c0:fe:d4:99:5f:aa:2a:41:67:16:76:68:3f:2b:f9:
         7f:39:8c:93:5c:4e:59:bd:b1:49:4d:33:cb:dd:20:9e:a9:44:
         08:21:ec:da:c7:c7:05:d3:aa:77:5f:cf:e3:94:12:68:8d:c2:
         49:89:52:e8:8f:5f:2e:2d:f9:be:17:6b:34:f9:e5:e0:33:5d:
         8c:91:e9:28:88:10:f7:f5:43:fe:18:6d:90:0d:0d:e8:c7:50:
         ff:ef:6d:5f:88:da:bf:4a:d8:7e:89:d8:b4:60:6d:b1:9e:06:
         b3:bd:07:fc:39:d8:0a:6b:9d:a8:53:fb:9d:34:5a:02:08:32:
         81:17:c9:61:d8:a0:a1:b7:25:c0:dc:5f:5f:ea:a9:b7:0b:34:
         e8:d5:61:54:fd:92:f7:7a:69:a3:c8:9a:a5:f4:71:da:c9:3c:
         df:2c:d7:87:35:10:e0:be:f4:80:a0:00:a0:98:b5:f7:9b:a2:
         de:7b:30:3f
-----BEGIN CERTIFICATE-----
MIIDeDCCAmCgAwIBAgIRAPvy3Pzoix8XRbtOj0R7fVwwDQYJKoZIhvcNAQELBQAw
FjEUMBIGA1UEAwwLdGVhbTMwNC1uZXQwHhcNMjIwNTE4MjAwMDA2WhcNMjUwNTAy
MjAwMDA2WjAZMRcwFQYDVQQDDA50ZWFtMzA0LXNlcnZlcjCCASIwDQYJKoZIhvcN
AQEBBQADggEPADCCAQoCggEBAOO8ed1GugySbTP91qb9aeUIOBRJ20+kqx8mAtXZ
wNB+M4MBavqfAQgrUqZ8Ys/NFd+S7YTdpV03KJ5ZTZwvKiA57xx96uvBL6fplJBV
CMzjQhCXec7a8Z99bslsW0VCpwDOIJMRZVU8XsIFrCatVpYC+zVKDapQCnGDKy/Q
NzXrnJiS+xr63xSfm0kZjwVG40afppzwLrBHAyI4DJVdb/iTlb98rT7zocZxq5z2
0XfdmScpvn602wL0Pa1SW7sJkpK/y9gX5Lsbax1fQnJxjHUxbTq1he2KATE+nK0j
CLYSZj12cPF3ZvzZJKANqaxtM0/wLTJYyJ7/eXdfl7/BUXsCAwEAAaOBvTCBujAJ
BgNVHRMEAjAAMB0GA1UdDgQWBBR3iLz1IufemYZSKg0r3e+XTRCNjDBRBgNVHSME
SjBIgBRMqmkYk7bayatWBp2hBdoKcn7ieKEapBgwFjEUMBIGA1UEAwwLdGVhbTMw
NC1uZXSCFDfqxhMu8E4eCju6e51WZLS1hevrMBMGA1UdJQQMMAoGCCsGAQUFBwMB
MAsGA1UdDwQEAwIFoDAZBgNVHREEEjAQgg50ZWFtMzA0LXNlcnZlcjANBgkqhkiG
9w0BAQsFAAOCAQEAzxWjZ3Zs0BUz1fU9gQGjIHbkjlkj8QzmlCrBVRZzvcbiy/dU
l3/g87fznF1fp7Igt49eZLy6ixPXB+J9Gx+x/5WTyfKXXuibBsw5wP7UmV+qKkFn
FnZoPyv5fzmMk1xOWb2xSU0zy90gnqlECCHs2sfHBdOqd1/P45QSaI3CSYlS6I9f
Li35vhdrNPnl4DNdjJHpKIgQ9/VD/hhtkA0N6MdQ/+9tX4jav0rYfonYtGBtsZ4G
s70H/DnYCmudqFP7nTRaAggygRfJYdigobclwNxfX+qptws06NVhVP2S93ppo8ia
pfRx2sk83yzXhzUQ4L70gKAAoJi195ui3nswPw==
-----END CERTIFICATE-----
