Certificate:
    Data:
        Version: 3 (0x2)
        Serial Number:
            96:80:cb:6e:2e:82:71:49:fa:b7:98:c7:05:f1:ec:9b
        Signature Algorithm: sha256WithRSAEncryption
        Issuer: CN=team555-net
        Validity
            Not Before: May 18 22:15:37 2022 GMT
            Not After : May  2 22:15:37 2025 GMT
        Subject: CN=team555-client
        Subject Public Key Info:
            Public Key Algorithm: rsaEncryption
                RSA Public-Key: (2048 bit)
                Modulus:
                    00:cb:2d:7a:15:ca:c2:d9:87:23:fb:de:b2:ad:fc:
                    d5:df:02:77:b6:df:6f:04:b9:5e:af:98:aa:c4:b5:
                    29:1c:32:f7:cb:44:c9:2b:69:25:42:28:fd:c8:63:
                    ed:c8:28:0b:fb:35:8e:90:99:30:6b:fd:c6:f2:24:
                    e0:81:74:01:5f:b0:ec:e9:56:a6:0f:6c:17:99:50:
                    bd:89:fe:43:46:cc:bc:bc:2f:e0:e6:94:a3:d5:96:
                    6a:3e:de:e0:2e:19:dc:db:62:48:0c:29:f9:e0:cc:
                    89:dc:94:69:2b:fc:7f:54:e0:72:b2:08:c3:53:12:
                    9b:bd:7f:6d:e5:cb:25:c3:be:9f:8e:2e:d0:35:24:
                    76:f8:ed:24:21:7c:cc:5e:5b:46:4a:26:6f:47:b5:
                    62:04:75:3e:bd:c7:b0:52:c0:a8:ee:c9:31:19:cb:
                    08:12:28:dd:3b:bf:1b:8a:92:01:91:77:cf:79:b5:
                    8c:38:fb:bd:82:dc:18:74:4a:bf:70:3d:4b:be:4e:
                    61:c5:17:0c:ad:c8:e6:88:6f:4f:b2:cd:ab:21:0a:
                    74:84:51:05:4f:12:ef:36:ae:a6:3e:71:4d:a6:f6:
                    a9:19:49:90:ac:9b:5d:0e:d6:26:c3:53:bb:e3:9a:
                    18:38:bc:61:1f:58:31:23:1a:c3:3a:14:42:67:ef:
                    a2:65
                Exponent: 65537 (0x10001)
        X509v3 extensions:
            X509v3 Basic Constraints: 
                CA:FALSE
            X509v3 Subject Key Identifier: 
                8D:20:4E:39:FF:86:36:5C:31:DD:0A:F6:9B:32:A7:C4:9E:50:96:20
            X509v3 Authority Key Identifier: 
                keyid:C3:7C:E1:BC:66:75:BA:13:A0:30:A4:6F:B2:2F:96:9F:9D:87:A0:39
                DirName:/CN=team555-net
                serial:78:0B:69:BE:C7:5D:A5:27:FD:18:50:AC:B1:64:E1:9F:C1:34:85:F0

            X509v3 Extended Key Usage: 
                TLS Web Client Authentication
            X509v3 Key Usage: 
                Digital Signature
    Signature Algorithm: sha256WithRSAEncryption
         79:d4:4e:1b:b4:a3:ec:84:47:b2:e5:c8:e4:cd:8b:6c:67:09:
         39:e3:34:d2:76:39:57:f5:14:1d:23:f7:26:f8:29:a9:8a:01:
         f1:4d:6f:24:b9:14:99:ea:3d:38:63:9e:32:e0:e2:a9:2d:43:
         7d:a1:ae:18:d2:42:26:ac:7c:1d:f0:f3:8e:8b:e0:5d:02:ed:
         16:12:78:c0:70:ea:21:a0:9d:78:11:2e:3e:92:f7:21:65:44:
         17:28:19:59:f0:d4:ab:27:11:e1:45:af:82:30:f4:be:8c:1b:
         65:ce:8e:01:4e:a8:51:a3:49:63:3b:bb:b3:dc:4d:27:40:20:
         c7:aa:78:9b:38:16:28:e3:eb:dc:8a:4f:39:3a:89:82:e8:23:
         d9:d9:b9:9e:70:08:e3:f8:31:be:5c:61:a9:8f:b9:09:d9:2e:
         d1:32:2f:12:db:f3:94:d8:c4:3d:68:a1:0b:86:66:36:1b:45:
         41:64:2c:33:4a:d0:c8:f1:44:d8:df:6b:9d:86:56:79:cd:1e:
         e9:84:8e:35:73:d3:b1:0c:6d:21:ea:bf:f2:e8:a7:75:0d:4c:
         29:d7:d9:5a:4b:16:4c:b3:ef:ed:b8:8b:75:f9:db:81:b4:a5:
         34:ee:c8:c7:a4:06:07:10:43:de:c6:44:3d:4d:52:20:26:c0:
         06:e1:a7:2b
-----BEGIN CERTIFICATE-----
MIIDXTCCAkWgAwIBAgIRAJaAy24ugnFJ+reYxwXx7JswDQYJKoZIhvcNAQELBQAw
FjEUMBIGA1UEAwwLdGVhbTU1NS1uZXQwHhcNMjIwNTE4MjIxNTM3WhcNMjUwNTAy
MjIxNTM3WjAZMRcwFQYDVQQDDA50ZWFtNTU1LWNsaWVudDCCASIwDQYJKoZIhvcN
AQEBBQADggEPADCCAQoCggEBAMstehXKwtmHI/vesq381d8Cd7bfbwS5Xq+YqsS1
KRwy98tEyStpJUIo/chj7cgoC/s1jpCZMGv9xvIk4IF0AV+w7OlWpg9sF5lQvYn+
Q0bMvLwv4OaUo9WWaj7e4C4Z3NtiSAwp+eDMidyUaSv8f1TgcrIIw1MSm71/beXL
JcO+n44u0DUkdvjtJCF8zF5bRkomb0e1YgR1Pr3HsFLAqO7JMRnLCBIo3Tu/G4qS
AZF3z3m1jDj7vYLcGHRKv3A9S75OYcUXDK3I5ohvT7LNqyEKdIRRBU8S7zaupj5x
Tab2qRlJkKybXQ7WJsNTu+OaGDi8YR9YMSMawzoUQmfvomUCAwEAAaOBojCBnzAJ
BgNVHRMEAjAAMB0GA1UdDgQWBBSNIE45/4Y2XDHdCvabMqfEnlCWIDBRBgNVHSME
SjBIgBTDfOG8ZnW6E6AwpG+yL5afnYegOaEapBgwFjEUMBIGA1UEAwwLdGVhbTU1
NS1uZXSCFHgLab7HXaUn/RhQrLFk4Z/BNIXwMBMGA1UdJQQMMAoGCCsGAQUFBwMC
MAsGA1UdDwQEAwIHgDANBgkqhkiG9w0BAQsFAAOCAQEAedROG7Sj7IRHsuXI5M2L
bGcJOeM00nY5V/UUHSP3JvgpqYoB8U1vJLkUmeo9OGOeMuDiqS1DfaGuGNJCJqx8
HfDzjovgXQLtFhJ4wHDqIaCdeBEuPpL3IWVEFygZWfDUqycR4UWvgjD0vowbZc6O
AU6oUaNJYzu7s9xNJ0Agx6p4mzgWKOPr3IpPOTqJgugj2dm5nnAI4/gxvlxhqY+5
Cdku0TIvEtvzlNjEPWihC4ZmNhtFQWQsM0rQyPFE2N9rnYZWec0e6YSONXPTsQxt
Ieq/8uindQ1MKdfZWksWTLPv7biLdfnbgbSlNO7Ix6QGBxBD3sZEPU1SICbABuGn
Kw==
-----END CERTIFICATE-----
