Certificate:
    Data:
        Version: 3 (0x2)
        Serial Number:
            40:d1:06:58:c4:fb:9f:76:16:e6:6f:f6:04:a1:e5:7e
        Signature Algorithm: sha256WithRSAEncryption
        Issuer: CN=team210-net
        Validity
            Not Before: May 18 19:06:43 2022 GMT
            Not After : May  2 19:06:43 2025 GMT
        Subject: CN=team210-server
        Subject Public Key Info:
            Public Key Algorithm: rsaEncryption
                RSA Public-Key: (2048 bit)
                Modulus:
                    00:cc:13:f6:c8:6b:ef:0f:d7:ab:a0:ad:a2:86:51:
                    1b:7b:7f:b2:4f:43:00:3f:a2:a9:15:07:47:7b:52:
                    1c:e1:09:ce:6d:0f:82:3e:7e:b7:ab:8f:01:c4:d0:
                    9f:24:84:23:5e:23:2e:d1:09:8e:98:8d:a2:6b:82:
                    bd:7e:9f:15:b5:34:76:04:d8:1a:5a:91:f0:a6:ca:
                    79:3b:62:d1:09:2c:de:fe:87:6b:01:cd:3c:2a:84:
                    a7:5f:4b:92:68:9d:f9:28:76:bf:05:64:02:bb:ac:
                    e6:22:cf:52:5e:49:66:63:8b:76:2e:c1:63:5a:a3:
                    0d:0c:e5:5a:e8:db:db:79:75:15:40:27:ee:d4:23:
                    d9:fd:30:08:71:a6:d9:5c:4b:9b:56:ce:93:2a:50:
                    9b:36:86:6a:69:7b:51:55:3d:4d:36:07:6f:8d:ea:
                    aa:30:b5:54:c1:0c:42:73:bc:aa:db:7a:91:61:57:
                    a7:dd:a4:3c:f2:84:92:35:4a:db:7c:4b:fc:16:68:
                    d6:e6:c2:82:29:eb:f0:b9:6d:4a:27:fe:9d:fe:7a:
                    5e:f3:01:c8:ce:53:b9:59:b4:39:11:74:52:a1:9a:
                    69:87:a5:a6:cd:9d:24:c6:c7:01:41:7b:48:2e:2b:
                    7d:e6:1f:8d:f1:8b:c0:04:5b:30:66:ce:d3:9d:0a:
                    45:91
                Exponent: 65537 (0x10001)
        X509v3 extensions:
            X509v3 Basic Constraints: 
                CA:FALSE
            X509v3 Subject Key Identifier: 
                3F:B2:2C:5B:1C:9D:85:CD:E7:94:1C:58:F5:BA:48:89:EA:72:50:AC
            X509v3 Authority Key Identifier: 
                keyid:C7:06:C5:B9:1A:15:8B:C5:0A:BC:74:74:5E:A1:9B:B4:E0:18:A7:EB
                DirName:/CN=team210-net
                serial:0A:98:55:8F:52:80:A0:23:C8:DD:78:53:29:18:BF:F5:87:92:D7:9A

            X509v3 Extended Key Usage: 
                TLS Web Server Authentication
            X509v3 Key Usage: 
                Digital Signature, Key Encipherment
            X509v3 Subject Alternative Name: 
                DNS:team210-server
    Signature Algorithm: sha256WithRSAEncryption
         18:4b:8f:53:47:1e:53:be:f1:73:cf:46:13:ae:00:03:56:7c:
         2e:bd:20:70:3a:37:2f:fd:90:95:72:89:99:63:a0:ee:1e:39:
         29:e6:da:f9:ca:2c:73:44:04:a5:fa:de:20:5c:72:95:40:aa:
         f4:83:53:aa:2b:6e:2f:7c:42:ed:a5:dc:11:b6:89:f4:80:be:
         0a:7c:8e:71:63:b0:e9:b0:c2:1f:83:a2:a4:fb:ab:12:e8:7d:
         70:19:64:af:1a:c6:0f:1e:ad:89:00:c9:88:63:cd:4b:c7:e2:
         1a:b0:04:04:a7:f4:f5:11:32:27:17:35:54:df:a5:b6:62:13:
         db:97:2e:5f:e4:be:01:b1:79:64:e4:8a:5a:51:83:9c:3f:f3:
         aa:e6:ad:2d:fb:23:b6:b6:fa:ad:de:c8:c0:33:4b:f6:6e:fa:
         ca:77:2c:75:f4:bd:c5:d2:db:b3:5a:f7:15:9b:01:8e:64:93:
         ac:33:0c:eb:e6:fc:9b:5f:dc:b2:46:9c:86:0d:62:49:3d:33:
         4a:c9:bb:3e:33:f5:c6:f5:d5:40:32:89:a7:85:b0:0e:26:e9:
         eb:6b:e7:06:12:db:3f:d0:8c:0f:b7:72:b9:6e:a2:e8:bf:ea:
         8e:ad:5b:d9:69:59:5e:88:58:13:b8:b3:44:06:fe:8e:ea:93:
         74:2d:fc:2e
-----BEGIN CERTIFICATE-----
MIIDdzCCAl+gAwIBAgIQQNEGWMT7n3YW5m/2BKHlfjANBgkqhkiG9w0BAQsFADAW
MRQwEgYDVQQDDAt0ZWFtMjEwLW5ldDAeFw0yMjA1MTgxOTA2NDNaFw0yNTA1MDIx
OTA2NDNaMBkxFzAVBgNVBAMMDnRlYW0yMTAtc2VydmVyMIIBIjANBgkqhkiG9w0B
AQEFAAOCAQ8AMIIBCgKCAQEAzBP2yGvvD9eroK2ihlEbe3+yT0MAP6KpFQdHe1Ic
4QnObQ+CPn63q48BxNCfJIQjXiMu0QmOmI2ia4K9fp8VtTR2BNgaWpHwpsp5O2LR
CSze/odrAc08KoSnX0uSaJ35KHa/BWQCu6zmIs9SXklmY4t2LsFjWqMNDOVa6Nvb
eXUVQCfu1CPZ/TAIcabZXEubVs6TKlCbNoZqaXtRVT1NNgdvjeqqMLVUwQxCc7yq
23qRYVen3aQ88oSSNUrbfEv8FmjW5sKCKevwuW1KJ/6d/npe8wHIzlO5WbQ5EXRS
oZpph6WmzZ0kxscBQXtILit95h+N8YvABFswZs7TnQpFkQIDAQABo4G9MIG6MAkG
A1UdEwQCMAAwHQYDVR0OBBYEFD+yLFscnYXN55QcWPW6SInqclCsMFEGA1UdIwRK
MEiAFMcGxbkaFYvFCrx0dF6hm7TgGKfroRqkGDAWMRQwEgYDVQQDDAt0ZWFtMjEw
LW5ldIIUCphVj1KAoCPI3XhTKRi/9YeS15owEwYDVR0lBAwwCgYIKwYBBQUHAwEw
CwYDVR0PBAQDAgWgMBkGA1UdEQQSMBCCDnRlYW0yMTAtc2VydmVyMA0GCSqGSIb3
DQEBCwUAA4IBAQAYS49TRx5TvvFzz0YTrgADVnwuvSBwOjcv/ZCVcomZY6DuHjkp
5tr5yixzRASl+t4gXHKVQKr0g1OqK24vfELtpdwRton0gL4KfI5xY7DpsMIfg6Kk
+6sS6H1wGWSvGsYPHq2JAMmIY81Lx+IasAQEp/T1ETInFzVU36W2YhPbly5f5L4B
sXlk5IpaUYOcP/Oq5q0t+yO2tvqt3sjAM0v2bvrKdyx19L3F0tuzWvcVmwGOZJOs
Mwzr5vybX9yyRpyGDWJJPTNKybs+M/XG9dVAMomnhbAOJunra+cGEts/0IwPt3K5
bqLov+qOrVvZaVleiFgTuLNEBv6O6pN0Lfwu
-----END CERTIFICATE-----
