Certificate:
    Data:
        Version: 3 (0x2)
        Serial Number:
            27:60:7c:33:43:d3:f0:8c:3c:2e:00:a5:7d:2b:bf:85
        Signature Algorithm: sha256WithRSAEncryption
        Issuer: CN=team261-net
        Validity
            Not Before: May 18 19:35:34 2022 GMT
            Not After : May  2 19:35:34 2025 GMT
        Subject: CN=team261-client
        Subject Public Key Info:
            Public Key Algorithm: rsaEncryption
                RSA Public-Key: (2048 bit)
                Modulus:
                    00:b3:08:d2:c7:77:01:7b:b3:6c:23:9d:8a:81:c6:
                    ba:7b:1c:88:fd:a2:7a:f5:be:01:49:d6:cc:40:92:
                    8f:7a:85:16:db:9e:0e:1d:0a:75:c0:e2:01:5b:d5:
                    40:8e:ed:d6:a7:7f:1e:12:af:e9:72:cf:71:2e:ab:
                    3c:85:81:0f:da:91:8c:cd:ed:77:fe:14:1f:cb:78:
                    05:f6:e4:0b:6d:29:f2:2b:27:91:6c:00:b8:fd:8f:
                    7c:98:f6:00:b6:c4:01:f9:3d:3d:05:ee:bf:d6:6d:
                    f7:5d:d9:70:0b:26:4d:26:99:78:f7:cd:cc:6f:54:
                    f7:37:f5:f3:bd:90:2b:83:98:d3:8f:9e:36:c5:87:
                    6d:21:57:58:63:2d:7b:f1:11:57:31:cd:d6:6c:ee:
                    3f:29:eb:2d:a0:14:42:9d:3d:4e:8d:a3:fc:46:57:
                    77:f7:27:19:34:2a:a7:34:2f:fd:d5:1d:7e:5f:f9:
                    48:c3:3d:28:4d:5c:b5:32:d4:4d:9c:a5:1e:06:24:
                    42:81:08:e5:39:3a:9c:30:fd:53:dc:d7:37:f9:d4:
                    3e:d3:7b:98:28:b7:cf:1a:4e:6b:55:f9:03:70:6d:
                    14:88:ec:b8:2e:49:af:3b:c7:10:9a:db:1f:8f:62:
                    3c:30:4a:08:8c:fa:42:61:f1:46:9d:39:f5:73:76:
                    d5:87
                Exponent: 65537 (0x10001)
        X509v3 extensions:
            X509v3 Basic Constraints: 
                CA:FALSE
            X509v3 Subject Key Identifier: 
                C9:81:B9:2E:CF:8C:D1:22:2A:C9:5F:43:9F:1C:37:D9:F7:85:2F:A1
            X509v3 Authority Key Identifier: 
                keyid:19:2D:DE:74:CB:E0:8A:1C:63:43:DF:2F:9A:6E:9F:F7:DD:48:B0:61
                DirName:/CN=team261-net
                serial:41:05:0B:84:D0:AE:44:10:EE:8E:66:31:7A:6A:0E:C9:45:74:F8:BA

            X509v3 Extended Key Usage: 
                TLS Web Client Authentication
            X509v3 Key Usage: 
                Digital Signature
    Signature Algorithm: sha256WithRSAEncryption
         c3:59:2c:42:af:53:fc:54:d8:e0:93:96:7b:9c:69:d7:15:1a:
         88:89:5c:00:8b:bc:63:43:ed:23:15:8f:50:06:66:f2:d7:bb:
         ed:b9:1c:20:93:91:15:75:34:34:57:4e:3e:f1:b9:92:ed:52:
         49:ce:93:14:94:27:0f:d5:2f:a1:5c:6f:6c:3e:37:cb:16:eb:
         c1:0c:2e:68:88:e0:0c:ac:92:99:9a:b9:5f:e5:0c:f7:fc:c7:
         30:29:1d:0b:bf:5e:23:1b:4b:a7:30:b9:7b:8f:77:a4:84:86:
         9d:69:32:79:e2:cb:94:a3:7a:62:d1:c4:6d:6d:9a:d5:61:8a:
         5e:2d:f7:74:cc:36:42:6c:76:42:15:8d:b2:f3:25:29:d8:81:
         ab:b1:35:7a:23:f1:8a:2f:f0:00:c8:14:62:d6:45:d9:d4:f7:
         5a:dc:6b:da:60:25:dd:d7:96:38:4e:3b:0e:f0:bc:44:83:e2:
         09:81:52:cc:43:69:f1:a2:cd:54:54:4d:d1:9e:f0:0c:25:13:
         34:95:b9:60:c0:e8:8a:4f:68:a2:0a:32:95:e1:66:fd:5c:a3:
         b6:83:27:a7:8b:bb:2f:a3:9a:13:5e:4a:85:ca:2f:89:7e:ee:
         db:6b:01:28:d9:cc:1b:83:c3:69:2b:2a:ff:3f:f4:ee:cf:bb:
         d5:fd:16:89
-----BEGIN CERTIFICATE-----
MIIDXDCCAkSgAwIBAgIQJ2B8M0PT8Iw8LgClfSu/hTANBgkqhkiG9w0BAQsFADAW
MRQwEgYDVQQDDAt0ZWFtMjYxLW5ldDAeFw0yMjA1MTgxOTM1MzRaFw0yNTA1MDIx
OTM1MzRaMBkxFzAVBgNVBAMMDnRlYW0yNjEtY2xpZW50MIIBIjANBgkqhkiG9w0B
AQEFAAOCAQ8AMIIBCgKCAQEAswjSx3cBe7NsI52Kgca6exyI/aJ69b4BSdbMQJKP
eoUW254OHQp1wOIBW9VAju3Wp38eEq/pcs9xLqs8hYEP2pGMze13/hQfy3gF9uQL
bSnyKyeRbAC4/Y98mPYAtsQB+T09Be6/1m33XdlwCyZNJpl4983Mb1T3N/XzvZAr
g5jTj542xYdtIVdYYy178RFXMc3WbO4/KestoBRCnT1OjaP8Rld39ycZNCqnNC/9
1R1+X/lIwz0oTVy1MtRNnKUeBiRCgQjlOTqcMP1T3Nc3+dQ+03uYKLfPGk5rVfkD
cG0UiOy4LkmvO8cQmtsfj2I8MEoIjPpCYfFGnTn1c3bVhwIDAQABo4GiMIGfMAkG
A1UdEwQCMAAwHQYDVR0OBBYEFMmBuS7PjNEiKslfQ58cN9n3hS+hMFEGA1UdIwRK
MEiAFBkt3nTL4IocY0PfL5pun/fdSLBhoRqkGDAWMRQwEgYDVQQDDAt0ZWFtMjYx
LW5ldIIUQQULhNCuRBDujmYxemoOyUV0+LowEwYDVR0lBAwwCgYIKwYBBQUHAwIw
CwYDVR0PBAQDAgeAMA0GCSqGSIb3DQEBCwUAA4IBAQDDWSxCr1P8VNjgk5Z7nGnX
FRqIiVwAi7xjQ+0jFY9QBmby17vtuRwgk5EVdTQ0V04+8bmS7VJJzpMUlCcP1S+h
XG9sPjfLFuvBDC5oiOAMrJKZmrlf5Qz3/McwKR0Lv14jG0unMLl7j3ekhIadaTJ5
4suUo3pi0cRtbZrVYYpeLfd0zDZCbHZCFY2y8yUp2IGrsTV6I/GKL/AAyBRi1kXZ
1Pda3GvaYCXd15Y4TjsO8LxEg+IJgVLMQ2nxos1UVE3RnvAMJRM0lblgwOiKT2ii
CjKV4Wb9XKO2gyeni7svo5oTXkqFyi+Jfu7bawEo2cwbg8NpKyr/P/Tuz7vV/RaJ
-----END CERTIFICATE-----
