Certificate:
    Data:
        Version: 3 (0x2)
        Serial Number:
            e2:13:9f:c4:df:0b:f1:52:5b:0b:8b:5b:2b:27:24:99
        Signature Algorithm: sha256WithRSAEncryption
        Issuer: CN=team248-net
        Validity
            Not Before: May 18 19:37:34 2022 GMT
            Not After : May  2 19:37:34 2025 GMT
        Subject: CN=team248-server
        Subject Public Key Info:
            Public Key Algorithm: rsaEncryption
                RSA Public-Key: (2048 bit)
                Modulus:
                    00:d8:50:7d:a0:9c:15:e8:20:9d:44:46:29:5a:db:
                    4f:19:0a:d6:bf:47:6a:ad:3f:78:75:98:65:c2:d5:
                    ed:ef:73:6e:33:d5:0b:ef:b3:95:58:7e:89:f2:7f:
                    d8:2f:d3:a1:14:cc:60:57:5a:3d:a7:b2:16:15:d9:
                    c7:cc:91:67:7c:9d:9e:5d:c2:48:5d:7a:38:12:c4:
                    f8:48:70:86:62:46:ab:5e:20:b5:86:bd:8a:af:04:
                    13:c3:10:46:5c:76:61:be:7c:63:89:64:5c:81:b0:
                    72:59:e4:c7:98:7a:76:da:df:47:86:74:b7:23:ca:
                    4a:0a:27:3e:23:eb:f9:b8:a1:99:4d:35:0f:67:b9:
                    15:45:d8:c9:33:e7:a4:ee:e2:f4:9f:cd:53:8c:6f:
                    7b:e6:00:24:f0:5d:c2:07:b1:13:4b:dd:cb:d0:33:
                    68:da:5d:f1:ed:06:8c:c7:0f:2a:44:95:3f:ff:33:
                    94:92:f8:94:3d:95:81:49:ae:49:45:ab:4a:e3:9b:
                    fa:55:b5:a4:1d:00:ff:85:d4:04:b4:8b:07:7b:f2:
                    13:89:b1:88:80:a2:84:f8:18:0f:24:bc:00:88:f4:
                    c6:e5:c2:cf:ae:db:0c:14:1b:3c:f7:87:26:bf:06:
                    35:90:b5:28:60:80:83:df:20:8f:a0:95:03:f1:b3:
                    f4:53
                Exponent: 65537 (0x10001)
        X509v3 extensions:
            X509v3 Basic Constraints: 
                CA:FALSE
            X509v3 Subject Key Identifier: 
                D5:CF:3D:F4:CD:21:B9:4A:F0:6A:98:6D:D5:91:98:06:B8:B5:F6:96
            X509v3 Authority Key Identifier: 
                keyid:02:7D:32:E9:93:D5:3D:D5:DB:11:89:89:20:F1:59:10:89:FD:60:EC
                DirName:/CN=team248-net
                serial:3D:49:B4:93:F3:98:59:53:7B:35:B3:2C:53:66:EE:C5:86:07:93:3E

            X509v3 Extended Key Usage: 
                TLS Web Server Authentication
            X509v3 Key Usage: 
                Digital Signature, Key Encipherment
            X509v3 Subject Alternative Name: 
                DNS:team248-server
    Signature Algorithm: sha256WithRSAEncryption
         8f:ad:a6:f7:0b:bc:10:e1:3a:b7:15:f4:b1:8a:3d:f4:ca:e3:
         d1:ca:6a:88:b5:7a:8d:d1:a6:9d:7f:9c:f8:16:0b:83:43:ff:
         6d:e3:2b:5e:21:e5:22:a4:6c:fd:cf:cb:7d:9d:d7:0a:06:fe:
         42:62:dc:3c:dc:b7:c7:f3:d6:38:66:42:90:0d:ca:26:7d:36:
         a7:ea:22:1f:e4:d9:dd:3c:8b:67:5b:51:e7:61:05:f9:bc:7a:
         07:3d:ff:e9:d8:63:d5:43:f9:81:14:83:6f:03:6a:b0:2e:17:
         ee:75:94:b2:26:76:5e:05:0e:62:d4:08:85:cb:3e:d3:9d:98:
         7b:06:0b:53:78:28:fd:b3:66:ee:89:89:c4:7a:00:93:b2:51:
         d0:2f:39:ac:6f:40:20:55:1e:b9:b0:cf:16:23:7a:f0:0a:69:
         d8:95:11:53:17:2b:da:35:07:dc:f3:b7:00:fe:3a:dd:e3:9a:
         2c:01:cb:b4:48:0b:17:5a:7c:22:cc:1c:39:2c:10:b6:43:ef:
         aa:98:fb:97:49:8b:11:d5:4f:e8:50:0a:e1:25:58:4a:ff:91:
         b4:af:0d:6f:10:4e:76:d8:94:81:4c:1d:d8:ee:7e:ba:72:e3:
         f5:fa:81:58:e4:00:de:c1:21:5a:08:b3:28:90:45:76:20:59:
         de:3f:15:98
-----BEGIN CERTIFICATE-----
MIIDeDCCAmCgAwIBAgIRAOITn8TfC/FSWwuLWysnJJkwDQYJKoZIhvcNAQELBQAw
FjEUMBIGA1UEAwwLdGVhbTI0OC1uZXQwHhcNMjIwNTE4MTkzNzM0WhcNMjUwNTAy
MTkzNzM0WjAZMRcwFQYDVQQDDA50ZWFtMjQ4LXNlcnZlcjCCASIwDQYJKoZIhvcN
AQEBBQADggEPADCCAQoCggEBANhQfaCcFeggnURGKVrbTxkK1r9Haq0/eHWYZcLV
7e9zbjPVC++zlVh+ifJ/2C/ToRTMYFdaPaeyFhXZx8yRZ3ydnl3CSF16OBLE+Ehw
hmJGq14gtYa9iq8EE8MQRlx2Yb58Y4lkXIGwclnkx5h6dtrfR4Z0tyPKSgonPiPr
+bihmU01D2e5FUXYyTPnpO7i9J/NU4xve+YAJPBdwgexE0vdy9AzaNpd8e0GjMcP
KkSVP/8zlJL4lD2VgUmuSUWrSuOb+lW1pB0A/4XUBLSLB3vyE4mxiICihPgYDyS8
AIj0xuXCz67bDBQbPPeHJr8GNZC1KGCAg98gj6CVA/Gz9FMCAwEAAaOBvTCBujAJ
BgNVHRMEAjAAMB0GA1UdDgQWBBTVzz30zSG5SvBqmG3VkZgGuLX2ljBRBgNVHSME
SjBIgBQCfTLpk9U91dsRiYkg8VkQif1g7KEapBgwFjEUMBIGA1UEAwwLdGVhbTI0
OC1uZXSCFD1JtJPzmFlTezWzLFNm7sWGB5M+MBMGA1UdJQQMMAoGCCsGAQUFBwMB
MAsGA1UdDwQEAwIFoDAZBgNVHREEEjAQgg50ZWFtMjQ4LXNlcnZlcjANBgkqhkiG
9w0BAQsFAAOCAQEAj62m9wu8EOE6txX0sYo99Mrj0cpqiLV6jdGmnX+c+BYLg0P/
beMrXiHlIqRs/c/LfZ3XCgb+QmLcPNy3x/PWOGZCkA3KJn02p+oiH+TZ3TyLZ1tR
52EF+bx6Bz3/6dhj1UP5gRSDbwNqsC4X7nWUsiZ2XgUOYtQIhcs+052YewYLU3go
/bNm7omJxHoAk7JR0C85rG9AIFUeubDPFiN68App2JURUxcr2jUH3PO3AP463eOa
LAHLtEgLF1p8IswcOSwQtkPvqpj7l0mLEdVP6FAK4SVYSv+RtK8NbxBOdtiUgUwd
2O5+unLj9fqBWOQA3sEhWgizKJBFdiBZ3j8VmA==
-----END CERTIFICATE-----
