Certificate:
    Data:
        Version: 3 (0x2)
        Serial Number:
            fb:a9:37:7b:97:23:bb:de:96:d7:14:ba:a1:b2:8a:7d
        Signature Algorithm: sha256WithRSAEncryption
        Issuer: CN=team143-net
        Validity
            Not Before: May 18 18:35:47 2022 GMT
            Not After : May  2 18:35:47 2025 GMT
        Subject: CN=team143-server
        Subject Public Key Info:
            Public Key Algorithm: rsaEncryption
                RSA Public-Key: (2048 bit)
                Modulus:
                    00:bd:1d:f3:4d:d2:38:a4:31:1f:6a:74:32:5b:af:
                    ee:d0:74:a9:c3:b4:c9:14:7e:6f:84:6e:c4:4a:e5:
                    e8:25:5e:a1:c1:cb:a5:b1:a5:4b:1c:51:8c:d0:38:
                    9c:06:7d:2b:4f:59:71:6e:1e:75:f5:39:f0:d7:30:
                    29:17:3b:49:d2:c4:cb:15:50:85:34:17:26:55:8c:
                    9a:80:b5:db:37:2e:91:50:55:ad:36:79:a2:18:b6:
                    24:db:9b:d5:47:8d:10:9a:66:f6:cf:9c:40:b9:24:
                    84:ea:fd:66:23:c0:57:fa:dc:e0:32:37:70:b0:60:
                    b1:aa:2e:56:9d:60:8d:21:2e:76:76:0f:2f:f7:ae:
                    a7:de:a9:5e:cf:b3:08:98:15:77:a7:e2:a4:4a:ce:
                    af:36:3d:15:0f:c1:a0:82:d3:5e:81:dc:63:63:55:
                    a4:12:34:45:5f:64:fd:69:c2:d1:a6:27:1f:7a:93:
                    4a:2d:2f:8c:4e:16:5e:1c:f1:18:74:25:01:6d:80:
                    50:17:ed:27:12:e5:64:ee:c2:77:36:ee:62:4b:ce:
                    21:fd:4d:0c:71:1f:25:fd:ee:f9:1d:29:c1:b9:d1:
                    3f:c2:82:3a:16:79:7d:d9:39:04:ad:fa:a2:15:b7:
                    36:95:e3:fd:44:1e:ab:04:79:b0:e5:26:74:7e:2a:
                    a3:65
                Exponent: 65537 (0x10001)
        X509v3 extensions:
            X509v3 Basic Constraints: 
                CA:FALSE
            X509v3 Subject Key Identifier: 
                FD:23:65:D7:87:75:36:BB:FE:CB:3A:68:6B:E7:E5:0C:82:7C:35:08
            X509v3 Authority Key Identifier: 
                keyid:49:8E:0D:D4:F3:0A:A4:B9:DE:52:2F:AD:E0:7D:58:49:F4:84:E6:C8
                DirName:/CN=team143-net
                serial:5A:AC:FC:7F:E2:C5:F4:33:13:60:12:B5:9B:D2:76:BA:0D:85:0B:F9

            X509v3 Extended Key Usage: 
                TLS Web Server Authentication
            X509v3 Key Usage: 
                Digital Signature, Key Encipherment
            X509v3 Subject Alternative Name: 
                DNS:team143-server
    Signature Algorithm: sha256WithRSAEncryption
         c6:e5:da:ef:19:0b:72:6a:d6:62:01:c7:93:c9:14:f1:86:34:
         37:e4:2c:65:3d:7c:a1:40:2a:1b:22:21:62:2a:4c:20:b8:33:
         20:77:86:6f:f8:4d:e7:c7:7c:16:90:7a:2e:92:cb:88:06:d4:
         ac:ce:e7:11:66:7e:d8:7e:28:e4:b5:b6:c0:77:a3:4b:16:d8:
         04:e0:ab:ce:34:0f:f5:74:d4:6c:c3:82:64:d8:8d:79:ae:02:
         96:75:c9:ad:b8:f0:b9:85:18:9e:50:a3:2c:f9:98:ed:b2:b1:
         31:34:ef:71:86:b0:bd:1e:eb:8c:31:e3:88:67:94:e8:44:7b:
         ca:f6:2b:3e:1d:9c:5d:8e:8d:ff:8e:ce:de:23:ea:07:fd:9b:
         48:01:a8:9c:c5:45:44:2d:81:ea:82:d3:43:75:51:05:ea:ab:
         f6:ea:94:4b:c1:b0:41:46:5c:87:ce:4d:40:9d:a7:34:14:25:
         4f:67:0b:4e:6f:ea:57:9f:86:eb:cc:77:41:61:a4:c3:af:9a:
         60:6f:a1:09:1e:b5:ef:31:9f:f6:08:d7:50:37:29:e7:38:19:
         da:24:b5:e9:e2:17:10:5c:23:df:8b:3c:78:e3:db:d3:38:2b:
         03:21:95:57:fb:75:65:2d:00:14:db:e1:b2:d8:e2:ae:cc:e7:
         98:dd:93:68
-----BEGIN CERTIFICATE-----
MIIDeDCCAmCgAwIBAgIRAPupN3uXI7veltcUuqGyin0wDQYJKoZIhvcNAQELBQAw
FjEUMBIGA1UEAwwLdGVhbTE0My1uZXQwHhcNMjIwNTE4MTgzNTQ3WhcNMjUwNTAy
MTgzNTQ3WjAZMRcwFQYDVQQDDA50ZWFtMTQzLXNlcnZlcjCCASIwDQYJKoZIhvcN
AQEBBQADggEPADCCAQoCggEBAL0d803SOKQxH2p0Mluv7tB0qcO0yRR+b4RuxErl
6CVeocHLpbGlSxxRjNA4nAZ9K09ZcW4edfU58NcwKRc7SdLEyxVQhTQXJlWMmoC1
2zcukVBVrTZ5ohi2JNub1UeNEJpm9s+cQLkkhOr9ZiPAV/rc4DI3cLBgsaouVp1g
jSEudnYPL/eup96pXs+zCJgVd6fipErOrzY9FQ/BoILTXoHcY2NVpBI0RV9k/WnC
0aYnH3qTSi0vjE4WXhzxGHQlAW2AUBftJxLlZO7CdzbuYkvOIf1NDHEfJf3u+R0p
wbnRP8KCOhZ5fdk5BK36ohW3NpXj/UQeqwR5sOUmdH4qo2UCAwEAAaOBvTCBujAJ
BgNVHRMEAjAAMB0GA1UdDgQWBBT9I2XXh3U2u/7LOmhr5+UMgnw1CDBRBgNVHSME
SjBIgBRJjg3U8wqkud5SL63gfVhJ9ITmyKEapBgwFjEUMBIGA1UEAwwLdGVhbTE0
My1uZXSCFFqs/H/ixfQzE2AStZvSdroNhQv5MBMGA1UdJQQMMAoGCCsGAQUFBwMB
MAsGA1UdDwQEAwIFoDAZBgNVHREEEjAQgg50ZWFtMTQzLXNlcnZlcjANBgkqhkiG
9w0BAQsFAAOCAQEAxuXa7xkLcmrWYgHHk8kU8YY0N+QsZT18oUAqGyIhYipMILgz
IHeGb/hN58d8FpB6LpLLiAbUrM7nEWZ+2H4o5LW2wHejSxbYBOCrzjQP9XTUbMOC
ZNiNea4ClnXJrbjwuYUYnlCjLPmY7bKxMTTvcYawvR7rjDHjiGeU6ER7yvYrPh2c
XY6N/47O3iPqB/2bSAGonMVFRC2B6oLTQ3VRBeqr9uqUS8GwQUZch85NQJ2nNBQl
T2cLTm/qV5+G68x3QWGkw6+aYG+hCR617zGf9gjXUDcp5zgZ2iS16eIXEFwj34s8
eOPb0zgrAyGVV/t1ZS0AFNvhstjirsznmN2TaA==
-----END CERTIFICATE-----
