Certificate:
    Data:
        Version: 3 (0x2)
        Serial Number:
            7c:29:fe:9f:12:ff:5f:6d:5d:1f:f8:ea:a9:00:a5:6f
        Signature Algorithm: sha256WithRSAEncryption
        Issuer: CN=team418-net
        Validity
            Not Before: May 18 21:00:48 2022 GMT
            Not After : May  2 21:00:48 2025 GMT
        Subject: CN=team418-client
        Subject Public Key Info:
            Public Key Algorithm: rsaEncryption
                RSA Public-Key: (2048 bit)
                Modulus:
                    00:c4:0a:bb:f5:07:c1:96:eb:db:8b:b9:b0:5e:dc:
                    e0:22:f0:70:c3:80:5a:f2:07:d5:96:80:7b:63:6e:
                    3a:f6:bb:4e:89:98:4f:f6:3b:7f:5f:50:a3:01:b8:
                    a4:d3:d7:de:53:57:f1:c9:99:62:05:09:e4:3b:f9:
                    43:d9:80:a3:2b:e3:87:8e:72:03:5c:20:fa:0b:35:
                    ba:0f:f6:2c:a3:32:f5:0b:d1:62:dc:72:7d:54:4d:
                    f6:6c:15:da:39:a8:0f:49:19:54:5a:e6:2f:06:22:
                    c1:e5:05:32:94:41:94:7a:a9:09:48:49:aa:72:e4:
                    57:62:d5:63:cc:cc:72:b0:31:fa:94:df:3a:64:fd:
                    42:9d:07:65:87:a0:ca:4b:52:06:74:5b:ce:d3:6c:
                    d7:97:8f:6d:ae:fa:c7:66:8d:96:5f:7a:f0:96:52:
                    bf:d5:ca:b5:bc:09:0a:76:ab:b7:ee:73:be:23:b7:
                    0b:59:10:68:36:ce:88:24:f5:f2:ae:50:79:cc:85:
                    39:c0:45:47:e7:c0:1c:bd:d7:42:0b:0f:10:03:8f:
                    3f:7a:69:91:a0:65:8c:6e:96:c9:a0:e9:1a:47:3a:
                    51:8b:e7:e7:36:2b:db:22:82:0b:59:fa:d0:d3:83:
                    30:f8:08:56:b1:97:1f:63:53:48:cd:15:9e:a6:c3:
                    3d:09
                Exponent: 65537 (0x10001)
        X509v3 extensions:
            X509v3 Basic Constraints: 
                CA:FALSE
            X509v3 Subject Key Identifier: 
                97:D5:F3:FF:B5:49:DA:19:05:D5:45:A0:AE:52:33:16:F0:98:DC:DE
            X509v3 Authority Key Identifier: 
                keyid:38:64:47:C1:B7:1E:11:18:00:C4:DB:61:5F:99:4D:D6:A4:E2:E3:50
                DirName:/CN=team418-net
                serial:43:21:89:D4:3A:4A:A8:D1:79:F0:2D:3E:8A:72:80:44:DD:EF:74:F8

            X509v3 Extended Key Usage: 
                TLS Web Client Authentication
            X509v3 Key Usage: 
                Digital Signature
    Signature Algorithm: sha256WithRSAEncryption
         77:c3:80:75:47:e6:fb:4e:8e:3a:3f:c0:c0:d8:16:e4:1f:30:
         1e:68:65:41:2c:00:19:1d:56:d5:d2:23:8e:c7:69:d3:67:c9:
         96:53:8f:23:6c:db:c7:fc:29:18:3d:da:eb:67:38:7a:c9:ae:
         03:e0:6e:98:ae:9b:00:18:d0:4c:cd:99:6c:31:91:28:c0:0f:
         d2:0e:b9:cd:92:14:19:0f:98:44:5b:0a:9c:b8:9c:71:8e:9a:
         68:bf:d6:5c:7a:51:4f:59:9b:a3:47:62:d5:25:05:1e:58:62:
         8f:60:05:82:9a:ec:16:55:8d:7f:5e:f4:fd:b5:8d:c2:7a:98:
         a3:ab:ec:c3:d4:ae:e3:6c:e8:22:21:80:39:f4:f4:27:4b:88:
         b8:07:87:4e:a7:c7:c7:da:70:17:70:d0:e1:7a:63:ed:0e:b7:
         6b:1f:70:6f:3f:0d:4c:74:80:ec:94:57:e5:27:7f:0e:a7:a4:
         f6:a3:07:a9:62:0e:da:04:2b:93:df:fc:53:6d:63:9f:4b:3e:
         5f:d0:8c:84:2d:0f:26:47:eb:e2:69:74:03:8d:94:c7:64:21:
         8f:cb:aa:37:f2:2e:79:20:6e:2f:7b:8c:95:a6:5f:e0:28:eb:
         07:e3:e9:37:ba:f0:a5:86:79:55:35:1c:57:91:2f:af:a0:2a:
         e9:10:a4:e1
-----BEGIN CERTIFICATE-----
MIIDXDCCAkSgAwIBAgIQfCn+nxL/X21dH/jqqQClbzANBgkqhkiG9w0BAQsFADAW
MRQwEgYDVQQDDAt0ZWFtNDE4LW5ldDAeFw0yMjA1MTgyMTAwNDhaFw0yNTA1MDIy
MTAwNDhaMBkxFzAVBgNVBAMMDnRlYW00MTgtY2xpZW50MIIBIjANBgkqhkiG9w0B
AQEFAAOCAQ8AMIIBCgKCAQEAxAq79QfBluvbi7mwXtzgIvBww4Ba8gfVloB7Y246
9rtOiZhP9jt/X1CjAbik09feU1fxyZliBQnkO/lD2YCjK+OHjnIDXCD6CzW6D/Ys
ozL1C9Fi3HJ9VE32bBXaOagPSRlUWuYvBiLB5QUylEGUeqkJSEmqcuRXYtVjzMxy
sDH6lN86ZP1CnQdlh6DKS1IGdFvO02zXl49trvrHZo2WX3rwllK/1cq1vAkKdqu3
7nO+I7cLWRBoNs6IJPXyrlB5zIU5wEVH58AcvddCCw8QA48/emmRoGWMbpbJoOka
RzpRi+fnNivbIoILWfrQ04Mw+AhWsZcfY1NIzRWepsM9CQIDAQABo4GiMIGfMAkG
A1UdEwQCMAAwHQYDVR0OBBYEFJfV8/+1SdoZBdVFoK5SMxbwmNzeMFEGA1UdIwRK
MEiAFDhkR8G3HhEYAMTbYV+ZTdak4uNQoRqkGDAWMRQwEgYDVQQDDAt0ZWFtNDE4
LW5ldIIUQyGJ1DpKqNF58C0+inKARN3vdPgwEwYDVR0lBAwwCgYIKwYBBQUHAwIw
CwYDVR0PBAQDAgeAMA0GCSqGSIb3DQEBCwUAA4IBAQB3w4B1R+b7To46P8DA2Bbk
HzAeaGVBLAAZHVbV0iOOx2nTZ8mWU48jbNvH/CkYPdrrZzh6ya4D4G6YrpsAGNBM
zZlsMZEowA/SDrnNkhQZD5hEWwqcuJxxjppov9ZcelFPWZujR2LVJQUeWGKPYAWC
muwWVY1/XvT9tY3Cepijq+zD1K7jbOgiIYA59PQnS4i4B4dOp8fH2nAXcNDhemPt
DrdrH3BvPw1MdIDslFflJ38Op6T2owepYg7aBCuT3/xTbWOfSz5f0IyELQ8mR+vi
aXQDjZTHZCGPy6o38i55IG4ve4yVpl/gKOsH4+k3uvClhnlVNRxXkS+voCrpEKTh
-----END CERTIFICATE-----
