Certificate:
    Data:
        Version: 3 (0x2)
        Serial Number:
            a2:8a:9d:23:e0:d7:14:84:87:91:70:2e:4a:d6:74:ab
        Signature Algorithm: sha256WithRSAEncryption
        Issuer: CN=team85-net
        Validity
            Not Before: May 18 14:39:21 2022 GMT
            Not After : May  2 14:39:21 2025 GMT
        Subject: CN=team85-client
        Subject Public Key Info:
            Public Key Algorithm: rsaEncryption
                RSA Public-Key: (2048 bit)
                Modulus:
                    00:bd:90:7f:c5:01:1f:50:83:30:d1:95:2e:82:4d:
                    6a:11:2d:b4:84:23:df:bf:b7:ae:01:3b:57:ec:2f:
                    11:fb:fc:0e:f0:07:eb:2e:e2:97:0c:83:29:b7:b9:
                    fa:62:1f:2d:ac:ce:b6:8b:93:bf:a6:77:ca:a2:bb:
                    ae:69:2a:5c:3f:b0:d0:da:96:4a:49:69:2d:b8:97:
                    1c:ae:3f:7c:ba:d0:75:10:9c:6b:08:ca:69:5e:ad:
                    ee:e1:f8:54:76:70:5e:a0:9d:73:49:18:93:95:9a:
                    1f:46:13:19:96:ad:8f:be:98:cd:81:c5:0c:f0:17:
                    17:b0:40:42:83:ac:d9:55:aa:7e:c7:87:7c:e2:52:
                    d0:6a:b5:21:93:08:3a:f2:db:39:74:c8:07:d9:30:
                    1e:92:d2:a5:c0:36:cf:22:a9:0f:86:f7:b4:67:ec:
                    a7:2e:43:67:64:fc:28:64:37:65:af:43:3d:cd:95:
                    93:47:80:5c:89:3d:33:3a:a5:e6:40:0c:a7:f5:97:
                    8d:fe:87:34:71:90:c9:fa:6f:10:a8:b7:98:ca:c6:
                    27:ec:2e:81:f4:fd:86:c6:36:77:eb:ef:d0:0e:f0:
                    40:30:2a:57:2b:86:c3:1a:d0:ba:11:54:9f:6a:ef:
                    58:ef:e2:97:fb:c0:b1:aa:34:bf:f5:d9:e6:0c:7e:
                    fc:5d
                Exponent: 65537 (0x10001)
        X509v3 extensions:
            X509v3 Basic Constraints: 
                CA:FALSE
            X509v3 Subject Key Identifier: 
                21:41:54:EF:9C:AD:31:F5:05:1A:70:CC:E4:34:23:B1:50:26:4C:B5
            X509v3 Authority Key Identifier: 
                keyid:AC:09:31:D1:8C:96:2E:5B:EE:89:F7:75:0F:32:23:F0:6F:04:53:09
                DirName:/CN=team85-net
                serial:12:86:D6:A3:EB:E5:AC:B2:B8:63:67:FF:CA:E8:4F:8A:6A:52:12:CF

            X509v3 Extended Key Usage: 
                TLS Web Client Authentication
            X509v3 Key Usage: 
                Digital Signature
    Signature Algorithm: sha256WithRSAEncryption
         86:07:84:76:9b:63:e7:b6:e2:8f:a0:10:32:ad:be:b9:6e:d8:
         1d:4e:3c:a4:34:10:a0:8e:d4:9e:43:3e:f5:95:d1:80:02:bb:
         13:66:82:4b:bd:8c:ec:81:14:28:c5:53:b2:a3:8f:7f:f1:56:
         96:ea:97:30:46:17:1b:c6:ee:8c:7f:2c:39:e0:7d:c1:2e:35:
         82:4b:ce:86:58:fe:99:90:fd:a4:67:94:45:ba:99:5c:b7:5b:
         f9:ba:9c:d1:6f:62:b7:02:4e:a7:fd:ef:c7:78:5b:4e:33:14:
         37:91:84:ff:cf:6d:d8:e8:09:bd:81:94:89:64:be:61:e0:81:
         74:07:18:32:67:db:2c:15:ea:37:51:12:fb:38:5a:30:fe:0a:
         0d:76:12:08:61:69:08:ef:12:38:8d:e9:d1:f3:46:5c:ed:b9:
         20:81:7e:f5:41:f8:88:a7:3e:86:4c:0f:b8:c6:c8:50:9c:b5:
         40:28:38:0a:5e:67:a2:06:ac:6f:83:cb:59:39:c8:f4:0e:f6:
         6a:01:90:d4:2e:eb:a5:46:7f:bd:ef:ee:9a:d1:f5:99:35:e5:
         81:62:ae:fa:e0:74:74:aa:32:32:9f:b9:7f:d4:7b:26:dc:2d:
         81:cd:0e:12:19:5b:1c:b9:0b:17:ee:75:e4:be:3b:b7:2b:d1:
         55:29:11:6c
-----BEGIN CERTIFICATE-----
MIIDWjCCAkKgAwIBAgIRAKKKnSPg1xSEh5FwLkrWdKswDQYJKoZIhvcNAQELBQAw
FTETMBEGA1UEAwwKdGVhbTg1LW5ldDAeFw0yMjA1MTgxNDM5MjFaFw0yNTA1MDIx
NDM5MjFaMBgxFjAUBgNVBAMMDXRlYW04NS1jbGllbnQwggEiMA0GCSqGSIb3DQEB
AQUAA4IBDwAwggEKAoIBAQC9kH/FAR9QgzDRlS6CTWoRLbSEI9+/t64BO1fsLxH7
/A7wB+su4pcMgym3ufpiHy2szraLk7+md8qiu65pKlw/sNDalkpJaS24lxyuP3y6
0HUQnGsIymlere7h+FR2cF6gnXNJGJOVmh9GExmWrY++mM2BxQzwFxewQEKDrNlV
qn7Hh3ziUtBqtSGTCDry2zl0yAfZMB6S0qXANs8iqQ+G97Rn7KcuQ2dk/ChkN2Wv
Qz3NlZNHgFyJPTM6peZADKf1l43+hzRxkMn6bxCot5jKxifsLoH0/YbGNnfr79AO
8EAwKlcrhsMa0LoRVJ9q71jv4pf7wLGqNL/12eYMfvxdAgMBAAGjgaEwgZ4wCQYD
VR0TBAIwADAdBgNVHQ4EFgQUIUFU75ytMfUFGnDM5DQjsVAmTLUwUAYDVR0jBEkw
R4AUrAkx0YyWLlvuifd1DzIj8G8EUwmhGaQXMBUxEzARBgNVBAMMCnRlYW04NS1u
ZXSCFBKG1qPr5ayyuGNn/8roT4pqUhLPMBMGA1UdJQQMMAoGCCsGAQUFBwMCMAsG
A1UdDwQEAwIHgDANBgkqhkiG9w0BAQsFAAOCAQEAhgeEdptj57bij6AQMq2+uW7Y
HU48pDQQoI7UnkM+9ZXRgAK7E2aCS72M7IEUKMVTsqOPf/FWluqXMEYXG8bujH8s
OeB9wS41gkvOhlj+mZD9pGeURbqZXLdb+bqc0W9itwJOp/3vx3hbTjMUN5GE/89t
2OgJvYGUiWS+YeCBdAcYMmfbLBXqN1ES+zhaMP4KDXYSCGFpCO8SOI3p0fNGXO25
IIF+9UH4iKc+hkwPuMbIUJy1QCg4Cl5nogasb4PLWTnI9A72agGQ1C7rpUZ/ve/u
mtH1mTXlgWKu+uB0dKoyMp+5f9R7Jtwtgc0OEhlbHLkLF+515L47tyvRVSkRbA==
-----END CERTIFICATE-----
