Certificate:
    Data:
        Version: 3 (0x2)
        Serial Number:
            59:ee:5b:f5:aa:9c:a3:7a:9e:50:bb:95:03:2b:e4:89
        Signature Algorithm: sha256WithRSAEncryption
        Issuer: CN=team634-net
        Validity
            Not Before: May 18 23:08:39 2022 GMT
            Not After : May  2 23:08:39 2025 GMT
        Subject: CN=team634-server
        Subject Public Key Info:
            Public Key Algorithm: rsaEncryption
                RSA Public-Key: (2048 bit)
                Modulus:
                    00:b7:d5:e9:45:02:78:9b:2f:40:93:21:2d:69:54:
                    b8:4c:92:63:17:6c:b0:5c:0b:6c:25:2b:38:3a:e9:
                    c8:80:bb:7b:a2:ca:bc:23:92:35:da:61:b8:9e:0c:
                    a0:e5:f4:a7:03:09:3c:eb:39:5d:25:b0:45:d9:42:
                    59:5a:4e:54:9f:51:55:13:3e:13:13:94:7b:dc:02:
                    58:11:c0:94:cc:11:44:ac:bd:f1:a9:b4:d9:00:6c:
                    d6:fc:dc:96:5b:29:c1:ed:b7:6a:dd:fb:36:05:7a:
                    cd:34:cc:a0:c2:ee:6c:bd:8c:eb:6a:c1:33:32:69:
                    5b:ae:05:1f:09:b6:60:76:60:56:0c:29:be:b3:fe:
                    e7:39:56:a7:c2:5c:52:a8:f0:76:fc:b7:b5:9e:56:
                    cf:a5:62:a1:22:79:60:63:da:d0:5c:92:b2:0a:72:
                    55:3e:3c:cd:1c:ae:e9:b2:b1:c4:b3:c1:28:8f:41:
                    8a:1d:8e:15:06:8e:5d:f8:64:32:62:c7:32:12:64:
                    be:f7:e6:3f:dd:8f:fb:af:7b:05:ee:17:37:50:11:
                    ec:d1:61:33:26:f8:d1:cc:6e:2a:3e:05:20:e5:b1:
                    dc:28:6a:74:ba:e1:01:41:73:45:1e:ce:f2:88:e8:
                    5b:47:18:74:5a:5b:9b:c5:11:f2:69:1d:1e:bb:35:
                    e7:cf
                Exponent: 65537 (0x10001)
        X509v3 extensions:
            X509v3 Basic Constraints: 
                CA:FALSE
            X509v3 Subject Key Identifier: 
                96:F8:19:B5:7E:1A:E0:45:ED:88:55:3E:FF:53:48:C9:A2:26:45:4D
            X509v3 Authority Key Identifier: 
                keyid:0B:18:70:31:46:88:8B:57:0C:5B:B1:B4:65:74:F7:AF:5A:23:5E:C5
                DirName:/CN=team634-net
                serial:43:29:D8:48:EA:9B:32:FA:25:F5:31:C1:CA:EB:5F:20:F0:89:54:7B

            X509v3 Extended Key Usage: 
                TLS Web Server Authentication
            X509v3 Key Usage: 
                Digital Signature, Key Encipherment
            X509v3 Subject Alternative Name: 
                DNS:team634-server
    Signature Algorithm: sha256WithRSAEncryption
         61:6c:a2:82:5e:50:f9:b6:f4:6b:36:06:d9:30:60:07:f5:74:
         63:53:2e:f1:57:c3:a7:05:5d:c5:46:8f:8e:d5:1f:1d:8e:09:
         fc:ad:84:2e:6a:52:91:25:aa:2d:80:9f:fe:4d:42:b7:fe:d2:
         1c:31:b9:72:2c:20:2d:0d:ca:af:87:f8:6e:71:ed:f9:d6:04:
         33:fd:ac:0d:cf:ff:2d:de:e5:b9:3a:09:fa:6d:06:c3:15:c0:
         f7:c5:02:e3:c4:1c:54:09:17:84:ef:e3:f6:bd:99:8a:0c:1e:
         c9:ad:38:96:c2:8a:22:6b:fe:8c:b6:1b:73:8b:57:04:e3:48:
         53:da:1e:ff:b1:2a:41:dc:be:e5:66:e9:fc:b6:46:a8:0f:38:
         d4:c9:75:d1:8b:7b:0a:d3:e3:a8:95:87:6b:c0:f0:2d:2c:d1:
         0d:ce:82:0d:cf:1f:a1:1b:ca:60:f3:03:46:cc:dd:8b:60:fc:
         b0:09:3a:d7:31:ab:be:7d:9d:d4:52:ef:9b:94:a1:7a:75:33:
         a4:e4:cc:6e:40:67:bb:a0:9c:46:7e:de:4f:cb:5e:eb:fc:ce:
         7e:46:67:de:7d:5e:74:83:96:03:57:11:3c:7a:3c:a5:94:2d:
         c5:62:98:2c:56:b7:e7:11:af:ad:0a:a4:ea:b4:16:0c:9b:62:
         73:56:62:86
-----BEGIN CERTIFICATE-----
MIIDdzCCAl+gAwIBAgIQWe5b9aqco3qeULuVAyvkiTANBgkqhkiG9w0BAQsFADAW
MRQwEgYDVQQDDAt0ZWFtNjM0LW5ldDAeFw0yMjA1MTgyMzA4MzlaFw0yNTA1MDIy
MzA4MzlaMBkxFzAVBgNVBAMMDnRlYW02MzQtc2VydmVyMIIBIjANBgkqhkiG9w0B
AQEFAAOCAQ8AMIIBCgKCAQEAt9XpRQJ4my9AkyEtaVS4TJJjF2ywXAtsJSs4OunI
gLt7osq8I5I12mG4ngyg5fSnAwk86zldJbBF2UJZWk5Un1FVEz4TE5R73AJYEcCU
zBFErL3xqbTZAGzW/NyWWynB7bdq3fs2BXrNNMygwu5svYzrasEzMmlbrgUfCbZg
dmBWDCm+s/7nOVanwlxSqPB2/Le1nlbPpWKhInlgY9rQXJKyCnJVPjzNHK7psrHE
s8Eoj0GKHY4VBo5d+GQyYscyEmS+9+Y/3Y/7r3sF7hc3UBHs0WEzJvjRzG4qPgUg
5bHcKGp0uuEBQXNFHs7yiOhbRxh0WlubxRHyaR0euzXnzwIDAQABo4G9MIG6MAkG
A1UdEwQCMAAwHQYDVR0OBBYEFJb4GbV+GuBF7YhVPv9TSMmiJkVNMFEGA1UdIwRK
MEiAFAsYcDFGiItXDFuxtGV0969aI17FoRqkGDAWMRQwEgYDVQQDDAt0ZWFtNjM0
LW5ldIIUQynYSOqbMvol9THByutfIPCJVHswEwYDVR0lBAwwCgYIKwYBBQUHAwEw
CwYDVR0PBAQDAgWgMBkGA1UdEQQSMBCCDnRlYW02MzQtc2VydmVyMA0GCSqGSIb3
DQEBCwUAA4IBAQBhbKKCXlD5tvRrNgbZMGAH9XRjUy7xV8OnBV3FRo+O1R8djgn8
rYQualKRJaotgJ/+TUK3/tIcMblyLCAtDcqvh/huce351gQz/awNz/8t3uW5Ogn6
bQbDFcD3xQLjxBxUCReE7+P2vZmKDB7JrTiWwooia/6Mthtzi1cE40hT2h7/sSpB
3L7lZun8tkaoDzjUyXXRi3sK0+OolYdrwPAtLNENzoINzx+hG8pg8wNGzN2LYPyw
CTrXMau+fZ3UUu+blKF6dTOk5MxuQGe7oJxGft5Py17r/M5+RmfefV50g5YDVxE8
ejyllC3FYpgsVrfnEa+tCqTqtBYMm2JzVmKG
-----END CERTIFICATE-----
