Certificate:
    Data:
        Version: 3 (0x2)
        Serial Number:
            cd:a7:20:4a:80:0c:fb:1e:f2:02:ae:6e:6a:9e:b7:eb
        Signature Algorithm: sha256WithRSAEncryption
        Issuer: CN=team366-net
        Validity
            Not Before: May 18 20:46:01 2022 GMT
            Not After : May  2 20:46:01 2025 GMT
        Subject: CN=team366-server
        Subject Public Key Info:
            Public Key Algorithm: rsaEncryption
                RSA Public-Key: (2048 bit)
                Modulus:
                    00:db:bb:b3:c5:f4:79:16:de:72:5d:d7:6f:1d:a1:
                    4d:93:1b:0f:d7:ac:eb:69:2c:9c:6b:b4:ab:b7:52:
                    63:4f:17:e6:a8:8f:59:72:98:23:64:90:d5:44:51:
                    54:b3:ce:f2:f3:83:bf:29:9e:0d:8b:a1:d7:33:25:
                    dc:5d:cf:e3:c6:e3:07:10:66:ad:72:2f:cf:64:79:
                    ea:52:d9:e3:a5:8e:80:94:98:95:e7:6f:fa:f6:e3:
                    0d:a0:0e:d8:a4:93:e2:0f:99:d9:41:13:a6:99:2a:
                    69:ba:35:e0:93:27:d6:36:c9:f6:f3:bb:61:b9:d5:
                    b3:bc:96:62:73:80:20:97:78:5a:7f:24:0c:2a:5a:
                    48:57:85:9d:bb:9e:2f:fc:77:ef:73:28:b4:3a:00:
                    88:f0:04:d1:8d:e4:3d:7d:48:df:9c:85:38:ac:29:
                    d4:e8:98:e4:5e:11:b5:13:06:aa:29:45:43:3d:e9:
                    64:f5:a8:1a:d0:b4:14:08:27:78:5d:4d:01:f5:c4:
                    0b:8d:b3:65:ec:18:13:5e:3d:ca:6b:16:68:c3:e6:
                    53:6c:94:2f:d6:4d:e9:b8:16:04:4e:8b:e0:f9:8c:
                    91:11:c5:b8:45:2a:be:87:57:a5:4c:7b:b6:06:36:
                    46:13:8d:fa:0d:2b:b9:85:ec:c7:f1:b2:c4:9b:fa:
                    93:f1
                Exponent: 65537 (0x10001)
        X509v3 extensions:
            X509v3 Basic Constraints: 
                CA:FALSE
            X509v3 Subject Key Identifier: 
                CE:40:49:62:E5:90:59:A4:91:99:99:0E:45:5C:0C:1B:58:CB:90:17
            X509v3 Authority Key Identifier: 
                keyid:F5:96:B8:52:FE:1A:94:E2:95:07:F2:10:12:8D:6F:0B:B3:6A:BD:4D
                DirName:/CN=team366-net
                serial:56:EE:F3:61:C9:30:CE:43:62:A7:2D:9D:C1:D2:D4:82:F4:69:D3:5A

            X509v3 Extended Key Usage: 
                TLS Web Server Authentication
            X509v3 Key Usage: 
                Digital Signature, Key Encipherment
            X509v3 Subject Alternative Name: 
                DNS:team366-server
    Signature Algorithm: sha256WithRSAEncryption
         43:79:03:95:76:ac:6e:b3:5f:d3:4c:62:c3:47:92:52:b6:be:
         89:b3:7c:c6:66:0b:aa:3c:a4:ac:e0:7d:6c:b6:3f:4a:25:47:
         70:50:af:62:2c:2a:c5:f6:8e:1f:f3:e8:24:ba:89:27:36:27:
         c4:c8:16:0d:00:1d:1e:68:dc:b9:2f:f9:37:de:ac:af:1c:5f:
         9e:34:fc:ee:f4:1f:fb:e8:40:91:b0:71:24:e8:57:cd:0f:36:
         3a:68:c4:2d:10:66:a4:d8:53:21:c3:91:eb:38:df:eb:6e:ec:
         fc:fc:e4:f8:e4:90:1c:22:b5:29:ae:51:7e:96:26:4b:5c:d9:
         09:5f:47:c3:97:ba:73:55:b8:3e:b6:af:12:68:24:3d:0d:cb:
         48:64:b9:18:20:50:1c:4b:1e:0f:a7:bc:c9:e0:64:8a:56:a9:
         8d:3a:ab:e3:1f:f9:4b:09:2a:d2:06:29:41:43:cc:49:c5:06:
         c0:70:2f:0c:89:7e:90:89:15:5c:28:d4:41:9b:51:8d:18:b8:
         aa:02:24:18:58:47:ad:a1:5b:f7:39:30:7b:3c:a2:3e:b0:4c:
         96:0f:80:fe:e0:ab:6c:b3:3a:53:2f:96:cf:00:5b:01:50:9e:
         06:94:81:f4:7e:12:2c:30:51:a1:4e:67:02:c5:52:30:b7:45:
         01:62:8f:2d
-----BEGIN CERTIFICATE-----
MIIDeDCCAmCgAwIBAgIRAM2nIEqADPse8gKubmqet+swDQYJKoZIhvcNAQELBQAw
FjEUMBIGA1UEAwwLdGVhbTM2Ni1uZXQwHhcNMjIwNTE4MjA0NjAxWhcNMjUwNTAy
MjA0NjAxWjAZMRcwFQYDVQQDDA50ZWFtMzY2LXNlcnZlcjCCASIwDQYJKoZIhvcN
AQEBBQADggEPADCCAQoCggEBANu7s8X0eRbecl3Xbx2hTZMbD9es62ksnGu0q7dS
Y08X5qiPWXKYI2SQ1URRVLPO8vODvymeDYuh1zMl3F3P48bjBxBmrXIvz2R56lLZ
46WOgJSYledv+vbjDaAO2KST4g+Z2UETppkqabo14JMn1jbJ9vO7YbnVs7yWYnOA
IJd4Wn8kDCpaSFeFnbueL/x373MotDoAiPAE0Y3kPX1I35yFOKwp1OiY5F4RtRMG
qilFQz3pZPWoGtC0FAgneF1NAfXEC42zZewYE149ymsWaMPmU2yUL9ZN6bgWBE6L
4PmMkRHFuEUqvodXpUx7tgY2RhON+g0ruYXsx/GyxJv6k/ECAwEAAaOBvTCBujAJ
BgNVHRMEAjAAMB0GA1UdDgQWBBTOQEli5ZBZpJGZmQ5FXAwbWMuQFzBRBgNVHSME
SjBIgBT1lrhS/hqU4pUH8hASjW8Ls2q9TaEapBgwFjEUMBIGA1UEAwwLdGVhbTM2
Ni1uZXSCFFbu82HJMM5DYqctncHS1IL0adNaMBMGA1UdJQQMMAoGCCsGAQUFBwMB
MAsGA1UdDwQEAwIFoDAZBgNVHREEEjAQgg50ZWFtMzY2LXNlcnZlcjANBgkqhkiG
9w0BAQsFAAOCAQEAQ3kDlXasbrNf00xiw0eSUra+ibN8xmYLqjykrOB9bLY/SiVH
cFCvYiwqxfaOH/PoJLqJJzYnxMgWDQAdHmjcuS/5N96srxxfnjT87vQf++hAkbBx
JOhXzQ82OmjELRBmpNhTIcOR6zjf627s/Pzk+OSQHCK1Ka5RfpYmS1zZCV9Hw5e6
c1W4PravEmgkPQ3LSGS5GCBQHEseD6e8yeBkilapjTqr4x/5Swkq0gYpQUPMScUG
wHAvDIl+kIkVXCjUQZtRjRi4qgIkGFhHraFb9zkwezyiPrBMlg+A/uCrbLM6Uy+W
zwBbAVCeBpSB9H4SLDBRoU5nAsVSMLdFAWKPLQ==
-----END CERTIFICATE-----
