Certificate:
    Data:
        Version: 3 (0x2)
        Serial Number:
            1e:c5:f8:15:82:4f:3f:5f:ef:9c:25:59:92:4b:42:ab
        Signature Algorithm: sha256WithRSAEncryption
        Issuer: CN=team310-net
        Validity
            Not Before: May 18 20:14:28 2022 GMT
            Not After : May  2 20:14:28 2025 GMT
        Subject: CN=team310-server
        Subject Public Key Info:
            Public Key Algorithm: rsaEncryption
                RSA Public-Key: (2048 bit)
                Modulus:
                    00:c8:2f:ce:c1:b1:9d:31:6a:20:92:cf:40:6c:4b:
                    2d:3d:95:87:d7:06:94:18:f1:aa:f3:5f:9e:49:53:
                    f0:c7:67:8a:71:da:d5:b3:8c:cf:34:9e:a8:cc:9b:
                    00:b5:ab:d0:99:bd:c6:bc:d2:49:84:ed:46:47:72:
                    88:7c:9c:2a:5d:1e:7d:33:06:b2:88:a7:64:f0:1e:
                    09:da:aa:d2:6d:ec:f6:f1:93:f2:50:16:bb:aa:0f:
                    d0:03:cb:c2:5f:72:a0:d2:61:1f:3c:a2:33:d7:42:
                    4c:81:de:53:68:ad:f5:71:d6:3d:1d:1a:07:89:c0:
                    5d:9e:a3:d9:be:2a:f0:0a:e5:b2:87:ed:b1:0b:27:
                    09:9b:41:9e:e0:5b:81:4f:8b:44:22:40:bf:4c:00:
                    6a:5e:1d:17:61:ea:7d:98:b1:6b:c0:5c:c3:66:53:
                    9c:5e:43:09:7c:68:ce:67:69:24:d1:cf:cb:0c:31:
                    1f:0b:b4:ea:66:15:e8:e3:84:de:6d:6c:7f:93:e9:
                    d7:ec:57:10:7b:78:0e:a5:e6:51:88:e4:54:95:05:
                    a9:a2:59:14:ae:dd:24:c6:37:e5:f0:bc:aa:a1:dc:
                    4e:26:86:31:0d:aa:56:26:dd:16:69:30:89:4c:24:
                    12:57:e6:9e:c2:01:af:38:b9:6a:b9:28:f1:66:5c:
                    6c:35
                Exponent: 65537 (0x10001)
        X509v3 extensions:
            X509v3 Basic Constraints: 
                CA:FALSE
            X509v3 Subject Key Identifier: 
                A2:66:23:C1:34:CB:4A:AA:3E:C3:6C:8A:1E:14:CC:11:88:06:1B:E5
            X509v3 Authority Key Identifier: 
                keyid:20:E3:12:EE:69:3F:55:16:D4:1A:7D:D1:E6:C3:F3:9E:DF:27:EA:D2
                DirName:/CN=team310-net
                serial:2B:AB:8B:84:E9:A6:01:F9:E1:1E:3A:1C:69:8B:7F:EA:4C:58:42:54

            X509v3 Extended Key Usage: 
                TLS Web Server Authentication
            X509v3 Key Usage: 
                Digital Signature, Key Encipherment
            X509v3 Subject Alternative Name: 
                DNS:team310-server
    Signature Algorithm: sha256WithRSAEncryption
         43:4b:b8:96:f0:61:33:bd:19:8d:35:8c:c1:71:46:a7:3c:64:
         14:af:e3:a2:89:6f:0c:45:19:39:d7:62:ff:df:e8:73:89:3b:
         9f:9e:9a:2b:14:21:9c:4a:5a:78:22:b8:38:40:af:9a:6c:cb:
         8c:ef:14:5f:e8:4a:8d:9a:79:1d:35:52:45:b6:c5:bb:45:f1:
         bc:b4:5c:87:21:a1:9e:9f:c7:d1:55:ba:0b:06:fe:e7:03:38:
         80:dd:7d:70:7c:31:0a:4e:5b:00:df:d3:5a:b5:f4:93:88:53:
         79:81:11:ad:b0:d1:81:f6:09:51:5c:fc:2e:7c:c3:a6:ba:0e:
         d5:a6:93:83:37:63:cc:60:b4:4d:89:70:32:3f:b5:e3:cf:20:
         53:83:93:27:33:ff:1d:43:9b:88:be:5b:86:7c:d1:f8:90:3b:
         ed:a8:c2:a4:7b:51:70:3c:d1:9f:ee:5c:00:9f:2a:5f:23:34:
         14:e4:f5:75:42:79:1e:3c:a7:4b:59:48:5e:3e:0a:11:cc:4d:
         a4:90:fc:9a:70:2e:d7:66:55:02:32:a7:69:f5:30:8c:93:0d:
         84:80:5b:d7:5c:96:55:97:c6:e8:aa:45:3c:c3:45:12:35:ba:
         c6:7b:73:70:85:03:18:a3:53:31:62:33:9f:7d:03:3a:ba:9a:
         82:a5:eb:a8
-----BEGIN CERTIFICATE-----
MIIDdzCCAl+gAwIBAgIQHsX4FYJPP1/vnCVZkktCqzANBgkqhkiG9w0BAQsFADAW
MRQwEgYDVQQDDAt0ZWFtMzEwLW5ldDAeFw0yMjA1MTgyMDE0MjhaFw0yNTA1MDIy
MDE0MjhaMBkxFzAVBgNVBAMMDnRlYW0zMTAtc2VydmVyMIIBIjANBgkqhkiG9w0B
AQEFAAOCAQ8AMIIBCgKCAQEAyC/OwbGdMWogks9AbEstPZWH1waUGPGq81+eSVPw
x2eKcdrVs4zPNJ6ozJsAtavQmb3GvNJJhO1GR3KIfJwqXR59MwayiKdk8B4J2qrS
bez28ZPyUBa7qg/QA8vCX3Kg0mEfPKIz10JMgd5TaK31cdY9HRoHicBdnqPZvirw
CuWyh+2xCycJm0Ge4FuBT4tEIkC/TABqXh0XYep9mLFrwFzDZlOcXkMJfGjOZ2kk
0c/LDDEfC7TqZhXo44TebWx/k+nX7FcQe3gOpeZRiORUlQWpolkUrt0kxjfl8Lyq
odxOJoYxDapWJt0WaTCJTCQSV+aewgGvOLlquSjxZlxsNQIDAQABo4G9MIG6MAkG
A1UdEwQCMAAwHQYDVR0OBBYEFKJmI8E0y0qqPsNsih4UzBGIBhvlMFEGA1UdIwRK
MEiAFCDjEu5pP1UW1Bp90ebD857fJ+rSoRqkGDAWMRQwEgYDVQQDDAt0ZWFtMzEw
LW5ldIIUK6uLhOmmAfnhHjocaYt/6kxYQlQwEwYDVR0lBAwwCgYIKwYBBQUHAwEw
CwYDVR0PBAQDAgWgMBkGA1UdEQQSMBCCDnRlYW0zMTAtc2VydmVyMA0GCSqGSIb3
DQEBCwUAA4IBAQBDS7iW8GEzvRmNNYzBcUanPGQUr+OiiW8MRRk512L/3+hziTuf
nporFCGcSlp4Irg4QK+abMuM7xRf6EqNmnkdNVJFtsW7RfG8tFyHIaGen8fRVboL
Bv7nAziA3X1wfDEKTlsA39NatfSTiFN5gRGtsNGB9glRXPwufMOmug7VppODN2PM
YLRNiXAyP7XjzyBTg5MnM/8dQ5uIvluGfNH4kDvtqMKke1FwPNGf7lwAnypfIzQU
5PV1QnkePKdLWUhePgoRzE2kkPyacC7XZlUCMqdp9TCMkw2EgFvXXJZVl8boqkU8
w0USNbrGe3NwhQMYo1MxYjOffQM6upqCpeuo
-----END CERTIFICATE-----
