Certificate:
    Data:
        Version: 3 (0x2)
        Serial Number:
            25:86:10:54:94:0b:56:74:56:f2:f8:f4:31:8c:8a:15
        Signature Algorithm: sha256WithRSAEncryption
        Issuer: CN=team713-net
        Validity
            Not Before: May 18 23:53:32 2022 GMT
            Not After : May  2 23:53:32 2025 GMT
        Subject: CN=team713-client
        Subject Public Key Info:
            Public Key Algorithm: rsaEncryption
                RSA Public-Key: (2048 bit)
                Modulus:
                    00:cc:3d:cb:50:d5:9d:4d:bc:26:f7:8d:7e:cc:25:
                    71:65:75:65:08:74:29:d0:f1:49:a8:99:60:8f:ee:
                    8b:fc:5e:3b:bf:9d:80:d0:dd:33:73:36:c0:c8:1f:
                    d1:6a:44:44:f8:e8:59:12:19:0e:26:08:b8:27:09:
                    66:81:b8:9e:b1:bd:89:67:79:83:1a:70:f9:9d:e9:
                    02:0f:0c:c8:c7:bb:82:59:a4:23:01:23:95:f2:34:
                    68:5a:de:6c:9e:7f:42:04:26:56:cd:6c:80:1f:24:
                    5e:ec:79:67:54:74:d2:37:76:bb:48:2b:93:ae:08:
                    dd:e2:61:e9:02:85:46:65:d5:ab:a0:32:d4:05:64:
                    01:35:3c:30:39:80:d4:ad:78:ff:77:81:87:4a:50:
                    25:56:9a:89:4b:77:15:ef:4e:33:98:c0:d8:a3:2a:
                    13:38:a9:4c:ab:fb:ff:8c:fc:b6:8e:f7:e6:b7:50:
                    44:f9:77:6e:fa:eb:a7:38:11:d4:1c:aa:01:8c:69:
                    e4:f8:e1:cc:71:75:be:58:48:21:ae:d4:10:51:14:
                    a1:8e:00:d3:6a:a8:3c:55:b7:40:52:1d:3e:0d:b0:
                    af:9f:50:18:9d:5f:7c:c2:74:fc:87:4b:df:10:c2:
                    20:f6:4a:51:d5:83:4a:33:d4:ea:80:c4:bb:a8:ed:
                    a6:93
                Exponent: 65537 (0x10001)
        X509v3 extensions:
            X509v3 Basic Constraints: 
                CA:FALSE
            X509v3 Subject Key Identifier: 
                8A:0B:D9:A6:B7:F5:64:AC:58:DC:68:36:29:D9:27:C0:DA:FE:30:97
            X509v3 Authority Key Identifier: 
                keyid:33:E3:86:76:7C:42:2A:35:7D:A4:B8:FD:EC:42:02:A2:10:80:BE:08
                DirName:/CN=team713-net
                serial:1A:92:9C:77:05:E7:CD:03:04:D2:17:DA:63:AD:E0:28:EE:F1:19:3E

            X509v3 Extended Key Usage: 
                TLS Web Client Authentication
            X509v3 Key Usage: 
                Digital Signature
    Signature Algorithm: sha256WithRSAEncryption
         60:d9:fc:a2:5e:68:bf:df:a5:64:4b:2e:e2:81:10:7a:07:25:
         70:50:2c:dd:f9:fd:c3:7f:ff:0b:23:ef:04:67:34:25:f3:cd:
         1e:63:35:41:8d:84:a5:af:9f:40:17:da:af:64:d1:49:89:2f:
         db:0c:af:ab:c0:87:79:2b:65:8c:cb:4a:6d:3a:1c:09:12:10:
         cc:72:97:06:c1:b7:8c:d0:fe:d5:65:1e:94:a8:ae:b2:71:cf:
         83:db:7c:b5:47:d9:d1:10:19:1e:de:eb:88:f1:63:2e:18:81:
         b3:09:9b:08:e4:37:31:ee:67:d7:fa:8a:14:67:1d:6f:f6:04:
         9f:28:f9:37:fe:1d:b4:1a:06:5a:57:c9:2d:1f:4e:9c:a0:e2:
         89:44:8a:91:a9:e0:50:c2:e4:f3:b2:d6:33:01:a7:0f:a0:78:
         10:9b:bd:21:4b:d5:7c:6d:76:3b:f0:89:6d:1a:a6:37:4d:cc:
         8a:a1:24:82:aa:8e:e3:6b:00:0f:74:8b:b6:98:a4:89:99:f8:
         99:44:fd:81:aa:37:a3:3f:47:6a:49:a5:6c:84:6d:a4:43:a7:
         1b:b3:d0:45:26:ad:cb:cd:0a:de:b1:39:1b:b5:b3:43:c4:93:
         5e:8e:16:3a:c7:e8:bb:6e:42:3b:ee:b5:d3:51:dd:7a:bd:23:
         7e:76:e6:02
-----BEGIN CERTIFICATE-----
MIIDXDCCAkSgAwIBAgIQJYYQVJQLVnRW8vj0MYyKFTANBgkqhkiG9w0BAQsFADAW
MRQwEgYDVQQDDAt0ZWFtNzEzLW5ldDAeFw0yMjA1MTgyMzUzMzJaFw0yNTA1MDIy
MzUzMzJaMBkxFzAVBgNVBAMMDnRlYW03MTMtY2xpZW50MIIBIjANBgkqhkiG9w0B
AQEFAAOCAQ8AMIIBCgKCAQEAzD3LUNWdTbwm941+zCVxZXVlCHQp0PFJqJlgj+6L
/F47v52A0N0zczbAyB/RakRE+OhZEhkOJgi4Jwlmgbiesb2JZ3mDGnD5nekCDwzI
x7uCWaQjASOV8jRoWt5snn9CBCZWzWyAHyRe7HlnVHTSN3a7SCuTrgjd4mHpAoVG
ZdWroDLUBWQBNTwwOYDUrXj/d4GHSlAlVpqJS3cV704zmMDYoyoTOKlMq/v/jPy2
jvfmt1BE+Xdu+uunOBHUHKoBjGnk+OHMcXW+WEghrtQQURShjgDTaqg8VbdAUh0+
DbCvn1AYnV98wnT8h0vfEMIg9kpR1YNKM9TqgMS7qO2mkwIDAQABo4GiMIGfMAkG
A1UdEwQCMAAwHQYDVR0OBBYEFIoL2aa39WSsWNxoNinZJ8Da/jCXMFEGA1UdIwRK
MEiAFDPjhnZ8Qio1faS4/exCAqIQgL4IoRqkGDAWMRQwEgYDVQQDDAt0ZWFtNzEz
LW5ldIIUGpKcdwXnzQME0hfaY63gKO7xGT4wEwYDVR0lBAwwCgYIKwYBBQUHAwIw
CwYDVR0PBAQDAgeAMA0GCSqGSIb3DQEBCwUAA4IBAQBg2fyiXmi/36VkSy7igRB6
ByVwUCzd+f3Df/8LI+8EZzQl880eYzVBjYSlr59AF9qvZNFJiS/bDK+rwId5K2WM
y0ptOhwJEhDMcpcGwbeM0P7VZR6UqK6ycc+D23y1R9nREBke3uuI8WMuGIGzCZsI
5Dcx7mfX+ooUZx1v9gSfKPk3/h20GgZaV8ktH06coOKJRIqRqeBQwuTzstYzAacP
oHgQm70hS9V8bXY78IltGqY3TcyKoSSCqo7jawAPdIu2mKSJmfiZRP2BqjejP0dq
SaVshG2kQ6cbs9BFJq3LzQresTkbtbNDxJNejhY6x+i7bkI77rXTUd16vSN+duYC
-----END CERTIFICATE-----
