Certificate:
    Data:
        Version: 3 (0x2)
        Serial Number:
            20:44:83:4e:fc:35:e9:b7:1c:d2:d3:00:cc:7a:3e:31
        Signature Algorithm: sha256WithRSAEncryption
        Issuer: CN=team437-net
        Validity
            Not Before: May 18 21:15:32 2022 GMT
            Not After : May  2 21:15:32 2025 GMT
        Subject: CN=team437-server
        Subject Public Key Info:
            Public Key Algorithm: rsaEncryption
                RSA Public-Key: (2048 bit)
                Modulus:
                    00:af:49:39:40:27:a2:2f:c6:4f:9f:e5:34:78:a3:
                    ab:18:5f:63:9f:8d:a5:3d:45:77:38:9e:2a:82:7b:
                    a7:dd:bc:a2:27:a0:43:b9:0d:d0:1d:8a:fe:3b:c2:
                    85:17:f5:c0:5c:7f:22:f3:1a:39:58:7a:18:8f:a2:
                    e6:d1:6f:95:56:52:d4:0d:9f:38:9c:80:90:74:c0:
                    01:1e:04:63:a8:d5:67:12:fc:fd:ab:84:5c:1a:df:
                    85:12:8a:15:94:e4:18:c5:c2:69:cd:c8:34:34:ad:
                    15:d3:d3:ea:c7:87:ce:59:e0:b6:19:88:7a:85:dc:
                    52:f2:43:83:19:2a:cb:db:72:92:be:08:44:5e:73:
                    7e:25:52:f4:03:2c:63:87:9a:54:c2:ef:04:d1:99:
                    92:b0:39:f1:88:07:2e:0c:18:e1:9c:26:5c:4e:72:
                    58:5c:00:86:c6:1c:8c:28:e2:cf:77:7f:89:89:07:
                    68:74:50:7e:7b:b8:69:af:4b:ae:4d:8d:38:6d:7f:
                    9f:fa:0b:6f:13:b0:57:92:7e:7f:7b:b0:5e:7c:27:
                    9c:17:bb:f6:08:e1:43:dd:7a:24:bf:7f:5b:15:65:
                    90:8f:3d:4d:e8:a9:f3:a1:c5:b9:08:5e:45:a9:9a:
                    90:dd:8f:f1:92:20:69:c3:79:d6:6f:f0:86:80:c2:
                    10:eb
                Exponent: 65537 (0x10001)
        X509v3 extensions:
            X509v3 Basic Constraints: 
                CA:FALSE
            X509v3 Subject Key Identifier: 
                A6:32:DB:33:0F:B9:9B:59:1F:C8:0F:A9:14:D5:78:67:61:B2:DE:FA
            X509v3 Authority Key Identifier: 
                keyid:57:55:D1:C2:B6:02:1C:C9:A6:29:3E:8A:6C:5C:F7:96:8D:BA:BB:E7
                DirName:/CN=team437-net
                serial:56:BF:AA:CC:04:CB:3D:21:F0:2C:4E:F1:7C:EE:54:80:26:26:DA:DF

            X509v3 Extended Key Usage: 
                TLS Web Server Authentication
            X509v3 Key Usage: 
                Digital Signature, Key Encipherment
            X509v3 Subject Alternative Name: 
                DNS:team437-server
    Signature Algorithm: sha256WithRSAEncryption
         02:79:56:bb:8a:38:0f:bb:63:1a:0b:7c:65:05:bb:35:79:f6:
         b0:ba:bc:42:30:45:55:e2:a3:62:08:8a:ee:d5:24:26:dc:9f:
         06:22:f4:b8:2f:a4:d1:96:58:d6:e2:30:af:ba:13:76:30:36:
         70:aa:0f:2c:a2:ca:f0:11:67:b9:26:b6:6c:50:78:a9:71:33:
         11:6d:d4:83:a0:0b:71:ea:6c:01:96:4c:7f:03:b4:a7:ec:a8:
         70:e7:07:21:8c:01:3e:eb:4f:29:d6:1c:7a:e1:2f:29:ce:14:
         b3:b6:58:7f:77:b2:78:aa:a7:43:a4:b0:44:50:60:c7:72:31:
         b0:a5:fe:01:7b:c3:ce:8e:29:c1:d8:47:bb:de:b9:58:64:17:
         cc:69:e0:51:50:a7:e2:98:1a:e4:71:02:3e:e4:aa:4f:0e:32:
         c3:ef:c7:38:46:a1:17:b6:8b:66:bf:b1:fb:c4:b3:93:58:e6:
         f9:b3:c3:02:33:e0:69:37:f3:c4:36:00:a7:df:c8:1c:e9:d6:
         f8:07:52:ef:1f:0b:87:da:5b:55:28:46:19:f7:10:5f:bb:ba:
         a7:25:32:35:6c:89:fb:59:0f:fb:38:38:62:74:7f:ce:6f:72:
         c8:e3:48:84:45:3e:1a:f4:b6:8f:1e:4e:52:bf:56:42:39:7a:
         5a:97:d2:6a
-----BEGIN CERTIFICATE-----
MIIDdzCCAl+gAwIBAgIQIESDTvw16bcc0tMAzHo+MTANBgkqhkiG9w0BAQsFADAW
MRQwEgYDVQQDDAt0ZWFtNDM3LW5ldDAeFw0yMjA1MTgyMTE1MzJaFw0yNTA1MDIy
MTE1MzJaMBkxFzAVBgNVBAMMDnRlYW00Mzctc2VydmVyMIIBIjANBgkqhkiG9w0B
AQEFAAOCAQ8AMIIBCgKCAQEAr0k5QCeiL8ZPn+U0eKOrGF9jn42lPUV3OJ4qgnun
3byiJ6BDuQ3QHYr+O8KFF/XAXH8i8xo5WHoYj6Lm0W+VVlLUDZ84nICQdMABHgRj
qNVnEvz9q4RcGt+FEooVlOQYxcJpzcg0NK0V09Pqx4fOWeC2GYh6hdxS8kODGSrL
23KSvghEXnN+JVL0Ayxjh5pUwu8E0ZmSsDnxiAcuDBjhnCZcTnJYXACGxhyMKOLP
d3+JiQdodFB+e7hpr0uuTY04bX+f+gtvE7BXkn5/e7BefCecF7v2COFD3Xokv39b
FWWQjz1N6KnzocW5CF5FqZqQ3Y/xkiBpw3nWb/CGgMIQ6wIDAQABo4G9MIG6MAkG
A1UdEwQCMAAwHQYDVR0OBBYEFKYy2zMPuZtZH8gPqRTVeGdhst76MFEGA1UdIwRK
MEiAFFdV0cK2AhzJpik+imxc95aNurvnoRqkGDAWMRQwEgYDVQQDDAt0ZWFtNDM3
LW5ldIIUVr+qzATLPSHwLE7xfO5UgCYm2t8wEwYDVR0lBAwwCgYIKwYBBQUHAwEw
CwYDVR0PBAQDAgWgMBkGA1UdEQQSMBCCDnRlYW00Mzctc2VydmVyMA0GCSqGSIb3
DQEBCwUAA4IBAQACeVa7ijgPu2MaC3xlBbs1efawurxCMEVV4qNiCIru1SQm3J8G
IvS4L6TRlljW4jCvuhN2MDZwqg8sosrwEWe5JrZsUHipcTMRbdSDoAtx6mwBlkx/
A7Sn7Khw5wchjAE+608p1hx64S8pzhSztlh/d7J4qqdDpLBEUGDHcjGwpf4Be8PO
jinB2Ee73rlYZBfMaeBRUKfimBrkcQI+5KpPDjLD78c4RqEXtotmv7H7xLOTWOb5
s8MCM+BpN/PENgCn38gc6db4B1LvHwuH2ltVKEYZ9xBfu7qnJTI1bIn7WQ/7ODhi
dH/Ob3LI40iERT4a9LaPHk5Sv1ZCOXpal9Jq
-----END CERTIFICATE-----
