Certificate:
    Data:
        Version: 3 (0x2)
        Serial Number:
            45:5f:b4:17:cd:35:fc:5a:0f:fc:f8:65:10:25:ea:cf
        Signature Algorithm: sha256WithRSAEncryption
        Issuer: CN=team553-net
        Validity
            Not Before: May 18 22:21:18 2022 GMT
            Not After : May  2 22:21:18 2025 GMT
        Subject: CN=team553-server
        Subject Public Key Info:
            Public Key Algorithm: rsaEncryption
                RSA Public-Key: (2048 bit)
                Modulus:
                    00:ab:7f:c5:d6:12:ae:05:44:0d:0f:37:c9:b9:d1:
                    8b:e1:0f:58:4b:47:81:2b:d7:1a:34:0a:c5:aa:50:
                    c3:d4:5d:c2:70:07:3f:b9:a3:43:8e:2b:11:72:54:
                    62:22:8d:c7:7f:d8:da:9d:a9:d0:86:04:12:67:ae:
                    61:22:07:e6:f2:53:dd:bc:e6:1b:72:b2:c5:5e:12:
                    56:5e:c6:5a:55:6e:6d:14:1f:0a:e2:ec:c8:1b:e2:
                    c1:ad:9c:9e:ce:b6:ea:a9:cd:0c:39:83:7d:1e:4f:
                    00:d6:78:4b:18:39:cf:45:2b:51:ae:c8:19:21:c2:
                    bf:65:ad:39:00:fe:e5:ba:87:4a:3a:e7:4d:2e:19:
                    4a:7e:27:be:89:83:71:5a:45:b5:ee:7f:c5:6b:6a:
                    3d:82:a7:4f:8a:0f:fa:18:dd:f6:4c:53:93:fb:1c:
                    93:53:c9:2f:39:5e:80:df:80:2b:f5:2f:85:f5:0a:
                    27:af:18:f1:00:be:2e:c0:64:8e:42:6b:1a:66:9f:
                    3f:99:18:a3:f6:6b:19:f3:5d:df:eb:1c:5d:0e:0f:
                    c2:00:88:7f:28:49:70:3c:d4:ea:4d:f4:e9:68:3f:
                    46:08:09:55:90:8a:72:c8:05:7a:5d:9e:5f:d4:65:
                    cd:35:4b:c2:f6:10:cd:77:df:9b:12:f2:f4:3f:af:
                    7a:91
                Exponent: 65537 (0x10001)
        X509v3 extensions:
            X509v3 Basic Constraints: 
                CA:FALSE
            X509v3 Subject Key Identifier: 
                0B:17:49:18:8A:71:D9:DA:69:4D:16:14:FB:67:98:8F:A7:D1:69:0C
            X509v3 Authority Key Identifier: 
                keyid:19:3E:ED:45:5A:1E:C3:44:48:EB:05:13:AF:F0:5C:34:85:93:AF:20
                DirName:/CN=team553-net
                serial:45:3F:27:16:E8:EB:5D:2C:D0:21:30:DA:BE:17:1B:97:96:3E:B9:20

            X509v3 Extended Key Usage: 
                TLS Web Server Authentication
            X509v3 Key Usage: 
                Digital Signature, Key Encipherment
            X509v3 Subject Alternative Name: 
                DNS:team553-server
    Signature Algorithm: sha256WithRSAEncryption
         59:be:55:63:bd:4f:fa:e0:56:bb:d5:16:2f:4f:fc:1e:7f:3a:
         89:f1:e3:a3:92:a1:7f:c8:5d:56:22:eb:c0:8d:fb:47:b0:00:
         04:98:05:73:70:46:0d:be:b9:8d:1b:8f:87:24:0c:51:4b:ff:
         98:a2:c2:5d:38:11:80:53:5d:bb:b2:40:da:ad:66:9c:59:a1:
         a0:14:b1:b9:d6:ad:3c:87:22:ff:38:aa:c1:2b:a1:96:7c:10:
         5a:38:1b:bc:04:7f:b8:a6:67:c1:a1:0f:6e:ec:f0:36:12:20:
         a2:f5:c4:f5:da:9e:6e:63:32:a9:2b:94:ce:f8:79:20:37:91:
         6a:f1:86:97:39:3a:36:5a:66:94:a1:eb:38:24:aa:ad:f5:d5:
         34:c8:be:a9:7a:41:3c:6a:a2:6f:5b:cf:45:96:96:68:02:92:
         c3:06:53:f8:5c:31:a4:c4:e4:f8:4b:63:60:51:b0:85:8e:9a:
         ae:b1:c7:16:17:97:2b:2c:5a:7b:64:aa:fc:17:86:03:9d:f4:
         84:c2:26:f3:e2:92:8b:7b:b8:58:80:a7:04:9d:30:1b:02:4f:
         cb:9e:4c:4b:f0:77:e9:b0:34:75:5b:00:ec:2f:ce:9c:c5:b6:
         99:eb:3d:3e:09:e6:e9:89:27:06:a8:76:85:1b:93:82:46:50:
         e8:8d:01:25
-----BEGIN CERTIFICATE-----
MIIDdzCCAl+gAwIBAgIQRV+0F801/FoP/PhlECXqzzANBgkqhkiG9w0BAQsFADAW
MRQwEgYDVQQDDAt0ZWFtNTUzLW5ldDAeFw0yMjA1MTgyMjIxMThaFw0yNTA1MDIy
MjIxMThaMBkxFzAVBgNVBAMMDnRlYW01NTMtc2VydmVyMIIBIjANBgkqhkiG9w0B
AQEFAAOCAQ8AMIIBCgKCAQEAq3/F1hKuBUQNDzfJudGL4Q9YS0eBK9caNArFqlDD
1F3CcAc/uaNDjisRclRiIo3Hf9jananQhgQSZ65hIgfm8lPdvOYbcrLFXhJWXsZa
VW5tFB8K4uzIG+LBrZyezrbqqc0MOYN9Hk8A1nhLGDnPRStRrsgZIcK/Za05AP7l
uodKOudNLhlKfie+iYNxWkW17n/Fa2o9gqdPig/6GN32TFOT+xyTU8kvOV6A34Ar
9S+F9QonrxjxAL4uwGSOQmsaZp8/mRij9msZ813f6xxdDg/CAIh/KElwPNTqTfTp
aD9GCAlVkIpyyAV6XZ5f1GXNNUvC9hDNd9+bEvL0P696kQIDAQABo4G9MIG6MAkG
A1UdEwQCMAAwHQYDVR0OBBYEFAsXSRiKcdnaaU0WFPtnmI+n0WkMMFEGA1UdIwRK
MEiAFBk+7UVaHsNESOsFE6/wXDSFk68goRqkGDAWMRQwEgYDVQQDDAt0ZWFtNTUz
LW5ldIIURT8nFujrXSzQITDavhcbl5Y+uSAwEwYDVR0lBAwwCgYIKwYBBQUHAwEw
CwYDVR0PBAQDAgWgMBkGA1UdEQQSMBCCDnRlYW01NTMtc2VydmVyMA0GCSqGSIb3
DQEBCwUAA4IBAQBZvlVjvU/64Fa71RYvT/wefzqJ8eOjkqF/yF1WIuvAjftHsAAE
mAVzcEYNvrmNG4+HJAxRS/+YosJdOBGAU127skDarWacWaGgFLG51q08hyL/OKrB
K6GWfBBaOBu8BH+4pmfBoQ9u7PA2EiCi9cT12p5uYzKpK5TO+HkgN5Fq8YaXOTo2
WmaUoes4JKqt9dU0yL6pekE8aqJvW89FlpZoApLDBlP4XDGkxOT4S2NgUbCFjpqu
sccWF5crLFp7ZKr8F4YDnfSEwibz4pKLe7hYgKcEnTAbAk/LnkxL8HfpsDR1WwDs
L86cxbaZ6z0+CebpiScGqHaFG5OCRlDojQEl
-----END CERTIFICATE-----
