Certificate:
    Data:
        Version: 3 (0x2)
        Serial Number:
            cf:a7:59:ff:bb:39:ee:de:e7:10:8a:84:c2:26:26:6c
        Signature Algorithm: sha256WithRSAEncryption
        Issuer: CN=team701-net
        Validity
            Not Before: May 18 23:32:27 2022 GMT
            Not After : May  2 23:32:27 2025 GMT
        Subject: CN=team701-client
        Subject Public Key Info:
            Public Key Algorithm: rsaEncryption
                RSA Public-Key: (2048 bit)
                Modulus:
                    00:c7:0e:79:ef:e7:d5:51:c0:ee:16:3e:07:d2:63:
                    d8:44:07:20:5f:39:dc:d9:9d:1f:ed:b1:d6:79:e6:
                    97:7f:ec:ed:9c:44:ab:f3:dd:7e:86:0e:67:d8:68:
                    d6:df:37:4f:f9:64:40:07:38:03:a5:b8:ea:e7:72:
                    51:61:63:56:47:bb:23:05:3e:fd:69:d5:2d:71:db:
                    28:d4:d3:eb:72:63:f5:8c:bf:2f:8b:b5:b9:df:6e:
                    01:22:d7:82:44:78:04:db:29:00:86:6a:aa:28:f9:
                    5e:a6:e7:41:d3:5a:2c:b9:2f:b5:42:4c:5c:cc:ac:
                    5a:84:31:92:ca:97:ef:70:c1:0b:20:41:b1:df:9a:
                    94:54:01:c3:3f:8d:f1:91:00:e8:db:ff:98:2b:0f:
                    2f:74:cc:ad:fa:ac:07:39:fb:08:d4:d7:4e:d2:25:
                    64:ce:7b:e3:85:90:e7:f5:63:ac:f0:12:d6:02:22:
                    f6:06:17:66:ff:97:b0:23:37:0e:48:f6:87:4f:07:
                    f3:5a:9b:b1:48:6a:ea:9d:f6:a1:45:ca:77:ff:cb:
                    05:f8:b6:d1:1e:5a:b6:da:9a:c9:b1:31:94:fe:b3:
                    14:c2:d2:f7:21:4f:86:d0:0e:d8:70:f7:47:25:a0:
                    72:15:1d:8a:5e:52:69:e9:c5:db:af:55:58:62:e2:
                    ee:4b
                Exponent: 65537 (0x10001)
        X509v3 extensions:
            X509v3 Basic Constraints: 
                CA:FALSE
            X509v3 Subject Key Identifier: 
                00:B7:AD:C5:5D:19:C0:EC:F3:DC:8B:3F:BE:FA:20:97:E0:D7:61:81
            X509v3 Authority Key Identifier: 
                keyid:10:44:A3:C3:2C:77:85:1C:84:87:E8:4C:42:F4:02:8A:62:E7:46:6E
                DirName:/CN=team701-net
                serial:4B:37:ED:B5:D6:CD:5D:62:36:0A:D6:6B:B5:F7:5D:14:A5:D7:27:59

            X509v3 Extended Key Usage: 
                TLS Web Client Authentication
            X509v3 Key Usage: 
                Digital Signature
    Signature Algorithm: sha256WithRSAEncryption
         ca:63:f7:3b:35:37:ce:d5:23:4f:df:e9:35:a8:26:82:e3:ee:
         8e:a1:63:2b:4b:3b:57:91:dd:8a:6c:21:7d:32:be:89:c6:bd:
         af:77:10:09:3a:f6:63:4b:ca:9c:b4:81:d6:01:2d:fa:9c:ff:
         c6:87:fc:ea:4b:72:61:3f:0d:87:97:62:ee:0e:21:90:6e:9c:
         b6:21:e2:ef:b1:99:d7:65:38:95:ec:4b:55:0b:ef:39:66:ae:
         d5:bc:88:e5:32:e2:94:9d:c8:13:70:b4:dc:1f:39:e9:f9:4b:
         4d:03:86:00:6c:97:33:28:ae:fa:d7:77:13:51:b4:ae:a1:f6:
         51:86:a6:28:92:d1:53:ac:a9:02:78:ca:98:3b:7f:f3:f7:76:
         e8:c1:5f:2e:dc:ed:cf:59:40:87:a2:cd:59:af:f4:bb:17:9b:
         50:98:e3:db:e9:25:90:78:54:a5:17:f5:7e:69:8f:9c:75:ab:
         ac:6e:38:0a:22:ee:4b:8a:fb:e5:7d:58:4f:68:1b:5d:29:66:
         f0:fb:f5:7e:c1:d2:0c:85:ea:db:b3:70:0b:33:ea:59:47:54:
         47:ca:fc:44:da:8a:3d:85:11:3e:d9:47:af:de:35:2c:0c:33:
         a1:10:b7:0e:8f:4a:86:71:ee:ba:13:af:5b:24:b6:d0:41:5b:
         c8:58:94:32
-----BEGIN CERTIFICATE-----
MIIDXTCCAkWgAwIBAgIRAM+nWf+7Oe7e5xCKhMImJmwwDQYJKoZIhvcNAQELBQAw
FjEUMBIGA1UEAwwLdGVhbTcwMS1uZXQwHhcNMjIwNTE4MjMzMjI3WhcNMjUwNTAy
MjMzMjI3WjAZMRcwFQYDVQQDDA50ZWFtNzAxLWNsaWVudDCCASIwDQYJKoZIhvcN
AQEBBQADggEPADCCAQoCggEBAMcOee/n1VHA7hY+B9Jj2EQHIF853NmdH+2x1nnm
l3/s7ZxEq/PdfoYOZ9ho1t83T/lkQAc4A6W46udyUWFjVke7IwU+/WnVLXHbKNTT
63Jj9Yy/L4u1ud9uASLXgkR4BNspAIZqqij5XqbnQdNaLLkvtUJMXMysWoQxksqX
73DBCyBBsd+alFQBwz+N8ZEA6Nv/mCsPL3TMrfqsBzn7CNTXTtIlZM5744WQ5/Vj
rPAS1gIi9gYXZv+XsCM3Dkj2h08H81qbsUhq6p32oUXKd//LBfi20R5attqaybEx
lP6zFMLS9yFPhtAO2HD3RyWgchUdil5SaenF269VWGLi7ksCAwEAAaOBojCBnzAJ
BgNVHRMEAjAAMB0GA1UdDgQWBBQAt63FXRnA7PPciz+++iCX4NdhgTBRBgNVHSME
SjBIgBQQRKPDLHeFHISH6ExC9AKKYudGbqEapBgwFjEUMBIGA1UEAwwLdGVhbTcw
MS1uZXSCFEs37bXWzV1iNgrWa7X3XRSl1ydZMBMGA1UdJQQMMAoGCCsGAQUFBwMC
MAsGA1UdDwQEAwIHgDANBgkqhkiG9w0BAQsFAAOCAQEAymP3OzU3ztUjT9/pNagm
guPujqFjK0s7V5HdimwhfTK+ica9r3cQCTr2Y0vKnLSB1gEt+pz/xof86ktyYT8N
h5di7g4hkG6ctiHi77GZ12U4lexLVQvvOWau1byI5TLilJ3IE3C03B856flLTQOG
AGyXMyiu+td3E1G0rqH2UYamKJLRU6ypAnjKmDt/8/d26MFfLtztz1lAh6LNWa/0
uxebUJjj2+klkHhUpRf1fmmPnHWrrG44CiLuS4r75X1YT2gbXSlm8Pv1fsHSDIXq
27NwCzPqWUdUR8r8RNqKPYURPtlHr941LAwzoRC3Do9KhnHuuhOvWyS20EFbyFiU
Mg==
-----END CERTIFICATE-----
