Certificate:
    Data:
        Version: 3 (0x2)
        Serial Number:
            fe:08:0a:0a:57:c0:ab:77:9d:6b:07:7a:76:10:d5:c6
        Signature Algorithm: sha256WithRSAEncryption
        Issuer: CN=team701-net
        Validity
            Not Before: May 18 23:32:27 2022 GMT
            Not After : May  2 23:32:27 2025 GMT
        Subject: CN=team701-server
        Subject Public Key Info:
            Public Key Algorithm: rsaEncryption
                RSA Public-Key: (2048 bit)
                Modulus:
                    00:ab:c9:10:c5:51:4d:1a:31:36:7e:ae:77:07:75:
                    18:1d:04:8e:8f:90:ba:04:8e:1f:49:b1:4f:9e:41:
                    22:8b:fa:12:ea:14:3c:39:0b:70:c9:ec:10:ea:1f:
                    76:1b:a2:4c:de:da:1f:41:1d:19:87:10:71:c0:fe:
                    30:be:a9:74:9d:b5:63:6f:49:1a:b6:c0:c6:d9:0b:
                    27:7e:fc:db:8c:f9:88:f4:cd:5f:44:46:8e:fa:c3:
                    c2:c6:ba:9f:a3:ae:10:41:e4:17:90:f1:f0:95:d3:
                    82:a8:99:2f:39:38:13:f5:21:fe:f2:11:cf:e7:d9:
                    68:59:a1:af:75:22:74:a1:17:88:3d:23:f1:b4:c1:
                    84:d0:be:f6:f7:25:68:1f:ac:35:9c:f4:29:e6:dc:
                    f0:f2:33:56:21:47:13:cb:1e:c2:f9:0a:58:cf:d3:
                    2a:65:0b:81:d7:fe:24:d1:7d:a9:5f:a9:30:39:83:
                    11:f3:8a:26:c8:65:69:a5:58:1e:6e:3b:45:eb:6e:
                    49:38:7d:aa:3e:8b:35:4b:3d:7b:36:5c:b3:9a:f2:
                    5b:1a:fe:ba:e8:95:14:fb:35:e3:b7:a4:2e:00:d5:
                    dc:fc:33:82:fa:15:4e:cc:e8:f3:aa:03:da:24:46:
                    22:82:93:a7:f8:d2:a9:dd:a9:7d:bb:09:f3:5c:47:
                    2f:75
                Exponent: 65537 (0x10001)
        X509v3 extensions:
            X509v3 Basic Constraints: 
                CA:FALSE
            X509v3 Subject Key Identifier: 
                8C:03:D9:DA:E5:7F:3F:F7:48:4F:31:C4:B9:41:22:63:B9:9C:AF:2B
            X509v3 Authority Key Identifier: 
                keyid:10:44:A3:C3:2C:77:85:1C:84:87:E8:4C:42:F4:02:8A:62:E7:46:6E
                DirName:/CN=team701-net
                serial:4B:37:ED:B5:D6:CD:5D:62:36:0A:D6:6B:B5:F7:5D:14:A5:D7:27:59

            X509v3 Extended Key Usage: 
                TLS Web Server Authentication
            X509v3 Key Usage: 
                Digital Signature, Key Encipherment
            X509v3 Subject Alternative Name: 
                DNS:team701-server
    Signature Algorithm: sha256WithRSAEncryption
         2a:1c:af:ac:43:7f:24:c3:ef:cc:e4:ad:84:4e:fb:92:10:15:
         12:55:0a:89:b4:ad:6e:04:02:12:42:56:e1:15:f7:86:16:09:
         84:de:aa:cf:6f:04:f6:bf:44:cf:7c:6d:0d:f1:89:65:2a:ed:
         ca:17:75:f4:0a:e6:84:fe:df:1b:28:11:36:e0:f1:df:08:c7:
         74:7f:ae:b7:ca:96:3c:40:e6:e4:6f:81:74:75:e5:d1:68:a6:
         39:f9:94:73:7a:00:af:63:34:65:f0:bd:cb:d5:cf:9f:77:a9:
         82:5b:64:2f:4c:93:92:e9:53:b1:47:01:d2:25:25:13:4a:12:
         22:04:09:4a:36:ac:18:b3:3a:19:5f:85:d9:ca:00:dc:71:6f:
         8b:6f:41:13:83:1c:30:8a:26:fb:b9:a1:ec:5b:7d:93:b8:de:
         d9:4d:64:fd:e6:6c:93:ce:13:56:49:fd:bd:91:01:06:e9:84:
         43:90:f2:20:b8:e1:1a:9c:08:95:5b:f9:c8:7b:5e:a6:ea:19:
         12:79:40:ac:56:58:66:15:09:56:6f:dc:49:d7:1f:2a:23:ee:
         97:75:16:38:36:95:e5:56:86:d0:c2:74:40:09:cb:d8:61:8c:
         03:36:87:14:ae:17:20:f2:e0:0b:a7:56:0d:ba:c5:03:93:a4:
         3b:62:13:25
-----BEGIN CERTIFICATE-----
MIIDeDCCAmCgAwIBAgIRAP4ICgpXwKt3nWsHenYQ1cYwDQYJKoZIhvcNAQELBQAw
FjEUMBIGA1UEAwwLdGVhbTcwMS1uZXQwHhcNMjIwNTE4MjMzMjI3WhcNMjUwNTAy
MjMzMjI3WjAZMRcwFQYDVQQDDA50ZWFtNzAxLXNlcnZlcjCCASIwDQYJKoZIhvcN
AQEBBQADggEPADCCAQoCggEBAKvJEMVRTRoxNn6udwd1GB0Ejo+QugSOH0mxT55B
Iov6EuoUPDkLcMnsEOofdhuiTN7aH0EdGYcQccD+ML6pdJ21Y29JGrbAxtkLJ378
24z5iPTNX0RGjvrDwsa6n6OuEEHkF5Dx8JXTgqiZLzk4E/Uh/vIRz+fZaFmhr3Ui
dKEXiD0j8bTBhNC+9vclaB+sNZz0Kebc8PIzViFHE8sewvkKWM/TKmULgdf+JNF9
qV+pMDmDEfOKJshlaaVYHm47RetuSTh9qj6LNUs9ezZcs5ryWxr+uuiVFPs147ek
LgDV3PwzgvoVTszo86oD2iRGIoKTp/jSqd2pfbsJ81xHL3UCAwEAAaOBvTCBujAJ
BgNVHRMEAjAAMB0GA1UdDgQWBBSMA9na5X8/90hPMcS5QSJjuZyvKzBRBgNVHSME
SjBIgBQQRKPDLHeFHISH6ExC9AKKYudGbqEapBgwFjEUMBIGA1UEAwwLdGVhbTcw
MS1uZXSCFEs37bXWzV1iNgrWa7X3XRSl1ydZMBMGA1UdJQQMMAoGCCsGAQUFBwMB
MAsGA1UdDwQEAwIFoDAZBgNVHREEEjAQgg50ZWFtNzAxLXNlcnZlcjANBgkqhkiG
9w0BAQsFAAOCAQEAKhyvrEN/JMPvzOSthE77khAVElUKibStbgQCEkJW4RX3hhYJ
hN6qz28E9r9Ez3xtDfGJZSrtyhd19ArmhP7fGygRNuDx3wjHdH+ut8qWPEDm5G+B
dHXl0WimOfmUc3oAr2M0ZfC9y9XPn3epgltkL0yTkulTsUcB0iUlE0oSIgQJSjas
GLM6GV+F2coA3HFvi29BE4McMIom+7mh7Ft9k7je2U1k/eZsk84TVkn9vZEBBumE
Q5DyILjhGpwIlVv5yHtepuoZEnlArFZYZhUJVm/cSdcfKiPul3UWODaV5VaG0MJ0
QAnL2GGMAzaHFK4XIPLgC6dWDbrFA5OkO2ITJQ==
-----END CERTIFICATE-----
