Certificate:
    Data:
        Version: 3 (0x2)
        Serial Number:
            e4:8e:4c:a0:7c:a3:13:b8:9c:06:6d:2c:5b:b9:89:b3
        Signature Algorithm: sha256WithRSAEncryption
        Issuer: CN=team244-net
        Validity
            Not Before: May 18 19:36:34 2022 GMT
            Not After : May  2 19:36:34 2025 GMT
        Subject: CN=team244-server
        Subject Public Key Info:
            Public Key Algorithm: rsaEncryption
                RSA Public-Key: (2048 bit)
                Modulus:
                    00:d6:9b:58:8e:db:8a:94:c7:a3:ff:36:df:d2:1e:
                    f9:f0:fd:8f:53:a7:5a:4f:58:cf:ec:ef:3a:ff:4c:
                    c4:5a:56:06:2f:75:06:f6:60:4a:08:ab:40:a1:8f:
                    a7:93:62:d4:de:58:9b:7a:ef:9e:b1:12:6d:94:d7:
                    56:53:c8:5e:15:77:b1:d2:86:e3:32:0c:2f:d2:ad:
                    b5:e9:7e:d0:d4:33:b4:04:16:d6:e0:c6:2d:75:f5:
                    bf:20:dc:03:56:f0:2b:76:60:4b:7f:79:81:d5:6d:
                    1a:ab:b5:1b:16:80:40:8e:45:20:01:1e:e0:40:56:
                    89:83:97:53:5a:d1:01:47:35:75:75:6f:82:9c:53:
                    3b:9d:4e:a9:f6:04:89:cf:8f:35:ea:99:48:83:50:
                    5b:f9:70:a1:7e:5e:8e:45:7e:b8:36:90:c0:2b:75:
                    14:93:f9:8b:37:dd:19:c2:a6:7f:4b:93:9b:06:43:
                    5d:70:80:0c:e9:ee:af:e1:64:5e:fc:8b:85:41:49:
                    c4:d7:21:84:2a:39:46:d6:15:66:68:bd:0c:8e:39:
                    c3:a3:32:cc:2a:83:84:4b:d0:4c:f4:cf:de:f6:29:
                    a5:f1:26:94:0b:90:78:cb:67:e3:5e:81:65:9b:ba:
                    ae:bd:e4:17:0a:4b:0b:e8:34:ed:4d:0a:19:84:73:
                    02:e1
                Exponent: 65537 (0x10001)
        X509v3 extensions:
            X509v3 Basic Constraints: 
                CA:FALSE
            X509v3 Subject Key Identifier: 
                CE:C4:D0:AB:A6:07:67:90:62:91:9C:E1:13:C6:3E:5E:9E:42:06:8E
            X509v3 Authority Key Identifier: 
                keyid:93:6F:E9:6B:73:4B:68:11:27:4E:4E:B3:80:60:0B:E4:CC:22:CD:19
                DirName:/CN=team244-net
                serial:09:88:0C:02:54:54:CB:1A:D4:90:9C:D6:53:F0:53:19:21:DB:7B:AD

            X509v3 Extended Key Usage: 
                TLS Web Server Authentication
            X509v3 Key Usage: 
                Digital Signature, Key Encipherment
            X509v3 Subject Alternative Name: 
                DNS:team244-server
    Signature Algorithm: sha256WithRSAEncryption
         27:5d:c6:8b:42:ac:13:24:d1:1a:ce:37:91:3f:12:a7:e7:02:
         e2:f5:3f:1c:e0:ed:87:ba:04:c1:37:4e:d7:6d:62:1a:7f:d9:
         ea:34:f5:02:d1:4d:4e:0a:4f:9a:ad:f3:f7:42:ed:96:af:02:
         52:aa:a9:d2:04:4b:56:45:6f:c6:01:4e:c1:f0:4b:73:d6:9c:
         ff:11:7e:c2:fc:72:c6:e7:7b:5c:fe:62:e0:7b:c0:69:2d:98:
         c6:d5:1f:2e:62:e4:37:1d:9a:15:f7:b7:80:e5:6b:14:f7:24:
         63:87:60:e5:33:33:fa:f7:13:05:81:e0:04:95:40:89:dd:d4:
         46:15:f6:8a:cc:9a:fe:e3:b7:07:42:fc:13:60:e9:57:a3:6a:
         7f:fd:3d:5f:6c:d0:10:a6:9f:92:ef:64:63:e3:9d:97:e3:18:
         48:02:0a:ab:76:2a:66:b2:42:bf:49:02:d1:55:e9:8b:e5:63:
         58:01:12:57:5c:2c:3b:95:7c:cb:bd:88:b0:92:9b:40:d0:dd:
         e1:41:91:fd:89:a6:5d:33:87:a2:e1:fc:dc:70:25:e1:54:69:
         4b:93:08:72:39:01:1f:1c:4c:ba:f5:2c:32:5e:9d:ed:59:cb:
         4c:85:22:ac:58:29:53:38:a7:f5:8f:d4:2f:66:ae:43:87:78:
         bf:71:77:db
-----BEGIN CERTIFICATE-----
MIIDeDCCAmCgAwIBAgIRAOSOTKB8oxO4nAZtLFu5ibMwDQYJKoZIhvcNAQELBQAw
FjEUMBIGA1UEAwwLdGVhbTI0NC1uZXQwHhcNMjIwNTE4MTkzNjM0WhcNMjUwNTAy
MTkzNjM0WjAZMRcwFQYDVQQDDA50ZWFtMjQ0LXNlcnZlcjCCASIwDQYJKoZIhvcN
AQEBBQADggEPADCCAQoCggEBANabWI7bipTHo/8239Ie+fD9j1OnWk9Yz+zvOv9M
xFpWBi91BvZgSgirQKGPp5Ni1N5Ym3rvnrESbZTXVlPIXhV3sdKG4zIML9Kttel+
0NQztAQW1uDGLXX1vyDcA1bwK3ZgS395gdVtGqu1GxaAQI5FIAEe4EBWiYOXU1rR
AUc1dXVvgpxTO51OqfYEic+PNeqZSINQW/lwoX5ejkV+uDaQwCt1FJP5izfdGcKm
f0uTmwZDXXCADOnur+FkXvyLhUFJxNchhCo5RtYVZmi9DI45w6MyzCqDhEvQTPTP
3vYppfEmlAuQeMtn416BZZu6rr3kFwpLC+g07U0KGYRzAuECAwEAAaOBvTCBujAJ
BgNVHRMEAjAAMB0GA1UdDgQWBBTOxNCrpgdnkGKRnOETxj5enkIGjjBRBgNVHSME
SjBIgBSTb+lrc0toESdOTrOAYAvkzCLNGaEapBgwFjEUMBIGA1UEAwwLdGVhbTI0
NC1uZXSCFAmIDAJUVMsa1JCc1lPwUxkh23utMBMGA1UdJQQMMAoGCCsGAQUFBwMB
MAsGA1UdDwQEAwIFoDAZBgNVHREEEjAQgg50ZWFtMjQ0LXNlcnZlcjANBgkqhkiG
9w0BAQsFAAOCAQEAJ13Gi0KsEyTRGs43kT8Sp+cC4vU/HODth7oEwTdO121iGn/Z
6jT1AtFNTgpPmq3z90Ltlq8CUqqp0gRLVkVvxgFOwfBLc9ac/xF+wvxyxud7XP5i
4HvAaS2YxtUfLmLkNx2aFfe3gOVrFPckY4dg5TMz+vcTBYHgBJVAid3URhX2isya
/uO3B0L8E2DpV6Nqf/09X2zQEKafku9kY+Odl+MYSAIKq3YqZrJCv0kC0VXpi+Vj
WAESV1wsO5V8y72IsJKbQNDd4UGR/YmmXTOHouH83HAl4VRpS5MIcjkBHxxMuvUs
Ml6d7VnLTIUirFgpUzin9Y/UL2auQ4d4v3F32w==
-----END CERTIFICATE-----
