Certificate:
    Data:
        Version: 3 (0x2)
        Serial Number:
            bd:35:78:10:d2:8b:45:c9:a4:e7:a7:97:81:b1:26:d0
        Signature Algorithm: sha256WithRSAEncryption
        Issuer: CN=team524-net
        Validity
            Not Before: May 18 22:06:35 2022 GMT
            Not After : May  2 22:06:35 2025 GMT
        Subject: CN=team524-server
        Subject Public Key Info:
            Public Key Algorithm: rsaEncryption
                RSA Public-Key: (2048 bit)
                Modulus:
                    00:b1:98:3b:57:c8:58:b6:29:9c:8e:c7:03:96:9a:
                    f3:6e:61:95:b6:41:77:d7:3f:f9:46:2f:ee:9d:a6:
                    54:7c:69:20:47:5d:0b:98:06:f0:f6:6d:b6:48:93:
                    b6:4c:51:22:39:94:de:59:51:88:9e:53:31:5b:09:
                    18:90:4c:01:bd:4b:aa:3a:d5:4f:62:2c:7a:a0:c0:
                    03:ef:8d:24:79:e1:49:fa:00:08:05:64:15:19:9a:
                    9b:a8:8c:ba:3b:3e:00:c4:08:6c:cc:9d:12:d6:21:
                    22:7c:f9:9e:fd:b6:d1:b7:28:16:12:9a:81:27:00:
                    2b:db:91:fc:80:d7:7b:df:fa:d1:72:59:99:b0:e5:
                    e4:f6:7f:73:83:0e:80:2d:9f:69:b2:08:2c:82:5a:
                    06:ca:a3:31:38:0c:5f:2f:6e:d8:67:6e:ea:61:9c:
                    50:75:61:6b:58:8a:10:dd:b1:20:00:3e:51:7b:84:
                    e4:b2:84:3a:fe:59:be:a8:89:28:b0:c0:1f:79:aa:
                    aa:d4:20:6b:11:d7:c1:28:82:fa:b6:1a:e9:e1:52:
                    48:a6:b7:29:08:f5:fa:5f:2a:2e:c2:c3:7b:2d:be:
                    d2:54:6f:95:ed:da:11:d7:aa:93:ed:e5:f6:03:99:
                    0d:5d:32:8c:7c:d9:e4:f9:77:86:ac:3f:0d:44:b5:
                    56:33
                Exponent: 65537 (0x10001)
        X509v3 extensions:
            X509v3 Basic Constraints: 
                CA:FALSE
            X509v3 Subject Key Identifier: 
                DF:D8:6F:B3:AD:87:F5:A7:78:42:CA:3C:17:2A:94:33:CE:74:13:6D
            X509v3 Authority Key Identifier: 
                keyid:F8:31:B9:81:7E:A0:17:88:B5:CB:24:31:0E:55:C0:95:78:2E:42:41
                DirName:/CN=team524-net
                serial:33:1E:8D:39:5A:8B:0D:78:7C:C1:0B:8E:BE:ED:8B:F3:AB:55:6D:BF

            X509v3 Extended Key Usage: 
                TLS Web Server Authentication
            X509v3 Key Usage: 
                Digital Signature, Key Encipherment
            X509v3 Subject Alternative Name: 
                DNS:team524-server
    Signature Algorithm: sha256WithRSAEncryption
         72:13:8b:2f:38:55:c2:a2:08:30:76:01:df:29:1b:32:69:1a:
         48:13:ae:f0:19:a8:98:9c:92:0f:21:1f:ea:2f:11:a3:17:7e:
         50:d1:0b:86:43:f7:17:1a:f3:c0:5f:dc:a5:d3:b8:52:49:05:
         76:72:47:85:55:75:26:54:7b:9f:35:d0:53:ef:a4:dd:ac:40:
         cf:b6:8b:fe:67:2d:b9:3f:ed:44:ce:1c:f4:ae:d7:4c:5c:2c:
         81:da:2a:37:9b:7c:a2:7c:ed:8b:ac:4d:66:7f:b5:0a:a7:ea:
         3a:2d:4a:45:7a:54:aa:cf:7f:5e:25:ce:8b:ff:5b:89:90:58:
         39:2c:a7:e0:f1:1e:0a:23:42:13:9c:ed:b7:4e:ae:96:bf:7d:
         eb:8f:99:93:9b:e4:8c:66:72:02:ff:27:97:2f:46:26:c2:08:
         79:f0:8d:88:33:32:1d:7d:4d:f3:b1:1b:d6:64:d8:a1:d9:a5:
         22:05:17:fd:b0:89:f3:31:2f:78:c3:bc:4d:2b:8b:f3:37:b0:
         29:09:d6:23:88:ba:0a:20:b5:a6:b9:89:9a:69:b6:9f:e7:a5:
         0f:f4:2c:e0:cd:9e:d6:cd:cb:b5:b5:97:93:c3:9e:73:66:a1:
         1b:03:1e:e3:15:9c:96:31:41:eb:a4:b5:8a:9d:18:d5:08:ff:
         aa:c3:68:c9
-----BEGIN CERTIFICATE-----
MIIDeDCCAmCgAwIBAgIRAL01eBDSi0XJpOenl4GxJtAwDQYJKoZIhvcNAQELBQAw
FjEUMBIGA1UEAwwLdGVhbTUyNC1uZXQwHhcNMjIwNTE4MjIwNjM1WhcNMjUwNTAy
MjIwNjM1WjAZMRcwFQYDVQQDDA50ZWFtNTI0LXNlcnZlcjCCASIwDQYJKoZIhvcN
AQEBBQADggEPADCCAQoCggEBALGYO1fIWLYpnI7HA5aa825hlbZBd9c/+UYv7p2m
VHxpIEddC5gG8PZttkiTtkxRIjmU3llRiJ5TMVsJGJBMAb1LqjrVT2IseqDAA++N
JHnhSfoACAVkFRmam6iMujs+AMQIbMydEtYhInz5nv220bcoFhKagScAK9uR/IDX
e9/60XJZmbDl5PZ/c4MOgC2fabIILIJaBsqjMTgMXy9u2Gdu6mGcUHVha1iKEN2x
IAA+UXuE5LKEOv5ZvqiJKLDAH3mqqtQgaxHXwSiC+rYa6eFSSKa3KQj1+l8qLsLD
ey2+0lRvle3aEdeqk+3l9gOZDV0yjHzZ5Pl3hqw/DUS1VjMCAwEAAaOBvTCBujAJ
BgNVHRMEAjAAMB0GA1UdDgQWBBTf2G+zrYf1p3hCyjwXKpQzznQTbTBRBgNVHSME
SjBIgBT4MbmBfqAXiLXLJDEOVcCVeC5CQaEapBgwFjEUMBIGA1UEAwwLdGVhbTUy
NC1uZXSCFDMejTlaiw14fMELjr7ti/OrVW2/MBMGA1UdJQQMMAoGCCsGAQUFBwMB
MAsGA1UdDwQEAwIFoDAZBgNVHREEEjAQgg50ZWFtNTI0LXNlcnZlcjANBgkqhkiG
9w0BAQsFAAOCAQEAchOLLzhVwqIIMHYB3ykbMmkaSBOu8BmomJySDyEf6i8Roxd+
UNELhkP3FxrzwF/cpdO4UkkFdnJHhVV1JlR7nzXQU++k3axAz7aL/mctuT/tRM4c
9K7XTFwsgdoqN5t8onzti6xNZn+1CqfqOi1KRXpUqs9/XiXOi/9biZBYOSyn4PEe
CiNCE5ztt06ulr9964+Zk5vkjGZyAv8nly9GJsIIefCNiDMyHX1N87Eb1mTYodml
IgUX/bCJ8zEveMO8TSuL8zewKQnWI4i6CiC1prmJmmm2n+elD/Qs4M2e1s3LtbWX
k8Oec2ahGwMe4xWcljFB66S1ip0Y1Qj/qsNoyQ==
-----END CERTIFICATE-----
