Certificate:
    Data:
        Version: 3 (0x2)
        Serial Number:
            ca:81:c4:c9:2b:39:c7:1f:13:6e:ae:86:53:b3:0a:a2
        Signature Algorithm: sha256WithRSAEncryption
        Issuer: CN=team144-net
        Validity
            Not Before: May 18 18:32:33 2022 GMT
            Not After : May  2 18:32:33 2025 GMT
        Subject: CN=team144-server
        Subject Public Key Info:
            Public Key Algorithm: rsaEncryption
                RSA Public-Key: (2048 bit)
                Modulus:
                    00:d7:a6:a8:ce:f9:60:32:d9:94:82:2c:40:f8:96:
                    5b:4f:f5:d7:d2:02:9f:35:84:e6:09:b3:43:f9:4b:
                    b1:75:95:06:c4:1a:da:af:7f:23:9b:62:fc:d4:be:
                    88:fe:a6:0b:0e:52:ce:2f:a6:7f:e7:a3:60:5d:0f:
                    40:b9:37:7d:9f:70:0e:91:ce:cd:28:66:50:1e:99:
                    77:9c:f7:c3:2f:c4:46:f0:09:38:af:b8:a1:82:6a:
                    dc:58:a4:01:7e:24:bd:6c:dc:5e:9e:50:b1:40:0d:
                    04:d5:cc:f3:03:b5:73:b2:d2:7a:e9:97:87:eb:b5:
                    50:80:32:05:a3:82:0c:f9:59:2d:45:a1:c2:b9:bd:
                    e2:f2:6d:8f:de:c0:ba:be:c7:61:2e:be:61:30:bc:
                    c7:0d:a9:53:da:2e:1d:23:8b:c1:76:8e:fb:08:1b:
                    2f:6c:89:a4:dd:1b:e5:e7:00:56:83:25:68:d0:04:
                    fe:95:5a:13:86:d8:2b:43:2a:3b:05:5d:e8:f7:12:
                    aa:d7:f3:b4:ef:00:e2:0b:a9:5c:f2:fa:aa:b9:09:
                    c8:cc:ac:36:75:6c:dd:2c:22:d3:84:5c:df:30:5d:
                    1e:13:8a:b2:dd:97:5d:c6:28:dd:33:b0:4c:fe:14:
                    a6:14:5d:f9:4a:ee:ec:a7:b3:c4:87:35:99:ac:27:
                    90:45
                Exponent: 65537 (0x10001)
        X509v3 extensions:
            X509v3 Basic Constraints: 
                CA:FALSE
            X509v3 Subject Key Identifier: 
                19:2A:C5:EF:55:72:34:02:74:2F:AA:74:0C:3C:FD:5C:24:1F:87:A7
            X509v3 Authority Key Identifier: 
                keyid:83:E2:A5:F6:A4:7D:FD:92:83:77:66:E4:52:EE:26:51:B6:9A:F3:E1
                DirName:/CN=team144-net
                serial:5B:8D:D8:E2:26:C2:69:F7:61:67:5C:79:EB:97:04:8F:9A:96:E6:21

            X509v3 Extended Key Usage: 
                TLS Web Server Authentication
            X509v3 Key Usage: 
                Digital Signature, Key Encipherment
            X509v3 Subject Alternative Name: 
                DNS:team144-server
    Signature Algorithm: sha256WithRSAEncryption
         13:ba:6a:fa:63:11:91:3e:c6:6a:5e:59:82:d4:7d:82:be:5e:
         ee:3e:94:1f:cc:98:1e:12:48:4c:dd:68:50:6f:bf:cd:57:c3:
         23:72:e6:a5:39:95:90:06:35:29:03:f9:8b:f8:51:48:08:e3:
         b0:67:ef:04:bf:b4:22:85:05:e4:e0:1f:20:ed:e5:25:5c:1d:
         78:d0:45:62:4f:52:4f:30:51:8e:44:33:c9:6d:c2:44:5b:08:
         ac:82:ed:8e:fc:8c:0b:a7:a0:cd:37:20:2a:40:82:de:d1:f3:
         43:83:b1:6c:78:b1:fc:ea:06:6a:37:8f:67:6e:f0:aa:7e:6f:
         27:5e:26:18:d2:10:2a:9c:e4:1d:67:86:50:c0:ce:ec:ae:57:
         c2:d0:ae:b9:9c:3d:9e:9c:5e:e2:46:10:96:f9:3d:08:68:73:
         a7:3f:8d:b7:03:06:fd:ca:a5:6e:76:15:f5:f2:cf:c3:f1:92:
         79:01:22:e8:de:0e:bd:e6:e4:ce:aa:2e:21:68:ae:1b:3e:8e:
         48:21:01:a2:c3:f9:59:49:66:78:2d:c1:87:39:f0:8e:6f:66:
         f5:a4:f9:37:66:fa:cd:89:48:3d:0a:7d:02:06:39:a5:89:26:
         f1:9c:ad:ab:48:78:56:79:ee:91:a1:78:d3:5f:57:86:6e:ed:
         cf:ec:3f:40
-----BEGIN CERTIFICATE-----
MIIDeDCCAmCgAwIBAgIRAMqBxMkrOccfE26uhlOzCqIwDQYJKoZIhvcNAQELBQAw
FjEUMBIGA1UEAwwLdGVhbTE0NC1uZXQwHhcNMjIwNTE4MTgzMjMzWhcNMjUwNTAy
MTgzMjMzWjAZMRcwFQYDVQQDDA50ZWFtMTQ0LXNlcnZlcjCCASIwDQYJKoZIhvcN
AQEBBQADggEPADCCAQoCggEBANemqM75YDLZlIIsQPiWW0/119ICnzWE5gmzQ/lL
sXWVBsQa2q9/I5ti/NS+iP6mCw5Szi+mf+ejYF0PQLk3fZ9wDpHOzShmUB6Zd5z3
wy/ERvAJOK+4oYJq3FikAX4kvWzcXp5QsUANBNXM8wO1c7LSeumXh+u1UIAyBaOC
DPlZLUWhwrm94vJtj97Aur7HYS6+YTC8xw2pU9ouHSOLwXaO+wgbL2yJpN0b5ecA
VoMlaNAE/pVaE4bYK0MqOwVd6PcSqtfztO8A4gupXPL6qrkJyMysNnVs3Swi04Rc
3zBdHhOKst2XXcYo3TOwTP4UphRd+Uru7KezxIc1mawnkEUCAwEAAaOBvTCBujAJ
BgNVHRMEAjAAMB0GA1UdDgQWBBQZKsXvVXI0AnQvqnQMPP1cJB+HpzBRBgNVHSME
SjBIgBSD4qX2pH39koN3ZuRS7iZRtprz4aEapBgwFjEUMBIGA1UEAwwLdGVhbTE0
NC1uZXSCFFuN2OImwmn3YWdceeuXBI+aluYhMBMGA1UdJQQMMAoGCCsGAQUFBwMB
MAsGA1UdDwQEAwIFoDAZBgNVHREEEjAQgg50ZWFtMTQ0LXNlcnZlcjANBgkqhkiG
9w0BAQsFAAOCAQEAE7pq+mMRkT7Gal5ZgtR9gr5e7j6UH8yYHhJITN1oUG+/zVfD
I3LmpTmVkAY1KQP5i/hRSAjjsGfvBL+0IoUF5OAfIO3lJVwdeNBFYk9STzBRjkQz
yW3CRFsIrILtjvyMC6egzTcgKkCC3tHzQ4OxbHix/OoGajePZ27wqn5vJ14mGNIQ
KpzkHWeGUMDO7K5XwtCuuZw9npxe4kYQlvk9CGhzpz+NtwMG/cqlbnYV9fLPw/GS
eQEi6N4OvebkzqouIWiuGz6OSCEBosP5WUlmeC3Bhznwjm9m9aT5N2b6zYlIPQp9
AgY5pYkm8Zytq0h4VnnukaF4019Xhm7tz+w/QA==
-----END CERTIFICATE-----
