Certificate:
    Data:
        Version: 3 (0x2)
        Serial Number:
            30:95:56:e1:20:49:32:40:68:2d:c8:4b:c4:02:83:8f
        Signature Algorithm: sha256WithRSAEncryption
        Issuer: CN=team361-net
        Validity
            Not Before: May 18 20:41:42 2022 GMT
            Not After : May  2 20:41:42 2025 GMT
        Subject: CN=team361-client
        Subject Public Key Info:
            Public Key Algorithm: rsaEncryption
                RSA Public-Key: (2048 bit)
                Modulus:
                    00:9e:af:43:6b:4a:64:8d:ff:a5:ca:8d:d4:9b:3a:
                    3e:c2:5b:73:33:c0:0e:9e:80:c1:13:c0:5a:bc:02:
                    e6:41:dc:df:b2:19:05:d5:4d:d6:00:8c:41:d8:9f:
                    f0:4a:03:55:e5:9d:fe:f8:2d:f7:ea:80:e6:5a:d2:
                    a1:8b:c6:2f:b9:e6:0c:1d:83:8c:fa:4d:02:f6:1a:
                    8d:25:35:5e:48:73:36:a2:c2:4c:55:ba:10:e4:17:
                    9b:55:8e:34:ac:fe:b1:96:25:9b:27:72:41:7a:b3:
                    23:1f:83:1f:8c:70:a4:c2:f9:4b:cd:f4:de:3f:15:
                    d5:f3:7a:cf:5f:a3:c5:4c:06:99:27:d7:d1:65:86:
                    67:81:cc:44:25:e1:a2:72:69:5d:79:c7:98:9c:90:
                    b1:a3:66:f7:3f:42:8b:ab:3b:61:47:84:5d:4f:a4:
                    f3:ba:6c:0e:2f:1e:4b:7f:82:05:f7:f2:9d:73:a7:
                    30:2e:09:4a:51:89:5d:6a:2c:54:a4:55:4c:ea:fc:
                    a1:11:7b:a4:c0:8a:15:69:83:fd:0e:ae:f1:6f:a3:
                    6e:de:5a:5a:42:62:dc:1c:de:a5:41:79:2f:16:1f:
                    46:36:39:0d:a8:5a:fa:b1:d3:ba:91:ec:ae:59:47:
                    29:ef:7b:1a:7e:ae:43:c8:26:8a:01:81:9b:ef:e2:
                    ff:6b
                Exponent: 65537 (0x10001)
        X509v3 extensions:
            X509v3 Basic Constraints: 
                CA:FALSE
            X509v3 Subject Key Identifier: 
                8F:56:F8:4C:E7:79:23:69:72:47:4F:06:A2:12:FB:3A:79:10:40:89
            X509v3 Authority Key Identifier: 
                keyid:00:47:11:2A:CB:F3:8B:DF:C8:4C:28:C3:6F:00:27:D4:7D:A2:39:6E
                DirName:/CN=team361-net
                serial:5B:21:DC:A8:CF:FB:78:74:B1:E5:CF:10:BC:A7:5F:D2:4C:AB:C4:A5

            X509v3 Extended Key Usage: 
                TLS Web Client Authentication
            X509v3 Key Usage: 
                Digital Signature
    Signature Algorithm: sha256WithRSAEncryption
         40:91:e3:8e:e7:39:7f:02:cb:25:8d:a8:7c:d1:48:fb:92:9e:
         e8:d5:56:5e:05:0d:c7:b7:ed:ae:61:0d:48:3d:0c:45:f9:2b:
         f8:52:6e:2f:17:35:6d:d7:6b:54:ba:56:cd:0c:3f:c6:3a:c2:
         7c:82:90:b6:ab:e1:0c:30:3b:66:48:d7:c2:1a:b8:65:c9:a4:
         f6:02:0c:db:be:87:c7:c4:60:49:94:4c:7c:63:16:10:ca:01:
         23:5f:4d:ca:b4:fd:0a:c0:e2:e7:a6:48:40:f0:1f:e8:ad:e2:
         0b:44:e6:f2:e0:72:38:a6:d2:e9:45:0c:72:31:8e:d0:8d:03:
         d7:b2:3b:e2:58:8c:96:29:d8:ab:f5:92:f5:d5:64:85:8e:22:
         3c:f4:76:53:1d:94:32:eb:45:25:86:32:e5:b6:44:f3:13:1a:
         41:83:4e:cb:be:90:78:f3:a2:f9:c3:d2:af:b2:97:38:2a:c2:
         8b:00:63:ac:d8:fa:2b:e1:a3:58:dd:a8:45:37:5f:f8:66:1b:
         20:ba:50:40:ad:6c:2c:ee:6b:ac:2a:35:0f:2d:71:ff:63:da:
         27:42:f2:c1:be:33:fe:eb:4c:0c:e0:ea:ae:19:3e:74:5f:6b:
         56:7a:0b:86:4a:46:f1:37:63:c5:fe:d5:36:0a:50:f1:bd:ce:
         6a:d1:36:91
-----BEGIN CERTIFICATE-----
MIIDXDCCAkSgAwIBAgIQMJVW4SBJMkBoLchLxAKDjzANBgkqhkiG9w0BAQsFADAW
MRQwEgYDVQQDDAt0ZWFtMzYxLW5ldDAeFw0yMjA1MTgyMDQxNDJaFw0yNTA1MDIy
MDQxNDJaMBkxFzAVBgNVBAMMDnRlYW0zNjEtY2xpZW50MIIBIjANBgkqhkiG9w0B
AQEFAAOCAQ8AMIIBCgKCAQEAnq9Da0pkjf+lyo3Umzo+wltzM8AOnoDBE8BavALm
QdzfshkF1U3WAIxB2J/wSgNV5Z3++C336oDmWtKhi8YvueYMHYOM+k0C9hqNJTVe
SHM2osJMVboQ5BebVY40rP6xliWbJ3JBerMjH4MfjHCkwvlLzfTePxXV83rPX6PF
TAaZJ9fRZYZngcxEJeGicmldeceYnJCxo2b3P0KLqzthR4RdT6TzumwOLx5Lf4IF
9/Kdc6cwLglKUYldaixUpFVM6vyhEXukwIoVaYP9Dq7xb6Nu3lpaQmLcHN6lQXkv
Fh9GNjkNqFr6sdO6keyuWUcp73safq5DyCaKAYGb7+L/awIDAQABo4GiMIGfMAkG
A1UdEwQCMAAwHQYDVR0OBBYEFI9W+EzneSNpckdPBqIS+zp5EECJMFEGA1UdIwRK
MEiAFABHESrL84vfyEwow28AJ9R9ojluoRqkGDAWMRQwEgYDVQQDDAt0ZWFtMzYx
LW5ldIIUWyHcqM/7eHSx5c8QvKdf0kyrxKUwEwYDVR0lBAwwCgYIKwYBBQUHAwIw
CwYDVR0PBAQDAgeAMA0GCSqGSIb3DQEBCwUAA4IBAQBAkeOO5zl/Assljah80Uj7
kp7o1VZeBQ3Ht+2uYQ1IPQxF+Sv4Um4vFzVt12tUulbNDD/GOsJ8gpC2q+EMMDtm
SNfCGrhlyaT2AgzbvofHxGBJlEx8YxYQygEjX03KtP0KwOLnpkhA8B/oreILROby
4HI4ptLpRQxyMY7QjQPXsjviWIyWKdir9ZL11WSFjiI89HZTHZQy60UlhjLltkTz
ExpBg07LvpB486L5w9Kvspc4KsKLAGOs2Por4aNY3ahFN1/4ZhsgulBArWws7mus
KjUPLXH/Y9onQvLBvjP+60wM4OquGT50X2tWeguGSkbxN2PF/tU2ClDxvc5q0TaR
-----END CERTIFICATE-----
