Certificate:
    Data:
        Version: 3 (0x2)
        Serial Number:
            b4:e9:90:25:a8:28:b9:2c:3d:dc:01:ea:05:e9:65:6c
        Signature Algorithm: sha256WithRSAEncryption
        Issuer: CN=team361-net
        Validity
            Not Before: May 18 20:41:42 2022 GMT
            Not After : May  2 20:41:42 2025 GMT
        Subject: CN=team361-server
        Subject Public Key Info:
            Public Key Algorithm: rsaEncryption
                RSA Public-Key: (2048 bit)
                Modulus:
                    00:cf:8f:5b:46:9d:f1:b1:37:72:e4:49:e3:86:30:
                    18:41:db:5e:dc:ed:d6:3f:d7:fc:fe:0d:f3:9a:77:
                    a9:4e:3d:04:6b:4b:5f:13:47:6f:7c:a0:58:90:8a:
                    61:0e:ca:09:15:2b:0d:5c:d3:af:03:dd:e2:e1:c1:
                    3a:f4:ad:ef:6b:ec:19:61:86:ce:ef:b1:f3:c0:a0:
                    64:77:69:c9:ab:5c:8c:2e:d8:18:94:07:8b:6a:37:
                    bd:3b:02:07:af:32:85:12:a6:d4:8b:3e:38:fe:29:
                    0c:3f:7f:0c:d3:f8:b0:13:c6:63:c9:76:28:38:e0:
                    d9:bb:b4:9c:11:38:91:31:01:f9:14:27:a6:73:ed:
                    3d:13:f2:42:b1:58:d3:98:af:bb:8f:f2:e0:95:6f:
                    28:95:45:83:3a:e2:cd:98:bd:50:2f:b4:c2:27:7d:
                    60:17:f9:51:92:f3:29:4c:ce:10:8e:ae:5f:6d:be:
                    5d:b3:07:01:2f:e0:cb:0e:d6:37:59:d3:8f:af:39:
                    2f:9e:21:bf:da:8d:f4:5a:d1:9c:99:9a:01:33:e4:
                    74:50:42:60:fc:76:6b:19:52:03:a8:c7:36:72:53:
                    4a:73:a5:49:96:c9:ac:e4:9f:2d:a1:bd:3f:ae:f7:
                    4b:64:d9:b5:ef:3a:58:cf:f4:5e:48:3c:a1:5f:cf:
                    63:d5
                Exponent: 65537 (0x10001)
        X509v3 extensions:
            X509v3 Basic Constraints: 
                CA:FALSE
            X509v3 Subject Key Identifier: 
                FB:3F:E6:3F:64:C0:61:69:13:E0:82:74:FC:27:9C:C5:E6:65:FF:8C
            X509v3 Authority Key Identifier: 
                keyid:00:47:11:2A:CB:F3:8B:DF:C8:4C:28:C3:6F:00:27:D4:7D:A2:39:6E
                DirName:/CN=team361-net
                serial:5B:21:DC:A8:CF:FB:78:74:B1:E5:CF:10:BC:A7:5F:D2:4C:AB:C4:A5

            X509v3 Extended Key Usage: 
                TLS Web Server Authentication
            X509v3 Key Usage: 
                Digital Signature, Key Encipherment
            X509v3 Subject Alternative Name: 
                DNS:team361-server
    Signature Algorithm: sha256WithRSAEncryption
         78:13:7b:6c:9b:73:20:8c:bb:1e:c5:78:ba:71:77:3d:cd:20:
         bb:e2:ca:f5:2b:0f:0d:e1:5f:b9:b6:a2:20:f1:c9:07:9a:88:
         cd:bf:a9:c2:bf:85:c2:04:f6:38:13:a5:85:24:a0:11:91:1d:
         46:1b:0b:48:9a:5d:91:b1:04:90:dc:68:d4:8f:a7:63:d2:d0:
         1e:ba:83:3a:c7:df:50:85:10:79:e8:a5:f0:4d:d0:35:34:91:
         23:da:ae:6a:6a:5b:bf:cb:35:95:e0:9c:a0:7f:f3:56:2a:d0:
         60:ce:4f:21:d1:ce:2e:39:a3:b8:4e:59:34:cb:09:e1:93:94:
         e7:7a:46:da:e7:1a:9e:69:41:23:ad:22:c5:d1:6b:eb:c3:53:
         6c:66:ed:2f:ba:b8:4e:d0:e9:3e:9e:04:b1:8f:7a:49:b1:95:
         e7:f1:54:f0:64:9c:66:51:88:cb:07:01:12:cd:7c:6c:15:0e:
         f9:e8:ad:e9:f1:46:7e:42:0c:f4:aa:34:10:c2:66:1f:38:e5:
         2a:01:f7:f7:4b:17:35:64:4d:a8:13:12:33:83:94:8d:54:1e:
         17:fb:45:1b:9e:0a:90:36:89:00:24:f6:21:f1:fb:66:4d:8a:
         74:1c:0e:5c:42:8c:e5:73:29:7c:db:47:92:10:d9:3d:4a:a8:
         e7:c9:25:77
-----BEGIN CERTIFICATE-----
MIIDeDCCAmCgAwIBAgIRALTpkCWoKLksPdwB6gXpZWwwDQYJKoZIhvcNAQELBQAw
FjEUMBIGA1UEAwwLdGVhbTM2MS1uZXQwHhcNMjIwNTE4MjA0MTQyWhcNMjUwNTAy
MjA0MTQyWjAZMRcwFQYDVQQDDA50ZWFtMzYxLXNlcnZlcjCCASIwDQYJKoZIhvcN
AQEBBQADggEPADCCAQoCggEBAM+PW0ad8bE3cuRJ44YwGEHbXtzt1j/X/P4N85p3
qU49BGtLXxNHb3ygWJCKYQ7KCRUrDVzTrwPd4uHBOvSt72vsGWGGzu+x88CgZHdp
yatcjC7YGJQHi2o3vTsCB68yhRKm1Is+OP4pDD9/DNP4sBPGY8l2KDjg2bu0nBE4
kTEB+RQnpnPtPRPyQrFY05ivu4/y4JVvKJVFgzrizZi9UC+0wid9YBf5UZLzKUzO
EI6uX22+XbMHAS/gyw7WN1nTj685L54hv9qN9FrRnJmaATPkdFBCYPx2axlSA6jH
NnJTSnOlSZbJrOSfLaG9P673S2TZte86WM/0Xkg8oV/PY9UCAwEAAaOBvTCBujAJ
BgNVHRMEAjAAMB0GA1UdDgQWBBT7P+Y/ZMBhaRPggnT8J5zF5mX/jDBRBgNVHSME
SjBIgBQARxEqy/OL38hMKMNvACfUfaI5bqEapBgwFjEUMBIGA1UEAwwLdGVhbTM2
MS1uZXSCFFsh3KjP+3h0seXPELynX9JMq8SlMBMGA1UdJQQMMAoGCCsGAQUFBwMB
MAsGA1UdDwQEAwIFoDAZBgNVHREEEjAQgg50ZWFtMzYxLXNlcnZlcjANBgkqhkiG
9w0BAQsFAAOCAQEAeBN7bJtzIIy7HsV4unF3Pc0gu+LK9SsPDeFfubaiIPHJB5qI
zb+pwr+FwgT2OBOlhSSgEZEdRhsLSJpdkbEEkNxo1I+nY9LQHrqDOsffUIUQeeil
8E3QNTSRI9quampbv8s1leCcoH/zVirQYM5PIdHOLjmjuE5ZNMsJ4ZOU53pG2uca
nmlBI60ixdFr68NTbGbtL7q4TtDpPp4EsY96SbGV5/FU8GScZlGIywcBEs18bBUO
+eit6fFGfkIM9Ko0EMJmHzjlKgH390sXNWRNqBMSM4OUjVQeF/tFG54KkDaJACT2
IfH7Zk2KdBwOXEKM5XMpfNtHkhDZPUqo58kldw==
-----END CERTIFICATE-----
