Certificate:
    Data:
        Version: 3 (0x2)
        Serial Number:
            8c:a7:29:7d:b2:64:2e:85:2c:75:9b:8d:c3:8d:23:a3
        Signature Algorithm: sha256WithRSAEncryption
        Issuer: CN=team82-net
        Validity
            Not Before: May 18 14:37:38 2022 GMT
            Not After : May  2 14:37:38 2025 GMT
        Subject: CN=team82-client
        Subject Public Key Info:
            Public Key Algorithm: rsaEncryption
                RSA Public-Key: (2048 bit)
                Modulus:
                    00:c9:dd:c3:03:f9:ae:73:93:6e:fd:d1:1c:5a:20:
                    60:5a:d1:41:e2:7f:bd:1d:21:18:fe:25:86:91:19:
                    71:11:8f:a6:c0:8e:d6:c7:be:9c:9b:47:37:56:9c:
                    94:af:0a:7a:49:54:1f:d7:7f:8c:ed:50:f3:0e:5d:
                    a5:7e:2e:f1:87:f9:53:f4:9f:7e:c0:64:4b:ac:88:
                    34:56:76:9b:7a:1b:54:e6:55:a9:90:59:21:a9:55:
                    8e:64:25:f6:f7:86:63:2e:d6:1f:ea:c2:35:b4:d4:
                    c0:ad:4a:c5:d4:6d:98:aa:33:f5:dd:68:2c:e9:0a:
                    21:9c:cd:f1:ee:7b:c6:56:ff:65:11:ae:93:bf:70:
                    0f:fe:95:18:fa:8f:e0:dd:56:88:26:0b:ab:9b:a6:
                    48:0d:ed:5f:4f:73:bc:b1:a5:fd:d1:d6:14:cd:c4:
                    e8:aa:4c:0b:d5:42:a1:c7:97:4b:4e:8e:7c:89:83:
                    27:7d:98:0e:0b:cd:b0:12:2b:c8:9f:4a:cf:fd:9f:
                    de:b1:4e:d4:b4:da:17:5f:dd:40:f2:b3:e6:30:e9:
                    f7:61:b7:60:6e:88:47:c9:55:c3:6c:b4:49:4c:cc:
                    54:87:cf:84:28:c0:be:86:a0:16:f0:32:46:da:47:
                    ef:cd:07:4b:70:eb:a6:07:22:7d:3d:0f:ae:96:e5:
                    d8:3f
                Exponent: 65537 (0x10001)
        X509v3 extensions:
            X509v3 Basic Constraints: 
                CA:FALSE
            X509v3 Subject Key Identifier: 
                E0:99:DB:1B:A9:F6:A5:C6:52:1D:5E:8A:DF:30:38:62:BD:31:7C:91
            X509v3 Authority Key Identifier: 
                keyid:8A:84:92:A3:32:DC:2C:A7:22:8E:3B:D0:B6:B8:45:49:5E:78:DA:A6
                DirName:/CN=team82-net
                serial:14:3D:CE:F6:31:79:8D:6D:94:7D:D5:27:87:4A:7B:FD:D6:45:C3:9B

            X509v3 Extended Key Usage: 
                TLS Web Client Authentication
            X509v3 Key Usage: 
                Digital Signature
    Signature Algorithm: sha256WithRSAEncryption
         ca:18:40:0b:26:76:50:e2:14:dc:dc:57:a3:94:d1:eb:c9:de:
         e5:e5:89:65:16:bb:03:d9:c0:43:e7:12:0a:7c:69:bc:02:d2:
         a7:9f:99:2f:e1:f7:2a:84:9b:80:2c:11:2f:55:85:ce:e2:3d:
         a4:69:fb:a3:fb:ae:f1:a7:c1:bb:a8:57:b6:f0:94:8f:96:82:
         0a:5b:fa:dd:24:83:02:54:f6:69:d3:fb:2d:c5:f2:80:9b:05:
         dc:30:c7:3b:dd:70:6f:9b:e2:24:a3:2c:77:b8:0d:89:b2:76:
         12:47:2c:32:82:b4:d2:2e:85:d4:aa:e4:cd:61:7c:3f:57:5f:
         d2:83:f9:2f:a0:68:ea:d2:84:e0:85:50:63:58:af:bb:92:d8:
         02:54:b1:8c:2e:a5:4f:da:5e:8b:4f:59:9c:a6:3f:a3:58:7b:
         3a:ef:8c:88:7c:15:e0:49:57:3f:32:19:c0:49:fa:7b:43:e5:
         47:39:38:d6:e2:32:06:ba:27:c9:5f:8c:b8:86:ec:54:a9:10:
         30:c1:6e:30:8a:0d:8d:2f:d4:12:04:59:fa:1e:82:e0:9f:5c:
         b3:6e:44:30:d2:39:5a:8a:4e:ed:57:a8:97:f5:23:4b:7d:4b:
         e4:35:e8:fc:63:a4:08:8d:d4:87:80:07:f7:5b:ea:05:ed:32:
         94:2c:65:4d
-----BEGIN CERTIFICATE-----
MIIDWjCCAkKgAwIBAgIRAIynKX2yZC6FLHWbjcONI6MwDQYJKoZIhvcNAQELBQAw
FTETMBEGA1UEAwwKdGVhbTgyLW5ldDAeFw0yMjA1MTgxNDM3MzhaFw0yNTA1MDIx
NDM3MzhaMBgxFjAUBgNVBAMMDXRlYW04Mi1jbGllbnQwggEiMA0GCSqGSIb3DQEB
AQUAA4IBDwAwggEKAoIBAQDJ3cMD+a5zk2790RxaIGBa0UHif70dIRj+JYaRGXER
j6bAjtbHvpybRzdWnJSvCnpJVB/Xf4ztUPMOXaV+LvGH+VP0n37AZEusiDRWdpt6
G1TmVamQWSGpVY5kJfb3hmMu1h/qwjW01MCtSsXUbZiqM/XdaCzpCiGczfHue8ZW
/2URrpO/cA/+lRj6j+DdVogmC6ubpkgN7V9Pc7yxpf3R1hTNxOiqTAvVQqHHl0tO
jnyJgyd9mA4LzbASK8ifSs/9n96xTtS02hdf3UDys+Yw6fdht2BuiEfJVcNstElM
zFSHz4QowL6GoBbwMkbaR+/NB0tw66YHIn09D66W5dg/AgMBAAGjgaEwgZ4wCQYD
VR0TBAIwADAdBgNVHQ4EFgQU4JnbG6n2pcZSHV6K3zA4Yr0xfJEwUAYDVR0jBEkw
R4AUioSSozLcLKcijjvQtrhFSV542qahGaQXMBUxEzARBgNVBAMMCnRlYW04Mi1u
ZXSCFBQ9zvYxeY1tlH3VJ4dKe/3WRcObMBMGA1UdJQQMMAoGCCsGAQUFBwMCMAsG
A1UdDwQEAwIHgDANBgkqhkiG9w0BAQsFAAOCAQEAyhhACyZ2UOIU3NxXo5TR68ne
5eWJZRa7A9nAQ+cSCnxpvALSp5+ZL+H3KoSbgCwRL1WFzuI9pGn7o/uu8afBu6hX
tvCUj5aCClv63SSDAlT2adP7LcXygJsF3DDHO91wb5viJKMsd7gNibJ2EkcsMoK0
0i6F1KrkzWF8P1df0oP5L6Bo6tKE4IVQY1ivu5LYAlSxjC6lT9pei09ZnKY/o1h7
Ou+MiHwV4ElXPzIZwEn6e0PlRzk41uIyBronyV+MuIbsVKkQMMFuMIoNjS/UEgRZ
+h6C4J9cs25EMNI5WopO7Veol/UjS31L5DXo/GOkCI3Uh4AH91vqBe0ylCxlTQ==
-----END CERTIFICATE-----
