Certificate:
    Data:
        Version: 3 (0x2)
        Serial Number:
            10:0c:84:ed:4a:18:d1:c8:19:be:4a:61:30:27:c6:23
        Signature Algorithm: sha256WithRSAEncryption
        Issuer: CN=team267-net
        Validity
            Not Before: May 18 19:46:25 2022 GMT
            Not After : May  2 19:46:25 2025 GMT
        Subject: CN=team267-server
        Subject Public Key Info:
            Public Key Algorithm: rsaEncryption
                RSA Public-Key: (2048 bit)
                Modulus:
                    00:fc:c8:19:97:c2:95:4e:b5:1a:a6:af:11:d7:02:
                    9f:5d:68:2b:eb:bb:d0:d8:6d:cf:9b:92:e9:d0:cb:
                    95:f6:47:33:24:5c:76:8c:7f:bb:ed:70:80:5a:9d:
                    fd:70:d0:70:21:97:3b:4b:2d:24:f3:59:d8:f9:3b:
                    9b:78:84:1b:b7:d1:0e:71:16:7f:0d:f1:7e:4b:c7:
                    f0:52:87:f8:68:82:77:26:dd:c7:1f:12:6e:f1:5d:
                    82:b6:e2:19:b6:cb:cf:7c:e1:c9:50:4a:15:8d:6a:
                    92:72:6e:22:7a:22:e5:7a:08:04:14:d7:0d:02:bf:
                    67:74:1f:ff:13:45:2d:af:20:05:78:dd:93:fb:c7:
                    b6:6b:f0:78:4e:26:83:25:f9:e4:cf:66:56:00:8a:
                    f9:e7:9a:c2:67:dc:66:78:eb:b5:0f:f6:14:0f:ef:
                    3e:65:a9:5e:bf:fc:7d:55:20:89:bc:12:a7:82:9e:
                    d0:b4:b5:11:7e:91:34:06:89:71:3f:22:5b:01:be:
                    84:d0:31:c1:0a:ac:14:8e:ef:d7:f6:8d:0f:e5:c7:
                    02:b2:40:73:a3:04:d0:63:8b:dc:10:db:c1:db:2d:
                    a7:39:b3:0b:64:06:3f:d9:99:42:23:08:af:21:36:
                    66:58:6e:f8:1d:37:72:59:fa:be:a3:d7:2e:87:62:
                    6d:6f
                Exponent: 65537 (0x10001)
        X509v3 extensions:
            X509v3 Basic Constraints: 
                CA:FALSE
            X509v3 Subject Key Identifier: 
                58:AD:8C:C9:7E:D0:8A:86:C4:11:A8:A6:77:DF:09:AC:D6:7A:10:87
            X509v3 Authority Key Identifier: 
                keyid:49:CB:CD:80:26:70:BD:F5:36:48:45:8D:31:28:A0:28:D1:A0:3D:DA
                DirName:/CN=team267-net
                serial:66:4D:DF:6E:67:57:D9:C3:48:E8:5C:0D:D9:7C:34:0A:87:3A:9D:37

            X509v3 Extended Key Usage: 
                TLS Web Server Authentication
            X509v3 Key Usage: 
                Digital Signature, Key Encipherment
            X509v3 Subject Alternative Name: 
                DNS:team267-server
    Signature Algorithm: sha256WithRSAEncryption
         04:9c:e1:1c:c1:3a:ca:a2:20:a1:25:54:bd:b4:de:ba:6b:63:
         00:99:50:d2:99:50:8b:93:2a:da:14:38:bd:25:f4:ee:97:6a:
         d4:e0:f7:ee:cd:05:69:41:79:e7:af:fc:3a:a4:50:65:0d:f1:
         8e:b7:63:79:a5:72:1c:55:11:85:c1:b2:1c:f4:28:49:89:c8:
         7e:b7:b5:03:27:c2:3b:17:a2:3a:f8:e7:8d:2e:ff:91:7f:98:
         21:c8:9d:21:4f:22:0c:39:6f:db:03:1d:b0:ee:f7:27:1c:e5:
         4a:d4:92:0e:3f:53:12:d5:bd:1a:24:34:fc:fb:d6:9f:7c:36:
         f0:0b:a0:1d:50:d4:89:dc:f8:a4:a4:6a:1f:e2:14:5b:f6:f1:
         c6:44:9c:63:95:84:f2:17:a7:76:26:a6:96:85:de:47:70:b9:
         ad:fb:f4:0c:90:c3:0d:d0:46:ee:e7:6f:2e:38:2a:aa:02:80:
         2a:fd:eb:5d:f5:d2:0a:fb:2e:3f:c3:ba:bd:d3:88:02:3d:b3:
         66:45:72:e0:48:85:b1:a5:f7:38:ac:46:ba:b0:e2:61:94:6f:
         c1:97:44:85:93:dd:ec:81:52:50:24:05:6b:69:fa:d9:03:f0:
         f8:37:cb:6f:f6:80:fd:14:25:47:4c:27:dd:87:b5:9e:ca:e6:
         ee:6d:f9:da
-----BEGIN CERTIFICATE-----
MIIDdzCCAl+gAwIBAgIQEAyE7UoY0cgZvkphMCfGIzANBgkqhkiG9w0BAQsFADAW
MRQwEgYDVQQDDAt0ZWFtMjY3LW5ldDAeFw0yMjA1MTgxOTQ2MjVaFw0yNTA1MDIx
OTQ2MjVaMBkxFzAVBgNVBAMMDnRlYW0yNjctc2VydmVyMIIBIjANBgkqhkiG9w0B
AQEFAAOCAQ8AMIIBCgKCAQEA/MgZl8KVTrUapq8R1wKfXWgr67vQ2G3Pm5Lp0MuV
9kczJFx2jH+77XCAWp39cNBwIZc7Sy0k81nY+TubeIQbt9EOcRZ/DfF+S8fwUof4
aIJ3Jt3HHxJu8V2CtuIZtsvPfOHJUEoVjWqScm4ieiLleggEFNcNAr9ndB//E0Ut
ryAFeN2T+8e2a/B4TiaDJfnkz2ZWAIr555rCZ9xmeOu1D/YUD+8+Zalev/x9VSCJ
vBKngp7QtLURfpE0BolxPyJbAb6E0DHBCqwUju/X9o0P5ccCskBzowTQY4vcENvB
2y2nObMLZAY/2ZlCIwivITZmWG74HTdyWfq+o9cuh2JtbwIDAQABo4G9MIG6MAkG
A1UdEwQCMAAwHQYDVR0OBBYEFFitjMl+0IqGxBGopnffCazWehCHMFEGA1UdIwRK
MEiAFEnLzYAmcL31NkhFjTEooCjRoD3aoRqkGDAWMRQwEgYDVQQDDAt0ZWFtMjY3
LW5ldIIUZk3fbmdX2cNI6FwN2Xw0Coc6nTcwEwYDVR0lBAwwCgYIKwYBBQUHAwEw
CwYDVR0PBAQDAgWgMBkGA1UdEQQSMBCCDnRlYW0yNjctc2VydmVyMA0GCSqGSIb3
DQEBCwUAA4IBAQAEnOEcwTrKoiChJVS9tN66a2MAmVDSmVCLkyraFDi9JfTul2rU
4PfuzQVpQXnnr/w6pFBlDfGOt2N5pXIcVRGFwbIc9ChJich+t7UDJ8I7F6I6+OeN
Lv+Rf5ghyJ0hTyIMOW/bAx2w7vcnHOVK1JIOP1MS1b0aJDT8+9affDbwC6AdUNSJ
3PikpGof4hRb9vHGRJxjlYTyF6d2JqaWhd5HcLmt+/QMkMMN0Ebu528uOCqqAoAq
/etd9dIK+y4/w7q904gCPbNmRXLgSIWxpfc4rEa6sOJhlG/Bl0SFk93sgVJQJAVr
afrZA/D4N8tv9oD9FCVHTCfdh7Weyububfna
-----END CERTIFICATE-----
