Certificate:
    Data:
        Version: 3 (0x2)
        Serial Number:
            3b:42:c0:9a:08:40:4b:2c:8a:de:a4:94:f9:16:7e:76
        Signature Algorithm: sha256WithRSAEncryption
        Issuer: CN=team411-net
        Validity
            Not Before: May 18 20:56:30 2022 GMT
            Not After : May  2 20:56:30 2025 GMT
        Subject: CN=team411-server
        Subject Public Key Info:
            Public Key Algorithm: rsaEncryption
                RSA Public-Key: (2048 bit)
                Modulus:
                    00:e0:65:d6:d5:4b:88:08:60:2a:33:90:c0:bd:11:
                    10:90:ec:e2:57:37:ea:1e:51:7a:84:f2:a1:c1:99:
                    8e:b6:97:a2:f3:bc:cb:80:b8:1e:5c:ef:26:ba:a9:
                    5b:0e:f9:72:03:cd:15:97:c2:4e:2a:3c:39:90:73:
                    71:36:30:67:4d:dc:e9:04:a8:26:05:d5:21:2e:e0:
                    50:7f:b4:c4:7e:a5:18:da:42:ad:92:53:7c:20:b2:
                    04:14:2f:c5:b7:b9:a7:aa:c4:80:3c:ea:79:ca:ca:
                    f4:6d:a3:c1:f3:79:29:14:8f:c1:b6:f9:50:46:5f:
                    b1:65:b8:fa:43:ff:24:f4:08:d5:57:bc:50:a1:e1:
                    b3:0c:41:e0:4d:b5:12:80:52:80:cc:5c:bb:23:ad:
                    61:07:0d:7e:8e:78:7e:f4:81:96:f7:00:0a:fa:37:
                    4f:01:83:c7:a4:7f:a4:0a:a8:30:84:a1:e5:bd:62:
                    64:4a:35:1b:51:04:d8:21:ed:21:ab:29:fe:2f:25:
                    72:44:45:04:07:cc:b8:3f:5a:74:84:3e:21:d6:a6:
                    c4:56:e6:fd:46:c9:ee:55:bf:da:0c:eb:f8:a0:c4:
                    ef:dc:20:fc:80:84:5d:56:ca:a2:43:75:ba:fa:c3:
                    3a:aa:3b:5e:95:a0:f3:35:d0:bd:a9:51:28:7c:c1:
                    c1:f5
                Exponent: 65537 (0x10001)
        X509v3 extensions:
            X509v3 Basic Constraints: 
                CA:FALSE
            X509v3 Subject Key Identifier: 
                F5:03:3C:9A:C8:3E:A1:61:55:6A:A0:D9:48:89:01:F6:52:8B:AF:1E
            X509v3 Authority Key Identifier: 
                keyid:95:39:3D:E6:57:56:AD:32:2A:BF:E8:27:91:B3:77:93:C0:C7:F4:AF
                DirName:/CN=team411-net
                serial:78:2D:9F:B0:21:61:09:44:0C:15:52:B5:24:08:42:68:CD:CE:EC:CB

            X509v3 Extended Key Usage: 
                TLS Web Server Authentication
            X509v3 Key Usage: 
                Digital Signature, Key Encipherment
            X509v3 Subject Alternative Name: 
                DNS:team411-server
    Signature Algorithm: sha256WithRSAEncryption
         46:68:6b:df:e7:16:72:a5:36:1c:d6:dd:87:9e:d2:fe:d3:13:
         d3:3d:ad:66:27:4d:b2:b8:b0:3c:eb:0b:65:fe:f5:d8:ce:91:
         41:25:62:ff:fd:9c:0c:d3:cd:de:1c:3c:f7:0e:e4:11:b1:39:
         53:75:4d:58:a9:eb:b3:50:98:dd:35:f4:ca:6a:29:1b:cb:8b:
         b7:46:40:6a:02:a9:5c:b7:4e:7e:3c:37:0e:96:f1:11:08:33:
         94:bc:5c:14:ca:f3:12:1d:e6:bf:62:57:ac:0e:04:a8:d6:6c:
         6d:b1:63:6f:cd:a2:96:4d:af:83:70:0b:c6:da:2b:e9:0e:e6:
         21:be:28:f7:35:00:1b:92:43:6e:d0:57:42:69:cf:d3:3f:81:
         97:fb:4e:81:5b:0b:41:17:04:6c:f5:0b:b4:e9:d2:46:32:18:
         52:07:d9:c3:b2:f2:89:88:4c:1c:6e:f0:6c:e4:5b:45:ab:01:
         a4:db:07:3b:5d:ff:8e:8d:40:e8:54:57:26:86:da:c8:05:69:
         7f:89:d2:3c:34:6b:51:f2:48:48:ac:0c:70:24:8e:0b:fc:dc:
         28:0a:3c:2b:f9:e8:5a:e1:ce:35:32:70:05:ef:54:db:05:cf:
         26:5a:c3:3c:81:d3:10:05:e0:f4:08:92:d3:37:85:a5:43:32:
         f3:d4:b6:e8
-----BEGIN CERTIFICATE-----
MIIDdzCCAl+gAwIBAgIQO0LAmghASyyK3qSU+RZ+djANBgkqhkiG9w0BAQsFADAW
MRQwEgYDVQQDDAt0ZWFtNDExLW5ldDAeFw0yMjA1MTgyMDU2MzBaFw0yNTA1MDIy
MDU2MzBaMBkxFzAVBgNVBAMMDnRlYW00MTEtc2VydmVyMIIBIjANBgkqhkiG9w0B
AQEFAAOCAQ8AMIIBCgKCAQEA4GXW1UuICGAqM5DAvREQkOziVzfqHlF6hPKhwZmO
tpei87zLgLgeXO8muqlbDvlyA80Vl8JOKjw5kHNxNjBnTdzpBKgmBdUhLuBQf7TE
fqUY2kKtklN8ILIEFC/Ft7mnqsSAPOp5ysr0baPB83kpFI/BtvlQRl+xZbj6Q/8k
9AjVV7xQoeGzDEHgTbUSgFKAzFy7I61hBw1+jnh+9IGW9wAK+jdPAYPHpH+kCqgw
hKHlvWJkSjUbUQTYIe0hqyn+LyVyREUEB8y4P1p0hD4h1qbEVub9RsnuVb/aDOv4
oMTv3CD8gIRdVsqiQ3W6+sM6qjtelaDzNdC9qVEofMHB9QIDAQABo4G9MIG6MAkG
A1UdEwQCMAAwHQYDVR0OBBYEFPUDPJrIPqFhVWqg2UiJAfZSi68eMFEGA1UdIwRK
MEiAFJU5PeZXVq0yKr/oJ5Gzd5PAx/SvoRqkGDAWMRQwEgYDVQQDDAt0ZWFtNDEx
LW5ldIIUeC2fsCFhCUQMFVK1JAhCaM3O7MswEwYDVR0lBAwwCgYIKwYBBQUHAwEw
CwYDVR0PBAQDAgWgMBkGA1UdEQQSMBCCDnRlYW00MTEtc2VydmVyMA0GCSqGSIb3
DQEBCwUAA4IBAQBGaGvf5xZypTYc1t2HntL+0xPTPa1mJ02yuLA86wtl/vXYzpFB
JWL//ZwM083eHDz3DuQRsTlTdU1YqeuzUJjdNfTKaikby4u3RkBqAqlct05+PDcO
lvERCDOUvFwUyvMSHea/YlesDgSo1mxtsWNvzaKWTa+DcAvG2ivpDuYhvij3NQAb
kkNu0FdCac/TP4GX+06BWwtBFwRs9Qu06dJGMhhSB9nDsvKJiEwcbvBs5FtFqwGk
2wc7Xf+OjUDoVFcmhtrIBWl/idI8NGtR8khIrAxwJI4L/NwoCjwr+eha4c41MnAF
71TbBc8mWsM8gdMQBeD0CJLTN4WlQzLz1Lbo
-----END CERTIFICATE-----
