Certificate:
    Data:
        Version: 3 (0x2)
        Serial Number:
            c2:31:7b:fa:bb:38:2e:e3:8b:30:c9:fe:af:4c:24:b9
        Signature Algorithm: sha256WithRSAEncryption
        Issuer: CN=team411-net
        Validity
            Not Before: May 18 20:56:30 2022 GMT
            Not After : May  2 20:56:30 2025 GMT
        Subject: CN=team411-client
        Subject Public Key Info:
            Public Key Algorithm: rsaEncryption
                RSA Public-Key: (2048 bit)
                Modulus:
                    00:bc:06:b0:2a:ea:98:53:e4:bb:8d:0c:ba:35:37:
                    fa:a7:85:be:69:15:af:4b:cc:5a:20:26:b5:10:56:
                    23:f0:06:13:86:cc:22:bb:89:3d:ea:74:10:43:26:
                    f0:a1:8c:4d:85:e4:8c:ec:74:14:1e:ce:ca:a6:40:
                    7f:7e:02:66:ba:33:bf:0a:0f:16:5c:2a:4b:0c:1e:
                    8a:95:59:fe:6f:a1:12:c8:09:34:83:35:ce:ec:20:
                    0e:36:3b:35:b1:0c:f4:66:6d:c6:b3:25:85:a8:ef:
                    4a:37:b0:db:77:9a:23:9e:59:fa:0b:e2:5a:8d:5a:
                    ea:a4:c1:71:a7:4b:43:33:36:c7:e8:9d:35:e6:a8:
                    7d:e9:a3:06:b1:52:18:4a:23:07:48:7b:34:11:96:
                    42:85:b1:cd:37:56:46:74:42:39:fd:eb:3b:e1:82:
                    81:40:77:bd:68:04:2a:e8:2e:0e:b7:f9:fb:8a:dc:
                    a0:49:7d:21:9d:a5:75:54:53:51:56:14:84:65:9c:
                    f3:c7:9a:e3:97:35:83:60:de:2d:45:52:12:e4:dd:
                    d3:66:62:ed:2b:36:e6:bf:3f:63:2e:9f:e7:5b:1f:
                    bf:e7:09:84:01:c1:fc:97:6d:5a:00:db:bc:6f:2d:
                    29:08:48:1b:a8:1b:92:f3:80:cf:ca:8c:61:ae:da:
                    e7:5f
                Exponent: 65537 (0x10001)
        X509v3 extensions:
            X509v3 Basic Constraints: 
                CA:FALSE
            X509v3 Subject Key Identifier: 
                E9:3F:03:23:4C:31:96:CE:97:C9:80:D5:A9:65:37:4A:19:98:41:02
            X509v3 Authority Key Identifier: 
                keyid:95:39:3D:E6:57:56:AD:32:2A:BF:E8:27:91:B3:77:93:C0:C7:F4:AF
                DirName:/CN=team411-net
                serial:78:2D:9F:B0:21:61:09:44:0C:15:52:B5:24:08:42:68:CD:CE:EC:CB

            X509v3 Extended Key Usage: 
                TLS Web Client Authentication
            X509v3 Key Usage: 
                Digital Signature
    Signature Algorithm: sha256WithRSAEncryption
         8f:17:87:2c:63:41:35:f6:9a:50:b2:5c:10:f5:c4:71:cc:14:
         dc:b0:59:7e:f8:cf:79:24:35:b9:bc:5b:70:6f:30:85:07:55:
         b0:69:dd:b8:c6:ea:44:eb:84:75:e4:94:32:6c:81:61:d3:14:
         60:ab:a2:03:26:a7:fb:91:f8:da:7c:97:73:a0:6a:ac:69:ec:
         dc:a9:2d:57:a3:50:59:33:a3:de:8c:2c:e4:dd:27:9e:ba:64:
         82:03:40:cc:3c:23:d7:73:31:43:11:73:0f:0b:85:1f:98:c7:
         31:f1:0b:d8:f6:2f:11:41:89:13:f0:29:90:7a:ba:8c:72:7e:
         42:c9:dd:dc:96:3f:ec:4a:3e:98:de:4c:a0:25:70:35:bf:61:
         66:4b:96:ff:0f:0b:9d:25:4e:39:bb:28:2d:8a:b7:52:bd:cf:
         7b:7f:20:68:8c:95:12:aa:cc:67:d2:d2:d7:ee:1d:c3:e3:ea:
         8c:e5:b0:73:51:c2:96:4f:aa:76:74:8d:aa:5f:97:fa:9e:92:
         08:70:27:c9:3e:66:88:59:70:f6:1c:80:08:77:96:73:96:fb:
         8d:9e:8b:fd:89:5e:13:8a:25:af:2a:8d:19:ca:ee:c7:e9:24:
         7d:29:ba:c5:e7:85:12:8e:58:58:04:e8:0f:5a:0e:2e:f9:95:
         fc:df:b4:9e
-----BEGIN CERTIFICATE-----
MIIDXTCCAkWgAwIBAgIRAMIxe/q7OC7jizDJ/q9MJLkwDQYJKoZIhvcNAQELBQAw
FjEUMBIGA1UEAwwLdGVhbTQxMS1uZXQwHhcNMjIwNTE4MjA1NjMwWhcNMjUwNTAy
MjA1NjMwWjAZMRcwFQYDVQQDDA50ZWFtNDExLWNsaWVudDCCASIwDQYJKoZIhvcN
AQEBBQADggEPADCCAQoCggEBALwGsCrqmFPku40MujU3+qeFvmkVr0vMWiAmtRBW
I/AGE4bMIruJPep0EEMm8KGMTYXkjOx0FB7OyqZAf34CZrozvwoPFlwqSwweipVZ
/m+hEsgJNIM1zuwgDjY7NbEM9GZtxrMlhajvSjew23eaI55Z+gviWo1a6qTBcadL
QzM2x+idNeaofemjBrFSGEojB0h7NBGWQoWxzTdWRnRCOf3rO+GCgUB3vWgEKugu
Drf5+4rcoEl9IZ2ldVRTUVYUhGWc88ea45c1g2DeLUVSEuTd02Zi7Ss25r8/Yy6f
51sfv+cJhAHB/JdtWgDbvG8tKQhIG6gbkvOAz8qMYa7a518CAwEAAaOBojCBnzAJ
BgNVHRMEAjAAMB0GA1UdDgQWBBTpPwMjTDGWzpfJgNWpZTdKGZhBAjBRBgNVHSME
SjBIgBSVOT3mV1atMiq/6CeRs3eTwMf0r6EapBgwFjEUMBIGA1UEAwwLdGVhbTQx
MS1uZXSCFHgtn7AhYQlEDBVStSQIQmjNzuzLMBMGA1UdJQQMMAoGCCsGAQUFBwMC
MAsGA1UdDwQEAwIHgDANBgkqhkiG9w0BAQsFAAOCAQEAjxeHLGNBNfaaULJcEPXE
ccwU3LBZfvjPeSQ1ubxbcG8whQdVsGnduMbqROuEdeSUMmyBYdMUYKuiAyan+5H4
2nyXc6BqrGns3KktV6NQWTOj3ows5N0nnrpkggNAzDwj13MxQxFzDwuFH5jHMfEL
2PYvEUGJE/ApkHq6jHJ+Qsnd3JY/7Eo+mN5MoCVwNb9hZkuW/w8LnSVOObsoLYq3
Ur3Pe38gaIyVEqrMZ9LS1+4dw+PqjOWwc1HClk+qdnSNql+X+p6SCHAnyT5miFlw
9hyACHeWc5b7jZ6L/YleE4olryqNGcrux+kkfSm6xeeFEo5YWAToD1oOLvmV/N+0
ng==
-----END CERTIFICATE-----
