Certificate:
    Data:
        Version: 3 (0x2)
        Serial Number:
            71:d7:d2:b1:e4:1a:cd:96:bd:b9:2f:20:b3:f1:9e:db
        Signature Algorithm: sha256WithRSAEncryption
        Issuer: CN=team8-net
        Validity
            Not Before: May 18 13:59:10 2022 GMT
            Not After : May  2 13:59:10 2025 GMT
        Subject: CN=team8-client
        Subject Public Key Info:
            Public Key Algorithm: rsaEncryption
                RSA Public-Key: (2048 bit)
                Modulus:
                    00:ce:34:b9:05:b0:b4:ab:ef:5f:94:c2:0c:85:05:
                    89:a7:c0:60:41:a5:a0:1b:7c:c1:5b:fb:e7:0f:6e:
                    2e:a4:01:3c:bb:b3:de:5f:87:a0:d3:17:fc:d3:b2:
                    8c:7e:5e:25:9a:40:14:30:67:6e:23:a0:54:6c:24:
                    20:45:02:3d:73:e3:7f:e2:66:45:c4:df:7d:37:f8:
                    24:c3:66:27:4f:4b:16:14:a7:35:c8:e3:5c:41:de:
                    cf:58:e8:65:e8:a1:2f:db:57:5c:8a:c8:65:85:67:
                    8c:64:cb:1c:91:2b:da:05:56:55:a6:72:02:f3:f3:
                    45:a4:e7:cf:40:4a:8b:aa:a2:01:73:96:7a:7e:12:
                    92:a4:0a:d9:02:2c:80:1c:8e:41:47:94:6f:46:92:
                    39:93:bb:a1:a8:a0:07:3c:45:68:be:99:24:e1:9d:
                    3e:04:a4:a5:aa:e0:5a:67:fd:47:cb:6d:4d:c7:df:
                    c2:4f:73:b5:17:a1:78:9d:32:d6:9a:7f:48:c1:09:
                    e8:14:bb:88:85:2c:46:20:6e:26:a2:0e:03:c2:06:
                    74:d6:cd:18:47:df:02:07:22:be:2a:cb:85:6f:bc:
                    8b:2d:c3:e7:46:70:ae:7d:fb:a5:72:a1:e1:02:a2:
                    1f:b5:3a:4b:d9:5f:1f:2f:8c:5b:15:ab:9e:ab:9a:
                    37:5d
                Exponent: 65537 (0x10001)
        X509v3 extensions:
            X509v3 Basic Constraints: 
                CA:FALSE
            X509v3 Subject Key Identifier: 
                B9:60:35:21:83:A2:FA:B8:CA:32:03:68:6F:12:DB:18:FA:F9:E5:B0
            X509v3 Authority Key Identifier: 
                keyid:59:62:3A:3D:F8:45:1A:64:AD:63:06:50:28:E7:02:6A:20:AC:77:FF
                DirName:/CN=team8-net
                serial:4E:D5:D5:21:A3:F4:5C:09:62:FF:AF:EA:5A:FE:62:98:C9:16:85:B7

            X509v3 Extended Key Usage: 
                TLS Web Client Authentication
            X509v3 Key Usage: 
                Digital Signature
    Signature Algorithm: sha256WithRSAEncryption
         0d:e8:2d:a2:c5:1e:ee:2f:ab:89:17:bb:a8:41:03:b3:e4:ed:
         36:79:f2:97:c2:a9:55:20:2e:eb:bf:cf:c5:57:3a:9b:b9:3f:
         97:9b:4a:fc:d4:48:5c:c1:f8:18:e0:12:76:3b:ab:2c:f2:08:
         02:03:14:49:44:c5:e4:1c:6d:e4:47:a5:a2:a4:b5:28:37:48:
         7f:b0:fa:fb:1d:da:38:3e:97:b7:3f:d2:93:92:d4:47:0d:cf:
         25:53:73:c1:ca:14:7a:47:3c:37:54:5e:78:de:66:33:54:a3:
         0c:32:a4:1c:7b:8f:a2:df:aa:0e:96:2b:93:d1:1f:a3:e9:00:
         dd:a1:3f:14:ff:06:9b:d2:d0:5a:2e:a0:e3:e6:db:cd:5d:35:
         db:6f:a9:e0:a0:be:48:b7:9c:fd:e4:f1:5e:11:68:44:c8:41:
         d4:6a:d6:41:ca:e8:51:f4:4b:b7:80:a9:e8:43:d6:37:1b:e6:
         c1:8a:3c:4c:9d:53:b3:c5:d4:01:dd:da:78:1c:65:93:d0:d8:
         1a:2c:53:df:53:29:16:1c:08:cc:20:df:7f:80:b2:4c:cb:42:
         b7:4f:ce:ea:e0:04:ea:b6:ae:78:fe:7a:59:0e:e1:e1:af:bb:
         77:90:a4:73:99:a8:bb:4d:72:cc:40:09:81:cb:4c:c7:6e:37:
         44:8d:66:b2
-----BEGIN CERTIFICATE-----
MIIDVjCCAj6gAwIBAgIQcdfSseQazZa9uS8gs/Ge2zANBgkqhkiG9w0BAQsFADAU
MRIwEAYDVQQDDAl0ZWFtOC1uZXQwHhcNMjIwNTE4MTM1OTEwWhcNMjUwNTAyMTM1
OTEwWjAXMRUwEwYDVQQDDAx0ZWFtOC1jbGllbnQwggEiMA0GCSqGSIb3DQEBAQUA
A4IBDwAwggEKAoIBAQDONLkFsLSr71+UwgyFBYmnwGBBpaAbfMFb++cPbi6kATy7
s95fh6DTF/zTsox+XiWaQBQwZ24joFRsJCBFAj1z43/iZkXE3303+CTDZidPSxYU
pzXI41xB3s9Y6GXooS/bV1yKyGWFZ4xkyxyRK9oFVlWmcgLz80Wk589ASouqogFz
lnp+EpKkCtkCLIAcjkFHlG9GkjmTu6GooAc8RWi+mSThnT4EpKWq4Fpn/UfLbU3H
38JPc7UXoXidMtaaf0jBCegUu4iFLEYgbiaiDgPCBnTWzRhH3wIHIr4qy4VvvIst
w+dGcK59+6VyoeECoh+1OkvZXx8vjFsVq56rmjddAgMBAAGjgaAwgZ0wCQYDVR0T
BAIwADAdBgNVHQ4EFgQUuWA1IYOi+rjKMgNobxLbGPr55bAwTwYDVR0jBEgwRoAU
WWI6PfhFGmStYwZQKOcCaiCsd/+hGKQWMBQxEjAQBgNVBAMMCXRlYW04LW5ldIIU
TtXVIaP0XAli/6/qWv5imMkWhbcwEwYDVR0lBAwwCgYIKwYBBQUHAwIwCwYDVR0P
BAQDAgeAMA0GCSqGSIb3DQEBCwUAA4IBAQAN6C2ixR7uL6uJF7uoQQOz5O02efKX
wqlVIC7rv8/FVzqbuT+Xm0r81EhcwfgY4BJ2O6ss8ggCAxRJRMXkHG3kR6WipLUo
N0h/sPr7Hdo4Ppe3P9KTktRHDc8lU3PByhR6Rzw3VF543mYzVKMMMqQce4+i36oO
liuT0R+j6QDdoT8U/wab0tBaLqDj5tvNXTXbb6ngoL5It5z95PFeEWhEyEHUatZB
yuhR9Eu3gKnoQ9Y3G+bBijxMnVOzxdQB3dp4HGWT0NgaLFPfUykWHAjMIN9/gLJM
y0K3T87q4ATqtq54/npZDuHhr7t3kKRzmai7TXLMQAmBy0zHbjdEjWay
-----END CERTIFICATE-----
