Certificate:
    Data:
        Version: 3 (0x2)
        Serial Number:
            95:2a:36:6e:75:69:16:b9:68:0f:0d:f3:13:d4:7a:73
        Signature Algorithm: sha256WithRSAEncryption
        Issuer: CN=team183-net
        Validity
            Not Before: May 18 18:58:47 2022 GMT
            Not After : May  2 18:58:47 2025 GMT
        Subject: CN=team183-client
        Subject Public Key Info:
            Public Key Algorithm: rsaEncryption
                RSA Public-Key: (2048 bit)
                Modulus:
                    00:d6:41:fe:d3:36:e0:99:95:e9:d9:2b:31:d6:81:
                    c8:6d:ae:76:cf:f0:8c:3f:1d:6b:c7:70:2b:3a:da:
                    41:47:26:40:a8:43:17:6a:6f:0a:9d:5d:b4:87:73:
                    a4:d3:55:dd:7e:96:77:01:4d:41:5a:fc:7e:ad:cf:
                    3a:a8:d0:27:c5:c5:82:38:a8:d5:66:8d:f2:ea:7a:
                    f0:f8:c8:d2:d6:d5:e1:34:10:69:3b:09:bb:11:d0:
                    7f:75:dd:81:17:1e:36:da:48:a5:97:9a:3d:f1:c2:
                    9e:ea:76:30:f1:44:ad:2d:6b:89:85:0f:5f:62:da:
                    31:9b:5a:36:27:0b:18:ac:a4:84:ca:00:77:27:b9:
                    a4:4b:bc:a0:72:14:a7:bb:97:e5:a8:d1:cd:03:55:
                    e8:4e:d4:8b:4f:c0:2e:0f:cb:1a:fb:60:af:9d:a7:
                    23:bf:39:90:2d:d5:02:05:41:b2:48:cd:73:13:49:
                    33:f9:b6:46:a2:91:90:3a:b9:58:65:df:21:47:09:
                    ca:ac:42:67:fc:89:cf:84:a7:77:f2:51:a3:8c:4e:
                    33:c6:b6:0a:69:dd:87:64:79:58:b5:d0:19:f4:5e:
                    20:57:a2:44:76:19:36:4e:74:14:a8:a5:fa:84:81:
                    f9:11:27:cf:44:2f:0d:fa:2c:db:ab:ef:58:09:71:
                    86:07
                Exponent: 65537 (0x10001)
        X509v3 extensions:
            X509v3 Basic Constraints: 
                CA:FALSE
            X509v3 Subject Key Identifier: 
                7E:75:F4:B6:F5:E0:2B:08:8C:09:BA:BD:9B:74:99:F8:16:08:1C:CE
            X509v3 Authority Key Identifier: 
                keyid:28:C0:B4:44:9B:32:AD:AC:3D:88:8F:29:80:05:7E:A0:A4:6F:B0:8F
                DirName:/CN=team183-net
                serial:73:45:25:C3:FA:34:06:08:79:B5:C0:A8:20:01:DB:22:FD:BF:9E:2A

            X509v3 Extended Key Usage: 
                TLS Web Client Authentication
            X509v3 Key Usage: 
                Digital Signature
    Signature Algorithm: sha256WithRSAEncryption
         57:0f:4b:01:b0:1f:81:70:d2:b2:5c:09:91:06:05:f1:78:42:
         85:52:d0:e1:59:cf:d6:60:bf:2c:01:71:82:08:aa:09:88:8f:
         05:d0:e7:e5:0a:d8:54:27:e5:d3:19:97:6c:f0:f2:93:b8:25:
         57:76:f9:b1:6a:5a:44:93:4b:60:68:92:6d:4e:b3:d1:0f:ef:
         29:79:c8:bc:2e:f5:a5:fb:00:d1:f7:80:e5:d4:e6:0c:55:64:
         5b:a0:ea:59:d7:a1:a1:cd:79:84:9b:e3:e9:b9:bf:a3:3d:c9:
         93:ba:ef:39:bc:bc:3a:e0:6a:a8:46:e1:ab:ad:74:ee:91:2f:
         e6:22:2d:f9:06:61:0f:01:08:47:4c:91:87:c5:28:23:ab:f2:
         16:c4:af:0e:e9:d9:db:c0:25:8f:38:d7:33:9f:17:6c:ef:fe:
         da:36:3c:c3:9e:5a:60:c4:b5:11:fc:ab:fb:b7:48:80:b4:05:
         e6:ef:c3:03:9a:45:c8:68:be:2f:1c:54:e2:e5:ab:ea:8b:ff:
         88:66:09:2f:45:f1:e6:e1:b3:d2:b1:64:69:b9:5b:6e:e5:36:
         a1:6e:19:9b:59:59:b9:19:a4:3c:c4:5b:89:1e:e9:c3:34:6c:
         c8:ad:91:52:e4:1e:a9:bd:40:4b:3a:12:3f:02:68:8a:5b:e5:
         98:94:a1:c5
-----BEGIN CERTIFICATE-----
MIIDXTCCAkWgAwIBAgIRAJUqNm51aRa5aA8N8xPUenMwDQYJKoZIhvcNAQELBQAw
FjEUMBIGA1UEAwwLdGVhbTE4My1uZXQwHhcNMjIwNTE4MTg1ODQ3WhcNMjUwNTAy
MTg1ODQ3WjAZMRcwFQYDVQQDDA50ZWFtMTgzLWNsaWVudDCCASIwDQYJKoZIhvcN
AQEBBQADggEPADCCAQoCggEBANZB/tM24JmV6dkrMdaByG2uds/wjD8da8dwKzra
QUcmQKhDF2pvCp1dtIdzpNNV3X6WdwFNQVr8fq3POqjQJ8XFgjio1WaN8up68PjI
0tbV4TQQaTsJuxHQf3XdgRceNtpIpZeaPfHCnup2MPFErS1riYUPX2LaMZtaNicL
GKykhMoAdye5pEu8oHIUp7uX5ajRzQNV6E7Ui0/ALg/LGvtgr52nI785kC3VAgVB
skjNcxNJM/m2RqKRkDq5WGXfIUcJyqxCZ/yJz4Snd/JRo4xOM8a2Cmndh2R5WLXQ
GfReIFeiRHYZNk50FKil+oSB+REnz0QvDfos26vvWAlxhgcCAwEAAaOBojCBnzAJ
BgNVHRMEAjAAMB0GA1UdDgQWBBR+dfS29eArCIwJur2bdJn4FggczjBRBgNVHSME
SjBIgBQowLREmzKtrD2IjymABX6gpG+wj6EapBgwFjEUMBIGA1UEAwwLdGVhbTE4
My1uZXSCFHNFJcP6NAYIebXAqCAB2yL9v54qMBMGA1UdJQQMMAoGCCsGAQUFBwMC
MAsGA1UdDwQEAwIHgDANBgkqhkiG9w0BAQsFAAOCAQEAVw9LAbAfgXDSslwJkQYF
8XhChVLQ4VnP1mC/LAFxggiqCYiPBdDn5QrYVCfl0xmXbPDyk7glV3b5sWpaRJNL
YGiSbU6z0Q/vKXnIvC71pfsA0feA5dTmDFVkW6DqWdehoc15hJvj6bm/oz3Jk7rv
Oby8OuBqqEbhq6107pEv5iIt+QZhDwEIR0yRh8UoI6vyFsSvDunZ28AljzjXM58X
bO/+2jY8w55aYMS1Efyr+7dIgLQF5u/DA5pFyGi+LxxU4uWr6ov/iGYJL0Xx5uGz
0rFkablbbuU2oW4Zm1lZuRmkPMRbiR7pwzRsyK2RUuQeqb1ASzoSPwJoilvlmJSh
xQ==
-----END CERTIFICATE-----
