Certificate:
    Data:
        Version: 3 (0x2)
        Serial Number:
            11:ef:23:e2:a8:e0:88:ee:6a:71:1e:70:1c:26:f3:bf
        Signature Algorithm: sha256WithRSAEncryption
        Issuer: CN=team616-net
        Validity
            Not Before: May 18 22:47:50 2022 GMT
            Not After : May  2 22:47:50 2025 GMT
        Subject: CN=team616-client
        Subject Public Key Info:
            Public Key Algorithm: rsaEncryption
                RSA Public-Key: (2048 bit)
                Modulus:
                    00:d8:a9:b4:49:49:70:52:84:c6:26:10:75:e5:08:
                    79:d9:92:ab:a8:fe:1f:e4:24:6e:c0:16:58:28:fe:
                    94:ee:00:1f:4b:93:c9:55:91:ce:cb:1e:92:5f:74:
                    94:d9:d3:ec:79:6d:9b:6e:1a:1f:88:f9:1d:c5:2c:
                    1d:e3:0a:45:42:f1:ff:5b:9e:5a:e2:49:ea:77:30:
                    eb:71:8b:86:5b:9b:80:43:18:d3:5a:d5:44:ac:32:
                    94:5d:1c:38:87:c3:53:cb:17:05:b9:c8:d5:7c:71:
                    f3:93:73:70:ea:5e:7c:7f:26:c4:c0:57:2a:80:c9:
                    f6:66:ac:30:06:62:7a:16:83:0a:e0:fa:63:77:dd:
                    50:6f:5b:0c:bf:30:40:a3:0c:14:c4:fd:a0:6e:64:
                    7b:3c:6b:ac:c0:ab:1d:09:ee:1f:5c:92:a3:53:dc:
                    52:c3:e5:ff:8c:75:ae:91:6e:9f:57:25:e8:49:92:
                    09:af:4b:d4:a4:76:95:0f:2e:35:6d:7f:d6:90:5e:
                    58:e1:ec:e9:d9:11:33:8b:93:b4:c9:99:5f:3d:da:
                    1c:d3:81:41:4e:81:2a:83:ce:b7:bc:b5:1c:41:88:
                    47:03:c3:f0:01:4c:a6:11:d1:7c:59:79:b5:48:43:
                    ac:97:8e:7d:6d:70:24:0e:c9:55:10:ff:e1:cb:e3:
                    b4:0f
                Exponent: 65537 (0x10001)
        X509v3 extensions:
            X509v3 Basic Constraints: 
                CA:FALSE
            X509v3 Subject Key Identifier: 
                3E:F1:40:C2:DC:3C:6F:33:39:79:74:C8:66:71:BD:F3:50:07:06:D0
            X509v3 Authority Key Identifier: 
                keyid:26:80:7A:53:4E:89:A6:46:62:1E:10:DC:11:45:41:5B:61:30:6D:2B
                DirName:/CN=team616-net
                serial:53:04:E0:B3:92:18:8E:F8:B2:06:FE:45:4C:9B:BA:DF:81:42:ED:89

            X509v3 Extended Key Usage: 
                TLS Web Client Authentication
            X509v3 Key Usage: 
                Digital Signature
    Signature Algorithm: sha256WithRSAEncryption
         7f:01:6c:6e:3d:32:59:44:1f:77:3d:16:41:1e:43:32:45:4c:
         9f:b8:d7:f9:c1:8b:d5:76:8b:82:42:80:3e:8d:22:fc:b0:6d:
         35:c8:6b:48:db:7d:37:f1:4b:f3:11:f6:d2:37:61:a0:0c:4c:
         4a:9c:32:70:1a:af:f4:ba:d5:72:98:f5:18:6a:1f:b6:f9:2b:
         71:d5:21:4a:b1:20:67:5c:79:cc:d4:ba:91:32:84:cf:ad:c6:
         8c:6d:5f:2f:05:9a:b3:fa:ae:75:b5:e2:73:7d:e6:da:39:66:
         c2:33:22:a6:37:37:c2:64:0d:db:03:88:50:72:61:aa:13:04:
         4a:50:c7:17:5a:ee:57:af:62:f4:eb:bf:42:0d:37:86:3c:2e:
         f0:6e:48:9a:66:c9:64:49:4e:04:20:02:67:46:d5:76:19:1d:
         87:c2:27:e3:78:67:ec:f7:ba:b6:33:2e:4b:9f:a1:45:86:ea:
         25:d0:86:ce:8f:ea:58:1e:1c:fe:c9:65:16:23:fc:8d:61:0a:
         2a:32:1f:67:c9:9d:eb:86:4c:77:da:2f:5b:62:55:10:22:51:
         07:9a:2e:1b:e3:c9:f6:7d:07:fa:be:4b:82:aa:28:2c:d8:dc:
         ce:84:31:07:9a:7b:b9:fe:9e:71:99:59:5c:7f:8f:dd:56:1d:
         67:f7:41:9c
-----BEGIN CERTIFICATE-----
MIIDXDCCAkSgAwIBAgIQEe8j4qjgiO5qcR5wHCbzvzANBgkqhkiG9w0BAQsFADAW
MRQwEgYDVQQDDAt0ZWFtNjE2LW5ldDAeFw0yMjA1MTgyMjQ3NTBaFw0yNTA1MDIy
MjQ3NTBaMBkxFzAVBgNVBAMMDnRlYW02MTYtY2xpZW50MIIBIjANBgkqhkiG9w0B
AQEFAAOCAQ8AMIIBCgKCAQEA2Km0SUlwUoTGJhB15Qh52ZKrqP4f5CRuwBZYKP6U
7gAfS5PJVZHOyx6SX3SU2dPseW2bbhofiPkdxSwd4wpFQvH/W55a4knqdzDrcYuG
W5uAQxjTWtVErDKUXRw4h8NTyxcFucjVfHHzk3Nw6l58fybEwFcqgMn2ZqwwBmJ6
FoMK4Ppjd91Qb1sMvzBAowwUxP2gbmR7PGuswKsdCe4fXJKjU9xSw+X/jHWukW6f
VyXoSZIJr0vUpHaVDy41bX/WkF5Y4ezp2REzi5O0yZlfPdoc04FBToEqg863vLUc
QYhHA8PwAUymEdF8WXm1SEOsl459bXAkDslVEP/hy+O0DwIDAQABo4GiMIGfMAkG
A1UdEwQCMAAwHQYDVR0OBBYEFD7xQMLcPG8zOXl0yGZxvfNQBwbQMFEGA1UdIwRK
MEiAFCaAelNOiaZGYh4Q3BFFQVthMG0roRqkGDAWMRQwEgYDVQQDDAt0ZWFtNjE2
LW5ldIIUUwTgs5IYjviyBv5FTJu634FC7YkwEwYDVR0lBAwwCgYIKwYBBQUHAwIw
CwYDVR0PBAQDAgeAMA0GCSqGSIb3DQEBCwUAA4IBAQB/AWxuPTJZRB93PRZBHkMy
RUyfuNf5wYvVdouCQoA+jSL8sG01yGtI23038UvzEfbSN2GgDExKnDJwGq/0utVy
mPUYah+2+Stx1SFKsSBnXHnM1LqRMoTPrcaMbV8vBZqz+q51teJzfebaOWbCMyKm
NzfCZA3bA4hQcmGqEwRKUMcXWu5Xr2L0679CDTeGPC7wbkiaZslkSU4EIAJnRtV2
GR2HwifjeGfs97q2My5Ln6FFhuol0IbOj+pYHhz+yWUWI/yNYQoqMh9nyZ3rhkx3
2i9bYlUQIlEHmi4b48n2fQf6vkuCqigs2NzOhDEHmnu5/p5xmVlcf4/dVh1n90Gc
-----END CERTIFICATE-----
