Certificate:
    Data:
        Version: 3 (0x2)
        Serial Number:
            ab:84:bd:bf:32:46:13:6c:08:0b:76:d4:29:de:ef:ce
        Signature Algorithm: sha256WithRSAEncryption
        Issuer: CN=team616-net
        Validity
            Not Before: May 18 22:47:50 2022 GMT
            Not After : May  2 22:47:50 2025 GMT
        Subject: CN=team616-server
        Subject Public Key Info:
            Public Key Algorithm: rsaEncryption
                RSA Public-Key: (2048 bit)
                Modulus:
                    00:c2:55:f8:84:0f:cb:4b:b4:4b:6d:2d:aa:0a:7c:
                    33:73:3b:04:ac:59:73:3f:fb:29:20:82:c4:91:38:
                    bf:fc:64:f1:2a:b9:4f:a6:25:17:87:49:53:82:6d:
                    df:1d:ba:3c:f6:fe:68:bf:e9:f8:37:90:9e:fa:8c:
                    b9:20:e9:7b:5f:d5:ce:06:9d:34:a4:86:5c:47:82:
                    15:6f:3c:8f:6e:1d:e6:b2:13:7a:21:ed:50:7e:e9:
                    3e:18:3e:5a:11:a8:c1:8d:d0:9c:6e:20:40:82:19:
                    01:7a:c1:fa:fa:c4:4d:6d:3a:33:dd:37:6e:b0:8f:
                    bd:f0:9a:37:80:a9:ae:39:f6:cc:dd:56:d0:a9:64:
                    1b:47:20:04:25:c5:ef:78:fe:b1:7c:b8:dc:95:31:
                    bf:db:4d:7d:30:0d:c3:c7:8b:3a:db:e3:ef:ea:8b:
                    ed:1c:79:46:c0:5b:12:ff:4b:3e:f5:dd:64:18:22:
                    d9:22:15:de:d7:05:96:88:51:9a:ce:7a:ae:4c:ea:
                    28:31:23:95:77:68:d3:f8:13:92:e9:a4:dc:43:a3:
                    d6:3a:0b:4e:d8:21:65:30:85:5f:ae:92:81:cc:8b:
                    f6:99:26:bc:52:e8:ad:77:df:c2:57:6a:f5:53:4c:
                    0a:7c:41:68:2f:4e:b2:ac:db:fd:c7:88:fc:50:22:
                    f8:4b
                Exponent: 65537 (0x10001)
        X509v3 extensions:
            X509v3 Basic Constraints: 
                CA:FALSE
            X509v3 Subject Key Identifier: 
                8A:A4:71:41:93:C6:7D:62:1F:67:CB:F4:64:EB:EB:57:F0:5E:3A:62
            X509v3 Authority Key Identifier: 
                keyid:26:80:7A:53:4E:89:A6:46:62:1E:10:DC:11:45:41:5B:61:30:6D:2B
                DirName:/CN=team616-net
                serial:53:04:E0:B3:92:18:8E:F8:B2:06:FE:45:4C:9B:BA:DF:81:42:ED:89

            X509v3 Extended Key Usage: 
                TLS Web Server Authentication
            X509v3 Key Usage: 
                Digital Signature, Key Encipherment
            X509v3 Subject Alternative Name: 
                DNS:team616-server
    Signature Algorithm: sha256WithRSAEncryption
         92:25:01:15:3f:42:23:52:cd:2c:93:a4:8e:83:c6:90:b4:f3:
         9a:55:83:49:60:e3:e1:27:33:d7:d1:7f:a7:6c:ea:7d:55:b9:
         72:dc:84:e3:59:ba:f5:d7:95:a7:7e:73:10:e4:19:99:72:48:
         82:a8:0a:9b:b6:06:e7:12:d3:de:11:a5:52:72:4d:3a:69:79:
         d8:73:c2:fb:bc:ef:2c:71:13:9b:36:8c:47:e4:3c:8d:21:36:
         9c:5c:97:d4:3f:d6:eb:84:d6:d7:b8:cb:d6:d7:c1:36:13:63:
         0e:8b:c1:48:54:57:e9:95:91:4c:a0:9b:99:fa:a8:27:c2:2a:
         5a:ef:66:b3:95:f3:91:f7:6d:45:1c:4d:2f:1d:ba:d0:8d:62:
         88:54:b6:d9:36:e9:1a:33:d3:eb:92:96:6a:d2:85:1c:f4:09:
         db:38:73:73:7f:71:42:2d:4d:09:a0:84:37:f3:6f:a6:7e:13:
         08:f6:98:9e:d7:df:c4:65:cd:15:33:8f:82:99:ff:a7:e8:da:
         4a:01:45:8b:ed:fe:e6:67:7d:39:d2:79:e1:8e:b5:0f:e4:32:
         38:3d:35:e3:e8:05:31:1b:25:72:7c:71:e4:f2:41:ec:52:7f:
         44:d1:9b:e7:cb:0e:71:9f:f7:ac:b6:9c:fb:b0:7d:9a:1f:d9:
         e8:4a:1b:fb
-----BEGIN CERTIFICATE-----
MIIDeDCCAmCgAwIBAgIRAKuEvb8yRhNsCAt21Cne784wDQYJKoZIhvcNAQELBQAw
FjEUMBIGA1UEAwwLdGVhbTYxNi1uZXQwHhcNMjIwNTE4MjI0NzUwWhcNMjUwNTAy
MjI0NzUwWjAZMRcwFQYDVQQDDA50ZWFtNjE2LXNlcnZlcjCCASIwDQYJKoZIhvcN
AQEBBQADggEPADCCAQoCggEBAMJV+IQPy0u0S20tqgp8M3M7BKxZcz/7KSCCxJE4
v/xk8Sq5T6YlF4dJU4Jt3x26PPb+aL/p+DeQnvqMuSDpe1/VzgadNKSGXEeCFW88
j24d5rITeiHtUH7pPhg+WhGowY3QnG4gQIIZAXrB+vrETW06M903brCPvfCaN4Cp
rjn2zN1W0KlkG0cgBCXF73j+sXy43JUxv9tNfTANw8eLOtvj7+qL7Rx5RsBbEv9L
PvXdZBgi2SIV3tcFlohRms56rkzqKDEjlXdo0/gTkumk3EOj1joLTtghZTCFX66S
gcyL9pkmvFLorXffwldq9VNMCnxBaC9Osqzb/ceI/FAi+EsCAwEAAaOBvTCBujAJ
BgNVHRMEAjAAMB0GA1UdDgQWBBSKpHFBk8Z9Yh9ny/Rk6+tX8F46YjBRBgNVHSME
SjBIgBQmgHpTTommRmIeENwRRUFbYTBtK6EapBgwFjEUMBIGA1UEAwwLdGVhbTYx
Ni1uZXSCFFME4LOSGI74sgb+RUybut+BQu2JMBMGA1UdJQQMMAoGCCsGAQUFBwMB
MAsGA1UdDwQEAwIFoDAZBgNVHREEEjAQgg50ZWFtNjE2LXNlcnZlcjANBgkqhkiG
9w0BAQsFAAOCAQEAkiUBFT9CI1LNLJOkjoPGkLTzmlWDSWDj4Scz19F/p2zqfVW5
ctyE41m69deVp35zEOQZmXJIgqgKm7YG5xLT3hGlUnJNOml52HPC+7zvLHETmzaM
R+Q8jSE2nFyX1D/W64TW17jL1tfBNhNjDovBSFRX6ZWRTKCbmfqoJ8IqWu9ms5Xz
kfdtRRxNLx260I1iiFS22TbpGjPT65KWatKFHPQJ2zhzc39xQi1NCaCEN/Nvpn4T
CPaYntffxGXNFTOPgpn/p+jaSgFFi+3+5md9OdJ54Y61D+QyOD014+gFMRslcnxx
5PJB7FJ/RNGb58sOcZ/3rLac+7B9mh/Z6Eob+w==
-----END CERTIFICATE-----
