Certificate:
    Data:
        Version: 3 (0x2)
        Serial Number:
            47:56:be:d7:1d:64:3f:ce:a0:81:18:c3:47:01:47:e7
        Signature Algorithm: sha256WithRSAEncryption
        Issuer: CN=team754-net
        Validity
            Not Before: May 19 00:06:45 2022 GMT
            Not After : May  3 00:06:45 2025 GMT
        Subject: CN=team754-server
        Subject Public Key Info:
            Public Key Algorithm: rsaEncryption
                RSA Public-Key: (2048 bit)
                Modulus:
                    00:d9:22:83:18:f7:cd:6a:cd:a4:4e:4c:f1:32:76:
                    8a:53:15:ce:3d:f0:48:12:3f:f7:6c:e1:57:71:db:
                    ba:ff:69:0b:b2:4e:16:5e:8f:00:00:29:47:35:e3:
                    34:21:6f:91:99:0f:41:73:c4:a8:ef:a8:e6:af:63:
                    10:ac:12:73:57:e0:b6:81:81:6a:01:9e:84:f1:f1:
                    dd:98:cf:b8:92:44:92:b3:00:af:81:f8:b2:9c:df:
                    0a:e6:83:cb:61:25:48:fd:0d:89:b4:52:0a:97:14:
                    1a:c5:36:6d:80:81:28:9b:8d:69:a5:43:22:14:b7:
                    40:70:f4:18:24:21:93:e6:77:ad:0b:83:f8:4c:e2:
                    36:91:dc:ce:a9:20:bd:85:d2:ac:e8:97:69:cf:2d:
                    ac:c9:30:fe:ce:07:f8:d6:f8:ef:32:4b:c5:e5:0d:
                    2a:d9:95:fb:96:80:0c:94:52:f2:09:01:d7:25:83:
                    49:74:71:be:e9:74:2d:6c:26:ec:74:12:ed:5c:7b:
                    e3:38:fd:a9:d7:77:fb:e7:71:7c:a2:98:c6:be:71:
                    d6:fb:68:8a:2f:bb:63:4b:cd:a9:75:42:a2:7a:29:
                    24:29:d2:3d:db:eb:50:03:a4:8a:c0:f7:78:fa:d8:
                    7e:4d:43:4e:2f:24:5f:2e:20:a8:28:09:d9:20:13:
                    6b:2b
                Exponent: 65537 (0x10001)
        X509v3 extensions:
            X509v3 Basic Constraints: 
                CA:FALSE
            X509v3 Subject Key Identifier: 
                8C:CE:5A:C8:98:85:FE:9A:86:8A:06:D5:F4:A8:8E:46:3A:93:48:D3
            X509v3 Authority Key Identifier: 
                keyid:71:67:33:E9:50:E0:6B:6D:2A:BF:15:95:25:DB:06:88:07:31:8B:30
                DirName:/CN=team754-net
                serial:6D:C5:F9:1B:F2:E7:48:7D:50:1E:5D:23:B7:6B:B5:A5:A6:4F:0A:78

            X509v3 Extended Key Usage: 
                TLS Web Server Authentication
            X509v3 Key Usage: 
                Digital Signature, Key Encipherment
            X509v3 Subject Alternative Name: 
                DNS:team754-server
    Signature Algorithm: sha256WithRSAEncryption
         94:af:ea:8b:b3:cb:0a:f9:41:08:3a:7b:a5:99:73:31:c0:26:
         1f:24:ad:55:60:8b:b0:c9:37:c1:cb:97:0a:81:fe:84:b8:f9:
         a7:9d:f5:83:2a:71:b2:b0:f2:49:e1:21:ad:66:31:7d:9e:ed:
         70:ae:01:24:f9:ed:6f:ee:74:a6:de:c6:85:2f:eb:33:63:48:
         60:c3:55:0c:c2:d9:20:20:13:09:42:2a:fc:a8:58:3e:ec:55:
         d2:ac:96:e4:ed:a9:dc:00:bc:c1:49:f9:54:f6:51:7c:70:3c:
         aa:42:9e:6b:61:a6:45:d0:a1:37:36:b6:6f:2f:93:67:01:11:
         42:d8:66:d1:c9:91:8b:80:77:29:0b:b5:5e:17:7e:7f:51:be:
         f1:a7:39:25:5a:df:ba:bf:92:2f:16:2e:03:70:0e:44:5d:55:
         6b:91:dc:31:2b:8a:2f:5c:69:38:39:f5:07:18:6b:c8:58:32:
         da:6c:71:9e:a5:a1:18:d7:81:0a:51:b7:25:2e:bb:60:6f:83:
         ba:4d:3a:0e:e7:e7:c8:cb:86:55:d1:db:17:c8:71:84:ec:88:
         07:a0:83:80:fd:97:85:7a:0f:e5:19:12:ac:f8:ef:0c:3a:67:
         b3:cb:04:17:64:84:19:bc:d8:3f:71:d9:51:e8:fa:f1:c0:1a:
         84:64:81:d1
-----BEGIN CERTIFICATE-----
MIIDdzCCAl+gAwIBAgIQR1a+1x1kP86ggRjDRwFH5zANBgkqhkiG9w0BAQsFADAW
MRQwEgYDVQQDDAt0ZWFtNzU0LW5ldDAeFw0yMjA1MTkwMDA2NDVaFw0yNTA1MDMw
MDA2NDVaMBkxFzAVBgNVBAMMDnRlYW03NTQtc2VydmVyMIIBIjANBgkqhkiG9w0B
AQEFAAOCAQ8AMIIBCgKCAQEA2SKDGPfNas2kTkzxMnaKUxXOPfBIEj/3bOFXcdu6
/2kLsk4WXo8AAClHNeM0IW+RmQ9Bc8So76jmr2MQrBJzV+C2gYFqAZ6E8fHdmM+4
kkSSswCvgfiynN8K5oPLYSVI/Q2JtFIKlxQaxTZtgIEom41ppUMiFLdAcPQYJCGT
5netC4P4TOI2kdzOqSC9hdKs6Jdpzy2syTD+zgf41vjvMkvF5Q0q2ZX7loAMlFLy
CQHXJYNJdHG+6XQtbCbsdBLtXHvjOP2p13f753F8opjGvnHW+2iKL7tjS82pdUKi
eikkKdI92+tQA6SKwPd4+th+TUNOLyRfLiCoKAnZIBNrKwIDAQABo4G9MIG6MAkG
A1UdEwQCMAAwHQYDVR0OBBYEFIzOWsiYhf6ahooG1fSojkY6k0jTMFEGA1UdIwRK
MEiAFHFnM+lQ4GttKr8VlSXbBogHMYswoRqkGDAWMRQwEgYDVQQDDAt0ZWFtNzU0
LW5ldIIUbcX5G/LnSH1QHl0jt2u1paZPCngwEwYDVR0lBAwwCgYIKwYBBQUHAwEw
CwYDVR0PBAQDAgWgMBkGA1UdEQQSMBCCDnRlYW03NTQtc2VydmVyMA0GCSqGSIb3
DQEBCwUAA4IBAQCUr+qLs8sK+UEIOnulmXMxwCYfJK1VYIuwyTfBy5cKgf6EuPmn
nfWDKnGysPJJ4SGtZjF9nu1wrgEk+e1v7nSm3saFL+szY0hgw1UMwtkgIBMJQir8
qFg+7FXSrJbk7ancALzBSflU9lF8cDyqQp5rYaZF0KE3NrZvL5NnARFC2GbRyZGL
gHcpC7VeF35/Ub7xpzklWt+6v5IvFi4DcA5EXVVrkdwxK4ovXGk4OfUHGGvIWDLa
bHGepaEY14EKUbclLrtgb4O6TToO5+fIy4ZV0dsXyHGE7IgHoIOA/ZeFeg/lGRKs
+O8MOmezywQXZIQZvNg/cdlR6PrxwBqEZIHR
-----END CERTIFICATE-----
