Certificate:
    Data:
        Version: 3 (0x2)
        Serial Number:
            ce:e2:68:7b:05:93:37:09:98:b7:b5:25:c9:0e:1d:77
        Signature Algorithm: sha256WithRSAEncryption
        Issuer: CN=team230-net
        Validity
            Not Before: May 18 19:19:31 2022 GMT
            Not After : May  2 19:19:31 2025 GMT
        Subject: CN=team230-client
        Subject Public Key Info:
            Public Key Algorithm: rsaEncryption
                RSA Public-Key: (2048 bit)
                Modulus:
                    00:9c:db:27:61:64:5b:20:c7:e4:5b:e7:a9:8c:31:
                    d5:ec:d1:1f:7a:22:a3:05:4c:8a:3b:b9:fe:e7:82:
                    92:06:a2:14:e9:f5:f2:d7:7c:1d:8b:ea:cd:8c:0d:
                    13:79:3a:57:ca:ad:52:b4:0d:0f:0d:2e:7c:e7:ad:
                    bc:4a:9a:30:8a:80:57:8b:06:7e:e4:b9:95:3a:f7:
                    a2:4d:c5:d1:4d:c2:3f:62:5c:0d:ef:4c:36:a8:e2:
                    c0:06:2a:1f:b7:5e:7c:07:91:13:9f:bd:45:45:9e:
                    0e:0b:09:b0:07:16:84:96:8e:3f:42:2a:03:66:11:
                    9f:36:ce:79:c0:7a:04:63:f1:47:f2:c8:b9:d2:b7:
                    17:0d:81:bd:29:10:1a:14:e0:44:2b:2c:1d:07:e1:
                    e4:5b:e7:e6:9b:1a:c6:04:e2:c6:36:3c:b1:af:32:
                    39:53:38:79:c9:18:fc:ea:89:63:86:85:10:bd:75:
                    79:71:c6:b1:38:c9:09:11:69:3a:c2:0f:81:ba:29:
                    9c:7c:0d:52:82:09:2c:06:47:14:16:28:00:45:6d:
                    04:ba:d7:15:ec:2e:2e:94:37:5c:42:50:7b:b0:61:
                    6f:b9:f4:20:bc:24:56:ab:06:8e:67:9d:b0:bf:65:
                    73:bc:83:c0:25:07:58:c4:25:5c:ad:b2:8f:9c:e0:
                    62:07
                Exponent: 65537 (0x10001)
        X509v3 extensions:
            X509v3 Basic Constraints: 
                CA:FALSE
            X509v3 Subject Key Identifier: 
                9B:BC:D7:C3:9A:AE:2D:D9:5B:3D:D8:1E:6A:49:19:73:71:F3:30:08
            X509v3 Authority Key Identifier: 
                keyid:F0:9A:5B:DC:3A:CD:C1:56:21:BB:7A:1F:3D:AB:20:47:34:31:C1:FE
                DirName:/CN=team230-net
                serial:74:1D:23:4B:E2:17:B3:EB:4A:F6:62:45:A8:C9:DC:BB:3A:B4:86:70

            X509v3 Extended Key Usage: 
                TLS Web Client Authentication
            X509v3 Key Usage: 
                Digital Signature
    Signature Algorithm: sha256WithRSAEncryption
         73:f5:c9:c2:43:61:64:33:0a:39:5e:d0:01:36:15:3f:1b:1b:
         2f:3d:6f:47:a9:0b:45:f1:00:eb:18:49:ad:da:a9:93:08:d2:
         29:79:58:20:d8:af:13:81:74:36:85:d5:8d:28:ee:87:f8:b5:
         96:1a:1b:9f:f3:63:a7:fa:e6:15:f6:4c:74:2c:29:b9:36:3d:
         b3:a4:13:63:9e:dc:60:5b:5e:0b:33:94:cb:84:ea:73:fd:cc:
         5a:5b:27:08:ad:fc:53:8c:d5:cb:6c:75:ad:fc:21:cf:00:a6:
         03:de:2c:d0:5b:c5:ed:c7:ec:6e:8d:25:cb:d5:c4:d6:05:14:
         3a:ba:7b:2d:48:b4:37:dc:62:bd:72:5c:e0:92:81:d2:a3:bb:
         2e:01:2c:24:8b:7a:75:b4:86:41:05:a2:c6:26:00:60:c2:71:
         03:f3:9e:63:19:8e:ed:b6:66:c6:78:b5:c4:49:93:fe:76:0e:
         65:1a:4d:a7:ff:14:09:70:99:cd:62:e4:98:a9:cc:d1:b2:1d:
         9a:d4:de:19:57:08:bd:6c:1f:8f:07:57:07:7f:b3:69:1e:67:
         16:9f:08:bc:f7:77:99:72:e1:b7:2a:d8:71:79:bf:31:24:d7:
         4f:17:00:3a:3a:f0:ba:73:75:7b:de:00:e5:80:43:0e:8b:20:
         e9:d8:a7:9a
-----BEGIN CERTIFICATE-----
MIIDXTCCAkWgAwIBAgIRAM7iaHsFkzcJmLe1JckOHXcwDQYJKoZIhvcNAQELBQAw
FjEUMBIGA1UEAwwLdGVhbTIzMC1uZXQwHhcNMjIwNTE4MTkxOTMxWhcNMjUwNTAy
MTkxOTMxWjAZMRcwFQYDVQQDDA50ZWFtMjMwLWNsaWVudDCCASIwDQYJKoZIhvcN
AQEBBQADggEPADCCAQoCggEBAJzbJ2FkWyDH5FvnqYwx1ezRH3oiowVMiju5/ueC
kgaiFOn18td8HYvqzYwNE3k6V8qtUrQNDw0ufOetvEqaMIqAV4sGfuS5lTr3ok3F
0U3CP2JcDe9MNqjiwAYqH7defAeRE5+9RUWeDgsJsAcWhJaOP0IqA2YRnzbOecB6
BGPxR/LIudK3Fw2BvSkQGhTgRCssHQfh5Fvn5psaxgTixjY8sa8yOVM4eckY/OqJ
Y4aFEL11eXHGsTjJCRFpOsIPgbopnHwNUoIJLAZHFBYoAEVtBLrXFewuLpQ3XEJQ
e7Bhb7n0ILwkVqsGjmedsL9lc7yDwCUHWMQlXK2yj5zgYgcCAwEAAaOBojCBnzAJ
BgNVHRMEAjAAMB0GA1UdDgQWBBSbvNfDmq4t2Vs92B5qSRlzcfMwCDBRBgNVHSME
SjBIgBTwmlvcOs3BViG7eh89qyBHNDHB/qEapBgwFjEUMBIGA1UEAwwLdGVhbTIz
MC1uZXSCFHQdI0viF7PrSvZiRajJ3Ls6tIZwMBMGA1UdJQQMMAoGCCsGAQUFBwMC
MAsGA1UdDwQEAwIHgDANBgkqhkiG9w0BAQsFAAOCAQEAc/XJwkNhZDMKOV7QATYV
PxsbLz1vR6kLRfEA6xhJrdqpkwjSKXlYINivE4F0NoXVjSjuh/i1lhobn/Njp/rm
FfZMdCwpuTY9s6QTY57cYFteCzOUy4Tqc/3MWlsnCK38U4zVy2x1rfwhzwCmA94s
0FvF7cfsbo0ly9XE1gUUOrp7LUi0N9xivXJc4JKB0qO7LgEsJIt6dbSGQQWixiYA
YMJxA/OeYxmO7bZmxni1xEmT/nYOZRpNp/8UCXCZzWLkmKnM0bIdmtTeGVcIvWwf
jwdXB3+zaR5nFp8IvPd3mXLhtyrYcXm/MSTXTxcAOjrwunN1e94A5YBDDosg6din
mg==
-----END CERTIFICATE-----
