Certificate:
    Data:
        Version: 3 (0x2)
        Serial Number:
            18:b4:e7:ba:45:17:48:81:35:6a:99:19:50:e4:08:c5
        Signature Algorithm: sha256WithRSAEncryption
        Issuer: CN=team512-net
        Validity
            Not Before: May 18 22:00:13 2022 GMT
            Not After : May  2 22:00:13 2025 GMT
        Subject: CN=team512-client
        Subject Public Key Info:
            Public Key Algorithm: rsaEncryption
                RSA Public-Key: (2048 bit)
                Modulus:
                    00:ab:0a:43:76:76:ef:c0:52:3c:f1:fa:2c:e6:a2:
                    03:c0:f3:a9:8f:74:75:ff:2b:f5:99:6c:60:6c:79:
                    af:69:80:cc:e9:36:dd:0d:52:dd:db:a7:06:0f:8f:
                    f0:06:7f:19:ed:9b:bd:35:f9:13:4e:6a:c2:69:5e:
                    fe:b4:e2:0f:1e:82:66:35:34:0d:89:d7:a8:91:31:
                    a2:31:83:18:65:38:03:fc:72:f5:b9:b9:05:a5:3a:
                    71:31:46:63:de:8a:4b:cc:1a:e5:01:4f:c4:05:f5:
                    c6:ee:cd:92:ad:45:ca:db:c3:72:5d:28:28:3b:d6:
                    ed:d1:d3:91:ba:bb:d9:70:da:05:9d:b9:bb:d0:ca:
                    b0:bc:ee:e9:3f:be:da:27:9b:71:c8:01:4a:99:9b:
                    ac:5d:c0:f2:94:40:eb:2c:fa:0c:0c:bb:53:e5:70:
                    0e:57:54:a4:96:7e:ff:54:92:2d:0e:1a:2a:92:f0:
                    27:7d:d7:bc:c4:05:5a:e2:4c:8c:73:8a:8a:7a:3c:
                    13:fd:2e:ce:72:c4:cc:2f:19:9f:f2:f3:43:e0:89:
                    e2:f7:75:79:02:67:a3:9a:60:c4:0c:8d:39:39:b9:
                    d6:73:72:66:0c:af:83:b9:32:3c:d1:d7:89:7f:f3:
                    27:13:b6:d9:c4:b7:15:03:ed:75:d7:a1:77:6c:c1:
                    5f:a3
                Exponent: 65537 (0x10001)
        X509v3 extensions:
            X509v3 Basic Constraints: 
                CA:FALSE
            X509v3 Subject Key Identifier: 
                AC:89:3E:67:3B:AA:F4:59:D4:8B:4C:11:7A:72:33:92:9E:1C:CC:2D
            X509v3 Authority Key Identifier: 
                keyid:5B:7E:A6:42:39:CD:2C:F8:3A:C9:4D:1F:12:7F:0D:99:0D:3A:80:A1
                DirName:/CN=team512-net
                serial:30:EB:FE:C1:AB:AC:4F:63:30:DD:93:DD:43:BE:79:DA:53:66:8D:83

            X509v3 Extended Key Usage: 
                TLS Web Client Authentication
            X509v3 Key Usage: 
                Digital Signature
    Signature Algorithm: sha256WithRSAEncryption
         27:7f:98:62:53:46:9b:0e:07:7c:59:e0:c5:ac:0b:7b:f7:16:
         f5:a2:6f:6e:27:d7:4f:9d:11:d4:76:3c:e0:c5:87:fd:b5:6e:
         9f:13:51:26:02:85:98:f7:ae:15:4d:fa:1f:94:11:25:42:c7:
         f9:c4:68:b7:7a:3c:01:d2:b2:c8:65:15:dd:ab:49:b4:6e:71:
         4e:3c:b7:57:51:96:e5:9c:8c:dc:54:42:04:22:b6:fa:98:1a:
         53:50:19:b9:13:3d:dd:ed:e9:a6:cb:e9:63:9a:f1:1e:55:92:
         59:9e:37:bc:98:ef:61:c9:f2:d9:85:eb:8e:ef:20:67:d8:ce:
         46:3d:e4:78:69:43:a5:bc:48:08:b4:e8:4d:82:ac:d4:85:98:
         f8:6b:34:ef:04:75:75:ab:33:fe:89:00:19:9a:47:ef:d9:f1:
         66:b6:bb:a1:98:a8:02:55:3b:68:74:7b:6f:ec:f7:92:9b:22:
         4c:9b:1b:ab:e0:d9:a8:f2:4d:45:83:a4:80:c3:97:9a:1d:63:
         8d:59:b8:26:c7:65:ab:a3:bc:e9:fe:10:e1:79:b7:9d:9f:fb:
         af:ee:4e:d3:3d:66:20:9c:1f:44:dd:10:aa:6c:2f:c9:0a:42:
         05:6b:d6:13:6d:e2:ff:e8:fb:9d:66:a8:ba:4d:c1:35:fc:92:
         d7:76:80:be
-----BEGIN CERTIFICATE-----
MIIDXDCCAkSgAwIBAgIQGLTnukUXSIE1apkZUOQIxTANBgkqhkiG9w0BAQsFADAW
MRQwEgYDVQQDDAt0ZWFtNTEyLW5ldDAeFw0yMjA1MTgyMjAwMTNaFw0yNTA1MDIy
MjAwMTNaMBkxFzAVBgNVBAMMDnRlYW01MTItY2xpZW50MIIBIjANBgkqhkiG9w0B
AQEFAAOCAQ8AMIIBCgKCAQEAqwpDdnbvwFI88fos5qIDwPOpj3R1/yv1mWxgbHmv
aYDM6TbdDVLd26cGD4/wBn8Z7Zu9NfkTTmrCaV7+tOIPHoJmNTQNideokTGiMYMY
ZTgD/HL1ubkFpTpxMUZj3opLzBrlAU/EBfXG7s2SrUXK28NyXSgoO9bt0dORurvZ
cNoFnbm70MqwvO7pP77aJ5txyAFKmZusXcDylEDrLPoMDLtT5XAOV1Skln7/VJIt
DhoqkvAnfde8xAVa4kyMc4qKejwT/S7OcsTMLxmf8vND4Ini93V5AmejmmDEDI05
ObnWc3JmDK+DuTI80deJf/MnE7bZxLcVA+1116F3bMFfowIDAQABo4GiMIGfMAkG
A1UdEwQCMAAwHQYDVR0OBBYEFKyJPmc7qvRZ1ItMEXpyM5KeHMwtMFEGA1UdIwRK
MEiAFFt+pkI5zSz4OslNHxJ/DZkNOoChoRqkGDAWMRQwEgYDVQQDDAt0ZWFtNTEy
LW5ldIIUMOv+wausT2Mw3ZPdQ7552lNmjYMwEwYDVR0lBAwwCgYIKwYBBQUHAwIw
CwYDVR0PBAQDAgeAMA0GCSqGSIb3DQEBCwUAA4IBAQAnf5hiU0abDgd8WeDFrAt7
9xb1om9uJ9dPnRHUdjzgxYf9tW6fE1EmAoWY964VTfoflBElQsf5xGi3ejwB0rLI
ZRXdq0m0bnFOPLdXUZblnIzcVEIEIrb6mBpTUBm5Ez3d7emmy+ljmvEeVZJZnje8
mO9hyfLZheuO7yBn2M5GPeR4aUOlvEgItOhNgqzUhZj4azTvBHV1qzP+iQAZmkfv
2fFmtruhmKgCVTtodHtv7PeSmyJMmxur4Nmo8k1Fg6SAw5eaHWONWbgmx2Wro7zp
/hDhebedn/uv7k7TPWYgnB9E3RCqbC/JCkIFa9YTbeL/6PudZqi6TcE1/JLXdoC+
-----END CERTIFICATE-----
