Certificate:
    Data:
        Version: 3 (0x2)
        Serial Number:
            b1:86:d7:e3:05:eb:7a:1e:e7:86:8e:4b:b7:c2:54:96
        Signature Algorithm: sha256WithRSAEncryption
        Issuer: CN=team512-net
        Validity
            Not Before: May 18 22:00:13 2022 GMT
            Not After : May  2 22:00:13 2025 GMT
        Subject: CN=team512-server
        Subject Public Key Info:
            Public Key Algorithm: rsaEncryption
                RSA Public-Key: (2048 bit)
                Modulus:
                    00:ba:c2:6a:f8:6d:0f:a9:09:42:5c:70:af:64:51:
                    0f:8d:c4:0c:ca:78:75:34:58:5d:c8:29:e8:78:c8:
                    3a:08:a8:ef:46:0b:d1:18:c4:a2:7e:d0:f4:bc:1a:
                    cf:39:54:4d:6b:e1:9b:5f:13:f6:03:6d:10:d8:79:
                    b9:a0:5c:b7:54:e2:47:09:04:8f:fb:f3:6d:a2:51:
                    f7:2b:0e:7d:95:0e:fe:55:f5:ca:8c:50:d2:78:1d:
                    37:30:41:a0:f5:f5:03:37:c4:d0:5b:d0:54:70:77:
                    5f:40:9c:48:e2:7b:cd:38:d0:4d:07:ac:56:fc:28:
                    7e:74:0f:9e:ea:d1:ce:87:e7:ee:85:ed:02:a3:59:
                    4e:5c:f8:f7:bf:3b:5d:61:5f:4d:e7:31:ec:a8:57:
                    40:c1:7a:db:94:f7:bd:63:33:2f:75:c7:f9:c6:7e:
                    43:ff:75:18:b8:2c:f3:c3:5b:61:a0:f4:a8:a2:a9:
                    ef:e1:b2:ce:03:17:78:7b:03:0f:d2:36:1f:22:2f:
                    57:22:f6:46:5c:6a:f0:16:4b:52:fe:c9:f7:0a:35:
                    0a:fa:31:93:58:53:d2:fc:b4:d2:72:50:98:91:62:
                    6d:b1:a7:e8:b5:24:24:10:58:4e:85:3b:a5:a1:de:
                    d1:10:ad:26:ac:49:2c:c9:3f:a1:91:1a:6e:c9:f4:
                    34:8b
                Exponent: 65537 (0x10001)
        X509v3 extensions:
            X509v3 Basic Constraints: 
                CA:FALSE
            X509v3 Subject Key Identifier: 
                37:E7:F3:BD:09:7A:9C:21:5D:0F:35:3E:40:19:78:07:9F:4E:C9:DF
            X509v3 Authority Key Identifier: 
                keyid:5B:7E:A6:42:39:CD:2C:F8:3A:C9:4D:1F:12:7F:0D:99:0D:3A:80:A1
                DirName:/CN=team512-net
                serial:30:EB:FE:C1:AB:AC:4F:63:30:DD:93:DD:43:BE:79:DA:53:66:8D:83

            X509v3 Extended Key Usage: 
                TLS Web Server Authentication
            X509v3 Key Usage: 
                Digital Signature, Key Encipherment
            X509v3 Subject Alternative Name: 
                DNS:team512-server
    Signature Algorithm: sha256WithRSAEncryption
         37:9d:01:76:f0:95:70:28:c5:13:da:6a:9c:ab:25:6f:3d:ba:
         3b:94:26:25:c6:a6:13:17:90:9a:f3:eb:9b:d3:ad:6c:85:bd:
         1f:b2:52:5f:0d:25:33:56:4d:6f:55:b7:01:e7:21:57:2b:90:
         73:b8:01:4f:05:14:bb:9e:3e:83:c3:3b:72:66:b4:0e:42:31:
         ab:6a:45:ab:06:48:39:26:07:d2:75:a2:c4:c2:50:2c:44:02:
         b4:99:9f:b8:b2:6f:13:01:1f:e2:b6:56:e6:f8:ef:d4:9d:0b:
         f6:b6:32:20:c9:81:9a:41:0f:9d:16:3d:da:69:3d:75:8c:18:
         fc:9b:59:48:68:a1:66:0b:7b:8a:e6:3d:d2:36:cd:9a:84:44:
         a7:fc:2c:e8:22:19:69:85:1f:24:ef:04:3a:d8:6d:ec:38:2c:
         2d:67:c0:a8:8d:4a:83:1c:04:40:d5:75:db:bc:a7:9a:58:fb:
         10:9b:ef:31:f5:0a:9d:99:41:56:4a:81:ae:af:b7:5d:e3:13:
         2b:d2:f1:46:22:67:fe:8c:1a:76:84:90:cd:4f:5f:f0:88:78:
         e5:c0:92:6a:d0:ce:59:2f:84:77:89:11:ec:6c:f3:bf:1d:b8:
         df:f3:6c:95:30:98:52:ac:cd:91:db:72:db:f0:0e:d2:43:60:
         81:b1:e4:78
-----BEGIN CERTIFICATE-----
MIIDeDCCAmCgAwIBAgIRALGG1+MF63oe54aOS7fCVJYwDQYJKoZIhvcNAQELBQAw
FjEUMBIGA1UEAwwLdGVhbTUxMi1uZXQwHhcNMjIwNTE4MjIwMDEzWhcNMjUwNTAy
MjIwMDEzWjAZMRcwFQYDVQQDDA50ZWFtNTEyLXNlcnZlcjCCASIwDQYJKoZIhvcN
AQEBBQADggEPADCCAQoCggEBALrCavhtD6kJQlxwr2RRD43EDMp4dTRYXcgp6HjI
Ogio70YL0RjEon7Q9LwazzlUTWvhm18T9gNtENh5uaBct1TiRwkEj/vzbaJR9ysO
fZUO/lX1yoxQ0ngdNzBBoPX1AzfE0FvQVHB3X0CcSOJ7zTjQTQesVvwofnQPnurR
zofn7oXtAqNZTlz49787XWFfTecx7KhXQMF625T3vWMzL3XH+cZ+Q/91GLgs88Nb
YaD0qKKp7+GyzgMXeHsDD9I2HyIvVyL2Rlxq8BZLUv7J9wo1Cvoxk1hT0vy00nJQ
mJFibbGn6LUkJBBYToU7paHe0RCtJqxJLMk/oZEabsn0NIsCAwEAAaOBvTCBujAJ
BgNVHRMEAjAAMB0GA1UdDgQWBBQ35/O9CXqcIV0PNT5AGXgHn07J3zBRBgNVHSME
SjBIgBRbfqZCOc0s+DrJTR8Sfw2ZDTqAoaEapBgwFjEUMBIGA1UEAwwLdGVhbTUx
Mi1uZXSCFDDr/sGrrE9jMN2T3UO+edpTZo2DMBMGA1UdJQQMMAoGCCsGAQUFBwMB
MAsGA1UdDwQEAwIFoDAZBgNVHREEEjAQgg50ZWFtNTEyLXNlcnZlcjANBgkqhkiG
9w0BAQsFAAOCAQEAN50BdvCVcCjFE9pqnKslbz26O5QmJcamExeQmvPrm9OtbIW9
H7JSXw0lM1ZNb1W3AechVyuQc7gBTwUUu54+g8M7cma0DkIxq2pFqwZIOSYH0nWi
xMJQLEQCtJmfuLJvEwEf4rZW5vjv1J0L9rYyIMmBmkEPnRY92mk9dYwY/JtZSGih
Zgt7iuY90jbNmoREp/ws6CIZaYUfJO8EOtht7DgsLWfAqI1KgxwEQNV127ynmlj7
EJvvMfUKnZlBVkqBrq+3XeMTK9LxRiJn/owadoSQzU9f8Ih45cCSatDOWS+Ed4kR
7Gzzvx243/NslTCYUqzNkdty2/AO0kNggbHkeA==
-----END CERTIFICATE-----
