Certificate:
    Data:
        Version: 3 (0x2)
        Serial Number:
            72:3d:86:7d:be:5c:b6:24:9c:8a:1f:86:18:95:35:1b
        Signature Algorithm: sha256WithRSAEncryption
        Issuer: CN=team48-net
        Validity
            Not Before: May 18 14:20:44 2022 GMT
            Not After : May  2 14:20:44 2025 GMT
        Subject: CN=team48-server
        Subject Public Key Info:
            Public Key Algorithm: rsaEncryption
                RSA Public-Key: (2048 bit)
                Modulus:
                    00:b0:75:e5:16:4e:cd:b9:80:4e:12:74:c0:7b:7b:
                    86:00:80:17:6d:69:3e:bf:97:28:a0:1c:5e:01:2b:
                    83:22:d3:de:87:ed:63:d7:ff:40:03:bf:70:74:70:
                    bd:8f:4e:25:88:7f:38:0a:ac:62:11:1c:63:92:16:
                    35:9d:0b:eb:72:3b:57:b0:17:71:7c:de:6e:d2:7b:
                    a0:28:05:11:e8:60:84:f0:08:2d:1c:fa:af:d5:f1:
                    44:0d:d2:60:a4:8c:92:41:18:f1:12:2e:95:a9:a5:
                    6a:18:1a:66:1f:6f:c9:44:a0:94:a7:39:43:ab:20:
                    fb:4d:55:b0:cf:f1:2c:b7:9a:50:36:cf:9e:d5:6c:
                    fc:53:1a:73:27:f8:92:90:e3:f8:d0:a8:72:dc:24:
                    49:17:13:f2:29:0a:73:bc:20:5e:b6:17:f2:93:71:
                    ee:51:ad:82:00:73:17:42:3e:b9:a8:d8:fa:f3:a6:
                    7b:ce:e9:4d:1e:7e:af:3e:f6:d3:10:3f:15:c7:44:
                    25:90:e4:8c:46:14:74:39:e5:db:1c:a5:cb:8b:c3:
                    62:82:54:7a:17:cc:11:b6:4e:63:36:a3:f7:d2:b2:
                    0d:12:4a:c8:31:70:27:df:af:03:1b:cd:a7:3c:52:
                    ad:99:9f:44:8f:0e:11:d4:5f:90:9a:78:93:f8:7a:
                    4e:d7
                Exponent: 65537 (0x10001)
        X509v3 extensions:
            X509v3 Basic Constraints: 
                CA:FALSE
            X509v3 Subject Key Identifier: 
                0C:1D:93:8D:CA:FC:0E:FC:1B:DC:6E:5F:51:75:B4:21:F8:34:76:0A
            X509v3 Authority Key Identifier: 
                keyid:85:0C:9D:B1:C4:9E:0D:F2:04:05:30:87:0A:3A:2F:A2:00:02:D0:FA
                DirName:/CN=team48-net
                serial:6D:14:94:A6:AD:59:D8:3E:28:4B:15:9D:03:DF:A2:0C:00:FC:40:74

            X509v3 Extended Key Usage: 
                TLS Web Server Authentication
            X509v3 Key Usage: 
                Digital Signature, Key Encipherment
            X509v3 Subject Alternative Name: 
                DNS:team48-server
    Signature Algorithm: sha256WithRSAEncryption
         82:f8:99:bd:56:90:1b:e3:46:96:7c:18:c1:0d:68:c7:9f:25:
         75:1e:f2:99:af:90:69:33:44:a2:04:a5:86:85:cf:88:a1:e2:
         49:85:58:bf:8f:dd:56:c8:ed:3f:49:5d:a3:4a:eb:bb:de:b7:
         33:67:ea:55:65:9b:7a:9a:76:cd:e7:3d:f1:4f:56:72:0c:6a:
         db:a7:05:c4:02:44:79:de:55:75:ca:a7:da:82:3d:91:48:d5:
         64:f2:ec:a2:20:86:87:9d:ee:59:55:a5:84:fe:a9:f8:20:e9:
         8d:8e:6f:37:e3:6c:3f:63:55:e7:59:9b:c5:d8:0e:f5:8b:17:
         94:47:4a:05:ad:56:98:a9:06:f3:c6:25:33:28:6d:ef:45:a4:
         63:d9:bd:ec:09:a1:d8:40:2c:4b:34:84:e9:83:b0:ad:f7:bf:
         e3:5a:c5:a7:92:ea:6f:71:d7:5a:4e:b6:86:7d:74:dc:cd:ec:
         91:3f:d0:19:39:5f:36:60:72:4d:c6:e8:47:a9:ec:f7:81:f9:
         03:42:e8:87:f0:28:ef:22:8a:ea:c5:f9:d0:4b:e2:b2:38:52:
         ef:eb:9a:84:fa:94:2a:e6:6c:1f:e6:36:91:4e:fb:f1:56:d2:
         d9:7d:cf:e2:f9:ad:41:fa:3a:41:4b:27:6c:fb:36:74:ff:86:
         39:d2:d0:29
-----BEGIN CERTIFICATE-----
MIIDczCCAlugAwIBAgIQcj2Gfb5ctiScih+GGJU1GzANBgkqhkiG9w0BAQsFADAV
MRMwEQYDVQQDDAp0ZWFtNDgtbmV0MB4XDTIyMDUxODE0MjA0NFoXDTI1MDUwMjE0
MjA0NFowGDEWMBQGA1UEAwwNdGVhbTQ4LXNlcnZlcjCCASIwDQYJKoZIhvcNAQEB
BQADggEPADCCAQoCggEBALB15RZOzbmAThJ0wHt7hgCAF21pPr+XKKAcXgErgyLT
3oftY9f/QAO/cHRwvY9OJYh/OAqsYhEcY5IWNZ0L63I7V7AXcXzebtJ7oCgFEehg
hPAILRz6r9XxRA3SYKSMkkEY8RIulamlahgaZh9vyUSglKc5Q6sg+01VsM/xLLea
UDbPntVs/FMacyf4kpDj+NCoctwkSRcT8ikKc7wgXrYX8pNx7lGtggBzF0I+uajY
+vOme87pTR5+rz720xA/FcdEJZDkjEYUdDnl2xyly4vDYoJUehfMEbZOYzaj99Ky
DRJKyDFwJ9+vAxvNpzxSrZmfRI8OEdRfkJp4k/h6TtcCAwEAAaOBuzCBuDAJBgNV
HRMEAjAAMB0GA1UdDgQWBBQMHZONyvwO/Bvcbl9RdbQh+DR2CjBQBgNVHSMESTBH
gBSFDJ2xxJ4N8gQFMIcKOi+iAALQ+qEZpBcwFTETMBEGA1UEAwwKdGVhbTQ4LW5l
dIIUbRSUpq1Z2D4oSxWdA9+iDAD8QHQwEwYDVR0lBAwwCgYIKwYBBQUHAwEwCwYD
VR0PBAQDAgWgMBgGA1UdEQQRMA+CDXRlYW00OC1zZXJ2ZXIwDQYJKoZIhvcNAQEL
BQADggEBAIL4mb1WkBvjRpZ8GMENaMefJXUe8pmvkGkzRKIEpYaFz4ih4kmFWL+P
3VbI7T9JXaNK67vetzNn6lVlm3qads3nPfFPVnIMatunBcQCRHneVXXKp9qCPZFI
1WTy7KIghoed7llVpYT+qfgg6Y2ObzfjbD9jVedZm8XYDvWLF5RHSgWtVpipBvPG
JTMobe9FpGPZvewJodhALEs0hOmDsK33v+NaxaeS6m9x11pOtoZ9dNzN7JE/0Bk5
XzZgck3G6Eep7PeB+QNC6IfwKO8iiurF+dBL4rI4Uu/rmoT6lCrmbB/mNpFO+/FW
0tl9z+L5rUH6OkFLJ2z7NnT/hjnS0Ck=
-----END CERTIFICATE-----
