Certificate:
    Data:
        Version: 3 (0x2)
        Serial Number:
            a4:a8:5d:f6:28:05:3e:37:7c:fd:b8:ab:a5:f4:0d:d8
        Signature Algorithm: sha256WithRSAEncryption
        Issuer: CN=team534-net
        Validity
            Not Before: May 18 22:10:22 2022 GMT
            Not After : May  2 22:10:22 2025 GMT
        Subject: CN=team534-server
        Subject Public Key Info:
            Public Key Algorithm: rsaEncryption
                RSA Public-Key: (2048 bit)
                Modulus:
                    00:a5:9c:91:1b:01:9b:79:90:93:68:dd:52:cf:79:
                    34:2b:47:8c:5b:04:3a:a5:71:b9:ed:ec:16:2e:a3:
                    5d:14:84:c2:f8:60:a2:87:3b:66:4e:7c:6a:82:86:
                    3f:36:fe:d1:d5:4c:ad:39:5b:d3:d5:9b:05:11:62:
                    cc:59:30:88:44:f2:dc:61:60:6f:17:da:07:85:3e:
                    fc:e5:14:4d:5c:aa:a3:93:29:83:5e:36:16:f4:f7:
                    1a:9e:67:d5:51:9f:7d:bc:61:00:91:a5:da:ba:c6:
                    93:d8:95:23:78:24:6f:d8:0d:01:75:56:d8:42:d3:
                    b9:a3:f6:26:33:c9:4b:ff:29:29:fc:84:a8:52:90:
                    c4:72:89:8c:90:29:ff:d4:e6:25:a2:30:00:7a:3b:
                    de:d9:ed:09:48:83:0a:5b:11:d7:43:86:6b:9a:ec:
                    ea:10:27:b8:da:df:2c:76:85:10:5a:a2:36:17:ad:
                    9a:13:4a:07:89:0a:c0:db:dd:da:94:06:f2:b9:6d:
                    37:d7:91:ca:5a:92:bc:9e:6e:a1:bf:02:ff:ce:fd:
                    17:c6:ef:31:8e:af:e5:0f:7a:bc:2b:e3:57:79:0b:
                    c7:4f:94:bc:06:83:5a:94:d7:94:6a:f3:25:03:4a:
                    26:4b:5a:19:1f:21:8f:ae:be:c9:10:bb:98:32:24:
                    fb:df
                Exponent: 65537 (0x10001)
        X509v3 extensions:
            X509v3 Basic Constraints: 
                CA:FALSE
            X509v3 Subject Key Identifier: 
                C9:A2:B9:31:E1:A3:9D:4C:09:98:A5:10:2D:50:73:06:DD:DC:E0:DC
            X509v3 Authority Key Identifier: 
                keyid:03:04:E4:2A:6A:F8:2E:D7:A0:85:2B:74:18:56:FC:ED:DA:75:AA:0A
                DirName:/CN=team534-net
                serial:74:D5:98:77:6C:43:AF:82:8F:F5:A3:44:71:E9:14:A1:65:49:3A:03

            X509v3 Extended Key Usage: 
                TLS Web Server Authentication
            X509v3 Key Usage: 
                Digital Signature, Key Encipherment
            X509v3 Subject Alternative Name: 
                DNS:team534-server
    Signature Algorithm: sha256WithRSAEncryption
         19:53:59:2d:44:f7:ba:2f:25:4f:14:3d:54:44:42:c8:00:d2:
         c5:de:0a:68:37:a0:f1:79:a1:36:b8:9e:32:41:65:82:d5:cc:
         37:93:95:11:8b:42:fc:30:84:8b:26:39:df:e3:0d:db:87:04:
         ae:32:7f:87:af:8d:da:7b:34:50:71:f1:65:05:64:e4:aa:82:
         a9:76:88:87:5d:4a:ab:5a:09:5b:0f:0e:0a:92:98:48:05:74:
         88:9a:9b:04:77:7e:bf:ac:bf:a1:0c:61:25:ca:99:4f:af:8e:
         c3:b3:24:ef:3e:75:af:0d:2b:ca:f5:27:2b:95:f9:48:e3:2b:
         13:b3:b6:a1:44:7c:29:52:c5:1f:c9:e2:7e:ab:ac:e1:82:f7:
         31:3a:b1:cc:d8:83:ac:4d:6d:f3:78:e5:0e:9b:c9:5d:40:f4:
         05:84:dc:ec:fc:2a:8c:2f:3e:bc:48:2f:63:fc:ad:20:58:e9:
         86:39:c5:69:ec:73:d1:c4:ad:77:a6:72:e6:a7:86:15:32:1b:
         46:5c:ec:0f:06:69:de:20:0b:fd:62:a4:9b:9b:97:eb:d5:f5:
         f5:ca:6e:f4:0c:ed:15:2a:ca:77:a1:c5:7e:56:a4:62:d4:34:
         fd:a3:53:da:41:eb:0e:20:f0:fc:f8:b3:dd:bf:4e:51:09:16:
         b2:61:82:12
-----BEGIN CERTIFICATE-----
MIIDeDCCAmCgAwIBAgIRAKSoXfYoBT43fP24q6X0DdgwDQYJKoZIhvcNAQELBQAw
FjEUMBIGA1UEAwwLdGVhbTUzNC1uZXQwHhcNMjIwNTE4MjIxMDIyWhcNMjUwNTAy
MjIxMDIyWjAZMRcwFQYDVQQDDA50ZWFtNTM0LXNlcnZlcjCCASIwDQYJKoZIhvcN
AQEBBQADggEPADCCAQoCggEBAKWckRsBm3mQk2jdUs95NCtHjFsEOqVxue3sFi6j
XRSEwvhgooc7Zk58aoKGPzb+0dVMrTlb09WbBRFizFkwiETy3GFgbxfaB4U+/OUU
TVyqo5Mpg142FvT3Gp5n1VGffbxhAJGl2rrGk9iVI3gkb9gNAXVW2ELTuaP2JjPJ
S/8pKfyEqFKQxHKJjJAp/9TmJaIwAHo73tntCUiDClsR10OGa5rs6hAnuNrfLHaF
EFqiNhetmhNKB4kKwNvd2pQG8rltN9eRylqSvJ5uob8C/879F8bvMY6v5Q96vCvj
V3kLx0+UvAaDWpTXlGrzJQNKJktaGR8hj66+yRC7mDIk+98CAwEAAaOBvTCBujAJ
BgNVHRMEAjAAMB0GA1UdDgQWBBTJorkx4aOdTAmYpRAtUHMG3dzg3DBRBgNVHSME
SjBIgBQDBOQqavgu16CFK3QYVvzt2nWqCqEapBgwFjEUMBIGA1UEAwwLdGVhbTUz
NC1uZXSCFHTVmHdsQ6+Cj/WjRHHpFKFlSToDMBMGA1UdJQQMMAoGCCsGAQUFBwMB
MAsGA1UdDwQEAwIFoDAZBgNVHREEEjAQgg50ZWFtNTM0LXNlcnZlcjANBgkqhkiG
9w0BAQsFAAOCAQEAGVNZLUT3ui8lTxQ9VERCyADSxd4KaDeg8XmhNrieMkFlgtXM
N5OVEYtC/DCEiyY53+MN24cErjJ/h6+N2ns0UHHxZQVk5KqCqXaIh11Kq1oJWw8O
CpKYSAV0iJqbBHd+v6y/oQxhJcqZT6+Ow7Mk7z51rw0ryvUnK5X5SOMrE7O2oUR8
KVLFH8nifqus4YL3MTqxzNiDrE1t83jlDpvJXUD0BYTc7PwqjC8+vEgvY/ytIFjp
hjnFaexz0cStd6Zy5qeGFTIbRlzsDwZp3iAL/WKkm5uX69X19cpu9AztFSrKd6HF
flakYtQ0/aNT2kHrDiDw/Piz3b9OUQkWsmGCEg==
-----END CERTIFICATE-----
