Certificate:
    Data:
        Version: 3 (0x2)
        Serial Number:
            f5:d4:2d:a1:35:16:73:ba:f5:ad:04:32:7f:31:b6:18
        Signature Algorithm: sha256WithRSAEncryption
        Issuer: CN=team22-net
        Validity
            Not Before: May 18 14:02:56 2022 GMT
            Not After : May  2 14:02:56 2025 GMT
        Subject: CN=team22-server
        Subject Public Key Info:
            Public Key Algorithm: rsaEncryption
                RSA Public-Key: (2048 bit)
                Modulus:
                    00:b2:9a:08:2e:e1:e9:41:40:b0:e9:a3:e1:6e:73:
                    18:77:ff:a3:c5:4b:a6:65:8d:60:86:28:8f:56:7a:
                    1d:3f:ae:51:7f:b4:aa:09:b7:6d:64:3e:fb:75:c4:
                    84:d8:7f:1c:d6:97:9d:eb:6a:27:24:1d:96:5b:82:
                    74:76:60:cc:e5:f3:5b:9e:69:f5:b3:06:d7:30:80:
                    44:f1:a3:d7:ea:25:06:d9:da:94:c8:a9:ed:e9:c6:
                    c5:81:19:1c:30:e4:5f:d9:89:90:97:ae:78:65:a1:
                    a9:b1:7c:fd:d1:be:11:25:bb:b2:58:b1:75:52:bc:
                    bc:42:81:89:4f:d1:49:98:1b:b4:61:8d:fb:3a:d4:
                    31:6f:b2:ee:de:85:19:54:fb:d3:27:dc:2c:e4:6c:
                    eb:a7:b9:30:28:d4:0d:0f:b9:bd:a1:36:00:40:43:
                    99:0b:26:19:69:13:32:45:b2:9b:9b:ad:3f:46:be:
                    15:e6:4d:a6:3a:41:52:d9:e7:7e:71:e8:5d:91:ed:
                    e2:c0:62:ae:c0:fd:8a:ed:d5:40:3c:a8:4b:39:b9:
                    ba:e5:b5:e5:ad:66:54:3d:6d:f5:9b:42:db:ca:25:
                    d8:fe:e2:40:15:0c:8b:8c:d9:b4:ed:1c:b8:2d:e0:
                    87:b5:9a:56:fd:66:c7:b8:77:56:3c:df:88:a2:5f:
                    3b:a7
                Exponent: 65537 (0x10001)
        X509v3 extensions:
            X509v3 Basic Constraints: 
                CA:FALSE
            X509v3 Subject Key Identifier: 
                95:34:53:1B:F9:EF:AE:86:06:47:8D:A2:FC:70:27:57:7E:1A:C8:F3
            X509v3 Authority Key Identifier: 
                keyid:7C:60:BC:CB:44:C6:62:78:E5:AB:A2:1D:F9:4B:71:85:8A:7C:DD:1D
                DirName:/CN=team22-net
                serial:32:CD:78:09:AC:3D:2C:66:F1:70:A9:C7:32:42:34:BA:1E:79:E5:A3

            X509v3 Extended Key Usage: 
                TLS Web Server Authentication
            X509v3 Key Usage: 
                Digital Signature, Key Encipherment
            X509v3 Subject Alternative Name: 
                DNS:team22-server
    Signature Algorithm: sha256WithRSAEncryption
         60:94:c4:a7:1f:70:87:32:c1:2e:8e:96:90:04:29:28:84:af:
         47:c5:d7:57:4d:0d:e7:2a:e2:e6:9e:e9:a9:08:a9:30:42:30:
         39:3e:14:37:9b:8d:1d:19:9c:b3:96:9d:6f:72:d4:49:d0:2e:
         2d:b2:06:87:7e:cd:c0:1f:60:b5:4c:01:cc:de:c0:c6:51:2d:
         42:9b:04:52:b1:fc:76:a0:51:d6:3f:f0:7b:93:75:96:0c:47:
         17:62:20:80:7c:be:2e:d7:18:b1:7e:bb:b8:e9:ad:df:91:b5:
         85:68:07:88:c7:f6:eb:b1:2e:6b:cc:85:79:4d:7c:05:c1:02:
         78:3c:04:d7:ef:d0:5a:27:5b:d4:52:54:c1:75:de:cc:c5:c0:
         24:49:65:90:c8:35:14:f5:f1:6b:d3:90:44:93:9f:ba:3a:be:
         dd:30:ca:25:eb:23:d7:96:a8:1f:ba:a7:c6:c1:81:99:b3:ec:
         27:07:d4:6b:89:46:39:16:c1:1b:da:04:25:da:8c:67:e4:52:
         49:5f:a9:75:d6:cf:fb:b3:8d:72:f8:27:00:18:68:2a:b2:2a:
         77:2c:b8:e5:ab:c6:31:4a:bb:63:09:1d:86:3c:27:9e:77:40:
         12:62:d8:69:57:0b:bd:b2:a2:59:d8:9b:66:38:65:96:78:a6:
         76:cf:cc:c9
-----BEGIN CERTIFICATE-----
MIIDdDCCAlygAwIBAgIRAPXULaE1FnO69a0EMn8xthgwDQYJKoZIhvcNAQELBQAw
FTETMBEGA1UEAwwKdGVhbTIyLW5ldDAeFw0yMjA1MTgxNDAyNTZaFw0yNTA1MDIx
NDAyNTZaMBgxFjAUBgNVBAMMDXRlYW0yMi1zZXJ2ZXIwggEiMA0GCSqGSIb3DQEB
AQUAA4IBDwAwggEKAoIBAQCymggu4elBQLDpo+Fucxh3/6PFS6ZljWCGKI9Weh0/
rlF/tKoJt21kPvt1xITYfxzWl53raickHZZbgnR2YMzl81ueafWzBtcwgETxo9fq
JQbZ2pTIqe3pxsWBGRww5F/ZiZCXrnhloamxfP3RvhElu7JYsXVSvLxCgYlP0UmY
G7Rhjfs61DFvsu7ehRlU+9Mn3CzkbOunuTAo1A0Pub2hNgBAQ5kLJhlpEzJFspub
rT9GvhXmTaY6QVLZ535x6F2R7eLAYq7A/Yrt1UA8qEs5ubrlteWtZlQ9bfWbQtvK
Jdj+4kAVDIuM2bTtHLgt4Ie1mlb9Zse4d1Y834iiXzunAgMBAAGjgbswgbgwCQYD
VR0TBAIwADAdBgNVHQ4EFgQUlTRTG/nvroYGR42i/HAnV34ayPMwUAYDVR0jBEkw
R4AUfGC8y0TGYnjlq6Id+UtxhYp83R2hGaQXMBUxEzARBgNVBAMMCnRlYW0yMi1u
ZXSCFDLNeAmsPSxm8XCpxzJCNLoeeeWjMBMGA1UdJQQMMAoGCCsGAQUFBwMBMAsG
A1UdDwQEAwIFoDAYBgNVHREEETAPgg10ZWFtMjItc2VydmVyMA0GCSqGSIb3DQEB
CwUAA4IBAQBglMSnH3CHMsEujpaQBCkohK9HxddXTQ3nKuLmnumpCKkwQjA5PhQ3
m40dGZyzlp1vctRJ0C4tsgaHfs3AH2C1TAHM3sDGUS1CmwRSsfx2oFHWP/B7k3WW
DEcXYiCAfL4u1xixfru46a3fkbWFaAeIx/brsS5rzIV5TXwFwQJ4PATX79BaJ1vU
UlTBdd7MxcAkSWWQyDUU9fFr05BEk5+6Or7dMMol6yPXlqgfuqfGwYGZs+wnB9Rr
iUY5FsEb2gQl2oxn5FJJX6l11s/7s41y+CcAGGgqsip3LLjlq8YxSrtjCR2GPCee
d0ASYthpVwu9sqJZ2JtmOGWWeKZ2z8zJ
-----END CERTIFICATE-----
