Certificate:
    Data:
        Version: 3 (0x2)
        Serial Number:
            50:ff:01:6c:79:9e:26:51:9c:31:8a:06:66:8f:ec:f4
        Signature Algorithm: sha256WithRSAEncryption
        Issuer: CN=team341-net
        Validity
            Not Before: May 18 20:23:03 2022 GMT
            Not After : May  2 20:23:03 2025 GMT
        Subject: CN=team341-server
        Subject Public Key Info:
            Public Key Algorithm: rsaEncryption
                RSA Public-Key: (2048 bit)
                Modulus:
                    00:cf:f0:c2:fc:1e:e6:69:cc:72:58:38:d0:8c:6d:
                    7a:93:86:9d:80:cf:9f:1d:0c:b7:38:20:3f:e6:69:
                    f3:9d:f5:16:c1:32:a6:73:80:36:b6:b2:d3:e4:af:
                    29:69:fb:54:24:aa:2e:bd:99:a0:00:a8:d8:96:9e:
                    8c:aa:04:64:7d:84:60:a1:a1:61:6e:10:69:5c:26:
                    0e:1f:70:4d:ce:21:36:ff:74:6f:bd:fd:27:fa:f1:
                    71:f9:12:3f:79:52:7c:33:63:25:94:43:07:8e:ef:
                    1d:58:43:63:89:ec:f1:9a:8c:aa:1e:63:85:8e:83:
                    34:b9:86:02:9d:7e:9b:48:0f:2e:44:85:b5:ca:84:
                    a6:77:50:d0:7a:5f:e2:3d:b5:e1:45:f1:3e:b0:cb:
                    c1:e4:a8:0f:fd:fc:70:13:84:1b:5a:cc:8e:2a:95:
                    24:a2:19:70:4a:33:14:8d:23:af:d7:d6:bd:50:ad:
                    65:38:52:4b:39:3b:74:3a:37:22:f9:67:bb:7a:57:
                    a0:8c:af:b0:aa:17:a0:56:e9:37:27:22:cf:26:22:
                    c6:69:1b:93:a3:29:d9:7f:6b:93:07:b8:e9:de:61:
                    3b:e2:20:37:4e:5c:d5:d1:ec:fe:78:60:c2:6b:b6:
                    80:02:91:a1:8d:7e:e4:c7:fb:4f:c9:23:35:76:f2:
                    c3:8d
                Exponent: 65537 (0x10001)
        X509v3 extensions:
            X509v3 Basic Constraints: 
                CA:FALSE
            X509v3 Subject Key Identifier: 
                05:AD:DD:C9:F7:CC:D6:20:9E:49:5B:B9:3F:45:1E:56:AA:F6:59:4A
            X509v3 Authority Key Identifier: 
                keyid:88:56:E4:61:A7:4B:AE:1A:85:95:C4:72:A6:26:3D:55:63:4F:49:7A
                DirName:/CN=team341-net
                serial:44:8D:83:66:E6:DE:AC:96:E1:78:4C:0B:1F:76:6D:3D:69:0C:73:99

            X509v3 Extended Key Usage: 
                TLS Web Server Authentication
            X509v3 Key Usage: 
                Digital Signature, Key Encipherment
            X509v3 Subject Alternative Name: 
                DNS:team341-server
    Signature Algorithm: sha256WithRSAEncryption
         78:e8:b5:be:59:59:8a:a2:6f:5c:23:1d:2c:cc:2c:b1:50:08:
         94:0a:ad:e5:b7:0e:d4:85:b9:80:e5:0b:20:48:59:e6:16:1a:
         26:ca:ea:51:5b:ba:38:7b:53:a0:d0:3e:13:62:98:3a:f9:00:
         b6:c6:6b:ff:3e:5e:79:07:40:00:17:bb:3f:0c:6b:b8:7c:e0:
         ca:7a:17:c6:06:cc:92:7e:92:42:a2:ec:5d:1c:40:16:63:c3:
         0d:b0:de:2d:e7:b6:b7:34:ba:bc:9c:6a:f4:4c:6d:7f:a6:60:
         7a:87:28:58:bd:4b:58:20:2b:46:e3:c3:ea:d8:aa:48:2a:d9:
         e5:f7:bf:f7:1f:bb:d6:0a:64:1e:f1:6f:28:3e:22:f4:b2:81:
         b8:95:bb:9a:70:4a:1b:b9:25:57:e9:b4:40:2e:63:ad:8b:0a:
         50:97:c0:b4:a5:3c:be:2c:de:e1:00:8f:25:39:1e:17:5a:70:
         c0:70:8c:f1:2c:2a:71:e1:e1:99:5f:92:58:67:42:f1:82:47:
         52:43:07:31:bd:f2:d6:72:b6:ed:ab:fb:0a:61:4e:55:c8:02:
         91:47:af:1d:a7:2a:17:2c:63:fe:be:22:b3:85:d6:9b:c9:f4:
         0c:1f:b5:1e:a3:5f:af:e1:6c:61:1e:d4:ac:30:67:23:e0:cc:
         0b:74:9d:ab
-----BEGIN CERTIFICATE-----
MIIDdzCCAl+gAwIBAgIQUP8BbHmeJlGcMYoGZo/s9DANBgkqhkiG9w0BAQsFADAW
MRQwEgYDVQQDDAt0ZWFtMzQxLW5ldDAeFw0yMjA1MTgyMDIzMDNaFw0yNTA1MDIy
MDIzMDNaMBkxFzAVBgNVBAMMDnRlYW0zNDEtc2VydmVyMIIBIjANBgkqhkiG9w0B
AQEFAAOCAQ8AMIIBCgKCAQEAz/DC/B7macxyWDjQjG16k4adgM+fHQy3OCA/5mnz
nfUWwTKmc4A2trLT5K8paftUJKouvZmgAKjYlp6MqgRkfYRgoaFhbhBpXCYOH3BN
ziE2/3Rvvf0n+vFx+RI/eVJ8M2MllEMHju8dWENjiezxmoyqHmOFjoM0uYYCnX6b
SA8uRIW1yoSmd1DQel/iPbXhRfE+sMvB5KgP/fxwE4QbWsyOKpUkohlwSjMUjSOv
19a9UK1lOFJLOTt0Ojci+We7elegjK+wqhegVuk3JyLPJiLGaRuToynZf2uTB7jp
3mE74iA3TlzV0ez+eGDCa7aAApGhjX7kx/tPySM1dvLDjQIDAQABo4G9MIG6MAkG
A1UdEwQCMAAwHQYDVR0OBBYEFAWt3cn3zNYgnklbuT9FHlaq9llKMFEGA1UdIwRK
MEiAFIhW5GGnS64ahZXEcqYmPVVjT0l6oRqkGDAWMRQwEgYDVQQDDAt0ZWFtMzQx
LW5ldIIURI2DZuberJbheEwLH3ZtPWkMc5kwEwYDVR0lBAwwCgYIKwYBBQUHAwEw
CwYDVR0PBAQDAgWgMBkGA1UdEQQSMBCCDnRlYW0zNDEtc2VydmVyMA0GCSqGSIb3
DQEBCwUAA4IBAQB46LW+WVmKom9cIx0szCyxUAiUCq3ltw7UhbmA5QsgSFnmFhom
yupRW7o4e1Og0D4TYpg6+QC2xmv/Pl55B0AAF7s/DGu4fODKehfGBsySfpJCouxd
HEAWY8MNsN4t57a3NLq8nGr0TG1/pmB6hyhYvUtYICtG48Pq2KpIKtnl97/3H7vW
CmQe8W8oPiL0soG4lbuacEobuSVX6bRALmOtiwpQl8C0pTy+LN7hAI8lOR4XWnDA
cIzxLCpx4eGZX5JYZ0LxgkdSQwcxvfLWcrbtq/sKYU5VyAKRR68dpyoXLGP+viKz
hdabyfQMH7Ueo1+v4WxhHtSsMGcj4MwLdJ2r
-----END CERTIFICATE-----
