Certificate:
    Data:
        Version: 3 (0x2)
        Serial Number:
            2e:a7:4c:42:ef:21:57:c7:68:07:ec:24:74:e8:52:6d
        Signature Algorithm: sha256WithRSAEncryption
        Issuer: CN=team748-net
        Validity
            Not Before: May 19 00:12:28 2022 GMT
            Not After : May  3 00:12:28 2025 GMT
        Subject: CN=team748-client
        Subject Public Key Info:
            Public Key Algorithm: rsaEncryption
                RSA Public-Key: (2048 bit)
                Modulus:
                    00:ad:9c:3b:4e:79:a5:f4:62:61:e1:d3:12:8b:fe:
                    f5:54:4d:17:6f:21:77:43:ac:fd:d7:12:d0:1f:25:
                    c8:4d:80:ad:ac:fb:96:c4:1a:68:9f:72:45:78:84:
                    31:30:09:e9:5b:a6:43:a1:76:05:45:80:9f:7b:57:
                    c5:6c:9e:5a:97:58:a1:b8:07:27:02:cb:c3:7a:d0:
                    ff:76:e4:f9:9e:71:e2:c2:4a:bf:c4:7a:76:97:1d:
                    0b:a7:c6:a9:7d:45:4d:f1:bb:33:dc:8a:00:9a:de:
                    64:cb:3a:a8:28:db:f7:64:74:d6:59:e8:02:be:78:
                    46:8e:1f:1c:e7:1e:69:98:46:3b:9f:8c:99:02:b1:
                    19:9e:31:67:a1:c1:ff:a1:df:8d:00:38:c1:22:e4:
                    62:91:96:05:7f:a2:ee:11:bf:1c:cb:a8:99:a9:66:
                    12:46:a0:f4:39:1f:ba:5a:fe:c7:b5:1f:54:af:2c:
                    f5:ab:ac:51:38:d7:57:1f:c0:41:c6:87:52:7d:df:
                    6f:25:da:1d:5c:42:e4:f3:fd:0b:21:6d:a2:64:db:
                    e5:1f:4e:4c:65:4c:fc:f5:01:20:a3:d1:87:f7:13:
                    d3:d0:ad:64:03:81:24:a1:38:b4:06:39:54:c0:d6:
                    e3:47:cb:ad:71:96:6d:05:12:0e:c0:dd:86:c9:b4:
                    59:03
                Exponent: 65537 (0x10001)
        X509v3 extensions:
            X509v3 Basic Constraints: 
                CA:FALSE
            X509v3 Subject Key Identifier: 
                B1:1A:AF:96:2D:54:A9:3D:42:36:57:C1:99:12:C8:AF:52:8C:04:09
            X509v3 Authority Key Identifier: 
                keyid:26:A3:FC:F5:62:29:65:AF:27:AA:60:E4:65:4E:E3:1F:5F:10:5E:2D
                DirName:/CN=team748-net
                serial:1C:86:E4:77:8F:5C:F9:B4:32:BF:E5:A5:AB:D2:1E:89:0D:72:ED:0F

            X509v3 Extended Key Usage: 
                TLS Web Client Authentication
            X509v3 Key Usage: 
                Digital Signature
    Signature Algorithm: sha256WithRSAEncryption
         db:c7:df:a6:ea:20:7f:27:88:68:98:cc:2c:19:34:5f:3b:b7:
         07:8d:ec:fa:74:25:70:c8:d9:cc:0d:b4:a7:17:3c:fc:0d:6d:
         62:90:6f:98:8f:83:b2:80:30:01:cd:73:ad:25:9d:2d:80:e1:
         76:4a:0c:2e:d3:e6:f6:fc:c8:59:ae:61:db:7c:82:8d:e2:40:
         51:29:ab:6b:d2:1d:7d:2d:8c:7c:a3:54:3d:21:79:34:0d:4a:
         65:bd:11:cb:e9:67:f3:a9:f9:80:00:b6:63:0a:8b:77:c2:9d:
         dd:5b:b8:d8:b9:ed:ba:c5:97:ba:b3:06:7d:33:40:73:84:d1:
         45:50:44:3c:89:20:b2:73:7a:7c:66:ec:9d:ac:bc:b0:95:a5:
         f1:d1:e8:13:f8:5a:73:55:ea:37:24:45:f8:e2:89:58:6e:1c:
         36:47:d0:18:b9:03:5a:79:77:3d:a9:a8:89:3d:5c:4d:c3:40:
         c7:89:4e:00:72:55:35:bc:d1:a7:1f:73:7c:49:4b:59:60:d3:
         2c:b8:bb:bc:75:1c:3c:dd:52:34:25:c4:58:10:62:14:4a:18:
         65:47:f0:87:34:7a:c1:e0:d8:f1:81:82:eb:20:81:86:7a:96:
         a7:26:b8:86:50:02:a7:45:f5:95:48:cc:ae:44:e0:d2:2c:0c:
         79:11:e1:30
-----BEGIN CERTIFICATE-----
MIIDXDCCAkSgAwIBAgIQLqdMQu8hV8doB+wkdOhSbTANBgkqhkiG9w0BAQsFADAW
MRQwEgYDVQQDDAt0ZWFtNzQ4LW5ldDAeFw0yMjA1MTkwMDEyMjhaFw0yNTA1MDMw
MDEyMjhaMBkxFzAVBgNVBAMMDnRlYW03NDgtY2xpZW50MIIBIjANBgkqhkiG9w0B
AQEFAAOCAQ8AMIIBCgKCAQEArZw7Tnml9GJh4dMSi/71VE0XbyF3Q6z91xLQHyXI
TYCtrPuWxBpon3JFeIQxMAnpW6ZDoXYFRYCfe1fFbJ5al1ihuAcnAsvDetD/duT5
nnHiwkq/xHp2lx0Lp8apfUVN8bsz3IoAmt5kyzqoKNv3ZHTWWegCvnhGjh8c5x5p
mEY7n4yZArEZnjFnocH/od+NADjBIuRikZYFf6LuEb8cy6iZqWYSRqD0OR+6Wv7H
tR9Uryz1q6xRONdXH8BBxodSfd9vJdodXELk8/0LIW2iZNvlH05MZUz89QEgo9GH
9xPT0K1kA4EkoTi0BjlUwNbjR8utcZZtBRIOwN2GybRZAwIDAQABo4GiMIGfMAkG
A1UdEwQCMAAwHQYDVR0OBBYEFLEar5YtVKk9QjZXwZkSyK9SjAQJMFEGA1UdIwRK
MEiAFCaj/PViKWWvJ6pg5GVO4x9fEF4toRqkGDAWMRQwEgYDVQQDDAt0ZWFtNzQ4
LW5ldIIUHIbkd49c+bQyv+Wlq9IeiQ1y7Q8wEwYDVR0lBAwwCgYIKwYBBQUHAwIw
CwYDVR0PBAQDAgeAMA0GCSqGSIb3DQEBCwUAA4IBAQDbx9+m6iB/J4homMwsGTRf
O7cHjez6dCVwyNnMDbSnFzz8DW1ikG+Yj4OygDABzXOtJZ0tgOF2Sgwu0+b2/MhZ
rmHbfIKN4kBRKatr0h19LYx8o1Q9IXk0DUplvRHL6WfzqfmAALZjCot3wp3dW7jY
ue26xZe6swZ9M0BzhNFFUEQ8iSCyc3p8ZuydrLywlaXx0egT+FpzVeo3JEX44olY
bhw2R9AYuQNaeXc9qaiJPVxNw0DHiU4AclU1vNGnH3N8SUtZYNMsuLu8dRw83VI0
JcRYEGIUShhlR/CHNHrB4NjxgYLrIIGGepanJriGUAKnRfWVSMyuRODSLAx5EeEw
-----END CERTIFICATE-----
