Certificate:
    Data:
        Version: 3 (0x2)
        Serial Number:
            cc:59:75:29:0e:4a:69:47:9a:b1:ea:17:9a:5c:40:46
        Signature Algorithm: sha256WithRSAEncryption
        Issuer: CN=team393-net
        Validity
            Not Before: May 18 20:58:15 2022 GMT
            Not After : May  2 20:58:15 2025 GMT
        Subject: CN=team393-client
        Subject Public Key Info:
            Public Key Algorithm: rsaEncryption
                RSA Public-Key: (2048 bit)
                Modulus:
                    00:af:5c:3c:d7:6d:58:ad:e3:1b:a0:5f:a4:eb:9c:
                    f6:0b:53:d1:f8:f7:c1:da:82:3e:16:6a:e0:aa:90:
                    71:ad:ae:30:f2:df:a9:aa:5b:cf:e5:04:2b:b6:3f:
                    da:c8:34:17:97:92:e3:44:ce:64:f5:d5:d2:21:48:
                    18:5a:57:28:d9:59:55:aa:d9:73:60:15:ee:7e:25:
                    3e:a2:59:25:77:3e:63:2c:37:2e:61:f0:3d:76:e3:
                    bb:ac:3f:11:b8:04:2a:48:6d:b6:22:d2:ff:0b:57:
                    2d:8c:f3:6a:b4:b9:0b:9f:7c:eb:d7:96:51:dd:4d:
                    fb:ad:22:e7:74:ab:a4:9e:13:0d:33:2d:9b:3d:e9:
                    da:a0:05:5a:cf:1d:78:03:38:9c:90:78:39:d2:3b:
                    73:5a:54:25:c3:57:fd:fe:02:c0:63:22:f0:39:78:
                    5a:17:13:a1:90:c3:48:92:b0:a2:c5:c4:f3:42:a7:
                    da:f0:ed:d9:a2:99:26:38:8d:17:62:0e:37:96:1b:
                    e5:37:27:44:a2:22:f1:53:1e:19:8e:7a:a4:af:97:
                    39:37:d6:4e:6c:12:a5:23:7e:34:af:7a:b4:47:ca:
                    0c:55:9a:5b:15:bc:6e:ed:de:f6:62:a4:7d:9b:a5:
                    e5:35:d4:e6:7c:16:f4:6d:eb:f4:c5:b3:6e:3d:f6:
                    3c:d3
                Exponent: 65537 (0x10001)
        X509v3 extensions:
            X509v3 Basic Constraints: 
                CA:FALSE
            X509v3 Subject Key Identifier: 
                3D:DB:C3:B0:69:9C:7F:CD:AB:8A:26:13:9A:EB:6A:6D:73:1A:A2:72
            X509v3 Authority Key Identifier: 
                keyid:DB:E5:88:20:44:27:60:18:69:5A:92:A8:67:47:7B:B5:44:98:15:2E
                DirName:/CN=team393-net
                serial:68:5B:50:56:56:19:48:27:65:4B:78:66:B9:CA:95:40:A2:87:77:57

            X509v3 Extended Key Usage: 
                TLS Web Client Authentication
            X509v3 Key Usage: 
                Digital Signature
    Signature Algorithm: sha256WithRSAEncryption
         90:89:0a:2f:58:3f:db:14:39:82:ed:7c:f3:ea:41:a1:98:44:
         fc:02:8e:8e:5c:2c:75:25:8b:cc:15:e5:21:14:51:a9:14:8f:
         2e:87:58:11:45:f5:5d:e0:86:42:89:1f:42:93:e0:21:c9:f4:
         50:1a:30:46:36:41:89:4c:7b:66:12:7b:7c:56:1f:0f:dc:6a:
         c7:59:12:82:6e:bf:c7:8a:99:df:f1:ce:64:47:a9:ff:16:0f:
         3a:93:07:f2:ea:fb:62:db:e2:4e:08:17:dd:80:7c:84:b4:4e:
         2f:59:1f:3a:cb:98:7f:e4:b0:0c:8a:12:7f:97:bb:e9:14:be:
         ec:27:42:15:b2:33:f6:31:34:2f:11:1b:bd:a7:4b:49:74:59:
         b5:a3:02:da:b1:a8:ef:ea:a5:52:25:db:09:74:fe:84:37:84:
         5c:c5:b2:3e:4c:33:e0:1d:31:31:d9:9a:a2:1e:ee:be:36:ff:
         42:17:0f:03:52:b3:02:48:b7:7d:1b:09:dc:cd:e8:d0:c2:76:
         e3:36:b9:91:d9:36:7d:f7:e1:f4:8c:8b:41:b8:c9:df:d9:c8:
         30:10:3b:88:2f:d4:ba:90:e3:c1:25:2a:c8:10:18:b3:ab:3b:
         be:32:69:a2:18:a6:6c:af:6a:5c:d3:2d:a0:c9:58:0b:65:00:
         e6:c5:b8:fa
-----BEGIN CERTIFICATE-----
MIIDXTCCAkWgAwIBAgIRAMxZdSkOSmlHmrHqF5pcQEYwDQYJKoZIhvcNAQELBQAw
FjEUMBIGA1UEAwwLdGVhbTM5My1uZXQwHhcNMjIwNTE4MjA1ODE1WhcNMjUwNTAy
MjA1ODE1WjAZMRcwFQYDVQQDDA50ZWFtMzkzLWNsaWVudDCCASIwDQYJKoZIhvcN
AQEBBQADggEPADCCAQoCggEBAK9cPNdtWK3jG6BfpOuc9gtT0fj3wdqCPhZq4KqQ
ca2uMPLfqapbz+UEK7Y/2sg0F5eS40TOZPXV0iFIGFpXKNlZVarZc2AV7n4lPqJZ
JXc+Yyw3LmHwPXbju6w/EbgEKkhttiLS/wtXLYzzarS5C59869eWUd1N+60i53Sr
pJ4TDTMtmz3p2qAFWs8deAM4nJB4OdI7c1pUJcNX/f4CwGMi8Dl4WhcToZDDSJKw
osXE80Kn2vDt2aKZJjiNF2ION5Yb5TcnRKIi8VMeGY56pK+XOTfWTmwSpSN+NK96
tEfKDFWaWxW8bu3e9mKkfZul5TXU5nwW9G3r9MWzbj32PNMCAwEAAaOBojCBnzAJ
BgNVHRMEAjAAMB0GA1UdDgQWBBQ928OwaZx/zauKJhOa62ptcxqicjBRBgNVHSME
SjBIgBTb5YggRCdgGGlakqhnR3u1RJgVLqEapBgwFjEUMBIGA1UEAwwLdGVhbTM5
My1uZXSCFGhbUFZWGUgnZUt4ZrnKlUCih3dXMBMGA1UdJQQMMAoGCCsGAQUFBwMC
MAsGA1UdDwQEAwIHgDANBgkqhkiG9w0BAQsFAAOCAQEAkIkKL1g/2xQ5gu188+pB
oZhE/AKOjlwsdSWLzBXlIRRRqRSPLodYEUX1XeCGQokfQpPgIcn0UBowRjZBiUx7
ZhJ7fFYfD9xqx1kSgm6/x4qZ3/HOZEep/xYPOpMH8ur7YtviTggX3YB8hLROL1kf
OsuYf+SwDIoSf5e76RS+7CdCFbIz9jE0LxEbvadLSXRZtaMC2rGo7+qlUiXbCXT+
hDeEXMWyPkwz4B0xMdmaoh7uvjb/QhcPA1KzAki3fRsJ3M3o0MJ24za5kdk2fffh
9IyLQbjJ39nIMBA7iC/UupDjwSUqyBAYs6s7vjJpohimbK9qXNMtoMlYC2UA5sW4
+g==
-----END CERTIFICATE-----
