Certificate:
    Data:
        Version: 3 (0x2)
        Serial Number:
            5b:f5:71:28:27:d1:38:84:dd:a2:2d:08:4b:49:0d:fa
        Signature Algorithm: sha256WithRSAEncryption
        Issuer: CN=team69-net
        Validity
            Not Before: May 18 14:31:38 2022 GMT
            Not After : May  2 14:31:38 2025 GMT
        Subject: CN=team69-client
        Subject Public Key Info:
            Public Key Algorithm: rsaEncryption
                RSA Public-Key: (2048 bit)
                Modulus:
                    00:c7:44:0f:88:33:ef:c3:3a:7f:b5:81:b2:67:9a:
                    83:41:5b:67:e6:8a:ed:16:52:c2:41:be:dd:3a:2b:
                    1c:10:6c:e3:8b:52:8c:d7:0d:95:8a:5b:69:f0:a0:
                    0b:da:3b:ec:47:a5:09:5a:94:3e:fa:74:71:06:be:
                    18:fa:6e:93:c6:3a:23:4c:8d:3b:4e:db:f4:f0:42:
                    cb:50:81:2a:4d:f2:99:2a:ad:55:8e:fe:15:a5:f8:
                    98:e2:a7:b7:40:1d:f5:a8:4d:a5:8a:df:00:82:0a:
                    2b:af:36:97:60:89:92:3d:86:0d:dd:2b:87:8e:05:
                    a7:61:03:6c:e0:a7:a1:2b:bf:23:7e:9c:aa:e6:e7:
                    af:1d:f3:00:8c:9d:cb:18:22:39:61:46:10:ed:35:
                    c9:1a:e4:a6:cb:f4:bd:1f:2a:0f:c5:c1:16:ff:a1:
                    ad:93:09:ec:e5:cd:e1:d0:6b:1b:95:4c:76:a3:32:
                    fe:75:32:e4:8b:6e:57:43:88:d5:bb:38:ad:a7:72:
                    41:74:e4:98:12:a6:4b:e4:87:e7:13:d5:47:e1:70:
                    34:02:e8:09:e3:74:ea:d8:60:4c:ba:cb:be:fa:87:
                    56:c4:56:64:d0:9b:f9:4a:71:a5:d3:53:e8:8a:4e:
                    30:ae:b3:05:69:73:c6:f1:b1:fb:91:49:bf:82:c2:
                    84:9d
                Exponent: 65537 (0x10001)
        X509v3 extensions:
            X509v3 Basic Constraints: 
                CA:FALSE
            X509v3 Subject Key Identifier: 
                7A:77:D7:91:8F:6B:AA:6A:B8:AF:FE:6F:21:3D:B3:9D:C7:DE:F0:BC
            X509v3 Authority Key Identifier: 
                keyid:D9:96:DB:D7:D2:1C:28:31:5A:34:77:5E:10:22:48:FE:A7:E7:BD:DD
                DirName:/CN=team69-net
                serial:78:02:EB:CD:B8:34:C9:2F:55:32:16:92:B2:2E:98:6C:D7:FC:C5:33

            X509v3 Extended Key Usage: 
                TLS Web Client Authentication
            X509v3 Key Usage: 
                Digital Signature
    Signature Algorithm: sha256WithRSAEncryption
         45:eb:2c:94:b8:5f:2f:9b:a3:70:27:b4:1e:9a:0e:ae:81:ed:
         d5:ba:9a:a6:ba:c6:d5:b6:2e:b0:e6:39:6d:d0:37:25:37:7b:
         5a:0c:b0:73:46:cd:c7:54:4e:0c:95:35:2f:53:c7:04:3e:10:
         27:0b:b5:75:f3:0e:18:05:ea:fc:37:a6:54:82:e8:c6:66:68:
         7a:27:52:46:6b:e4:11:bf:49:46:ec:ff:e8:52:b4:98:68:3a:
         38:d4:5d:6b:6b:e0:bc:68:a1:f2:19:6d:5b:7c:1a:64:e1:6e:
         bc:d5:14:39:e7:f3:c5:0f:99:00:9d:64:31:e2:2c:c2:68:0b:
         ea:f6:64:31:99:c2:c2:ff:7d:37:da:49:f9:40:26:88:67:3b:
         e6:50:5c:28:57:6b:cc:6f:90:99:7b:cd:7b:e0:22:b1:0b:e5:
         1d:ca:d6:49:a8:91:af:64:02:08:82:9b:33:f7:62:a0:b3:f4:
         ca:86:3c:fb:71:94:bc:16:c7:65:87:49:08:80:f8:df:98:6f:
         ae:2f:07:4a:af:30:fb:16:83:60:e7:87:b9:10:8f:4f:de:80:
         6d:c3:a5:d7:6b:2f:f6:4d:6e:f2:50:a2:3d:83:03:d3:eb:b0:
         48:25:03:e9:9d:42:81:26:b3:c6:10:ca:75:0a:4b:43:84:b3:
         fc:b1:a3:53
-----BEGIN CERTIFICATE-----
MIIDWTCCAkGgAwIBAgIQW/VxKCfROITdoi0IS0kN+jANBgkqhkiG9w0BAQsFADAV
MRMwEQYDVQQDDAp0ZWFtNjktbmV0MB4XDTIyMDUxODE0MzEzOFoXDTI1MDUwMjE0
MzEzOFowGDEWMBQGA1UEAwwNdGVhbTY5LWNsaWVudDCCASIwDQYJKoZIhvcNAQEB
BQADggEPADCCAQoCggEBAMdED4gz78M6f7WBsmeag0FbZ+aK7RZSwkG+3TorHBBs
44tSjNcNlYpbafCgC9o77EelCVqUPvp0cQa+GPpuk8Y6I0yNO07b9PBCy1CBKk3y
mSqtVY7+FaX4mOKnt0Ad9ahNpYrfAIIKK682l2CJkj2GDd0rh44Fp2EDbOCnoSu/
I36cqubnrx3zAIydyxgiOWFGEO01yRrkpsv0vR8qD8XBFv+hrZMJ7OXN4dBrG5VM
dqMy/nUy5ItuV0OI1bs4radyQXTkmBKmS+SH5xPVR+FwNALoCeN06thgTLrLvvqH
VsRWZNCb+UpxpdNT6IpOMK6zBWlzxvGx+5FJv4LChJ0CAwEAAaOBoTCBnjAJBgNV
HRMEAjAAMB0GA1UdDgQWBBR6d9eRj2uqariv/m8hPbOdx97wvDBQBgNVHSMESTBH
gBTZltvX0hwoMVo0d14QIkj+p+e93aEZpBcwFTETMBEGA1UEAwwKdGVhbTY5LW5l
dIIUeALrzbg0yS9VMhaSsi6YbNf8xTMwEwYDVR0lBAwwCgYIKwYBBQUHAwIwCwYD
VR0PBAQDAgeAMA0GCSqGSIb3DQEBCwUAA4IBAQBF6yyUuF8vm6NwJ7Qemg6uge3V
upqmusbVti6w5jlt0DclN3taDLBzRs3HVE4MlTUvU8cEPhAnC7V18w4YBer8N6ZU
gujGZmh6J1JGa+QRv0lG7P/oUrSYaDo41F1ra+C8aKHyGW1bfBpk4W681RQ55/PF
D5kAnWQx4izCaAvq9mQxmcLC/3032kn5QCaIZzvmUFwoV2vMb5CZe8174CKxC+Ud
ytZJqJGvZAIIgpsz92Kgs/TKhjz7cZS8Fsdlh0kIgPjfmG+uLwdKrzD7FoNg54e5
EI9P3oBtw6XXay/2TW7yUKI9gwPT67BIJQPpnUKBJrPGEMp1CktDhLP8saNT
-----END CERTIFICATE-----
