Certificate:
    Data:
        Version: 3 (0x2)
        Serial Number:
            8f:56:4c:c7:74:fc:fa:5f:7f:ec:50:9a:cc:bd:00:b5
        Signature Algorithm: sha256WithRSAEncryption
        Issuer: CN=team449-net
        Validity
            Not Before: May 18 21:20:04 2022 GMT
            Not After : May  2 21:20:04 2025 GMT
        Subject: CN=team449-client
        Subject Public Key Info:
            Public Key Algorithm: rsaEncryption
                RSA Public-Key: (2048 bit)
                Modulus:
                    00:b1:38:bb:9a:69:59:18:5e:9d:51:98:9b:4e:fe:
                    9c:6d:f4:17:6b:a0:f7:cd:f1:b0:11:a0:c2:03:ad:
                    4a:84:40:ef:74:c9:88:bd:97:fc:14:48:b3:50:c3:
                    6c:49:24:33:ce:db:f5:7e:a9:f8:6f:ed:0e:28:b8:
                    e1:7c:4e:ce:47:62:95:5f:61:3e:a9:e9:85:73:00:
                    b8:e1:2f:5e:39:70:ab:f3:16:a8:da:b6:2f:22:b3:
                    62:11:b7:70:12:ce:56:5c:e7:ef:d6:de:f5:35:07:
                    4b:1e:c4:0f:f6:5b:a0:1e:27:a9:57:02:ca:9c:e9:
                    59:2f:77:84:8e:8f:fb:92:dd:5e:a6:6a:3d:a9:e6:
                    43:0d:00:e0:c7:e1:6d:9f:8f:c5:2a:c6:fc:4f:7a:
                    bc:3d:ad:25:30:e2:e7:14:80:9e:e9:82:bd:0a:ba:
                    dd:d1:fc:7f:84:f9:39:1a:11:b0:eb:c4:ef:b3:e5:
                    f1:30:a5:4f:50:00:d8:3a:b3:09:20:ea:af:8f:f2:
                    b4:2b:a6:33:64:aa:a3:a2:d7:bb:23:47:73:c5:4a:
                    78:f1:04:6d:a0:a2:a4:ea:37:7b:ea:fc:77:ca:1f:
                    e8:07:7f:e2:42:d5:d9:67:61:53:fa:20:a2:65:15:
                    f6:e1:79:08:fa:c2:b9:18:91:43:07:eb:23:20:40:
                    ba:59
                Exponent: 65537 (0x10001)
        X509v3 extensions:
            X509v3 Basic Constraints: 
                CA:FALSE
            X509v3 Subject Key Identifier: 
                7C:4F:90:91:0B:38:B7:BF:C3:89:6A:F5:71:E7:6C:70:28:24:F0:FB
            X509v3 Authority Key Identifier: 
                keyid:F4:31:E0:BE:B0:EA:EC:68:4B:CE:59:0A:BA:62:01:E9:FD:46:50:7A
                DirName:/CN=team449-net
                serial:71:50:F9:38:7B:CE:0D:49:D1:90:0A:30:BD:3B:EB:15:58:D4:67:07

            X509v3 Extended Key Usage: 
                TLS Web Client Authentication
            X509v3 Key Usage: 
                Digital Signature
    Signature Algorithm: sha256WithRSAEncryption
         55:c8:7f:43:ca:fd:96:b2:4c:0b:7d:ae:13:84:ff:eb:b9:cb:
         51:35:b6:a6:fd:75:d6:60:24:f6:71:10:b3:76:77:a5:85:49:
         dd:3f:75:b4:cf:d6:9d:c5:ce:c1:f8:d7:5d:03:2f:56:0c:60:
         6e:68:39:8a:57:b7:6a:5c:7c:bc:09:79:63:71:e8:a3:87:77:
         d6:56:ec:05:02:8f:29:47:45:81:22:57:f9:e9:97:a2:67:77:
         54:61:a8:75:f7:25:d8:bd:83:9c:86:18:33:ee:77:a0:b4:4c:
         1f:bd:99:58:8e:b4:15:9c:bf:58:be:7f:ad:c1:16:ac:1a:ec:
         af:47:d0:b4:60:71:5f:6b:88:45:66:32:5c:1c:aa:d0:86:7d:
         8d:f1:e2:45:06:62:2a:26:ad:35:5b:34:93:ec:70:08:d0:8f:
         ed:d1:a6:51:46:c8:34:fd:25:49:0e:e1:a7:da:ec:6b:f1:45:
         af:03:de:90:2a:a1:a0:5f:c0:24:f0:ca:ad:5a:57:8d:91:07:
         8a:c3:31:0f:bb:a8:f1:4b:ac:f9:96:57:82:c4:d5:07:85:bf:
         68:65:3e:a8:44:fa:31:82:f4:22:58:0e:8a:12:60:f2:4f:37:
         77:1f:3c:3d:74:ac:84:83:b3:a4:55:d5:57:51:01:5f:94:4b:
         b3:43:eb:89
-----BEGIN CERTIFICATE-----
MIIDXTCCAkWgAwIBAgIRAI9WTMd0/Ppff+xQmsy9ALUwDQYJKoZIhvcNAQELBQAw
FjEUMBIGA1UEAwwLdGVhbTQ0OS1uZXQwHhcNMjIwNTE4MjEyMDA0WhcNMjUwNTAy
MjEyMDA0WjAZMRcwFQYDVQQDDA50ZWFtNDQ5LWNsaWVudDCCASIwDQYJKoZIhvcN
AQEBBQADggEPADCCAQoCggEBALE4u5ppWRhenVGYm07+nG30F2ug983xsBGgwgOt
SoRA73TJiL2X/BRIs1DDbEkkM87b9X6p+G/tDii44XxOzkdilV9hPqnphXMAuOEv
Xjlwq/MWqNq2LyKzYhG3cBLOVlzn79be9TUHSx7ED/ZboB4nqVcCypzpWS93hI6P
+5LdXqZqPanmQw0A4MfhbZ+PxSrG/E96vD2tJTDi5xSAnumCvQq63dH8f4T5ORoR
sOvE77Pl8TClT1AA2DqzCSDqr4/ytCumM2Sqo6LXuyNHc8VKePEEbaCipOo3e+r8
d8of6Ad/4kLV2WdhU/ogomUV9uF5CPrCuRiRQwfrIyBAulkCAwEAAaOBojCBnzAJ
BgNVHRMEAjAAMB0GA1UdDgQWBBR8T5CRCzi3v8OJavVx52xwKCTw+zBRBgNVHSME
SjBIgBT0MeC+sOrsaEvOWQq6YgHp/UZQeqEapBgwFjEUMBIGA1UEAwwLdGVhbTQ0
OS1uZXSCFHFQ+Th7zg1J0ZAKML076xVY1GcHMBMGA1UdJQQMMAoGCCsGAQUFBwMC
MAsGA1UdDwQEAwIHgDANBgkqhkiG9w0BAQsFAAOCAQEAVch/Q8r9lrJMC32uE4T/
67nLUTW2pv111mAk9nEQs3Z3pYVJ3T91tM/WncXOwfjXXQMvVgxgbmg5ile3alx8
vAl5Y3Hoo4d31lbsBQKPKUdFgSJX+emXomd3VGGodfcl2L2DnIYYM+53oLRMH72Z
WI60FZy/WL5/rcEWrBrsr0fQtGBxX2uIRWYyXByq0IZ9jfHiRQZiKiatNVs0k+xw
CNCP7dGmUUbINP0lSQ7hp9rsa/FFrwPekCqhoF/AJPDKrVpXjZEHisMxD7uo8Uus
+ZZXgsTVB4W/aGU+qET6MYL0IlgOihJg8k83dx88PXSshIOzpFXVV1EBX5RLs0Pr
iQ==
-----END CERTIFICATE-----
