Certificate:
    Data:
        Version: 3 (0x2)
        Serial Number:
            d0:c4:a4:f0:31:0c:50:e5:d9:90:ce:50:ff:07:ae:eb
        Signature Algorithm: sha256WithRSAEncryption
        Issuer: CN=team449-net
        Validity
            Not Before: May 18 21:20:04 2022 GMT
            Not After : May  2 21:20:04 2025 GMT
        Subject: CN=team449-server
        Subject Public Key Info:
            Public Key Algorithm: rsaEncryption
                RSA Public-Key: (2048 bit)
                Modulus:
                    00:cf:b7:b7:eb:95:d0:69:31:f4:39:8c:35:b7:9f:
                    c6:c9:28:44:a1:a8:10:1c:59:5b:43:a8:8d:ea:c7:
                    80:c9:e3:d6:1b:71:37:19:cf:af:2f:bb:67:39:b9:
                    e2:e9:3a:5e:f8:03:9e:88:f8:e7:f8:38:94:7a:85:
                    1d:8e:f6:5c:d2:b1:be:62:8d:74:c7:c5:ce:60:98:
                    ca:46:cb:24:09:da:2a:b3:c3:ab:00:34:5d:2c:7b:
                    0f:b7:fe:d6:0a:28:c5:30:14:98:10:d8:4f:7b:01:
                    5d:48:ac:9f:35:90:a0:7e:ee:53:5c:aa:d5:75:c0:
                    10:93:53:8c:87:a4:c1:52:35:b4:25:e4:e6:b5:5a:
                    67:fd:7d:33:c6:81:f1:e3:87:66:20:34:86:ee:72:
                    49:51:3e:b0:ac:45:41:b5:2c:57:de:07:b2:18:c6:
                    25:db:9f:9e:47:06:21:79:24:ba:2f:fe:e4:0d:c6:
                    a0:ca:29:7a:cd:07:da:a4:39:2d:f9:0f:c7:e8:0f:
                    28:7d:1d:06:fc:a0:a3:fc:ca:cf:fe:8a:ed:d9:25:
                    4b:45:de:8f:c1:19:7b:b1:69:f7:56:20:b4:ab:a1:
                    8d:64:60:14:79:a7:3d:74:e9:a9:e5:03:e8:08:a0:
                    62:17:0a:17:d6:f4:24:10:c1:32:a6:2d:4b:d6:9a:
                    0c:03
                Exponent: 65537 (0x10001)
        X509v3 extensions:
            X509v3 Basic Constraints: 
                CA:FALSE
            X509v3 Subject Key Identifier: 
                07:2D:F5:F4:32:52:AA:43:AD:2E:9C:BA:6E:87:54:85:E6:C7:34:9B
            X509v3 Authority Key Identifier: 
                keyid:F4:31:E0:BE:B0:EA:EC:68:4B:CE:59:0A:BA:62:01:E9:FD:46:50:7A
                DirName:/CN=team449-net
                serial:71:50:F9:38:7B:CE:0D:49:D1:90:0A:30:BD:3B:EB:15:58:D4:67:07

            X509v3 Extended Key Usage: 
                TLS Web Server Authentication
            X509v3 Key Usage: 
                Digital Signature, Key Encipherment
            X509v3 Subject Alternative Name: 
                DNS:team449-server
    Signature Algorithm: sha256WithRSAEncryption
         86:0d:2f:9c:73:bd:fd:e3:1b:37:d7:c9:47:d0:79:05:3f:76:
         a4:47:37:54:d3:76:95:e9:36:82:1c:31:0d:c4:80:c1:0e:73:
         5e:83:2a:02:27:05:f7:4e:18:cc:5d:b4:7c:07:98:a0:a6:8f:
         27:a6:3e:29:06:8c:ff:a3:9b:ec:ff:dd:b0:df:d5:8d:e1:8d:
         47:27:cd:20:c0:92:21:52:c6:f4:79:bd:c2:02:e0:e1:56:f3:
         bc:4d:84:9f:6f:95:bf:d5:44:d6:e6:5e:84:c4:be:6d:c3:02:
         df:3b:4d:87:87:f0:a2:73:f7:8f:0e:7e:11:ed:71:0c:b1:7b:
         72:88:fc:b3:71:9c:75:e4:92:e1:d4:89:ca:96:45:43:39:eb:
         f1:21:c2:4a:1b:82:e4:32:24:94:03:1a:d4:6e:ba:74:f5:06:
         19:5e:0a:76:7a:fa:02:76:42:31:0f:0e:1b:73:4d:e9:17:4a:
         bf:8b:13:aa:83:4f:0b:39:1b:14:d5:a4:0a:27:d0:50:0c:9e:
         76:a7:f5:4c:8e:8e:9f:26:64:37:d0:dc:8c:d7:99:02:c1:5b:
         fb:a4:5a:49:f3:4f:69:c4:7b:ee:4c:7f:49:48:e1:e2:41:dd:
         b1:41:1b:a1:21:0a:9b:f7:25:b9:35:14:b2:0b:b7:2c:8c:49:
         61:f1:3b:eb
-----BEGIN CERTIFICATE-----
MIIDeDCCAmCgAwIBAgIRANDEpPAxDFDl2ZDOUP8HruswDQYJKoZIhvcNAQELBQAw
FjEUMBIGA1UEAwwLdGVhbTQ0OS1uZXQwHhcNMjIwNTE4MjEyMDA0WhcNMjUwNTAy
MjEyMDA0WjAZMRcwFQYDVQQDDA50ZWFtNDQ5LXNlcnZlcjCCASIwDQYJKoZIhvcN
AQEBBQADggEPADCCAQoCggEBAM+3t+uV0Gkx9DmMNbefxskoRKGoEBxZW0OojerH
gMnj1htxNxnPry+7Zzm54uk6XvgDnoj45/g4lHqFHY72XNKxvmKNdMfFzmCYykbL
JAnaKrPDqwA0XSx7D7f+1gooxTAUmBDYT3sBXUisnzWQoH7uU1yq1XXAEJNTjIek
wVI1tCXk5rVaZ/19M8aB8eOHZiA0hu5ySVE+sKxFQbUsV94HshjGJdufnkcGIXkk
ui/+5A3GoMopes0H2qQ5LfkPx+gPKH0dBvygo/zKz/6K7dklS0Xej8EZe7Fp91Yg
tKuhjWRgFHmnPXTpqeUD6AigYhcKF9b0JBDBMqYtS9aaDAMCAwEAAaOBvTCBujAJ
BgNVHRMEAjAAMB0GA1UdDgQWBBQHLfX0MlKqQ60unLpuh1SF5sc0mzBRBgNVHSME
SjBIgBT0MeC+sOrsaEvOWQq6YgHp/UZQeqEapBgwFjEUMBIGA1UEAwwLdGVhbTQ0
OS1uZXSCFHFQ+Th7zg1J0ZAKML076xVY1GcHMBMGA1UdJQQMMAoGCCsGAQUFBwMB
MAsGA1UdDwQEAwIFoDAZBgNVHREEEjAQgg50ZWFtNDQ5LXNlcnZlcjANBgkqhkiG
9w0BAQsFAAOCAQEAhg0vnHO9/eMbN9fJR9B5BT92pEc3VNN2lek2ghwxDcSAwQ5z
XoMqAicF904YzF20fAeYoKaPJ6Y+KQaM/6Ob7P/dsN/VjeGNRyfNIMCSIVLG9Hm9
wgLg4VbzvE2En2+Vv9VE1uZehMS+bcMC3ztNh4fwonP3jw5+Ee1xDLF7coj8s3Gc
deSS4dSJypZFQznr8SHCShuC5DIklAMa1G66dPUGGV4Kdnr6AnZCMQ8OG3NN6RdK
v4sTqoNPCzkbFNWkCifQUAyedqf1TI6OnyZkN9DcjNeZAsFb+6RaSfNPacR77kx/
SUjh4kHdsUEboSEKm/cluTUUsgu3LIxJYfE76w==
-----END CERTIFICATE-----
