Certificate:
    Data:
        Version: 3 (0x2)
        Serial Number:
            f0:57:4b:53:f3:8f:22:cd:1d:56:26:2d:52:ca:84:46
        Signature Algorithm: sha256WithRSAEncryption
        Issuer: CN=team298-net
        Validity
            Not Before: May 18 20:05:18 2022 GMT
            Not After : May  2 20:05:18 2025 GMT
        Subject: CN=team298-client
        Subject Public Key Info:
            Public Key Algorithm: rsaEncryption
                RSA Public-Key: (2048 bit)
                Modulus:
                    00:b0:00:42:ec:19:d2:2f:8b:2c:a2:df:e1:ec:b6:
                    9b:4c:2e:18:87:a6:2f:34:c5:35:63:2a:e5:40:2e:
                    17:8c:f7:f4:b0:f6:cf:bd:f9:ed:f3:f7:62:ff:25:
                    46:71:90:1e:87:86:74:00:23:1f:96:1a:74:fc:d1:
                    7f:ca:28:a0:d2:71:98:6e:11:19:c4:d8:8e:34:88:
                    a4:04:ee:15:76:59:c8:88:82:b6:a1:a5:6b:e1:d5:
                    16:23:e5:4a:44:00:1a:30:4b:c0:02:8d:7d:a7:60:
                    d8:f9:b5:bc:2f:8f:bb:cf:10:c1:1a:5c:9b:33:19:
                    82:ec:c8:25:f0:8c:c9:4b:46:eb:a2:6a:2c:6e:f0:
                    01:d4:3b:57:e6:cb:c0:80:89:1a:ed:d8:58:9e:3d:
                    3a:f9:2b:73:55:bb:47:b5:8a:32:4e:2c:0d:c3:d0:
                    c9:75:f5:9f:7e:42:5e:0b:df:f3:1e:ba:b7:67:bd:
                    82:5d:a9:ad:bc:7f:57:d5:e2:02:22:09:c2:cb:b0:
                    3b:ef:6a:2e:42:71:35:79:7c:b4:bd:6c:73:4d:bd:
                    e1:26:c8:11:7e:07:f9:ff:fc:c5:fc:07:18:7f:bd:
                    79:00:c2:dd:a0:a2:1c:18:71:8b:45:01:dc:24:2d:
                    3b:40:cd:3b:de:34:93:11:b4:0f:fb:9b:2b:1a:85:
                    aa:d1
                Exponent: 65537 (0x10001)
        X509v3 extensions:
            X509v3 Basic Constraints: 
                CA:FALSE
            X509v3 Subject Key Identifier: 
                CA:77:30:18:D6:EA:A2:5B:0D:41:EE:E6:5C:19:88:55:D9:63:A9:3B
            X509v3 Authority Key Identifier: 
                keyid:00:4B:FE:33:F3:AE:7E:88:8B:A6:CD:B0:7D:9F:9B:6A:33:0B:83:7D
                DirName:/CN=team298-net
                serial:4A:F3:A4:7D:4F:04:CD:78:D0:49:28:BE:9C:A6:05:0C:44:61:72:EF

            X509v3 Extended Key Usage: 
                TLS Web Client Authentication
            X509v3 Key Usage: 
                Digital Signature
    Signature Algorithm: sha256WithRSAEncryption
         3a:22:fe:17:7d:d8:e3:14:a4:b9:cb:52:de:6f:b0:b0:6b:40:
         36:51:5e:47:5a:6d:66:86:e6:47:1f:18:52:1a:85:f4:b2:90:
         6c:5a:86:b2:68:97:b7:7d:f8:37:cb:c4:f1:96:93:97:a8:7f:
         40:33:d8:7a:40:99:e9:04:5f:76:92:62:fb:a6:46:74:46:c7:
         a1:04:e8:60:73:f0:e5:d1:79:21:c2:2d:8e:a0:cd:53:0d:a2:
         71:22:d0:e0:b4:65:80:1d:f1:88:c7:3f:f6:08:44:35:65:7e:
         d3:30:61:ef:4a:b5:0b:dc:4b:32:fa:a7:48:e4:cc:5f:f3:7d:
         05:3b:68:cb:b9:86:83:13:fc:a7:3a:5a:79:06:95:f8:f4:ea:
         37:dd:eb:bd:81:a2:1d:2e:2c:00:2a:a3:49:6b:e7:29:a0:9b:
         f8:fb:e6:a9:7d:2d:a3:14:66:21:8a:21:44:2b:3b:66:4b:26:
         ff:ba:89:b8:65:ce:3f:b2:c8:0c:57:b8:9b:2a:68:53:2f:3b:
         d6:b8:a3:d3:46:97:1f:b6:3f:e9:ef:7b:52:5d:d8:69:9b:16:
         2f:5e:24:e6:09:d1:c8:a3:9a:c4:11:09:d9:64:00:11:89:95:
         dd:b4:eb:25:45:6b:c4:6d:6b:eb:47:03:d8:6d:45:07:41:9c:
         4b:0b:19:c0
-----BEGIN CERTIFICATE-----
MIIDXTCCAkWgAwIBAgIRAPBXS1PzjyLNHVYmLVLKhEYwDQYJKoZIhvcNAQELBQAw
FjEUMBIGA1UEAwwLdGVhbTI5OC1uZXQwHhcNMjIwNTE4MjAwNTE4WhcNMjUwNTAy
MjAwNTE4WjAZMRcwFQYDVQQDDA50ZWFtMjk4LWNsaWVudDCCASIwDQYJKoZIhvcN
AQEBBQADggEPADCCAQoCggEBALAAQuwZ0i+LLKLf4ey2m0wuGIemLzTFNWMq5UAu
F4z39LD2z7357fP3Yv8lRnGQHoeGdAAjH5YadPzRf8oooNJxmG4RGcTYjjSIpATu
FXZZyIiCtqGla+HVFiPlSkQAGjBLwAKNfadg2Pm1vC+Pu88QwRpcmzMZguzIJfCM
yUtG66JqLG7wAdQ7V+bLwICJGu3YWJ49Ovkrc1W7R7WKMk4sDcPQyXX1n35CXgvf
8x66t2e9gl2prbx/V9XiAiIJwsuwO+9qLkJxNXl8tL1sc0294SbIEX4H+f/8xfwH
GH+9eQDC3aCiHBhxi0UB3CQtO0DNO940kxG0D/ubKxqFqtECAwEAAaOBojCBnzAJ
BgNVHRMEAjAAMB0GA1UdDgQWBBTKdzAY1uqiWw1B7uZcGYhV2WOpOzBRBgNVHSME
SjBIgBQAS/4z865+iIumzbB9n5tqMwuDfaEapBgwFjEUMBIGA1UEAwwLdGVhbTI5
OC1uZXSCFErzpH1PBM140EkovpymBQxEYXLvMBMGA1UdJQQMMAoGCCsGAQUFBwMC
MAsGA1UdDwQEAwIHgDANBgkqhkiG9w0BAQsFAAOCAQEAOiL+F33Y4xSkuctS3m+w
sGtANlFeR1ptZobmRx8YUhqF9LKQbFqGsmiXt334N8vE8ZaTl6h/QDPYekCZ6QRf
dpJi+6ZGdEbHoQToYHPw5dF5IcItjqDNUw2icSLQ4LRlgB3xiMc/9ghENWV+0zBh
70q1C9xLMvqnSOTMX/N9BTtoy7mGgxP8pzpaeQaV+PTqN93rvYGiHS4sACqjSWvn
KaCb+PvmqX0toxRmIYohRCs7Zksm/7qJuGXOP7LIDFe4mypoUy871rij00aXH7Y/
6e97Ul3YaZsWL14k5gnRyKOaxBEJ2WQAEYmV3bTrJUVrxG1r60cD2G1FB0GcSwsZ
wA==
-----END CERTIFICATE-----
