Certificate:
    Data:
        Version: 3 (0x2)
        Serial Number:
            99:91:17:36:21:5f:80:0d:e6:5b:10:6f:00:0d:5f:18
        Signature Algorithm: sha256WithRSAEncryption
        Issuer: CN=team627-net
        Validity
            Not Before: May 18 23:04:50 2022 GMT
            Not After : May  2 23:04:50 2025 GMT
        Subject: CN=team627-server
        Subject Public Key Info:
            Public Key Algorithm: rsaEncryption
                RSA Public-Key: (2048 bit)
                Modulus:
                    00:d7:67:18:5e:2d:63:92:28:00:9b:82:29:d6:ae:
                    c8:1e:4a:ec:f1:ff:e1:07:6a:2f:9b:15:83:18:07:
                    a2:ba:95:5c:ce:6c:9b:d4:03:1e:79:93:e1:f0:f9:
                    3a:7a:6f:71:46:fa:2d:18:7d:52:67:9e:99:bc:0c:
                    d2:0e:b3:9e:04:ec:5d:c4:5e:6d:b6:04:c5:fb:75:
                    d8:08:b6:63:df:d1:24:2a:1c:fd:0c:53:41:85:83:
                    73:e7:4b:12:90:f7:11:37:a3:0e:c2:fb:03:38:fe:
                    42:ad:b6:ab:13:51:4d:8b:94:0e:24:64:de:70:36:
                    07:b0:ff:12:80:54:76:0c:12:2c:af:7e:07:05:4b:
                    2a:23:f6:e4:4e:08:e9:1b:c1:0f:46:07:6d:99:60:
                    91:75:9c:bb:18:6b:7f:e6:33:d9:b3:09:c0:3b:b4:
                    86:f6:c1:d4:03:60:73:66:b1:c3:cc:0b:2c:99:70:
                    02:6d:2f:b0:5e:d2:01:ca:23:04:82:3a:bd:d6:85:
                    21:11:65:cd:c5:d1:0b:a1:cb:b8:85:f6:4d:3c:74:
                    e3:1b:2d:8c:d7:4a:1e:7d:ab:6d:2b:d7:ea:d4:5e:
                    7c:47:97:cf:b6:09:77:29:56:6f:8b:69:3c:98:5c:
                    4f:4a:c4:ee:6c:93:36:8f:4b:e6:34:39:01:b9:c7:
                    41:4f
                Exponent: 65537 (0x10001)
        X509v3 extensions:
            X509v3 Basic Constraints: 
                CA:FALSE
            X509v3 Subject Key Identifier: 
                9E:EB:71:BE:4A:0F:07:BB:F7:11:A5:A4:74:CB:69:2D:7B:DD:56:35
            X509v3 Authority Key Identifier: 
                keyid:AD:34:56:74:FF:74:AC:0F:71:8A:2C:73:76:B5:40:B1:D2:EC:EC:11
                DirName:/CN=team627-net
                serial:50:68:00:9D:20:D9:FF:56:98:3D:C9:DE:3F:A6:26:5F:8D:DF:F6:31

            X509v3 Extended Key Usage: 
                TLS Web Server Authentication
            X509v3 Key Usage: 
                Digital Signature, Key Encipherment
            X509v3 Subject Alternative Name: 
                DNS:team627-server
    Signature Algorithm: sha256WithRSAEncryption
         87:a2:0e:e4:b8:53:8c:45:ae:a4:d9:b7:c6:79:6e:c8:15:08:
         0f:c3:ee:8f:bc:da:ca:c0:e6:56:ca:43:ff:ff:5b:e1:5b:07:
         e6:e6:64:58:fd:42:bb:25:64:df:07:07:5c:7e:19:ef:1c:e9:
         8a:9e:53:29:df:62:48:ef:05:32:1b:57:5c:ae:98:45:29:7e:
         66:2a:a3:8e:2d:6d:12:5f:74:ef:91:5b:9c:00:f8:f9:83:50:
         6c:bc:37:10:f7:cd:ed:6b:a6:e4:8c:8b:c0:74:73:95:89:88:
         73:44:c9:9c:46:35:83:66:d1:02:bc:c9:c6:a8:f2:b1:5d:ae:
         4e:a0:8f:ab:9b:e4:a3:b4:f3:cd:63:72:46:e3:45:7c:36:0e:
         0b:78:ec:2d:e9:98:bf:02:fd:46:a4:65:c9:39:b0:ba:35:e6:
         ec:a8:24:66:3d:72:7b:f5:88:f3:f6:33:48:57:0b:d1:17:4d:
         39:da:19:45:4b:48:b9:7f:d2:ba:65:a9:04:9a:9d:3c:7e:40:
         a9:5d:83:02:a3:f9:c1:04:ba:4f:34:2d:32:a6:aa:44:08:84:
         87:f7:06:5f:26:5d:12:6b:76:a2:b2:1b:dc:16:2c:50:89:c1:
         e1:b7:12:e5:43:5e:49:0a:2a:11:0d:ea:da:40:9d:af:c9:6a:
         ca:77:1f:58
-----BEGIN CERTIFICATE-----
MIIDeDCCAmCgAwIBAgIRAJmRFzYhX4AN5lsQbwANXxgwDQYJKoZIhvcNAQELBQAw
FjEUMBIGA1UEAwwLdGVhbTYyNy1uZXQwHhcNMjIwNTE4MjMwNDUwWhcNMjUwNTAy
MjMwNDUwWjAZMRcwFQYDVQQDDA50ZWFtNjI3LXNlcnZlcjCCASIwDQYJKoZIhvcN
AQEBBQADggEPADCCAQoCggEBANdnGF4tY5IoAJuCKdauyB5K7PH/4QdqL5sVgxgH
orqVXM5sm9QDHnmT4fD5OnpvcUb6LRh9UmeembwM0g6zngTsXcRebbYExft12Ai2
Y9/RJCoc/QxTQYWDc+dLEpD3ETejDsL7Azj+Qq22qxNRTYuUDiRk3nA2B7D/EoBU
dgwSLK9+BwVLKiP25E4I6RvBD0YHbZlgkXWcuxhrf+Yz2bMJwDu0hvbB1ANgc2ax
w8wLLJlwAm0vsF7SAcojBII6vdaFIRFlzcXRC6HLuIX2TTx04xstjNdKHn2rbSvX
6tRefEeXz7YJdylWb4tpPJhcT0rE7myTNo9L5jQ5AbnHQU8CAwEAAaOBvTCBujAJ
BgNVHRMEAjAAMB0GA1UdDgQWBBSe63G+Sg8Hu/cRpaR0y2kte91WNTBRBgNVHSME
SjBIgBStNFZ0/3SsD3GKLHN2tUCx0uzsEaEapBgwFjEUMBIGA1UEAwwLdGVhbTYy
Ny1uZXSCFFBoAJ0g2f9WmD3J3j+mJl+N3/YxMBMGA1UdJQQMMAoGCCsGAQUFBwMB
MAsGA1UdDwQEAwIFoDAZBgNVHREEEjAQgg50ZWFtNjI3LXNlcnZlcjANBgkqhkiG
9w0BAQsFAAOCAQEAh6IO5LhTjEWupNm3xnluyBUID8Puj7zaysDmVspD//9b4VsH
5uZkWP1CuyVk3wcHXH4Z7xzpip5TKd9iSO8FMhtXXK6YRSl+Ziqjji1tEl9075Fb
nAD4+YNQbLw3EPfN7Wum5IyLwHRzlYmIc0TJnEY1g2bRArzJxqjysV2uTqCPq5vk
o7TzzWNyRuNFfDYOC3jsLemYvwL9RqRlyTmwujXm7KgkZj1ye/WI8/YzSFcL0RdN
OdoZRUtIuX/SumWpBJqdPH5AqV2DAqP5wQS6TzQtMqaqRAiEh/cGXyZdEmt2orIb
3BYsUInB4bcS5UNeSQoqEQ3q2kCdr8lqyncfWA==
-----END CERTIFICATE-----
