Certificate:
    Data:
        Version: 3 (0x2)
        Serial Number:
            dc:30:26:0e:ed:6b:45:2c:90:89:47:71:a1:ee:e9:16
        Signature Algorithm: sha256WithRSAEncryption
        Issuer: CN=team113-net
        Validity
            Not Before: May 18 14:56:30 2022 GMT
            Not After : May  2 14:56:30 2025 GMT
        Subject: CN=team113-client
        Subject Public Key Info:
            Public Key Algorithm: rsaEncryption
                RSA Public-Key: (2048 bit)
                Modulus:
                    00:d5:c8:38:ba:d4:e4:1f:3c:41:a6:8b:6f:e8:c1:
                    21:b0:27:b4:de:1e:e5:5b:80:40:cf:1d:f4:59:d3:
                    74:e9:87:e1:0c:b9:f6:b4:c8:69:e5:f8:85:a9:ab:
                    b0:90:03:d9:82:1d:df:3d:b9:9a:d4:e5:f4:8c:48:
                    f5:ca:de:74:5d:bd:ce:89:53:07:5a:66:95:80:e6:
                    81:07:8b:5c:be:7b:4a:91:f5:73:c9:8c:a5:25:52:
                    49:fa:02:2b:37:34:b9:3e:aa:97:61:98:4f:aa:03:
                    ba:b6:b0:98:56:4c:ac:81:a9:a0:ec:6d:c4:4a:8e:
                    c2:d2:21:ab:4b:7f:1d:c3:96:69:5f:e0:66:c6:95:
                    64:c9:dc:9b:8c:73:4f:ca:32:02:f8:25:d6:6d:cb:
                    1a:26:64:31:6a:b4:20:56:c6:99:ac:bf:1f:36:c3:
                    3f:b4:25:e4:17:30:08:15:b6:66:dd:4b:01:b5:8f:
                    1c:39:4e:b9:bf:cb:1e:09:fa:07:e0:99:39:52:66:
                    01:51:ad:73:06:4c:f8:62:68:50:86:5a:38:58:97:
                    cf:d4:9e:fa:45:3c:b4:e3:62:73:89:69:f8:3a:7a:
                    11:31:90:3e:f6:44:c8:b9:cc:d2:c7:25:c7:b0:e0:
                    ae:eb:74:2a:35:71:6b:ef:f6:0a:31:60:3d:ba:a9:
                    ea:ed
                Exponent: 65537 (0x10001)
        X509v3 extensions:
            X509v3 Basic Constraints: 
                CA:FALSE
            X509v3 Subject Key Identifier: 
                9C:43:06:78:8E:D3:65:A5:60:EB:03:03:65:DA:41:67:E9:51:10:F6
            X509v3 Authority Key Identifier: 
                keyid:7C:35:69:23:3D:4B:93:92:04:65:D3:3C:BC:09:21:4B:A4:BF:C9:90
                DirName:/CN=team113-net
                serial:72:DA:FC:8D:E4:F1:44:2C:3C:73:BB:C6:E3:03:B6:DC:DA:5E:C3:E3

            X509v3 Extended Key Usage: 
                TLS Web Client Authentication
            X509v3 Key Usage: 
                Digital Signature
    Signature Algorithm: sha256WithRSAEncryption
         0a:22:49:1c:fa:33:d6:c5:fe:3c:22:5d:ff:e6:61:2f:e8:7e:
         46:8a:d2:db:87:a8:db:1e:52:2b:72:75:ee:bc:cd:f7:fb:ac:
         a8:97:1d:49:d7:4a:0a:c1:d9:9e:7b:d2:a5:9f:f1:76:00:bf:
         9c:73:d4:dc:16:cc:4c:56:78:4a:16:40:35:18:36:0f:89:58:
         b1:5c:f0:8f:ee:5b:13:14:ed:0e:1a:8a:3e:04:61:8a:08:0d:
         39:13:c7:aa:3e:c9:17:b8:21:59:77:04:7e:1c:92:c4:91:81:
         0c:33:a3:04:bf:e0:44:01:40:ee:72:ea:7c:a2:fe:4f:33:be:
         f7:73:3d:01:9d:11:7e:c3:7a:9f:74:05:0e:dc:55:d3:c0:c0:
         72:b6:cc:a6:4e:23:38:2f:ef:0f:09:05:a8:67:54:b8:8e:ce:
         36:cf:54:bd:f5:09:4c:fa:b4:64:c3:fc:3b:2f:50:98:82:b9:
         a1:f4:2b:57:d6:3f:74:37:52:f8:00:4f:54:1f:2a:5a:b5:1a:
         a1:e5:fd:17:fa:dc:9c:f6:47:ea:25:ae:ed:52:87:50:49:a4:
         ba:00:45:33:25:1f:c8:5c:a9:70:7a:e6:a7:80:e0:bc:f5:a8:
         6c:2b:b8:cd:27:fb:bd:56:6c:9c:78:ef:01:ca:e5:79:1e:2e:
         5f:25:a5:f2
-----BEGIN CERTIFICATE-----
MIIDXTCCAkWgAwIBAgIRANwwJg7ta0UskIlHcaHu6RYwDQYJKoZIhvcNAQELBQAw
FjEUMBIGA1UEAwwLdGVhbTExMy1uZXQwHhcNMjIwNTE4MTQ1NjMwWhcNMjUwNTAy
MTQ1NjMwWjAZMRcwFQYDVQQDDA50ZWFtMTEzLWNsaWVudDCCASIwDQYJKoZIhvcN
AQEBBQADggEPADCCAQoCggEBANXIOLrU5B88QaaLb+jBIbAntN4e5VuAQM8d9FnT
dOmH4Qy59rTIaeX4hamrsJAD2YId3z25mtTl9IxI9credF29zolTB1pmlYDmgQeL
XL57SpH1c8mMpSVSSfoCKzc0uT6ql2GYT6oDurawmFZMrIGpoOxtxEqOwtIhq0t/
HcOWaV/gZsaVZMncm4xzT8oyAvgl1m3LGiZkMWq0IFbGmay/HzbDP7Ql5BcwCBW2
Zt1LAbWPHDlOub/LHgn6B+CZOVJmAVGtcwZM+GJoUIZaOFiXz9Se+kU8tONic4lp
+Dp6ETGQPvZEyLnM0sclx7Dgrut0KjVxa+/2CjFgPbqp6u0CAwEAAaOBojCBnzAJ
BgNVHRMEAjAAMB0GA1UdDgQWBBScQwZ4jtNlpWDrAwNl2kFn6VEQ9jBRBgNVHSME
SjBIgBR8NWkjPUuTkgRl0zy8CSFLpL/JkKEapBgwFjEUMBIGA1UEAwwLdGVhbTEx
My1uZXSCFHLa/I3k8UQsPHO7xuMDttzaXsPjMBMGA1UdJQQMMAoGCCsGAQUFBwMC
MAsGA1UdDwQEAwIHgDANBgkqhkiG9w0BAQsFAAOCAQEACiJJHPoz1sX+PCJd/+Zh
L+h+RorS24eo2x5SK3J17rzN9/usqJcdSddKCsHZnnvSpZ/xdgC/nHPU3BbMTFZ4
ShZANRg2D4lYsVzwj+5bExTtDhqKPgRhiggNORPHqj7JF7ghWXcEfhySxJGBDDOj
BL/gRAFA7nLqfKL+TzO+93M9AZ0RfsN6n3QFDtxV08DAcrbMpk4jOC/vDwkFqGdU
uI7ONs9UvfUJTPq0ZMP8Oy9QmIK5ofQrV9Y/dDdS+ABPVB8qWrUaoeX9F/rcnPZH
6iWu7VKHUEmkugBFMyUfyFypcHrmp4DgvPWobCu4zSf7vVZsnHjvAcrleR4uXyWl
8g==
-----END CERTIFICATE-----
