Certificate:
    Data:
        Version: 3 (0x2)
        Serial Number:
            3d:33:b3:3d:f7:54:c0:56:33:38:d0:16:d0:dd:f7:c0
        Signature Algorithm: sha256WithRSAEncryption
        Issuer: CN=team531-net
        Validity
            Not Before: May 18 22:07:05 2022 GMT
            Not After : May  2 22:07:05 2025 GMT
        Subject: CN=team531-server
        Subject Public Key Info:
            Public Key Algorithm: rsaEncryption
                RSA Public-Key: (2048 bit)
                Modulus:
                    00:c8:dd:84:6b:1a:51:1b:47:f5:30:ae:f3:aa:f5:
                    27:5a:dc:b6:94:a3:47:52:e8:fc:6c:ae:39:5f:c8:
                    be:9d:89:7c:53:80:9f:32:37:6e:7f:35:f1:38:46:
                    96:43:54:1e:e7:42:9a:af:7a:af:3a:5b:4f:f3:b3:
                    e2:31:6e:6b:35:5c:18:f5:56:ce:e9:0d:21:7e:f4:
                    8f:ce:ea:29:6d:35:16:9b:c6:32:40:00:da:ba:11:
                    6e:88:8d:7e:8e:3b:2d:07:27:29:82:54:dd:98:ad:
                    10:0b:dc:18:ca:a5:f9:4c:6e:07:af:f6:48:c4:4e:
                    28:37:42:0c:f9:61:e8:f3:31:b8:2c:b5:2b:5f:d6:
                    b8:b5:e5:f6:c7:db:83:43:73:db:ba:ef:e4:ad:13:
                    ba:aa:45:3a:2c:87:af:df:40:4a:9e:c3:6c:71:4f:
                    0c:19:f3:bf:22:09:7f:8d:b2:9f:0b:b1:53:3a:7e:
                    b9:ac:6b:58:f6:a9:b8:b9:c3:bc:1b:49:62:81:2b:
                    c6:e7:0b:04:25:d6:db:e9:35:4e:ca:39:ec:d8:4a:
                    eb:2e:6b:95:29:f0:0a:da:6f:2e:b0:4b:a1:de:77:
                    bf:64:a6:65:ca:c4:5d:23:b3:19:f4:d7:3e:03:9f:
                    cc:a4:9c:0e:34:a5:f8:ad:4f:e2:76:cf:8d:0b:a4:
                    8d:59
                Exponent: 65537 (0x10001)
        X509v3 extensions:
            X509v3 Basic Constraints: 
                CA:FALSE
            X509v3 Subject Key Identifier: 
                9A:BC:47:D4:50:22:CE:17:65:2E:28:AB:A2:44:62:AA:C7:73:05:AE
            X509v3 Authority Key Identifier: 
                keyid:B0:E7:B2:FE:2B:F6:29:3E:BA:6F:38:A6:56:6B:37:93:94:A1:3C:52
                DirName:/CN=team531-net
                serial:67:88:06:2D:E0:6D:FF:2F:74:06:6D:CB:DD:E5:5C:89:60:D1:3C:71

            X509v3 Extended Key Usage: 
                TLS Web Server Authentication
            X509v3 Key Usage: 
                Digital Signature, Key Encipherment
            X509v3 Subject Alternative Name: 
                DNS:team531-server
    Signature Algorithm: sha256WithRSAEncryption
         19:1f:82:1a:18:7b:d2:b0:98:a2:6f:49:10:63:91:47:14:f2:
         e6:d0:ff:af:64:e2:e7:7a:74:41:4f:bd:21:5d:cb:5c:6e:d6:
         b2:9a:cb:7c:7e:34:ad:20:26:56:c7:da:9c:ed:cc:14:f0:a7:
         75:6e:e2:c5:e1:87:84:27:6b:00:be:25:72:4b:ea:6e:26:b5:
         53:b7:73:cc:81:58:02:cb:84:2b:4b:4d:2d:4f:ef:62:58:6b:
         39:c5:8a:74:b2:b4:09:f9:f9:09:ab:d6:65:bb:69:6f:f6:00:
         25:ab:1b:bb:54:69:30:8f:93:5d:13:9d:21:b1:93:36:14:ed:
         79:0e:1c:00:ce:47:fd:f4:a3:e3:58:25:ab:0a:5b:11:63:ac:
         d7:0f:3f:2b:1c:5e:87:31:38:9d:ab:f5:ca:1a:3d:f7:33:a2:
         ba:50:a3:9f:b9:7a:b8:75:32:4a:3f:2d:d9:74:aa:7f:b2:10:
         42:30:17:a8:1c:12:24:30:a2:c8:62:3d:88:d3:7e:96:b9:f9:
         fe:82:d2:76:eb:7d:ff:56:b5:dc:d5:25:cb:e1:42:8b:68:c0:
         d5:e5:98:40:34:97:89:14:29:42:97:7c:ef:ff:cd:cd:22:07:
         23:4a:07:24:68:d9:15:89:d0:bb:31:ed:2c:a9:3c:f7:41:59:
         af:4f:2f:36
-----BEGIN CERTIFICATE-----
MIIDdzCCAl+gAwIBAgIQPTOzPfdUwFYzONAW0N33wDANBgkqhkiG9w0BAQsFADAW
MRQwEgYDVQQDDAt0ZWFtNTMxLW5ldDAeFw0yMjA1MTgyMjA3MDVaFw0yNTA1MDIy
MjA3MDVaMBkxFzAVBgNVBAMMDnRlYW01MzEtc2VydmVyMIIBIjANBgkqhkiG9w0B
AQEFAAOCAQ8AMIIBCgKCAQEAyN2EaxpRG0f1MK7zqvUnWty2lKNHUuj8bK45X8i+
nYl8U4CfMjdufzXxOEaWQ1Qe50Kar3qvOltP87PiMW5rNVwY9VbO6Q0hfvSPzuop
bTUWm8YyQADauhFuiI1+jjstBycpglTdmK0QC9wYyqX5TG4Hr/ZIxE4oN0IM+WHo
8zG4LLUrX9a4teX2x9uDQ3Pbuu/krRO6qkU6LIev30BKnsNscU8MGfO/Igl/jbKf
C7FTOn65rGtY9qm4ucO8G0ligSvG5wsEJdbb6TVOyjns2ErrLmuVKfAK2m8usEuh
3ne/ZKZlysRdI7MZ9Nc+A5/MpJwONKX4rU/ids+NC6SNWQIDAQABo4G9MIG6MAkG
A1UdEwQCMAAwHQYDVR0OBBYEFJq8R9RQIs4XZS4oq6JEYqrHcwWuMFEGA1UdIwRK
MEiAFLDnsv4r9ik+um84plZrN5OUoTxSoRqkGDAWMRQwEgYDVQQDDAt0ZWFtNTMx
LW5ldIIUZ4gGLeBt/y90Bm3L3eVciWDRPHEwEwYDVR0lBAwwCgYIKwYBBQUHAwEw
CwYDVR0PBAQDAgWgMBkGA1UdEQQSMBCCDnRlYW01MzEtc2VydmVyMA0GCSqGSIb3
DQEBCwUAA4IBAQAZH4IaGHvSsJiib0kQY5FHFPLm0P+vZOLnenRBT70hXctcbtay
mst8fjStICZWx9qc7cwU8Kd1buLF4YeEJ2sAviVyS+puJrVTt3PMgVgCy4QrS00t
T+9iWGs5xYp0srQJ+fkJq9Zlu2lv9gAlqxu7VGkwj5NdE50hsZM2FO15DhwAzkf9
9KPjWCWrClsRY6zXDz8rHF6HMTidq/XKGj33M6K6UKOfuXq4dTJKPy3ZdKp/shBC
MBeoHBIkMKLIYj2I036Wufn+gtJ2633/VrXc1SXL4UKLaMDV5ZhANJeJFClCl3zv
/83NIgcjSgckaNkVidC7Me0sqTz3QVmvTy82
-----END CERTIFICATE-----
