Certificate:
    Data:
        Version: 3 (0x2)
        Serial Number:
            98:ea:60:54:ac:11:a6:4e:b1:cd:a3:59:0a:15:92:4b
        Signature Algorithm: sha256WithRSAEncryption
        Issuer: CN=team19-net
        Validity
            Not Before: May 18 14:01:55 2022 GMT
            Not After : May  2 14:01:55 2025 GMT
        Subject: CN=team19-server
        Subject Public Key Info:
            Public Key Algorithm: rsaEncryption
                RSA Public-Key: (2048 bit)
                Modulus:
                    00:b6:ef:22:72:50:ed:9b:2d:81:02:c2:4f:79:5c:
                    68:41:ee:84:0e:9b:55:8d:9b:30:c5:d8:93:34:f6:
                    a8:1a:47:c5:67:6b:4a:b0:9d:1e:3a:c2:fa:20:23:
                    dc:47:51:85:c8:4a:11:dd:b6:41:33:86:27:a4:7c:
                    53:93:c5:36:48:d5:8b:2c:bf:27:a0:86:93:b1:8f:
                    e3:28:20:fc:8b:0b:2a:2c:a7:05:9d:10:47:13:2d:
                    a5:e2:a3:2a:a0:ff:03:84:d4:0b:6f:10:d0:ad:b6:
                    88:db:1c:ec:b6:db:d7:34:f9:3e:00:f4:24:66:a7:
                    e6:09:9d:55:3e:3e:7a:76:56:9e:ca:eb:32:23:43:
                    c2:02:42:a0:8c:35:a0:fe:82:3f:d6:e0:81:21:88:
                    40:32:60:d1:34:9a:b9:1b:d5:cc:61:ea:af:7b:50:
                    4e:07:e9:a3:d3:22:b1:c0:84:4b:13:09:dc:b7:3c:
                    7b:cc:02:f2:6e:be:a0:dc:44:7e:85:ca:e9:d5:92:
                    2a:41:68:2e:56:f0:8e:dd:af:91:ba:14:76:89:68:
                    86:1e:3a:0f:80:dc:cc:53:fd:b4:3a:51:57:03:36:
                    ac:8e:91:c3:fe:8c:fe:4c:ca:44:e9:19:6d:96:20:
                    e6:10:da:f4:50:7a:9f:10:43:27:2f:40:13:77:b8:
                    25:ed
                Exponent: 65537 (0x10001)
        X509v3 extensions:
            X509v3 Basic Constraints: 
                CA:FALSE
            X509v3 Subject Key Identifier: 
                82:72:3E:3A:95:2B:62:01:E8:B1:92:FA:74:F9:DE:A7:A6:34:4E:C6
            X509v3 Authority Key Identifier: 
                keyid:AC:98:4E:1C:F4:21:79:77:F2:D2:58:E9:03:91:06:4C:1B:90:5D:35
                DirName:/CN=team19-net
                serial:2E:ED:C0:C9:CC:00:97:2C:E3:70:79:27:4F:ED:44:25:E6:F7:79:95

            X509v3 Extended Key Usage: 
                TLS Web Server Authentication
            X509v3 Key Usage: 
                Digital Signature, Key Encipherment
            X509v3 Subject Alternative Name: 
                DNS:team19-server
    Signature Algorithm: sha256WithRSAEncryption
         67:1e:78:66:25:62:55:f2:c7:38:40:60:4d:40:55:c5:38:26:
         89:05:fe:00:51:49:41:ed:2c:d7:27:a6:fc:11:c9:de:78:13:
         41:1e:63:f1:8c:cb:dd:f7:c3:a9:8e:b4:ae:5f:6e:97:f3:13:
         d9:31:f2:5a:37:a9:4c:b0:16:a3:a6:f0:c9:43:3c:05:0f:27:
         e1:c3:32:5d:7e:e7:78:05:55:28:6b:69:d7:e2:d6:79:2c:c2:
         25:45:19:f5:f6:68:6e:32:30:8d:a5:ae:07:0b:26:b7:4c:90:
         0d:ea:47:4e:28:18:95:50:f2:8e:7f:b7:06:54:ae:95:65:29:
         b5:04:2e:77:6b:41:8e:b3:1c:bd:23:ef:12:78:f4:cf:0a:dd:
         d5:87:ab:5e:e1:9f:ab:a9:9c:8a:cc:bc:31:f3:6f:59:30:0d:
         bb:58:b9:2d:e7:a2:96:d6:cb:07:fc:08:26:74:f4:f0:05:a1:
         ce:d4:19:3c:e6:73:54:dc:4f:b5:11:f7:5c:18:f7:a1:24:f0:
         8c:1b:df:4f:fb:c8:ff:0e:4f:dd:4a:e2:cb:71:b1:52:45:d4:
         4c:cb:4c:59:72:0a:20:0c:c7:8c:cb:ad:38:17:40:a8:fc:2b:
         42:28:5c:47:9a:b0:24:3e:4a:ab:60:60:7b:0b:9f:16:cb:13:
         7d:f2:cb:7b
-----BEGIN CERTIFICATE-----
MIIDdDCCAlygAwIBAgIRAJjqYFSsEaZOsc2jWQoVkkswDQYJKoZIhvcNAQELBQAw
FTETMBEGA1UEAwwKdGVhbTE5LW5ldDAeFw0yMjA1MTgxNDAxNTVaFw0yNTA1MDIx
NDAxNTVaMBgxFjAUBgNVBAMMDXRlYW0xOS1zZXJ2ZXIwggEiMA0GCSqGSIb3DQEB
AQUAA4IBDwAwggEKAoIBAQC27yJyUO2bLYECwk95XGhB7oQOm1WNmzDF2JM09qga
R8Vna0qwnR46wvogI9xHUYXIShHdtkEzhiekfFOTxTZI1YssvyeghpOxj+MoIPyL
CyospwWdEEcTLaXioyqg/wOE1AtvENCttojbHOy229c0+T4A9CRmp+YJnVU+Pnp2
Vp7K6zIjQ8ICQqCMNaD+gj/W4IEhiEAyYNE0mrkb1cxh6q97UE4H6aPTIrHAhEsT
Cdy3PHvMAvJuvqDcRH6FyunVkipBaC5W8I7dr5G6FHaJaIYeOg+A3MxT/bQ6UVcD
NqyOkcP+jP5MykTpGW2WIOYQ2vRQep8QQycvQBN3uCXtAgMBAAGjgbswgbgwCQYD
VR0TBAIwADAdBgNVHQ4EFgQUgnI+OpUrYgHosZL6dPnep6Y0TsYwUAYDVR0jBEkw
R4AUrJhOHPQheXfy0ljpA5EGTBuQXTWhGaQXMBUxEzARBgNVBAMMCnRlYW0xOS1u
ZXSCFC7twMnMAJcs43B5J0/tRCXm93mVMBMGA1UdJQQMMAoGCCsGAQUFBwMBMAsG
A1UdDwQEAwIFoDAYBgNVHREEETAPgg10ZWFtMTktc2VydmVyMA0GCSqGSIb3DQEB
CwUAA4IBAQBnHnhmJWJV8sc4QGBNQFXFOCaJBf4AUUlB7SzXJ6b8EcneeBNBHmPx
jMvd98OpjrSuX26X8xPZMfJaN6lMsBajpvDJQzwFDyfhwzJdfud4BVUoa2nX4tZ5
LMIlRRn19mhuMjCNpa4HCya3TJAN6kdOKBiVUPKOf7cGVK6VZSm1BC53a0GOsxy9
I+8SePTPCt3Vh6te4Z+rqZyKzLwx829ZMA27WLkt56KW1ssH/AgmdPTwBaHO1Bk8
5nNU3E+1EfdcGPehJPCMG99P+8j/Dk/dSuLLcbFSRdRMy0xZcgogDMeMy604F0Co
/CtCKFxHmrAkPkqrYGB7C58WyxN98st7
-----END CERTIFICATE-----
