Certificate:
    Data:
        Version: 3 (0x2)
        Serial Number:
            a8:bc:a2:a4:a2:d8:cf:a2:d2:9e:dc:d7:cc:24:a1:61
        Signature Algorithm: sha256WithRSAEncryption
        Issuer: CN=team19-net
        Validity
            Not Before: May 18 14:01:55 2022 GMT
            Not After : May  2 14:01:55 2025 GMT
        Subject: CN=team19-client
        Subject Public Key Info:
            Public Key Algorithm: rsaEncryption
                RSA Public-Key: (2048 bit)
                Modulus:
                    00:cf:0e:ac:61:17:71:ce:af:73:1a:2f:84:11:07:
                    c8:5d:bd:8d:42:b8:e7:96:61:98:4b:bc:4c:94:ab:
                    84:95:60:de:07:1a:b5:df:37:af:2d:af:92:dc:0f:
                    3d:f8:89:a6:01:9a:70:a3:6e:c3:b3:93:63:9f:d4:
                    a1:7e:88:01:87:9e:fe:5b:24:74:d0:82:55:92:b2:
                    d9:39:c5:41:b7:e7:24:ee:d8:22:ad:56:20:dd:e1:
                    d3:e4:b4:9b:c9:a1:7c:70:73:a4:df:7d:dc:47:8a:
                    0d:3a:a2:c0:f3:da:38:f7:a5:5e:c2:0b:2b:55:17:
                    40:34:3f:21:1f:85:3e:1a:a6:3f:2b:63:e7:d2:25:
                    61:c6:3a:88:5c:94:3b:be:85:c1:d1:5f:b4:21:33:
                    f2:75:89:3f:eb:8a:92:9d:03:9e:70:74:4f:d4:d2:
                    12:46:30:98:35:c1:d0:b2:72:49:1e:9a:8b:9a:8c:
                    78:bf:e4:ad:f0:a3:45:cc:7d:5f:9f:6c:93:3c:ce:
                    bb:5e:f0:4d:d9:af:65:ea:69:02:3c:32:25:0d:06:
                    00:b1:59:0e:ab:36:87:78:1b:ea:a9:1e:ec:04:a2:
                    28:c0:ac:5d:5a:c0:fd:83:3d:70:6c:20:49:0b:82:
                    d3:75:0e:9a:f2:f0:0b:f7:d3:19:45:20:8b:0e:8b:
                    9e:5f
                Exponent: 65537 (0x10001)
        X509v3 extensions:
            X509v3 Basic Constraints: 
                CA:FALSE
            X509v3 Subject Key Identifier: 
                5D:D1:73:8C:42:69:13:47:83:1D:68:AE:B3:F5:DA:59:91:33:76:5B
            X509v3 Authority Key Identifier: 
                keyid:AC:98:4E:1C:F4:21:79:77:F2:D2:58:E9:03:91:06:4C:1B:90:5D:35
                DirName:/CN=team19-net
                serial:2E:ED:C0:C9:CC:00:97:2C:E3:70:79:27:4F:ED:44:25:E6:F7:79:95

            X509v3 Extended Key Usage: 
                TLS Web Client Authentication
            X509v3 Key Usage: 
                Digital Signature
    Signature Algorithm: sha256WithRSAEncryption
         65:27:59:5d:94:6e:a0:2e:02:11:d6:55:6f:e0:34:16:e5:f4:
         a9:23:7d:b3:e4:12:13:a9:2a:c2:1f:cc:6d:db:ec:d1:46:0e:
         50:1d:8c:8c:29:59:ea:88:9e:c1:ec:ad:f2:31:88:71:d0:15:
         c4:8a:4a:24:39:32:58:90:f4:ee:1d:96:19:b2:47:7a:7d:df:
         c0:f8:c8:b0:da:c4:e8:fc:fc:2d:bd:e1:bd:8f:e6:cb:04:72:
         06:50:d5:9f:a9:cb:6d:16:1f:6a:fc:bb:54:30:e4:6a:71:09:
         a1:4f:a8:75:f6:78:3e:67:7c:e5:28:aa:ff:11:2d:92:c0:0b:
         18:fa:c3:f5:e3:3b:a2:f2:93:1b:ce:a8:48:12:5c:e1:b9:bf:
         39:1d:cc:84:a8:57:2e:fb:a0:6f:f3:5b:26:78:de:4c:5e:7a:
         9b:61:d3:94:6c:8f:fc:79:ef:59:a7:2d:07:fe:ac:da:f2:dc:
         84:e5:81:22:fa:b9:6c:70:ca:a5:6d:b2:19:d5:50:9f:23:d3:
         35:4c:fe:2d:90:e9:64:b9:d2:17:c1:be:91:93:78:4d:20:75:
         aa:5c:15:0d:17:75:49:db:1d:db:99:8b:e0:d5:2a:34:69:a7:
         53:7e:80:00:0d:1c:6b:6f:b5:fc:4f:b8:db:ef:9f:c0:b1:cb:
         9f:73:1e:68
-----BEGIN CERTIFICATE-----
MIIDWjCCAkKgAwIBAgIRAKi8oqSi2M+i0p7c18wkoWEwDQYJKoZIhvcNAQELBQAw
FTETMBEGA1UEAwwKdGVhbTE5LW5ldDAeFw0yMjA1MTgxNDAxNTVaFw0yNTA1MDIx
NDAxNTVaMBgxFjAUBgNVBAMMDXRlYW0xOS1jbGllbnQwggEiMA0GCSqGSIb3DQEB
AQUAA4IBDwAwggEKAoIBAQDPDqxhF3HOr3MaL4QRB8hdvY1CuOeWYZhLvEyUq4SV
YN4HGrXfN68tr5LcDz34iaYBmnCjbsOzk2Of1KF+iAGHnv5bJHTQglWSstk5xUG3
5yTu2CKtViDd4dPktJvJoXxwc6TffdxHig06osDz2jj3pV7CCytVF0A0PyEfhT4a
pj8rY+fSJWHGOohclDu+hcHRX7QhM/J1iT/ripKdA55wdE/U0hJGMJg1wdCyckke
mouajHi/5K3wo0XMfV+fbJM8zrte8E3Zr2XqaQI8MiUNBgCxWQ6rNod4G+qpHuwE
oijArF1awP2DPXBsIEkLgtN1Dpry8Av30xlFIIsOi55fAgMBAAGjgaEwgZ4wCQYD
VR0TBAIwADAdBgNVHQ4EFgQUXdFzjEJpE0eDHWius/XaWZEzdlswUAYDVR0jBEkw
R4AUrJhOHPQheXfy0ljpA5EGTBuQXTWhGaQXMBUxEzARBgNVBAMMCnRlYW0xOS1u
ZXSCFC7twMnMAJcs43B5J0/tRCXm93mVMBMGA1UdJQQMMAoGCCsGAQUFBwMCMAsG
A1UdDwQEAwIHgDANBgkqhkiG9w0BAQsFAAOCAQEAZSdZXZRuoC4CEdZVb+A0FuX0
qSN9s+QSE6kqwh/Mbdvs0UYOUB2MjClZ6oieweyt8jGIcdAVxIpKJDkyWJD07h2W
GbJHen3fwPjIsNrE6Pz8Lb3hvY/mywRyBlDVn6nLbRYfavy7VDDkanEJoU+odfZ4
Pmd85Siq/xEtksALGPrD9eM7ovKTG86oSBJc4bm/OR3MhKhXLvugb/NbJnjeTF56
m2HTlGyP/HnvWactB/6s2vLchOWBIvq5bHDKpW2yGdVQnyPTNUz+LZDpZLnSF8G+
kZN4TSB1qlwVDRd1Sdsd25mL4NUqNGmnU36AAA0ca2+1/E+42++fwLHLn3MeaA==
-----END CERTIFICATE-----
