Certificate:
    Data:
        Version: 3 (0x2)
        Serial Number:
            b4:76:8e:e9:71:4c:93:e7:6f:fc:4c:7b:7b:a3:a9:8b
        Signature Algorithm: sha256WithRSAEncryption
        Issuer: CN=team256-net
        Validity
            Not Before: May 18 19:32:45 2022 GMT
            Not After : May  2 19:32:45 2025 GMT
        Subject: CN=team256-client
        Subject Public Key Info:
            Public Key Algorithm: rsaEncryption
                RSA Public-Key: (2048 bit)
                Modulus:
                    00:c3:14:03:9a:6b:26:f7:4f:11:7c:3a:61:01:fc:
                    6b:09:a9:e1:e1:b7:58:db:8a:68:e5:fd:3b:b1:dc:
                    67:18:10:5a:c4:d3:f0:83:a5:0a:3a:e0:37:98:8a:
                    c2:b6:13:f5:4b:a2:90:5c:23:41:bb:d8:b8:ed:91:
                    4e:58:e7:50:e5:64:03:b0:60:e9:ef:35:9a:1c:8d:
                    b9:ec:95:c4:f4:56:39:e4:77:7c:8e:e5:0b:46:61:
                    6d:fe:29:06:38:93:66:10:19:62:c3:93:76:c2:f7:
                    21:ca:bd:0d:b4:7f:51:d1:95:8d:c0:8b:8f:69:98:
                    3a:c4:f1:a8:06:ea:43:53:9f:18:55:1e:40:b3:b3:
                    ac:f6:66:01:a7:68:2d:62:03:71:c3:13:a7:ca:79:
                    f0:d7:7c:e4:7b:22:1d:4d:15:09:07:66:88:80:bb:
                    b6:99:02:57:44:31:b2:40:fc:35:4f:70:dc:4d:0c:
                    89:69:32:1d:41:bb:f4:00:1e:a7:ce:a3:d6:5f:f3:
                    98:f6:97:f5:2b:b4:49:4d:67:b9:c8:bb:94:71:e9:
                    8e:ed:cc:68:24:6d:56:29:9e:0a:17:a6:8b:92:45:
                    bb:0b:70:20:34:0a:1f:ed:31:1f:70:72:96:9a:8f:
                    30:30:dd:a6:f6:36:19:d3:fd:70:66:31:6e:e1:b0:
                    a1:73
                Exponent: 65537 (0x10001)
        X509v3 extensions:
            X509v3 Basic Constraints: 
                CA:FALSE
            X509v3 Subject Key Identifier: 
                18:37:91:C5:03:E1:04:C8:07:B5:9D:11:E0:25:4D:60:F0:6F:0B:0A
            X509v3 Authority Key Identifier: 
                keyid:19:3F:A5:8F:FD:E7:39:DD:32:71:10:B6:12:17:F9:2D:C0:78:A4:E9
                DirName:/CN=team256-net
                serial:53:25:78:D4:23:B3:D8:5D:5D:C4:B6:BB:9E:44:C6:64:A2:BB:2B:DF

            X509v3 Extended Key Usage: 
                TLS Web Client Authentication
            X509v3 Key Usage: 
                Digital Signature
    Signature Algorithm: sha256WithRSAEncryption
         1b:94:9f:0d:78:60:a9:25:52:8a:cc:3b:9a:c5:96:b8:1c:f7:
         b4:ca:30:48:8b:4e:ab:4d:76:52:8d:73:2a:9b:e8:14:fc:6e:
         55:d9:a6:fd:5e:6c:76:99:d7:bc:e1:f7:9c:4a:34:ab:fe:55:
         be:0a:b8:7e:53:92:2a:47:59:ee:f0:6e:a0:bb:a6:81:ad:6a:
         70:52:2e:19:74:7d:8a:ab:fa:b8:45:1f:07:4d:57:5d:26:13:
         e7:72:c8:71:22:4d:cc:87:cb:68:27:60:d7:c1:6a:83:16:ae:
         9a:bd:1f:1c:3a:76:92:be:3f:df:0a:93:bc:c5:f5:61:b3:17:
         e7:4e:26:67:99:d3:be:36:dd:fb:74:bb:8c:dd:f8:cd:c5:40:
         32:41:f0:e1:21:77:d2:60:79:bd:e8:f4:0a:d6:c0:8a:a9:50:
         cc:b4:ad:72:20:7f:66:62:4c:b4:3c:29:d5:a3:cb:64:07:eb:
         d7:d7:65:ca:db:1c:cc:f7:05:25:44:15:39:64:ca:34:6a:85:
         ea:e4:b7:35:b5:b6:48:0d:57:93:fb:c5:7c:f3:df:70:78:14:
         1d:1f:3b:56:f1:ed:71:29:be:7f:b2:5c:8e:5d:8e:d4:d9:8e:
         aa:83:13:45:3a:39:40:84:0e:44:fc:6e:a4:d2:57:b7:7b:70:
         a9:2a:14:ee
-----BEGIN CERTIFICATE-----
MIIDXTCCAkWgAwIBAgIRALR2julxTJPnb/xMe3ujqYswDQYJKoZIhvcNAQELBQAw
FjEUMBIGA1UEAwwLdGVhbTI1Ni1uZXQwHhcNMjIwNTE4MTkzMjQ1WhcNMjUwNTAy
MTkzMjQ1WjAZMRcwFQYDVQQDDA50ZWFtMjU2LWNsaWVudDCCASIwDQYJKoZIhvcN
AQEBBQADggEPADCCAQoCggEBAMMUA5prJvdPEXw6YQH8awmp4eG3WNuKaOX9O7Hc
ZxgQWsTT8IOlCjrgN5iKwrYT9UuikFwjQbvYuO2RTljnUOVkA7Bg6e81mhyNueyV
xPRWOeR3fI7lC0Zhbf4pBjiTZhAZYsOTdsL3Icq9DbR/UdGVjcCLj2mYOsTxqAbq
Q1OfGFUeQLOzrPZmAadoLWIDccMTp8p58Nd85HsiHU0VCQdmiIC7tpkCV0QxskD8
NU9w3E0MiWkyHUG79AAep86j1l/zmPaX9Su0SU1nuci7lHHpju3MaCRtVimeChem
i5JFuwtwIDQKH+0xH3BylpqPMDDdpvY2GdP9cGYxbuGwoXMCAwEAAaOBojCBnzAJ
BgNVHRMEAjAAMB0GA1UdDgQWBBQYN5HFA+EEyAe1nRHgJU1g8G8LCjBRBgNVHSME
SjBIgBQZP6WP/ec53TJxELYSF/ktwHik6aEapBgwFjEUMBIGA1UEAwwLdGVhbTI1
Ni1uZXSCFFMleNQjs9hdXcS2u55ExmSiuyvfMBMGA1UdJQQMMAoGCCsGAQUFBwMC
MAsGA1UdDwQEAwIHgDANBgkqhkiG9w0BAQsFAAOCAQEAG5SfDXhgqSVSisw7msWW
uBz3tMowSItOq012Uo1zKpvoFPxuVdmm/V5sdpnXvOH3nEo0q/5Vvgq4flOSKkdZ
7vBuoLumga1qcFIuGXR9iqv6uEUfB01XXSYT53LIcSJNzIfLaCdg18Fqgxaumr0f
HDp2kr4/3wqTvMX1YbMX504mZ5nTvjbd+3S7jN34zcVAMkHw4SF30mB5vej0CtbA
iqlQzLStciB/ZmJMtDwp1aPLZAfr19dlytsczPcFJUQVOWTKNGqF6uS3NbW2SA1X
k/vFfPPfcHgUHR87VvHtcSm+f7Jcjl2O1NmOqoMTRTo5QIQORPxupNJXt3twqSoU
7g==
-----END CERTIFICATE-----
