Certificate:
    Data:
        Version: 3 (0x2)
        Serial Number:
            eb:e5:fd:f7:46:99:62:0d:aa:11:5f:de:f8:26:5d:62
        Signature Algorithm: sha256WithRSAEncryption
        Issuer: CN=team728-net
        Validity
            Not Before: May 18 23:49:32 2022 GMT
            Not After : May  2 23:49:32 2025 GMT
        Subject: CN=team728-client
        Subject Public Key Info:
            Public Key Algorithm: rsaEncryption
                RSA Public-Key: (2048 bit)
                Modulus:
                    00:cb:51:69:c1:18:43:6a:aa:85:77:60:5f:f5:17:
                    aa:09:76:13:9d:ae:6a:90:41:50:3c:4c:0f:b4:be:
                    06:b2:d5:84:3e:58:c6:5f:e5:3f:da:9d:f8:46:d4:
                    18:af:69:a6:d3:30:d7:b8:32:49:c9:8b:f3:1c:bf:
                    1c:80:fa:03:a3:7d:33:b9:18:c6:89:a7:7b:3e:b8:
                    17:8c:ad:cc:ea:12:0e:2b:b7:04:1c:91:c5:bb:8b:
                    7e:f0:31:5a:63:00:95:e0:e1:ab:a9:db:0a:10:47:
                    f1:6f:5d:c8:e9:40:92:7b:b3:1a:d1:30:32:bb:67:
                    6b:95:68:be:e6:83:06:52:2d:ce:44:9b:cf:67:96:
                    73:66:78:6e:4f:99:81:64:53:bc:4c:6a:35:19:36:
                    2f:03:64:87:c3:7b:13:68:b2:b0:1a:87:2d:0d:60:
                    ac:5e:0d:d6:d4:2b:53:83:ae:f2:e8:2c:9c:ae:e5:
                    cf:55:ca:37:ff:d4:dc:3a:3f:9a:b9:da:9a:9b:1e:
                    db:e3:1f:65:60:f8:b1:40:e8:1b:2c:15:f0:9d:ba:
                    d1:ad:eb:1a:16:61:03:13:c5:2c:9c:1b:ea:4b:f1:
                    27:83:da:77:f0:14:d7:12:af:32:76:51:2b:89:1e:
                    71:e2:35:b3:13:61:80:2b:3a:fe:c5:70:e1:8a:8b:
                    e3:af
                Exponent: 65537 (0x10001)
        X509v3 extensions:
            X509v3 Basic Constraints: 
                CA:FALSE
            X509v3 Subject Key Identifier: 
                F4:E2:26:AC:57:17:3A:6F:64:E6:DF:82:57:04:22:08:C4:E9:AE:22
            X509v3 Authority Key Identifier: 
                keyid:5D:13:20:55:E9:53:2B:FD:2F:78:A2:83:40:85:80:25:64:0A:53:26
                DirName:/CN=team728-net
                serial:2E:55:0A:55:6D:E4:96:C9:B6:D3:9E:3D:EA:07:A5:15:8C:F0:30:49

            X509v3 Extended Key Usage: 
                TLS Web Client Authentication
            X509v3 Key Usage: 
                Digital Signature
    Signature Algorithm: sha256WithRSAEncryption
         64:b4:52:91:27:d6:40:89:d9:aa:a2:50:53:d2:af:2c:d4:df:
         6b:42:7f:63:76:16:b5:28:6f:91:cd:b2:73:73:6e:44:34:0a:
         5d:5e:10:67:14:5b:df:6a:47:a5:3f:b6:19:4e:c2:d9:fe:f0:
         ea:1b:0c:70:5a:06:f6:82:31:3d:98:82:9f:72:9e:54:38:40:
         fc:41:94:68:56:f7:73:7c:6b:fa:38:19:c1:06:24:85:d1:38:
         13:72:6c:1e:53:e0:8f:9b:dc:86:58:a8:ad:7f:db:ab:08:33:
         87:0f:a6:b4:7a:f3:3b:e3:54:9c:61:67:bf:f2:2d:f3:d2:b3:
         a8:16:e8:e3:4b:1e:a6:66:6a:fa:70:6e:40:21:fe:60:44:60:
         a4:5c:ce:f1:2f:cd:fa:8a:dd:69:55:4e:31:18:a2:02:cb:21:
         9c:56:2a:5f:53:db:9f:ea:d1:9f:b7:2c:3a:dc:7b:60:97:84:
         08:60:20:15:44:64:9d:88:e4:e2:09:a5:94:14:68:ab:86:2b:
         01:fc:59:a2:88:d9:0b:2d:38:fa:c2:1d:f6:56:b9:60:bf:13:
         5b:f4:b3:de:5f:45:da:2e:e6:11:e8:c2:e0:ec:fc:a7:d4:7a:
         60:5e:f7:f0:5f:b0:63:3b:4a:20:ae:a8:ab:6e:bd:5a:67:cd:
         17:ae:3d:21
-----BEGIN CERTIFICATE-----
MIIDXTCCAkWgAwIBAgIRAOvl/fdGmWINqhFf3vgmXWIwDQYJKoZIhvcNAQELBQAw
FjEUMBIGA1UEAwwLdGVhbTcyOC1uZXQwHhcNMjIwNTE4MjM0OTMyWhcNMjUwNTAy
MjM0OTMyWjAZMRcwFQYDVQQDDA50ZWFtNzI4LWNsaWVudDCCASIwDQYJKoZIhvcN
AQEBBQADggEPADCCAQoCggEBAMtRacEYQ2qqhXdgX/UXqgl2E52uapBBUDxMD7S+
BrLVhD5Yxl/lP9qd+EbUGK9pptMw17gyScmL8xy/HID6A6N9M7kYxomnez64F4yt
zOoSDiu3BByRxbuLfvAxWmMAleDhq6nbChBH8W9dyOlAknuzGtEwMrtna5VovuaD
BlItzkSbz2eWc2Z4bk+ZgWRTvExqNRk2LwNkh8N7E2iysBqHLQ1grF4N1tQrU4Ou
8ugsnK7lz1XKN//U3Do/mrnampse2+MfZWD4sUDoGywV8J260a3rGhZhAxPFLJwb
6kvxJ4Pad/AU1xKvMnZRK4keceI1sxNhgCs6/sVw4YqL468CAwEAAaOBojCBnzAJ
BgNVHRMEAjAAMB0GA1UdDgQWBBT04iasVxc6b2Tm34JXBCIIxOmuIjBRBgNVHSME
SjBIgBRdEyBV6VMr/S94ooNAhYAlZApTJqEapBgwFjEUMBIGA1UEAwwLdGVhbTcy
OC1uZXSCFC5VClVt5JbJttOePeoHpRWM8DBJMBMGA1UdJQQMMAoGCCsGAQUFBwMC
MAsGA1UdDwQEAwIHgDANBgkqhkiG9w0BAQsFAAOCAQEAZLRSkSfWQInZqqJQU9Kv
LNTfa0J/Y3YWtShvkc2yc3NuRDQKXV4QZxRb32pHpT+2GU7C2f7w6hsMcFoG9oIx
PZiCn3KeVDhA/EGUaFb3c3xr+jgZwQYkhdE4E3JsHlPgj5vchliorX/bqwgzhw+m
tHrzO+NUnGFnv/It89KzqBbo40sepmZq+nBuQCH+YERgpFzO8S/N+ordaVVOMRii
AsshnFYqX1Pbn+rRn7csOtx7YJeECGAgFURknYjk4gmllBRoq4YrAfxZoojZCy04
+sId9la5YL8TW/Sz3l9F2i7mEejC4Oz8p9R6YF738F+wYztKIK6oq269WmfNF649
IQ==
-----END CERTIFICATE-----
