Certificate:
    Data:
        Version: 3 (0x2)
        Serial Number:
            ee:aa:13:7d:b4:73:65:02:ab:a5:a0:63:c0:de:61:15
        Signature Algorithm: sha256WithRSAEncryption
        Issuer: CN=team611-net
        Validity
            Not Before: May 18 22:45:07 2022 GMT
            Not After : May  2 22:45:07 2025 GMT
        Subject: CN=team611-client
        Subject Public Key Info:
            Public Key Algorithm: rsaEncryption
                RSA Public-Key: (2048 bit)
                Modulus:
                    00:ed:4a:ce:e7:42:49:ec:f8:e3:5a:68:0b:7d:32:
                    94:01:70:64:47:cb:2a:39:28:87:18:be:a0:a6:99:
                    8c:7b:84:3f:a5:a2:c5:c4:38:c6:33:43:ba:a6:87:
                    67:55:98:5a:bc:d3:3b:3d:c8:84:1f:36:e1:5b:b5:
                    91:ff:23:35:4c:e3:e7:95:75:93:e6:d1:a6:63:80:
                    d3:c2:58:13:14:69:d8:83:ca:c2:15:ff:01:dc:e4:
                    60:8d:52:a8:5f:14:b1:51:75:04:06:7c:25:d3:56:
                    0c:9f:f1:8b:fd:f2:4d:84:bb:3c:ac:c3:f6:82:a5:
                    c3:0c:43:a6:85:0b:64:fd:70:6a:b5:fc:66:1c:96:
                    6c:ed:2f:91:03:12:fa:42:20:57:85:ae:b4:6e:8f:
                    1c:b7:8a:f1:15:67:02:fb:f5:ab:89:63:80:fc:f9:
                    5d:22:95:59:f4:34:12:46:2b:61:89:57:6b:c4:4f:
                    b9:eb:0a:85:f7:5d:b9:4c:95:34:ec:47:df:c6:ed:
                    24:10:f6:44:f5:b8:49:54:71:93:1c:04:d8:0e:14:
                    0e:12:81:9b:41:13:c9:64:0a:98:2b:6a:5b:6b:da:
                    c6:17:b4:c9:3b:fa:23:99:07:22:76:d6:f9:fb:a7:
                    3d:a9:52:62:e5:1f:d1:1b:86:f2:dc:8a:e7:c1:e3:
                    a1:57
                Exponent: 65537 (0x10001)
        X509v3 extensions:
            X509v3 Basic Constraints: 
                CA:FALSE
            X509v3 Subject Key Identifier: 
                64:36:55:A7:DB:A5:5E:73:7B:D3:38:16:C1:DB:B9:15:D4:64:A1:F0
            X509v3 Authority Key Identifier: 
                keyid:8B:B1:D1:EB:D2:98:32:4A:38:01:4F:0E:E2:EE:12:30:AD:0F:87:FB
                DirName:/CN=team611-net
                serial:5D:F8:A4:49:4C:E7:20:E6:D8:9B:B4:13:0C:85:6C:C4:02:3A:9C:A1

            X509v3 Extended Key Usage: 
                TLS Web Client Authentication
            X509v3 Key Usage: 
                Digital Signature
    Signature Algorithm: sha256WithRSAEncryption
         a1:13:cc:fe:a3:b7:33:27:f7:0e:1a:cf:36:49:f6:71:1a:79:
         58:75:6b:cd:74:65:64:9c:99:5f:16:df:b1:52:f4:96:94:cc:
         06:40:3c:45:a8:80:26:b0:4c:fa:25:04:84:2c:bf:f3:df:78:
         91:3a:6c:11:93:31:ab:03:27:d7:ba:72:85:41:e8:29:f8:45:
         25:2c:71:70:8e:b9:28:c5:6a:48:37:ec:f7:40:73:c5:59:ad:
         dd:eb:ef:12:4e:a6:4c:f9:8d:ee:9d:03:0f:2b:3b:fa:1e:24:
         ff:8a:28:37:7e:0c:93:19:5b:f4:d9:87:08:fd:97:12:c1:4f:
         2b:d9:7a:ea:29:ca:78:0e:26:9a:67:a8:e4:76:89:d2:f2:88:
         c1:d3:e3:eb:50:10:68:02:fb:ea:01:91:42:8c:6a:57:76:8a:
         9f:80:ed:e3:dd:0b:25:0c:56:e8:5c:d5:3b:7e:2f:3d:8b:ec:
         e1:9e:d4:47:58:a7:a8:1c:e0:f4:27:12:cd:6a:7b:8b:b8:aa:
         84:08:90:e1:1c:ca:d6:60:ad:56:8f:0c:00:7a:51:9d:58:02:
         de:9a:65:de:b0:b8:61:7d:bc:1b:c5:9f:4e:3d:1c:ff:5b:7a:
         5a:48:0c:0b:4d:95:5c:0c:1f:db:93:e2:d8:a0:1f:fc:64:22:
         e4:2a:f5:6f
-----BEGIN CERTIFICATE-----
MIIDXTCCAkWgAwIBAgIRAO6qE320c2UCq6WgY8DeYRUwDQYJKoZIhvcNAQELBQAw
FjEUMBIGA1UEAwwLdGVhbTYxMS1uZXQwHhcNMjIwNTE4MjI0NTA3WhcNMjUwNTAy
MjI0NTA3WjAZMRcwFQYDVQQDDA50ZWFtNjExLWNsaWVudDCCASIwDQYJKoZIhvcN
AQEBBQADggEPADCCAQoCggEBAO1KzudCSez441poC30ylAFwZEfLKjkohxi+oKaZ
jHuEP6WixcQ4xjNDuqaHZ1WYWrzTOz3IhB824Vu1kf8jNUzj55V1k+bRpmOA08JY
ExRp2IPKwhX/AdzkYI1SqF8UsVF1BAZ8JdNWDJ/xi/3yTYS7PKzD9oKlwwxDpoUL
ZP1warX8ZhyWbO0vkQMS+kIgV4WutG6PHLeK8RVnAvv1q4ljgPz5XSKVWfQ0EkYr
YYlXa8RPuesKhfdduUyVNOxH38btJBD2RPW4SVRxkxwE2A4UDhKBm0ETyWQKmCtq
W2vaxhe0yTv6I5kHInbW+funPalSYuUf0RuG8tyK58HjoVcCAwEAAaOBojCBnzAJ
BgNVHRMEAjAAMB0GA1UdDgQWBBRkNlWn26Vec3vTOBbB27kV1GSh8DBRBgNVHSME
SjBIgBSLsdHr0pgySjgBTw7i7hIwrQ+H+6EapBgwFjEUMBIGA1UEAwwLdGVhbTYx
MS1uZXSCFF34pElM5yDm2Ju0EwyFbMQCOpyhMBMGA1UdJQQMMAoGCCsGAQUFBwMC
MAsGA1UdDwQEAwIHgDANBgkqhkiG9w0BAQsFAAOCAQEAoRPM/qO3Myf3DhrPNkn2
cRp5WHVrzXRlZJyZXxbfsVL0lpTMBkA8RaiAJrBM+iUEhCy/8994kTpsEZMxqwMn
17pyhUHoKfhFJSxxcI65KMVqSDfs90BzxVmt3evvEk6mTPmN7p0DDys7+h4k/4oo
N34Mkxlb9NmHCP2XEsFPK9l66inKeA4mmmeo5HaJ0vKIwdPj61AQaAL76gGRQoxq
V3aKn4Dt490LJQxW6FzVO34vPYvs4Z7UR1inqBzg9CcSzWp7i7iqhAiQ4RzK1mCt
Vo8MAHpRnVgC3ppl3rC4YX28G8WfTj0c/1t6WkgMC02VXAwf25Pi2KAf/GQi5Cr1
bw==
-----END CERTIFICATE-----
