Certificate:
    Data:
        Version: 3 (0x2)
        Serial Number:
            c5:06:5e:cb:92:ed:42:49:b9:1b:20:bb:ea:df:44:c1
        Signature Algorithm: sha256WithRSAEncryption
        Issuer: CN=team312-net
        Validity
            Not Before: May 18 20:14:44 2022 GMT
            Not After : May  2 20:14:44 2025 GMT
        Subject: CN=team312-server
        Subject Public Key Info:
            Public Key Algorithm: rsaEncryption
                RSA Public-Key: (2048 bit)
                Modulus:
                    00:ae:1d:88:6a:40:42:3a:cf:13:59:13:d2:49:25:
                    c3:cb:5c:20:2c:d6:57:16:b5:97:30:86:cd:e0:df:
                    e2:cd:ac:f6:3e:cc:9c:3c:d7:b4:c3:0f:89:2a:86:
                    db:08:11:ce:8d:a7:5c:1e:b8:53:4e:ab:c3:76:b9:
                    c5:32:71:0a:ca:af:4b:e7:94:28:47:78:1f:16:23:
                    7a:b2:7d:03:d2:2d:10:4c:65:c6:c2:57:09:10:70:
                    63:b2:20:08:6b:09:bf:2b:2d:88:ef:f3:19:61:60:
                    dc:28:0c:0c:fb:46:e4:da:53:18:ab:64:36:13:c4:
                    0a:bc:f5:53:01:6e:d7:02:d6:19:b0:86:89:44:70:
                    4d:fb:82:31:a6:73:f7:be:dc:da:ff:99:6e:be:53:
                    10:da:68:b8:d6:b0:1e:2c:6b:4d:ad:d9:e7:25:33:
                    3b:e5:c0:a0:8d:e4:2b:7d:d3:c2:db:9c:e2:91:c2:
                    cc:a0:0f:6c:1b:d1:56:c7:9a:27:c5:9c:20:3a:a9:
                    76:37:67:9e:34:45:54:c3:56:45:21:96:b7:85:b5:
                    61:b5:60:59:67:e7:37:d2:2b:ff:aa:f4:2e:07:c5:
                    c3:e5:ac:79:11:a0:08:27:5c:6c:8a:e7:f6:8e:d3:
                    46:fb:1a:1a:7f:06:e0:86:9e:81:4b:e1:7a:d2:42:
                    84:cb
                Exponent: 65537 (0x10001)
        X509v3 extensions:
            X509v3 Basic Constraints: 
                CA:FALSE
            X509v3 Subject Key Identifier: 
                D6:2D:D1:E2:B4:A4:35:0A:81:CE:65:7A:D3:FB:CE:D9:4E:B6:A9:3A
            X509v3 Authority Key Identifier: 
                keyid:87:20:A3:B6:EF:EB:33:6E:6E:C7:55:02:E3:36:A1:BB:F8:71:18:33
                DirName:/CN=team312-net
                serial:5B:EE:75:02:CE:1A:C5:24:6A:BA:51:24:F5:DB:A8:2E:5A:19:A1:72

            X509v3 Extended Key Usage: 
                TLS Web Server Authentication
            X509v3 Key Usage: 
                Digital Signature, Key Encipherment
            X509v3 Subject Alternative Name: 
                DNS:team312-server
    Signature Algorithm: sha256WithRSAEncryption
         26:5c:78:8e:f4:81:5b:52:36:c4:1d:a5:88:e3:f6:01:17:aa:
         30:b3:12:58:78:9c:50:1a:bd:ae:8c:c1:f2:f4:ec:a0:7c:8e:
         5f:a4:3b:03:9f:05:89:b4:bf:d8:47:0f:3e:8a:86:08:05:25:
         c7:b3:f3:15:2e:5f:b8:09:84:39:55:a0:97:c3:db:5f:61:b1:
         6e:c4:6e:5e:76:85:43:be:74:97:d9:27:17:27:ae:98:5f:07:
         da:7b:90:cc:e6:1a:b9:f7:ac:90:57:29:4d:cc:06:5a:68:3d:
         64:9e:94:53:52:0e:79:d8:3d:f0:96:06:f4:fe:4b:7f:d6:32:
         1a:1f:63:0a:74:59:10:9b:d4:37:7f:61:ae:f5:c9:3f:63:5b:
         f4:02:66:1f:11:e6:6e:d0:f9:a0:6d:a6:bf:8a:74:bc:69:66:
         0f:60:e6:b0:36:27:ad:6b:d3:e6:56:42:f3:b6:ba:04:ff:01:
         2e:07:06:9d:7e:81:a0:e5:ef:d4:26:39:c2:9c:14:9f:30:fb:
         39:f2:5a:2a:ef:f3:0b:41:eb:24:09:0a:41:da:71:5d:b8:e6:
         8a:7f:04:ad:06:ad:84:93:09:65:fd:36:1d:00:9c:1b:89:49:
         7f:4e:8c:6f:23:b3:3d:24:2c:0a:ff:b1:8c:b6:7c:28:9c:cb:
         83:9e:52:b4
-----BEGIN CERTIFICATE-----
MIIDeDCCAmCgAwIBAgIRAMUGXsuS7UJJuRsgu+rfRMEwDQYJKoZIhvcNAQELBQAw
FjEUMBIGA1UEAwwLdGVhbTMxMi1uZXQwHhcNMjIwNTE4MjAxNDQ0WhcNMjUwNTAy
MjAxNDQ0WjAZMRcwFQYDVQQDDA50ZWFtMzEyLXNlcnZlcjCCASIwDQYJKoZIhvcN
AQEBBQADggEPADCCAQoCggEBAK4diGpAQjrPE1kT0kklw8tcICzWVxa1lzCGzeDf
4s2s9j7MnDzXtMMPiSqG2wgRzo2nXB64U06rw3a5xTJxCsqvS+eUKEd4HxYjerJ9
A9ItEExlxsJXCRBwY7IgCGsJvystiO/zGWFg3CgMDPtG5NpTGKtkNhPECrz1UwFu
1wLWGbCGiURwTfuCMaZz977c2v+Zbr5TENpouNawHixrTa3Z5yUzO+XAoI3kK33T
wtuc4pHCzKAPbBvRVseaJ8WcIDqpdjdnnjRFVMNWRSGWt4W1YbVgWWfnN9Ir/6r0
LgfFw+WseRGgCCdcbIrn9o7TRvsaGn8G4IaegUvhetJChMsCAwEAAaOBvTCBujAJ
BgNVHRMEAjAAMB0GA1UdDgQWBBTWLdHitKQ1CoHOZXrT+87ZTrapOjBRBgNVHSME
SjBIgBSHIKO27+szbm7HVQLjNqG7+HEYM6EapBgwFjEUMBIGA1UEAwwLdGVhbTMx
Mi1uZXSCFFvudQLOGsUkarpRJPXbqC5aGaFyMBMGA1UdJQQMMAoGCCsGAQUFBwMB
MAsGA1UdDwQEAwIFoDAZBgNVHREEEjAQgg50ZWFtMzEyLXNlcnZlcjANBgkqhkiG
9w0BAQsFAAOCAQEAJlx4jvSBW1I2xB2liOP2AReqMLMSWHicUBq9rozB8vTsoHyO
X6Q7A58FibS/2EcPPoqGCAUlx7PzFS5fuAmEOVWgl8PbX2GxbsRuXnaFQ750l9kn
FyeumF8H2nuQzOYaufeskFcpTcwGWmg9ZJ6UU1IOedg98JYG9P5Lf9YyGh9jCnRZ
EJvUN39hrvXJP2Nb9AJmHxHmbtD5oG2mv4p0vGlmD2DmsDYnrWvT5lZC87a6BP8B
LgcGnX6BoOXv1CY5wpwUnzD7OfJaKu/zC0HrJAkKQdpxXbjmin8ErQathJMJZf02
HQCcG4lJf06MbyOzPSQsCv+xjLZ8KJzLg55StA==
-----END CERTIFICATE-----
