Certificate:
    Data:
        Version: 3 (0x2)
        Serial Number:
            03:fa:46:a4:12:6b:54:5c:82:37:cb:c1:3e:ac:38:b0
        Signature Algorithm: sha256WithRSAEncryption
        Issuer: CN=team109-net
        Validity
            Not Before: May 18 14:55:40 2022 GMT
            Not After : May  2 14:55:40 2025 GMT
        Subject: CN=team109-client
        Subject Public Key Info:
            Public Key Algorithm: rsaEncryption
                RSA Public-Key: (2048 bit)
                Modulus:
                    00:c9:54:08:4b:dd:b5:f9:c1:3d:45:9f:15:58:12:
                    12:75:b0:38:e3:7d:d3:0f:b4:69:1d:f4:28:56:2a:
                    f2:66:0c:d9:bd:f0:ad:67:5b:20:98:6d:83:6c:52:
                    48:05:bc:f7:9b:6b:c6:01:08:f8:98:a1:f7:5a:62:
                    fd:71:27:f2:bc:72:0d:4a:b2:55:65:07:e7:08:d4:
                    5f:9c:be:16:01:84:14:1f:5e:51:b6:de:5d:c4:62:
                    b1:55:15:0b:a9:33:4f:81:bc:85:5f:00:c9:9d:21:
                    5c:a9:bf:5e:4f:32:31:94:56:0c:1f:41:37:db:cd:
                    b2:7f:c2:c8:1e:db:98:5f:17:9b:82:b7:3a:6b:f2:
                    fe:93:7d:44:d6:6a:9b:54:ce:3a:bb:bf:26:1d:d6:
                    f2:8d:78:b6:a7:48:34:ee:e5:7c:34:42:03:bd:2c:
                    11:39:a0:ef:6b:f7:de:02:2a:58:95:90:47:11:bd:
                    f3:02:39:52:92:27:61:0d:79:42:e5:5b:56:07:9f:
                    40:42:c8:d3:5a:de:8c:fc:7f:d5:63:98:b2:e1:c6:
                    56:52:8d:be:79:f9:52:05:ad:bb:88:d0:34:f5:45:
                    91:b9:0c:1f:5f:9e:a6:7f:5a:3d:78:8e:78:e3:18:
                    8d:48:e5:ba:03:c2:c9:37:20:35:39:ab:c6:12:89:
                    17:1d
                Exponent: 65537 (0x10001)
        X509v3 extensions:
            X509v3 Basic Constraints: 
                CA:FALSE
            X509v3 Subject Key Identifier: 
                44:4B:C2:BF:3A:EE:52:13:B8:A6:E7:34:0D:16:0D:A7:93:A1:D0:16
            X509v3 Authority Key Identifier: 
                keyid:E8:09:38:96:DC:B1:CE:D3:FD:42:D5:BD:88:A4:DA:62:66:14:C9:30
                DirName:/CN=team109-net
                serial:18:14:E1:EC:8D:40:FD:21:F6:7C:DC:78:36:70:5A:A0:C0:C4:B8:DC

            X509v3 Extended Key Usage: 
                TLS Web Client Authentication
            X509v3 Key Usage: 
                Digital Signature
    Signature Algorithm: sha256WithRSAEncryption
         01:3d:a8:4b:30:fa:51:f4:e3:76:16:02:ab:02:2d:9a:f5:86:
         2d:53:55:58:18:c3:ef:84:15:29:44:d2:a5:0d:5a:af:80:eb:
         70:62:7d:cc:68:27:d9:90:ee:80:71:3b:56:9f:e6:14:03:9f:
         dd:04:dd:c9:ba:6c:03:33:a6:ef:35:9b:36:d3:fa:7a:2f:55:
         74:7f:2d:77:94:a9:78:1d:c1:a1:7b:e5:5c:d4:59:f0:2a:64:
         36:2f:08:75:b4:65:88:b0:91:bf:f4:a2:e1:a6:69:42:0d:4d:
         72:4b:66:c0:a3:56:a8:81:1a:c0:be:d4:57:ee:27:ab:47:5f:
         0b:ce:be:ff:64:f3:fa:30:f0:65:32:b4:3c:cb:29:56:59:a8:
         66:e8:a5:fe:c3:43:d0:61:15:92:49:e8:78:85:86:6b:d9:b7:
         3d:a5:0f:26:a4:f5:2f:cc:46:64:d4:ea:77:37:d3:13:ae:e2:
         7d:c0:c0:0f:52:05:66:aa:34:96:92:53:36:bb:12:ab:63:0b:
         60:f5:6d:fe:2e:2b:84:fd:f8:ce:fa:3b:85:da:fb:ba:a7:89:
         5e:2c:45:ae:1f:4b:d3:0a:34:88:11:e6:2f:22:a1:0d:ac:53:
         89:aa:45:03:d6:36:fd:61:45:4f:5b:8a:09:36:a6:51:59:a5:
         c5:02:0b:e0
-----BEGIN CERTIFICATE-----
MIIDXDCCAkSgAwIBAgIQA/pGpBJrVFyCN8vBPqw4sDANBgkqhkiG9w0BAQsFADAW
MRQwEgYDVQQDDAt0ZWFtMTA5LW5ldDAeFw0yMjA1MTgxNDU1NDBaFw0yNTA1MDIx
NDU1NDBaMBkxFzAVBgNVBAMMDnRlYW0xMDktY2xpZW50MIIBIjANBgkqhkiG9w0B
AQEFAAOCAQ8AMIIBCgKCAQEAyVQIS921+cE9RZ8VWBISdbA4433TD7RpHfQoViry
ZgzZvfCtZ1sgmG2DbFJIBbz3m2vGAQj4mKH3WmL9cSfyvHINSrJVZQfnCNRfnL4W
AYQUH15Rtt5dxGKxVRULqTNPgbyFXwDJnSFcqb9eTzIxlFYMH0E3282yf8LIHtuY
Xxebgrc6a/L+k31E1mqbVM46u78mHdbyjXi2p0g07uV8NEIDvSwROaDva/feAipY
lZBHEb3zAjlSkidhDXlC5VtWB59AQsjTWt6M/H/VY5iy4cZWUo2+eflSBa27iNA0
9UWRuQwfX56mf1o9eI544xiNSOW6A8LJNyA1OavGEokXHQIDAQABo4GiMIGfMAkG
A1UdEwQCMAAwHQYDVR0OBBYEFERLwr867lITuKbnNA0WDaeTodAWMFEGA1UdIwRK
MEiAFOgJOJbcsc7T/ULVvYik2mJmFMkwoRqkGDAWMRQwEgYDVQQDDAt0ZWFtMTA5
LW5ldIIUGBTh7I1A/SH2fNx4NnBaoMDEuNwwEwYDVR0lBAwwCgYIKwYBBQUHAwIw
CwYDVR0PBAQDAgeAMA0GCSqGSIb3DQEBCwUAA4IBAQABPahLMPpR9ON2FgKrAi2a
9YYtU1VYGMPvhBUpRNKlDVqvgOtwYn3MaCfZkO6AcTtWn+YUA5/dBN3JumwDM6bv
NZs20/p6L1V0fy13lKl4HcGhe+Vc1FnwKmQ2Lwh1tGWIsJG/9KLhpmlCDU1yS2bA
o1aogRrAvtRX7ierR18Lzr7/ZPP6MPBlMrQ8yylWWahm6KX+w0PQYRWSSeh4hYZr
2bc9pQ8mpPUvzEZk1Op3N9MTruJ9wMAPUgVmqjSWklM2uxKrYwtg9W3+LiuE/fjO
+juF2vu6p4leLEWuH0vTCjSIEeYvIqENrFOJqkUD1jb9YUVPW4oJNqZRWaXFAgvg
-----END CERTIFICATE-----
