Certificate:
    Data:
        Version: 3 (0x2)
        Serial Number:
            a2:83:93:57:02:25:57:56:36:4e:49:4b:aa:7d:aa:fc
        Signature Algorithm: sha256WithRSAEncryption
        Issuer: CN=team302-net
        Validity
            Not Before: May 18 19:59:50 2022 GMT
            Not After : May  2 19:59:50 2025 GMT
        Subject: CN=team302-server
        Subject Public Key Info:
            Public Key Algorithm: rsaEncryption
                RSA Public-Key: (2048 bit)
                Modulus:
                    00:ca:fc:39:31:c9:eb:55:ab:a3:df:ee:dc:6a:cf:
                    22:fa:36:22:67:12:50:cf:76:02:8d:d0:2e:c1:76:
                    97:c6:8f:88:1c:b4:bd:a3:7b:21:ac:62:11:2c:e1:
                    37:cc:f3:9a:75:1d:94:5a:7b:b7:aa:54:1d:c6:55:
                    a2:7d:aa:d9:55:ea:cf:d7:9b:0f:c6:0f:55:88:ca:
                    e3:8c:2b:92:31:ee:1d:e6:a2:51:38:45:c3:21:23:
                    81:01:e7:34:b4:df:55:40:b9:00:fc:e8:58:8a:19:
                    6c:82:5d:cd:44:61:46:20:12:34:94:cf:99:95:3b:
                    2b:0d:72:54:f8:0d:a4:33:68:38:26:69:a2:b5:d0:
                    73:fc:05:24:36:6f:65:1a:ac:a9:ae:69:0f:f3:a6:
                    cb:af:5c:7a:ab:ca:27:7c:5b:b2:e9:e1:b1:24:43:
                    77:c8:18:b6:ee:ee:e9:2c:0a:2f:40:fd:af:9d:c1:
                    51:2a:5e:16:4e:3a:c5:8a:1d:9d:f0:d6:c7:c3:0b:
                    04:40:ad:59:26:1b:87:da:14:f7:c6:e2:1d:84:a5:
                    50:70:53:74:c1:76:30:db:bf:86:b2:07:68:3f:d7:
                    d3:61:64:bb:7e:0e:b5:0e:15:14:7b:84:60:e0:8f:
                    49:64:48:d2:24:9e:9d:da:db:ef:70:87:81:99:e6:
                    77:d3
                Exponent: 65537 (0x10001)
        X509v3 extensions:
            X509v3 Basic Constraints: 
                CA:FALSE
            X509v3 Subject Key Identifier: 
                F1:30:9D:DE:49:94:67:A9:4D:39:6D:0E:16:52:A5:9E:57:D4:EB:49
            X509v3 Authority Key Identifier: 
                keyid:E1:9B:35:44:07:B7:80:1E:D4:DF:EF:7A:6A:25:D6:87:79:51:D1:F7
                DirName:/CN=team302-net
                serial:3D:7E:59:96:BE:5E:C1:0A:5B:96:85:42:A7:70:24:5A:0D:3E:60:10

            X509v3 Extended Key Usage: 
                TLS Web Server Authentication
            X509v3 Key Usage: 
                Digital Signature, Key Encipherment
            X509v3 Subject Alternative Name: 
                DNS:team302-server
    Signature Algorithm: sha256WithRSAEncryption
         20:ff:20:1d:3d:ea:74:ed:dc:63:6e:3f:9d:38:3d:5c:81:8b:
         e3:2c:9c:9c:58:73:80:32:67:26:42:a2:34:f1:77:cb:15:de:
         d0:81:92:81:a2:25:c6:83:27:0d:7a:9f:8c:b5:d4:e0:0f:47:
         0b:1e:d6:68:e9:21:43:b6:57:82:7b:1c:ac:fd:5b:33:84:d4:
         5b:44:2e:e8:79:54:51:86:ef:9b:4a:5b:f7:3f:87:53:44:3d:
         8e:72:1c:eb:46:30:7d:1e:7a:41:50:3b:27:c8:50:f9:1e:15:
         36:e5:1a:b9:b2:ba:57:a2:8c:1c:5d:15:97:62:47:75:7f:7b:
         82:a1:90:b5:b6:5b:b8:a4:17:02:38:29:12:54:ad:31:45:98:
         d4:a9:85:b6:38:c4:87:c1:88:04:dc:bd:01:67:80:cc:65:9b:
         9c:f5:e7:e5:61:9b:98:8b:b2:86:6b:a5:0c:31:9c:69:67:8f:
         3c:58:48:4e:9f:09:b6:fc:a8:49:c9:17:6e:50:c0:68:62:ef:
         a1:f1:bd:e8:ec:04:8b:f9:13:f3:b6:e0:09:45:a3:bc:de:b0:
         5f:e1:67:4b:aa:5c:91:a7:cc:af:ad:dd:11:55:6e:fc:08:a8:
         00:8d:47:cc:87:25:42:40:38:60:1c:94:5d:90:99:57:d4:69:
         b6:27:15:6d
-----BEGIN CERTIFICATE-----
MIIDeDCCAmCgAwIBAgIRAKKDk1cCJVdWNk5JS6p9qvwwDQYJKoZIhvcNAQELBQAw
FjEUMBIGA1UEAwwLdGVhbTMwMi1uZXQwHhcNMjIwNTE4MTk1OTUwWhcNMjUwNTAy
MTk1OTUwWjAZMRcwFQYDVQQDDA50ZWFtMzAyLXNlcnZlcjCCASIwDQYJKoZIhvcN
AQEBBQADggEPADCCAQoCggEBAMr8OTHJ61Wro9/u3GrPIvo2ImcSUM92Ao3QLsF2
l8aPiBy0vaN7IaxiESzhN8zzmnUdlFp7t6pUHcZVon2q2VXqz9ebD8YPVYjK44wr
kjHuHeaiUThFwyEjgQHnNLTfVUC5APzoWIoZbIJdzURhRiASNJTPmZU7Kw1yVPgN
pDNoOCZporXQc/wFJDZvZRqsqa5pD/Omy69ceqvKJ3xbsunhsSRDd8gYtu7u6SwK
L0D9r53BUSpeFk46xYodnfDWx8MLBECtWSYbh9oU98biHYSlUHBTdMF2MNu/hrIH
aD/X02Fku34OtQ4VFHuEYOCPSWRI0iSendrb73CHgZnmd9MCAwEAAaOBvTCBujAJ
BgNVHRMEAjAAMB0GA1UdDgQWBBTxMJ3eSZRnqU05bQ4WUqWeV9TrSTBRBgNVHSME
SjBIgBThmzVEB7eAHtTf73pqJdaHeVHR96EapBgwFjEUMBIGA1UEAwwLdGVhbTMw
Mi1uZXSCFD1+WZa+XsEKW5aFQqdwJFoNPmAQMBMGA1UdJQQMMAoGCCsGAQUFBwMB
MAsGA1UdDwQEAwIFoDAZBgNVHREEEjAQgg50ZWFtMzAyLXNlcnZlcjANBgkqhkiG
9w0BAQsFAAOCAQEAIP8gHT3qdO3cY24/nTg9XIGL4yycnFhzgDJnJkKiNPF3yxXe
0IGSgaIlxoMnDXqfjLXU4A9HCx7WaOkhQ7ZXgnscrP1bM4TUW0Qu6HlUUYbvm0pb
9z+HU0Q9jnIc60YwfR56QVA7J8hQ+R4VNuUaubK6V6KMHF0Vl2JHdX97gqGQtbZb
uKQXAjgpElStMUWY1KmFtjjEh8GIBNy9AWeAzGWbnPXn5WGbmIuyhmulDDGcaWeP
PFhITp8JtvyoSckXblDAaGLvofG96OwEi/kT87bgCUWjvN6wX+FnS6pckafMr63d
EVVu/AioAI1HzIclQkA4YByUXZCZV9RpticVbQ==
-----END CERTIFICATE-----
