Certificate:
    Data:
        Version: 3 (0x2)
        Serial Number:
            3d:68:dd:aa:38:3b:77:75:87:e3:73:e9:20:fa:73:e0
        Signature Algorithm: sha256WithRSAEncryption
        Issuer: CN=team331-net
        Validity
            Not Before: May 18 20:26:55 2022 GMT
            Not After : May  2 20:26:55 2025 GMT
        Subject: CN=team331-server
        Subject Public Key Info:
            Public Key Algorithm: rsaEncryption
                RSA Public-Key: (2048 bit)
                Modulus:
                    00:b9:83:af:3a:2e:6e:d9:ba:1a:ec:1e:8a:21:08:
                    84:1f:dd:80:7e:c1:b3:4f:c6:ff:f2:7c:b2:4a:bf:
                    41:44:76:aa:82:1e:08:9b:81:1a:27:49:dd:f6:5f:
                    46:c0:ce:b8:43:f6:9d:51:b1:a8:32:f3:9b:75:ee:
                    b1:c4:7f:e0:18:38:b1:56:24:dc:3f:99:e7:bf:32:
                    c9:cb:58:09:05:56:13:e5:90:9f:83:b9:5a:33:14:
                    c7:f1:a8:39:81:cf:cc:f0:1b:ce:ed:c2:f7:2e:06:
                    99:3f:d3:94:50:6a:fa:6a:37:9b:de:20:c0:90:59:
                    8b:28:28:8f:e5:7f:e5:5e:92:f0:8f:c0:c2:0e:e2:
                    aa:0f:18:c0:80:27:95:d6:2a:f4:df:82:c2:4b:ef:
                    ed:d7:b2:23:27:51:00:33:ae:8d:4a:5b:f8:dd:65:
                    70:98:d9:f5:6b:0d:a9:22:2a:41:fc:66:80:c7:01:
                    aa:17:0e:cf:5f:f4:85:4a:02:83:07:d0:77:7e:e1:
                    15:80:1e:2c:71:a9:06:74:b5:6c:5c:5f:27:8e:01:
                    20:93:0c:af:2e:96:98:79:82:c0:8a:25:65:f2:bc:
                    e6:8e:10:e6:bd:b1:74:bd:4e:c3:51:67:f8:86:d8:
                    db:e0:8a:64:0e:0c:f6:90:a6:5e:08:e7:94:a5:4b:
                    1e:b5
                Exponent: 65537 (0x10001)
        X509v3 extensions:
            X509v3 Basic Constraints: 
                CA:FALSE
            X509v3 Subject Key Identifier: 
                34:26:83:A6:DC:01:6C:2C:7B:E7:58:EC:DD:FF:93:A4:9A:09:26:E0
            X509v3 Authority Key Identifier: 
                keyid:31:81:4D:43:DF:3F:3C:A7:A4:A0:DC:93:01:3F:20:77:63:A1:6B:FE
                DirName:/CN=team331-net
                serial:56:B3:BD:8D:4D:21:15:F5:B4:03:95:54:ED:F3:E5:76:15:30:2E:5C

            X509v3 Extended Key Usage: 
                TLS Web Server Authentication
            X509v3 Key Usage: 
                Digital Signature, Key Encipherment
            X509v3 Subject Alternative Name: 
                DNS:team331-server
    Signature Algorithm: sha256WithRSAEncryption
         14:07:b9:00:71:a6:a3:61:d4:7a:56:cd:31:9b:45:0c:a1:45:
         59:3d:5b:0c:7e:b8:25:19:21:e5:9c:4c:09:53:ca:e2:e3:50:
         2d:14:7b:a7:e1:9c:82:82:13:06:25:dc:c1:13:ea:b7:fb:b1:
         79:45:71:cb:9b:56:4e:d9:76:48:7b:71:0e:a8:df:5f:7f:41:
         fd:b8:6b:a3:1e:6f:fa:df:d8:db:56:75:ea:8c:04:f7:90:f8:
         08:7f:b9:a3:d5:fe:f8:01:c6:85:9a:ac:36:03:84:25:7e:75:
         1f:4e:db:75:44:67:50:ff:d4:a9:48:4a:56:89:91:28:af:ce:
         7d:79:1c:0f:5f:4e:b3:ea:93:56:68:df:f7:92:de:1d:e4:d3:
         38:d6:7c:82:e8:69:63:a9:0a:04:91:3f:bf:cc:88:39:fb:80:
         2e:6a:3e:12:58:68:f4:60:6b:c9:1b:33:0b:3d:16:e6:e7:8b:
         0d:21:6e:82:54:5c:62:d4:92:12:44:1e:98:2e:d6:ed:98:27:
         32:16:d4:2b:bf:83:10:45:39:58:29:e6:bd:5b:c8:82:3b:09:
         e9:69:52:55:5e:6a:84:c2:48:fb:a3:0c:d1:16:0e:38:75:50:
         0e:24:2b:99:ce:d5:bb:1e:7f:3f:26:80:3c:1f:4f:3e:47:c3:
         56:c0:11:0e
-----BEGIN CERTIFICATE-----
MIIDdzCCAl+gAwIBAgIQPWjdqjg7d3WH43PpIPpz4DANBgkqhkiG9w0BAQsFADAW
MRQwEgYDVQQDDAt0ZWFtMzMxLW5ldDAeFw0yMjA1MTgyMDI2NTVaFw0yNTA1MDIy
MDI2NTVaMBkxFzAVBgNVBAMMDnRlYW0zMzEtc2VydmVyMIIBIjANBgkqhkiG9w0B
AQEFAAOCAQ8AMIIBCgKCAQEAuYOvOi5u2boa7B6KIQiEH92AfsGzT8b/8nyySr9B
RHaqgh4Im4EaJ0nd9l9GwM64Q/adUbGoMvObde6xxH/gGDixViTcP5nnvzLJy1gJ
BVYT5ZCfg7laMxTH8ag5gc/M8BvO7cL3LgaZP9OUUGr6ajeb3iDAkFmLKCiP5X/l
XpLwj8DCDuKqDxjAgCeV1ir034LCS+/t17IjJ1EAM66NSlv43WVwmNn1aw2pIipB
/GaAxwGqFw7PX/SFSgKDB9B3fuEVgB4scakGdLVsXF8njgEgkwyvLpaYeYLAiiVl
8rzmjhDmvbF0vU7DUWf4htjb4IpkDgz2kKZeCOeUpUsetQIDAQABo4G9MIG6MAkG
A1UdEwQCMAAwHQYDVR0OBBYEFDQmg6bcAWwse+dY7N3/k6SaCSbgMFEGA1UdIwRK
MEiAFDGBTUPfPzynpKDckwE/IHdjoWv+oRqkGDAWMRQwEgYDVQQDDAt0ZWFtMzMx
LW5ldIIUVrO9jU0hFfW0A5VU7fPldhUwLlwwEwYDVR0lBAwwCgYIKwYBBQUHAwEw
CwYDVR0PBAQDAgWgMBkGA1UdEQQSMBCCDnRlYW0zMzEtc2VydmVyMA0GCSqGSIb3
DQEBCwUAA4IBAQAUB7kAcaajYdR6Vs0xm0UMoUVZPVsMfrglGSHlnEwJU8ri41At
FHun4ZyCghMGJdzBE+q3+7F5RXHLm1ZO2XZIe3EOqN9ff0H9uGujHm/639jbVnXq
jAT3kPgIf7mj1f74AcaFmqw2A4QlfnUfTtt1RGdQ/9SpSEpWiZEor859eRwPX06z
6pNWaN/3kt4d5NM41nyC6GljqQoEkT+/zIg5+4Auaj4SWGj0YGvJGzMLPRbm54sN
IW6CVFxi1JISRB6YLtbtmCcyFtQrv4MQRTlYKea9W8iCOwnpaVJVXmqEwkj7owzR
Fg44dVAOJCuZztW7Hn8/JoA8H08+R8NWwBEO
-----END CERTIFICATE-----
