Certificate:
    Data:
        Version: 3 (0x2)
        Serial Number:
            64:15:f6:6f:5e:85:b3:a3:ba:bc:a6:2c:b6:7f:f1:1b
        Signature Algorithm: sha256WithRSAEncryption
        Issuer: CN=team117-net
        Validity
            Not Before: May 18 14:57:24 2022 GMT
            Not After : May  2 14:57:24 2025 GMT
        Subject: CN=team117-client
        Subject Public Key Info:
            Public Key Algorithm: rsaEncryption
                RSA Public-Key: (2048 bit)
                Modulus:
                    00:b8:a0:33:0a:ae:b4:2b:54:7e:a0:4f:a7:94:c6:
                    e9:39:b2:44:da:1f:26:de:c5:2c:7a:aa:5d:e5:35:
                    53:9f:09:32:c0:28:22:7e:a9:38:bb:6c:93:5a:0b:
                    d3:c9:69:d8:ce:82:e7:f9:bd:28:c9:dc:d7:65:4a:
                    f2:15:52:9c:41:3c:c9:fa:a7:bd:c5:a6:4a:d1:b9:
                    7e:bb:01:85:d0:d3:4a:42:60:bb:6d:60:0a:54:67:
                    64:b0:4d:06:33:8b:8a:e2:73:e7:b5:2d:03:3a:f1:
                    83:4f:40:46:a1:27:d4:2b:54:0e:55:43:8b:0e:b4:
                    cc:ea:ef:5c:9c:e3:9c:27:78:1e:6e:a6:f1:62:7b:
                    90:67:a3:fe:59:d6:f1:b3:74:9f:5c:76:21:44:42:
                    8b:d3:b6:5d:5b:d9:80:50:8d:3a:8c:00:b9:76:64:
                    4f:74:f6:92:bb:ee:13:ce:af:60:71:1f:ab:62:d9:
                    53:9c:80:29:8b:a2:f1:2b:49:c7:f1:70:17:20:ed:
                    42:bb:a9:24:2e:e4:4e:a5:d8:9a:8e:62:b9:69:e4:
                    3d:99:50:02:c0:01:c0:50:a1:df:63:b7:4c:97:05:
                    e1:02:91:64:7e:1e:09:d5:80:b0:88:82:f9:c2:3d:
                    36:da:27:6e:28:46:fe:f6:65:d0:f1:a0:83:11:bb:
                    50:af
                Exponent: 65537 (0x10001)
        X509v3 extensions:
            X509v3 Basic Constraints: 
                CA:FALSE
            X509v3 Subject Key Identifier: 
                84:41:10:E0:65:DF:4C:08:AC:0E:7B:20:B2:60:88:C8:40:74:CC:11
            X509v3 Authority Key Identifier: 
                keyid:87:FE:82:5D:B4:C7:36:4D:47:69:C2:70:5E:54:93:23:C4:DE:BF:F8
                DirName:/CN=team117-net
                serial:6D:5E:9B:B4:88:D8:F3:70:82:64:99:C4:19:56:DF:02:3C:8A:94:C2

            X509v3 Extended Key Usage: 
                TLS Web Client Authentication
            X509v3 Key Usage: 
                Digital Signature
    Signature Algorithm: sha256WithRSAEncryption
         21:c0:42:a5:a7:f3:c6:f3:cb:6f:3b:c6:41:52:ca:b0:41:20:
         15:5c:1f:c3:d9:7c:93:91:fc:d4:a3:a1:90:bd:89:cc:08:58:
         d5:8e:c1:01:d4:6b:41:15:f5:79:8c:01:0f:ec:1a:fd:4e:6e:
         37:1a:89:f2:74:49:68:bc:1c:52:cb:1d:54:ab:3f:27:ed:ec:
         85:ef:c7:90:47:d3:59:8b:cd:5c:4d:b1:cf:60:25:6d:48:9f:
         4e:6e:42:1c:0c:4e:03:29:cc:0f:62:19:2a:7d:bd:41:9f:1a:
         8b:c6:5f:cd:7a:84:21:80:18:bf:3b:a2:2e:5a:31:5e:9f:a5:
         5a:b8:47:a9:06:8c:fc:be:09:b6:69:ca:5a:00:f7:48:21:c9:
         48:17:81:ef:6d:41:a2:db:c5:16:b3:13:2f:35:b0:a5:3f:12:
         52:80:15:66:5c:a3:c4:a5:d9:90:d5:8d:13:72:ed:7e:bb:6c:
         c3:d8:5f:7f:cb:cf:aa:e7:af:3f:8a:9c:1e:f2:01:d1:a6:3d:
         c5:57:7b:fd:e9:f5:2d:e0:28:53:f4:3b:ca:b3:18:d3:9e:2c:
         b3:eb:60:96:e8:67:a1:b9:b0:42:0b:a2:c6:54:59:8c:30:cd:
         97:89:1e:03:25:aa:93:f2:20:64:69:79:4d:ab:6c:53:41:c6:
         c3:f2:ec:7b
-----BEGIN CERTIFICATE-----
MIIDXDCCAkSgAwIBAgIQZBX2b16Fs6O6vKYstn/xGzANBgkqhkiG9w0BAQsFADAW
MRQwEgYDVQQDDAt0ZWFtMTE3LW5ldDAeFw0yMjA1MTgxNDU3MjRaFw0yNTA1MDIx
NDU3MjRaMBkxFzAVBgNVBAMMDnRlYW0xMTctY2xpZW50MIIBIjANBgkqhkiG9w0B
AQEFAAOCAQ8AMIIBCgKCAQEAuKAzCq60K1R+oE+nlMbpObJE2h8m3sUseqpd5TVT
nwkywCgifqk4u2yTWgvTyWnYzoLn+b0oydzXZUryFVKcQTzJ+qe9xaZK0bl+uwGF
0NNKQmC7bWAKVGdksE0GM4uK4nPntS0DOvGDT0BGoSfUK1QOVUOLDrTM6u9cnOOc
J3gebqbxYnuQZ6P+Wdbxs3SfXHYhREKL07ZdW9mAUI06jAC5dmRPdPaSu+4Tzq9g
cR+rYtlTnIApi6LxK0nH8XAXIO1Cu6kkLuROpdiajmK5aeQ9mVACwAHAUKHfY7dM
lwXhApFkfh4J1YCwiIL5wj022iduKEb+9mXQ8aCDEbtQrwIDAQABo4GiMIGfMAkG
A1UdEwQCMAAwHQYDVR0OBBYEFIRBEOBl30wIrA57ILJgiMhAdMwRMFEGA1UdIwRK
MEiAFIf+gl20xzZNR2nCcF5UkyPE3r/4oRqkGDAWMRQwEgYDVQQDDAt0ZWFtMTE3
LW5ldIIUbV6btIjY83CCZJnEGVbfAjyKlMIwEwYDVR0lBAwwCgYIKwYBBQUHAwIw
CwYDVR0PBAQDAgeAMA0GCSqGSIb3DQEBCwUAA4IBAQAhwEKlp/PG88tvO8ZBUsqw
QSAVXB/D2XyTkfzUo6GQvYnMCFjVjsEB1GtBFfV5jAEP7Br9Tm43GonydElovBxS
yx1Uqz8n7eyF78eQR9NZi81cTbHPYCVtSJ9ObkIcDE4DKcwPYhkqfb1BnxqLxl/N
eoQhgBi/O6IuWjFen6VauEepBoz8vgm2acpaAPdIIclIF4HvbUGi28UWsxMvNbCl
PxJSgBVmXKPEpdmQ1Y0Tcu1+u2zD2F9/y8+q568/ipwe8gHRpj3FV3v96fUt4ChT
9DvKsxjTniyz62CW6GehubBCC6LGVFmMMM2XiR4DJaqT8iBkaXlNq2xTQcbD8ux7
-----END CERTIFICATE-----
