Certificate:
    Data:
        Version: 3 (0x2)
        Serial Number:
            a3:b7:c7:ff:ce:d8:cf:e1:aa:4f:73:da:79:ee:48:be
        Signature Algorithm: sha256WithRSAEncryption
        Issuer: CN=team111-net
        Validity
            Not Before: May 18 14:56:05 2022 GMT
            Not After : May  2 14:56:05 2025 GMT
        Subject: CN=team111-server
        Subject Public Key Info:
            Public Key Algorithm: rsaEncryption
                RSA Public-Key: (2048 bit)
                Modulus:
                    00:e6:1d:0b:ae:c1:d4:f8:d6:97:48:d7:82:3b:f4:
                    96:63:a6:da:6a:65:bb:f9:b5:c7:52:db:d8:1d:50:
                    d1:c4:79:1f:e6:63:5b:10:29:f7:d2:f4:19:56:c6:
                    75:20:08:3d:68:26:5c:55:d9:b6:87:73:bc:af:c7:
                    a4:3a:ae:1b:8c:72:8e:b6:84:28:7d:1e:6b:21:28:
                    0e:07:ac:4e:a6:9d:ed:c8:d9:6c:12:7d:d4:6c:70:
                    23:7f:56:c6:34:cb:02:da:4b:a7:c1:d6:0d:9f:85:
                    fd:33:5b:fb:a4:7b:d9:b2:63:8f:36:74:6d:ff:c1:
                    45:38:bd:4b:db:73:12:1d:0a:85:6f:57:6a:11:66:
                    db:bb:16:05:87:d2:b9:89:b7:94:d1:c0:fc:6a:38:
                    7d:86:64:87:cb:aa:dd:6b:5d:7a:0b:a3:6e:0c:98:
                    c8:3f:aa:57:02:d2:b4:44:70:99:fc:0d:5f:ae:98:
                    f6:b2:33:25:a0:5f:98:34:b1:be:7a:28:4c:b8:99:
                    a3:3c:4f:1d:02:48:da:bf:58:b5:0e:c9:9c:f2:e2:
                    bd:c5:7a:44:f5:d8:0a:0f:fd:b2:28:52:a2:28:53:
                    bd:eb:8a:77:66:6a:e9:cd:13:0a:17:05:a4:6e:34:
                    4b:9d:dc:8a:e6:d0:93:49:c3:15:b8:b1:4a:5b:a8:
                    69:53
                Exponent: 65537 (0x10001)
        X509v3 extensions:
            X509v3 Basic Constraints: 
                CA:FALSE
            X509v3 Subject Key Identifier: 
                58:1C:DF:68:1C:37:62:8A:B5:F6:BD:87:4D:5A:B4:33:40:93:4A:87
            X509v3 Authority Key Identifier: 
                keyid:58:92:E4:31:A4:D3:90:BB:83:23:98:DC:90:2A:B0:7E:17:50:60:D4
                DirName:/CN=team111-net
                serial:6E:55:4E:DD:58:45:8C:19:49:C9:4D:7A:06:CB:18:DC:17:DD:A3:C4

            X509v3 Extended Key Usage: 
                TLS Web Server Authentication
            X509v3 Key Usage: 
                Digital Signature, Key Encipherment
            X509v3 Subject Alternative Name: 
                DNS:team111-server
    Signature Algorithm: sha256WithRSAEncryption
         1d:a4:93:89:38:47:28:95:f0:c2:3d:64:ee:df:1e:1b:bb:0d:
         88:f5:00:8e:22:60:c3:43:7b:f6:cf:ed:37:16:6e:c2:36:ea:
         e4:bc:ab:05:f1:92:09:02:fb:e1:41:0f:06:c6:a6:89:1d:e0:
         06:b3:c3:e4:83:58:98:2e:76:c8:59:ea:c5:56:fb:1c:9d:05:
         f9:f3:75:9d:fd:84:c6:9b:e3:5a:ed:7b:4c:99:e7:da:07:8c:
         ce:32:ac:b2:46:23:71:9e:70:b8:ee:d5:ff:38:92:cd:1b:43:
         31:ec:1b:47:22:19:6b:92:bc:dc:bf:76:39:3c:bb:da:de:5e:
         ce:8f:41:d6:ea:ff:a9:44:7c:2b:c0:ae:21:f7:5c:80:6a:fe:
         ef:7e:9f:53:f0:94:f5:cc:40:92:ea:ff:5a:b0:3d:cf:3c:aa:
         bb:0a:c1:c1:2b:51:94:4a:cd:86:cd:cb:35:b1:d6:55:99:e7:
         d1:53:59:ee:8c:df:0f:da:7c:34:f7:1c:cb:4e:f9:de:9f:b6:
         36:4c:27:90:00:a4:64:90:60:30:48:dc:71:90:73:41:47:02:
         ea:14:a0:04:d7:6f:42:eb:6f:35:fe:45:a4:f4:a5:93:5f:f9:
         5a:d4:c9:24:de:6e:0a:f7:08:d0:dd:9b:cf:10:1e:0f:0a:62:
         9a:7c:7e:ab
-----BEGIN CERTIFICATE-----
MIIDeDCCAmCgAwIBAgIRAKO3x//O2M/hqk9z2nnuSL4wDQYJKoZIhvcNAQELBQAw
FjEUMBIGA1UEAwwLdGVhbTExMS1uZXQwHhcNMjIwNTE4MTQ1NjA1WhcNMjUwNTAy
MTQ1NjA1WjAZMRcwFQYDVQQDDA50ZWFtMTExLXNlcnZlcjCCASIwDQYJKoZIhvcN
AQEBBQADggEPADCCAQoCggEBAOYdC67B1PjWl0jXgjv0lmOm2mplu/m1x1Lb2B1Q
0cR5H+ZjWxAp99L0GVbGdSAIPWgmXFXZtodzvK/HpDquG4xyjraEKH0eayEoDges
Tqad7cjZbBJ91GxwI39WxjTLAtpLp8HWDZ+F/TNb+6R72bJjjzZ0bf/BRTi9S9tz
Eh0KhW9XahFm27sWBYfSuYm3lNHA/Go4fYZkh8uq3WtdegujbgyYyD+qVwLStERw
mfwNX66Y9rIzJaBfmDSxvnooTLiZozxPHQJI2r9YtQ7JnPLivcV6RPXYCg/9sihS
oihTveuKd2Zq6c0TChcFpG40S53ciubQk0nDFbixSluoaVMCAwEAAaOBvTCBujAJ
BgNVHRMEAjAAMB0GA1UdDgQWBBRYHN9oHDdiirX2vYdNWrQzQJNKhzBRBgNVHSME
SjBIgBRYkuQxpNOQu4MjmNyQKrB+F1Bg1KEapBgwFjEUMBIGA1UEAwwLdGVhbTEx
MS1uZXSCFG5VTt1YRYwZSclNegbLGNwX3aPEMBMGA1UdJQQMMAoGCCsGAQUFBwMB
MAsGA1UdDwQEAwIFoDAZBgNVHREEEjAQgg50ZWFtMTExLXNlcnZlcjANBgkqhkiG
9w0BAQsFAAOCAQEAHaSTiThHKJXwwj1k7t8eG7sNiPUAjiJgw0N79s/tNxZuwjbq
5LyrBfGSCQL74UEPBsamiR3gBrPD5INYmC52yFnqxVb7HJ0F+fN1nf2ExpvjWu17
TJnn2geMzjKsskYjcZ5wuO7V/ziSzRtDMewbRyIZa5K83L92OTy72t5ezo9B1ur/
qUR8K8CuIfdcgGr+736fU/CU9cxAkur/WrA9zzyquwrBwStRlErNhs3LNbHWVZnn
0VNZ7ozfD9p8NPccy0753p+2NkwnkACkZJBgMEjccZBzQUcC6hSgBNdvQutvNf5F
pPSlk1/5WtTJJN5uCvcI0N2bzxAeDwpimnx+qw==
-----END CERTIFICATE-----
