Certificate:
    Data:
        Version: 3 (0x2)
        Serial Number:
            c8:4a:fe:8b:c5:de:ca:fb:de:21:39:57:35:c7:57:7c
        Signature Algorithm: sha256WithRSAEncryption
        Issuer: CN=team375-net
        Validity
            Not Before: May 18 20:51:04 2022 GMT
            Not After : May  2 20:51:04 2025 GMT
        Subject: CN=team375-client
        Subject Public Key Info:
            Public Key Algorithm: rsaEncryption
                RSA Public-Key: (2048 bit)
                Modulus:
                    00:b3:1d:14:62:d3:1d:d3:77:25:e9:36:a2:0b:fe:
                    0a:2c:2e:c4:77:d4:c7:95:84:1d:e0:81:7c:24:14:
                    82:37:69:d2:c1:24:d2:bf:a3:13:e3:18:d6:b5:da:
                    82:5f:07:24:6b:73:91:f5:ca:ba:71:b8:53:4b:3d:
                    cd:88:d5:9e:a1:fc:2b:d3:fc:bb:1c:68:3b:0c:eb:
                    84:26:6d:0f:5c:84:8f:6c:45:66:18:13:bc:db:c2:
                    92:ab:1c:a4:72:12:bc:8f:32:0a:7e:f2:4b:e8:a9:
                    29:5a:b9:60:90:f4:d1:3b:0a:1c:bb:e5:f1:5a:27:
                    4b:9f:fe:39:db:bc:a6:fd:84:01:36:fb:71:52:86:
                    03:f8:06:b0:de:aa:48:96:6d:93:dd:86:74:a8:d1:
                    9c:2f:87:e9:f5:33:98:11:2a:8d:cc:4e:28:2e:ba:
                    73:82:50:45:71:ff:73:4e:3d:e9:bd:8c:ca:f2:27:
                    b8:9c:43:7d:45:cc:5b:77:f2:7a:6e:89:7b:bf:5a:
                    74:1d:3c:21:06:b4:27:cd:64:66:60:22:4c:90:44:
                    aa:2b:84:2b:8b:08:74:17:ba:ae:42:17:7c:f0:34:
                    29:29:a6:b1:1c:ed:2e:fd:c8:70:67:3a:8f:c0:e2:
                    55:2e:b1:cf:13:09:5d:58:71:c3:22:69:88:72:b8:
                    1d:01
                Exponent: 65537 (0x10001)
        X509v3 extensions:
            X509v3 Basic Constraints: 
                CA:FALSE
            X509v3 Subject Key Identifier: 
                28:B5:09:29:14:AF:6E:FA:F1:A4:B5:9E:7A:9F:1D:78:F1:9F:CF:8F
            X509v3 Authority Key Identifier: 
                keyid:15:4E:CE:C7:EA:6F:5A:A3:D6:93:DD:2E:06:0A:0B:E9:29:25:CF:0A
                DirName:/CN=team375-net
                serial:58:A8:02:FA:35:C6:31:CF:7E:8D:51:9C:7F:EC:D4:E7:8D:61:06:E9

            X509v3 Extended Key Usage: 
                TLS Web Client Authentication
            X509v3 Key Usage: 
                Digital Signature
    Signature Algorithm: sha256WithRSAEncryption
         b4:2f:b5:16:0c:01:e3:92:9a:c2:65:1a:3d:c4:8c:96:c6:78:
         ca:93:6d:09:ac:aa:1a:79:01:46:54:45:fc:45:24:e7:8b:5f:
         1a:71:f5:ab:45:83:71:67:1a:f1:58:c9:53:16:70:dc:d0:80:
         37:67:90:09:4a:17:1e:f8:ac:5b:ee:44:c0:bf:5b:fc:6b:94:
         70:7b:d8:01:a6:1c:f6:67:cf:8f:62:75:4d:98:0e:fd:a8:15:
         31:eb:5f:fa:44:73:ee:6c:87:35:c8:33:71:e3:bb:ed:09:97:
         f9:c9:6c:aa:fb:f4:a3:08:4b:e1:a0:4a:f3:2a:4c:33:74:cc:
         c8:c9:54:5f:38:ed:7d:a8:4d:7c:0e:09:03:37:fe:0c:37:e6:
         02:77:a7:4a:94:5e:4d:19:f6:24:bd:fe:74:c2:b0:ba:6a:5e:
         d6:d7:d6:72:57:1a:3a:73:91:e5:2c:48:f3:e2:f7:b6:ee:7d:
         5f:39:42:7a:1f:05:55:6b:4b:4d:4a:32:31:16:9f:c3:27:78:
         54:63:5c:07:61:fd:61:9d:4a:c3:ef:19:ad:4b:87:e1:d7:7c:
         62:b5:c5:f8:78:a2:45:62:75:c0:b2:16:f6:04:3b:68:15:f1:
         08:7b:fe:03:83:fd:d3:65:d2:40:15:49:d2:5b:5c:fd:83:7f:
         00:75:7e:57
-----BEGIN CERTIFICATE-----
MIIDXTCCAkWgAwIBAgIRAMhK/ovF3sr73iE5VzXHV3wwDQYJKoZIhvcNAQELBQAw
FjEUMBIGA1UEAwwLdGVhbTM3NS1uZXQwHhcNMjIwNTE4MjA1MTA0WhcNMjUwNTAy
MjA1MTA0WjAZMRcwFQYDVQQDDA50ZWFtMzc1LWNsaWVudDCCASIwDQYJKoZIhvcN
AQEBBQADggEPADCCAQoCggEBALMdFGLTHdN3Jek2ogv+CiwuxHfUx5WEHeCBfCQU
gjdp0sEk0r+jE+MY1rXagl8HJGtzkfXKunG4U0s9zYjVnqH8K9P8uxxoOwzrhCZt
D1yEj2xFZhgTvNvCkqscpHISvI8yCn7yS+ipKVq5YJD00TsKHLvl8VonS5/+Odu8
pv2EATb7cVKGA/gGsN6qSJZtk92GdKjRnC+H6fUzmBEqjcxOKC66c4JQRXH/c049
6b2MyvInuJxDfUXMW3fyem6Je79adB08IQa0J81kZmAiTJBEqiuEK4sIdBe6rkIX
fPA0KSmmsRztLv3IcGc6j8DiVS6xzxMJXVhxwyJpiHK4HQECAwEAAaOBojCBnzAJ
BgNVHRMEAjAAMB0GA1UdDgQWBBQotQkpFK9u+vGktZ56nx148Z/PjzBRBgNVHSME
SjBIgBQVTs7H6m9ao9aT3S4GCgvpKSXPCqEapBgwFjEUMBIGA1UEAwwLdGVhbTM3
NS1uZXSCFFioAvo1xjHPfo1RnH/s1OeNYQbpMBMGA1UdJQQMMAoGCCsGAQUFBwMC
MAsGA1UdDwQEAwIHgDANBgkqhkiG9w0BAQsFAAOCAQEAtC+1FgwB45KawmUaPcSM
lsZ4ypNtCayqGnkBRlRF/EUk54tfGnH1q0WDcWca8VjJUxZw3NCAN2eQCUoXHvis
W+5EwL9b/GuUcHvYAaYc9mfPj2J1TZgO/agVMetf+kRz7myHNcgzceO77QmX+cls
qvv0owhL4aBK8ypMM3TMyMlUXzjtfahNfA4JAzf+DDfmAnenSpReTRn2JL3+dMKw
umpe1tfWclcaOnOR5SxI8+L3tu59XzlCeh8FVWtLTUoyMRafwyd4VGNcB2H9YZ1K
w+8ZrUuH4dd8YrXF+HiiRWJ1wLIW9gQ7aBXxCHv+A4P902XSQBVJ0ltc/YN/AHV+
Vw==
-----END CERTIFICATE-----
