Certificate:
    Data:
        Version: 3 (0x2)
        Serial Number:
            9d:ef:b8:ba:8d:2b:b5:47:7b:3a:70:06:20:29:e5:1e
        Signature Algorithm: sha256WithRSAEncryption
        Issuer: CN=team143-net
        Validity
            Not Before: May 18 18:31:26 2022 GMT
            Not After : May  2 18:31:26 2025 GMT
        Subject: CN=team143-client
        Subject Public Key Info:
            Public Key Algorithm: rsaEncryption
                RSA Public-Key: (2048 bit)
                Modulus:
                    00:b5:00:6e:35:5c:7f:e7:5a:b9:19:b9:7d:ad:01:
                    94:c7:d9:f8:7b:28:e0:fd:71:eb:c3:94:51:1b:33:
                    aa:06:a9:78:d2:12:b0:fa:6b:4c:6e:6f:20:aa:48:
                    bc:68:04:c4:d5:e9:3f:0d:3e:b4:f3:53:bc:72:a9:
                    57:8f:d1:2b:46:81:56:3f:0f:a1:1f:d8:fe:7d:28:
                    e6:cf:93:ac:3b:8a:cf:14:18:d4:b3:67:31:c0:4b:
                    3d:9f:76:45:e4:3f:8f:f3:09:89:94:cc:3e:9b:ca:
                    2f:5d:60:63:48:69:4e:7b:7a:a2:f6:55:f9:99:c2:
                    ba:00:8e:3c:83:60:ae:33:ef:94:05:40:77:04:57:
                    17:11:b8:47:0f:3c:79:f3:7c:9b:1f:2c:ed:d7:32:
                    c0:48:48:54:84:5a:c3:5a:d2:09:52:5e:20:33:8d:
                    40:d7:af:f1:ca:d3:7a:74:b5:0f:6e:13:ab:a8:ac:
                    96:2a:54:39:52:60:a6:b9:3f:80:fa:88:5e:4e:ed:
                    e1:e6:1e:0c:d2:52:45:4a:de:e9:16:98:90:8c:79:
                    a3:5c:d2:85:a6:42:36:0c:6e:51:d3:d4:48:be:6f:
                    8b:fa:73:a3:4c:f0:93:3a:9c:3c:d9:c1:4f:5e:f5:
                    d9:11:40:87:9d:35:2c:1d:e8:b9:58:f5:83:0f:b8:
                    c8:c5
                Exponent: 65537 (0x10001)
        X509v3 extensions:
            X509v3 Basic Constraints: 
                CA:FALSE
            X509v3 Subject Key Identifier: 
                2F:D4:10:36:B3:D0:F4:2B:E7:03:EB:36:5C:2A:18:5D:BA:8B:70:87
            X509v3 Authority Key Identifier: 
                keyid:E5:3C:F0:BE:6E:FF:FB:3A:84:65:39:B9:74:25:37:6A:E6:C5:27:35
                DirName:/CN=team143-net
                serial:55:40:5F:D9:3E:8A:9C:72:EE:C7:F3:63:54:EE:72:71:EE:7A:9F:2C

            X509v3 Extended Key Usage: 
                TLS Web Client Authentication
            X509v3 Key Usage: 
                Digital Signature
    Signature Algorithm: sha256WithRSAEncryption
         28:e0:3c:30:f8:0f:92:37:7e:91:99:fe:a2:e9:23:d8:7d:5e:
         50:41:11:83:bc:b1:1d:62:36:fd:eb:d5:14:43:57:90:7d:df:
         cc:2f:b1:bb:72:17:e3:c6:46:a2:70:76:c0:24:e3:63:c8:fa:
         d7:41:b6:fc:8e:51:1d:10:f6:5f:7d:a8:30:6b:ff:59:ea:69:
         54:30:cd:9b:91:de:aa:64:b8:ea:5a:32:e9:c2:37:5e:17:cd:
         76:cb:32:1d:0b:88:f8:c0:1c:bc:fe:77:e4:af:f7:dd:6b:d2:
         b7:35:ce:d4:a6:3d:3d:a9:85:c6:29:f8:2e:b2:ad:a4:12:9a:
         dd:04:da:22:28:b7:fc:27:59:b7:f9:d7:5c:ec:4c:fd:b4:9e:
         69:08:5b:be:ea:c7:56:72:53:0a:fd:55:9e:26:32:43:5e:00:
         83:a9:f8:77:a1:67:88:ba:37:3e:bb:8e:6d:82:18:20:5d:d1:
         a6:92:f7:46:d6:3e:1a:ef:2f:51:81:62:a2:41:c5:91:55:92:
         ea:0f:62:4a:a9:9d:f4:74:6c:f1:b3:0c:a6:67:b5:f6:a3:c8:
         36:ee:e9:2c:40:db:da:ca:ee:cc:46:e7:65:95:49:b4:ad:40:
         3f:75:ab:0f:89:ca:ed:ef:23:49:77:07:0c:4b:51:c0:dc:4e:
         53:e9:a4:1f
-----BEGIN CERTIFICATE-----
MIIDXTCCAkWgAwIBAgIRAJ3vuLqNK7VHezpwBiAp5R4wDQYJKoZIhvcNAQELBQAw
FjEUMBIGA1UEAwwLdGVhbTE0My1uZXQwHhcNMjIwNTE4MTgzMTI2WhcNMjUwNTAy
MTgzMTI2WjAZMRcwFQYDVQQDDA50ZWFtMTQzLWNsaWVudDCCASIwDQYJKoZIhvcN
AQEBBQADggEPADCCAQoCggEBALUAbjVcf+dauRm5fa0BlMfZ+Hso4P1x68OUURsz
qgapeNISsPprTG5vIKpIvGgExNXpPw0+tPNTvHKpV4/RK0aBVj8PoR/Y/n0o5s+T
rDuKzxQY1LNnMcBLPZ92ReQ/j/MJiZTMPpvKL11gY0hpTnt6ovZV+ZnCugCOPINg
rjPvlAVAdwRXFxG4Rw88efN8mx8s7dcywEhIVIRaw1rSCVJeIDONQNev8crTenS1
D24Tq6islipUOVJgprk/gPqIXk7t4eYeDNJSRUre6RaYkIx5o1zShaZCNgxuUdPU
SL5vi/pzo0zwkzqcPNnBT1712RFAh501LB3ouVj1gw+4yMUCAwEAAaOBojCBnzAJ
BgNVHRMEAjAAMB0GA1UdDgQWBBQv1BA2s9D0K+cD6zZcKhhduotwhzBRBgNVHSME
SjBIgBTlPPC+bv/7OoRlObl0JTdq5sUnNaEapBgwFjEUMBIGA1UEAwwLdGVhbTE0
My1uZXSCFFVAX9k+ipxy7sfzY1TucnHuep8sMBMGA1UdJQQMMAoGCCsGAQUFBwMC
MAsGA1UdDwQEAwIHgDANBgkqhkiG9w0BAQsFAAOCAQEAKOA8MPgPkjd+kZn+oukj
2H1eUEERg7yxHWI2/evVFENXkH3fzC+xu3IX48ZGonB2wCTjY8j610G2/I5RHRD2
X32oMGv/WeppVDDNm5HeqmS46loy6cI3XhfNdssyHQuI+MAcvP535K/33WvStzXO
1KY9PamFxin4LrKtpBKa3QTaIii3/CdZt/nXXOxM/bSeaQhbvurHVnJTCv1VniYy
Q14Ag6n4d6FniLo3PruObYIYIF3RppL3RtY+Gu8vUYFiokHFkVWS6g9iSqmd9HRs
8bMMpme19qPINu7pLEDb2sruzEbnZZVJtK1AP3WrD4nK7e8jSXcHDEtRwNxOU+mk
Hw==
-----END CERTIFICATE-----
