Certificate:
    Data:
        Version: 3 (0x2)
        Serial Number:
            23:7a:46:c6:bc:03:fd:7f:ce:b9:e3:f2:a8:cd:32:56
        Signature Algorithm: sha256WithRSAEncryption
        Issuer: CN=team49-net
        Validity
            Not Before: May 18 14:22:00 2022 GMT
            Not After : May  2 14:22:00 2025 GMT
        Subject: CN=team49-server
        Subject Public Key Info:
            Public Key Algorithm: rsaEncryption
                RSA Public-Key: (2048 bit)
                Modulus:
                    00:df:c6:a4:a8:a2:30:c5:ab:f3:a5:1a:34:5d:4b:
                    25:e0:d2:2a:70:a6:10:31:f2:b2:2b:d9:60:fc:a7:
                    1f:9d:92:0c:a8:cd:eb:86:90:de:bc:11:52:e1:c9:
                    ae:be:2f:92:72:8d:41:b0:9c:bb:6e:a2:ae:3c:22:
                    1f:b0:b9:1a:34:a3:90:ec:5b:ed:19:30:ea:5d:fe:
                    c0:8b:62:bb:b6:49:9c:d1:46:c2:8c:56:0b:a6:78:
                    fa:0e:34:bc:49:50:8b:db:71:08:76:57:ad:7c:65:
                    16:a9:d1:59:b6:53:27:c8:8f:d3:de:d0:e7:82:32:
                    93:52:d5:45:dd:63:31:2f:18:d1:28:d5:49:32:4d:
                    5b:8f:85:20:2c:96:65:01:7d:43:c4:49:d0:2d:56:
                    c0:b2:38:5f:17:0a:79:15:a0:6f:2b:b6:07:ae:f3:
                    43:c0:ce:3d:f8:f0:ba:db:a8:6f:a6:3b:8d:53:1d:
                    36:6f:a1:26:a8:6c:b6:ba:56:72:4a:98:0a:5e:98:
                    92:4b:17:9b:83:ba:d4:d7:4a:25:81:e1:46:e0:1e:
                    7d:58:e2:16:10:4c:bd:00:49:9f:d4:2d:8e:3f:36:
                    24:d8:6a:9d:8a:20:48:02:14:9d:f1:59:53:f9:64:
                    df:06:9c:35:c7:70:57:8b:ed:03:0d:ff:16:9d:e7:
                    ac:11
                Exponent: 65537 (0x10001)
        X509v3 extensions:
            X509v3 Basic Constraints: 
                CA:FALSE
            X509v3 Subject Key Identifier: 
                78:58:6C:DC:0D:90:1A:30:98:0F:64:A5:C6:09:15:57:38:1C:DA:D0
            X509v3 Authority Key Identifier: 
                keyid:12:30:60:C1:DD:87:37:CB:76:6E:F1:EC:9F:EE:E9:F6:67:F2:AF:7B
                DirName:/CN=team49-net
                serial:1A:30:17:F1:E8:81:3A:3B:81:CF:EB:ED:87:D4:6F:DE:E7:E2:1D:AE

            X509v3 Extended Key Usage: 
                TLS Web Server Authentication
            X509v3 Key Usage: 
                Digital Signature, Key Encipherment
            X509v3 Subject Alternative Name: 
                DNS:team49-server
    Signature Algorithm: sha256WithRSAEncryption
         06:5e:34:bf:95:1d:e3:aa:7b:d8:38:1f:b8:aa:05:14:7b:c5:
         11:ba:b6:aa:9e:83:0a:c4:1c:2b:4c:4a:42:46:c6:5f:fa:a8:
         2f:f4:b1:b4:84:ab:b9:cb:47:ef:3f:2b:b7:51:40:61:1d:26:
         46:a5:03:4a:62:19:a9:aa:78:c4:ce:1d:76:7c:af:b9:c3:fa:
         17:b3:8f:b1:29:4f:c4:98:61:72:db:1f:df:58:95:fd:89:66:
         7c:53:de:75:62:30:1a:15:7b:4b:68:1d:8d:23:65:ca:4f:68:
         ef:c4:df:bd:12:61:cf:62:53:42:ba:56:f8:87:89:51:40:b1:
         27:f0:7b:ea:8f:4b:73:14:57:6a:91:1e:f0:02:fc:9b:23:9c:
         07:e9:1a:d0:c6:a4:53:51:54:6c:43:4b:51:5a:bb:20:f8:16:
         50:17:23:1b:71:15:61:22:b4:05:ba:26:e6:64:54:3a:b1:d3:
         04:5e:6e:4b:c1:b5:73:9b:66:f2:72:45:78:72:b5:78:b8:91:
         57:f5:7e:4e:0a:da:7d:dc:bd:ef:1d:ec:76:2d:3d:36:d7:93:
         60:91:94:e1:79:04:42:db:4f:0c:24:66:7c:26:a7:4f:a6:25:
         bd:22:d1:c9:67:aa:d1:79:a5:49:c6:01:3c:1f:17:13:5d:20:
         7d:20:de:0a
-----BEGIN CERTIFICATE-----
MIIDczCCAlugAwIBAgIQI3pGxrwD/X/OuePyqM0yVjANBgkqhkiG9w0BAQsFADAV
MRMwEQYDVQQDDAp0ZWFtNDktbmV0MB4XDTIyMDUxODE0MjIwMFoXDTI1MDUwMjE0
MjIwMFowGDEWMBQGA1UEAwwNdGVhbTQ5LXNlcnZlcjCCASIwDQYJKoZIhvcNAQEB
BQADggEPADCCAQoCggEBAN/GpKiiMMWr86UaNF1LJeDSKnCmEDHysivZYPynH52S
DKjN64aQ3rwRUuHJrr4vknKNQbCcu26irjwiH7C5GjSjkOxb7Rkw6l3+wItiu7ZJ
nNFGwoxWC6Z4+g40vElQi9txCHZXrXxlFqnRWbZTJ8iP097Q54Iyk1LVRd1jMS8Y
0SjVSTJNW4+FICyWZQF9Q8RJ0C1WwLI4XxcKeRWgbyu2B67zQ8DOPfjwutuob6Y7
jVMdNm+hJqhstrpWckqYCl6YkksXm4O61NdKJYHhRuAefVjiFhBMvQBJn9Qtjj82
JNhqnYogSAIUnfFZU/lk3wacNcdwV4vtAw3/Fp3nrBECAwEAAaOBuzCBuDAJBgNV
HRMEAjAAMB0GA1UdDgQWBBR4WGzcDZAaMJgPZKXGCRVXOBza0DBQBgNVHSMESTBH
gBQSMGDB3Yc3y3Zu8eyf7un2Z/Kve6EZpBcwFTETMBEGA1UEAwwKdGVhbTQ5LW5l
dIIUGjAX8eiBOjuBz+vth9Rv3ufiHa4wEwYDVR0lBAwwCgYIKwYBBQUHAwEwCwYD
VR0PBAQDAgWgMBgGA1UdEQQRMA+CDXRlYW00OS1zZXJ2ZXIwDQYJKoZIhvcNAQEL
BQADggEBAAZeNL+VHeOqe9g4H7iqBRR7xRG6tqqegwrEHCtMSkJGxl/6qC/0sbSE
q7nLR+8/K7dRQGEdJkalA0piGamqeMTOHXZ8r7nD+hezj7EpT8SYYXLbH99Ylf2J
ZnxT3nViMBoVe0toHY0jZcpPaO/E370SYc9iU0K6VviHiVFAsSfwe+qPS3MUV2qR
HvAC/JsjnAfpGtDGpFNRVGxDS1FauyD4FlAXIxtxFWEitAW6JuZkVDqx0wRebkvB
tXObZvJyRXhytXi4kVf1fk4K2n3cve8d7HYtPTbXk2CRlOF5BELbTwwkZnwmp0+m
Jb0i0clnqtF5pUnGATwfFxNdIH0g3go=
-----END CERTIFICATE-----
