Certificate:
    Data:
        Version: 3 (0x2)
        Serial Number:
            78:1d:ba:05:d2:ce:e6:37:78:fb:32:7a:2b:ef:24:70
        Signature Algorithm: sha256WithRSAEncryption
        Issuer: CN=team367-net
        Validity
            Not Before: May 18 20:36:42 2022 GMT
            Not After : May  2 20:36:42 2025 GMT
        Subject: CN=team367-client
        Subject Public Key Info:
            Public Key Algorithm: rsaEncryption
                RSA Public-Key: (2048 bit)
                Modulus:
                    00:e1:f4:91:6b:5d:2c:67:39:57:e6:f0:36:f3:a6:
                    84:36:b8:af:d5:65:0a:3a:61:33:e7:e8:c3:de:22:
                    b7:2b:b0:37:8a:9d:b6:01:96:10:16:fb:99:3b:c7:
                    e4:a1:75:d2:e0:5f:8f:42:1d:53:97:be:45:b8:62:
                    f1:c5:51:17:55:8e:a2:e2:66:73:b6:8d:6a:81:78:
                    4d:b8:bc:ec:da:aa:66:47:13:82:a2:97:52:e1:06:
                    b6:54:26:bf:e5:9b:c3:ee:a2:e5:bd:c4:52:c5:72:
                    90:be:d1:7b:46:e7:22:e4:fa:04:a8:4b:81:47:b0:
                    47:5b:d9:75:7a:8f:f4:8f:46:6e:88:ae:b8:f1:00:
                    e8:9e:a3:28:cb:75:43:66:42:8f:b7:49:16:fe:4a:
                    5e:68:9e:f9:53:6a:52:ba:4b:45:1d:eb:eb:73:74:
                    79:16:0b:0f:36:9a:73:b5:0e:51:c4:9e:5e:ec:ea:
                    68:bd:89:af:d1:5b:e9:64:53:9c:d5:9c:d3:0c:b1:
                    14:d9:c2:7c:8c:6e:df:6d:03:0c:b4:39:2e:e3:b4:
                    2a:52:1e:bb:91:c1:cb:7f:b1:2b:4e:f1:b0:3d:e1:
                    ea:56:6e:fc:bf:1b:40:9b:ca:86:f7:58:d1:14:3f:
                    98:c5:cf:f7:a3:de:fb:7f:80:1f:ec:a0:ee:e9:dd:
                    cf:dd
                Exponent: 65537 (0x10001)
        X509v3 extensions:
            X509v3 Basic Constraints: 
                CA:FALSE
            X509v3 Subject Key Identifier: 
                3E:BA:05:1C:40:38:A3:81:37:1C:5A:B4:AD:43:51:5F:66:87:57:F6
            X509v3 Authority Key Identifier: 
                keyid:D0:41:8F:1C:7A:4C:6E:24:CB:5E:A2:F6:88:31:3C:F2:FD:EF:4F:B5
                DirName:/CN=team367-net
                serial:60:F3:17:3A:96:7B:70:34:D5:BA:B9:5C:5C:43:67:52:AA:22:63:A2

            X509v3 Extended Key Usage: 
                TLS Web Client Authentication
            X509v3 Key Usage: 
                Digital Signature
    Signature Algorithm: sha256WithRSAEncryption
         09:ff:bb:48:7b:29:aa:8e:71:50:d2:ad:9f:57:5d:84:4a:02:
         0e:e8:01:cd:8e:88:dd:bb:cf:fa:4a:8e:8a:ec:24:a4:ac:0b:
         df:15:90:b3:2b:72:e1:fa:0a:7c:b4:a0:2a:3f:65:11:d5:1f:
         15:fe:8b:48:8c:49:40:3b:c4:fd:8e:18:22:c1:36:51:04:8e:
         8e:ee:6f:2f:6f:25:35:7b:c9:6e:f5:00:f6:67:71:c6:b9:6a:
         34:94:7f:98:8c:9c:d7:af:a8:42:6f:81:6f:25:ff:77:b0:eb:
         6e:fd:22:0f:ca:d9:cf:5e:ab:5c:dc:0d:72:a2:8e:d9:c7:84:
         10:bd:35:01:e7:38:89:17:1e:13:7b:1e:7d:bb:bb:4b:5a:72:
         8e:71:ba:1e:81:47:61:d9:b7:b6:44:a7:e0:d9:4c:6b:91:e4:
         9a:63:a3:51:71:fd:c3:5a:37:e3:a2:9b:44:8c:03:0d:5a:70:
         59:fc:60:2b:89:7d:61:bd:f7:a3:7d:c8:7b:b1:2f:8a:10:82:
         f7:a4:96:ce:ee:5a:5e:a5:3a:55:9d:64:94:00:5f:04:60:a1:
         be:38:59:85:9c:1a:60:b7:cb:b0:1c:94:28:8b:1f:2e:2a:25:
         44:d5:14:42:2f:0f:18:db:6f:7c:01:d8:b4:b3:6c:a9:63:42:
         5b:3f:43:1d
-----BEGIN CERTIFICATE-----
MIIDXDCCAkSgAwIBAgIQeB26BdLO5jd4+zJ6K+8kcDANBgkqhkiG9w0BAQsFADAW
MRQwEgYDVQQDDAt0ZWFtMzY3LW5ldDAeFw0yMjA1MTgyMDM2NDJaFw0yNTA1MDIy
MDM2NDJaMBkxFzAVBgNVBAMMDnRlYW0zNjctY2xpZW50MIIBIjANBgkqhkiG9w0B
AQEFAAOCAQ8AMIIBCgKCAQEA4fSRa10sZzlX5vA286aENriv1WUKOmEz5+jD3iK3
K7A3ip22AZYQFvuZO8fkoXXS4F+PQh1Tl75FuGLxxVEXVY6i4mZzto1qgXhNuLzs
2qpmRxOCopdS4Qa2VCa/5ZvD7qLlvcRSxXKQvtF7Ruci5PoEqEuBR7BHW9l1eo/0
j0ZuiK648QDonqMoy3VDZkKPt0kW/kpeaJ75U2pSuktFHevrc3R5FgsPNppztQ5R
xJ5e7OpovYmv0VvpZFOc1ZzTDLEU2cJ8jG7fbQMMtDku47QqUh67kcHLf7ErTvGw
PeHqVm78vxtAm8qG91jRFD+Yxc/3o977f4Af7KDu6d3P3QIDAQABo4GiMIGfMAkG
A1UdEwQCMAAwHQYDVR0OBBYEFD66BRxAOKOBNxxatK1DUV9mh1f2MFEGA1UdIwRK
MEiAFNBBjxx6TG4ky16i9ogxPPL970+1oRqkGDAWMRQwEgYDVQQDDAt0ZWFtMzY3
LW5ldIIUYPMXOpZ7cDTVurlcXENnUqoiY6IwEwYDVR0lBAwwCgYIKwYBBQUHAwIw
CwYDVR0PBAQDAgeAMA0GCSqGSIb3DQEBCwUAA4IBAQAJ/7tIeymqjnFQ0q2fV12E
SgIO6AHNjojdu8/6So6K7CSkrAvfFZCzK3Lh+gp8tKAqP2UR1R8V/otIjElAO8T9
jhgiwTZRBI6O7m8vbyU1e8lu9QD2Z3HGuWo0lH+YjJzXr6hCb4FvJf93sOtu/SIP
ytnPXqtc3A1yoo7Zx4QQvTUB5ziJFx4Tex59u7tLWnKOcboegUdh2be2RKfg2Uxr
keSaY6NRcf3DWjfjoptEjAMNWnBZ/GAriX1hvfejfch7sS+KEIL3pJbO7lpepTpV
nWSUAF8EYKG+OFmFnBpgt8uwHJQoix8uKiVE1RRCLw8Y2298Adi0s2ypY0JbP0Md
-----END CERTIFICATE-----
