Certificate:
    Data:
        Version: 3 (0x2)
        Serial Number:
            4c:7e:d0:08:ad:13:bb:73:f4:b7:66:82:16:9b:0f:28
        Signature Algorithm: sha256WithRSAEncryption
        Issuer: CN=team94-net
        Validity
            Not Before: May 18 14:46:03 2022 GMT
            Not After : May  2 14:46:03 2025 GMT
        Subject: CN=team94-server
        Subject Public Key Info:
            Public Key Algorithm: rsaEncryption
                RSA Public-Key: (2048 bit)
                Modulus:
                    00:f1:03:b6:e5:e5:dd:5e:91:c5:62:86:84:5d:05:
                    86:c6:55:34:09:5f:f1:6e:0e:dc:cb:1e:ee:2a:5f:
                    0e:85:16:6b:0c:07:18:dd:0e:73:3d:42:ed:4b:e3:
                    e2:35:a7:54:fd:b3:23:de:9c:5d:e5:5f:18:9b:d0:
                    af:b2:bf:19:d8:31:a6:5d:9d:a9:cc:82:69:73:fe:
                    15:26:98:92:29:ef:1b:3d:50:68:ad:da:de:e7:10:
                    5f:14:6c:62:01:f0:1c:b1:03:e1:a8:3c:54:9a:9d:
                    44:85:27:ca:5d:34:12:bc:58:55:fb:a7:5f:04:95:
                    61:97:29:e3:1a:35:cd:b0:85:6a:ea:2b:95:59:5e:
                    94:52:90:5a:11:10:84:ea:71:4e:2a:df:5e:de:ff:
                    9a:f4:16:d4:7b:97:91:16:c9:5a:f2:28:ba:64:d4:
                    a0:97:09:9f:3d:ad:a4:de:bc:73:dc:0a:b4:77:ed:
                    e9:e1:5a:16:ed:13:40:15:31:63:a1:67:12:5e:a5:
                    3b:e2:1f:9f:a1:4e:45:62:4e:f9:6c:d0:f2:c7:b7:
                    be:87:d1:5e:7e:7c:ad:3f:8c:d7:6f:19:e9:d8:78:
                    96:58:e5:c9:eb:0f:2e:2b:30:33:f9:58:1a:dd:7e:
                    1a:d8:7c:6b:ce:49:11:57:34:a3:a3:72:7c:4d:b2:
                    25:1b
                Exponent: 65537 (0x10001)
        X509v3 extensions:
            X509v3 Basic Constraints: 
                CA:FALSE
            X509v3 Subject Key Identifier: 
                D3:CE:9F:B6:11:4E:2E:60:DB:42:0C:58:07:56:99:FB:4A:BC:1F:2A
            X509v3 Authority Key Identifier: 
                keyid:C0:CC:A3:9C:10:30:9C:AF:61:F7:FE:E3:8E:17:74:7F:90:42:A0:4B
                DirName:/CN=team94-net
                serial:0E:60:DA:25:31:1C:28:69:C6:98:5D:82:09:F7:7D:26:58:7C:FE:05

            X509v3 Extended Key Usage: 
                TLS Web Server Authentication
            X509v3 Key Usage: 
                Digital Signature, Key Encipherment
            X509v3 Subject Alternative Name: 
                DNS:team94-server
    Signature Algorithm: sha256WithRSAEncryption
         22:d8:f1:a3:59:11:dc:a7:3c:51:d7:40:0f:53:c5:00:0c:df:
         64:55:5a:25:d9:91:db:ef:ed:93:f9:4a:9e:bd:0d:cc:4c:1e:
         73:a4:0e:69:6a:39:35:34:42:f2:e3:5c:d6:93:e2:de:32:f1:
         52:b6:cd:50:d7:e8:3a:14:9f:df:c5:ad:9f:ac:84:6a:06:85:
         15:4b:94:de:ea:97:8b:ee:62:9d:53:9a:69:b2:1f:17:8a:c1:
         3d:24:ce:32:24:83:72:1e:6d:18:53:73:ab:a5:30:7d:6a:84:
         8e:d6:d8:aa:3a:c9:da:f2:2d:8e:df:55:9d:d3:46:22:d7:c8:
         97:c4:98:a8:82:0f:30:41:eb:5b:e4:8d:41:07:69:40:a1:a3:
         b2:3d:15:34:c9:f2:82:e4:e0:6b:68:21:70:94:c3:ba:a7:f7:
         ed:33:d9:9a:dd:4a:a3:0a:3a:ac:c4:61:29:3c:7f:21:0c:b9:
         2c:6c:ae:c5:a5:18:bc:25:83:e1:6d:aa:8e:42:6d:e4:d6:73:
         6f:f1:9b:e0:7d:96:24:03:9a:eb:73:6d:54:e1:36:fc:54:93:
         ae:aa:55:b8:5a:3b:5a:5a:78:1a:ba:dc:44:22:27:ec:0b:82:
         08:7a:98:7c:84:50:1b:55:c7:3c:22:d8:7d:86:44:9b:e4:62:
         08:49:fc:84
-----BEGIN CERTIFICATE-----
MIIDczCCAlugAwIBAgIQTH7QCK0Tu3P0t2aCFpsPKDANBgkqhkiG9w0BAQsFADAV
MRMwEQYDVQQDDAp0ZWFtOTQtbmV0MB4XDTIyMDUxODE0NDYwM1oXDTI1MDUwMjE0
NDYwM1owGDEWMBQGA1UEAwwNdGVhbTk0LXNlcnZlcjCCASIwDQYJKoZIhvcNAQEB
BQADggEPADCCAQoCggEBAPEDtuXl3V6RxWKGhF0FhsZVNAlf8W4O3Mse7ipfDoUW
awwHGN0Ocz1C7Uvj4jWnVP2zI96cXeVfGJvQr7K/Gdgxpl2dqcyCaXP+FSaYkinv
Gz1QaK3a3ucQXxRsYgHwHLED4ag8VJqdRIUnyl00ErxYVfunXwSVYZcp4xo1zbCF
auorlVlelFKQWhEQhOpxTirfXt7/mvQW1HuXkRbJWvIoumTUoJcJnz2tpN68c9wK
tHft6eFaFu0TQBUxY6FnEl6lO+Ifn6FORWJO+WzQ8se3vofRXn58rT+M128Z6dh4
lljlyesPLiswM/lYGt1+Gth8a85JEVc0o6NyfE2yJRsCAwEAAaOBuzCBuDAJBgNV
HRMEAjAAMB0GA1UdDgQWBBTTzp+2EU4uYNtCDFgHVpn7SrwfKjBQBgNVHSMESTBH
gBTAzKOcEDCcr2H3/uOOF3R/kEKgS6EZpBcwFTETMBEGA1UEAwwKdGVhbTk0LW5l
dIIUDmDaJTEcKGnGmF2CCfd9Jlh8/gUwEwYDVR0lBAwwCgYIKwYBBQUHAwEwCwYD
VR0PBAQDAgWgMBgGA1UdEQQRMA+CDXRlYW05NC1zZXJ2ZXIwDQYJKoZIhvcNAQEL
BQADggEBACLY8aNZEdynPFHXQA9TxQAM32RVWiXZkdvv7ZP5Sp69DcxMHnOkDmlq
OTU0QvLjXNaT4t4y8VK2zVDX6DoUn9/FrZ+shGoGhRVLlN7ql4vuYp1TmmmyHxeK
wT0kzjIkg3IebRhTc6ulMH1qhI7W2Ko6ydryLY7fVZ3TRiLXyJfEmKiCDzBB61vk
jUEHaUCho7I9FTTJ8oLk4GtoIXCUw7qn9+0z2ZrdSqMKOqzEYSk8fyEMuSxsrsWl
GLwlg+Ftqo5CbeTWc2/xm+B9liQDmutzbVThNvxUk66qVbhaO1paeBq63EQiJ+wL
ggh6mHyEUBtVxzwi2H2GRJvkYghJ/IQ=
-----END CERTIFICATE-----
