Certificate:
    Data:
        Version: 3 (0x2)
        Serial Number:
            f3:a4:b8:f8:09:31:07:49:74:b4:da:96:f0:44:62:cc
        Signature Algorithm: sha256WithRSAEncryption
        Issuer: CN=team94-net
        Validity
            Not Before: May 18 14:46:03 2022 GMT
            Not After : May  2 14:46:03 2025 GMT
        Subject: CN=team94-client
        Subject Public Key Info:
            Public Key Algorithm: rsaEncryption
                RSA Public-Key: (2048 bit)
                Modulus:
                    00:a3:cf:d2:23:8e:2a:bb:00:38:f4:96:98:bb:78:
                    84:1a:c8:c4:f5:a3:4e:42:12:9b:b3:67:8c:74:c6:
                    47:62:f1:6b:74:bd:cf:21:89:83:80:7b:ec:52:76:
                    80:ab:f9:b7:0f:df:58:bf:b2:47:a4:48:93:8a:2c:
                    4c:c9:78:af:bf:10:dd:39:95:4b:a5:6b:a1:2e:3c:
                    7e:ba:ad:51:2b:f3:1e:33:74:5c:e4:45:be:0e:57:
                    44:1e:5b:87:53:66:3d:ad:33:82:68:5c:bf:9f:56:
                    b1:d1:d6:70:f1:a1:12:3c:6e:91:79:39:5f:40:ee:
                    b0:07:4e:f6:d5:5f:10:54:bd:7d:72:16:63:7c:51:
                    fe:ab:1d:1a:07:15:61:45:7e:b3:2c:a4:9f:8d:e5:
                    36:6e:13:32:0b:47:2f:ce:65:5e:d8:7f:07:9f:ff:
                    41:90:37:e3:1b:a1:10:8d:24:98:9e:54:7e:eb:ba:
                    0c:c0:71:ca:5c:14:ca:87:f8:37:67:5f:1d:f6:d5:
                    4b:af:5d:79:69:c9:82:dc:0b:50:69:bc:b9:7c:c0:
                    10:d6:16:e4:37:92:90:57:47:43:60:10:91:27:1f:
                    32:21:bb:63:fc:bd:2f:95:4c:ef:2e:80:22:cb:3d:
                    40:b4:2c:d8:af:48:b5:f0:45:60:03:10:40:0f:c7:
                    4d:11
                Exponent: 65537 (0x10001)
        X509v3 extensions:
            X509v3 Basic Constraints: 
                CA:FALSE
            X509v3 Subject Key Identifier: 
                A0:46:E4:7A:B1:4B:78:7E:A8:66:DE:8D:5D:E7:07:B3:00:C4:91:52
            X509v3 Authority Key Identifier: 
                keyid:C0:CC:A3:9C:10:30:9C:AF:61:F7:FE:E3:8E:17:74:7F:90:42:A0:4B
                DirName:/CN=team94-net
                serial:0E:60:DA:25:31:1C:28:69:C6:98:5D:82:09:F7:7D:26:58:7C:FE:05

            X509v3 Extended Key Usage: 
                TLS Web Client Authentication
            X509v3 Key Usage: 
                Digital Signature
    Signature Algorithm: sha256WithRSAEncryption
         12:a5:b7:b1:53:4e:05:e9:62:eb:21:8d:86:93:d4:74:f8:60:
         7b:2e:3f:c9:67:88:cb:1f:4f:b1:fd:13:62:f4:60:85:d2:83:
         66:00:4d:12:ee:48:fe:f8:1c:c4:67:a1:15:9b:f5:4f:6a:60:
         44:a1:d8:07:b5:f8:0c:9c:4f:41:8a:da:03:9e:79:c5:99:97:
         24:b5:c3:ac:86:8e:1b:67:b1:39:c8:6e:e5:e2:f7:97:43:d5:
         06:16:1f:88:5c:bb:8e:b9:17:fe:5f:02:a4:89:b8:a4:c0:54:
         a9:fb:bb:11:5d:3e:12:3c:d4:b4:3b:61:5d:74:a8:52:70:c0:
         d9:37:9b:a9:75:81:a9:e3:5a:70:c6:62:26:4e:e4:8b:44:1b:
         cf:72:34:06:ec:7e:bf:ff:bd:25:f6:3e:2a:22:d6:eb:28:f9:
         00:01:4f:da:d5:fc:e7:ed:7d:4e:5c:03:b1:36:72:d3:d6:ea:
         32:ab:e9:12:f6:07:09:34:ba:6a:01:e4:71:ea:33:6c:c3:c3:
         1c:58:94:48:f9:e1:09:9c:ed:a0:3a:05:60:d1:eb:63:8c:df:
         4e:09:ad:b6:ed:39:f4:7f:ba:64:ed:b5:30:27:50:37:c1:e7:
         19:b5:a5:66:5b:8e:cb:32:e4:3a:ae:8f:54:30:d4:12:e1:95:
         29:77:d9:74
-----BEGIN CERTIFICATE-----
MIIDWjCCAkKgAwIBAgIRAPOkuPgJMQdJdLTalvBEYswwDQYJKoZIhvcNAQELBQAw
FTETMBEGA1UEAwwKdGVhbTk0LW5ldDAeFw0yMjA1MTgxNDQ2MDNaFw0yNTA1MDIx
NDQ2MDNaMBgxFjAUBgNVBAMMDXRlYW05NC1jbGllbnQwggEiMA0GCSqGSIb3DQEB
AQUAA4IBDwAwggEKAoIBAQCjz9Ijjiq7ADj0lpi7eIQayMT1o05CEpuzZ4x0xkdi
8Wt0vc8hiYOAe+xSdoCr+bcP31i/skekSJOKLEzJeK+/EN05lUula6EuPH66rVEr
8x4zdFzkRb4OV0QeW4dTZj2tM4JoXL+fVrHR1nDxoRI8bpF5OV9A7rAHTvbVXxBU
vX1yFmN8Uf6rHRoHFWFFfrMspJ+N5TZuEzILRy/OZV7Yfwef/0GQN+MboRCNJJie
VH7rugzAccpcFMqH+DdnXx321UuvXXlpyYLcC1BpvLl8wBDWFuQ3kpBXR0NgEJEn
HzIhu2P8vS+VTO8ugCLLPUC0LNivSLXwRWADEEAPx00RAgMBAAGjgaEwgZ4wCQYD
VR0TBAIwADAdBgNVHQ4EFgQUoEbkerFLeH6oZt6NXecHswDEkVIwUAYDVR0jBEkw
R4AUwMyjnBAwnK9h9/7jjhd0f5BCoEuhGaQXMBUxEzARBgNVBAMMCnRlYW05NC1u
ZXSCFA5g2iUxHChpxphdggn3fSZYfP4FMBMGA1UdJQQMMAoGCCsGAQUFBwMCMAsG
A1UdDwQEAwIHgDANBgkqhkiG9w0BAQsFAAOCAQEAEqW3sVNOBeli6yGNhpPUdPhg
ey4/yWeIyx9Psf0TYvRghdKDZgBNEu5I/vgcxGehFZv1T2pgRKHYB7X4DJxPQYra
A555xZmXJLXDrIaOG2exOchu5eL3l0PVBhYfiFy7jrkX/l8CpIm4pMBUqfu7EV0+
EjzUtDthXXSoUnDA2TebqXWBqeNacMZiJk7ki0Qbz3I0Bux+v/+9JfY+KiLW6yj5
AAFP2tX85+19TlwDsTZy09bqMqvpEvYHCTS6agHkceozbMPDHFiUSPnhCZztoDoF
YNHrY4zfTgmttu059H+6ZO21MCdQN8HnGbWlZluOyzLkOq6PVDDUEuGVKXfZdA==
-----END CERTIFICATE-----
