Certificate:
    Data:
        Version: 3 (0x2)
        Serial Number:
            01:e4:29:35:1f:bd:f5:81:0e:dd:90:6e:cd:5c:13:fb
        Signature Algorithm: sha256WithRSAEncryption
        Issuer: CN=team451-net
        Validity
            Not Before: May 18 21:23:27 2022 GMT
            Not After : May  2 21:23:27 2025 GMT
        Subject: CN=team451-client
        Subject Public Key Info:
            Public Key Algorithm: rsaEncryption
                RSA Public-Key: (2048 bit)
                Modulus:
                    00:ce:fc:08:a2:a8:24:c9:94:d5:48:a9:ef:e3:00:
                    ca:eb:32:59:d0:db:f4:12:1b:24:08:71:be:18:4b:
                    56:d9:37:43:77:3f:c4:ef:cb:dd:aa:cf:35:5a:85:
                    49:34:e3:51:ac:de:08:fe:de:93:32:09:1b:59:38:
                    1b:5f:25:9d:a2:d9:2d:96:97:8b:05:39:54:0a:c0:
                    28:a5:2a:22:0a:0a:86:84:2c:16:68:c3:a2:1d:ba:
                    0d:3e:57:8a:b3:76:09:3a:8c:b2:81:9e:22:c7:c7:
                    7d:fb:ec:9d:09:cb:e3:0c:61:2a:76:39:98:0e:9e:
                    02:de:41:90:55:43:71:26:13:65:7d:ef:e8:18:c9:
                    5e:30:40:57:9b:51:5f:67:de:f2:13:54:c5:a2:07:
                    3f:4f:99:83:a7:a4:c9:59:15:fe:ca:4c:b2:44:1c:
                    ac:4e:61:01:07:99:dd:77:0b:81:5a:6a:e5:4a:ca:
                    de:cc:a6:db:6a:6d:40:bd:d8:c7:b7:eb:e9:9d:94:
                    a3:b7:06:93:85:df:bf:ed:21:94:61:52:85:5b:f2:
                    2b:6c:b2:ae:3a:83:93:a5:12:da:94:e4:cf:a6:66:
                    42:2f:df:61:fe:5b:89:65:a9:62:fe:ab:e0:4c:06:
                    17:e9:03:bc:9b:56:9e:30:63:15:b8:d8:6b:46:5e:
                    3e:a7
                Exponent: 65537 (0x10001)
        X509v3 extensions:
            X509v3 Basic Constraints: 
                CA:FALSE
            X509v3 Subject Key Identifier: 
                1C:9E:41:57:E0:53:55:CC:88:82:E9:FF:3F:CF:07:F2:2A:AF:17:89
            X509v3 Authority Key Identifier: 
                keyid:01:8A:C5:CD:18:BE:6E:BC:BB:78:9A:60:A3:61:DA:F0:0C:C3:CF:FE
                DirName:/CN=team451-net
                serial:22:AD:D9:1C:A6:79:B0:1C:B2:CB:8D:BA:BB:CF:52:96:93:D7:2B:5A

            X509v3 Extended Key Usage: 
                TLS Web Client Authentication
            X509v3 Key Usage: 
                Digital Signature
    Signature Algorithm: sha256WithRSAEncryption
         74:e0:fd:11:1d:0c:57:fb:51:5c:02:c2:40:de:cd:95:5e:2a:
         dc:50:7d:c0:cf:e4:c0:b0:cd:bd:1a:33:d9:c4:e9:4e:dc:40:
         77:af:e2:5a:57:91:b9:0a:9a:a2:26:58:87:87:43:94:21:0c:
         b0:a1:fc:15:7f:56:40:3d:d1:48:18:2d:f4:ff:3b:ca:fa:fb:
         41:c4:a6:53:88:60:03:7d:3b:92:c0:19:a0:39:49:e8:6a:f2:
         2c:f8:f0:d5:ad:02:4f:bd:39:89:da:a0:5a:e4:29:70:af:1c:
         47:af:55:e5:d2:87:4b:b7:c5:0e:6f:52:f8:d8:76:a6:a5:b2:
         74:83:9d:a7:27:7f:4b:8b:4e:91:29:47:1b:29:94:7a:6b:78:
         9a:19:0e:70:9b:a3:a0:ac:61:f0:ef:d7:80:66:19:90:cd:70:
         92:b4:51:df:fd:d6:ca:ec:a1:6f:f3:16:6e:8e:0b:7f:66:7f:
         a7:cf:eb:0f:ea:04:82:b6:15:92:71:a8:74:6a:c2:64:c1:60:
         0c:15:7e:a4:34:1b:28:77:29:22:e6:47:d1:d7:98:1c:45:8e:
         b8:f4:f9:fa:45:da:20:75:17:70:0c:37:f4:a4:ff:15:b8:17:
         d9:33:8f:75:2a:23:59:ee:04:d1:08:66:c3:7b:83:a9:db:45:
         a9:16:cf:ee
-----BEGIN CERTIFICATE-----
MIIDXDCCAkSgAwIBAgIQAeQpNR+99YEO3ZBuzVwT+zANBgkqhkiG9w0BAQsFADAW
MRQwEgYDVQQDDAt0ZWFtNDUxLW5ldDAeFw0yMjA1MTgyMTIzMjdaFw0yNTA1MDIy
MTIzMjdaMBkxFzAVBgNVBAMMDnRlYW00NTEtY2xpZW50MIIBIjANBgkqhkiG9w0B
AQEFAAOCAQ8AMIIBCgKCAQEAzvwIoqgkyZTVSKnv4wDK6zJZ0Nv0EhskCHG+GEtW
2TdDdz/E78vdqs81WoVJNONRrN4I/t6TMgkbWTgbXyWdotktlpeLBTlUCsAopSoi
CgqGhCwWaMOiHboNPleKs3YJOoyygZ4ix8d9++ydCcvjDGEqdjmYDp4C3kGQVUNx
JhNlfe/oGMleMEBXm1FfZ97yE1TFogc/T5mDp6TJWRX+ykyyRBysTmEBB5nddwuB
WmrlSsrezKbbam1AvdjHt+vpnZSjtwaThd+/7SGUYVKFW/IrbLKuOoOTpRLalOTP
pmZCL99h/luJZali/qvgTAYX6QO8m1aeMGMVuNhrRl4+pwIDAQABo4GiMIGfMAkG
A1UdEwQCMAAwHQYDVR0OBBYEFByeQVfgU1XMiILp/z/PB/IqrxeJMFEGA1UdIwRK
MEiAFAGKxc0Yvm68u3iaYKNh2vAMw8/+oRqkGDAWMRQwEgYDVQQDDAt0ZWFtNDUx
LW5ldIIUIq3ZHKZ5sByyy426u89SlpPXK1owEwYDVR0lBAwwCgYIKwYBBQUHAwIw
CwYDVR0PBAQDAgeAMA0GCSqGSIb3DQEBCwUAA4IBAQB04P0RHQxX+1FcAsJA3s2V
XircUH3Az+TAsM29GjPZxOlO3EB3r+JaV5G5CpqiJliHh0OUIQywofwVf1ZAPdFI
GC30/zvK+vtBxKZTiGADfTuSwBmgOUnoavIs+PDVrQJPvTmJ2qBa5ClwrxxHr1Xl
0odLt8UOb1L42HampbJ0g52nJ39Li06RKUcbKZR6a3iaGQ5wm6OgrGHw79eAZhmQ
zXCStFHf/dbK7KFv8xZujgt/Zn+nz+sP6gSCthWScah0asJkwWAMFX6kNBsodyki
5kfR15gcRY649Pn6RdogdRdwDDf0pP8VuBfZM491KiNZ7gTRCGbDe4Op20WpFs/u
-----END CERTIFICATE-----
