Certificate:
    Data:
        Version: 3 (0x2)
        Serial Number:
            48:21:af:7d:f0:9b:bc:ab:a6:f5:d1:c0:b0:41:ef:0f
        Signature Algorithm: sha256WithRSAEncryption
        Issuer: CN=team169-net
        Validity
            Not Before: May 18 18:46:05 2022 GMT
            Not After : May  2 18:46:05 2025 GMT
        Subject: CN=team169-server
        Subject Public Key Info:
            Public Key Algorithm: rsaEncryption
                RSA Public-Key: (2048 bit)
                Modulus:
                    00:b9:3f:26:41:bf:e2:86:7f:61:35:47:c7:95:41:
                    62:96:ae:aa:80:a9:9e:cc:5a:e8:51:de:5e:b4:8f:
                    30:f1:8b:35:c2:b9:66:16:ea:12:bd:d6:07:ad:56:
                    4a:2a:0c:b7:76:6d:27:8b:9e:b0:91:60:a1:10:6f:
                    e1:c9:a0:21:52:31:76:4d:c5:d9:e0:74:2f:36:ec:
                    83:2d:80:2c:cc:85:fe:ee:97:15:29:0c:81:82:cd:
                    7f:3f:a9:39:51:41:a6:ca:6b:dd:69:6a:2a:ad:c9:
                    64:f2:4d:2f:a6:92:0e:a8:35:54:d9:01:4e:fb:02:
                    01:41:58:56:cf:39:7a:b2:a6:1d:3f:d5:53:80:f9:
                    57:28:32:ae:05:46:b3:7b:4e:fa:3e:bf:b5:af:36:
                    04:fe:be:26:b6:d2:3a:86:54:40:f3:94:f8:d1:9c:
                    fb:89:98:37:45:c5:63:8d:39:f5:2e:d4:c7:0d:71:
                    3f:62:01:2f:1c:df:dd:5c:97:90:ea:35:ab:dc:8b:
                    e7:47:a8:39:86:97:97:02:3f:f7:2a:0a:34:55:16:
                    0d:ea:14:1e:d5:25:b9:19:a1:9d:c6:7e:79:f0:ac:
                    de:76:93:1d:6e:69:41:b5:e8:a8:ae:da:e9:c9:86:
                    a3:52:c7:ad:75:80:a0:3b:3e:f2:d6:e6:84:77:cf:
                    1e:8d
                Exponent: 65537 (0x10001)
        X509v3 extensions:
            X509v3 Basic Constraints: 
                CA:FALSE
            X509v3 Subject Key Identifier: 
                E3:EF:EF:FF:71:62:5B:C2:96:1D:61:83:C6:88:C8:1F:97:23:3E:24
            X509v3 Authority Key Identifier: 
                keyid:D8:CB:5C:54:E3:C9:E8:9F:4F:DD:FD:AB:6E:A3:E7:3D:54:04:37:E9
                DirName:/CN=team169-net
                serial:2F:67:45:37:4E:CE:B8:1B:6A:97:4E:EF:EF:1B:FC:06:ED:EB:6F:14

            X509v3 Extended Key Usage: 
                TLS Web Server Authentication
            X509v3 Key Usage: 
                Digital Signature, Key Encipherment
            X509v3 Subject Alternative Name: 
                DNS:team169-server
    Signature Algorithm: sha256WithRSAEncryption
         12:53:e6:4a:f7:c1:95:20:43:2c:d6:29:d1:36:dd:5d:69:5a:
         77:03:eb:3b:fd:b4:46:b5:c0:4a:e6:e7:06:79:17:7b:74:9b:
         f0:9c:51:2e:c1:b5:35:71:26:4b:71:e3:4b:e7:b2:67:cc:64:
         ae:5b:4e:f6:f8:fe:8e:26:57:88:d9:51:79:db:da:28:f9:5d:
         b4:b8:54:17:04:18:02:d2:c7:4b:98:08:24:66:64:5e:60:0b:
         0e:e0:c1:3a:3d:14:1c:fb:38:05:46:e6:59:ab:24:02:03:57:
         4d:06:f9:fa:76:27:18:b4:5d:ae:cd:18:01:00:bb:29:66:ef:
         33:54:51:85:c0:f2:b4:e0:be:14:29:08:95:72:1b:70:84:64:
         f5:9e:59:dc:1c:0f:fc:c7:e5:fb:1a:2a:4a:2a:40:df:d5:49:
         3e:e4:6e:c6:d2:74:4a:57:f5:05:85:ca:37:31:0b:2c:70:48:
         08:5f:dc:c3:e1:3b:b8:1b:d7:39:9d:aa:70:3a:af:9b:cf:f7:
         43:25:97:bc:f2:12:b3:96:7a:40:23:88:4a:c3:f6:fe:63:25:
         dc:14:cf:a0:ad:a9:96:f0:2d:18:2a:43:22:dc:2b:81:30:7b:
         32:57:16:d9:28:45:10:ac:5a:49:a9:75:05:e9:cf:94:c6:bb:
         7a:7f:15:d6
-----BEGIN CERTIFICATE-----
MIIDdzCCAl+gAwIBAgIQSCGvffCbvKum9dHAsEHvDzANBgkqhkiG9w0BAQsFADAW
MRQwEgYDVQQDDAt0ZWFtMTY5LW5ldDAeFw0yMjA1MTgxODQ2MDVaFw0yNTA1MDIx
ODQ2MDVaMBkxFzAVBgNVBAMMDnRlYW0xNjktc2VydmVyMIIBIjANBgkqhkiG9w0B
AQEFAAOCAQ8AMIIBCgKCAQEAuT8mQb/ihn9hNUfHlUFilq6qgKmezFroUd5etI8w
8Ys1wrlmFuoSvdYHrVZKKgy3dm0ni56wkWChEG/hyaAhUjF2TcXZ4HQvNuyDLYAs
zIX+7pcVKQyBgs1/P6k5UUGmymvdaWoqrclk8k0vppIOqDVU2QFO+wIBQVhWzzl6
sqYdP9VTgPlXKDKuBUaze076Pr+1rzYE/r4mttI6hlRA85T40Zz7iZg3RcVjjTn1
LtTHDXE/YgEvHN/dXJeQ6jWr3IvnR6g5hpeXAj/3Kgo0VRYN6hQe1SW5GaGdxn55
8KzedpMdbmlBteiortrpyYajUsetdYCgOz7y1uaEd88ejQIDAQABo4G9MIG6MAkG
A1UdEwQCMAAwHQYDVR0OBBYEFOPv7/9xYlvClh1hg8aIyB+XIz4kMFEGA1UdIwRK
MEiAFNjLXFTjyeifT939q26j5z1UBDfpoRqkGDAWMRQwEgYDVQQDDAt0ZWFtMTY5
LW5ldIIUL2dFN07OuBtql07v7xv8Bu3rbxQwEwYDVR0lBAwwCgYIKwYBBQUHAwEw
CwYDVR0PBAQDAgWgMBkGA1UdEQQSMBCCDnRlYW0xNjktc2VydmVyMA0GCSqGSIb3
DQEBCwUAA4IBAQASU+ZK98GVIEMs1inRNt1daVp3A+s7/bRGtcBK5ucGeRd7dJvw
nFEuwbU1cSZLceNL57JnzGSuW072+P6OJleI2VF529oo+V20uFQXBBgC0sdLmAgk
ZmReYAsO4ME6PRQc+zgFRuZZqyQCA1dNBvn6dicYtF2uzRgBALspZu8zVFGFwPK0
4L4UKQiVchtwhGT1nlncHA/8x+X7GipKKkDf1Uk+5G7G0nRKV/UFhco3MQsscEgI
X9zD4Tu4G9c5napwOq+bz/dDJZe88hKzlnpAI4hKw/b+YyXcFM+gramW8C0YKkMi
3CuBMHsyVxbZKEUQrFpJqXUF6c+Uxrt6fxXW
-----END CERTIFICATE-----
