Certificate:
    Data:
        Version: 3 (0x2)
        Serial Number:
            3d:59:1b:eb:cb:fb:70:7c:50:61:38:bd:1b:70:91:00
        Signature Algorithm: sha256WithRSAEncryption
        Issuer: CN=team578-net
        Validity
            Not Before: May 18 22:33:32 2022 GMT
            Not After : May  2 22:33:32 2025 GMT
        Subject: CN=team578-server
        Subject Public Key Info:
            Public Key Algorithm: rsaEncryption
                RSA Public-Key: (2048 bit)
                Modulus:
                    00:b6:25:77:db:4b:e6:00:7a:b7:f7:7a:43:1b:e3:
                    2c:e9:86:79:40:3a:80:1f:a6:84:82:50:38:a1:de:
                    38:11:10:ee:88:4a:f4:87:a4:f5:1e:25:67:c1:dd:
                    1c:e4:4b:8f:5b:b7:7b:08:71:33:af:cc:ba:85:8e:
                    38:e9:98:ad:20:12:59:a1:b4:05:fc:55:73:19:0b:
                    38:ab:04:4b:98:b7:aa:b5:26:6b:59:8c:5e:95:1b:
                    17:38:c4:41:2a:69:00:7e:e5:ff:4c:b3:a6:81:a3:
                    b0:12:36:30:a8:5f:4f:f3:35:b5:d4:a3:dc:9c:c2:
                    c0:20:ea:24:c0:66:18:cd:46:9f:8f:d6:e6:e6:15:
                    87:63:8f:c8:ff:ed:0c:ed:3e:7e:0c:d1:98:81:ce:
                    a6:59:6a:0e:a7:30:ce:84:0e:15:f5:96:53:7d:ec:
                    44:71:d9:1a:e9:c7:f0:5c:db:c3:a2:68:aa:df:c4:
                    96:8a:60:87:4d:b5:8e:74:43:02:b4:1a:ca:64:f6:
                    5c:5e:9b:c8:96:ef:99:1c:a2:c1:48:87:89:c2:0e:
                    df:ec:7a:58:e5:d6:94:3d:a7:30:6a:b1:7c:32:22:
                    3a:f2:36:4c:a0:fb:88:42:47:a7:2f:ac:28:3b:85:
                    cd:d4:06:0f:fe:b8:72:f5:ca:26:69:b7:e4:e3:00:
                    62:d3
                Exponent: 65537 (0x10001)
        X509v3 extensions:
            X509v3 Basic Constraints: 
                CA:FALSE
            X509v3 Subject Key Identifier: 
                54:29:28:FA:B7:40:7F:1A:74:3A:47:9D:9D:E0:74:A2:45:7D:7F:CC
            X509v3 Authority Key Identifier: 
                keyid:0B:BA:3C:47:63:52:97:F9:DC:B0:7E:4E:46:D2:B3:59:1D:06:72:38
                DirName:/CN=team578-net
                serial:30:6A:EE:59:B3:2D:DD:12:6C:ED:FB:B5:6C:E1:78:08:DA:32:00:90

            X509v3 Extended Key Usage: 
                TLS Web Server Authentication
            X509v3 Key Usage: 
                Digital Signature, Key Encipherment
            X509v3 Subject Alternative Name: 
                DNS:team578-server
    Signature Algorithm: sha256WithRSAEncryption
         9c:22:29:ad:39:45:2d:17:63:0d:5a:a1:d0:a6:15:30:bf:d4:
         60:22:6e:41:8c:3b:14:5c:97:35:96:4f:6d:57:de:61:9f:ab:
         cf:26:20:63:ac:69:09:89:b6:94:45:e8:8a:7a:53:39:b7:00:
         18:0c:b1:e0:03:25:bb:ca:0d:a6:35:41:de:5b:2b:60:ea:91:
         04:ac:2a:52:f4:fd:17:48:46:ac:59:6a:ac:57:9f:b9:5f:0b:
         69:eb:f7:db:0a:0a:29:d9:6f:c0:e8:f4:22:ad:70:6e:36:14:
         70:56:29:4d:84:1c:5c:91:f4:fe:fa:68:c0:16:21:e5:b9:7d:
         d3:5b:29:8f:0c:92:16:9c:9d:bf:77:5f:9d:97:0c:3e:cf:cc:
         c9:7d:a9:76:bb:63:e7:f1:07:d0:bc:ff:93:32:5f:a2:d8:d0:
         6d:99:57:8e:70:6c:9d:25:ec:c2:7c:8d:54:7c:d9:d0:84:aa:
         2e:72:6c:76:16:e4:67:eb:03:eb:67:27:8d:89:ba:7d:68:7c:
         1b:f0:9d:ee:4d:37:ff:3c:47:a5:e0:fc:bb:50:e2:ac:26:86:
         4c:ee:fa:7f:98:b3:e2:21:0b:ea:25:52:20:c5:52:15:e4:85:
         ab:38:f7:83:d0:9b:f9:8a:2e:fb:66:ef:45:7c:4a:9d:88:d0:
         21:bf:ef:dc
-----BEGIN CERTIFICATE-----
MIIDdzCCAl+gAwIBAgIQPVkb68v7cHxQYTi9G3CRADANBgkqhkiG9w0BAQsFADAW
MRQwEgYDVQQDDAt0ZWFtNTc4LW5ldDAeFw0yMjA1MTgyMjMzMzJaFw0yNTA1MDIy
MjMzMzJaMBkxFzAVBgNVBAMMDnRlYW01Nzgtc2VydmVyMIIBIjANBgkqhkiG9w0B
AQEFAAOCAQ8AMIIBCgKCAQEAtiV320vmAHq393pDG+Ms6YZ5QDqAH6aEglA4od44
ERDuiEr0h6T1HiVnwd0c5EuPW7d7CHEzr8y6hY446ZitIBJZobQF/FVzGQs4qwRL
mLeqtSZrWYxelRsXOMRBKmkAfuX/TLOmgaOwEjYwqF9P8zW11KPcnMLAIOokwGYY
zUafj9bm5hWHY4/I/+0M7T5+DNGYgc6mWWoOpzDOhA4V9ZZTfexEcdka6cfwXNvD
omiq38SWimCHTbWOdEMCtBrKZPZcXpvIlu+ZHKLBSIeJwg7f7HpY5daUPacwarF8
MiI68jZMoPuIQkenL6woO4XN1AYP/rhy9comabfk4wBi0wIDAQABo4G9MIG6MAkG
A1UdEwQCMAAwHQYDVR0OBBYEFFQpKPq3QH8adDpHnZ3gdKJFfX/MMFEGA1UdIwRK
MEiAFAu6PEdjUpf53LB+TkbSs1kdBnI4oRqkGDAWMRQwEgYDVQQDDAt0ZWFtNTc4
LW5ldIIUMGruWbMt3RJs7fu1bOF4CNoyAJAwEwYDVR0lBAwwCgYIKwYBBQUHAwEw
CwYDVR0PBAQDAgWgMBkGA1UdEQQSMBCCDnRlYW01Nzgtc2VydmVyMA0GCSqGSIb3
DQEBCwUAA4IBAQCcIimtOUUtF2MNWqHQphUwv9RgIm5BjDsUXJc1lk9tV95hn6vP
JiBjrGkJibaUReiKelM5twAYDLHgAyW7yg2mNUHeWytg6pEErCpS9P0XSEasWWqs
V5+5Xwtp6/fbCgop2W/A6PQirXBuNhRwVilNhBxckfT++mjAFiHluX3TWymPDJIW
nJ2/d1+dlww+z8zJfal2u2Pn8QfQvP+TMl+i2NBtmVeOcGydJezCfI1UfNnQhKou
cmx2FuRn6wPrZyeNibp9aHwb8J3uTTf/PEel4Py7UOKsJoZM7vp/mLPiIQvqJVIg
xVIV5IWrOPeD0Jv5ii77Zu9FfEqdiNAhv+/c
-----END CERTIFICATE-----
