Certificate:
    Data:
        Version: 3 (0x2)
        Serial Number:
            65:69:ed:ae:e3:dd:71:90:e2:85:6a:bb:ff:3d:ea:0b
        Signature Algorithm: sha256WithRSAEncryption
        Issuer: CN=team452-net
        Validity
            Not Before: May 18 21:16:12 2022 GMT
            Not After : May  2 21:16:12 2025 GMT
        Subject: CN=team452-client
        Subject Public Key Info:
            Public Key Algorithm: rsaEncryption
                RSA Public-Key: (2048 bit)
                Modulus:
                    00:e7:78:01:da:88:e2:37:f6:9d:15:9f:4e:c6:d3:
                    37:0b:54:9c:ec:30:84:a0:7f:06:e9:7d:ae:ae:58:
                    94:fd:b4:88:f7:b4:e8:9c:91:56:e9:a3:c3:7c:56:
                    e9:0e:1f:22:4c:4f:ff:8d:ef:5c:5a:e5:e2:4d:17:
                    8b:c6:6b:b4:e5:4b:57:d6:f8:07:f0:b6:df:19:41:
                    2b:5f:28:b4:cf:59:4d:3e:0e:10:c0:84:45:8a:b2:
                    c1:50:a7:a1:1b:5b:82:6a:ba:fc:92:d3:31:6b:35:
                    7f:dd:30:e9:c1:b3:bf:5e:85:39:2d:8c:ea:6b:15:
                    9f:09:3f:18:ea:f1:09:bb:46:e1:a1:67:8e:b2:9c:
                    49:e7:a4:0d:5a:68:2e:7f:63:d1:71:a2:94:a0:85:
                    62:75:60:d0:87:15:a4:a4:51:e6:1d:e3:d1:9a:0d:
                    33:4b:59:e1:9c:81:ac:b5:4f:4f:8d:b2:12:81:91:
                    57:4d:8b:6c:ef:87:77:a8:19:5a:63:88:92:82:17:
                    73:55:5f:f5:e5:c1:0d:ee:ab:c5:1e:b0:be:fd:2c:
                    2c:eb:12:26:d0:17:7b:a3:72:42:c7:7e:86:b8:09:
                    fe:68:71:c5:bd:b8:dd:79:05:99:05:00:6d:b2:af:
                    02:0b:6b:11:9b:5e:86:67:5e:ef:e7:40:76:85:63:
                    a0:85
                Exponent: 65537 (0x10001)
        X509v3 extensions:
            X509v3 Basic Constraints: 
                CA:FALSE
            X509v3 Subject Key Identifier: 
                C8:D0:E4:44:0D:88:D3:F7:B3:38:FB:85:C6:E1:3C:68:34:B5:8E:16
            X509v3 Authority Key Identifier: 
                keyid:FF:BD:7C:37:09:87:BD:31:7C:D0:4E:73:B8:A2:39:9D:79:9D:AA:F6
                DirName:/CN=team452-net
                serial:6A:D0:DA:34:BD:92:AA:9F:76:6F:EC:42:F1:F0:A3:4B:4E:49:A2:80

            X509v3 Extended Key Usage: 
                TLS Web Client Authentication
            X509v3 Key Usage: 
                Digital Signature
    Signature Algorithm: sha256WithRSAEncryption
         06:8a:ce:e2:b1:9c:85:c4:43:68:b2:56:13:e3:17:4d:96:01:
         1b:b7:41:07:71:95:da:8a:d1:fa:9a:f7:90:38:82:40:4e:8f:
         bb:1f:98:71:3d:11:0f:2c:d8:bb:7a:b2:9f:e6:83:22:6b:b2:
         f0:ff:7f:38:71:23:af:e7:2c:e1:24:fb:42:e9:e4:50:d5:8b:
         04:33:94:34:62:df:8b:19:23:91:85:8b:9d:60:8b:21:a2:91:
         a7:03:06:c9:e3:a6:d2:58:28:17:fe:92:35:cc:0e:c0:6f:4c:
         2a:46:74:e3:d0:16:d2:3a:0c:80:58:ad:7f:06:d1:0f:c6:e4:
         b0:95:ec:07:1a:fc:96:8e:ca:08:8d:e0:11:dc:e2:4b:81:c7:
         3e:95:ef:d9:9c:39:78:a5:40:06:bd:14:c2:36:3d:88:73:dd:
         5c:c0:8e:be:58:af:63:c8:77:03:bb:f8:f3:c1:e3:43:e1:7d:
         fc:73:1d:15:3f:15:93:c0:2b:14:99:f5:e5:23:e1:6e:d5:71:
         51:1b:fd:b3:65:55:51:3f:9a:99:84:99:71:a0:ba:70:87:ea:
         02:1a:0a:81:64:97:85:3f:3e:4d:57:01:9e:5d:94:83:23:c4:
         d4:dc:91:9d:76:be:18:db:72:7b:3c:f6:10:8a:9b:04:73:37:
         a4:77:91:06
-----BEGIN CERTIFICATE-----
MIIDXDCCAkSgAwIBAgIQZWntruPdcZDihWq7/z3qCzANBgkqhkiG9w0BAQsFADAW
MRQwEgYDVQQDDAt0ZWFtNDUyLW5ldDAeFw0yMjA1MTgyMTE2MTJaFw0yNTA1MDIy
MTE2MTJaMBkxFzAVBgNVBAMMDnRlYW00NTItY2xpZW50MIIBIjANBgkqhkiG9w0B
AQEFAAOCAQ8AMIIBCgKCAQEA53gB2ojiN/adFZ9OxtM3C1Sc7DCEoH8G6X2urliU
/bSI97TonJFW6aPDfFbpDh8iTE//je9cWuXiTReLxmu05UtX1vgH8LbfGUErXyi0
z1lNPg4QwIRFirLBUKehG1uCarr8ktMxazV/3TDpwbO/XoU5LYzqaxWfCT8Y6vEJ
u0bhoWeOspxJ56QNWmguf2PRcaKUoIVidWDQhxWkpFHmHePRmg0zS1nhnIGstU9P
jbISgZFXTYts74d3qBlaY4iSghdzVV/15cEN7qvFHrC+/Sws6xIm0Bd7o3JCx36G
uAn+aHHFvbjdeQWZBQBtsq8CC2sRm16GZ17v50B2hWOghQIDAQABo4GiMIGfMAkG
A1UdEwQCMAAwHQYDVR0OBBYEFMjQ5EQNiNP3szj7hcbhPGg0tY4WMFEGA1UdIwRK
MEiAFP+9fDcJh70xfNBOc7iiOZ15nar2oRqkGDAWMRQwEgYDVQQDDAt0ZWFtNDUy
LW5ldIIUatDaNL2Sqp92b+xC8fCjS05JooAwEwYDVR0lBAwwCgYIKwYBBQUHAwIw
CwYDVR0PBAQDAgeAMA0GCSqGSIb3DQEBCwUAA4IBAQAGis7isZyFxENoslYT4xdN
lgEbt0EHcZXaitH6mveQOIJATo+7H5hxPREPLNi7erKf5oMia7Lw/384cSOv5yzh
JPtC6eRQ1YsEM5Q0Yt+LGSORhYudYIshopGnAwbJ46bSWCgX/pI1zA7Ab0wqRnTj
0BbSOgyAWK1/BtEPxuSwlewHGvyWjsoIjeAR3OJLgcc+le/ZnDl4pUAGvRTCNj2I
c91cwI6+WK9jyHcDu/jzweND4X38cx0VPxWTwCsUmfXlI+Fu1XFRG/2zZVVRP5qZ
hJlxoLpwh+oCGgqBZJeFPz5NVwGeXZSDI8TU3JGddr4Y23J7PPYQipsEczekd5EG
-----END CERTIFICATE-----
