Certificate:
    Data:
        Version: 3 (0x2)
        Serial Number:
            c5:be:7f:31:56:ff:54:72:6d:0f:51:cf:26:26:bc:23
        Signature Algorithm: sha256WithRSAEncryption
        Issuer: CN=team384-net
        Validity
            Not Before: May 18 20:41:43 2022 GMT
            Not After : May  2 20:41:43 2025 GMT
        Subject: CN=team384-server
        Subject Public Key Info:
            Public Key Algorithm: rsaEncryption
                RSA Public-Key: (2048 bit)
                Modulus:
                    00:cb:f1:ea:ee:f4:72:ba:61:db:b5:b7:60:01:06:
                    52:f9:bc:24:b8:f3:ca:11:7e:f1:ae:5a:25:54:18:
                    41:56:08:3b:e4:14:e2:29:00:b1:fa:3b:62:cd:a1:
                    d0:c3:38:50:47:61:17:b9:e7:29:51:fa:31:d4:c6:
                    21:e6:7b:1c:60:a9:69:f9:1c:e3:cf:a0:dd:d1:f7:
                    80:d8:e2:de:3a:ae:69:93:96:9c:90:ce:b2:2d:1a:
                    7b:48:98:58:2e:98:f2:6e:31:8f:55:3e:61:6c:8f:
                    64:58:80:1c:e7:ef:34:26:54:a5:33:d2:8f:70:0f:
                    11:54:59:d5:28:ef:30:7a:6e:ff:f9:86:d7:21:e0:
                    15:d1:0e:75:d0:2d:3f:a5:17:5e:b1:4b:97:c5:21:
                    35:3e:13:85:26:d7:29:8e:50:c3:ab:ad:e5:af:3a:
                    d4:48:bc:cc:14:4d:01:65:df:bf:39:0b:6f:f0:66:
                    b1:b6:27:1b:38:7a:bd:96:ae:8b:fd:ce:9b:01:23:
                    a3:b3:13:11:d7:8b:1f:cf:01:23:ea:54:fb:27:c2:
                    cb:ee:26:8d:53:b5:25:57:27:80:9b:44:a5:89:ba:
                    ef:1d:e1:5e:0c:cf:6c:6b:ad:5c:07:51:3b:a2:47:
                    d9:bc:3f:e5:09:ef:35:14:2b:4c:c9:f1:aa:23:ef:
                    db:61
                Exponent: 65537 (0x10001)
        X509v3 extensions:
            X509v3 Basic Constraints: 
                CA:FALSE
            X509v3 Subject Key Identifier: 
                D7:75:67:A5:9F:22:E6:CE:5F:91:2A:3A:E2:0F:C9:53:82:EE:66:71
            X509v3 Authority Key Identifier: 
                keyid:AC:F4:84:98:4F:E2:E5:ED:C8:41:5C:4D:70:75:F4:3B:69:DE:5B:DA
                DirName:/CN=team384-net
                serial:0A:39:28:92:90:EA:2E:04:75:A7:E5:0A:52:E7:9A:68:45:51:E4:35

            X509v3 Extended Key Usage: 
                TLS Web Server Authentication
            X509v3 Key Usage: 
                Digital Signature, Key Encipherment
            X509v3 Subject Alternative Name: 
                DNS:team384-server
    Signature Algorithm: sha256WithRSAEncryption
         18:8e:fd:bf:a3:d2:24:64:f6:0f:1d:83:31:9a:68:33:12:61:
         f1:a5:24:3a:8b:ef:8f:17:87:06:bf:4b:83:8d:07:9b:42:95:
         29:06:40:ff:32:6f:82:3c:1c:19:08:86:2d:0e:4d:13:2b:ac:
         85:6b:02:f1:98:09:38:5e:ea:8f:b8:05:40:12:60:a8:0b:84:
         14:0e:7b:8b:4f:10:98:7c:0d:c9:fd:92:9f:24:a8:8f:e1:29:
         be:35:2b:36:7f:26:aa:b2:37:87:44:86:2c:31:41:f1:5a:76:
         d1:fb:24:0c:73:72:5d:f2:5b:c0:6e:d4:d4:75:ef:f1:30:fc:
         e0:dd:bf:32:a8:93:f4:66:e0:fc:57:63:00:b4:15:48:71:23:
         e4:34:c8:72:d4:a3:51:da:1b:fb:11:c6:2f:1a:da:ae:88:52:
         77:d5:35:f7:89:79:10:d0:6e:2c:65:4e:b3:27:ca:d9:4e:8c:
         62:b0:27:7b:3b:a1:10:01:14:68:b0:5c:f9:bb:33:ab:f4:0e:
         ce:a5:90:57:f3:74:19:30:b8:6b:5d:21:2d:4c:34:d4:2a:c7:
         52:89:0d:10:db:2a:ce:46:2e:c8:a9:f8:70:21:5c:c0:d3:1a:
         0c:de:23:e8:d0:95:97:2b:0c:de:4c:1b:dc:9e:af:d4:9b:c6:
         9e:48:76:89
-----BEGIN CERTIFICATE-----
MIIDeDCCAmCgAwIBAgIRAMW+fzFW/1RybQ9RzyYmvCMwDQYJKoZIhvcNAQELBQAw
FjEUMBIGA1UEAwwLdGVhbTM4NC1uZXQwHhcNMjIwNTE4MjA0MTQzWhcNMjUwNTAy
MjA0MTQzWjAZMRcwFQYDVQQDDA50ZWFtMzg0LXNlcnZlcjCCASIwDQYJKoZIhvcN
AQEBBQADggEPADCCAQoCggEBAMvx6u70crph27W3YAEGUvm8JLjzyhF+8a5aJVQY
QVYIO+QU4ikAsfo7Ys2h0MM4UEdhF7nnKVH6MdTGIeZ7HGCpafkc48+g3dH3gNji
3jquaZOWnJDOsi0ae0iYWC6Y8m4xj1U+YWyPZFiAHOfvNCZUpTPSj3APEVRZ1Sjv
MHpu//mG1yHgFdEOddAtP6UXXrFLl8UhNT4ThSbXKY5Qw6ut5a861Ei8zBRNAWXf
vzkLb/BmsbYnGzh6vZaui/3OmwEjo7MTEdeLH88BI+pU+yfCy+4mjVO1JVcngJtE
pYm67x3hXgzPbGutXAdRO6JH2bw/5QnvNRQrTMnxqiPv22ECAwEAAaOBvTCBujAJ
BgNVHRMEAjAAMB0GA1UdDgQWBBTXdWelnyLmzl+RKjriD8lTgu5mcTBRBgNVHSME
SjBIgBSs9ISYT+Ll7chBXE1wdfQ7ad5b2qEapBgwFjEUMBIGA1UEAwwLdGVhbTM4
NC1uZXSCFAo5KJKQ6i4EdaflClLnmmhFUeQ1MBMGA1UdJQQMMAoGCCsGAQUFBwMB
MAsGA1UdDwQEAwIFoDAZBgNVHREEEjAQgg50ZWFtMzg0LXNlcnZlcjANBgkqhkiG
9w0BAQsFAAOCAQEAGI79v6PSJGT2Dx2DMZpoMxJh8aUkOovvjxeHBr9Lg40Hm0KV
KQZA/zJvgjwcGQiGLQ5NEyushWsC8ZgJOF7qj7gFQBJgqAuEFA57i08QmHwNyf2S
nySoj+EpvjUrNn8mqrI3h0SGLDFB8Vp20fskDHNyXfJbwG7U1HXv8TD84N2/MqiT
9Gbg/FdjALQVSHEj5DTIctSjUdob+xHGLxrarohSd9U194l5ENBuLGVOsyfK2U6M
YrAnezuhEAEUaLBc+bszq/QOzqWQV/N0GTC4a10hLUw01CrHUokNENsqzkYuyKn4
cCFcwNMaDN4j6NCVlysM3kwb3J6v1JvGnkh2iQ==
-----END CERTIFICATE-----
