Certificate:
    Data:
        Version: 3 (0x2)
        Serial Number:
            a5:41:92:6b:b2:52:81:09:96:6a:39:9a:03:e0:cb:fd
        Signature Algorithm: sha256WithRSAEncryption
        Issuer: CN=team662-net
        Validity
            Not Before: May 18 23:25:43 2022 GMT
            Not After : May  2 23:25:43 2025 GMT
        Subject: CN=team662-client
        Subject Public Key Info:
            Public Key Algorithm: rsaEncryption
                RSA Public-Key: (2048 bit)
                Modulus:
                    00:db:0b:30:ef:05:cc:1e:e5:bd:18:56:76:a7:24:
                    51:95:e9:ec:18:f9:86:35:89:ec:96:e7:68:8d:de:
                    ff:8e:e4:18:87:4a:00:4e:e8:36:8b:1e:ce:b2:21:
                    d4:af:24:a0:6f:91:f6:72:27:90:ba:37:91:6d:65:
                    a3:64:6b:36:28:58:c6:1e:6d:17:d5:4d:30:ef:1a:
                    fc:c6:44:8b:60:57:c6:dd:d2:1d:d1:1e:62:5f:09:
                    56:e2:6a:13:b1:4e:d3:d2:5e:a8:ca:4e:38:7d:ae:
                    c3:6c:df:ac:22:ab:ac:06:27:2a:97:25:e4:bc:bd:
                    e3:16:d2:1b:0d:d2:21:42:6e:3e:d1:0c:db:50:67:
                    94:00:98:ac:dd:88:f2:ff:18:70:21:11:03:36:27:
                    21:eb:1d:e1:c8:85:44:2f:8e:94:c5:9e:ca:aa:44:
                    c8:88:a3:8d:67:fc:0e:ad:6a:06:95:c9:dd:7e:39:
                    8c:2a:91:8f:79:cf:aa:a1:39:24:21:18:e6:a4:ea:
                    65:4d:b2:c8:45:a2:71:46:8b:33:ad:fe:8b:2b:ed:
                    8f:4b:79:ab:69:0d:ca:36:ed:3b:e4:87:bc:0b:fc:
                    92:fa:1c:ab:1a:e4:ce:08:12:8b:0b:02:04:00:f4:
                    f5:10:d4:f1:85:a0:1c:93:7f:93:b8:e4:98:e1:0f:
                    88:29
                Exponent: 65537 (0x10001)
        X509v3 extensions:
            X509v3 Basic Constraints: 
                CA:FALSE
            X509v3 Subject Key Identifier: 
                D4:B1:E2:CC:38:B8:A1:14:EE:3A:A1:6C:C9:CD:56:E4:24:18:BE:B9
            X509v3 Authority Key Identifier: 
                keyid:1D:5C:DA:D5:30:40:B6:64:F9:44:84:05:2C:06:EF:49:C4:E3:6D:48
                DirName:/CN=team662-net
                serial:40:60:F6:76:FD:14:B9:6D:79:3E:0A:E8:84:88:D9:03:0D:46:97:95

            X509v3 Extended Key Usage: 
                TLS Web Client Authentication
            X509v3 Key Usage: 
                Digital Signature
    Signature Algorithm: sha256WithRSAEncryption
         18:0e:8c:d0:b7:84:57:3e:04:29:00:cc:1b:b2:f2:0d:df:32:
         5a:75:1e:9d:3d:8b:23:d5:0b:c0:7a:a5:64:be:18:bd:04:d9:
         61:11:40:d2:50:d1:2e:e0:aa:e1:28:12:84:19:af:a8:49:e4:
         7b:c0:01:69:90:28:76:47:fa:5a:8d:75:54:25:78:7a:05:ef:
         dc:91:97:41:ba:a9:48:2f:5e:20:d3:ef:7e:25:af:d2:b7:84:
         02:41:1d:78:cd:a2:5a:6c:53:d2:46:7f:e0:21:90:6b:90:98:
         04:9f:a7:8b:bd:1f:13:dd:57:d8:f7:b0:14:a4:08:bf:d7:13:
         57:2e:8f:48:39:f3:18:ab:b2:d8:f7:34:05:df:98:93:ee:b0:
         79:10:d6:84:bc:72:43:87:ff:c7:e3:cf:c5:6a:ef:7c:6d:a3:
         82:68:ac:11:bb:21:e2:37:5e:68:13:a8:b8:81:6e:57:20:a9:
         10:62:6d:0c:fc:d4:dc:4f:05:1d:ea:de:ec:3b:19:fd:8a:0e:
         7f:b6:25:03:9a:44:ed:a8:12:ae:78:b4:62:2f:f2:6b:1d:9a:
         28:b9:14:f7:a3:01:29:57:59:56:c1:ed:90:64:d6:0c:93:43:
         12:76:8c:5f:88:47:c6:71:e8:47:32:28:4e:2e:4e:54:d5:e4:
         15:ed:fc:4a
-----BEGIN CERTIFICATE-----
MIIDXTCCAkWgAwIBAgIRAKVBkmuyUoEJlmo5mgPgy/0wDQYJKoZIhvcNAQELBQAw
FjEUMBIGA1UEAwwLdGVhbTY2Mi1uZXQwHhcNMjIwNTE4MjMyNTQzWhcNMjUwNTAy
MjMyNTQzWjAZMRcwFQYDVQQDDA50ZWFtNjYyLWNsaWVudDCCASIwDQYJKoZIhvcN
AQEBBQADggEPADCCAQoCggEBANsLMO8FzB7lvRhWdqckUZXp7Bj5hjWJ7JbnaI3e
/47kGIdKAE7oNosezrIh1K8koG+R9nInkLo3kW1lo2RrNihYxh5tF9VNMO8a/MZE
i2BXxt3SHdEeYl8JVuJqE7FO09JeqMpOOH2uw2zfrCKrrAYnKpcl5Ly94xbSGw3S
IUJuPtEM21BnlACYrN2I8v8YcCERAzYnIesd4ciFRC+OlMWeyqpEyIijjWf8Dq1q
BpXJ3X45jCqRj3nPqqE5JCEY5qTqZU2yyEWicUaLM63+iyvtj0t5q2kNyjbtO+SH
vAv8kvocqxrkzggSiwsCBAD09RDU8YWgHJN/k7jkmOEPiCkCAwEAAaOBojCBnzAJ
BgNVHRMEAjAAMB0GA1UdDgQWBBTUseLMOLihFO46oWzJzVbkJBi+uTBRBgNVHSME
SjBIgBQdXNrVMEC2ZPlEhAUsBu9JxONtSKEapBgwFjEUMBIGA1UEAwwLdGVhbTY2
Mi1uZXSCFEBg9nb9FLlteT4K6ISI2QMNRpeVMBMGA1UdJQQMMAoGCCsGAQUFBwMC
MAsGA1UdDwQEAwIHgDANBgkqhkiG9w0BAQsFAAOCAQEAGA6M0LeEVz4EKQDMG7Ly
Dd8yWnUenT2LI9ULwHqlZL4YvQTZYRFA0lDRLuCq4SgShBmvqEnke8ABaZAodkf6
Wo11VCV4egXv3JGXQbqpSC9eINPvfiWv0reEAkEdeM2iWmxT0kZ/4CGQa5CYBJ+n
i70fE91X2PewFKQIv9cTVy6PSDnzGKuy2Pc0Bd+Yk+6weRDWhLxyQ4f/x+PPxWrv
fG2jgmisEbsh4jdeaBOouIFuVyCpEGJtDPzU3E8FHere7DsZ/YoOf7YlA5pE7agS
rni0Yi/yax2aKLkU96MBKVdZVsHtkGTWDJNDEnaMX4hHxnHoRzIoTi5OVNXkFe38
Sg==
-----END CERTIFICATE-----
