Certificate:
    Data:
        Version: 3 (0x2)
        Serial Number:
            03:54:38:c8:a2:8b:0d:ef:84:6f:22:a4:78:63:0f:13
        Signature Algorithm: sha256WithRSAEncryption
        Issuer: CN=team303-net
        Validity
            Not Before: May 18 20:00:01 2022 GMT
            Not After : May  2 20:00:01 2025 GMT
        Subject: CN=team303-server
        Subject Public Key Info:
            Public Key Algorithm: rsaEncryption
                RSA Public-Key: (2048 bit)
                Modulus:
                    00:a9:1f:b1:16:91:3b:47:9a:5b:4b:d8:b5:02:d1:
                    5f:3f:8e:7c:c4:85:ab:77:bd:48:2b:b9:45:92:dc:
                    38:c6:e1:23:f7:f5:19:cf:55:50:f3:69:5a:b4:7c:
                    e9:42:47:ea:a0:b8:31:22:91:9c:60:3f:bb:b4:e1:
                    df:51:67:42:bd:07:57:93:53:65:fd:00:df:4d:87:
                    2f:91:e2:ca:3f:95:f9:3b:a0:99:85:22:df:66:8f:
                    e0:b9:80:5d:47:4d:90:c0:65:05:f6:db:eb:62:6a:
                    e6:56:a1:c7:1f:4e:03:b0:77:04:92:bb:a4:c5:8b:
                    bc:96:fc:06:0e:62:66:22:a1:e3:bf:00:2f:1a:f9:
                    c3:2f:f1:d6:28:b4:8f:20:97:5b:b3:ff:91:9f:db:
                    da:20:9f:01:07:ce:31:b1:6b:74:49:3f:1c:f0:02:
                    c0:d7:80:5c:e5:01:c8:48:54:62:a4:dc:44:ef:0d:
                    a7:fa:d7:bd:11:04:44:e2:3c:1d:19:7f:24:8a:93:
                    b4:7c:cc:02:8c:09:db:1a:db:c2:48:1f:e8:77:82:
                    47:76:e0:67:77:68:13:72:9b:b4:11:0f:41:a2:08:
                    49:42:85:31:7d:e3:ac:d1:e9:d2:f5:31:54:59:3f:
                    5a:e2:35:84:8c:c7:9e:37:3b:30:2f:1d:3f:36:e4:
                    85:5b
                Exponent: 65537 (0x10001)
        X509v3 extensions:
            X509v3 Basic Constraints: 
                CA:FALSE
            X509v3 Subject Key Identifier: 
                A3:A8:DF:9F:55:52:A8:D0:3B:F0:18:B0:3D:30:08:68:C1:7C:9D:1C
            X509v3 Authority Key Identifier: 
                keyid:7F:27:3A:2E:97:CC:3F:E3:A0:A0:7F:1F:F1:3F:35:7A:F2:F3:A3:E8
                DirName:/CN=team303-net
                serial:62:F9:EF:FF:B7:F4:2F:BE:9C:27:BE:3E:E2:88:C3:D7:64:1E:18:B1

            X509v3 Extended Key Usage: 
                TLS Web Server Authentication
            X509v3 Key Usage: 
                Digital Signature, Key Encipherment
            X509v3 Subject Alternative Name: 
                DNS:team303-server
    Signature Algorithm: sha256WithRSAEncryption
         44:fa:6b:6d:94:f2:9c:a1:3c:e9:29:19:ff:eb:46:ad:bf:e4:
         5e:08:a9:6c:67:07:b2:ec:9e:61:d2:db:ba:b7:7a:3b:6f:6f:
         7a:05:a8:58:78:f2:b1:77:b7:c2:de:af:ca:1a:c2:9d:40:ae:
         53:46:18:c2:1f:36:05:4a:a7:c2:cc:d4:72:08:2a:2e:e2:cf:
         d1:27:14:c1:ca:5c:19:3d:9c:9b:1c:74:d7:50:89:6b:3b:fa:
         a2:af:61:f0:7d:33:58:38:aa:92:ca:62:27:c5:2d:6b:2c:bb:
         f9:e2:60:fe:41:66:4b:d6:c7:28:ce:37:42:a9:84:37:0a:96:
         b0:bb:a1:a3:be:ac:cf:7b:89:24:cf:0f:30:34:4f:a0:a3:70:
         8e:5d:49:57:76:4f:d5:e3:c0:52:68:52:ff:dc:17:84:9b:a9:
         de:67:9d:15:af:80:0f:35:60:63:52:cd:4e:be:8a:45:b6:05:
         ee:e0:05:d9:7c:1d:c6:78:50:90:bd:48:13:da:df:80:3f:0f:
         76:59:3e:33:2a:da:51:45:8d:62:aa:07:b6:ae:f6:28:fb:7a:
         f6:c0:49:c4:88:e3:89:9c:4d:ff:de:a7:fc:fc:fd:67:e8:16:
         9a:96:ae:2d:df:25:5d:68:bc:99:23:1e:d9:50:e5:95:6a:7d:
         17:ee:42:50
-----BEGIN CERTIFICATE-----
MIIDdzCCAl+gAwIBAgIQA1Q4yKKLDe+EbyKkeGMPEzANBgkqhkiG9w0BAQsFADAW
MRQwEgYDVQQDDAt0ZWFtMzAzLW5ldDAeFw0yMjA1MTgyMDAwMDFaFw0yNTA1MDIy
MDAwMDFaMBkxFzAVBgNVBAMMDnRlYW0zMDMtc2VydmVyMIIBIjANBgkqhkiG9w0B
AQEFAAOCAQ8AMIIBCgKCAQEAqR+xFpE7R5pbS9i1AtFfP458xIWrd71IK7lFktw4
xuEj9/UZz1VQ82latHzpQkfqoLgxIpGcYD+7tOHfUWdCvQdXk1Nl/QDfTYcvkeLK
P5X5O6CZhSLfZo/guYBdR02QwGUF9tvrYmrmVqHHH04DsHcEkrukxYu8lvwGDmJm
IqHjvwAvGvnDL/HWKLSPIJdbs/+Rn9vaIJ8BB84xsWt0ST8c8ALA14Bc5QHISFRi
pNxE7w2n+te9EQRE4jwdGX8kipO0fMwCjAnbGtvCSB/od4JHduBnd2gTcpu0EQ9B
oghJQoUxfeOs0enS9TFUWT9a4jWEjMeeNzswLx0/NuSFWwIDAQABo4G9MIG6MAkG
A1UdEwQCMAAwHQYDVR0OBBYEFKOo359VUqjQO/AYsD0wCGjBfJ0cMFEGA1UdIwRK
MEiAFH8nOi6XzD/joKB/H/E/NXry86PooRqkGDAWMRQwEgYDVQQDDAt0ZWFtMzAz
LW5ldIIUYvnv/7f0L76cJ74+4ojD12QeGLEwEwYDVR0lBAwwCgYIKwYBBQUHAwEw
CwYDVR0PBAQDAgWgMBkGA1UdEQQSMBCCDnRlYW0zMDMtc2VydmVyMA0GCSqGSIb3
DQEBCwUAA4IBAQBE+mttlPKcoTzpKRn/60atv+ReCKlsZwey7J5h0tu6t3o7b296
BahYePKxd7fC3q/KGsKdQK5TRhjCHzYFSqfCzNRyCCou4s/RJxTBylwZPZybHHTX
UIlrO/qir2HwfTNYOKqSymInxS1rLLv54mD+QWZL1scozjdCqYQ3Cpawu6GjvqzP
e4kkzw8wNE+go3COXUlXdk/V48BSaFL/3BeEm6neZ50Vr4APNWBjUs1OvopFtgXu
4AXZfB3GeFCQvUgT2t+APw92WT4zKtpRRY1iqge2rvYo+3r2wEnEiOOJnE3/3qf8
/P1n6Baalq4t3yVdaLyZIx7ZUOWVan0X7kJQ
-----END CERTIFICATE-----
