Certificate:
    Data:
        Version: 3 (0x2)
        Serial Number:
            15:1d:3c:a8:33:40:ab:2b:73:8a:0b:b7:5e:09:8e:b2
        Signature Algorithm: sha256WithRSAEncryption
        Issuer: CN=team303-net
        Validity
            Not Before: May 18 20:00:00 2022 GMT
            Not After : May  2 20:00:00 2025 GMT
        Subject: CN=team303-client
        Subject Public Key Info:
            Public Key Algorithm: rsaEncryption
                RSA Public-Key: (2048 bit)
                Modulus:
                    00:e3:41:68:35:8b:a3:14:4d:57:49:7b:94:be:38:
                    0c:5a:27:9e:7e:b7:9b:a0:a7:41:f4:e4:75:e0:b4:
                    0c:06:42:d6:1e:b2:55:b1:7c:0a:fe:84:0c:43:cb:
                    f3:34:03:66:18:56:17:67:63:78:d4:08:08:c6:1d:
                    22:46:80:80:da:10:e2:80:52:e1:4f:0e:0b:9b:40:
                    1b:51:e7:04:26:c6:58:9d:81:84:83:33:c4:b2:b7:
                    93:38:56:2f:8d:ab:69:3a:09:06:a3:0b:d9:3f:b4:
                    c6:26:e6:c0:d6:30:29:85:b0:06:ee:8d:ef:4b:ee:
                    ce:e9:76:b6:2a:46:ed:b7:30:3a:23:3e:2e:b6:ec:
                    21:45:02:3a:27:e4:0c:f5:cb:5b:11:ab:ef:0f:cb:
                    43:90:f6:27:23:63:a7:72:2a:35:84:74:6b:37:fb:
                    13:57:94:7d:e5:e7:2b:b8:d7:bc:e6:78:48:7f:e1:
                    c6:47:23:f3:59:e7:b0:ea:75:ca:7e:c0:77:ac:65:
                    12:1e:a7:58:21:cd:7e:96:2f:a1:ed:06:bf:18:b0:
                    d1:16:0b:f0:fc:21:36:d9:51:a0:4c:58:15:72:9c:
                    3d:81:04:2f:1a:31:52:12:e6:10:ea:3d:8f:65:ec:
                    e2:42:f8:e7:7f:dc:b7:d2:6e:73:4b:e5:3d:2e:03:
                    c4:e1
                Exponent: 65537 (0x10001)
        X509v3 extensions:
            X509v3 Basic Constraints: 
                CA:FALSE
            X509v3 Subject Key Identifier: 
                F3:B6:0A:03:24:78:54:32:8E:5C:7D:85:25:BE:41:F3:26:C1:8B:F4
            X509v3 Authority Key Identifier: 
                keyid:7F:27:3A:2E:97:CC:3F:E3:A0:A0:7F:1F:F1:3F:35:7A:F2:F3:A3:E8
                DirName:/CN=team303-net
                serial:62:F9:EF:FF:B7:F4:2F:BE:9C:27:BE:3E:E2:88:C3:D7:64:1E:18:B1

            X509v3 Extended Key Usage: 
                TLS Web Client Authentication
            X509v3 Key Usage: 
                Digital Signature
    Signature Algorithm: sha256WithRSAEncryption
         83:e3:50:71:05:88:77:d2:50:45:f4:87:5c:df:fb:ed:e7:b9:
         ee:fb:a6:b5:f8:be:c4:32:47:bd:cb:df:56:a7:6e:da:49:5f:
         01:37:10:2d:b5:fb:97:df:f4:18:3a:43:8e:0d:88:1d:34:35:
         8d:05:b5:f0:1b:b3:4f:f7:10:dc:cc:11:4a:72:c0:99:30:30:
         64:07:d1:0e:5c:df:88:ab:c8:55:79:ae:9c:18:1d:a4:d6:a0:
         ed:7e:95:a2:f7:87:34:58:f1:02:11:7c:13:50:7c:5b:fc:4e:
         f5:2a:63:a1:56:5b:60:1b:95:a3:77:d9:40:aa:70:e9:e0:87:
         e3:10:cc:d3:df:23:81:17:26:41:eb:d3:a9:c1:d7:5b:4a:25:
         0b:05:89:2e:d5:39:87:5b:e2:40:7a:8e:81:a1:af:e9:b8:81:
         39:89:c1:d0:7b:2e:d1:81:53:d9:7a:c9:1c:81:56:4c:d1:5e:
         00:4d:83:f3:87:af:fd:d9:fd:01:98:9b:a1:4f:ff:f6:64:42:
         e5:93:3b:c7:8e:e8:bd:11:e4:fc:55:a1:61:8a:78:2e:4a:cc:
         77:17:60:bd:5c:68:87:45:93:ce:3e:5b:52:8c:68:0b:46:e2:
         62:64:3c:e7:34:b5:9a:a0:a2:25:65:77:16:6d:94:5b:a2:e1:
         43:dd:bf:ab
-----BEGIN CERTIFICATE-----
MIIDXDCCAkSgAwIBAgIQFR08qDNAqytzigu3XgmOsjANBgkqhkiG9w0BAQsFADAW
MRQwEgYDVQQDDAt0ZWFtMzAzLW5ldDAeFw0yMjA1MTgyMDAwMDBaFw0yNTA1MDIy
MDAwMDBaMBkxFzAVBgNVBAMMDnRlYW0zMDMtY2xpZW50MIIBIjANBgkqhkiG9w0B
AQEFAAOCAQ8AMIIBCgKCAQEA40FoNYujFE1XSXuUvjgMWieefreboKdB9OR14LQM
BkLWHrJVsXwK/oQMQ8vzNANmGFYXZ2N41AgIxh0iRoCA2hDigFLhTw4Lm0AbUecE
JsZYnYGEgzPEsreTOFYvjatpOgkGowvZP7TGJubA1jAphbAG7o3vS+7O6Xa2Kkbt
tzA6Iz4utuwhRQI6J+QM9ctbEavvD8tDkPYnI2Oncio1hHRrN/sTV5R95ecruNe8
5nhIf+HGRyPzWeew6nXKfsB3rGUSHqdYIc1+li+h7Qa/GLDRFgvw/CE22VGgTFgV
cpw9gQQvGjFSEuYQ6j2PZeziQvjnf9y30m5zS+U9LgPE4QIDAQABo4GiMIGfMAkG
A1UdEwQCMAAwHQYDVR0OBBYEFPO2CgMkeFQyjlx9hSW+QfMmwYv0MFEGA1UdIwRK
MEiAFH8nOi6XzD/joKB/H/E/NXry86PooRqkGDAWMRQwEgYDVQQDDAt0ZWFtMzAz
LW5ldIIUYvnv/7f0L76cJ74+4ojD12QeGLEwEwYDVR0lBAwwCgYIKwYBBQUHAwIw
CwYDVR0PBAQDAgeAMA0GCSqGSIb3DQEBCwUAA4IBAQCD41BxBYh30lBF9Idc3/vt
57nu+6a1+L7EMke9y99Wp27aSV8BNxAttfuX3/QYOkOODYgdNDWNBbXwG7NP9xDc
zBFKcsCZMDBkB9EOXN+Iq8hVea6cGB2k1qDtfpWi94c0WPECEXwTUHxb/E71KmOh
VltgG5Wjd9lAqnDp4IfjEMzT3yOBFyZB69OpwddbSiULBYku1TmHW+JAeo6Boa/p
uIE5icHQey7RgVPZeskcgVZM0V4ATYPzh6/92f0BmJuhT//2ZELlkzvHjui9EeT8
VaFhinguSsx3F2C9XGiHRZPOPltSjGgLRuJiZDznNLWaoKIlZXcWbZRbouFD3b+r
-----END CERTIFICATE-----
