Certificate:
    Data:
        Version: 3 (0x2)
        Serial Number:
            03:8b:1b:c8:7a:f3:10:6e:a2:83:4b:7c:d3:f6:b7:df
        Signature Algorithm: sha256WithRSAEncryption
        Issuer: CN=team423-net
        Validity
            Not Before: May 18 21:04:59 2022 GMT
            Not After : May  2 21:04:59 2025 GMT
        Subject: CN=team423-server
        Subject Public Key Info:
            Public Key Algorithm: rsaEncryption
                RSA Public-Key: (2048 bit)
                Modulus:
                    00:bd:6c:cb:90:37:a0:ff:ae:87:b8:43:6f:ee:dc:
                    31:26:14:fb:28:fe:8c:ae:24:63:6a:30:88:10:ce:
                    ec:83:f0:6e:cf:70:e8:01:82:c0:5a:d8:cc:09:f8:
                    cd:64:c7:d0:ef:c7:f5:69:f4:fc:3b:1b:5d:32:ef:
                    68:11:61:7c:a2:65:fd:e2:4d:84:63:f0:08:bf:34:
                    8a:db:bd:91:41:d6:16:ea:e2:bd:9c:81:56:6f:47:
                    d6:16:2a:73:3e:cb:ca:c2:8f:33:fe:40:48:b6:df:
                    fa:23:d9:d4:e9:0c:2a:0c:39:a7:7e:b8:2e:00:91:
                    41:86:bc:72:f6:0d:ef:51:74:f8:4e:8c:74:2e:c8:
                    ea:19:88:5f:b2:f1:88:e2:45:f1:de:2e:3a:63:34:
                    5e:ad:bb:a9:c7:b2:47:39:84:f1:5c:95:e9:73:31:
                    40:20:d7:ae:7c:a5:53:12:30:30:0a:93:fe:ca:ea:
                    cd:08:fd:73:ee:57:a3:f1:21:e5:7b:a9:17:95:a5:
                    c1:df:52:d6:cb:ed:4d:3d:f6:3e:51:d8:55:b3:a2:
                    d7:97:84:6c:9c:f5:f9:e8:44:7b:af:89:0d:8c:fc:
                    fc:99:23:19:e0:cf:28:48:2c:4c:2e:54:a7:43:96:
                    98:cf:48:5a:22:25:d3:6d:66:2d:75:98:f2:3d:58:
                    06:a7
                Exponent: 65537 (0x10001)
        X509v3 extensions:
            X509v3 Basic Constraints: 
                CA:FALSE
            X509v3 Subject Key Identifier: 
                69:4C:AF:ED:25:CD:9D:48:DE:56:F7:9A:D2:59:C3:5B:B4:47:89:4E
            X509v3 Authority Key Identifier: 
                keyid:A1:7E:60:C0:14:42:62:F5:66:C1:F0:D5:3B:0F:BB:F1:34:EC:41:04
                DirName:/CN=team423-net
                serial:31:AA:57:93:C3:F5:45:6C:99:CD:2F:CA:70:18:24:EC:21:60:93:78

            X509v3 Extended Key Usage: 
                TLS Web Server Authentication
            X509v3 Key Usage: 
                Digital Signature, Key Encipherment
            X509v3 Subject Alternative Name: 
                DNS:team423-server
    Signature Algorithm: sha256WithRSAEncryption
         31:9e:8c:ab:89:bc:2d:93:d4:e9:8c:36:63:c3:31:c9:6c:f6:
         9d:c5:94:cf:e9:e4:62:bf:9c:48:8a:e3:4d:64:1c:c0:bb:36:
         7a:ac:71:63:c7:31:94:96:d9:1b:ce:c2:17:3f:c9:ec:0b:ff:
         a0:9a:e7:10:b5:ff:43:a0:6a:be:50:80:4b:02:dc:02:69:97:
         e4:16:2c:f3:cb:e1:6a:85:8c:0f:be:be:d6:d0:dd:8f:60:02:
         16:0a:10:a6:15:67:44:a1:f3:3d:89:fc:f5:7c:6e:99:1a:3d:
         25:bd:93:65:38:12:56:14:58:ef:b4:9b:e5:7a:a1:99:f3:1b:
         ef:4d:b0:1a:92:2c:d4:41:4c:d8:08:ee:9b:7b:90:5d:1b:2a:
         c8:a8:ff:1c:69:6e:af:3e:8c:64:8c:10:94:e7:78:4e:8c:08:
         da:03:d1:7d:dc:58:f1:a7:39:0a:66:50:b1:ae:fe:5d:ed:16:
         f8:91:7e:14:8b:f7:19:d5:e5:76:69:e0:92:26:b1:64:bb:44:
         62:7a:ab:3b:15:f9:22:8e:12:d0:c7:37:b6:d6:4e:cd:fc:68:
         99:83:66:16:b0:dd:a7:6d:6b:d9:5d:85:0e:93:10:53:b4:e5:
         d1:d0:ca:0f:a4:f1:b9:e5:97:93:7c:08:d8:4a:23:bc:a9:12:
         1c:0d:68:a6
-----BEGIN CERTIFICATE-----
MIIDdzCCAl+gAwIBAgIQA4sbyHrzEG6ig0t80/a33zANBgkqhkiG9w0BAQsFADAW
MRQwEgYDVQQDDAt0ZWFtNDIzLW5ldDAeFw0yMjA1MTgyMTA0NTlaFw0yNTA1MDIy
MTA0NTlaMBkxFzAVBgNVBAMMDnRlYW00MjMtc2VydmVyMIIBIjANBgkqhkiG9w0B
AQEFAAOCAQ8AMIIBCgKCAQEAvWzLkDeg/66HuENv7twxJhT7KP6MriRjajCIEM7s
g/Buz3DoAYLAWtjMCfjNZMfQ78f1afT8OxtdMu9oEWF8omX94k2EY/AIvzSK272R
QdYW6uK9nIFWb0fWFipzPsvKwo8z/kBItt/6I9nU6QwqDDmnfrguAJFBhrxy9g3v
UXT4Tox0LsjqGYhfsvGI4kXx3i46YzRerbupx7JHOYTxXJXpczFAINeufKVTEjAw
CpP+yurNCP1z7lej8SHle6kXlaXB31LWy+1NPfY+UdhVs6LXl4RsnPX56ER7r4kN
jPz8mSMZ4M8oSCxMLlSnQ5aYz0haIiXTbWYtdZjyPVgGpwIDAQABo4G9MIG6MAkG
A1UdEwQCMAAwHQYDVR0OBBYEFGlMr+0lzZ1I3lb3mtJZw1u0R4lOMFEGA1UdIwRK
MEiAFKF+YMAUQmL1ZsHw1TsPu/E07EEEoRqkGDAWMRQwEgYDVQQDDAt0ZWFtNDIz
LW5ldIIUMapXk8P1RWyZzS/KcBgk7CFgk3gwEwYDVR0lBAwwCgYIKwYBBQUHAwEw
CwYDVR0PBAQDAgWgMBkGA1UdEQQSMBCCDnRlYW00MjMtc2VydmVyMA0GCSqGSIb3
DQEBCwUAA4IBAQAxnoyribwtk9TpjDZjwzHJbPadxZTP6eRiv5xIiuNNZBzAuzZ6
rHFjxzGUltkbzsIXP8nsC/+gmucQtf9DoGq+UIBLAtwCaZfkFizzy+FqhYwPvr7W
0N2PYAIWChCmFWdEofM9ifz1fG6ZGj0lvZNlOBJWFFjvtJvleqGZ8xvvTbAakizU
QUzYCO6be5BdGyrIqP8caW6vPoxkjBCU53hOjAjaA9F93FjxpzkKZlCxrv5d7Rb4
kX4Ui/cZ1eV2aeCSJrFku0Rieqs7FfkijhLQxze21k7N/GiZg2YWsN2nbWvZXYUO
kxBTtOXR0MoPpPG55ZeTfAjYSiO8qRIcDWim
-----END CERTIFICATE-----
