Certificate:
    Data:
        Version: 3 (0x2)
        Serial Number:
            7b:ce:94:57:5e:d8:35:78:60:81:a3:16:13:c7:27:d9
        Signature Algorithm: sha256WithRSAEncryption
        Issuer: CN=team423-net
        Validity
            Not Before: May 18 21:04:59 2022 GMT
            Not After : May  2 21:04:59 2025 GMT
        Subject: CN=team423-client
        Subject Public Key Info:
            Public Key Algorithm: rsaEncryption
                RSA Public-Key: (2048 bit)
                Modulus:
                    00:a4:8f:f3:a2:3e:02:d1:10:55:ae:3e:32:6a:d2:
                    50:7b:22:db:06:03:eb:93:50:77:3e:ef:e3:97:69:
                    db:45:43:08:80:ac:79:a3:6e:47:e5:54:55:b7:b6:
                    1f:84:50:72:f8:58:83:00:d7:99:ec:74:0d:c4:7c:
                    31:c4:1b:97:f8:06:ab:68:88:a2:b5:5c:90:71:69:
                    16:46:33:1e:50:ef:51:71:bc:61:65:0a:dd:aa:ba:
                    80:e7:b5:0d:86:17:15:63:a9:5b:0f:cb:05:5c:09:
                    21:8b:b6:1b:1e:25:05:af:64:ed:8b:71:5c:37:40:
                    6d:d8:cd:96:a2:14:77:d2:d9:1e:fc:51:b1:a1:33:
                    1a:f5:4b:0a:cd:d7:2c:8d:a0:67:d8:e4:d3:01:a3:
                    d9:d2:aa:c5:c7:4f:d2:6c:44:4f:6c:0f:e1:e6:df:
                    c2:48:aa:86:51:1f:6c:ec:82:fd:b7:fc:ab:71:f6:
                    32:cf:85:3e:1e:cc:4d:b9:c3:b8:8a:85:e7:d9:ca:
                    5c:b4:87:c9:f9:93:60:32:7a:2d:f3:b9:e9:b8:c2:
                    a8:4c:ef:2a:87:78:95:e7:be:b2:a3:64:1e:38:0e:
                    40:81:ce:b6:98:df:ef:5e:b0:38:26:14:20:ba:95:
                    55:93:f2:fa:9e:b4:81:40:a6:3a:f2:5b:f0:bd:ab:
                    21:4b
                Exponent: 65537 (0x10001)
        X509v3 extensions:
            X509v3 Basic Constraints: 
                CA:FALSE
            X509v3 Subject Key Identifier: 
                FB:29:03:34:AE:96:58:2A:D9:A7:3E:01:C0:F5:83:71:EE:40:53:6E
            X509v3 Authority Key Identifier: 
                keyid:A1:7E:60:C0:14:42:62:F5:66:C1:F0:D5:3B:0F:BB:F1:34:EC:41:04
                DirName:/CN=team423-net
                serial:31:AA:57:93:C3:F5:45:6C:99:CD:2F:CA:70:18:24:EC:21:60:93:78

            X509v3 Extended Key Usage: 
                TLS Web Client Authentication
            X509v3 Key Usage: 
                Digital Signature
    Signature Algorithm: sha256WithRSAEncryption
         46:5c:4b:4e:4e:61:ee:9c:85:4b:90:26:23:1c:f2:f1:49:1f:
         99:d3:37:fe:50:75:a5:24:9f:e6:db:77:bc:d8:a5:de:c3:51:
         1e:45:5f:c9:6f:12:ad:41:58:4c:e3:23:f2:e8:44:06:44:c7:
         a6:8f:45:87:ef:6f:69:53:77:9d:a9:9e:d4:4d:5d:8d:5b:61:
         14:c8:3d:c5:79:44:4c:c2:c1:53:1b:ed:d6:d2:fb:cb:c3:10:
         e8:27:be:74:00:7d:3e:f0:3f:bc:c9:c3:21:1c:d8:46:8a:16:
         ae:95:eb:f4:8b:8a:23:0c:4f:0c:37:59:98:2b:90:8a:06:80:
         46:be:ad:2e:76:fd:73:7f:e5:13:b5:4f:0c:18:67:78:53:6d:
         3c:00:2a:27:24:0a:ee:1b:15:1b:a0:9a:a7:20:5e:45:ac:00:
         05:b5:ef:b5:7b:86:98:c8:b2:ea:3d:dd:77:61:76:0d:7d:40:
         30:58:9b:e9:86:96:3b:9d:bb:92:89:9a:5a:2a:04:7f:52:33:
         ba:c6:d8:c4:4d:c4:dc:c2:bf:c3:9e:36:7c:64:7a:ee:f3:c0:
         32:21:a6:45:85:39:48:89:c9:ad:9d:b2:75:b8:3f:1c:81:9a:
         34:a3:68:03:01:d3:b0:03:35:09:bd:44:cb:0c:a9:11:68:a8:
         5d:48:95:db
-----BEGIN CERTIFICATE-----
MIIDXDCCAkSgAwIBAgIQe86UV17YNXhggaMWE8cn2TANBgkqhkiG9w0BAQsFADAW
MRQwEgYDVQQDDAt0ZWFtNDIzLW5ldDAeFw0yMjA1MTgyMTA0NTlaFw0yNTA1MDIy
MTA0NTlaMBkxFzAVBgNVBAMMDnRlYW00MjMtY2xpZW50MIIBIjANBgkqhkiG9w0B
AQEFAAOCAQ8AMIIBCgKCAQEApI/zoj4C0RBVrj4yatJQeyLbBgPrk1B3Pu/jl2nb
RUMIgKx5o25H5VRVt7YfhFBy+FiDANeZ7HQNxHwxxBuX+AaraIiitVyQcWkWRjMe
UO9RcbxhZQrdqrqA57UNhhcVY6lbD8sFXAkhi7YbHiUFr2Tti3FcN0Bt2M2WohR3
0tke/FGxoTMa9UsKzdcsjaBn2OTTAaPZ0qrFx0/SbERPbA/h5t/CSKqGUR9s7IL9
t/yrcfYyz4U+HsxNucO4ioXn2cpctIfJ+ZNgMnot87npuMKoTO8qh3iV576yo2Qe
OA5Agc62mN/vXrA4JhQgupVVk/L6nrSBQKY68lvwvashSwIDAQABo4GiMIGfMAkG
A1UdEwQCMAAwHQYDVR0OBBYEFPspAzSullgq2ac+AcD1g3HuQFNuMFEGA1UdIwRK
MEiAFKF+YMAUQmL1ZsHw1TsPu/E07EEEoRqkGDAWMRQwEgYDVQQDDAt0ZWFtNDIz
LW5ldIIUMapXk8P1RWyZzS/KcBgk7CFgk3gwEwYDVR0lBAwwCgYIKwYBBQUHAwIw
CwYDVR0PBAQDAgeAMA0GCSqGSIb3DQEBCwUAA4IBAQBGXEtOTmHunIVLkCYjHPLx
SR+Z0zf+UHWlJJ/m23e82KXew1EeRV/JbxKtQVhM4yPy6EQGRMemj0WH729pU3ed
qZ7UTV2NW2EUyD3FeURMwsFTG+3W0vvLwxDoJ750AH0+8D+8ycMhHNhGihaulev0
i4ojDE8MN1mYK5CKBoBGvq0udv1zf+UTtU8MGGd4U208AConJAruGxUboJqnIF5F
rAAFte+1e4aYyLLqPd13YXYNfUAwWJvphpY7nbuSiZpaKgR/UjO6xtjETcTcwr/D
njZ8ZHru88AyIaZFhTlIicmtnbJ1uD8cgZo0o2gDAdOwAzUJvUTLDKkRaKhdSJXb
-----END CERTIFICATE-----
