Certificate:
    Data:
        Version: 3 (0x2)
        Serial Number:
            ba:5b:c8:bc:80:e5:c9:23:b1:60:cb:4d:bf:b2:c7:4a
        Signature Algorithm: sha256WithRSAEncryption
        Issuer: CN=team271-net
        Validity
            Not Before: May 18 19:40:27 2022 GMT
            Not After : May  2 19:40:27 2025 GMT
        Subject: CN=team271-client
        Subject Public Key Info:
            Public Key Algorithm: rsaEncryption
                RSA Public-Key: (2048 bit)
                Modulus:
                    00:d9:09:e8:61:91:ce:04:b2:31:dc:56:43:2c:fe:
                    fd:6c:5d:86:13:22:ee:46:1e:55:27:d7:b7:d5:8b:
                    f3:92:86:08:f8:ac:a3:cf:a3:0d:a8:b4:a7:2c:de:
                    d9:83:ba:9a:2c:d5:65:98:e1:c1:f7:12:09:da:3d:
                    2d:16:97:00:43:70:f9:9f:4f:f7:14:b2:6b:ff:64:
                    94:22:bf:17:37:ee:fe:20:d7:0c:da:b5:2c:2e:c1:
                    85:9d:56:e7:15:1f:6d:05:d8:57:d0:a6:0f:38:ac:
                    58:01:10:e2:51:df:28:a6:60:ba:96:17:03:34:f8:
                    f1:3d:ef:18:ac:9a:fa:29:cf:1f:26:26:6c:58:f1:
                    ce:e3:fa:56:e7:6e:50:53:a0:c3:3a:4e:0e:2d:57:
                    86:7e:db:18:5b:3c:eb:5d:0b:17:e4:71:e5:39:83:
                    e4:a2:f6:d7:02:4b:09:42:df:1f:3d:6d:f9:e4:98:
                    26:8d:89:ce:41:a5:5f:5e:c1:25:c6:b3:b3:77:1b:
                    17:1b:7f:15:d3:6c:5a:fb:fd:08:f2:00:41:8b:cb:
                    dc:ea:9d:34:4f:a5:f1:f9:6e:15:a8:89:e8:d6:e9:
                    93:a3:96:cf:49:e8:24:3e:15:4f:e9:85:08:3e:ca:
                    87:13:3a:f4:d9:89:03:f8:06:d4:91:41:13:9d:0c:
                    bd:39
                Exponent: 65537 (0x10001)
        X509v3 extensions:
            X509v3 Basic Constraints: 
                CA:FALSE
            X509v3 Subject Key Identifier: 
                02:B5:4C:06:05:36:5C:3A:A4:0B:2C:9D:AD:97:48:39:AB:2D:FD:DF
            X509v3 Authority Key Identifier: 
                keyid:F0:92:3B:25:20:70:6F:12:4B:55:4A:38:82:81:10:30:A4:64:35:6B
                DirName:/CN=team271-net
                serial:79:23:D4:25:31:EA:78:25:71:8B:27:DA:F0:1E:95:04:EB:61:3A:9F

            X509v3 Extended Key Usage: 
                TLS Web Client Authentication
            X509v3 Key Usage: 
                Digital Signature
    Signature Algorithm: sha256WithRSAEncryption
         28:8d:f3:7b:7f:c0:99:6b:d1:02:e3:c0:69:02:ba:44:d8:8c:
         93:91:38:23:42:7d:40:8f:9b:bb:b7:f9:f0:a8:52:54:a7:9c:
         14:c0:bf:21:80:db:2d:58:c5:d4:df:ef:1f:fd:d6:0b:2c:0e:
         26:89:25:b5:64:3f:c3:08:ce:5b:93:86:7c:38:eb:43:38:45:
         18:12:ff:4b:1a:55:50:98:1d:4d:aa:e4:b9:2f:bc:95:50:02:
         66:92:14:30:c9:b6:2b:17:fe:dc:e5:50:00:58:ce:79:16:33:
         31:3c:0d:1b:3f:9c:f8:b4:8e:96:e2:ae:5d:c6:f7:47:09:b8:
         90:10:2c:d7:3e:75:b9:62:d5:c7:44:0a:58:a0:4e:d1:6c:da:
         67:7d:d8:ef:3a:4f:ba:58:89:ed:05:a9:0c:d6:17:93:62:b1:
         9e:bd:53:2f:5d:f6:a9:8e:f5:56:3c:16:48:62:12:b4:ff:4a:
         ec:d9:e1:58:d5:ad:c9:84:44:36:af:ff:77:11:fd:81:c5:d2:
         9a:22:78:e3:a5:5a:a8:a4:c1:9f:0e:c3:d9:ea:29:75:7e:b3:
         6c:74:2b:16:c0:76:19:4d:ec:4b:43:3a:93:1b:6a:5c:cb:0c:
         ec:e6:ec:2c:c6:69:47:d7:03:37:7a:97:e2:6d:74:57:e9:46:
         3f:a3:78:56
-----BEGIN CERTIFICATE-----
MIIDXTCCAkWgAwIBAgIRALpbyLyA5ckjsWDLTb+yx0owDQYJKoZIhvcNAQELBQAw
FjEUMBIGA1UEAwwLdGVhbTI3MS1uZXQwHhcNMjIwNTE4MTk0MDI3WhcNMjUwNTAy
MTk0MDI3WjAZMRcwFQYDVQQDDA50ZWFtMjcxLWNsaWVudDCCASIwDQYJKoZIhvcN
AQEBBQADggEPADCCAQoCggEBANkJ6GGRzgSyMdxWQyz+/WxdhhMi7kYeVSfXt9WL
85KGCPiso8+jDai0pyze2YO6mizVZZjhwfcSCdo9LRaXAENw+Z9P9xSya/9klCK/
Fzfu/iDXDNq1LC7BhZ1W5xUfbQXYV9CmDzisWAEQ4lHfKKZgupYXAzT48T3vGKya
+inPHyYmbFjxzuP6VuduUFOgwzpODi1Xhn7bGFs8610LF+Rx5TmD5KL21wJLCULf
Hz1t+eSYJo2JzkGlX17BJcazs3cbFxt/FdNsWvv9CPIAQYvL3OqdNE+l8fluFaiJ
6Nbpk6OWz0noJD4VT+mFCD7KhxM69NmJA/gG1JFBE50MvTkCAwEAAaOBojCBnzAJ
BgNVHRMEAjAAMB0GA1UdDgQWBBQCtUwGBTZcOqQLLJ2tl0g5qy393zBRBgNVHSME
SjBIgBTwkjslIHBvEktVSjiCgRAwpGQ1a6EapBgwFjEUMBIGA1UEAwwLdGVhbTI3
MS1uZXSCFHkj1CUx6nglcYsn2vAelQTrYTqfMBMGA1UdJQQMMAoGCCsGAQUFBwMC
MAsGA1UdDwQEAwIHgDANBgkqhkiG9w0BAQsFAAOCAQEAKI3ze3/AmWvRAuPAaQK6
RNiMk5E4I0J9QI+bu7f58KhSVKecFMC/IYDbLVjF1N/vH/3WCywOJokltWQ/wwjO
W5OGfDjrQzhFGBL/SxpVUJgdTarkuS+8lVACZpIUMMm2Kxf+3OVQAFjOeRYzMTwN
Gz+c+LSOluKuXcb3Rwm4kBAs1z51uWLVx0QKWKBO0WzaZ33Y7zpPuliJ7QWpDNYX
k2Kxnr1TL132qY71VjwWSGIStP9K7NnhWNWtyYRENq//dxH9gcXSmiJ446VaqKTB
nw7D2eopdX6zbHQrFsB2GU3sS0M6kxtqXMsM7ObsLMZpR9cDN3qX4m10V+lGP6N4
Vg==
-----END CERTIFICATE-----
