Certificate:
    Data:
        Version: 3 (0x2)
        Serial Number:
            f0:3b:1a:b3:3d:89:01:ad:95:b6:44:ac:8a:54:2e:b0
        Signature Algorithm: sha256WithRSAEncryption
        Issuer: CN=team218-net
        Validity
            Not Before: May 18 19:10:22 2022 GMT
            Not After : May  2 19:10:22 2025 GMT
        Subject: CN=team218-client
        Subject Public Key Info:
            Public Key Algorithm: rsaEncryption
                RSA Public-Key: (2048 bit)
                Modulus:
                    00:9e:6f:24:af:ac:69:5f:78:09:3c:42:ac:65:31:
                    2b:b4:1d:66:7f:6e:03:eb:9d:80:16:86:d9:18:1c:
                    8f:fb:5a:b4:96:1f:0a:79:37:f8:df:27:9c:17:5d:
                    61:2f:a9:e6:ce:05:a9:d4:51:19:39:a6:9c:02:cf:
                    3b:b7:18:d9:3b:e6:8d:8d:18:3b:ad:cc:2f:3d:b0:
                    52:e3:11:44:21:d7:df:2e:d7:29:18:9b:b3:40:e6:
                    0d:16:51:63:28:28:6c:49:08:b7:4c:d7:07:ff:50:
                    06:00:fb:29:c6:b0:cf:ea:59:fe:95:92:1a:88:cd:
                    00:a4:f1:3d:7d:ae:9f:b9:74:2c:66:31:81:71:1d:
                    4c:82:e6:0e:cf:06:ee:a7:51:69:60:07:d6:7d:ca:
                    26:a7:72:ba:1f:c4:80:4d:27:59:7c:c2:65:48:84:
                    94:d0:91:b0:7c:39:3d:47:ee:03:42:d1:55:5b:fe:
                    b1:0f:e1:b8:3c:1f:1c:e5:68:ea:eb:a3:fe:b8:a4:
                    1a:4b:32:3b:34:e9:61:0d:9e:c4:45:8f:8a:5b:f2:
                    c1:4c:fb:85:72:de:0d:f5:48:68:ae:8c:ca:78:cf:
                    83:0b:63:e1:18:02:23:d7:2e:c4:b8:3f:d1:0b:79:
                    6b:70:5b:39:e4:60:74:b2:64:6f:7c:17:63:ac:a7:
                    3f:31
                Exponent: 65537 (0x10001)
        X509v3 extensions:
            X509v3 Basic Constraints: 
                CA:FALSE
            X509v3 Subject Key Identifier: 
                FF:5A:89:B2:18:2E:FD:12:23:18:4E:BF:6A:D6:82:ED:03:9B:5B:8F
            X509v3 Authority Key Identifier: 
                keyid:16:EF:96:8D:05:4F:12:DE:57:05:62:EE:02:A7:29:54:21:E1:08:43
                DirName:/CN=team218-net
                serial:56:9A:68:7B:3E:51:64:A1:05:45:15:39:EA:01:92:00:50:6D:51:9D

            X509v3 Extended Key Usage: 
                TLS Web Client Authentication
            X509v3 Key Usage: 
                Digital Signature
    Signature Algorithm: sha256WithRSAEncryption
         b6:36:79:df:f5:3c:dd:84:a9:4f:3c:c7:ce:1b:ee:1d:4d:27:
         e3:ab:b7:1f:e5:d4:23:04:f4:6e:a7:c0:31:13:b2:02:43:78:
         7c:6f:53:f4:77:25:70:6e:96:ac:8f:77:1c:17:03:dd:b6:06:
         aa:bb:04:4c:da:0c:7f:83:f4:df:bf:47:b0:55:d3:b2:a3:03:
         3d:bb:7a:fb:f2:25:eb:5f:85:06:67:ab:30:84:8c:14:23:d0:
         73:ad:c2:c3:eb:be:d5:9e:39:0c:c3:26:b5:33:3e:2e:59:28:
         48:df:d2:c5:24:f6:67:ef:17:bd:d5:d2:77:38:bd:51:53:e2:
         9e:2d:de:a5:8b:83:9d:7d:90:dc:e1:75:25:fa:3a:e2:73:a4:
         86:ca:5e:0f:e6:48:25:a3:ad:d9:2c:d6:b4:a5:16:3c:9a:37:
         04:9f:df:b1:d7:86:72:37:d9:5b:71:30:64:f4:8a:03:c1:eb:
         29:89:03:c9:fe:e2:ba:3e:d1:13:6a:f5:a7:fb:98:a6:c0:4c:
         98:ec:d4:17:99:52:92:13:4f:32:a8:b9:0c:6b:da:90:25:6d:
         6e:a1:85:0f:e3:4b:7b:c1:57:f1:08:31:8f:b2:81:2c:58:fa:
         2d:8b:26:a3:90:58:66:42:85:e9:f1:79:98:8a:72:36:62:4d:
         c7:3c:bc:47
-----BEGIN CERTIFICATE-----
MIIDXTCCAkWgAwIBAgIRAPA7GrM9iQGtlbZErIpULrAwDQYJKoZIhvcNAQELBQAw
FjEUMBIGA1UEAwwLdGVhbTIxOC1uZXQwHhcNMjIwNTE4MTkxMDIyWhcNMjUwNTAy
MTkxMDIyWjAZMRcwFQYDVQQDDA50ZWFtMjE4LWNsaWVudDCCASIwDQYJKoZIhvcN
AQEBBQADggEPADCCAQoCggEBAJ5vJK+saV94CTxCrGUxK7QdZn9uA+udgBaG2Rgc
j/tatJYfCnk3+N8nnBddYS+p5s4FqdRRGTmmnALPO7cY2TvmjY0YO63MLz2wUuMR
RCHX3y7XKRibs0DmDRZRYygobEkIt0zXB/9QBgD7Kcawz+pZ/pWSGojNAKTxPX2u
n7l0LGYxgXEdTILmDs8G7qdRaWAH1n3KJqdyuh/EgE0nWXzCZUiElNCRsHw5PUfu
A0LRVVv+sQ/huDwfHOVo6uuj/rikGksyOzTpYQ2exEWPilvywUz7hXLeDfVIaK6M
ynjPgwtj4RgCI9cuxLg/0Qt5a3BbOeRgdLJkb3wXY6ynPzECAwEAAaOBojCBnzAJ
BgNVHRMEAjAAMB0GA1UdDgQWBBT/WomyGC79EiMYTr9q1oLtA5tbjzBRBgNVHSME
SjBIgBQW75aNBU8S3lcFYu4CpylUIeEIQ6EapBgwFjEUMBIGA1UEAwwLdGVhbTIx
OC1uZXSCFFaaaHs+UWShBUUVOeoBkgBQbVGdMBMGA1UdJQQMMAoGCCsGAQUFBwMC
MAsGA1UdDwQEAwIHgDANBgkqhkiG9w0BAQsFAAOCAQEAtjZ53/U83YSpTzzHzhvu
HU0n46u3H+XUIwT0bqfAMROyAkN4fG9T9HclcG6WrI93HBcD3bYGqrsETNoMf4P0
379HsFXTsqMDPbt6+/Il61+FBmerMISMFCPQc63Cw+u+1Z45DMMmtTM+LlkoSN/S
xST2Z+8XvdXSdzi9UVPini3epYuDnX2Q3OF1Jfo64nOkhspeD+ZIJaOt2SzWtKUW
PJo3BJ/fsdeGcjfZW3EwZPSKA8HrKYkDyf7iuj7RE2r1p/uYpsBMmOzUF5lSkhNP
Mqi5DGvakCVtbqGFD+NLe8FX8Qgxj7KBLFj6LYsmo5BYZkKF6fF5mIpyNmJNxzy8
Rw==
-----END CERTIFICATE-----
