Certificate:
    Data:
        Version: 3 (0x2)
        Serial Number:
            38:57:c6:4e:02:c4:02:77:76:f2:b1:41:18:51:aa:69
        Signature Algorithm: sha256WithRSAEncryption
        Issuer: CN=team388-net
        Validity
            Not Before: May 18 20:55:24 2022 GMT
            Not After : May  2 20:55:24 2025 GMT
        Subject: CN=team388-server
        Subject Public Key Info:
            Public Key Algorithm: rsaEncryption
                RSA Public-Key: (2048 bit)
                Modulus:
                    00:bc:7b:42:09:4f:37:8c:fe:ce:de:99:f2:d5:af:
                    e4:d9:75:50:8a:0e:dc:c0:60:40:df:fd:30:02:af:
                    67:1a:7e:29:35:da:2d:88:ef:23:b2:ae:61:b0:c0:
                    b3:1f:06:96:4a:5b:12:cf:05:81:28:0e:78:22:c9:
                    99:2f:dc:3e:88:6d:b0:f7:6c:6c:19:48:09:1f:41:
                    3e:7d:62:36:45:4b:5c:f2:36:46:ab:de:7d:e0:40:
                    b4:1e:93:cd:af:bf:55:10:11:d6:5c:97:44:c7:ba:
                    6c:26:3c:b9:1a:3f:89:b0:60:0f:24:15:f9:38:8f:
                    d2:b6:c6:29:de:09:55:32:16:ea:ca:9f:a2:12:7b:
                    fa:55:7f:d1:f8:4b:db:9f:c8:47:6a:6e:b0:0d:06:
                    ff:78:f9:7f:43:e1:b9:fa:ab:b4:36:a2:47:52:e8:
                    df:f1:4e:3f:31:c4:74:ab:b0:14:24:5a:43:d9:8a:
                    0e:89:14:fb:a7:08:56:5a:be:68:0c:51:ab:0e:92:
                    d1:5a:8b:54:1a:4f:4c:b5:05:c3:c4:6d:f2:f9:c3:
                    82:08:c0:e4:35:8e:01:a8:45:f6:a8:47:db:01:94:
                    62:68:90:68:b9:b8:a0:f3:c9:95:13:42:53:d9:20:
                    0a:f1:cd:2c:0a:92:22:89:99:46:30:09:0b:93:b5:
                    f9:65
                Exponent: 65537 (0x10001)
        X509v3 extensions:
            X509v3 Basic Constraints: 
                CA:FALSE
            X509v3 Subject Key Identifier: 
                05:66:12:86:F4:EB:1E:40:E2:62:B0:49:77:B4:A2:BF:35:BF:F7:81
            X509v3 Authority Key Identifier: 
                keyid:E3:BA:01:A9:B9:D7:84:22:F0:C4:E0:AE:E9:12:E7:07:83:1F:39:F8
                DirName:/CN=team388-net
                serial:6E:B1:0E:07:4D:1F:E5:C8:C6:5E:AB:66:22:AB:40:8E:14:F2:EC:8C

            X509v3 Extended Key Usage: 
                TLS Web Server Authentication
            X509v3 Key Usage: 
                Digital Signature, Key Encipherment
            X509v3 Subject Alternative Name: 
                DNS:team388-server
    Signature Algorithm: sha256WithRSAEncryption
         0c:76:d1:3f:b5:e2:34:fd:f3:a0:87:0b:e4:91:af:ae:f3:df:
         60:e4:63:1f:8a:f3:1a:50:ad:6b:4d:88:24:55:3f:54:1d:64:
         81:96:15:b3:04:e0:b8:e3:91:e6:e5:a3:48:69:c8:9c:e0:dd:
         6a:f5:8e:a7:b6:77:e0:2e:4f:4c:a3:bf:64:84:e4:cf:83:ac:
         c1:d6:71:12:77:9f:60:96:58:cd:d4:8a:f3:54:7b:4b:ad:bd:
         dc:c0:94:10:5e:84:bd:07:cb:d5:20:50:80:ca:0c:58:61:32:
         40:97:dd:0e:46:34:cf:ab:b5:f4:91:f2:33:4e:9f:58:36:ad:
         3b:86:41:6c:1a:30:86:f0:09:f2:a2:e4:14:97:58:b7:ed:3d:
         5b:a9:15:8d:b3:e8:50:d7:d3:b6:ce:63:f9:40:6b:09:f7:9b:
         9e:c6:ac:89:ee:b4:9e:5a:f3:0d:ba:36:da:ac:30:f1:76:f5:
         d2:87:05:76:29:fe:6e:bd:f1:19:99:cc:f1:f9:db:42:bf:53:
         24:8c:df:66:01:05:13:94:c0:30:d0:b8:13:83:d1:20:83:1e:
         b7:a6:22:3d:16:70:82:ca:e5:1a:d6:95:81:99:6c:ac:66:e8:
         e0:6c:41:71:4f:3e:ef:6d:a4:63:62:78:e4:5b:37:57:42:07:
         11:cc:56:9d
-----BEGIN CERTIFICATE-----
MIIDdzCCAl+gAwIBAgIQOFfGTgLEAnd28rFBGFGqaTANBgkqhkiG9w0BAQsFADAW
MRQwEgYDVQQDDAt0ZWFtMzg4LW5ldDAeFw0yMjA1MTgyMDU1MjRaFw0yNTA1MDIy
MDU1MjRaMBkxFzAVBgNVBAMMDnRlYW0zODgtc2VydmVyMIIBIjANBgkqhkiG9w0B
AQEFAAOCAQ8AMIIBCgKCAQEAvHtCCU83jP7O3pny1a/k2XVQig7cwGBA3/0wAq9n
Gn4pNdotiO8jsq5hsMCzHwaWSlsSzwWBKA54IsmZL9w+iG2w92xsGUgJH0E+fWI2
RUtc8jZGq9594EC0HpPNr79VEBHWXJdEx7psJjy5Gj+JsGAPJBX5OI/StsYp3glV
Mhbqyp+iEnv6VX/R+Evbn8hHam6wDQb/ePl/Q+G5+qu0NqJHUujf8U4/McR0q7AU
JFpD2YoOiRT7pwhWWr5oDFGrDpLRWotUGk9MtQXDxG3y+cOCCMDkNY4BqEX2qEfb
AZRiaJBoubig88mVE0JT2SAK8c0sCpIiiZlGMAkLk7X5ZQIDAQABo4G9MIG6MAkG
A1UdEwQCMAAwHQYDVR0OBBYEFAVmEob06x5A4mKwSXe0or81v/eBMFEGA1UdIwRK
MEiAFOO6Aam514Qi8MTgrukS5weDHzn4oRqkGDAWMRQwEgYDVQQDDAt0ZWFtMzg4
LW5ldIIUbrEOB00f5cjGXqtmIqtAjhTy7IwwEwYDVR0lBAwwCgYIKwYBBQUHAwEw
CwYDVR0PBAQDAgWgMBkGA1UdEQQSMBCCDnRlYW0zODgtc2VydmVyMA0GCSqGSIb3
DQEBCwUAA4IBAQAMdtE/teI0/fOghwvkka+u899g5GMfivMaUK1rTYgkVT9UHWSB
lhWzBOC445Hm5aNIacic4N1q9Y6ntnfgLk9Mo79khOTPg6zB1nESd59glljN1Irz
VHtLrb3cwJQQXoS9B8vVIFCAygxYYTJAl90ORjTPq7X0kfIzTp9YNq07hkFsGjCG
8AnyouQUl1i37T1bqRWNs+hQ19O2zmP5QGsJ95uexqyJ7rSeWvMNujbarDDxdvXS
hwV2Kf5uvfEZmczx+dtCv1MkjN9mAQUTlMAw0LgTg9Eggx63piI9FnCCyuUa1pWB
mWysZujgbEFxTz7vbaRjYnjkWzdXQgcRzFad
-----END CERTIFICATE-----
