Certificate:
    Data:
        Version: 3 (0x2)
        Serial Number:
            01:ca:39:de:10:d9:9b:55:30:fd:b6:5f:9f:20:00:45
        Signature Algorithm: sha256WithRSAEncryption
        Issuer: CN=team87-net
        Validity
            Not Before: May 18 14:41:01 2022 GMT
            Not After : May  2 14:41:01 2025 GMT
        Subject: CN=team87-server
        Subject Public Key Info:
            Public Key Algorithm: rsaEncryption
                RSA Public-Key: (2048 bit)
                Modulus:
                    00:e3:6b:91:91:99:73:38:87:db:76:b6:45:c2:2e:
                    55:63:a1:ae:53:c9:0e:91:00:69:24:a9:a4:a2:67:
                    4c:6f:2e:0a:9d:28:e0:1f:ca:01:a4:72:a3:18:0a:
                    f4:3c:85:19:4c:8d:61:92:e3:88:ef:e8:d4:13:a1:
                    dc:5f:50:be:81:20:5b:0d:cf:1a:1a:93:b1:9c:c4:
                    22:df:a7:d6:fd:58:c5:2a:10:7c:e5:b9:26:fe:1a:
                    f5:45:67:58:0a:97:50:5f:10:34:fd:b8:fc:bf:f1:
                    db:4f:de:77:7c:72:f0:5f:8c:96:6d:cb:2d:7e:37:
                    ae:a6:36:d5:4e:67:91:ba:33:35:2c:8c:c2:5b:2d:
                    d7:1a:c3:c9:b9:89:90:39:47:76:04:de:4d:00:42:
                    7c:10:12:72:95:95:52:95:30:0d:f6:80:b8:57:5e:
                    37:e5:37:cc:a4:15:1f:29:34:2a:9b:46:53:2c:00:
                    b3:5f:39:5a:81:a2:80:9c:f6:ea:94:77:b7:ca:cf:
                    bf:7e:d5:9d:d9:55:c8:f3:f1:d7:50:44:1a:45:4f:
                    f1:b8:b8:d6:82:8f:71:92:d5:4b:19:bf:f2:bf:e1:
                    96:8d:bc:70:a2:85:f3:18:7c:89:dc:0c:25:49:e6:
                    8d:4d:08:f2:64:f2:02:68:c4:81:11:0c:af:87:10:
                    35:ff
                Exponent: 65537 (0x10001)
        X509v3 extensions:
            X509v3 Basic Constraints: 
                CA:FALSE
            X509v3 Subject Key Identifier: 
                5F:6C:04:FA:5D:E9:31:46:05:1B:1D:A2:D0:5D:98:10:70:C6:35:A1
            X509v3 Authority Key Identifier: 
                keyid:7B:AB:D0:C7:5C:15:CD:4D:A9:88:C6:89:92:74:87:B2:25:FC:58:8F
                DirName:/CN=team87-net
                serial:20:FC:2C:AF:D1:51:AD:9D:AE:74:50:3E:38:32:EB:2D:FF:F0:FC:2F

            X509v3 Extended Key Usage: 
                TLS Web Server Authentication
            X509v3 Key Usage: 
                Digital Signature, Key Encipherment
            X509v3 Subject Alternative Name: 
                DNS:team87-server
    Signature Algorithm: sha256WithRSAEncryption
         6e:74:b9:78:07:9a:2c:26:a9:ce:37:fc:3e:16:a6:dd:23:c3:
         99:32:c5:bc:ac:a9:2b:a3:bc:ac:a3:f0:4d:e7:8c:de:f7:47:
         b8:4d:4a:55:b0:73:29:c4:da:de:dd:c5:94:1e:6f:9a:ea:40:
         4c:0f:2e:53:26:73:0e:ca:b3:16:e2:99:bc:de:34:ec:85:cb:
         d0:b5:3e:a4:ac:ca:ed:e6:f6:19:d7:be:61:ab:38:04:3e:c6:
         65:30:9a:16:78:04:09:9c:4f:2b:6e:51:96:c4:28:c7:81:fe:
         7e:37:1d:ee:75:5a:db:32:2d:8b:aa:c5:bf:68:4c:f4:e4:09:
         2b:91:05:dd:86:72:93:28:c0:65:57:1b:8b:c6:b0:17:f1:7c:
         35:53:7f:1e:bf:fa:30:76:e1:c0:60:69:fa:eb:fc:32:66:bf:
         d1:23:79:76:51:33:5d:ef:49:b3:a1:95:87:61:d3:d4:51:e1:
         1c:00:a1:fc:b6:44:cd:9e:96:23:67:8a:0b:a4:68:50:79:5d:
         cb:e7:1d:08:06:14:7b:ff:80:8b:aa:46:5d:5e:bb:27:f8:20:
         40:75:36:dc:02:67:5f:53:e6:ea:88:d5:f0:22:ab:2a:1d:ff:
         5e:6e:a6:65:c2:d0:1e:2a:af:8b:da:16:ae:65:84:ff:7b:5b:
         a3:fa:22:55
-----BEGIN CERTIFICATE-----
MIIDczCCAlugAwIBAgIQAco53hDZm1Uw/bZfnyAARTANBgkqhkiG9w0BAQsFADAV
MRMwEQYDVQQDDAp0ZWFtODctbmV0MB4XDTIyMDUxODE0NDEwMVoXDTI1MDUwMjE0
NDEwMVowGDEWMBQGA1UEAwwNdGVhbTg3LXNlcnZlcjCCASIwDQYJKoZIhvcNAQEB
BQADggEPADCCAQoCggEBAONrkZGZcziH23a2RcIuVWOhrlPJDpEAaSSppKJnTG8u
Cp0o4B/KAaRyoxgK9DyFGUyNYZLjiO/o1BOh3F9QvoEgWw3PGhqTsZzEIt+n1v1Y
xSoQfOW5Jv4a9UVnWAqXUF8QNP24/L/x20/ed3xy8F+Mlm3LLX43rqY21U5nkboz
NSyMwlst1xrDybmJkDlHdgTeTQBCfBAScpWVUpUwDfaAuFdeN+U3zKQVHyk0KptG
UywAs185WoGigJz26pR3t8rPv37VndlVyPPx11BEGkVP8bi41oKPcZLVSxm/8r/h
lo28cKKF8xh8idwMJUnmjU0I8mTyAmjEgREMr4cQNf8CAwEAAaOBuzCBuDAJBgNV
HRMEAjAAMB0GA1UdDgQWBBRfbAT6XekxRgUbHaLQXZgQcMY1oTBQBgNVHSMESTBH
gBR7q9DHXBXNTamIxomSdIeyJfxYj6EZpBcwFTETMBEGA1UEAwwKdGVhbTg3LW5l
dIIUIPwsr9FRrZ2udFA+ODLrLf/w/C8wEwYDVR0lBAwwCgYIKwYBBQUHAwEwCwYD
VR0PBAQDAgWgMBgGA1UdEQQRMA+CDXRlYW04Ny1zZXJ2ZXIwDQYJKoZIhvcNAQEL
BQADggEBAG50uXgHmiwmqc43/D4Wpt0jw5kyxbysqSujvKyj8E3njN73R7hNSlWw
cynE2t7dxZQeb5rqQEwPLlMmcw7KsxbimbzeNOyFy9C1PqSsyu3m9hnXvmGrOAQ+
xmUwmhZ4BAmcTytuUZbEKMeB/n43He51WtsyLYuqxb9oTPTkCSuRBd2GcpMowGVX
G4vGsBfxfDVTfx6/+jB24cBgafrr/DJmv9EjeXZRM13vSbOhlYdh09RR4RwAofy2
RM2eliNnigukaFB5XcvnHQgGFHv/gIuqRl1euyf4IEB1NtwCZ19T5uqI1fAiqyod
/15upmXC0B4qr4vaFq5lhP97W6P6IlU=
-----END CERTIFICATE-----
