Certificate:
    Data:
        Version: 3 (0x2)
        Serial Number:
            06:57:f5:75:cd:b7:0c:f4:7e:89:66:86:8a:e6:46:cc
        Signature Algorithm: sha256WithRSAEncryption
        Issuer: CN=team87-net
        Validity
            Not Before: May 18 14:41:00 2022 GMT
            Not After : May  2 14:41:00 2025 GMT
        Subject: CN=team87-client
        Subject Public Key Info:
            Public Key Algorithm: rsaEncryption
                RSA Public-Key: (2048 bit)
                Modulus:
                    00:d1:49:b6:30:85:57:b3:d7:2a:52:88:a9:00:5f:
                    93:2b:61:92:44:28:f8:2f:8c:10:af:83:50:db:53:
                    43:39:60:c6:c2:aa:8e:6f:85:fb:7a:f5:1c:3f:25:
                    e7:c2:c6:cf:3c:d3:73:64:8d:a6:43:99:66:f7:26:
                    e6:c0:1a:c9:2e:c9:f3:0d:73:6a:6b:d1:9d:1d:dd:
                    26:4c:90:a0:77:6e:b7:bb:07:c3:fd:e9:9e:a5:7a:
                    67:c4:48:c1:ee:2a:08:f5:4d:95:93:c1:6c:f1:85:
                    7f:7f:9a:85:32:1f:a1:2e:9f:da:e7:1f:8d:ed:15:
                    ba:4b:b7:78:de:68:bf:9a:34:b8:f4:96:a8:40:da:
                    2e:3c:ff:a6:0b:1f:bc:40:7b:3b:a7:a9:48:82:bd:
                    f6:02:bb:b6:a2:70:e4:3a:b9:14:5e:02:dd:e7:67:
                    85:21:af:31:c6:95:34:03:d5:06:dc:c2:1f:a4:8f:
                    d1:16:eb:b1:62:e3:f5:d5:9c:e7:84:2f:00:d7:cd:
                    1c:7e:3a:0c:37:5c:d6:5b:4d:cb:94:3d:4b:36:48:
                    34:4a:24:96:42:41:b3:db:72:6a:70:42:8d:e1:49:
                    b1:96:71:19:a4:1e:cd:c4:61:bb:4a:6b:cf:50:ab:
                    0d:2e:c4:76:80:a8:c7:70:7d:c8:91:51:e7:d8:e7:
                    ed:03
                Exponent: 65537 (0x10001)
        X509v3 extensions:
            X509v3 Basic Constraints: 
                CA:FALSE
            X509v3 Subject Key Identifier: 
                99:41:94:1C:06:46:56:00:39:11:C0:59:D4:86:76:1E:39:83:A1:E2
            X509v3 Authority Key Identifier: 
                keyid:7B:AB:D0:C7:5C:15:CD:4D:A9:88:C6:89:92:74:87:B2:25:FC:58:8F
                DirName:/CN=team87-net
                serial:20:FC:2C:AF:D1:51:AD:9D:AE:74:50:3E:38:32:EB:2D:FF:F0:FC:2F

            X509v3 Extended Key Usage: 
                TLS Web Client Authentication
            X509v3 Key Usage: 
                Digital Signature
    Signature Algorithm: sha256WithRSAEncryption
         73:c4:93:5f:87:00:a8:d8:62:8d:ca:9a:4e:1d:07:e6:cc:a4:
         c6:7a:b9:a7:49:5a:7f:c3:7c:35:9f:d9:8a:96:f7:d5:de:05:
         4a:3d:30:fd:0d:dd:14:23:35:0e:9b:a6:b9:7b:01:08:49:8f:
         23:5a:5c:4a:68:b3:e6:e9:fb:ee:1c:1c:39:1a:c3:3d:81:1d:
         59:8a:51:49:e8:61:2f:b2:23:79:0f:8e:22:00:75:e3:4f:94:
         fa:9e:a6:59:d6:3d:a6:6b:71:7c:33:9b:02:88:64:a8:28:f6:
         03:22:6e:8f:ef:d3:06:70:9a:15:d2:f9:c4:32:63:57:a1:bc:
         35:d6:ee:80:4d:75:bf:dd:64:8d:68:32:54:62:35:ad:ea:31:
         3e:c1:33:4b:28:3e:3c:14:4a:7b:4d:7c:88:91:f0:d0:6c:91:
         e1:e7:e2:33:03:e2:84:1c:db:61:1e:38:f2:70:71:92:f0:77:
         e4:77:b9:c2:b0:5c:fb:ce:de:78:38:fc:02:40:45:50:b2:c5:
         ce:82:20:1a:6f:f2:66:c5:22:74:37:62:87:f3:9b:2e:5a:27:
         fb:71:2e:f7:72:00:e4:09:bb:86:48:10:8a:b6:76:c1:cb:c1:
         ce:50:06:82:da:84:21:f0:a5:3a:40:11:3f:7b:12:0d:d9:5e:
         4a:d8:74:72
-----BEGIN CERTIFICATE-----
MIIDWTCCAkGgAwIBAgIQBlf1dc23DPR+iWaGiuZGzDANBgkqhkiG9w0BAQsFADAV
MRMwEQYDVQQDDAp0ZWFtODctbmV0MB4XDTIyMDUxODE0NDEwMFoXDTI1MDUwMjE0
NDEwMFowGDEWMBQGA1UEAwwNdGVhbTg3LWNsaWVudDCCASIwDQYJKoZIhvcNAQEB
BQADggEPADCCAQoCggEBANFJtjCFV7PXKlKIqQBfkythkkQo+C+MEK+DUNtTQzlg
xsKqjm+F+3r1HD8l58LGzzzTc2SNpkOZZvcm5sAayS7J8w1zamvRnR3dJkyQoHdu
t7sHw/3pnqV6Z8RIwe4qCPVNlZPBbPGFf3+ahTIfoS6f2ucfje0Vuku3eN5ov5o0
uPSWqEDaLjz/pgsfvEB7O6epSIK99gK7tqJw5Dq5FF4C3ednhSGvMcaVNAPVBtzC
H6SP0RbrsWLj9dWc54QvANfNHH46DDdc1ltNy5Q9SzZINEoklkJBs9tyanBCjeFJ
sZZxGaQezcRhu0prz1CrDS7EdoCox3B9yJFR59jn7QMCAwEAAaOBoTCBnjAJBgNV
HRMEAjAAMB0GA1UdDgQWBBSZQZQcBkZWADkRwFnUhnYeOYOh4jBQBgNVHSMESTBH
gBR7q9DHXBXNTamIxomSdIeyJfxYj6EZpBcwFTETMBEGA1UEAwwKdGVhbTg3LW5l
dIIUIPwsr9FRrZ2udFA+ODLrLf/w/C8wEwYDVR0lBAwwCgYIKwYBBQUHAwIwCwYD
VR0PBAQDAgeAMA0GCSqGSIb3DQEBCwUAA4IBAQBzxJNfhwCo2GKNyppOHQfmzKTG
ermnSVp/w3w1n9mKlvfV3gVKPTD9Dd0UIzUOm6a5ewEISY8jWlxKaLPm6fvuHBw5
GsM9gR1ZilFJ6GEvsiN5D44iAHXjT5T6nqZZ1j2ma3F8M5sCiGSoKPYDIm6P79MG
cJoV0vnEMmNXobw11u6ATXW/3WSNaDJUYjWt6jE+wTNLKD48FEp7TXyIkfDQbJHh
5+IzA+KEHNthHjjycHGS8Hfkd7nCsFz7zt54OPwCQEVQssXOgiAab/JmxSJ0N2KH
85suWif7cS73cgDkCbuGSBCKtnbBy8HOUAaC2oQh8KU6QBE/exIN2V5K2HRy
-----END CERTIFICATE-----
