Certificate:
    Data:
        Version: 3 (0x2)
        Serial Number:
            f3:eb:52:ea:e2:3c:97:f2:44:6c:15:d3:ce:0a:39:03
        Signature Algorithm: sha256WithRSAEncryption
        Issuer: CN=team743-net
        Validity
            Not Before: May 19 00:08:17 2022 GMT
            Not After : May  3 00:08:17 2025 GMT
        Subject: CN=team743-server
        Subject Public Key Info:
            Public Key Algorithm: rsaEncryption
                RSA Public-Key: (2048 bit)
                Modulus:
                    00:cb:2f:37:11:68:b5:bf:f0:55:20:c6:f1:ce:df:
                    d6:a7:8b:e0:b9:dc:30:a5:fe:9c:48:d7:97:df:76:
                    7f:87:a6:6f:44:ba:ae:6f:d6:a1:4f:1d:22:e7:ec:
                    b8:46:4b:08:01:40:d6:c2:bc:88:4a:11:e5:2b:37:
                    32:d3:f9:15:f4:ac:59:17:ce:c3:50:17:85:83:b0:
                    e8:85:2c:95:f0:11:49:17:b9:8c:eb:92:15:48:11:
                    d9:85:38:ef:d9:62:bf:78:ab:87:af:d3:ab:3f:db:
                    ff:b2:af:fe:d6:b2:fd:57:c3:4a:e9:e6:ba:d4:4b:
                    94:bb:e5:8b:f2:82:10:b1:18:24:db:e8:bd:ed:ed:
                    0f:60:90:b7:49:f4:14:ca:ba:66:b3:c9:d1:58:bb:
                    67:3d:d7:11:bb:1e:86:e8:cd:cc:e2:b0:c2:61:98:
                    89:a3:82:c1:9d:82:34:38:46:e2:c1:82:71:d6:03:
                    da:95:8f:27:4f:5f:3d:61:93:6c:99:60:67:08:09:
                    57:f6:7c:4c:ed:14:14:49:2f:06:b8:a9:27:8c:80:
                    6b:00:dc:be:e5:e4:5b:79:c8:60:5c:22:ee:98:c4:
                    97:74:b7:32:45:9b:a0:34:fd:41:82:ba:8b:a0:b9:
                    82:17:5d:4a:b9:6f:b8:0f:5b:49:b9:4a:b4:e3:6f:
                    ba:57
                Exponent: 65537 (0x10001)
        X509v3 extensions:
            X509v3 Basic Constraints: 
                CA:FALSE
            X509v3 Subject Key Identifier: 
                F6:73:98:5F:CB:E1:EF:28:3B:39:89:02:04:1C:75:44:62:28:64:EE
            X509v3 Authority Key Identifier: 
                keyid:6E:49:D4:A6:AA:61:6C:D8:8F:D3:25:7B:4F:1F:A5:BE:35:D0:97:B3
                DirName:/CN=team743-net
                serial:6C:7C:08:E0:01:30:FE:B8:43:50:0A:CD:C1:C2:FB:17:06:34:C3:64

            X509v3 Extended Key Usage: 
                TLS Web Server Authentication
            X509v3 Key Usage: 
                Digital Signature, Key Encipherment
            X509v3 Subject Alternative Name: 
                DNS:team743-server
    Signature Algorithm: sha256WithRSAEncryption
         05:78:2a:5f:2c:82:d6:64:6c:51:75:68:90:78:d5:88:27:a8:
         b5:87:d1:6e:c0:2d:db:72:a5:32:8d:9f:95:eb:0a:cc:f7:bf:
         31:45:17:78:56:6e:ed:7f:6c:2d:3a:5b:54:21:ff:9c:57:f9:
         95:0c:c0:32:62:f8:e6:5a:df:0f:ee:de:70:6a:fe:4f:23:3b:
         e3:6c:5b:60:4f:7c:df:19:67:c5:e7:4f:64:b5:46:b2:ea:f8:
         16:58:d9:39:90:68:fc:77:6f:1d:02:c2:f7:35:9e:5e:55:8f:
         88:f5:16:27:12:a5:72:03:c7:84:2a:e1:17:c6:82:3f:23:91:
         fa:ad:4d:b1:bf:eb:8d:29:85:4b:09:6e:c1:b9:4b:67:e8:96:
         ff:84:14:a6:83:3b:65:d2:ee:52:83:07:8f:1b:67:ba:39:cf:
         a6:5e:1a:68:a3:8b:64:2a:c8:6b:78:4d:9d:5b:14:97:05:e9:
         11:25:f7:f8:72:a5:71:ef:6c:3b:7f:b4:1b:36:52:63:78:3f:
         77:a3:a1:54:aa:d6:be:c7:70:38:78:e7:4b:8e:06:4a:0f:3e:
         93:ce:8b:bb:d2:f3:92:a8:84:65:5a:12:ed:89:61:52:52:a8:
         ad:a5:5d:fb:34:24:0b:99:60:2c:96:04:d5:0c:38:9a:eb:f9:
         9d:07:7b:73
-----BEGIN CERTIFICATE-----
MIIDeDCCAmCgAwIBAgIRAPPrUuriPJfyRGwV084KOQMwDQYJKoZIhvcNAQELBQAw
FjEUMBIGA1UEAwwLdGVhbTc0My1uZXQwHhcNMjIwNTE5MDAwODE3WhcNMjUwNTAz
MDAwODE3WjAZMRcwFQYDVQQDDA50ZWFtNzQzLXNlcnZlcjCCASIwDQYJKoZIhvcN
AQEBBQADggEPADCCAQoCggEBAMsvNxFotb/wVSDG8c7f1qeL4LncMKX+nEjXl992
f4emb0S6rm/WoU8dIufsuEZLCAFA1sK8iEoR5Ss3MtP5FfSsWRfOw1AXhYOw6IUs
lfARSRe5jOuSFUgR2YU479liv3irh6/Tqz/b/7Kv/tay/VfDSunmutRLlLvli/KC
ELEYJNvove3tD2CQt0n0FMq6ZrPJ0Vi7Zz3XEbsehujNzOKwwmGYiaOCwZ2CNDhG
4sGCcdYD2pWPJ09fPWGTbJlgZwgJV/Z8TO0UFEkvBripJ4yAawDcvuXkW3nIYFwi
7pjEl3S3MkWboDT9QYK6i6C5ghddSrlvuA9bSblKtONvulcCAwEAAaOBvTCBujAJ
BgNVHRMEAjAAMB0GA1UdDgQWBBT2c5hfy+HvKDs5iQIEHHVEYihk7jBRBgNVHSME
SjBIgBRuSdSmqmFs2I/TJXtPH6W+NdCXs6EapBgwFjEUMBIGA1UEAwwLdGVhbTc0
My1uZXSCFGx8COABMP64Q1AKzcHC+xcGNMNkMBMGA1UdJQQMMAoGCCsGAQUFBwMB
MAsGA1UdDwQEAwIFoDAZBgNVHREEEjAQgg50ZWFtNzQzLXNlcnZlcjANBgkqhkiG
9w0BAQsFAAOCAQEABXgqXyyC1mRsUXVokHjViCeotYfRbsAt23KlMo2flesKzPe/
MUUXeFZu7X9sLTpbVCH/nFf5lQzAMmL45lrfD+7ecGr+TyM742xbYE983xlnxedP
ZLVGsur4FljZOZBo/HdvHQLC9zWeXlWPiPUWJxKlcgPHhCrhF8aCPyOR+q1Nsb/r
jSmFSwluwblLZ+iW/4QUpoM7ZdLuUoMHjxtnujnPpl4aaKOLZCrIa3hNnVsUlwXp
ESX3+HKlce9sO3+0GzZSY3g/d6OhVKrWvsdwOHjnS44GSg8+k86Lu9LzkqiEZVoS
7YlhUlKoraVd+zQkC5lgLJYE1Qw4muv5nQd7cw==
-----END CERTIFICATE-----
