Certificate:
    Data:
        Version: 3 (0x2)
        Serial Number:
            ac:93:b9:f1:13:3b:94:ca:b6:1e:05:80:9d:8a:3d:93
        Signature Algorithm: sha256WithRSAEncryption
        Issuer: CN=team66-net
        Validity
            Not Before: May 18 14:29:05 2022 GMT
            Not After : May  2 14:29:05 2025 GMT
        Subject: CN=team66-server
        Subject Public Key Info:
            Public Key Algorithm: rsaEncryption
                RSA Public-Key: (2048 bit)
                Modulus:
                    00:ef:05:91:6a:63:ac:e8:c5:13:1e:6c:df:4a:c1:
                    4d:6e:03:c4:d8:4d:60:0f:55:9b:ff:74:9f:35:9e:
                    fb:72:29:f0:7d:d5:70:c7:04:4b:a5:a8:94:3b:d5:
                    2e:9c:83:6a:0b:fb:94:d1:66:2f:c4:48:fc:d4:7f:
                    3d:2e:c0:39:6f:fd:9e:bd:51:b5:6d:88:8e:04:f3:
                    ee:07:66:1e:58:08:14:35:14:8c:20:f6:d3:83:1d:
                    d5:fe:a1:7f:bc:8d:52:9a:89:ca:bc:fb:af:05:ef:
                    c3:f9:8b:d3:3c:bd:26:2f:d2:e5:84:a2:10:36:ba:
                    1a:1a:6d:e8:6a:54:f7:e2:ef:51:a9:c9:d2:e7:33:
                    05:6f:16:18:aa:04:7f:92:ed:49:f0:ff:2b:93:8f:
                    b0:37:8a:94:77:c1:a2:69:3d:03:5a:4d:21:24:66:
                    dc:46:09:ba:42:19:88:a3:6f:2d:48:83:0a:b8:e2:
                    b0:07:1a:56:27:94:38:e6:7a:4b:35:36:a5:ee:78:
                    26:50:02:ba:04:6c:87:bf:b2:72:ac:54:39:0b:20:
                    3e:94:87:ae:6b:2c:a2:b3:ce:52:ee:8c:d0:f9:e7:
                    8a:91:4d:92:c2:a0:25:6d:11:f6:b2:f2:97:55:66:
                    fc:62:a1:13:c1:bb:7b:87:55:ea:6e:c4:90:c0:22:
                    0c:af
                Exponent: 65537 (0x10001)
        X509v3 extensions:
            X509v3 Basic Constraints: 
                CA:FALSE
            X509v3 Subject Key Identifier: 
                A1:9D:86:C2:85:71:EC:E7:6A:77:89:DA:83:BF:17:EB:B9:B2:F1:5C
            X509v3 Authority Key Identifier: 
                keyid:6C:57:03:A0:80:B6:27:2C:D7:6A:08:88:06:EA:8C:97:C0:2E:2A:EE
                DirName:/CN=team66-net
                serial:05:00:01:31:A5:FE:DC:FA:26:0D:12:3F:C3:32:F8:73:15:2C:EF:D6

            X509v3 Extended Key Usage: 
                TLS Web Server Authentication
            X509v3 Key Usage: 
                Digital Signature, Key Encipherment
            X509v3 Subject Alternative Name: 
                DNS:team66-server
    Signature Algorithm: sha256WithRSAEncryption
         03:50:97:64:3e:3f:06:0d:b6:d7:f1:fa:d9:a6:71:d1:14:f2:
         b4:11:77:73:a5:80:a2:a7:65:68:71:28:a1:25:a3:8d:06:83:
         24:01:eb:0d:1b:11:17:69:de:85:c6:41:0b:b1:53:5d:e0:26:
         72:df:c6:a6:8d:ac:a8:6d:df:ae:f9:7b:07:9b:de:3a:82:cf:
         c0:1c:8f:ff:d4:98:ff:ab:3b:fb:50:fc:11:af:5f:2c:6d:05:
         ef:16:49:9d:26:37:2c:66:5c:b2:95:ac:c6:ba:42:64:ac:a1:
         71:08:16:b2:87:5f:b5:a1:3b:ea:12:c9:5a:8d:cc:03:29:0f:
         b1:fe:1d:0c:7d:48:42:0d:c1:57:5e:6a:09:00:bc:44:55:56:
         97:83:1c:3c:33:40:3e:05:43:2d:35:61:5a:71:a2:c4:1d:f0:
         9f:8b:73:da:1b:83:e5:7d:dd:3f:32:02:c5:29:f5:14:ac:02:
         74:6a:13:da:e7:02:11:51:75:4b:ce:e2:ab:9b:7c:8e:0e:ba:
         b2:08:ed:a2:a2:0e:86:18:65:34:80:52:48:1a:42:a0:93:b7:
         b3:b4:bf:e1:b5:e2:9c:61:4a:b1:21:62:87:d3:82:dd:aa:09:
         01:57:7e:53:45:60:8f:88:f0:d5:3c:28:d6:f4:d2:92:4c:80:
         f4:fe:52:89
-----BEGIN CERTIFICATE-----
MIIDdDCCAlygAwIBAgIRAKyTufETO5TKth4FgJ2KPZMwDQYJKoZIhvcNAQELBQAw
FTETMBEGA1UEAwwKdGVhbTY2LW5ldDAeFw0yMjA1MTgxNDI5MDVaFw0yNTA1MDIx
NDI5MDVaMBgxFjAUBgNVBAMMDXRlYW02Ni1zZXJ2ZXIwggEiMA0GCSqGSIb3DQEB
AQUAA4IBDwAwggEKAoIBAQDvBZFqY6zoxRMebN9KwU1uA8TYTWAPVZv/dJ81nvty
KfB91XDHBEulqJQ71S6cg2oL+5TRZi/ESPzUfz0uwDlv/Z69UbVtiI4E8+4HZh5Y
CBQ1FIwg9tODHdX+oX+8jVKaicq8+68F78P5i9M8vSYv0uWEohA2uhoabehqVPfi
71GpydLnMwVvFhiqBH+S7Unw/yuTj7A3ipR3waJpPQNaTSEkZtxGCbpCGYijby1I
gwq44rAHGlYnlDjmeks1NqXueCZQAroEbIe/snKsVDkLID6Uh65rLKKzzlLujND5
54qRTZLCoCVtEfay8pdVZvxioRPBu3uHVepuxJDAIgyvAgMBAAGjgbswgbgwCQYD
VR0TBAIwADAdBgNVHQ4EFgQUoZ2GwoVx7Odqd4nag78X67my8VwwUAYDVR0jBEkw
R4AUbFcDoIC2JyzXagiIBuqMl8AuKu6hGaQXMBUxEzARBgNVBAMMCnRlYW02Ni1u
ZXSCFAUAATGl/tz6Jg0SP8My+HMVLO/WMBMGA1UdJQQMMAoGCCsGAQUFBwMBMAsG
A1UdDwQEAwIFoDAYBgNVHREEETAPgg10ZWFtNjYtc2VydmVyMA0GCSqGSIb3DQEB
CwUAA4IBAQADUJdkPj8GDbbX8frZpnHRFPK0EXdzpYCip2VocSihJaONBoMkAesN
GxEXad6FxkELsVNd4CZy38amjayobd+u+XsHm946gs/AHI//1Jj/qzv7UPwRr18s
bQXvFkmdJjcsZlyylazGukJkrKFxCBayh1+1oTvqEslajcwDKQ+x/h0MfUhCDcFX
XmoJALxEVVaXgxw8M0A+BUMtNWFacaLEHfCfi3PaG4Plfd0/MgLFKfUUrAJ0ahPa
5wIRUXVLzuKrm3yODrqyCO2iog6GGGU0gFJIGkKgk7eztL/hteKcYUqxIWKH04Ld
qgkBV35TRWCPiPDVPCjW9NKSTID0/lKJ
-----END CERTIFICATE-----
