Certificate:
    Data:
        Version: 3 (0x2)
        Serial Number:
            5e:30:af:0a:a0:d6:ed:9c:a8:aa:03:97:ce:fb:d4:6c
        Signature Algorithm: sha256WithRSAEncryption
        Issuer: CN=team670-net
        Validity
            Not Before: May 18 23:31:15 2022 GMT
            Not After : May  2 23:31:15 2025 GMT
        Subject: CN=team670-client
        Subject Public Key Info:
            Public Key Algorithm: rsaEncryption
                RSA Public-Key: (2048 bit)
                Modulus:
                    00:a9:c3:c8:7a:76:58:aa:b9:3b:de:19:3e:55:47:
                    e1:ac:47:1b:f5:d2:e4:92:41:e2:93:50:33:f3:72:
                    d8:a1:89:3b:05:64:ab:a2:36:d8:e8:a4:cb:9d:61:
                    8b:fa:3a:d3:d5:22:f0:27:6c:a0:86:dc:6f:78:09:
                    bb:d4:d4:46:7c:40:8c:71:3b:b7:a6:34:dc:98:6d:
                    22:19:6f:73:41:da:84:16:83:2c:d3:66:71:93:49:
                    09:74:42:9f:ff:b5:66:05:51:f4:38:0a:37:85:e5:
                    e1:ea:3b:03:66:4e:02:6f:67:2a:04:32:62:2b:16:
                    08:2f:b5:50:d1:c8:3c:58:7c:d5:48:f3:81:5f:d1:
                    c9:ba:79:0b:00:ab:fc:4e:34:29:6f:ba:77:39:1a:
                    1b:8e:71:92:b1:08:2a:40:3b:91:94:9a:2b:d8:e0:
                    e6:45:ed:f6:b8:c6:55:0c:a4:ce:52:8c:36:da:a5:
                    46:b0:0b:c2:c4:5f:5c:10:28:f8:ac:d0:49:07:bd:
                    81:cb:02:3d:f3:2d:12:80:a6:af:c5:cc:b1:1e:9c:
                    7f:f9:6c:df:79:8c:03:55:b4:d2:36:92:ba:ca:ec:
                    0a:c8:e2:99:13:be:91:b1:f0:50:1a:fa:13:3a:6f:
                    9f:0e:43:e6:23:38:86:a2:e0:be:a0:8c:74:fd:0e:
                    33:6d
                Exponent: 65537 (0x10001)
        X509v3 extensions:
            X509v3 Basic Constraints: 
                CA:FALSE
            X509v3 Subject Key Identifier: 
                34:48:4D:59:71:3F:68:FD:44:07:6F:4E:81:55:6A:D6:6C:84:CD:EA
            X509v3 Authority Key Identifier: 
                keyid:B6:E2:35:D4:09:65:DE:27:42:21:3C:77:A2:B2:62:F2:B5:1B:07:F2
                DirName:/CN=team670-net
                serial:5A:38:3A:39:6E:36:2F:8A:01:F2:FB:AD:A4:B2:98:C0:9C:55:7D:C6

            X509v3 Extended Key Usage: 
                TLS Web Client Authentication
            X509v3 Key Usage: 
                Digital Signature
    Signature Algorithm: sha256WithRSAEncryption
         c2:c5:35:e8:34:ff:c3:66:36:75:bf:2d:c9:e6:2b:04:1c:e6:
         20:9b:ba:91:33:0f:a6:58:f5:84:62:a0:46:f8:64:8b:a3:0a:
         f2:1f:2b:75:9a:71:c7:5f:0a:21:87:02:f6:05:31:ed:c7:75:
         e6:f7:96:ad:3b:d2:6b:ef:70:a5:4f:55:55:0f:bf:d6:e4:fb:
         a7:01:ea:33:68:8f:bb:9f:5b:e4:e7:dc:5d:38:ef:55:66:b3:
         f5:77:e6:67:b6:58:ea:c6:2a:6b:cb:02:a7:c7:b5:93:63:28:
         06:af:94:b5:79:c6:86:72:f3:49:fd:2b:75:dc:6a:5a:b4:a8:
         cb:cd:3a:8d:e1:5a:08:15:89:ba:f2:83:32:11:c8:b0:ac:c5:
         55:72:04:c0:8a:a0:6b:61:8b:d8:8d:6d:d7:bf:f3:f2:d3:0f:
         bd:ed:48:3f:b6:44:e8:9b:41:61:e3:69:ca:bf:1e:0d:90:77:
         4c:b0:6b:ff:1c:8b:e5:f3:86:18:0d:da:bb:db:61:04:85:45:
         5c:94:4c:2b:a7:d7:c7:cf:b6:ee:9e:c1:68:7d:f5:de:24:9c:
         8a:3d:ff:59:a0:a3:85:73:84:db:78:c3:f1:60:56:7c:e1:a3:
         09:64:ac:46:df:7f:c6:24:bd:51:88:bc:a5:c5:73:b8:99:3a:
         72:82:03:99
-----BEGIN CERTIFICATE-----
MIIDXDCCAkSgAwIBAgIQXjCvCqDW7ZyoqgOXzvvUbDANBgkqhkiG9w0BAQsFADAW
MRQwEgYDVQQDDAt0ZWFtNjcwLW5ldDAeFw0yMjA1MTgyMzMxMTVaFw0yNTA1MDIy
MzMxMTVaMBkxFzAVBgNVBAMMDnRlYW02NzAtY2xpZW50MIIBIjANBgkqhkiG9w0B
AQEFAAOCAQ8AMIIBCgKCAQEAqcPIenZYqrk73hk+VUfhrEcb9dLkkkHik1Az83LY
oYk7BWSrojbY6KTLnWGL+jrT1SLwJ2yghtxveAm71NRGfECMcTu3pjTcmG0iGW9z
QdqEFoMs02Zxk0kJdEKf/7VmBVH0OAo3heXh6jsDZk4Cb2cqBDJiKxYIL7VQ0cg8
WHzVSPOBX9HJunkLAKv8TjQpb7p3ORobjnGSsQgqQDuRlJor2ODmRe32uMZVDKTO
Uow22qVGsAvCxF9cECj4rNBJB72BywI98y0SgKavxcyxHpx/+WzfeYwDVbTSNpK6
yuwKyOKZE76RsfBQGvoTOm+fDkPmIziGouC+oIx0/Q4zbQIDAQABo4GiMIGfMAkG
A1UdEwQCMAAwHQYDVR0OBBYEFDRITVlxP2j9RAdvToFVatZshM3qMFEGA1UdIwRK
MEiAFLbiNdQJZd4nQiE8d6KyYvK1GwfyoRqkGDAWMRQwEgYDVQQDDAt0ZWFtNjcw
LW5ldIIUWjg6OW42L4oB8vutpLKYwJxVfcYwEwYDVR0lBAwwCgYIKwYBBQUHAwIw
CwYDVR0PBAQDAgeAMA0GCSqGSIb3DQEBCwUAA4IBAQDCxTXoNP/DZjZ1vy3J5isE
HOYgm7qRMw+mWPWEYqBG+GSLowryHyt1mnHHXwohhwL2BTHtx3Xm95atO9Jr73Cl
T1VVD7/W5PunAeozaI+7n1vk59xdOO9VZrP1d+ZntljqxiprywKnx7WTYygGr5S1
ecaGcvNJ/St13GpatKjLzTqN4VoIFYm68oMyEciwrMVVcgTAiqBrYYvYjW3Xv/Py
0w+97Ug/tkTom0Fh42nKvx4NkHdMsGv/HIvl84YYDdq722EEhUVclEwrp9fHz7bu
nsFoffXeJJyKPf9ZoKOFc4TbeMPxYFZ84aMJZKxG33/GJL1RiLylxXO4mTpyggOZ
-----END CERTIFICATE-----
