Certificate:
    Data:
        Version: 3 (0x2)
        Serial Number:
            05:6b:f1:b4:7b:c5:c0:f3:0a:1f:0f:ca:9d:d6:ae:88
        Signature Algorithm: sha256WithRSAEncryption
        Issuer: CN=team186-net
        Validity
            Not Before: May 18 18:53:42 2022 GMT
            Not After : May  2 18:53:42 2025 GMT
        Subject: CN=team186-client
        Subject Public Key Info:
            Public Key Algorithm: rsaEncryption
                RSA Public-Key: (2048 bit)
                Modulus:
                    00:af:e2:04:53:87:ec:dd:64:95:a9:97:2e:3a:69:
                    19:2a:ce:6d:00:1a:35:a3:7d:4f:72:08:f8:f6:2d:
                    ec:b4:e7:7d:f0:49:d7:62:fa:12:e3:7c:4d:ca:76:
                    6c:61:80:87:f0:75:67:aa:ff:29:54:8f:42:de:a4:
                    97:c7:76:f0:a4:2a:aa:af:b8:40:ff:2e:e6:3a:cc:
                    7f:fb:4d:14:52:2f:a6:fb:f0:49:9f:d7:36:64:af:
                    16:ee:45:71:12:cd:da:f5:0f:ea:cc:78:cc:44:06:
                    24:44:3e:54:d8:b7:c1:84:b8:2e:63:cb:af:ca:d6:
                    b7:04:d9:2f:b9:3a:e6:f2:a8:90:a9:b7:5b:ad:23:
                    00:6e:9c:78:e1:28:a7:67:e3:06:d3:da:29:1e:09:
                    3b:48:79:ae:fc:66:45:5d:58:fc:8c:15:b6:1d:7f:
                    ee:a5:a9:b7:c3:ce:09:fa:be:cc:16:4c:c9:69:60:
                    bf:66:c2:6a:71:6c:1b:70:7b:99:88:03:ca:6e:2e:
                    f3:6a:27:0a:3f:2e:90:96:71:6a:8e:0b:f1:0e:fc:
                    e9:fd:29:7f:69:64:98:5a:d0:e8:c1:be:b6:09:8f:
                    51:93:20:03:cf:dd:ea:b6:c9:a0:db:c8:43:e6:38:
                    5b:14:05:58:2a:b5:ea:3f:1e:f3:a1:92:0c:d1:07:
                    42:87
                Exponent: 65537 (0x10001)
        X509v3 extensions:
            X509v3 Basic Constraints: 
                CA:FALSE
            X509v3 Subject Key Identifier: 
                39:17:DA:A8:A6:5B:60:4E:E7:07:42:65:37:08:A3:A0:30:51:AF:A6
            X509v3 Authority Key Identifier: 
                keyid:55:FC:7F:72:6D:B3:5A:18:2C:05:2D:59:5E:5A:C6:5B:73:4C:31:5D
                DirName:/CN=team186-net
                serial:42:67:E5:FA:1E:B8:82:7D:5D:86:75:AA:2F:BE:51:65:5F:4D:5D:F5

            X509v3 Extended Key Usage: 
                TLS Web Client Authentication
            X509v3 Key Usage: 
                Digital Signature
    Signature Algorithm: sha256WithRSAEncryption
         86:19:43:c4:d5:b3:14:a8:c3:88:b8:f8:6b:a3:68:ba:fb:7d:
         f6:08:6e:e2:9f:5e:15:0b:3b:22:1e:6a:d3:b0:e5:c1:11:14:
         70:2f:61:47:d4:9b:72:4e:a9:c2:1c:ac:4c:cb:2e:07:71:18:
         94:ef:1c:48:d0:41:69:e1:1c:4e:31:4e:b0:5d:4a:85:04:f8:
         8d:ee:56:95:ea:29:e5:5c:c8:7b:4f:d6:09:7a:05:c4:0b:06:
         2e:18:d5:5a:18:67:96:42:37:36:84:f4:72:95:0e:c3:3a:d0:
         dc:93:d5:12:72:ad:87:b5:c7:4b:38:b5:f0:e0:72:e7:9f:69:
         43:2e:1e:8c:1b:f1:0b:6c:a5:25:e7:98:5e:1b:c2:71:8d:50:
         92:56:08:e0:cd:38:76:58:f6:5f:fb:5a:cb:d1:8a:65:43:d6:
         35:9f:7c:8d:a4:a6:51:78:37:a3:46:da:55:2a:64:57:9e:7e:
         5e:0a:92:0f:8f:26:62:29:60:f7:f6:01:c4:d0:fb:92:f7:6a:
         aa:b5:56:c0:49:e2:7e:3a:2d:3a:89:74:2e:2a:34:77:6b:c4:
         fa:ae:ae:97:f7:3b:bd:33:5c:83:e3:5c:81:a5:01:d5:9a:08:
         c4:3c:18:9c:31:49:97:c7:e8:d4:a6:7d:d4:ac:96:69:b7:f2:
         d0:6d:b0:d0
-----BEGIN CERTIFICATE-----
MIIDXDCCAkSgAwIBAgIQBWvxtHvFwPMKHw/KndauiDANBgkqhkiG9w0BAQsFADAW
MRQwEgYDVQQDDAt0ZWFtMTg2LW5ldDAeFw0yMjA1MTgxODUzNDJaFw0yNTA1MDIx
ODUzNDJaMBkxFzAVBgNVBAMMDnRlYW0xODYtY2xpZW50MIIBIjANBgkqhkiG9w0B
AQEFAAOCAQ8AMIIBCgKCAQEAr+IEU4fs3WSVqZcuOmkZKs5tABo1o31Pcgj49i3s
tOd98EnXYvoS43xNynZsYYCH8HVnqv8pVI9C3qSXx3bwpCqqr7hA/y7mOsx/+00U
Ui+m+/BJn9c2ZK8W7kVxEs3a9Q/qzHjMRAYkRD5U2LfBhLguY8uvyta3BNkvuTrm
8qiQqbdbrSMAbpx44SinZ+MG09opHgk7SHmu/GZFXVj8jBW2HX/upam3w84J+r7M
FkzJaWC/ZsJqcWwbcHuZiAPKbi7zaicKPy6QlnFqjgvxDvzp/Sl/aWSYWtDowb62
CY9RkyADz93qtsmg28hD5jhbFAVYKrXqPx7zoZIM0QdChwIDAQABo4GiMIGfMAkG
A1UdEwQCMAAwHQYDVR0OBBYEFDkX2qimW2BO5wdCZTcIo6AwUa+mMFEGA1UdIwRK
MEiAFFX8f3Jts1oYLAUtWV5axltzTDFdoRqkGDAWMRQwEgYDVQQDDAt0ZWFtMTg2
LW5ldIIUQmfl+h64gn1dhnWqL75RZV9NXfUwEwYDVR0lBAwwCgYIKwYBBQUHAwIw
CwYDVR0PBAQDAgeAMA0GCSqGSIb3DQEBCwUAA4IBAQCGGUPE1bMUqMOIuPhro2i6
+332CG7in14VCzsiHmrTsOXBERRwL2FH1JtyTqnCHKxMyy4HcRiU7xxI0EFp4RxO
MU6wXUqFBPiN7laV6inlXMh7T9YJegXECwYuGNVaGGeWQjc2hPRylQ7DOtDck9US
cq2HtcdLOLXw4HLnn2lDLh6MG/ELbKUl55heG8JxjVCSVgjgzTh2WPZf+1rL0Ypl
Q9Y1n3yNpKZReDejRtpVKmRXnn5eCpIPjyZiKWD39gHE0PuS92qqtVbASeJ+Oi06
iXQuKjR3a8T6rq6X9zu9M1yD41yBpQHVmgjEPBicMUmXx+jUpn3UrJZpt/LQbbDQ
-----END CERTIFICATE-----
