Certificate:
    Data:
        Version: 3 (0x2)
        Serial Number:
            7d:4d:d0:39:bf:eb:ac:2b:d7:e8:7b:26:eb:db:be:d6
        Signature Algorithm: sha256WithRSAEncryption
        Issuer: CN=team677-net
        Validity
            Not Before: May 18 23:18:51 2022 GMT
            Not After : May  2 23:18:51 2025 GMT
        Subject: CN=team677-server
        Subject Public Key Info:
            Public Key Algorithm: rsaEncryption
                RSA Public-Key: (2048 bit)
                Modulus:
                    00:d6:4c:a0:74:67:2b:5f:44:01:f9:f9:89:7c:5a:
                    09:a7:29:62:ea:0f:25:90:5e:47:6d:b8:b2:08:23:
                    f5:d4:5c:10:88:45:73:ff:94:43:59:f8:89:d1:e5:
                    c2:4b:59:f6:62:40:de:8f:11:77:41:a5:37:dc:55:
                    a9:7c:7d:45:82:b9:6d:a2:bb:72:97:c0:82:07:7e:
                    98:16:6b:ab:f0:b2:84:f4:9d:c4:5a:bd:85:6f:4e:
                    86:69:6a:16:ca:a6:da:b5:fe:b4:ad:02:f6:a7:d1:
                    2d:c9:bb:f9:a3:23:c3:42:31:62:42:95:d5:76:a4:
                    81:3f:78:82:ec:d9:1c:90:2b:25:82:06:a9:52:7e:
                    ed:b9:52:e3:c5:a6:72:5a:a2:f1:b8:33:a4:c0:28:
                    30:c6:d3:9e:00:1e:3e:7f:8b:e3:51:f7:42:43:60:
                    55:06:b1:b2:ba:7e:cf:ee:8f:de:61:a9:0e:42:05:
                    16:62:0f:c1:64:26:68:29:05:aa:d1:65:ac:b7:b6:
                    9d:cd:e4:86:bb:58:95:04:69:3a:91:0c:e0:e0:28:
                    59:ce:e5:23:52:28:34:1a:e8:7c:4f:ac:a2:19:cc:
                    72:50:03:14:84:c0:d1:a8:dd:4e:ea:7a:15:2e:2e:
                    a1:41:20:d2:66:33:fd:52:1f:9e:a9:10:0a:bd:c0:
                    b2:93
                Exponent: 65537 (0x10001)
        X509v3 extensions:
            X509v3 Basic Constraints: 
                CA:FALSE
            X509v3 Subject Key Identifier: 
                64:6B:83:CB:76:EE:77:7C:77:91:0B:BB:20:A1:B9:BE:91:DF:0A:3E
            X509v3 Authority Key Identifier: 
                keyid:D6:81:7A:EA:D6:98:60:FD:88:18:19:87:BF:72:72:17:EA:BA:61:FD
                DirName:/CN=team677-net
                serial:61:E4:DF:BF:1E:4A:8E:B9:FF:4D:8B:D3:6A:9C:63:45:80:82:44:5C

            X509v3 Extended Key Usage: 
                TLS Web Server Authentication
            X509v3 Key Usage: 
                Digital Signature, Key Encipherment
            X509v3 Subject Alternative Name: 
                DNS:team677-server
    Signature Algorithm: sha256WithRSAEncryption
         2c:ed:06:f5:35:16:61:50:34:cd:84:da:78:78:3f:43:d5:2d:
         3c:76:d2:87:02:cd:fd:2c:23:5c:35:1e:9e:da:2d:fa:49:ef:
         c0:ef:47:c5:3f:8d:7d:e5:34:41:99:bc:c0:72:e7:81:46:fe:
         d5:f5:20:79:fb:98:74:bc:ba:d8:23:f2:5e:ab:39:83:1b:d8:
         a2:05:2d:43:18:c6:99:7e:83:fb:c5:d7:1e:66:af:fd:30:05:
         3f:67:d4:e9:99:2a:04:69:8a:cb:36:9f:2a:7a:64:9a:4d:7f:
         04:3b:b9:3c:6e:f2:68:bf:55:85:53:65:3e:4f:74:f6:08:e4:
         62:3a:8c:95:69:8c:96:a9:df:c0:2d:e8:d6:09:39:91:fc:2e:
         8b:8a:3d:51:99:97:8a:5c:53:be:95:dc:76:11:07:2e:92:67:
         15:3d:12:7a:b6:f0:d1:b2:ec:df:c9:1a:f7:eb:ca:f9:20:f6:
         85:b7:1a:1d:2b:63:c3:54:77:9c:9e:8a:6c:40:71:df:fb:6c:
         59:39:26:f5:b4:89:c4:b3:e1:09:b0:21:75:de:7b:f5:38:0f:
         b5:1d:34:33:c0:13:c5:bb:c3:1e:4a:74:3e:ae:49:43:11:33:
         c1:c1:39:31:0e:a6:bb:c5:da:6f:2a:32:8d:ae:d8:9c:b3:54:
         76:da:6d:f2
-----BEGIN CERTIFICATE-----
MIIDdzCCAl+gAwIBAgIQfU3QOb/rrCvX6Hsm69u+1jANBgkqhkiG9w0BAQsFADAW
MRQwEgYDVQQDDAt0ZWFtNjc3LW5ldDAeFw0yMjA1MTgyMzE4NTFaFw0yNTA1MDIy
MzE4NTFaMBkxFzAVBgNVBAMMDnRlYW02Nzctc2VydmVyMIIBIjANBgkqhkiG9w0B
AQEFAAOCAQ8AMIIBCgKCAQEA1kygdGcrX0QB+fmJfFoJpyli6g8lkF5HbbiyCCP1
1FwQiEVz/5RDWfiJ0eXCS1n2YkDejxF3QaU33FWpfH1Fgrltortyl8CCB36YFmur
8LKE9J3EWr2Fb06GaWoWyqbatf60rQL2p9Etybv5oyPDQjFiQpXVdqSBP3iC7Nkc
kCslggapUn7tuVLjxaZyWqLxuDOkwCgwxtOeAB4+f4vjUfdCQ2BVBrGyun7P7o/e
YakOQgUWYg/BZCZoKQWq0WWst7adzeSGu1iVBGk6kQzg4ChZzuUjUig0Guh8T6yi
GcxyUAMUhMDRqN1O6noVLi6hQSDSZjP9Uh+eqRAKvcCykwIDAQABo4G9MIG6MAkG
A1UdEwQCMAAwHQYDVR0OBBYEFGRrg8t27nd8d5ELuyChub6R3wo+MFEGA1UdIwRK
MEiAFNaBeurWmGD9iBgZh79ychfqumH9oRqkGDAWMRQwEgYDVQQDDAt0ZWFtNjc3
LW5ldIIUYeTfvx5Kjrn/TYvTapxjRYCCRFwwEwYDVR0lBAwwCgYIKwYBBQUHAwEw
CwYDVR0PBAQDAgWgMBkGA1UdEQQSMBCCDnRlYW02Nzctc2VydmVyMA0GCSqGSIb3
DQEBCwUAA4IBAQAs7Qb1NRZhUDTNhNp4eD9D1S08dtKHAs39LCNcNR6e2i36Se/A
70fFP4195TRBmbzAcueBRv7V9SB5+5h0vLrYI/JeqzmDG9iiBS1DGMaZfoP7xdce
Zq/9MAU/Z9TpmSoEaYrLNp8qemSaTX8EO7k8bvJov1WFU2U+T3T2CORiOoyVaYyW
qd/ALejWCTmR/C6Lij1RmZeKXFO+ldx2EQcukmcVPRJ6tvDRsuzfyRr368r5IPaF
txodK2PDVHecnopsQHHf+2xZOSb1tInEs+EJsCF13nv1OA+1HTQzwBPFu8MeSnQ+
rklDETPBwTkxDqa7xdpvKjKNrtics1R22m3y
-----END CERTIFICATE-----
