Certificate:
    Data:
        Version: 3 (0x2)
        Serial Number:
            4d:e4:3f:bc:d0:62:14:74:52:5f:b4:d0:94:4c:1e:8e
        Signature Algorithm: sha256WithRSAEncryption
        Issuer: CN=team736-net
        Validity
            Not Before: May 19 00:06:13 2022 GMT
            Not After : May  3 00:06:13 2025 GMT
        Subject: CN=team736-server
        Subject Public Key Info:
            Public Key Algorithm: rsaEncryption
                RSA Public-Key: (2048 bit)
                Modulus:
                    00:ad:0d:45:5b:d1:7a:99:d7:d6:67:1b:d4:07:f5:
                    ea:1f:6c:8b:7c:64:ec:60:00:52:32:fc:fd:13:f8:
                    ee:25:6e:48:9b:4d:81:02:d8:aa:ad:d4:5d:4e:62:
                    11:0f:0b:a3:d1:a2:be:ac:0f:da:67:48:b7:3e:41:
                    a4:41:3b:d8:da:cc:c3:f3:3c:ec:8e:fd:ad:44:73:
                    be:00:1a:39:19:0b:31:cf:b5:12:57:be:ce:d4:a0:
                    ec:e9:70:63:38:07:90:56:4a:68:ff:25:97:be:68:
                    47:45:27:d1:06:98:ed:c3:0c:01:b1:21:f1:a2:18:
                    3e:6d:1b:56:aa:05:8d:de:91:98:3f:4b:f2:4e:5b:
                    01:72:4e:6e:5d:63:93:cb:12:fd:bf:29:54:8d:c2:
                    d1:e5:38:9a:b7:b2:68:99:6f:f2:f6:9f:1e:16:c5:
                    4a:d8:b0:56:40:0b:36:db:ce:6d:0b:60:fb:9b:81:
                    6c:9a:82:f5:dc:b5:32:a9:92:8d:81:85:f1:cf:3f:
                    59:e6:1b:14:16:60:26:8a:c0:c8:58:98:0a:0c:d2:
                    c2:d8:ce:5f:62:f3:dc:0b:22:c6:ff:c1:6b:a1:0a:
                    2a:3a:5a:a7:a2:f5:9b:38:f9:40:00:2d:ad:3e:b3:
                    cc:c7:60:58:fc:55:11:9c:96:92:e3:10:66:8c:c6:
                    29:b1
                Exponent: 65537 (0x10001)
        X509v3 extensions:
            X509v3 Basic Constraints: 
                CA:FALSE
            X509v3 Subject Key Identifier: 
                4C:E6:B5:77:E6:94:32:B1:BA:9B:57:35:94:15:A7:35:1E:4B:F1:7E
            X509v3 Authority Key Identifier: 
                keyid:37:B5:B8:17:72:C2:6D:95:D9:33:FB:E6:70:95:86:14:9F:CF:76:4A
                DirName:/CN=team736-net
                serial:2A:06:00:33:33:3D:50:0A:7F:A8:4F:59:05:98:A9:1B:02:57:34:33

            X509v3 Extended Key Usage: 
                TLS Web Server Authentication
            X509v3 Key Usage: 
                Digital Signature, Key Encipherment
            X509v3 Subject Alternative Name: 
                DNS:team736-server
    Signature Algorithm: sha256WithRSAEncryption
         6e:94:65:6f:24:19:c8:53:f2:9f:1f:f1:8d:91:73:43:22:eb:
         02:61:2a:e5:b6:fd:14:07:64:f5:9c:91:6c:c6:85:0b:b5:ff:
         20:fe:a7:e0:b8:3f:17:a4:d2:14:eb:8c:45:c7:7b:7b:58:95:
         29:2b:6d:d9:08:47:62:59:00:74:3e:a3:45:4d:52:7d:67:9b:
         c0:b2:b0:a8:ca:aa:c2:89:ce:f5:6d:99:9f:95:6a:02:ef:93:
         10:20:29:4b:3a:98:53:16:94:93:e1:b2:12:70:f2:ac:a2:44:
         45:98:06:26:06:b1:e5:05:3e:7e:35:67:58:d3:ba:e0:c0:c5:
         40:70:e8:84:ec:57:15:6b:fe:47:6c:e1:86:fa:15:bd:98:dd:
         37:17:ab:0b:75:62:65:f9:89:b2:79:89:87:15:75:95:64:a8:
         a9:ae:c5:93:d8:21:35:fb:61:e2:dc:a2:9c:55:2a:7d:e0:03:
         63:8c:d2:bd:ab:6e:84:3b:e6:0c:2c:d5:1c:e8:b2:ba:e2:0d:
         24:27:4d:62:66:a0:9a:4b:d5:6d:b8:4b:f1:d5:41:43:f1:ba:
         0e:0f:d8:a7:d3:5e:9d:c7:16:60:62:0a:44:17:05:09:82:93:
         8c:31:47:e3:4c:29:21:24:ae:e1:b9:3d:81:54:cc:c7:a2:5a:
         2f:bd:a5:b2
-----BEGIN CERTIFICATE-----
MIIDdzCCAl+gAwIBAgIQTeQ/vNBiFHRSX7TQlEwejjANBgkqhkiG9w0BAQsFADAW
MRQwEgYDVQQDDAt0ZWFtNzM2LW5ldDAeFw0yMjA1MTkwMDA2MTNaFw0yNTA1MDMw
MDA2MTNaMBkxFzAVBgNVBAMMDnRlYW03MzYtc2VydmVyMIIBIjANBgkqhkiG9w0B
AQEFAAOCAQ8AMIIBCgKCAQEArQ1FW9F6mdfWZxvUB/XqH2yLfGTsYABSMvz9E/ju
JW5Im02BAtiqrdRdTmIRDwuj0aK+rA/aZ0i3PkGkQTvY2szD8zzsjv2tRHO+ABo5
GQsxz7USV77O1KDs6XBjOAeQVkpo/yWXvmhHRSfRBpjtwwwBsSHxohg+bRtWqgWN
3pGYP0vyTlsBck5uXWOTyxL9vylUjcLR5Tiat7JomW/y9p8eFsVK2LBWQAs2285t
C2D7m4FsmoL13LUyqZKNgYXxzz9Z5hsUFmAmisDIWJgKDNLC2M5fYvPcCyLG/8Fr
oQoqOlqnovWbOPlAAC2tPrPMx2BY/FURnJaS4xBmjMYpsQIDAQABo4G9MIG6MAkG
A1UdEwQCMAAwHQYDVR0OBBYEFEzmtXfmlDKxuptXNZQVpzUeS/F+MFEGA1UdIwRK
MEiAFDe1uBdywm2V2TP75nCVhhSfz3ZKoRqkGDAWMRQwEgYDVQQDDAt0ZWFtNzM2
LW5ldIIUKgYAMzM9UAp/qE9ZBZipGwJXNDMwEwYDVR0lBAwwCgYIKwYBBQUHAwEw
CwYDVR0PBAQDAgWgMBkGA1UdEQQSMBCCDnRlYW03MzYtc2VydmVyMA0GCSqGSIb3
DQEBCwUAA4IBAQBulGVvJBnIU/KfH/GNkXNDIusCYSrltv0UB2T1nJFsxoULtf8g
/qfguD8XpNIU64xFx3t7WJUpK23ZCEdiWQB0PqNFTVJ9Z5vAsrCoyqrCic71bZmf
lWoC75MQIClLOphTFpST4bIScPKsokRFmAYmBrHlBT5+NWdY07rgwMVAcOiE7FcV
a/5HbOGG+hW9mN03F6sLdWJl+YmyeYmHFXWVZKiprsWT2CE1+2Hi3KKcVSp94ANj
jNK9q26EO+YMLNUc6LK64g0kJ01iZqCaS9VtuEvx1UFD8boOD9in016dxxZgYgpE
FwUJgpOMMUfjTCkhJK7huT2BVMzHolovvaWy
-----END CERTIFICATE-----
