Certificate:
    Data:
        Version: 3 (0x2)
        Serial Number:
            d2:36:25:5e:d9:12:0c:4b:da:fa:88:b7:f3:f6:35:ad
        Signature Algorithm: sha256WithRSAEncryption
        Issuer: CN=team644-net
        Validity
            Not Before: May 18 23:00:59 2022 GMT
            Not After : May  2 23:00:59 2025 GMT
        Subject: CN=team644-server
        Subject Public Key Info:
            Public Key Algorithm: rsaEncryption
                RSA Public-Key: (2048 bit)
                Modulus:
                    00:ae:f9:2f:ab:d7:df:1b:b6:79:12:70:dd:ed:b9:
                    23:b8:bd:a2:32:9f:70:3b:fe:b0:46:e1:68:40:d6:
                    bb:65:31:cc:c7:a9:42:3a:4f:54:b1:e8:ae:fe:22:
                    87:e9:70:bc:c6:0d:ec:a4:83:b7:6a:24:86:28:bf:
                    c6:a7:5d:08:70:cd:87:e4:ed:71:97:c0:51:65:0c:
                    03:9f:18:77:2a:ff:8c:0f:87:7c:91:53:2f:70:2d:
                    6f:4b:9b:21:7d:7d:49:c6:27:95:ba:db:cd:80:e3:
                    70:60:b9:d1:5f:cb:4f:b2:fa:b2:96:58:74:be:2d:
                    47:ba:c5:4e:49:0b:ac:51:09:c0:63:40:da:cb:db:
                    ee:f5:b6:e7:e8:3c:0d:d1:86:ad:87:a0:d3:f1:f3:
                    67:ce:c9:b1:13:d2:46:60:ee:79:b2:2d:de:ea:2f:
                    17:b3:ac:6d:6e:c1:27:49:5c:95:35:47:ae:c8:4b:
                    ff:84:32:7e:7a:36:ba:bf:a1:0b:57:23:e8:50:12:
                    9b:38:a5:d0:cf:60:97:4b:29:dd:3b:fd:92:24:41:
                    98:07:64:33:e0:a5:ac:0d:d0:ce:88:a7:ca:08:dc:
                    1d:85:92:d2:22:5f:82:57:a6:5c:a3:ff:39:ce:a8:
                    c8:80:84:2b:bf:5a:28:a2:48:6d:a5:89:b4:00:1e:
                    02:67
                Exponent: 65537 (0x10001)
        X509v3 extensions:
            X509v3 Basic Constraints: 
                CA:FALSE
            X509v3 Subject Key Identifier: 
                BE:B3:91:16:22:75:D7:FE:58:51:5B:60:7F:24:DB:05:1B:8E:71:B6
            X509v3 Authority Key Identifier: 
                keyid:37:BD:DF:91:33:6A:7F:C0:07:5F:08:28:B2:DD:0F:23:B8:84:8C:3C
                DirName:/CN=team644-net
                serial:73:01:19:2A:88:02:7D:04:05:7F:AE:1C:B5:EA:A5:B5:82:48:66:71

            X509v3 Extended Key Usage: 
                TLS Web Server Authentication
            X509v3 Key Usage: 
                Digital Signature, Key Encipherment
            X509v3 Subject Alternative Name: 
                DNS:team644-server
    Signature Algorithm: sha256WithRSAEncryption
         9f:05:19:26:c0:11:e1:97:12:2a:a1:9a:70:dc:55:ae:e7:30:
         5f:20:c2:de:d8:7b:7b:70:7c:d8:d4:4e:51:24:e1:a7:3d:6b:
         56:19:c6:3b:a4:eb:87:5b:ec:5b:60:fa:8f:da:fd:cd:f1:b9:
         4b:a2:fb:eb:93:d7:38:71:67:ed:03:33:a7:40:6a:a8:0f:be:
         70:c8:c0:12:ab:b9:d6:b5:69:56:c8:e6:1c:95:c2:b6:65:93:
         84:6e:9d:5b:d7:eb:bd:22:23:56:f3:bb:c7:b7:fa:a8:fd:be:
         5e:a5:e9:62:de:53:bd:27:30:63:44:cf:ff:3b:a2:18:93:77:
         f2:73:42:bf:54:fc:59:32:96:36:da:8c:8d:89:f8:bd:40:a3:
         ce:d1:30:84:1d:83:06:54:7e:15:90:21:f6:c4:fb:11:80:12:
         40:0e:05:07:43:d9:d3:ae:23:22:a6:10:c0:ca:83:6c:75:28:
         a1:c8:84:15:3a:0c:36:24:ca:c3:56:1c:41:ba:df:41:c4:88:
         dd:0d:c2:f1:15:95:97:63:98:fa:25:91:e0:55:07:b0:f7:65:
         f4:47:90:cc:3a:51:2c:cc:c9:e2:60:1b:de:26:df:9f:3d:e7:
         43:0e:2a:5d:5a:28:8d:85:50:08:e5:90:b5:01:73:f7:85:d9:
         85:93:44:97
-----BEGIN CERTIFICATE-----
MIIDeDCCAmCgAwIBAgIRANI2JV7ZEgxL2vqIt/P2Na0wDQYJKoZIhvcNAQELBQAw
FjEUMBIGA1UEAwwLdGVhbTY0NC1uZXQwHhcNMjIwNTE4MjMwMDU5WhcNMjUwNTAy
MjMwMDU5WjAZMRcwFQYDVQQDDA50ZWFtNjQ0LXNlcnZlcjCCASIwDQYJKoZIhvcN
AQEBBQADggEPADCCAQoCggEBAK75L6vX3xu2eRJw3e25I7i9ojKfcDv+sEbhaEDW
u2UxzMepQjpPVLHorv4ih+lwvMYN7KSDt2okhii/xqddCHDNh+TtcZfAUWUMA58Y
dyr/jA+HfJFTL3Atb0ubIX19ScYnlbrbzYDjcGC50V/LT7L6spZYdL4tR7rFTkkL
rFEJwGNA2svb7vW25+g8DdGGrYeg0/HzZ87JsRPSRmDuebIt3uovF7OsbW7BJ0lc
lTVHrshL/4Qyfno2ur+hC1cj6FASmzil0M9gl0sp3Tv9kiRBmAdkM+ClrA3Qzoin
ygjcHYWS0iJfglemXKP/Oc6oyICEK79aKKJIbaWJtAAeAmcCAwEAAaOBvTCBujAJ
BgNVHRMEAjAAMB0GA1UdDgQWBBS+s5EWInXX/lhRW2B/JNsFG45xtjBRBgNVHSME
SjBIgBQ3vd+RM2p/wAdfCCiy3Q8juISMPKEapBgwFjEUMBIGA1UEAwwLdGVhbTY0
NC1uZXSCFHMBGSqIAn0EBX+uHLXqpbWCSGZxMBMGA1UdJQQMMAoGCCsGAQUFBwMB
MAsGA1UdDwQEAwIFoDAZBgNVHREEEjAQgg50ZWFtNjQ0LXNlcnZlcjANBgkqhkiG
9w0BAQsFAAOCAQEAnwUZJsAR4ZcSKqGacNxVrucwXyDC3th7e3B82NROUSThpz1r
VhnGO6Trh1vsW2D6j9r9zfG5S6L765PXOHFn7QMzp0BqqA++cMjAEqu51rVpVsjm
HJXCtmWThG6dW9frvSIjVvO7x7f6qP2+XqXpYt5TvScwY0TP/zuiGJN38nNCv1T8
WTKWNtqMjYn4vUCjztEwhB2DBlR+FZAh9sT7EYASQA4FB0PZ064jIqYQwMqDbHUo
ociEFToMNiTKw1YcQbrfQcSI3Q3C8RWVl2OY+iWR4FUHsPdl9EeQzDpRLMzJ4mAb
3ibfnz3nQw4qXVoojYVQCOWQtQFz94XZhZNElw==
-----END CERTIFICATE-----
