Certificate:
    Data:
        Version: 3 (0x2)
        Serial Number:
            5d:44:a5:79:7c:6d:d1:d5:f6:49:e6:0f:34:5d:ff:43
        Signature Algorithm: sha256WithRSAEncryption
        Issuer: CN=team486-net
        Validity
            Not Before: May 18 21:43:40 2022 GMT
            Not After : May  2 21:43:40 2025 GMT
        Subject: CN=team486-server
        Subject Public Key Info:
            Public Key Algorithm: rsaEncryption
                RSA Public-Key: (2048 bit)
                Modulus:
                    00:a9:06:30:bd:b8:d9:93:d1:3b:2d:7d:ca:5c:c7:
                    3e:5d:5c:a5:0d:b5:54:6e:fe:f5:36:19:c3:68:60:
                    e7:89:9f:c4:f5:ff:9f:9b:47:43:59:13:30:68:af:
                    73:02:f3:61:62:68:c8:2b:a8:b1:14:f4:d5:b5:12:
                    b1:2a:8c:3e:0a:36:f7:39:e2:a4:6c:d7:23:f5:aa:
                    e7:d5:95:ff:b3:3c:74:68:68:85:ba:f0:ad:9d:d8:
                    2f:2a:5a:b7:df:e2:3f:9e:3e:94:e7:c3:eb:7b:14:
                    ea:d1:91:b6:85:0c:9f:e8:69:e8:fd:ca:d4:3b:d4:
                    0f:f7:62:78:63:19:5e:18:1f:d7:31:f7:51:27:a7:
                    91:9f:d4:34:ed:6b:c5:46:d2:52:89:a5:e9:f3:4d:
                    42:23:27:27:78:d1:d2:98:ef:2a:35:6f:59:00:a3:
                    f9:cf:9d:0f:65:05:68:ca:f5:c3:ee:e4:78:27:5d:
                    26:57:5d:a5:5c:8c:9c:d0:2f:8e:c2:b8:72:9f:c4:
                    91:1b:0a:eb:46:b4:8c:8d:fc:eb:0b:9c:cb:45:2d:
                    92:67:07:0a:e9:29:8e:0e:e6:13:a4:3e:0b:87:21:
                    ff:cc:ce:1d:ef:73:59:6c:23:b9:21:69:8d:b6:8c:
                    07:08:73:b1:1c:6d:37:75:51:60:a5:2b:f1:cd:eb:
                    36:c7
                Exponent: 65537 (0x10001)
        X509v3 extensions:
            X509v3 Basic Constraints: 
                CA:FALSE
            X509v3 Subject Key Identifier: 
                53:8A:3F:DE:F4:C8:69:9E:D3:5D:8C:65:F6:74:43:96:3F:39:39:A1
            X509v3 Authority Key Identifier: 
                keyid:B9:7A:16:A8:9B:C4:7A:77:31:AA:D0:A4:7D:67:69:49:EE:13:74:87
                DirName:/CN=team486-net
                serial:32:93:CA:1D:FD:EB:4A:D0:D3:F2:FB:07:7D:5B:95:C3:67:82:29:0D

            X509v3 Extended Key Usage: 
                TLS Web Server Authentication
            X509v3 Key Usage: 
                Digital Signature, Key Encipherment
            X509v3 Subject Alternative Name: 
                DNS:team486-server
    Signature Algorithm: sha256WithRSAEncryption
         2d:4a:a8:7d:3a:77:29:29:8b:7d:51:f6:27:2f:e8:cd:fb:b3:
         1d:0a:39:a3:6b:1e:d3:d8:83:58:e6:c9:42:4f:a8:43:53:4f:
         7d:e4:8d:55:aa:72:7e:8f:1d:70:4c:5b:42:f6:6d:e4:57:3f:
         eb:02:ff:61:45:fd:80:a5:4c:4e:9b:25:45:3b:c2:01:c0:84:
         c1:0f:79:da:99:d0:40:aa:03:c1:73:a5:3c:5d:fc:9c:a4:95:
         b6:6d:a8:aa:4a:9a:b1:50:b1:2e:92:08:8e:6b:2e:58:1e:db:
         dc:fd:6e:d4:8f:50:11:39:15:ba:ea:5c:dc:7e:ae:df:e8:55:
         bc:ed:d4:1d:e0:84:5d:fe:3d:5d:3e:be:45:ef:07:09:d0:b4:
         77:59:60:2f:87:cc:03:44:e2:08:7e:f7:91:56:29:e9:8f:6e:
         e6:ae:e2:3f:a3:f4:da:b9:fc:d4:6d:af:81:6d:40:52:5d:95:
         12:75:33:5c:2d:3a:cb:cf:d3:05:bc:8b:d5:63:e4:54:05:a2:
         38:f3:e6:c7:65:98:87:42:6a:cf:4a:e4:65:4c:d7:00:47:50:
         3c:0d:2d:39:01:c3:b8:dd:75:29:ac:2a:ac:d3:bf:f3:31:2c:
         8d:31:2b:c8:21:f7:a9:49:bb:0c:19:17:4a:37:98:ef:04:bc:
         fd:b8:66:a9
-----BEGIN CERTIFICATE-----
MIIDdzCCAl+gAwIBAgIQXUSleXxt0dX2SeYPNF3/QzANBgkqhkiG9w0BAQsFADAW
MRQwEgYDVQQDDAt0ZWFtNDg2LW5ldDAeFw0yMjA1MTgyMTQzNDBaFw0yNTA1MDIy
MTQzNDBaMBkxFzAVBgNVBAMMDnRlYW00ODYtc2VydmVyMIIBIjANBgkqhkiG9w0B
AQEFAAOCAQ8AMIIBCgKCAQEAqQYwvbjZk9E7LX3KXMc+XVylDbVUbv71NhnDaGDn
iZ/E9f+fm0dDWRMwaK9zAvNhYmjIK6ixFPTVtRKxKow+Cjb3OeKkbNcj9arn1ZX/
szx0aGiFuvCtndgvKlq33+I/nj6U58PrexTq0ZG2hQyf6Gno/crUO9QP92J4Yxle
GB/XMfdRJ6eRn9Q07WvFRtJSiaXp801CIycneNHSmO8qNW9ZAKP5z50PZQVoyvXD
7uR4J10mV12lXIyc0C+Owrhyn8SRGwrrRrSMjfzrC5zLRS2SZwcK6SmODuYTpD4L
hyH/zM4d73NZbCO5IWmNtowHCHOxHG03dVFgpSvxzes2xwIDAQABo4G9MIG6MAkG
A1UdEwQCMAAwHQYDVR0OBBYEFFOKP970yGme012MZfZ0Q5Y/OTmhMFEGA1UdIwRK
MEiAFLl6FqibxHp3MarQpH1naUnuE3SHoRqkGDAWMRQwEgYDVQQDDAt0ZWFtNDg2
LW5ldIIUMpPKHf3rStDT8vsHfVuVw2eCKQ0wEwYDVR0lBAwwCgYIKwYBBQUHAwEw
CwYDVR0PBAQDAgWgMBkGA1UdEQQSMBCCDnRlYW00ODYtc2VydmVyMA0GCSqGSIb3
DQEBCwUAA4IBAQAtSqh9OncpKYt9UfYnL+jN+7MdCjmjax7T2INY5slCT6hDU099
5I1VqnJ+jx1wTFtC9m3kVz/rAv9hRf2ApUxOmyVFO8IBwITBD3namdBAqgPBc6U8
XfycpJW2baiqSpqxULEukgiOay5YHtvc/W7Uj1ARORW66lzcfq7f6FW87dQd4IRd
/j1dPr5F7wcJ0LR3WWAvh8wDROIIfveRVinpj27mruI/o/TaufzUba+BbUBSXZUS
dTNcLTrLz9MFvIvVY+RUBaI48+bHZZiHQmrPSuRlTNcAR1A8DS05AcO43XUprCqs
07/zMSyNMSvIIfepSbsMGRdKN5jvBLz9uGap
-----END CERTIFICATE-----
