Certificate:
    Data:
        Version: 3 (0x2)
        Serial Number:
            83:e9:c5:46:2d:e3:97:53:58:e8:6a:be:91:1e:f2:96
        Signature Algorithm: sha256WithRSAEncryption
        Issuer: CN=team276-net
        Validity
            Not Before: May 18 19:51:22 2022 GMT
            Not After : May  2 19:51:22 2025 GMT
        Subject: CN=team276-client
        Subject Public Key Info:
            Public Key Algorithm: rsaEncryption
                RSA Public-Key: (2048 bit)
                Modulus:
                    00:b3:e9:d7:3f:63:88:28:94:c8:57:08:55:0b:8b:
                    d5:53:d4:bf:fb:b4:d4:dc:67:47:40:d5:04:d0:9a:
                    06:f2:ca:3e:7f:dc:e8:dc:a6:5b:7a:af:af:ed:69:
                    b9:c7:bc:d4:16:c6:6e:30:bb:7b:dc:03:9f:af:17:
                    bd:60:6a:b0:d5:16:af:92:43:04:e2:5f:0f:4c:80:
                    d9:ad:30:11:f6:24:00:de:53:55:57:61:e1:6d:0b:
                    46:64:e4:8a:62:be:2e:fd:44:f7:ef:91:b7:f3:bc:
                    99:65:6b:d0:f9:58:a3:04:b4:b5:09:fd:e0:51:ef:
                    79:d9:5e:9b:93:27:41:af:91:9d:37:57:28:88:ce:
                    0f:16:20:67:97:f2:4b:61:44:82:e0:43:e6:55:a2:
                    a6:6e:9d:24:0f:e3:66:7c:1d:ad:28:0c:07:06:9b:
                    7a:92:60:f8:5f:fc:8e:90:2e:09:15:6a:19:1c:f3:
                    44:46:61:f1:e6:69:65:6f:40:ed:4c:46:79:dd:82:
                    11:fe:05:9c:42:c5:b3:7d:47:96:38:5b:43:3d:42:
                    a2:4a:3c:e0:2d:c0:17:02:ab:ed:d1:e4:fc:e7:07:
                    86:ca:4b:9d:19:c6:b5:1f:f9:e2:74:f9:c8:b1:9a:
                    5f:6f:28:8b:c0:c8:0a:7f:de:c5:70:18:09:8f:1b:
                    6b:67
                Exponent: 65537 (0x10001)
        X509v3 extensions:
            X509v3 Basic Constraints: 
                CA:FALSE
            X509v3 Subject Key Identifier: 
                E1:8F:5D:94:20:6E:51:6C:D5:ED:5F:6E:3C:A5:99:2E:E8:26:6E:7C
            X509v3 Authority Key Identifier: 
                keyid:F1:23:95:7B:7C:4C:6E:A8:05:CA:F6:47:C8:2C:32:DA:C2:B1:C9:15
                DirName:/CN=team276-net
                serial:35:60:0D:41:2E:1C:4F:16:EC:F2:FE:32:9A:68:AD:AF:D4:B5:E7:C5

            X509v3 Extended Key Usage: 
                TLS Web Client Authentication
            X509v3 Key Usage: 
                Digital Signature
    Signature Algorithm: sha256WithRSAEncryption
         35:4e:4f:89:83:d6:42:dd:59:56:6f:14:b8:a9:d0:a3:bb:56:
         6e:ce:2b:ce:a6:e8:a0:c7:01:4c:d8:1d:ca:a1:ef:49:b5:06:
         08:37:47:21:3c:4c:c9:39:12:9a:97:01:5f:b8:bd:de:e8:69:
         99:ba:45:2f:9d:6d:f0:69:35:df:d8:fd:76:31:71:ff:5f:08:
         04:81:5b:2b:40:93:ce:57:51:00:ea:4b:69:c1:a3:ad:39:6a:
         6c:e8:df:a1:98:13:0a:25:9d:ef:2a:a3:20:7a:64:b1:d6:a3:
         78:3e:01:06:5b:de:a1:8a:89:da:50:2c:47:1a:6f:3d:a1:7e:
         90:45:09:60:1c:aa:b8:33:26:44:67:f5:8d:95:5b:54:24:73:
         88:32:37:28:93:cd:38:d5:eb:ef:c8:52:f1:4d:03:b9:20:f2:
         05:8f:5d:4f:59:3b:7d:2f:8c:a9:92:b6:6c:e4:55:16:32:0c:
         71:5e:37:66:1e:27:01:7b:c5:a5:31:7f:8a:01:c6:b9:08:b6:
         cd:ba:57:51:4b:52:ad:05:07:3c:2d:e6:ad:a4:f3:4e:24:5f:
         5a:88:cf:36:b2:58:45:9f:d6:73:e1:76:5b:3e:ef:c7:2a:7a:
         1f:a6:ed:a5:61:c0:39:90:e0:18:42:e8:d3:2d:db:46:c2:6d:
         d7:4c:82:1e
-----BEGIN CERTIFICATE-----
MIIDXTCCAkWgAwIBAgIRAIPpxUYt45dTWOhqvpEe8pYwDQYJKoZIhvcNAQELBQAw
FjEUMBIGA1UEAwwLdGVhbTI3Ni1uZXQwHhcNMjIwNTE4MTk1MTIyWhcNMjUwNTAy
MTk1MTIyWjAZMRcwFQYDVQQDDA50ZWFtMjc2LWNsaWVudDCCASIwDQYJKoZIhvcN
AQEBBQADggEPADCCAQoCggEBALPp1z9jiCiUyFcIVQuL1VPUv/u01NxnR0DVBNCa
BvLKPn/c6NymW3qvr+1puce81BbGbjC7e9wDn68XvWBqsNUWr5JDBOJfD0yA2a0w
EfYkAN5TVVdh4W0LRmTkimK+Lv1E9++Rt/O8mWVr0PlYowS0tQn94FHvedlem5Mn
Qa+RnTdXKIjODxYgZ5fyS2FEguBD5lWipm6dJA/jZnwdrSgMBwabepJg+F/8jpAu
CRVqGRzzREZh8eZpZW9A7UxGed2CEf4FnELFs31HljhbQz1Coko84C3AFwKr7dHk
/OcHhspLnRnGtR/54nT5yLGaX28oi8DICn/exXAYCY8ba2cCAwEAAaOBojCBnzAJ
BgNVHRMEAjAAMB0GA1UdDgQWBBThj12UIG5RbNXtX248pZku6CZufDBRBgNVHSME
SjBIgBTxI5V7fExuqAXK9kfILDLawrHJFaEapBgwFjEUMBIGA1UEAwwLdGVhbTI3
Ni1uZXSCFDVgDUEuHE8W7PL+Mppora/UtefFMBMGA1UdJQQMMAoGCCsGAQUFBwMC
MAsGA1UdDwQEAwIHgDANBgkqhkiG9w0BAQsFAAOCAQEANU5PiYPWQt1ZVm8UuKnQ
o7tWbs4rzqbooMcBTNgdyqHvSbUGCDdHITxMyTkSmpcBX7i93uhpmbpFL51t8Gk1
39j9djFx/18IBIFbK0CTzldRAOpLacGjrTlqbOjfoZgTCiWd7yqjIHpksdajeD4B
BlveoYqJ2lAsRxpvPaF+kEUJYByquDMmRGf1jZVbVCRziDI3KJPNONXr78hS8U0D
uSDyBY9dT1k7fS+MqZK2bORVFjIMcV43Zh4nAXvFpTF/igHGuQi2zbpXUUtSrQUH
PC3mraTzTiRfWojPNrJYRZ/Wc+F2Wz7vxyp6H6btpWHAOZDgGELo0y3bRsJt10yC
Hg==
-----END CERTIFICATE-----
