Certificate:
    Data:
        Version: 3 (0x2)
        Serial Number:
            19:cc:89:f1:8d:21:94:ff:32:49:db:bc:0e:77:c4:8f
        Signature Algorithm: sha256WithRSAEncryption
        Issuer: CN=team739-net
        Validity
            Not Before: May 18 23:58:57 2022 GMT
            Not After : May  2 23:58:57 2025 GMT
        Subject: CN=team739-server
        Subject Public Key Info:
            Public Key Algorithm: rsaEncryption
                RSA Public-Key: (2048 bit)
                Modulus:
                    00:d2:54:2e:6b:9a:06:d0:b2:44:b6:06:30:4b:4c:
                    c3:55:9a:cb:4e:36:ed:e0:8a:c5:22:65:55:9c:e0:
                    f8:d8:23:3f:1f:df:7e:8f:61:4f:42:29:ac:03:61:
                    80:71:05:51:43:42:0d:52:5f:51:61:68:b4:a6:cd:
                    ea:a9:c9:1c:15:c7:7f:12:ae:26:26:55:5d:09:10:
                    df:9d:ee:2a:89:62:76:68:40:e6:71:e3:9f:5a:2d:
                    cf:ad:56:f4:2f:cf:ad:7a:8d:fb:b1:3a:e0:0a:1e:
                    3c:a4:1f:54:68:71:8b:65:7a:ec:49:de:40:8f:cf:
                    34:55:f5:b0:e0:c6:d7:7a:e9:5f:10:00:d7:ee:a2:
                    4f:f5:45:c5:c7:c2:fb:87:f3:0a:54:01:6d:15:a4:
                    9c:f3:93:9e:d3:bc:67:38:21:6a:d9:78:db:b4:ff:
                    92:68:93:72:34:dc:c8:c6:84:d1:a7:7b:5c:d8:f9:
                    de:85:e1:ed:dd:94:f4:dd:56:62:3e:44:6a:30:15:
                    1f:29:db:79:08:d8:ea:10:98:48:6e:7b:19:43:57:
                    52:4b:09:67:18:2f:b1:37:92:48:8b:ba:54:08:7f:
                    d2:4a:58:07:53:1f:30:b2:b9:df:69:50:e3:16:03:
                    ae:2b:92:ce:f0:8b:f6:57:16:38:c1:f6:fb:84:b1:
                    5e:53
                Exponent: 65537 (0x10001)
        X509v3 extensions:
            X509v3 Basic Constraints: 
                CA:FALSE
            X509v3 Subject Key Identifier: 
                D5:2C:61:32:67:0A:06:59:F7:96:D8:11:D7:BD:9F:68:09:83:E4:EF
            X509v3 Authority Key Identifier: 
                keyid:34:01:9F:D8:95:8E:29:D6:03:40:53:BB:F7:E3:80:D7:73:2C:0D:8A
                DirName:/CN=team739-net
                serial:2C:B3:33:57:7A:B2:BF:16:C2:E1:DA:62:15:82:D0:86:82:C5:BB:27

            X509v3 Extended Key Usage: 
                TLS Web Server Authentication
            X509v3 Key Usage: 
                Digital Signature, Key Encipherment
            X509v3 Subject Alternative Name: 
                DNS:team739-server
    Signature Algorithm: sha256WithRSAEncryption
         5e:bd:dd:df:69:05:bb:b3:5a:5c:76:cd:b5:8f:8a:43:48:37:
         4b:39:f1:ca:5a:91:b9:f1:bc:51:7a:66:9b:5b:21:18:d6:6d:
         34:e8:62:80:7e:72:a3:b4:6d:e9:f4:2a:57:05:d9:de:06:25:
         ec:c9:24:0d:05:29:0f:72:d7:c6:bf:04:f6:96:4d:ec:8a:81:
         cd:d8:f2:ca:b4:c7:18:ce:03:67:44:16:35:8b:e0:93:bd:d9:
         d2:2b:be:ec:dd:48:91:e4:48:b5:93:58:d1:41:c8:7c:6a:f6:
         cf:13:c7:58:7c:15:37:09:98:72:13:6e:aa:5f:aa:e8:97:28:
         76:0a:38:0a:cf:1e:33:13:12:fe:12:35:2d:50:8b:81:d3:ad:
         cd:d5:5c:53:b5:49:bd:59:f9:85:ae:49:66:29:da:40:1e:55:
         79:12:27:47:fb:43:69:f2:4a:06:69:0e:06:ae:4c:c1:b0:35:
         da:c7:0c:1b:1a:4e:1a:3c:db:98:41:53:67:3f:10:68:4a:b0:
         65:30:f4:c0:a1:c6:f2:59:7b:3b:23:97:d6:01:ed:b6:fd:93:
         99:72:84:66:ba:97:a1:f9:2a:5f:d3:8f:00:17:44:1d:20:ca:
         6a:f2:89:e4:70:04:86:2f:ed:9b:e0:92:29:2c:e7:8f:de:48:
         eb:ab:fa:71
-----BEGIN CERTIFICATE-----
MIIDdzCCAl+gAwIBAgIQGcyJ8Y0hlP8ySdu8DnfEjzANBgkqhkiG9w0BAQsFADAW
MRQwEgYDVQQDDAt0ZWFtNzM5LW5ldDAeFw0yMjA1MTgyMzU4NTdaFw0yNTA1MDIy
MzU4NTdaMBkxFzAVBgNVBAMMDnRlYW03Mzktc2VydmVyMIIBIjANBgkqhkiG9w0B
AQEFAAOCAQ8AMIIBCgKCAQEA0lQua5oG0LJEtgYwS0zDVZrLTjbt4IrFImVVnOD4
2CM/H99+j2FPQimsA2GAcQVRQ0INUl9RYWi0ps3qqckcFcd/Eq4mJlVdCRDfne4q
iWJ2aEDmceOfWi3PrVb0L8+teo37sTrgCh48pB9UaHGLZXrsSd5Aj880VfWw4MbX
eulfEADX7qJP9UXFx8L7h/MKVAFtFaSc85Oe07xnOCFq2XjbtP+SaJNyNNzIxoTR
p3tc2PneheHt3ZT03VZiPkRqMBUfKdt5CNjqEJhIbnsZQ1dSSwlnGC+xN5JIi7pU
CH/SSlgHUx8wsrnfaVDjFgOuK5LO8Iv2VxY4wfb7hLFeUwIDAQABo4G9MIG6MAkG
A1UdEwQCMAAwHQYDVR0OBBYEFNUsYTJnCgZZ95bYEde9n2gJg+TvMFEGA1UdIwRK
MEiAFDQBn9iVjinWA0BTu/fjgNdzLA2KoRqkGDAWMRQwEgYDVQQDDAt0ZWFtNzM5
LW5ldIIULLMzV3qyvxbC4dpiFYLQhoLFuycwEwYDVR0lBAwwCgYIKwYBBQUHAwEw
CwYDVR0PBAQDAgWgMBkGA1UdEQQSMBCCDnRlYW03Mzktc2VydmVyMA0GCSqGSIb3
DQEBCwUAA4IBAQBevd3faQW7s1pcds21j4pDSDdLOfHKWpG58bxRemabWyEY1m00
6GKAfnKjtG3p9CpXBdneBiXsySQNBSkPctfGvwT2lk3sioHN2PLKtMcYzgNnRBY1
i+CTvdnSK77s3UiR5Ei1k1jRQch8avbPE8dYfBU3CZhyE26qX6rolyh2CjgKzx4z
ExL+EjUtUIuB063N1VxTtUm9WfmFrklmKdpAHlV5EidH+0Np8koGaQ4GrkzBsDXa
xwwbGk4aPNuYQVNnPxBoSrBlMPTAocbyWXs7I5fWAe22/ZOZcoRmupeh+Spf048A
F0QdIMpq8onkcASGL+2b4JIpLOeP3kjrq/px
-----END CERTIFICATE-----
