Certificate:
    Data:
        Version: 3 (0x2)
        Serial Number:
            8b:d3:cf:41:75:29:7a:07:51:8b:31:76:c2:c0:20:5b
        Signature Algorithm: sha256WithRSAEncryption
        Issuer: CN=team327-net
        Validity
            Not Before: May 18 20:24:08 2022 GMT
            Not After : May  2 20:24:08 2025 GMT
        Subject: CN=team327-client
        Subject Public Key Info:
            Public Key Algorithm: rsaEncryption
                RSA Public-Key: (2048 bit)
                Modulus:
                    00:cb:64:fd:79:42:99:bf:76:0f:e3:7b:c4:cf:d5:
                    35:7e:89:60:59:61:35:5a:4c:16:10:9e:c7:37:7e:
                    aa:02:0e:fe:c0:93:3a:ab:85:d6:68:86:21:e1:fd:
                    ea:33:07:1b:60:7e:30:30:8d:0f:b5:63:30:5a:35:
                    73:86:12:37:6e:0f:90:bd:56:cc:0a:0e:03:b2:f6:
                    47:ab:27:66:73:8f:2f:12:14:f4:ef:7c:d3:ca:d9:
                    87:bf:c4:5b:5d:bf:3e:a4:13:39:f9:bf:10:52:67:
                    f0:a7:ab:b7:97:bd:ae:03:3b:15:8f:5e:78:bf:cc:
                    ae:d5:18:af:96:95:e2:d5:e3:9e:6c:64:e0:13:5a:
                    08:67:38:fe:e6:12:99:84:7f:ac:95:7e:47:3b:91:
                    fb:be:10:cc:ef:ae:a5:77:23:73:48:66:da:bf:ff:
                    85:3a:0b:e9:a9:42:40:c9:0b:57:db:fe:43:8d:20:
                    41:6f:ff:6f:d7:c0:73:2b:9a:f5:83:7a:ad:c3:92:
                    4b:ab:47:c7:f1:c7:3a:62:43:2e:8e:be:93:db:38:
                    83:14:d0:5f:36:47:27:5a:12:63:8f:ad:87:8e:80:
                    31:aa:90:c4:b2:64:d0:c8:b1:d8:7c:3a:f3:22:4b:
                    5a:61:1c:1d:8f:71:75:9a:2e:58:b5:27:79:79:a3:
                    bb:e7
                Exponent: 65537 (0x10001)
        X509v3 extensions:
            X509v3 Basic Constraints: 
                CA:FALSE
            X509v3 Subject Key Identifier: 
                A7:78:60:E2:BE:D9:2B:9A:73:A0:99:72:C5:56:E1:46:1C:DA:A5:12
            X509v3 Authority Key Identifier: 
                keyid:B7:30:74:B8:33:57:B7:80:8E:9F:84:EA:AC:48:EF:97:73:93:BA:FF
                DirName:/CN=team327-net
                serial:2C:F4:36:69:48:E6:40:D8:35:E3:0F:97:38:71:75:55:9A:7A:EC:89

            X509v3 Extended Key Usage: 
                TLS Web Client Authentication
            X509v3 Key Usage: 
                Digital Signature
    Signature Algorithm: sha256WithRSAEncryption
         cf:7f:f9:c4:17:6f:f9:7b:aa:6c:2a:23:9f:44:95:ef:83:b8:
         72:98:7f:a7:45:7f:bd:a2:1a:78:e9:a8:81:27:4b:0d:95:a0:
         ba:5f:3d:b7:bf:3d:0b:c7:96:b5:83:06:ba:87:9f:bb:0b:9b:
         ea:53:5d:5c:07:bd:38:e5:14:e0:a9:51:00:f6:f9:4c:ef:93:
         e1:e2:2a:16:16:15:41:f4:be:11:fc:e0:47:f1:ec:b7:1b:23:
         fb:3b:6c:d9:01:d8:96:ea:75:ce:86:e8:43:7a:32:6f:2a:0a:
         46:22:23:87:b4:e1:8e:ec:65:f8:7e:24:0b:5b:52:03:a4:de:
         de:ee:ad:36:d3:f4:fa:15:a4:81:2a:36:33:20:cf:11:68:52:
         a4:a1:66:fb:d5:fd:2a:d4:90:30:06:bb:18:b2:af:89:36:4b:
         3a:bc:ee:40:a0:b8:61:98:4f:1d:dc:15:c9:29:58:d6:05:f7:
         e9:71:1e:0f:18:52:5c:c6:a6:85:a5:8d:35:88:f5:9b:5e:0f:
         ee:cf:2a:f7:85:10:b7:bf:64:29:c7:1e:b2:9a:24:b9:d2:19:
         84:a5:94:01:be:59:6a:aa:0e:7d:af:5b:c7:fd:b4:00:10:0e:
         01:6c:54:51:8a:ff:b5:3e:c2:28:9d:c1:e8:7a:a3:9c:ad:bd:
         9e:5d:84:1f
-----BEGIN CERTIFICATE-----
MIIDXTCCAkWgAwIBAgIRAIvTz0F1KXoHUYsxdsLAIFswDQYJKoZIhvcNAQELBQAw
FjEUMBIGA1UEAwwLdGVhbTMyNy1uZXQwHhcNMjIwNTE4MjAyNDA4WhcNMjUwNTAy
MjAyNDA4WjAZMRcwFQYDVQQDDA50ZWFtMzI3LWNsaWVudDCCASIwDQYJKoZIhvcN
AQEBBQADggEPADCCAQoCggEBAMtk/XlCmb92D+N7xM/VNX6JYFlhNVpMFhCexzd+
qgIO/sCTOquF1miGIeH96jMHG2B+MDCND7VjMFo1c4YSN24PkL1WzAoOA7L2R6sn
ZnOPLxIU9O9808rZh7/EW12/PqQTOfm/EFJn8Kert5e9rgM7FY9eeL/MrtUYr5aV
4tXjnmxk4BNaCGc4/uYSmYR/rJV+RzuR+74QzO+upXcjc0hm2r//hToL6alCQMkL
V9v+Q40gQW//b9fAcyua9YN6rcOSS6tHx/HHOmJDLo6+k9s4gxTQXzZHJ1oSY4+t
h46AMaqQxLJk0Mix2Hw68yJLWmEcHY9xdZouWLUneXmju+cCAwEAAaOBojCBnzAJ
BgNVHRMEAjAAMB0GA1UdDgQWBBSneGDivtkrmnOgmXLFVuFGHNqlEjBRBgNVHSME
SjBIgBS3MHS4M1e3gI6fhOqsSO+Xc5O6/6EapBgwFjEUMBIGA1UEAwwLdGVhbTMy
Ny1uZXSCFCz0NmlI5kDYNeMPlzhxdVWaeuyJMBMGA1UdJQQMMAoGCCsGAQUFBwMC
MAsGA1UdDwQEAwIHgDANBgkqhkiG9w0BAQsFAAOCAQEAz3/5xBdv+XuqbCojn0SV
74O4cph/p0V/vaIaeOmogSdLDZWgul89t789C8eWtYMGuoefuwub6lNdXAe9OOUU
4KlRAPb5TO+T4eIqFhYVQfS+EfzgR/Hstxsj+zts2QHYlup1zoboQ3oybyoKRiIj
h7Thjuxl+H4kC1tSA6Te3u6tNtP0+hWkgSo2MyDPEWhSpKFm+9X9KtSQMAa7GLKv
iTZLOrzuQKC4YZhPHdwVySlY1gX36XEeDxhSXMamhaWNNYj1m14P7s8q94UQt79k
KccespokudIZhKWUAb5ZaqoOfa9bx/20ABAOAWxUUYr/tT7CKJ3B6HqjnK29nl2E
Hw==
-----END CERTIFICATE-----
