Certificate:
    Data:
        Version: 3 (0x2)
        Serial Number:
            bc:06:5b:5b:67:7b:07:86:33:83:96:82:da:19:4e:a5
        Signature Algorithm: sha256WithRSAEncryption
        Issuer: CN=team327-net
        Validity
            Not Before: May 18 20:24:08 2022 GMT
            Not After : May  2 20:24:08 2025 GMT
        Subject: CN=team327-server
        Subject Public Key Info:
            Public Key Algorithm: rsaEncryption
                RSA Public-Key: (2048 bit)
                Modulus:
                    00:ab:96:5f:4a:71:a9:28:16:1a:a9:6b:ed:c4:18:
                    a7:12:21:78:22:33:71:ad:e4:e8:76:7d:3e:d2:47:
                    2b:b1:66:84:3c:f1:c6:1f:7d:5c:b7:db:a6:4e:9b:
                    29:74:ea:b8:52:bc:44:80:9a:2d:49:03:dc:44:bc:
                    1d:66:94:e1:b9:97:47:66:63:61:88:51:2f:87:0e:
                    3c:79:3e:3a:30:74:df:b0:42:b6:d0:14:bc:e5:f6:
                    d8:5e:0f:ce:7c:ba:87:82:1e:43:61:82:ea:d6:a6:
                    09:3a:13:62:e9:18:ce:fc:73:64:38:56:66:28:a5:
                    7b:0c:f1:03:54:8c:82:6c:92:15:14:b8:da:1f:d8:
                    86:dd:ab:68:3a:0b:61:e9:1d:0a:88:5f:c0:5d:17:
                    6e:b1:2a:d2:53:91:d6:1b:91:c4:1e:eb:43:6f:4f:
                    93:88:a9:7b:db:38:7c:8f:95:67:16:8a:7f:f4:5c:
                    79:20:53:4e:5f:1c:24:c2:0c:64:bd:02:34:9e:7c:
                    72:db:ea:52:bf:fd:4d:e3:3c:9a:cb:26:a8:69:6d:
                    3f:1e:85:fe:1c:d2:18:e2:8f:4f:f2:de:d8:9e:b2:
                    83:b1:5f:68:93:77:52:48:81:ec:dd:d0:04:31:c4:
                    a8:ca:d4:d3:14:c4:2f:81:b5:2a:18:d4:16:ab:d5:
                    ce:bb
                Exponent: 65537 (0x10001)
        X509v3 extensions:
            X509v3 Basic Constraints: 
                CA:FALSE
            X509v3 Subject Key Identifier: 
                16:91:2B:C6:9E:1F:FC:BD:11:C3:87:E1:F0:68:4D:B5:4F:E4:3F:D3
            X509v3 Authority Key Identifier: 
                keyid:B7:30:74:B8:33:57:B7:80:8E:9F:84:EA:AC:48:EF:97:73:93:BA:FF
                DirName:/CN=team327-net
                serial:2C:F4:36:69:48:E6:40:D8:35:E3:0F:97:38:71:75:55:9A:7A:EC:89

            X509v3 Extended Key Usage: 
                TLS Web Server Authentication
            X509v3 Key Usage: 
                Digital Signature, Key Encipherment
            X509v3 Subject Alternative Name: 
                DNS:team327-server
    Signature Algorithm: sha256WithRSAEncryption
         51:aa:30:38:02:ae:2b:53:5a:ac:06:fc:52:30:f5:f0:e8:f5:
         62:53:23:22:f7:f1:6c:96:3a:84:0f:a6:2b:d7:e0:c0:37:4a:
         f5:78:35:84:7f:3c:cc:7c:27:79:e8:9c:f9:fe:bf:7b:38:ae:
         8f:90:a6:cb:1c:af:5a:c4:f0:2c:e9:9a:99:8e:03:f3:ef:30:
         a1:3c:d2:8f:66:96:43:f1:f0:ca:71:3c:c3:34:7c:ba:2a:55:
         9a:b8:91:f8:fc:fa:24:33:13:9c:b4:d0:14:aa:df:35:3f:19:
         79:0a:26:64:dd:b0:0b:08:20:fa:e2:67:e2:ed:c7:06:91:02:
         fb:ff:17:00:ff:be:fd:e4:4e:8f:59:1a:df:4c:b0:42:d8:57:
         43:76:cd:07:13:3a:74:2b:b6:ec:b7:98:be:22:e4:6c:02:4d:
         3d:52:cc:d2:38:2c:78:fb:85:48:61:cf:db:ac:83:da:73:8b:
         ed:4e:e9:6e:52:c5:81:cb:6f:80:12:53:2c:b7:29:e7:ea:bb:
         c5:ea:70:40:e9:ce:6e:07:64:ec:4e:49:fc:0c:36:de:10:ef:
         ff:e5:45:dd:08:a5:3d:e4:02:ea:17:b1:c3:ce:ee:33:e8:a1:
         14:5a:b5:7b:6e:a7:65:8c:6c:1a:e2:24:43:04:49:82:92:6f:
         1b:0a:cc:b8
-----BEGIN CERTIFICATE-----
MIIDeDCCAmCgAwIBAgIRALwGW1tneweGM4OWgtoZTqUwDQYJKoZIhvcNAQELBQAw
FjEUMBIGA1UEAwwLdGVhbTMyNy1uZXQwHhcNMjIwNTE4MjAyNDA4WhcNMjUwNTAy
MjAyNDA4WjAZMRcwFQYDVQQDDA50ZWFtMzI3LXNlcnZlcjCCASIwDQYJKoZIhvcN
AQEBBQADggEPADCCAQoCggEBAKuWX0pxqSgWGqlr7cQYpxIheCIzca3k6HZ9PtJH
K7FmhDzxxh99XLfbpk6bKXTquFK8RICaLUkD3ES8HWaU4bmXR2ZjYYhRL4cOPHk+
OjB037BCttAUvOX22F4Pzny6h4IeQ2GC6tamCToTYukYzvxzZDhWZiilewzxA1SM
gmySFRS42h/Yht2raDoLYekdCohfwF0XbrEq0lOR1huRxB7rQ29Pk4ipe9s4fI+V
ZxaKf/RceSBTTl8cJMIMZL0CNJ58ctvqUr/9TeM8mssmqGltPx6F/hzSGOKPT/Le
2J6yg7FfaJN3UkiB7N3QBDHEqMrU0xTEL4G1KhjUFqvVzrsCAwEAAaOBvTCBujAJ
BgNVHRMEAjAAMB0GA1UdDgQWBBQWkSvGnh/8vRHDh+HwaE21T+Q/0zBRBgNVHSME
SjBIgBS3MHS4M1e3gI6fhOqsSO+Xc5O6/6EapBgwFjEUMBIGA1UEAwwLdGVhbTMy
Ny1uZXSCFCz0NmlI5kDYNeMPlzhxdVWaeuyJMBMGA1UdJQQMMAoGCCsGAQUFBwMB
MAsGA1UdDwQEAwIFoDAZBgNVHREEEjAQgg50ZWFtMzI3LXNlcnZlcjANBgkqhkiG
9w0BAQsFAAOCAQEAUaowOAKuK1NarAb8UjD18Oj1YlMjIvfxbJY6hA+mK9fgwDdK
9Xg1hH88zHwneeic+f6/eziuj5CmyxyvWsTwLOmamY4D8+8woTzSj2aWQ/HwynE8
wzR8uipVmriR+Pz6JDMTnLTQFKrfNT8ZeQomZN2wCwgg+uJn4u3HBpEC+/8XAP++
/eROj1ka30ywQthXQ3bNBxM6dCu27LeYviLkbAJNPVLM0jgsePuFSGHP26yD2nOL
7U7pblLFgctvgBJTLLcp5+q7xepwQOnObgdk7E5J/Aw23hDv/+VF3QilPeQC6hex
w87uM+ihFFq1e26nZYxsGuIkQwRJgpJvGwrMuA==
-----END CERTIFICATE-----
