Certificate:
    Data:
        Version: 3 (0x2)
        Serial Number:
            d3:53:07:ac:f9:ec:b8:08:53:96:7b:de:c4:00:04:d7
        Signature Algorithm: sha256WithRSAEncryption
        Issuer: CN=team689-net
        Validity
            Not Before: May 18 23:41:06 2022 GMT
            Not After : May  2 23:41:06 2025 GMT
        Subject: CN=team689-client
        Subject Public Key Info:
            Public Key Algorithm: rsaEncryption
                RSA Public-Key: (2048 bit)
                Modulus:
                    00:d9:0f:7c:63:09:fb:fc:a2:8f:1c:f3:cf:a7:aa:
                    6b:75:4f:04:7d:d8:57:ca:5c:9a:a6:21:94:5b:85:
                    f8:63:b8:0a:18:83:7b:ed:65:46:4b:e8:27:65:06:
                    f1:2a:e3:a3:94:80:ae:23:fa:76:c9:27:fd:24:95:
                    4f:a1:5a:45:95:ce:1d:8f:5b:e5:af:bf:4b:d8:58:
                    72:80:84:98:70:22:4d:dd:c5:91:94:5f:1a:34:8f:
                    cc:a2:ac:68:9f:2a:ba:38:f4:9a:a9:72:83:06:20:
                    38:3c:56:d5:29:25:f3:4c:be:e0:f1:e1:cc:25:bc:
                    50:4b:17:f4:9e:af:55:db:53:f7:5c:f7:58:c8:72:
                    a1:b6:55:26:42:49:05:a3:b5:6b:4f:3a:35:c8:f2:
                    5a:70:41:11:c4:0c:7c:10:48:86:e1:f4:b0:04:a0:
                    f8:c6:e7:7e:0b:85:72:76:2f:00:dc:c5:e8:ff:1a:
                    ec:0e:7f:d2:3f:1b:ba:43:d0:be:ac:e6:ee:06:92:
                    6b:62:c9:e0:45:38:f3:d7:17:92:e0:49:f9:81:9d:
                    8e:f0:81:c2:e7:f9:54:6f:12:e7:5e:f3:5a:72:9c:
                    df:ec:3c:fa:02:7c:e4:d5:c7:c8:3c:6b:05:aa:6b:
                    4b:3f:f4:50:b5:4c:2c:bd:f0:77:08:b6:19:97:de:
                    57:27
                Exponent: 65537 (0x10001)
        X509v3 extensions:
            X509v3 Basic Constraints: 
                CA:FALSE
            X509v3 Subject Key Identifier: 
                5C:D1:D9:24:E3:70:CD:AD:BD:6C:2C:5D:DA:C6:F0:F7:63:9E:88:BB
            X509v3 Authority Key Identifier: 
                keyid:A3:97:6C:AE:16:A0:7B:D0:DE:B1:96:B3:74:50:E9:99:19:46:16:72
                DirName:/CN=team689-net
                serial:3B:5D:67:6F:EA:DA:78:E8:C0:71:9A:95:D5:E7:E0:9A:44:BB:64:04

            X509v3 Extended Key Usage: 
                TLS Web Client Authentication
            X509v3 Key Usage: 
                Digital Signature
    Signature Algorithm: sha256WithRSAEncryption
         27:f3:5c:8e:98:ef:4c:9e:81:5f:c8:40:c4:1b:10:21:76:74:
         80:d2:59:0c:e3:bc:6f:fa:19:25:b4:c0:35:36:22:5f:06:a2:
         0a:9e:c9:15:74:13:b3:0c:d0:ea:c3:72:34:e6:f0:ad:d7:29:
         83:b6:95:2a:df:a5:1d:a7:0e:8a:25:5e:5c:87:f0:aa:90:e3:
         8d:ca:73:73:a4:2f:75:25:5e:17:ce:6a:a9:e2:a4:d0:8c:98:
         95:54:04:af:04:59:70:92:07:77:c0:07:27:f5:21:9b:5f:81:
         a6:80:9d:02:03:11:2c:07:34:19:09:dc:ed:f3:7b:6e:ec:57:
         ad:9c:dc:1e:4b:34:f0:cc:21:95:2a:e8:5c:28:63:5a:07:2a:
         c5:cf:9b:a2:b0:6c:3b:a1:fd:a7:9b:08:a8:26:c1:af:a1:39:
         0e:15:c6:36:c8:ae:bd:fa:75:27:a2:18:64:92:46:d5:de:c4:
         87:5d:66:02:2b:a7:20:f3:9a:fd:00:fb:c0:ce:69:58:b9:0e:
         05:ef:8a:50:6c:cc:a6:db:e0:47:53:58:b6:34:56:79:72:2d:
         d0:c4:b4:8e:95:68:fb:df:2d:d7:13:63:f6:34:15:f7:69:ea:
         78:3d:fb:d0:66:dd:a5:a3:06:61:74:0a:14:11:48:68:0f:1f:
         0e:28:fc:f6
-----BEGIN CERTIFICATE-----
MIIDXTCCAkWgAwIBAgIRANNTB6z57LgIU5Z73sQABNcwDQYJKoZIhvcNAQELBQAw
FjEUMBIGA1UEAwwLdGVhbTY4OS1uZXQwHhcNMjIwNTE4MjM0MTA2WhcNMjUwNTAy
MjM0MTA2WjAZMRcwFQYDVQQDDA50ZWFtNjg5LWNsaWVudDCCASIwDQYJKoZIhvcN
AQEBBQADggEPADCCAQoCggEBANkPfGMJ+/yijxzzz6eqa3VPBH3YV8pcmqYhlFuF
+GO4ChiDe+1lRkvoJ2UG8Srjo5SAriP6dskn/SSVT6FaRZXOHY9b5a+/S9hYcoCE
mHAiTd3FkZRfGjSPzKKsaJ8qujj0mqlygwYgODxW1Skl80y+4PHhzCW8UEsX9J6v
VdtT91z3WMhyobZVJkJJBaO1a086NcjyWnBBEcQMfBBIhuH0sASg+MbnfguFcnYv
ANzF6P8a7A5/0j8bukPQvqzm7gaSa2LJ4EU489cXkuBJ+YGdjvCBwuf5VG8S517z
WnKc3+w8+gJ85NXHyDxrBaprSz/0ULVMLL3wdwi2GZfeVycCAwEAAaOBojCBnzAJ
BgNVHRMEAjAAMB0GA1UdDgQWBBRc0dkk43DNrb1sLF3axvD3Y56IuzBRBgNVHSME
SjBIgBSjl2yuFqB70N6xlrN0UOmZGUYWcqEapBgwFjEUMBIGA1UEAwwLdGVhbTY4
OS1uZXSCFDtdZ2/q2njowHGaldXn4JpEu2QEMBMGA1UdJQQMMAoGCCsGAQUFBwMC
MAsGA1UdDwQEAwIHgDANBgkqhkiG9w0BAQsFAAOCAQEAJ/NcjpjvTJ6BX8hAxBsQ
IXZ0gNJZDOO8b/oZJbTANTYiXwaiCp7JFXQTswzQ6sNyNObwrdcpg7aVKt+lHacO
iiVeXIfwqpDjjcpzc6QvdSVeF85qqeKk0IyYlVQErwRZcJIHd8AHJ/Uhm1+BpoCd
AgMRLAc0GQnc7fN7buxXrZzcHks08MwhlSroXChjWgcqxc+borBsO6H9p5sIqCbB
r6E5DhXGNsiuvfp1J6IYZJJG1d7Eh11mAiunIPOa/QD7wM5pWLkOBe+KUGzMptvg
R1NYtjRWeXIt0MS0jpVo+98t1xNj9jQV92nqeD370GbdpaMGYXQKFBFIaA8fDij8
9g==
-----END CERTIFICATE-----
