Certificate:
    Data:
        Version: 3 (0x2)
        Serial Number:
            93:ca:70:ab:2a:c2:dc:c7:56:ea:b7:01:bb:2a:d7:c2
        Signature Algorithm: sha256WithRSAEncryption
        Issuer: CN=team239-net
        Validity
            Not Before: May 18 19:24:39 2022 GMT
            Not After : May  2 19:24:39 2025 GMT
        Subject: CN=team239-server
        Subject Public Key Info:
            Public Key Algorithm: rsaEncryption
                RSA Public-Key: (2048 bit)
                Modulus:
                    00:cf:23:87:89:f1:9a:77:bc:26:26:e8:fe:e5:dc:
                    d3:52:c1:34:f3:22:25:9a:8e:0e:32:17:f5:0b:6c:
                    46:36:49:ba:19:00:63:ec:ff:ab:8b:ad:85:01:e5:
                    32:d9:00:27:a2:c4:3e:63:59:dc:b7:cd:fb:70:e6:
                    0e:e6:37:ab:47:db:dc:76:68:98:19:45:46:2a:5f:
                    5f:43:b7:ad:82:ab:8f:1d:f1:6a:a8:72:dd:ca:70:
                    3f:63:62:6c:45:a1:6d:30:f6:9c:b4:d1:71:30:d9:
                    2b:2a:46:63:46:57:4a:9a:59:7f:bd:f1:8e:af:1f:
                    2d:8c:2d:c0:19:98:ce:b8:0a:e7:50:56:95:7a:42:
                    35:f5:6d:03:1d:91:f1:ff:95:2b:2f:d6:45:81:5c:
                    07:14:a1:72:36:87:e8:7a:11:e2:db:a6:78:35:04:
                    ea:b4:db:56:47:35:ff:c1:77:65:e0:18:07:ae:07:
                    37:1a:4c:2d:67:b6:6a:b8:95:65:2d:40:86:0a:00:
                    b8:07:7b:72:0d:bc:55:8c:37:b0:2a:10:d5:f1:7f:
                    c1:d5:57:5d:04:67:59:80:73:86:da:8b:69:97:e3:
                    1d:aa:38:1d:4d:13:65:26:bb:5d:48:a0:19:27:c1:
                    03:71:a4:05:1b:74:8d:c5:ef:ce:f8:f5:a0:5e:f0:
                    fc:03
                Exponent: 65537 (0x10001)
        X509v3 extensions:
            X509v3 Basic Constraints: 
                CA:FALSE
            X509v3 Subject Key Identifier: 
                2C:CB:94:75:3A:7E:4E:D2:01:13:F7:EB:2B:A1:72:5E:8B:B7:F6:F8
            X509v3 Authority Key Identifier: 
                keyid:19:02:D0:64:D6:30:CF:90:3C:C4:96:F1:FF:8E:F1:83:57:45:93:5B
                DirName:/CN=team239-net
                serial:6B:34:8D:D8:A4:23:2E:B3:39:4E:7B:B9:ED:F4:2F:CE:23:BF:5B:3B

            X509v3 Extended Key Usage: 
                TLS Web Server Authentication
            X509v3 Key Usage: 
                Digital Signature, Key Encipherment
            X509v3 Subject Alternative Name: 
                DNS:team239-server
    Signature Algorithm: sha256WithRSAEncryption
         8b:26:fd:91:28:bd:85:ff:36:1b:b8:7d:e8:d4:3e:55:95:fe:
         74:87:e2:65:dd:bc:4e:7e:03:d9:f0:77:79:db:27:9d:fb:7e:
         e5:08:36:97:ad:07:0e:49:b5:cd:6b:7f:b7:32:a2:ce:b7:94:
         a4:02:64:4a:20:38:73:69:fa:3c:dc:38:7c:d2:e3:6f:36:d6:
         38:d9:33:9b:ba:1e:63:10:5b:c6:8c:f2:f4:59:1c:e7:d2:72:
         cc:de:ca:6c:3c:d3:2c:af:52:37:54:f1:39:1f:ae:e6:1d:72:
         ec:f3:0c:21:5b:06:a6:c4:aa:e6:90:33:4c:0b:d0:21:87:dd:
         fd:55:94:22:a4:e6:e8:01:0d:52:81:af:84:4b:30:3c:ba:2d:
         04:12:7d:48:ca:5f:53:5e:be:2f:08:f8:e9:c0:f6:34:46:5b:
         f3:a8:20:f1:fb:0c:0d:91:94:dd:3a:ab:9f:66:85:f4:f8:82:
         93:6e:54:5d:fc:c7:64:49:9d:72:35:3c:04:60:8a:d2:56:d8:
         c1:94:28:25:61:22:e4:e3:27:26:e0:5f:17:f3:ac:6f:9c:a7:
         a1:14:25:13:69:90:e8:58:77:0d:ea:79:51:47:b8:a2:da:68:
         f6:7b:89:08:06:90:bc:da:ff:b4:8e:4d:2b:12:dd:07:5a:08:
         64:b1:f1:2b
-----BEGIN CERTIFICATE-----
MIIDeDCCAmCgAwIBAgIRAJPKcKsqwtzHVuq3Absq18IwDQYJKoZIhvcNAQELBQAw
FjEUMBIGA1UEAwwLdGVhbTIzOS1uZXQwHhcNMjIwNTE4MTkyNDM5WhcNMjUwNTAy
MTkyNDM5WjAZMRcwFQYDVQQDDA50ZWFtMjM5LXNlcnZlcjCCASIwDQYJKoZIhvcN
AQEBBQADggEPADCCAQoCggEBAM8jh4nxmne8Jibo/uXc01LBNPMiJZqODjIX9Qts
RjZJuhkAY+z/q4uthQHlMtkAJ6LEPmNZ3LfN+3DmDuY3q0fb3HZomBlFRipfX0O3
rYKrjx3xaqhy3cpwP2NibEWhbTD2nLTRcTDZKypGY0ZXSppZf73xjq8fLYwtwBmY
zrgK51BWlXpCNfVtAx2R8f+VKy/WRYFcBxShcjaH6HoR4tumeDUE6rTbVkc1/8F3
ZeAYB64HNxpMLWe2ariVZS1AhgoAuAd7cg28VYw3sCoQ1fF/wdVXXQRnWYBzhtqL
aZfjHao4HU0TZSa7XUigGSfBA3GkBRt0jcXvzvj1oF7w/AMCAwEAAaOBvTCBujAJ
BgNVHRMEAjAAMB0GA1UdDgQWBBQsy5R1On5O0gET9+sroXJei7f2+DBRBgNVHSME
SjBIgBQZAtBk1jDPkDzElvH/jvGDV0WTW6EapBgwFjEUMBIGA1UEAwwLdGVhbTIz
OS1uZXSCFGs0jdikIy6zOU57ue30L84jv1s7MBMGA1UdJQQMMAoGCCsGAQUFBwMB
MAsGA1UdDwQEAwIFoDAZBgNVHREEEjAQgg50ZWFtMjM5LXNlcnZlcjANBgkqhkiG
9w0BAQsFAAOCAQEAiyb9kSi9hf82G7h96NQ+VZX+dIfiZd28Tn4D2fB3edsnnft+
5Qg2l60HDkm1zWt/tzKizreUpAJkSiA4c2n6PNw4fNLjbzbWONkzm7oeYxBbxozy
9Fkc59JyzN7KbDzTLK9SN1TxOR+u5h1y7PMMIVsGpsSq5pAzTAvQIYfd/VWUIqTm
6AENUoGvhEswPLotBBJ9SMpfU16+Lwj46cD2NEZb86gg8fsMDZGU3Tqrn2aF9PiC
k25UXfzHZEmdcjU8BGCK0lbYwZQoJWEi5OMnJuBfF/Osb5ynoRQlE2mQ6Fh3Dep5
UUe4otpo9nuJCAaQvNr/tI5NKxLdB1oIZLHxKw==
-----END CERTIFICATE-----
