Certificate:
    Data:
        Version: 3 (0x2)
        Serial Number:
            52:dd:87:e7:de:e8:68:31:19:ff:a7:29:04:0f:0d:e1
        Signature Algorithm: sha256WithRSAEncryption
        Issuer: CN=team747-net
        Validity
            Not Before: May 19 00:02:51 2022 GMT
            Not After : May  3 00:02:51 2025 GMT
        Subject: CN=team747-server
        Subject Public Key Info:
            Public Key Algorithm: rsaEncryption
                RSA Public-Key: (2048 bit)
                Modulus:
                    00:d1:f7:62:0f:be:fe:b4:05:b9:65:31:2d:43:e2:
                    99:7e:4f:1d:09:97:c0:4f:e8:e3:b9:80:3b:4e:53:
                    87:a9:b1:65:a5:0b:65:9c:4c:65:5b:9c:ea:ab:b5:
                    48:01:29:c3:af:bf:af:5b:09:39:99:09:1a:f4:f6:
                    3b:2f:99:b2:b9:da:f4:42:4e:d3:78:f8:df:c4:47:
                    1e:83:a7:a7:6b:aa:15:1a:9c:4a:d1:7a:3c:e6:c8:
                    0c:ca:76:e3:1f:25:05:a6:15:e1:dd:60:eb:92:07:
                    c4:f7:cd:02:76:2a:b8:b0:18:41:ad:6c:a2:1a:0c:
                    67:34:20:ee:14:96:b8:72:2b:ed:75:3f:10:c3:56:
                    c5:de:4f:f3:24:1a:20:d0:10:a5:28:e6:ac:75:12:
                    9c:e4:33:63:dd:4a:da:0a:87:18:f3:59:2a:4b:10:
                    90:34:d6:c2:da:bb:42:08:4b:03:69:5e:2d:08:47:
                    75:8f:19:d7:44:03:76:c7:8e:2a:d6:01:ed:c9:ae:
                    6f:ea:5f:0e:58:4b:8b:1f:46:32:56:dc:8a:79:f1:
                    7e:e5:50:b9:05:b9:28:14:16:c8:a4:7c:4c:f5:4f:
                    fa:3f:6f:f3:9b:55:8f:ce:7e:03:ad:a3:56:ec:b8:
                    9e:25:a2:75:e5:22:1c:74:1e:fa:8c:d1:9a:57:b1:
                    c3:db
                Exponent: 65537 (0x10001)
        X509v3 extensions:
            X509v3 Basic Constraints: 
                CA:FALSE
            X509v3 Subject Key Identifier: 
                A9:E6:02:2F:15:26:C7:C4:BF:73:0B:59:AC:C6:6E:C5:13:E4:B6:97
            X509v3 Authority Key Identifier: 
                keyid:E4:C3:5F:0E:EF:48:2E:29:AE:9D:8F:50:D2:BB:30:12:0A:BD:DC:85
                DirName:/CN=team747-net
                serial:5A:E2:A1:59:B4:9D:9D:0D:83:0F:64:A8:6C:66:CC:F9:C2:2A:BC:AD

            X509v3 Extended Key Usage: 
                TLS Web Server Authentication
            X509v3 Key Usage: 
                Digital Signature, Key Encipherment
            X509v3 Subject Alternative Name: 
                DNS:team747-server
    Signature Algorithm: sha256WithRSAEncryption
         47:29:74:2a:2a:2d:65:62:7c:15:ca:2e:fc:09:1c:40:91:ee:
         01:fa:e4:91:bc:89:be:4e:f1:02:58:8e:b1:4b:55:1d:d5:64:
         7f:5a:b7:6b:29:6b:e7:a2:83:64:9c:2d:39:6a:f3:1a:ce:f0:
         63:21:bf:62:0c:74:53:5c:1e:d1:e1:92:f7:85:8d:f6:24:4c:
         af:ee:6a:9c:22:1e:90:56:03:1e:c1:b9:ad:19:bb:e1:93:9e:
         ef:39:5c:97:d3:e7:65:6f:cd:e1:64:e1:f5:8a:23:5c:30:a5:
         43:a6:85:8c:0e:f8:9d:5b:2f:3e:64:6f:e1:2e:4f:d7:cb:d1:
         50:dc:94:b4:25:68:d1:bd:ba:51:13:61:cd:bf:4c:2d:d8:a4:
         aa:b5:8d:84:37:3e:6c:e8:b0:84:38:3c:9c:97:fc:07:e2:8c:
         6d:e3:07:89:c7:37:88:da:67:16:37:fe:8e:85:0b:59:6f:a4:
         3f:01:67:d7:4b:96:b7:fd:ad:64:c2:2e:90:d9:38:5c:67:d8:
         39:a5:53:c2:e6:e6:5b:5a:a7:32:00:ee:36:53:6f:45:f3:06:
         3a:18:15:8e:4c:7d:ab:82:89:b6:a7:ae:34:ab:1b:8e:58:b3:
         ed:a7:6e:73:5b:2c:bf:94:92:3e:a9:b4:23:44:57:d2:d7:d6:
         ec:c8:6a:70
-----BEGIN CERTIFICATE-----
MIIDdzCCAl+gAwIBAgIQUt2H597oaDEZ/6cpBA8N4TANBgkqhkiG9w0BAQsFADAW
MRQwEgYDVQQDDAt0ZWFtNzQ3LW5ldDAeFw0yMjA1MTkwMDAyNTFaFw0yNTA1MDMw
MDAyNTFaMBkxFzAVBgNVBAMMDnRlYW03NDctc2VydmVyMIIBIjANBgkqhkiG9w0B
AQEFAAOCAQ8AMIIBCgKCAQEA0fdiD77+tAW5ZTEtQ+KZfk8dCZfAT+jjuYA7TlOH
qbFlpQtlnExlW5zqq7VIASnDr7+vWwk5mQka9PY7L5myudr0Qk7TePjfxEceg6en
a6oVGpxK0Xo85sgMynbjHyUFphXh3WDrkgfE980Cdiq4sBhBrWyiGgxnNCDuFJa4
civtdT8Qw1bF3k/zJBog0BClKOasdRKc5DNj3UraCocY81kqSxCQNNbC2rtCCEsD
aV4tCEd1jxnXRAN2x44q1gHtya5v6l8OWEuLH0YyVtyKefF+5VC5BbkoFBbIpHxM
9U/6P2/zm1WPzn4DraNW7LieJaJ15SIcdB76jNGaV7HD2wIDAQABo4G9MIG6MAkG
A1UdEwQCMAAwHQYDVR0OBBYEFKnmAi8VJsfEv3MLWazGbsUT5LaXMFEGA1UdIwRK
MEiAFOTDXw7vSC4prp2PUNK7MBIKvdyFoRqkGDAWMRQwEgYDVQQDDAt0ZWFtNzQ3
LW5ldIIUWuKhWbSdnQ2DD2SobGbM+cIqvK0wEwYDVR0lBAwwCgYIKwYBBQUHAwEw
CwYDVR0PBAQDAgWgMBkGA1UdEQQSMBCCDnRlYW03NDctc2VydmVyMA0GCSqGSIb3
DQEBCwUAA4IBAQBHKXQqKi1lYnwVyi78CRxAke4B+uSRvIm+TvECWI6xS1Ud1WR/
WrdrKWvnooNknC05avMazvBjIb9iDHRTXB7R4ZL3hY32JEyv7mqcIh6QVgMewbmt
Gbvhk57vOVyX0+dlb83hZOH1iiNcMKVDpoWMDvidWy8+ZG/hLk/Xy9FQ3JS0JWjR
vbpRE2HNv0wt2KSqtY2ENz5s6LCEODycl/wH4oxt4weJxzeI2mcWN/6OhQtZb6Q/
AWfXS5a3/a1kwi6Q2ThcZ9g5pVPC5uZbWqcyAO42U29F8wY6GBWOTH2rgom2p640
qxuOWLPtp25zWyy/lJI+qbQjRFfS19bsyGpw
-----END CERTIFICATE-----
