Certificate:
    Data:
        Version: 3 (0x2)
        Serial Number:
            26:d0:49:8f:e1:a8:0b:58:04:00:ca:27:f8:0e:a6:25
        Signature Algorithm: sha256WithRSAEncryption
        Issuer: CN=team234-net
        Validity
            Not Before: May 18 19:22:11 2022 GMT
            Not After : May  2 19:22:11 2025 GMT
        Subject: CN=team234-client
        Subject Public Key Info:
            Public Key Algorithm: rsaEncryption
                RSA Public-Key: (2048 bit)
                Modulus:
                    00:be:a5:0f:64:f1:69:5c:92:59:cd:c6:cc:23:b0:
                    6f:32:bb:9b:26:67:a9:79:53:bb:7f:de:fe:17:23:
                    35:4e:5f:4e:27:75:7d:17:58:bc:b2:08:f3:53:a0:
                    33:9e:0f:97:41:ad:a1:21:eb:a6:0d:62:fb:83:55:
                    d0:54:50:c1:55:5a:b6:c2:53:28:e4:c4:0f:92:30:
                    6f:35:17:39:0b:df:b4:ae:36:99:71:01:df:a1:02:
                    f0:27:d7:c8:d3:1d:80:7e:44:80:e7:40:6d:64:dc:
                    8f:42:50:b6:eb:3d:75:e4:95:1a:12:d7:41:55:b8:
                    0c:d8:53:17:cc:68:39:42:22:28:d3:93:f8:48:b3:
                    db:ba:e0:fe:04:67:87:39:b3:9e:b1:18:0b:0c:39:
                    c0:55:e3:8a:21:e5:ba:45:61:9e:19:77:ec:ce:c2:
                    e6:65:60:6c:be:1f:2e:79:96:88:c9:ad:74:ab:1b:
                    96:fc:a9:4e:cf:09:df:df:64:cc:41:e3:c7:42:73:
                    c9:91:92:05:b3:ad:33:b4:eb:f3:89:27:71:ef:a8:
                    eb:75:a5:32:60:c1:82:24:75:6e:c8:62:b5:cc:a0:
                    86:a0:58:04:6e:96:58:86:53:9b:71:d3:d3:90:11:
                    3a:44:f5:97:d1:63:1f:da:8a:71:d6:43:29:32:f1:
                    9a:e9
                Exponent: 65537 (0x10001)
        X509v3 extensions:
            X509v3 Basic Constraints: 
                CA:FALSE
            X509v3 Subject Key Identifier: 
                19:C4:EA:17:DA:A9:F2:25:6E:20:69:EB:C3:95:10:A6:97:64:54:FA
            X509v3 Authority Key Identifier: 
                keyid:3D:DD:C0:0F:90:CC:A2:A4:A6:B5:C0:B6:E2:D4:DF:EF:4A:39:F4:BA
                DirName:/CN=team234-net
                serial:78:7C:94:36:58:F5:38:A4:95:E8:8C:73:74:04:18:39:A8:A6:43:4E

            X509v3 Extended Key Usage: 
                TLS Web Client Authentication
            X509v3 Key Usage: 
                Digital Signature
    Signature Algorithm: sha256WithRSAEncryption
         8f:52:6a:cc:ae:36:f8:d3:14:dd:91:e8:56:74:c1:ea:97:73:
         f9:44:ef:f7:07:ac:40:03:55:90:f1:fa:87:0b:d7:51:a8:c9:
         ee:2a:c6:3c:60:80:3a:ae:80:dd:5a:41:33:93:83:64:89:71:
         c0:92:5d:98:08:f4:b4:28:69:dd:cc:ed:34:02:4e:05:ec:c1:
         07:89:31:f7:d3:9e:b4:58:df:96:1c:cf:5f:ae:c9:20:74:73:
         a9:cd:44:61:5f:35:d1:be:5c:1c:ca:47:95:79:f6:d6:a9:ce:
         5e:e8:66:5b:7c:1c:b7:84:ac:c9:8c:5c:46:dd:1e:5a:f8:dd:
         f7:a4:06:8f:27:98:9c:9a:1f:00:b7:a6:ce:20:9c:ce:c6:d4:
         53:58:94:e8:9f:83:f8:a3:fb:ba:0e:2d:11:e3:13:21:dd:a1:
         66:cf:33:08:d7:15:d1:d5:86:97:49:df:00:17:62:53:59:1c:
         3a:20:c1:f5:18:18:bc:85:90:8e:b3:d9:72:cb:43:62:88:56:
         20:3f:8e:c9:4a:46:05:ad:9a:c3:d2:cf:af:3d:5e:ac:4d:13:
         d6:7c:cc:d0:17:1e:cb:65:2a:33:dc:67:55:5f:8c:7c:85:55:
         20:f8:60:f4:97:ac:0a:be:0e:77:7f:5e:2d:a5:da:58:bc:43:
         ed:86:09:f4
-----BEGIN CERTIFICATE-----
MIIDXDCCAkSgAwIBAgIQJtBJj+GoC1gEAMon+A6mJTANBgkqhkiG9w0BAQsFADAW
MRQwEgYDVQQDDAt0ZWFtMjM0LW5ldDAeFw0yMjA1MTgxOTIyMTFaFw0yNTA1MDIx
OTIyMTFaMBkxFzAVBgNVBAMMDnRlYW0yMzQtY2xpZW50MIIBIjANBgkqhkiG9w0B
AQEFAAOCAQ8AMIIBCgKCAQEAvqUPZPFpXJJZzcbMI7BvMrubJmepeVO7f97+FyM1
Tl9OJ3V9F1i8sgjzU6Azng+XQa2hIeumDWL7g1XQVFDBVVq2wlMo5MQPkjBvNRc5
C9+0rjaZcQHfoQLwJ9fI0x2AfkSA50BtZNyPQlC26z115JUaEtdBVbgM2FMXzGg5
QiIo05P4SLPbuuD+BGeHObOesRgLDDnAVeOKIeW6RWGeGXfszsLmZWBsvh8ueZaI
ya10qxuW/KlOzwnf32TMQePHQnPJkZIFs60ztOvziSdx76jrdaUyYMGCJHVuyGK1
zKCGoFgEbpZYhlObcdPTkBE6RPWX0WMf2opx1kMpMvGa6QIDAQABo4GiMIGfMAkG
A1UdEwQCMAAwHQYDVR0OBBYEFBnE6hfaqfIlbiBp68OVEKaXZFT6MFEGA1UdIwRK
MEiAFD3dwA+QzKKkprXAtuLU3+9KOfS6oRqkGDAWMRQwEgYDVQQDDAt0ZWFtMjM0
LW5ldIIUeHyUNlj1OKSV6IxzdAQYOaimQ04wEwYDVR0lBAwwCgYIKwYBBQUHAwIw
CwYDVR0PBAQDAgeAMA0GCSqGSIb3DQEBCwUAA4IBAQCPUmrMrjb40xTdkehWdMHq
l3P5RO/3B6xAA1WQ8fqHC9dRqMnuKsY8YIA6roDdWkEzk4NkiXHAkl2YCPS0KGnd
zO00Ak4F7MEHiTH30560WN+WHM9frskgdHOpzURhXzXRvlwcykeVefbWqc5e6GZb
fBy3hKzJjFxG3R5a+N33pAaPJ5icmh8At6bOIJzOxtRTWJTon4P4o/u6Di0R4xMh
3aFmzzMI1xXR1YaXSd8AF2JTWRw6IMH1GBi8hZCOs9lyy0NiiFYgP47JSkYFrZrD
0s+vPV6sTRPWfMzQFx7LZSoz3GdVX4x8hVUg+GD0l6wKvg53f14tpdpYvEPthgn0
-----END CERTIFICATE-----
