Certificate:
    Data:
        Version: 3 (0x2)
        Serial Number:
            d3:ac:22:c7:30:65:88:53:f3:c8:87:6a:31:b0:d8:9c
        Signature Algorithm: sha256WithRSAEncryption
        Issuer: CN=team226-net
        Validity
            Not Before: May 18 19:24:18 2022 GMT
            Not After : May  2 19:24:18 2025 GMT
        Subject: CN=team226-server
        Subject Public Key Info:
            Public Key Algorithm: rsaEncryption
                RSA Public-Key: (2048 bit)
                Modulus:
                    00:b3:81:06:a4:db:5e:5f:f0:93:68:40:88:a1:72:
                    f9:45:40:39:22:3a:5f:3c:54:7a:44:3e:97:bb:10:
                    9c:8c:47:9e:75:d7:5b:b9:fc:7f:18:91:1a:6c:ec:
                    23:de:90:00:0a:0f:5d:b7:c7:a8:7f:cc:5d:19:c1:
                    cd:e7:f3:ed:7f:65:48:30:fc:f0:07:79:52:dd:46:
                    5a:a5:e2:ef:8e:2b:95:16:b7:8c:d6:9e:27:d8:23:
                    e8:26:29:d0:e0:6b:8a:d9:3c:e0:17:89:43:17:8b:
                    b3:e9:06:6e:a7:8f:9e:17:b2:0a:dc:c3:58:c0:d7:
                    8c:02:ef:3f:8e:38:cf:cd:c4:f8:77:fe:fe:22:96:
                    6c:3c:a5:57:d5:43:57:b5:57:00:89:7f:ab:2c:f5:
                    9c:c3:9e:58:7a:65:6d:3c:a4:6b:2e:a9:4c:53:99:
                    2b:f6:2e:5f:c4:f2:15:e4:ce:3d:52:7f:0a:15:7d:
                    ff:ed:54:ed:f5:96:87:6d:96:5d:6b:b4:e5:b0:5f:
                    b4:42:fd:e5:47:49:f8:b1:71:46:d3:b0:80:23:84:
                    d9:6e:50:01:e5:18:65:9e:32:34:a1:2c:5b:be:c4:
                    b5:7f:2d:58:df:35:78:3f:84:00:00:47:29:29:06:
                    5f:58:6e:76:5f:c7:e6:5d:9a:88:e8:ea:8d:4b:81:
                    1f:3f
                Exponent: 65537 (0x10001)
        X509v3 extensions:
            X509v3 Basic Constraints: 
                CA:FALSE
            X509v3 Subject Key Identifier: 
                4D:7F:35:96:04:94:4C:00:46:8D:DB:C6:6E:92:DB:BC:8B:D4:70:0D
            X509v3 Authority Key Identifier: 
                keyid:44:DE:4A:8B:8A:E7:95:3C:B2:37:33:7B:B1:44:69:CB:0E:5D:40:A0
                DirName:/CN=team226-net
                serial:79:EA:D7:C4:CF:13:0C:70:5E:71:EE:75:2B:83:D5:C5:63:F0:F1:37

            X509v3 Extended Key Usage: 
                TLS Web Server Authentication
            X509v3 Key Usage: 
                Digital Signature, Key Encipherment
            X509v3 Subject Alternative Name: 
                DNS:team226-server
    Signature Algorithm: sha256WithRSAEncryption
         3d:79:28:61:63:bb:26:ef:2a:68:b7:af:0e:06:6b:3e:3f:7d:
         8d:9d:a8:07:f6:dc:76:e3:92:1d:fa:3b:2d:ea:ed:82:de:a4:
         47:bd:6f:07:cd:fe:2a:5b:a7:28:b8:d1:6f:8a:78:b6:0b:ad:
         67:b7:b3:21:ed:4e:2c:05:54:6e:b1:22:cc:dd:7d:ed:af:5c:
         fc:dc:cc:04:b2:41:32:16:01:35:5b:d1:f7:36:28:d6:96:a6:
         52:d9:57:60:02:ad:af:a4:6c:40:5d:40:4f:5f:b7:23:d2:67:
         ab:5f:38:70:39:a1:15:f1:78:3a:7e:9a:27:ef:97:7a:4d:49:
         f2:bb:20:92:7c:b4:5d:61:e1:9d:85:08:8b:f1:4c:41:7d:42:
         95:47:cd:0c:0b:a8:23:b0:3d:e2:78:90:ba:84:e1:00:46:41:
         3a:c4:98:47:f2:0c:f1:1f:4c:55:3f:ff:56:96:aa:80:23:1b:
         4c:4b:f6:bd:a7:6f:17:c0:55:e7:98:e9:a5:51:c1:f2:61:a1:
         0c:8c:df:46:5b:63:79:f4:41:84:b0:1a:46:4d:8b:b4:6d:9e:
         a1:2e:53:62:b9:55:ea:09:99:a0:ac:8a:a7:8e:d6:0d:ff:8a:
         81:95:94:f7:52:1f:3f:df:6a:2e:c4:68:75:bd:13:e5:f3:b2:
         33:92:c4:17
-----BEGIN CERTIFICATE-----
MIIDeDCCAmCgAwIBAgIRANOsIscwZYhT88iHajGw2JwwDQYJKoZIhvcNAQELBQAw
FjEUMBIGA1UEAwwLdGVhbTIyNi1uZXQwHhcNMjIwNTE4MTkyNDE4WhcNMjUwNTAy
MTkyNDE4WjAZMRcwFQYDVQQDDA50ZWFtMjI2LXNlcnZlcjCCASIwDQYJKoZIhvcN
AQEBBQADggEPADCCAQoCggEBALOBBqTbXl/wk2hAiKFy+UVAOSI6XzxUekQ+l7sQ
nIxHnnXXW7n8fxiRGmzsI96QAAoPXbfHqH/MXRnBzefz7X9lSDD88Ad5Ut1GWqXi
744rlRa3jNaeJ9gj6CYp0OBritk84BeJQxeLs+kGbqePnheyCtzDWMDXjALvP444
z83E+Hf+/iKWbDylV9VDV7VXAIl/qyz1nMOeWHplbTykay6pTFOZK/YuX8TyFeTO
PVJ/ChV9/+1U7fWWh22WXWu05bBftEL95UdJ+LFxRtOwgCOE2W5QAeUYZZ4yNKEs
W77EtX8tWN81eD+EAABHKSkGX1hudl/H5l2aiOjqjUuBHz8CAwEAAaOBvTCBujAJ
BgNVHRMEAjAAMB0GA1UdDgQWBBRNfzWWBJRMAEaN28Zuktu8i9RwDTBRBgNVHSME
SjBIgBRE3kqLiueVPLI3M3uxRGnLDl1AoKEapBgwFjEUMBIGA1UEAwwLdGVhbTIy
Ni1uZXSCFHnq18TPEwxwXnHudSuD1cVj8PE3MBMGA1UdJQQMMAoGCCsGAQUFBwMB
MAsGA1UdDwQEAwIFoDAZBgNVHREEEjAQgg50ZWFtMjI2LXNlcnZlcjANBgkqhkiG
9w0BAQsFAAOCAQEAPXkoYWO7Ju8qaLevDgZrPj99jZ2oB/bcduOSHfo7Lertgt6k
R71vB83+KlunKLjRb4p4tgutZ7ezIe1OLAVUbrEizN197a9c/NzMBLJBMhYBNVvR
9zYo1pamUtlXYAKtr6RsQF1AT1+3I9Jnq184cDmhFfF4On6aJ++Xek1J8rsgkny0
XWHhnYUIi/FMQX1ClUfNDAuoI7A94niQuoThAEZBOsSYR/IM8R9MVT//VpaqgCMb
TEv2vadvF8BV55jppVHB8mGhDIzfRltjefRBhLAaRk2LtG2eoS5TYrlV6gmZoKyK
p47WDf+KgZWU91IfP99qLsRodb0T5fOyM5LEFw==
-----END CERTIFICATE-----
