Certificate:
    Data:
        Version: 3 (0x2)
        Serial Number:
            2f:bd:31:7c:3b:a0:7c:6e:bb:aa:ca:ed:ba:e3:08:b5
        Signature Algorithm: sha256WithRSAEncryption
        Issuer: CN=team47-net
        Validity
            Not Before: May 18 14:18:57 2022 GMT
            Not After : May  2 14:18:57 2025 GMT
        Subject: CN=team47-server
        Subject Public Key Info:
            Public Key Algorithm: rsaEncryption
                RSA Public-Key: (2048 bit)
                Modulus:
                    00:d8:ac:be:19:e7:f2:d9:37:cd:17:4e:12:b7:29:
                    36:86:28:49:8f:c1:71:52:de:f0:8e:04:ea:24:34:
                    1d:37:53:0b:34:fe:d6:1d:a8:1e:84:b2:41:03:17:
                    ad:96:db:77:fa:93:67:26:35:4b:d9:57:d2:d3:7f:
                    ae:19:d5:95:51:b7:4b:37:e2:7a:27:cd:9e:b1:a0:
                    58:47:4b:28:1e:7d:d4:00:5e:0e:63:e3:d1:9b:c2:
                    40:4c:b6:5a:2a:95:e9:77:19:76:dd:10:6f:e3:71:
                    b9:9b:50:32:5b:05:b2:3c:6e:29:de:9d:85:f5:ad:
                    53:1d:e7:77:f6:ac:c3:3a:cd:c0:28:73:07:f7:dc:
                    9c:f3:a0:0a:5d:fd:48:b6:f6:50:d8:5a:bc:e8:d3:
                    6e:c8:76:13:30:92:5a:71:5b:13:29:b0:5d:9d:57:
                    de:d0:62:ab:41:0c:31:f8:89:bb:c3:15:25:bd:29:
                    d9:4c:b9:18:24:90:73:42:9d:ed:f2:7f:c7:7a:13:
                    92:e4:d6:65:cb:5e:80:bb:13:31:b7:2e:9e:6f:d3:
                    f0:4c:a5:f2:4f:57:54:0b:a7:e5:8c:b9:98:57:c4:
                    46:d6:39:45:58:37:2c:90:fd:09:66:de:09:e4:b1:
                    f9:25:5a:3e:50:8f:e5:2f:f5:5d:d9:86:47:b6:13:
                    c5:e9
                Exponent: 65537 (0x10001)
        X509v3 extensions:
            X509v3 Basic Constraints: 
                CA:FALSE
            X509v3 Subject Key Identifier: 
                27:17:FF:28:6F:29:35:9B:DE:A9:BC:96:F9:BA:4E:C0:12:6E:31:20
            X509v3 Authority Key Identifier: 
                keyid:F4:C4:14:1F:8D:A6:81:43:21:F5:87:2C:B8:23:E8:90:17:D4:CB:84
                DirName:/CN=team47-net
                serial:36:BB:80:40:B1:E3:F6:FD:1B:8F:D6:C5:EA:5C:14:FA:36:BE:B8:85

            X509v3 Extended Key Usage: 
                TLS Web Server Authentication
            X509v3 Key Usage: 
                Digital Signature, Key Encipherment
            X509v3 Subject Alternative Name: 
                DNS:team47-server
    Signature Algorithm: sha256WithRSAEncryption
         a5:d6:c4:ac:1a:b9:88:75:78:f9:f6:16:b0:85:9e:ee:12:12:
         26:04:e2:f3:0f:53:52:a4:49:c2:66:18:19:25:c9:7c:8c:52:
         a8:4d:f3:1f:12:19:c6:ea:69:e4:d8:03:30:bd:25:3e:5f:5d:
         65:86:16:d7:f4:4b:ef:8a:e1:df:06:f0:cc:ff:f6:b2:52:d2:
         23:f3:50:2b:ba:42:f2:42:d9:2f:78:9a:fc:f3:46:99:30:4c:
         00:c3:ed:19:36:ae:f7:9f:4b:92:af:dc:13:b9:53:ec:fc:b7:
         56:c4:c0:06:a1:98:91:db:c7:54:9d:cf:9a:03:3d:bf:af:b7:
         cd:29:d0:57:e9:a7:97:5b:9f:47:d9:77:2f:8f:d2:08:31:ed:
         3d:8c:9c:53:e2:25:b4:de:73:b6:04:da:06:7f:ee:a2:14:f8:
         32:a6:5b:ee:d1:68:bd:65:6f:10:cc:50:fd:d1:55:05:58:f3:
         e7:64:ed:f8:a3:1c:30:aa:23:55:ce:c3:b8:b8:0b:83:97:52:
         39:1e:9c:6d:97:47:24:09:97:d3:7f:5f:02:87:46:76:39:bd:
         b5:cd:88:05:2b:01:0e:0a:fc:6a:04:03:c0:90:3f:07:86:98:
         b1:5b:70:a6:16:a6:2e:e6:75:a7:49:38:31:3f:0b:bf:72:67:
         74:a2:ba:26
-----BEGIN CERTIFICATE-----
MIIDczCCAlugAwIBAgIQL70xfDugfG67qsrtuuMItTANBgkqhkiG9w0BAQsFADAV
MRMwEQYDVQQDDAp0ZWFtNDctbmV0MB4XDTIyMDUxODE0MTg1N1oXDTI1MDUwMjE0
MTg1N1owGDEWMBQGA1UEAwwNdGVhbTQ3LXNlcnZlcjCCASIwDQYJKoZIhvcNAQEB
BQADggEPADCCAQoCggEBANisvhnn8tk3zRdOErcpNoYoSY/BcVLe8I4E6iQ0HTdT
CzT+1h2oHoSyQQMXrZbbd/qTZyY1S9lX0tN/rhnVlVG3SzfieifNnrGgWEdLKB59
1ABeDmPj0ZvCQEy2WiqV6XcZdt0Qb+NxuZtQMlsFsjxuKd6dhfWtUx3nd/aswzrN
wChzB/fcnPOgCl39SLb2UNhavOjTbsh2EzCSWnFbEymwXZ1X3tBiq0EMMfiJu8MV
Jb0p2Uy5GCSQc0Kd7fJ/x3oTkuTWZctegLsTMbcunm/T8Eyl8k9XVAun5Yy5mFfE
RtY5RVg3LJD9CWbeCeSx+SVaPlCP5S/1XdmGR7YTxekCAwEAAaOBuzCBuDAJBgNV
HRMEAjAAMB0GA1UdDgQWBBQnF/8obyk1m96pvJb5uk7AEm4xIDBQBgNVHSMESTBH
gBT0xBQfjaaBQyH1hyy4I+iQF9TLhKEZpBcwFTETMBEGA1UEAwwKdGVhbTQ3LW5l
dIIUNruAQLHj9v0bj9bF6lwU+ja+uIUwEwYDVR0lBAwwCgYIKwYBBQUHAwEwCwYD
VR0PBAQDAgWgMBgGA1UdEQQRMA+CDXRlYW00Ny1zZXJ2ZXIwDQYJKoZIhvcNAQEL
BQADggEBAKXWxKwauYh1ePn2FrCFnu4SEiYE4vMPU1KkScJmGBklyXyMUqhN8x8S
GcbqaeTYAzC9JT5fXWWGFtf0S++K4d8G8Mz/9rJS0iPzUCu6QvJC2S94mvzzRpkw
TADD7Rk2rvefS5Kv3BO5U+z8t1bEwAahmJHbx1Sdz5oDPb+vt80p0Ffpp5dbn0fZ
dy+P0ggx7T2MnFPiJbTec7YE2gZ/7qIU+DKmW+7RaL1lbxDMUP3RVQVY8+dk7fij
HDCqI1XOw7i4C4OXUjkenG2XRyQJl9N/XwKHRnY5vbXNiAUrAQ4K/GoEA8CQPweG
mLFbcKYWpi7mdadJODE/C79yZ3SiuiY=
-----END CERTIFICATE-----
