Certificate:
    Data:
        Version: 3 (0x2)
        Serial Number:
            58:23:a2:56:32:11:29:81:c4:cd:d2:e2:68:5c:80:0e
        Signature Algorithm: sha256WithRSAEncryption
        Issuer: CN=team470-net
        Validity
            Not Before: May 18 21:34:51 2022 GMT
            Not After : May  2 21:34:51 2025 GMT
        Subject: CN=team470-server
        Subject Public Key Info:
            Public Key Algorithm: rsaEncryption
                RSA Public-Key: (2048 bit)
                Modulus:
                    00:b4:9c:3e:fc:5d:5a:47:de:ac:85:06:c4:a5:bb:
                    19:0d:7c:1d:bc:a9:cc:ab:0b:20:cf:c0:b3:5f:96:
                    f6:79:53:17:34:c8:55:c2:91:b7:c4:0d:d9:62:5a:
                    c2:fa:c7:0c:f9:f8:46:81:de:3e:1c:15:df:45:8c:
                    bb:46:37:cf:38:7d:23:dc:fa:47:2c:99:c0:ff:9b:
                    24:3f:f6:7d:24:50:bb:a4:31:44:c8:0c:43:73:5f:
                    e2:8d:8e:a3:21:9b:d8:78:db:cf:8b:e4:2f:51:90:
                    43:a8:e0:e7:7c:7f:49:a0:ca:11:8e:09:1b:af:2e:
                    05:3b:78:de:1f:5f:20:a2:4b:fe:2f:51:a9:0c:f2:
                    d3:c6:9c:e6:d6:d2:b7:f6:ad:03:51:e4:18:2a:03:
                    87:8c:ce:22:e7:58:79:93:39:8e:e7:76:17:48:c1:
                    c5:96:1e:4b:4e:14:97:04:10:54:71:82:51:71:51:
                    d7:bf:6e:32:3e:2f:4c:99:fb:0a:e3:ff:b3:eb:53:
                    9f:99:a8:71:3d:b7:c2:cf:07:24:41:29:76:13:ad:
                    ca:8d:22:47:e6:2b:ed:fe:40:9c:c3:84:9e:1d:8c:
                    f5:a9:e5:f4:8c:f2:5f:f9:61:69:a1:09:9b:c2:61:
                    4d:3b:09:84:52:5e:f3:4e:61:b2:1e:67:2a:74:12:
                    06:8f
                Exponent: 65537 (0x10001)
        X509v3 extensions:
            X509v3 Basic Constraints: 
                CA:FALSE
            X509v3 Subject Key Identifier: 
                82:D7:41:B5:00:A7:F2:74:93:85:DD:F5:42:C2:50:4C:28:9A:F9:69
            X509v3 Authority Key Identifier: 
                keyid:CA:4D:B6:18:FA:C0:11:7D:63:07:3A:42:52:06:66:A7:10:3A:52:2E
                DirName:/CN=team470-net
                serial:11:40:4C:FB:84:60:4B:F8:C5:EB:64:F8:B0:FB:39:D6:B5:9C:43:B2

            X509v3 Extended Key Usage: 
                TLS Web Server Authentication
            X509v3 Key Usage: 
                Digital Signature, Key Encipherment
            X509v3 Subject Alternative Name: 
                DNS:team470-server
    Signature Algorithm: sha256WithRSAEncryption
         47:ab:60:6b:cf:17:79:5a:c5:31:fe:97:07:e8:33:b3:a3:5e:
         c0:bd:0e:6c:a8:c1:6d:29:5c:df:f7:be:7a:8f:69:38:6a:73:
         61:2e:e3:88:4d:71:b9:ed:b8:68:50:7e:63:b3:6f:4e:4b:20:
         92:fb:e8:84:99:44:ab:f5:92:f8:aa:15:50:79:f2:93:fa:47:
         c4:a1:6a:07:0a:2b:c7:70:9c:42:c1:32:99:73:48:a1:71:cc:
         27:66:41:30:c3:d1:cf:fd:31:62:99:1d:d0:7f:13:cb:28:8d:
         80:7e:36:ac:fe:5c:d3:86:38:dc:27:dd:b7:4d:a6:ec:7f:f6:
         77:68:2e:f3:bf:4b:77:b0:e3:77:51:e3:d6:6b:e2:46:20:de:
         0d:f1:58:8d:82:8d:2d:f7:21:62:1b:93:84:16:7e:f9:98:82:
         b6:22:07:a3:72:bb:28:e1:44:f5:b2:61:a3:c3:2e:28:f0:2f:
         dd:33:e2:24:cb:fe:d3:46:87:1c:2d:8b:20:14:32:d3:56:98:
         9e:0e:a1:e1:19:7b:76:d6:cb:2b:ee:d1:9d:3d:d5:7d:98:b8:
         94:c5:20:22:b3:97:16:0e:16:41:ff:77:c5:ca:4e:0c:0b:7e:
         63:9e:90:d6:04:33:a1:d8:d4:0c:f3:62:ce:8b:48:79:a2:0f:
         5a:32:46:6f
-----BEGIN CERTIFICATE-----
MIIDdzCCAl+gAwIBAgIQWCOiVjIRKYHEzdLiaFyADjANBgkqhkiG9w0BAQsFADAW
MRQwEgYDVQQDDAt0ZWFtNDcwLW5ldDAeFw0yMjA1MTgyMTM0NTFaFw0yNTA1MDIy
MTM0NTFaMBkxFzAVBgNVBAMMDnRlYW00NzAtc2VydmVyMIIBIjANBgkqhkiG9w0B
AQEFAAOCAQ8AMIIBCgKCAQEAtJw+/F1aR96shQbEpbsZDXwdvKnMqwsgz8CzX5b2
eVMXNMhVwpG3xA3ZYlrC+scM+fhGgd4+HBXfRYy7RjfPOH0j3PpHLJnA/5skP/Z9
JFC7pDFEyAxDc1/ijY6jIZvYeNvPi+QvUZBDqODnfH9JoMoRjgkbry4FO3jeH18g
okv+L1GpDPLTxpzm1tK39q0DUeQYKgOHjM4i51h5kzmO53YXSMHFlh5LThSXBBBU
cYJRcVHXv24yPi9MmfsK4/+z61OfmahxPbfCzwckQSl2E63KjSJH5ivt/kCcw4Se
HYz1qeX0jPJf+WFpoQmbwmFNOwmEUl7zTmGyHmcqdBIGjwIDAQABo4G9MIG6MAkG
A1UdEwQCMAAwHQYDVR0OBBYEFILXQbUAp/J0k4Xd9ULCUEwomvlpMFEGA1UdIwRK
MEiAFMpNthj6wBF9Ywc6QlIGZqcQOlIuoRqkGDAWMRQwEgYDVQQDDAt0ZWFtNDcw
LW5ldIIUEUBM+4RgS/jF62T4sPs51rWcQ7IwEwYDVR0lBAwwCgYIKwYBBQUHAwEw
CwYDVR0PBAQDAgWgMBkGA1UdEQQSMBCCDnRlYW00NzAtc2VydmVyMA0GCSqGSIb3
DQEBCwUAA4IBAQBHq2Brzxd5WsUx/pcH6DOzo17AvQ5sqMFtKVzf9756j2k4anNh
LuOITXG57bhoUH5js29OSyCS++iEmUSr9ZL4qhVQefKT+kfEoWoHCivHcJxCwTKZ
c0ihccwnZkEww9HP/TFimR3QfxPLKI2Afjas/lzThjjcJ923Tabsf/Z3aC7zv0t3
sON3UePWa+JGIN4N8ViNgo0t9yFiG5OEFn75mIK2Igejcrso4UT1smGjwy4o8C/d
M+Iky/7TRoccLYsgFDLTVpieDqHhGXt21ssr7tGdPdV9mLiUxSAis5cWDhZB/3fF
yk4MC35jnpDWBDOh2NQM82LOi0h5og9aMkZv
-----END CERTIFICATE-----
