Certificate:
    Data:
        Version: 3 (0x2)
        Serial Number:
            55:fc:29:2e:5a:b2:f8:6f:c9:0e:9b:7c:5e:ce:47:45
        Signature Algorithm: sha256WithRSAEncryption
        Issuer: CN=team189-net
        Validity
            Not Before: May 18 18:55:03 2022 GMT
            Not After : May  2 18:55:03 2025 GMT
        Subject: CN=team189-client
        Subject Public Key Info:
            Public Key Algorithm: rsaEncryption
                RSA Public-Key: (2048 bit)
                Modulus:
                    00:e5:ee:45:13:48:2c:63:d8:71:9b:7f:25:57:3a:
                    c1:63:18:d1:ac:20:15:40:c4:e8:cb:69:16:5c:24:
                    01:2d:cb:52:23:de:6f:45:c3:a2:3b:f2:41:d8:5d:
                    4c:7e:f9:e7:f4:91:b1:45:f4:cf:df:1b:26:c2:06:
                    c1:06:59:dd:c9:42:65:cc:11:8f:73:76:f9:d2:5d:
                    a8:aa:2f:c2:48:39:f0:26:fc:5b:93:af:4a:8f:ec:
                    15:b4:04:6d:6b:2b:c0:42:f4:26:db:f8:3d:23:ba:
                    21:bf:b5:7a:62:10:ea:38:9e:60:b0:c1:9a:00:dc:
                    ca:c7:65:32:10:c9:13:af:58:f3:63:7d:88:ee:7b:
                    a5:95:2d:9c:c5:b0:cb:22:94:48:7e:b1:53:10:39:
                    69:54:11:cf:26:e7:ef:98:0f:36:73:f3:fb:50:7f:
                    0e:d4:6f:6d:e7:98:03:62:41:48:6a:07:4e:0b:45:
                    a0:93:89:b9:87:19:36:55:c2:b7:37:98:09:f0:fd:
                    9c:46:a4:eb:78:52:82:58:b5:c3:38:f5:d2:db:15:
                    ee:1c:59:35:b4:28:b3:04:27:4b:5e:60:97:08:48:
                    ba:9f:ed:f2:c4:37:d6:98:e1:9a:36:6e:4f:ac:db:
                    b7:28:c2:de:98:da:7e:cc:8b:82:cf:8f:60:a9:b2:
                    45:fd
                Exponent: 65537 (0x10001)
        X509v3 extensions:
            X509v3 Basic Constraints: 
                CA:FALSE
            X509v3 Subject Key Identifier: 
                5B:3F:46:54:23:A7:F3:C3:48:5E:FC:A3:1D:1C:CD:46:03:02:A0:B0
            X509v3 Authority Key Identifier: 
                keyid:69:93:86:6C:A3:F8:39:A4:70:59:81:45:2F:89:BF:C5:54:39:7D:7D
                DirName:/CN=team189-net
                serial:04:5A:B9:95:29:3A:CC:A1:CC:27:41:A4:75:EF:CD:73:62:F5:28:53

            X509v3 Extended Key Usage: 
                TLS Web Client Authentication
            X509v3 Key Usage: 
                Digital Signature
    Signature Algorithm: sha256WithRSAEncryption
         aa:5f:91:d7:18:31:b5:02:3a:4b:87:42:09:34:e6:59:d7:a9:
         79:29:34:2d:ae:c4:21:b8:c8:41:f9:c4:09:84:30:d3:c6:f1:
         24:4e:35:01:02:15:2e:b1:4b:e5:b2:d3:33:15:05:73:e8:51:
         bf:fe:22:18:fb:5a:39:25:b1:43:87:2d:97:9b:32:3b:80:f5:
         ad:1c:a1:db:a4:58:9b:8a:30:82:dc:9e:3f:9b:5a:f9:f1:07:
         7e:08:79:6a:d7:ed:24:75:d7:b3:ea:f4:ba:03:6c:02:d5:7b:
         b4:56:db:3a:6d:24:57:0a:6d:18:1c:27:fc:26:a9:ec:c9:aa:
         c6:dc:c8:f2:6c:73:a3:d8:cd:8f:d7:84:8a:61:00:72:15:ea:
         f1:02:16:d9:0d:2b:f7:ba:58:1a:4d:7d:9f:9b:52:37:e9:20:
         c5:b6:61:aa:27:d2:6d:74:3a:d4:73:c1:9b:eb:ad:a3:50:6c:
         b2:b4:9c:6a:2b:17:36:36:aa:87:cf:40:a1:65:50:0b:c6:0a:
         8a:61:bd:16:6e:b4:5e:b3:ba:32:3f:43:22:87:3e:bf:4c:bb:
         54:87:d1:1a:41:7c:0e:22:52:da:63:af:84:c1:a5:87:23:84:
         24:bb:d5:67:4b:83:91:98:66:11:28:8d:32:e1:1c:96:72:ab:
         82:6f:a8:8f
-----BEGIN CERTIFICATE-----
MIIDXDCCAkSgAwIBAgIQVfwpLlqy+G/JDpt8Xs5HRTANBgkqhkiG9w0BAQsFADAW
MRQwEgYDVQQDDAt0ZWFtMTg5LW5ldDAeFw0yMjA1MTgxODU1MDNaFw0yNTA1MDIx
ODU1MDNaMBkxFzAVBgNVBAMMDnRlYW0xODktY2xpZW50MIIBIjANBgkqhkiG9w0B
AQEFAAOCAQ8AMIIBCgKCAQEA5e5FE0gsY9hxm38lVzrBYxjRrCAVQMToy2kWXCQB
LctSI95vRcOiO/JB2F1Mfvnn9JGxRfTP3xsmwgbBBlndyUJlzBGPc3b50l2oqi/C
SDnwJvxbk69Kj+wVtARtayvAQvQm2/g9I7ohv7V6YhDqOJ5gsMGaANzKx2UyEMkT
r1jzY32I7nullS2cxbDLIpRIfrFTEDlpVBHPJufvmA82c/P7UH8O1G9t55gDYkFI
agdOC0Wgk4m5hxk2VcK3N5gJ8P2cRqTreFKCWLXDOPXS2xXuHFk1tCizBCdLXmCX
CEi6n+3yxDfWmOGaNm5PrNu3KMLemNp+zIuCz49gqbJF/QIDAQABo4GiMIGfMAkG
A1UdEwQCMAAwHQYDVR0OBBYEFFs/RlQjp/PDSF78ox0czUYDAqCwMFEGA1UdIwRK
MEiAFGmThmyj+DmkcFmBRS+Jv8VUOX19oRqkGDAWMRQwEgYDVQQDDAt0ZWFtMTg5
LW5ldIIUBFq5lSk6zKHMJ0Gkde/Nc2L1KFMwEwYDVR0lBAwwCgYIKwYBBQUHAwIw
CwYDVR0PBAQDAgeAMA0GCSqGSIb3DQEBCwUAA4IBAQCqX5HXGDG1AjpLh0IJNOZZ
16l5KTQtrsQhuMhB+cQJhDDTxvEkTjUBAhUusUvlstMzFQVz6FG//iIY+1o5JbFD
hy2XmzI7gPWtHKHbpFibijCC3J4/m1r58Qd+CHlq1+0kddez6vS6A2wC1Xu0Vts6
bSRXCm0YHCf8JqnsyarG3MjybHOj2M2P14SKYQByFerxAhbZDSv3ulgaTX2fm1I3
6SDFtmGqJ9JtdDrUc8Gb662jUGyytJxqKxc2NqqHz0ChZVALxgqKYb0WbrRes7oy
P0Mihz6/TLtUh9EaQXwOIlLaY6+EwaWHI4Qku9VnS4ORmGYRKI0y4RyWcquCb6iP
-----END CERTIFICATE-----
