Certificate:
    Data:
        Version: 3 (0x2)
        Serial Number:
            50:fb:52:b7:4c:25:ed:67:a8:2b:b0:c1:47:44:7a:26
        Signature Algorithm: sha256WithRSAEncryption
        Issuer: CN=team666-net
        Validity
            Not Before: May 18 23:26:30 2022 GMT
            Not After : May  2 23:26:30 2025 GMT
        Subject: CN=team666-client
        Subject Public Key Info:
            Public Key Algorithm: rsaEncryption
                RSA Public-Key: (2048 bit)
                Modulus:
                    00:b7:30:cf:2c:1a:a8:12:e4:8b:e9:e2:bd:64:e2:
                    10:8c:ce:82:27:f7:92:d0:89:bd:7a:b5:26:ff:ad:
                    ce:0f:2a:fc:1c:47:8a:39:5b:c7:3e:b2:e5:81:58:
                    9c:11:8f:d3:8c:a0:63:ef:1c:4c:56:b1:48:25:a0:
                    07:a5:46:27:a2:3f:59:33:26:8c:43:ea:7a:fe:2e:
                    c2:89:6c:b7:84:b0:50:94:09:04:d8:2d:06:69:a4:
                    90:05:ff:26:2a:62:f9:89:ad:09:ff:28:49:7e:88:
                    80:43:b1:28:7d:25:56:5a:f6:a5:18:dd:73:c3:62:
                    74:0a:f7:0d:37:2d:a7:c4:6a:15:69:c4:cf:7b:97:
                    e8:1c:08:90:ea:a6:6a:77:a5:46:9f:0a:0a:dd:bd:
                    d1:d5:be:95:7b:2e:13:f8:9e:16:3d:b5:6a:5b:fc:
                    43:dc:1f:1b:98:e4:84:ca:7a:74:a1:37:00:9a:e4:
                    c8:d9:46:8a:cb:39:1b:c6:99:33:3d:12:71:c0:70:
                    3a:42:13:0a:d5:b0:73:d7:b0:81:83:c1:86:56:37:
                    7e:be:43:a9:89:07:98:f7:ae:88:80:a4:de:1d:5a:
                    32:84:10:dc:08:c2:c4:1a:21:c9:58:e4:d6:62:97:
                    07:ed:98:7b:85:55:46:e9:94:20:fd:c5:2f:b2:50:
                    a5:cd
                Exponent: 65537 (0x10001)
        X509v3 extensions:
            X509v3 Basic Constraints: 
                CA:FALSE
            X509v3 Subject Key Identifier: 
                44:91:AC:97:19:5C:94:27:5B:89:7C:3E:51:1C:0E:DC:41:27:B8:D7
            X509v3 Authority Key Identifier: 
                keyid:70:7D:2D:63:21:AB:D8:26:71:35:20:2C:A8:85:B7:87:0B:B2:02:E4
                DirName:/CN=team666-net
                serial:3E:5B:FC:CB:09:98:41:2E:78:6E:F7:2A:93:74:80:D5:14:ED:C1:50

            X509v3 Extended Key Usage: 
                TLS Web Client Authentication
            X509v3 Key Usage: 
                Digital Signature
    Signature Algorithm: sha256WithRSAEncryption
         5b:9e:4a:02:dd:84:37:3c:bd:12:e2:5c:54:c5:55:3e:17:0c:
         0c:43:1e:70:70:d3:24:93:fd:9c:74:02:a6:7f:47:50:de:ae:
         03:de:38:52:35:0a:29:f1:a7:80:45:3b:0e:5d:69:94:48:34:
         cc:d8:d5:f0:6d:02:84:e5:4b:9a:de:8c:2b:1a:ce:95:36:a6:
         dd:26:21:fe:ef:a3:f7:ba:9d:76:0b:e4:83:11:6f:73:e9:12:
         71:53:9c:0e:b2:47:f3:e9:94:9c:64:21:e3:b5:6f:4c:e5:d7:
         ea:5c:dc:65:4a:c7:8f:70:61:3b:3e:02:8f:01:c1:00:95:f1:
         87:8b:48:db:9b:b1:85:59:ee:67:a7:09:ac:0a:51:9c:ad:6a:
         bf:51:a2:8f:ca:12:16:09:59:dd:12:f6:ae:c3:ab:83:bc:8d:
         12:30:15:d3:99:10:fd:4a:60:a6:f2:9b:13:ba:75:58:fe:5b:
         e1:bd:42:cd:5f:86:9b:14:2c:c0:6c:61:2e:d5:72:2a:ff:1b:
         1b:97:08:3c:94:6b:f5:01:68:fd:0d:de:b0:2c:6e:ec:8b:56:
         b5:cb:22:48:16:a0:d5:69:bf:33:f4:79:7c:de:53:19:23:9b:
         21:c7:2a:56:14:0d:5f:de:fc:7b:be:ef:e0:a5:65:be:a3:cc:
         7b:39:09:e0
-----BEGIN CERTIFICATE-----
MIIDXDCCAkSgAwIBAgIQUPtSt0wl7WeoK7DBR0R6JjANBgkqhkiG9w0BAQsFADAW
MRQwEgYDVQQDDAt0ZWFtNjY2LW5ldDAeFw0yMjA1MTgyMzI2MzBaFw0yNTA1MDIy
MzI2MzBaMBkxFzAVBgNVBAMMDnRlYW02NjYtY2xpZW50MIIBIjANBgkqhkiG9w0B
AQEFAAOCAQ8AMIIBCgKCAQEAtzDPLBqoEuSL6eK9ZOIQjM6CJ/eS0Im9erUm/63O
Dyr8HEeKOVvHPrLlgVicEY/TjKBj7xxMVrFIJaAHpUYnoj9ZMyaMQ+p6/i7CiWy3
hLBQlAkE2C0GaaSQBf8mKmL5ia0J/yhJfoiAQ7EofSVWWvalGN1zw2J0CvcNNy2n
xGoVacTPe5foHAiQ6qZqd6VGnwoK3b3R1b6Vey4T+J4WPbVqW/xD3B8bmOSEynp0
oTcAmuTI2UaKyzkbxpkzPRJxwHA6QhMK1bBz17CBg8GGVjd+vkOpiQeY966IgKTe
HVoyhBDcCMLEGiHJWOTWYpcH7Zh7hVVG6ZQg/cUvslClzQIDAQABo4GiMIGfMAkG
A1UdEwQCMAAwHQYDVR0OBBYEFESRrJcZXJQnW4l8PlEcDtxBJ7jXMFEGA1UdIwRK
MEiAFHB9LWMhq9gmcTUgLKiFt4cLsgLkoRqkGDAWMRQwEgYDVQQDDAt0ZWFtNjY2
LW5ldIIUPlv8ywmYQS54bvcqk3SA1RTtwVAwEwYDVR0lBAwwCgYIKwYBBQUHAwIw
CwYDVR0PBAQDAgeAMA0GCSqGSIb3DQEBCwUAA4IBAQBbnkoC3YQ3PL0S4lxUxVU+
FwwMQx5wcNMkk/2cdAKmf0dQ3q4D3jhSNQop8aeARTsOXWmUSDTM2NXwbQKE5Uua
3owrGs6VNqbdJiH+76P3up12C+SDEW9z6RJxU5wOskfz6ZScZCHjtW9M5dfqXNxl
SsePcGE7PgKPAcEAlfGHi0jbm7GFWe5npwmsClGcrWq/UaKPyhIWCVndEvauw6uD
vI0SMBXTmRD9SmCm8psTunVY/lvhvULNX4abFCzAbGEu1XIq/xsblwg8lGv1AWj9
Dd6wLG7si1a1yyJIFqDVab8z9Hl83lMZI5shxypWFA1f3vx7vu/gpWW+o8x7OQng
-----END CERTIFICATE-----
