Certificate:
    Data:
        Version: 3 (0x2)
        Serial Number:
            14:37:75:5f:cd:04:56:7a:c2:f6:77:78:a2:61:3a:1d
        Signature Algorithm: sha256WithRSAEncryption
        Issuer: CN=team434-net
        Validity
            Not Before: May 18 21:09:24 2022 GMT
            Not After : May  2 21:09:24 2025 GMT
        Subject: CN=team434-server
        Subject Public Key Info:
            Public Key Algorithm: rsaEncryption
                RSA Public-Key: (2048 bit)
                Modulus:
                    00:cf:11:0a:b1:55:4e:3e:0b:bd:ce:30:b2:26:05:
                    8b:ad:a0:ea:6f:35:66:b4:68:11:e2:73:42:39:78:
                    6d:cb:46:70:93:31:bc:e4:c7:4f:ed:d2:49:21:46:
                    fe:db:cf:97:f5:db:87:0c:af:78:b6:4a:3f:be:e1:
                    5d:28:f6:ae:04:f0:31:3b:17:15:ea:24:a5:de:35:
                    fc:0a:90:4b:9f:ad:ae:ce:2b:b5:63:5b:12:ca:87:
                    aa:37:7c:8d:45:37:9a:19:cb:49:67:d8:15:fd:60:
                    6e:06:b8:3c:c4:45:12:f6:82:ca:8d:54:fa:08:7c:
                    0f:18:1f:75:a3:a8:26:5e:ab:d0:ff:86:c5:42:48:
                    13:4a:79:d9:64:df:8c:63:cd:e6:f8:02:1d:97:f8:
                    48:cd:c3:5e:e9:90:4b:92:30:1d:e9:5c:3e:ff:e7:
                    5f:6d:5e:97:02:02:82:8d:de:5a:bb:65:df:1a:37:
                    df:e8:c8:09:1f:97:94:84:27:4d:52:d7:2b:0e:94:
                    c2:22:cd:2a:96:ee:28:6c:e9:03:10:76:50:59:60:
                    18:80:bf:ae:19:f5:60:44:84:66:7d:ec:0a:35:11:
                    d8:58:3e:40:e1:f2:30:a8:3d:58:77:0b:41:a1:27:
                    04:d4:0b:bf:b1:e4:e5:42:02:6e:c6:bf:ff:96:ee:
                    63:d3
                Exponent: 65537 (0x10001)
        X509v3 extensions:
            X509v3 Basic Constraints: 
                CA:FALSE
            X509v3 Subject Key Identifier: 
                51:A4:E2:DD:A4:62:5E:2F:02:32:58:A4:F2:79:B7:2F:16:09:6C:31
            X509v3 Authority Key Identifier: 
                keyid:96:40:55:27:26:5E:EF:C5:A7:9C:65:99:73:0B:A6:28:6B:5A:0C:D5
                DirName:/CN=team434-net
                serial:3C:50:09:F5:56:ED:33:0C:73:84:D0:31:9D:1D:8A:2A:E5:C3:AE:F5

            X509v3 Extended Key Usage: 
                TLS Web Server Authentication
            X509v3 Key Usage: 
                Digital Signature, Key Encipherment
            X509v3 Subject Alternative Name: 
                DNS:team434-server
    Signature Algorithm: sha256WithRSAEncryption
         31:c3:e9:c2:61:ca:42:50:04:44:2e:32:69:35:c2:49:82:ef:
         d3:9c:27:74:9c:b4:80:1a:04:2a:40:4b:ba:e7:68:81:79:82:
         94:b1:ba:be:40:e7:5a:2e:08:b0:7a:7f:ad:58:24:2b:cf:e6:
         1b:30:3e:9b:66:bf:b0:42:7c:10:9d:84:8c:6f:6b:cb:f4:c9:
         d5:e3:df:06:53:c4:fa:0e:87:95:a4:cb:4e:ee:3d:e9:8e:2a:
         84:a7:89:c2:26:03:bf:d2:8f:fc:de:8a:1d:e2:16:ae:db:5d:
         81:9b:ab:f4:8e:3b:2e:6d:41:7c:60:f9:f2:26:12:3f:32:03:
         45:73:fd:e0:21:f5:e4:c3:56:14:da:78:d6:2f:7e:7c:a2:b3:
         b3:ee:42:3d:6b:72:c9:9d:20:b1:c0:11:42:c2:9a:79:2a:a5:
         29:df:cb:72:7f:a5:05:d5:54:34:fb:09:30:9d:c7:0d:ce:ea:
         4b:4a:7b:58:0f:93:a2:2c:64:45:e8:7f:ff:af:b2:e3:a0:d4:
         6d:be:59:64:33:71:6b:9c:ae:a9:83:49:98:7d:74:5b:2f:63:
         a3:c6:82:c6:a2:16:c3:14:24:ec:60:3a:89:39:19:e5:86:38:
         08:78:aa:36:58:ed:23:d4:22:64:81:ab:02:34:7e:7f:9f:07:
         6a:01:14:30
-----BEGIN CERTIFICATE-----
MIIDdzCCAl+gAwIBAgIQFDd1X80EVnrC9nd4omE6HTANBgkqhkiG9w0BAQsFADAW
MRQwEgYDVQQDDAt0ZWFtNDM0LW5ldDAeFw0yMjA1MTgyMTA5MjRaFw0yNTA1MDIy
MTA5MjRaMBkxFzAVBgNVBAMMDnRlYW00MzQtc2VydmVyMIIBIjANBgkqhkiG9w0B
AQEFAAOCAQ8AMIIBCgKCAQEAzxEKsVVOPgu9zjCyJgWLraDqbzVmtGgR4nNCOXht
y0ZwkzG85MdP7dJJIUb+28+X9duHDK94tko/vuFdKPauBPAxOxcV6iSl3jX8CpBL
n62uziu1Y1sSyoeqN3yNRTeaGctJZ9gV/WBuBrg8xEUS9oLKjVT6CHwPGB91o6gm
XqvQ/4bFQkgTSnnZZN+MY83m+AIdl/hIzcNe6ZBLkjAd6Vw+/+dfbV6XAgKCjd5a
u2XfGjff6MgJH5eUhCdNUtcrDpTCIs0qlu4obOkDEHZQWWAYgL+uGfVgRIRmfewK
NRHYWD5A4fIwqD1YdwtBoScE1Au/seTlQgJuxr//lu5j0wIDAQABo4G9MIG6MAkG
A1UdEwQCMAAwHQYDVR0OBBYEFFGk4t2kYl4vAjJYpPJ5ty8WCWwxMFEGA1UdIwRK
MEiAFJZAVScmXu/Fp5xlmXMLpihrWgzVoRqkGDAWMRQwEgYDVQQDDAt0ZWFtNDM0
LW5ldIIUPFAJ9VbtMwxzhNAxnR2KKuXDrvUwEwYDVR0lBAwwCgYIKwYBBQUHAwEw
CwYDVR0PBAQDAgWgMBkGA1UdEQQSMBCCDnRlYW00MzQtc2VydmVyMA0GCSqGSIb3
DQEBCwUAA4IBAQAxw+nCYcpCUARELjJpNcJJgu/TnCd0nLSAGgQqQEu652iBeYKU
sbq+QOdaLgiwen+tWCQrz+YbMD6bZr+wQnwQnYSMb2vL9MnV498GU8T6DoeVpMtO
7j3pjiqEp4nCJgO/0o/83ood4hau212Bm6v0jjsubUF8YPnyJhI/MgNFc/3gIfXk
w1YU2njWL358orOz7kI9a3LJnSCxwBFCwpp5KqUp38tyf6UF1VQ0+wkwnccNzupL
SntYD5OiLGRF6H//r7LjoNRtvllkM3FrnK6pg0mYfXRbL2OjxoLGohbDFCTsYDqJ
ORnlhjgIeKo2WO0j1CJkgasCNH5/nwdqARQw
-----END CERTIFICATE-----
