Certificate:
    Data:
        Version: 3 (0x2)
        Serial Number:
            74:64:19:e7:f1:9e:3b:ce:af:98:a1:6b:89:fa:8e:97
        Signature Algorithm: sha256WithRSAEncryption
        Issuer: CN=team610-net
        Validity
            Not Before: May 18 22:44:50 2022 GMT
            Not After : May  2 22:44:50 2025 GMT
        Subject: CN=team610-client
        Subject Public Key Info:
            Public Key Algorithm: rsaEncryption
                RSA Public-Key: (2048 bit)
                Modulus:
                    00:e1:64:47:2c:69:5f:0a:7b:70:10:9f:5b:b3:3c:
                    a4:33:7c:c4:3e:9f:d1:76:ce:cd:71:b3:f9:b3:02:
                    33:1d:8c:0d:da:90:26:f9:c0:6a:0f:90:d6:93:41:
                    3e:a5:91:31:ef:be:c5:bc:b3:20:72:fa:b4:34:f8:
                    84:52:9b:ed:e8:5f:cd:e4:98:80:64:88:eb:25:d6:
                    20:e0:b4:e0:e5:0f:53:01:4d:8d:8c:de:48:3e:52:
                    7b:1e:37:1a:dc:e8:45:e3:07:eb:d6:3c:9f:e3:1c:
                    76:b0:3b:c3:da:11:73:49:09:4b:d5:40:e3:e7:eb:
                    a0:74:78:7e:28:0e:84:83:b7:d6:dc:77:06:7f:10:
                    a3:96:14:8d:4c:1d:0e:67:92:ce:ea:a6:82:87:b1:
                    c3:21:90:dc:da:93:b2:52:c9:3d:db:88:c3:2c:08:
                    10:2f:96:e6:6b:96:bb:5f:e8:ae:31:83:b6:9d:20:
                    24:5e:ef:74:b7:47:2c:89:53:1d:42:0a:36:5b:85:
                    30:fc:0f:18:a7:1c:2d:69:88:15:34:24:fa:73:e2:
                    bc:84:fd:06:55:15:f4:24:a5:94:ea:63:05:33:95:
                    03:11:b6:6c:10:20:50:7d:e7:b8:6f:00:69:c0:7b:
                    9a:61:42:50:8b:8d:3b:c9:07:34:5a:14:d3:7a:4a:
                    ba:71
                Exponent: 65537 (0x10001)
        X509v3 extensions:
            X509v3 Basic Constraints: 
                CA:FALSE
            X509v3 Subject Key Identifier: 
                2A:05:E3:4E:78:90:8F:CA:2E:EC:E6:0F:8D:AA:3B:2F:01:9C:78:49
            X509v3 Authority Key Identifier: 
                keyid:8C:62:C3:36:70:24:E3:83:02:25:C7:DB:05:74:7E:44:87:D3:56:8C
                DirName:/CN=team610-net
                serial:68:52:00:4A:31:D8:97:CA:D5:61:44:3F:FE:01:71:6F:98:F9:84:10

            X509v3 Extended Key Usage: 
                TLS Web Client Authentication
            X509v3 Key Usage: 
                Digital Signature
    Signature Algorithm: sha256WithRSAEncryption
         1a:4a:c8:6b:e7:fd:a8:8c:15:05:3e:22:6b:52:33:ee:59:a6:
         06:68:1e:ca:02:37:91:7b:9a:f2:29:90:5f:d5:f6:d8:05:26:
         19:be:31:b0:50:76:c1:ba:55:89:db:30:dd:8c:af:58:ec:b1:
         48:03:97:38:8b:d5:c4:ae:18:02:6c:df:6e:67:bb:38:ea:f7:
         75:85:6c:ce:07:6f:63:dd:32:3b:62:5e:ee:2e:ce:bb:fa:f6:
         57:ec:84:00:4b:c1:07:6a:fd:de:d2:b2:29:ce:24:ff:32:44:
         fb:ba:11:15:54:77:62:fa:ac:c2:db:09:f8:10:53:1d:b0:91:
         0f:ee:31:97:42:74:9e:a2:ff:27:3b:29:d0:9e:8f:0f:15:7d:
         c3:19:39:28:e3:55:67:a7:d7:c9:44:ab:b9:6f:4a:fa:85:b6:
         39:d2:7e:5d:d7:3f:ed:43:67:a9:39:1c:66:af:d1:2b:74:56:
         13:99:99:99:e4:a9:b2:9a:06:cf:97:29:3f:8d:74:06:82:c9:
         05:80:18:70:3e:6e:9c:d9:30:72:0f:83:ec:99:f5:c3:31:27:
         89:e4:72:73:df:57:77:d7:36:a9:6b:15:a4:a3:5b:71:ef:76:
         00:9f:42:fd:be:fa:b6:d8:d6:82:b4:bb:e3:87:a0:ab:63:8c:
         bf:60:dd:7f
-----BEGIN CERTIFICATE-----
MIIDXDCCAkSgAwIBAgIQdGQZ5/GeO86vmKFrifqOlzANBgkqhkiG9w0BAQsFADAW
MRQwEgYDVQQDDAt0ZWFtNjEwLW5ldDAeFw0yMjA1MTgyMjQ0NTBaFw0yNTA1MDIy
MjQ0NTBaMBkxFzAVBgNVBAMMDnRlYW02MTAtY2xpZW50MIIBIjANBgkqhkiG9w0B
AQEFAAOCAQ8AMIIBCgKCAQEA4WRHLGlfCntwEJ9bszykM3zEPp/Rds7NcbP5swIz
HYwN2pAm+cBqD5DWk0E+pZEx777FvLMgcvq0NPiEUpvt6F/N5JiAZIjrJdYg4LTg
5Q9TAU2NjN5IPlJ7Hjca3OhF4wfr1jyf4xx2sDvD2hFzSQlL1UDj5+ugdHh+KA6E
g7fW3HcGfxCjlhSNTB0OZ5LO6qaCh7HDIZDc2pOyUsk924jDLAgQL5bma5a7X+iu
MYO2nSAkXu90t0csiVMdQgo2W4Uw/A8YpxwtaYgVNCT6c+K8hP0GVRX0JKWU6mMF
M5UDEbZsECBQfee4bwBpwHuaYUJQi407yQc0WhTTekq6cQIDAQABo4GiMIGfMAkG
A1UdEwQCMAAwHQYDVR0OBBYEFCoF4054kI/KLuzmD42qOy8BnHhJMFEGA1UdIwRK
MEiAFIxiwzZwJOODAiXH2wV0fkSH01aMoRqkGDAWMRQwEgYDVQQDDAt0ZWFtNjEw
LW5ldIIUaFIASjHYl8rVYUQ//gFxb5j5hBAwEwYDVR0lBAwwCgYIKwYBBQUHAwIw
CwYDVR0PBAQDAgeAMA0GCSqGSIb3DQEBCwUAA4IBAQAaSshr5/2ojBUFPiJrUjPu
WaYGaB7KAjeRe5ryKZBf1fbYBSYZvjGwUHbBulWJ2zDdjK9Y7LFIA5c4i9XErhgC
bN9uZ7s46vd1hWzOB29j3TI7Yl7uLs67+vZX7IQAS8EHav3e0rIpziT/MkT7uhEV
VHdi+qzC2wn4EFMdsJEP7jGXQnSeov8nOynQno8PFX3DGTko41Vnp9fJRKu5b0r6
hbY50n5d1z/tQ2epORxmr9ErdFYTmZmZ5KmymgbPlyk/jXQGgskFgBhwPm6c2TBy
D4PsmfXDMSeJ5HJz31d31zapaxWko1tx73YAn0L9vvq22NaCtLvjh6CrY4y/YN1/
-----END CERTIFICATE-----
