Certificate:
    Data:
        Version: 3 (0x2)
        Serial Number:
            5f:12:3b:e6:8c:45:5b:c3:43:17:c0:86:7f:55:5b:40
        Signature Algorithm: sha256WithRSAEncryption
        Issuer: CN=team697-net
        Validity
            Not Before: May 18 23:31:30 2022 GMT
            Not After : May  2 23:31:30 2025 GMT
        Subject: CN=team697-client
        Subject Public Key Info:
            Public Key Algorithm: rsaEncryption
                RSA Public-Key: (2048 bit)
                Modulus:
                    00:f0:af:39:c3:b3:7a:7a:99:1f:2a:62:cb:dd:6b:
                    43:7e:c8:ed:23:98:f8:76:63:4f:87:09:c5:70:94:
                    d3:56:bb:63:b2:3a:ae:36:c1:36:aa:2b:67:ef:f5:
                    05:76:dc:43:67:31:d0:ef:3b:b3:ff:6b:0c:6f:8f:
                    b9:6d:98:7f:7a:25:4e:e6:d8:dd:59:d2:06:5e:25:
                    e4:55:6b:08:48:c7:b7:fb:9a:80:aa:f3:49:00:8e:
                    06:3a:5f:2e:95:47:03:34:03:1e:18:08:dc:2e:c7:
                    dc:fb:19:20:2a:b9:4a:25:ad:25:4b:62:14:3b:bf:
                    68:d4:c3:26:b4:8d:b7:fc:c0:e2:e8:92:c1:06:1c:
                    9c:13:8f:9b:63:a0:79:a5:62:eb:28:2f:4d:0f:68:
                    84:87:13:4a:84:b9:e1:c8:75:09:76:08:39:f2:86:
                    9d:68:d7:36:fb:b0:d4:7c:be:89:85:4b:90:06:7f:
                    6f:61:25:15:5b:32:b8:4c:23:8e:83:fe:fb:17:6f:
                    de:eb:da:48:09:ad:e8:f4:f9:81:a7:6e:de:b8:14:
                    cc:f0:4c:34:a1:d7:7b:6a:67:8c:09:46:57:62:4d:
                    79:ac:2a:e5:df:dd:0a:36:66:76:2d:cc:1b:3c:85:
                    c1:30:81:d8:a1:49:1e:08:77:3c:10:eb:75:40:c1:
                    82:4f
                Exponent: 65537 (0x10001)
        X509v3 extensions:
            X509v3 Basic Constraints: 
                CA:FALSE
            X509v3 Subject Key Identifier: 
                8A:81:4D:78:BC:73:21:41:9B:DD:51:69:83:3D:7A:1A:C3:CA:3F:76
            X509v3 Authority Key Identifier: 
                keyid:AD:E3:99:06:81:EA:57:06:2C:86:D6:43:38:12:00:4C:B4:22:9E:66
                DirName:/CN=team697-net
                serial:30:F7:4E:BC:87:37:EF:0E:AC:09:E0:12:2E:C0:B7:EB:83:ED:FF:14

            X509v3 Extended Key Usage: 
                TLS Web Client Authentication
            X509v3 Key Usage: 
                Digital Signature
    Signature Algorithm: sha256WithRSAEncryption
         0f:95:b6:77:15:a6:b3:ed:66:d7:92:17:1c:33:76:e7:95:87:
         52:a5:0a:17:45:0c:0e:ee:44:cf:48:b7:53:05:8e:32:03:15:
         39:fa:d7:66:00:fb:e9:73:1c:e4:b3:52:50:5e:7c:da:3f:7f:
         f5:af:a1:a4:20:81:c6:8d:81:cd:26:6d:e3:57:cd:cf:2b:48:
         ff:33:48:b8:96:dc:89:bf:79:fc:8a:6a:14:bf:8e:f8:7b:62:
         b0:f4:9b:58:ee:5e:20:e1:31:a0:99:e3:cf:3c:3b:e9:ec:e6:
         5b:77:97:95:7b:41:f1:8c:a7:f5:d7:3e:41:11:ff:40:62:e1:
         28:7a:05:95:7a:0b:7a:f7:37:b4:89:a7:f4:b1:4a:5f:45:cb:
         54:17:c5:94:41:ca:31:54:a4:fe:2f:3e:00:46:64:04:8b:86:
         a9:74:55:e4:4a:ad:a4:c5:e3:94:5b:8e:81:e2:fe:b6:e5:92:
         1a:98:c1:16:51:e2:36:48:22:19:c6:73:97:a9:f8:c5:c1:b1:
         58:46:3f:a3:f6:be:96:83:a7:2c:6c:77:8d:ca:4d:6c:02:d6:
         4a:71:6b:ff:01:d3:3c:9c:de:d9:b9:b2:2f:52:a8:c4:3e:d6:
         46:06:79:bc:64:58:3b:76:2b:f2:bf:a3:c7:94:8b:a5:21:55:
         26:7d:8e:63
-----BEGIN CERTIFICATE-----
MIIDXDCCAkSgAwIBAgIQXxI75oxFW8NDF8CGf1VbQDANBgkqhkiG9w0BAQsFADAW
MRQwEgYDVQQDDAt0ZWFtNjk3LW5ldDAeFw0yMjA1MTgyMzMxMzBaFw0yNTA1MDIy
MzMxMzBaMBkxFzAVBgNVBAMMDnRlYW02OTctY2xpZW50MIIBIjANBgkqhkiG9w0B
AQEFAAOCAQ8AMIIBCgKCAQEA8K85w7N6epkfKmLL3WtDfsjtI5j4dmNPhwnFcJTT
VrtjsjquNsE2qitn7/UFdtxDZzHQ7zuz/2sMb4+5bZh/eiVO5tjdWdIGXiXkVWsI
SMe3+5qAqvNJAI4GOl8ulUcDNAMeGAjcLsfc+xkgKrlKJa0lS2IUO79o1MMmtI23
/MDi6JLBBhycE4+bY6B5pWLrKC9ND2iEhxNKhLnhyHUJdgg58oadaNc2+7DUfL6J
hUuQBn9vYSUVWzK4TCOOg/77F2/e69pICa3o9PmBp27euBTM8Ew0odd7ameMCUZX
Yk15rCrl390KNmZ2LcwbPIXBMIHYoUkeCHc8EOt1QMGCTwIDAQABo4GiMIGfMAkG
A1UdEwQCMAAwHQYDVR0OBBYEFIqBTXi8cyFBm91RaYM9ehrDyj92MFEGA1UdIwRK
MEiAFK3jmQaB6lcGLIbWQzgSAEy0Ip5moRqkGDAWMRQwEgYDVQQDDAt0ZWFtNjk3
LW5ldIIUMPdOvIc37w6sCeASLsC364Pt/xQwEwYDVR0lBAwwCgYIKwYBBQUHAwIw
CwYDVR0PBAQDAgeAMA0GCSqGSIb3DQEBCwUAA4IBAQAPlbZ3Faaz7WbXkhccM3bn
lYdSpQoXRQwO7kTPSLdTBY4yAxU5+tdmAPvpcxzks1JQXnzaP3/1r6GkIIHGjYHN
Jm3jV83PK0j/M0i4ltyJv3n8imoUv474e2Kw9JtY7l4g4TGgmePPPDvp7OZbd5eV
e0HxjKf11z5BEf9AYuEoegWVegt69ze0iaf0sUpfRctUF8WUQcoxVKT+Lz4ARmQE
i4apdFXkSq2kxeOUW46B4v625ZIamMEWUeI2SCIZxnOXqfjFwbFYRj+j9r6Wg6cs
bHeNyk1sAtZKcWv/AdM8nN7ZubIvUqjEPtZGBnm8ZFg7divyv6PHlIulIVUmfY5j
-----END CERTIFICATE-----
