Certificate:
    Data:
        Version: 3 (0x2)
        Serial Number:
            4d:b0:d3:60:52:63:3a:46:fa:1a:37:e8:1c:31:23:12
        Signature Algorithm: sha256WithRSAEncryption
        Issuer: CN=team745-net
        Validity
            Not Before: May 19 00:09:18 2022 GMT
            Not After : May  3 00:09:18 2025 GMT
        Subject: CN=team745-client
        Subject Public Key Info:
            Public Key Algorithm: rsaEncryption
                RSA Public-Key: (2048 bit)
                Modulus:
                    00:c8:7b:79:3b:03:23:db:c7:dc:37:c1:e5:05:54:
                    9a:1c:8f:9e:32:2b:13:31:82:b8:1d:48:8c:49:57:
                    04:b9:ee:9c:34:28:6c:d7:8a:9d:e3:e5:87:a6:50:
                    3b:7b:12:62:f1:d3:dd:2a:dc:53:9a:03:18:a5:d1:
                    e8:68:47:5e:56:24:6f:33:c9:2f:c6:99:6f:21:a8:
                    3a:e3:7a:76:0b:89:d4:4d:c4:86:17:3f:62:d0:c8:
                    8e:d0:06:31:2f:c9:27:98:60:74:c3:4e:8c:07:e0:
                    27:19:20:77:98:27:dd:9e:6e:02:8f:57:66:5c:98:
                    3c:20:3c:33:cb:50:64:42:b4:d2:76:1b:8a:4b:ea:
                    19:8e:87:91:47:b5:53:5b:70:91:c6:70:cc:0b:ca:
                    2a:de:34:24:37:db:5f:55:9b:45:7a:15:77:13:74:
                    f0:72:21:73:63:d9:9e:ce:9b:b3:b4:1f:f5:de:09:
                    93:95:a4:b3:4f:69:d4:82:59:ca:22:4d:c0:68:e2:
                    11:63:7a:4a:54:57:b4:dd:a8:b6:3e:c5:d5:1a:50:
                    aa:79:34:1a:4b:1e:28:b2:db:48:5f:72:ca:4d:58:
                    b8:78:40:07:8a:9c:60:71:34:ef:c8:07:e8:ee:5d:
                    35:c2:70:64:b3:81:4e:4d:2e:83:9a:52:c5:99:17:
                    09:51
                Exponent: 65537 (0x10001)
        X509v3 extensions:
            X509v3 Basic Constraints: 
                CA:FALSE
            X509v3 Subject Key Identifier: 
                FA:56:9D:00:0E:0C:E0:81:E0:DA:EB:21:D4:B1:7C:20:4D:B2:88:38
            X509v3 Authority Key Identifier: 
                keyid:B1:DC:CF:13:8E:31:F0:1C:06:9C:CC:01:51:D3:E7:61:CD:C1:6B:19
                DirName:/CN=team745-net
                serial:5B:A8:15:F7:FE:AC:3D:F7:98:BC:45:8A:0E:F0:97:87:EC:9D:60:77

            X509v3 Extended Key Usage: 
                TLS Web Client Authentication
            X509v3 Key Usage: 
                Digital Signature
    Signature Algorithm: sha256WithRSAEncryption
         bf:0b:10:07:c8:b7:78:fc:57:b6:26:a2:68:e8:2e:04:1c:f6:
         dd:60:1c:43:48:bd:bc:d5:1f:ce:75:03:bc:c8:9f:f7:4e:e0:
         95:e6:5b:c3:1a:08:40:5d:c0:91:af:28:ce:ba:b1:64:bd:58:
         d2:4f:a7:9f:21:01:a0:98:03:90:59:96:a8:de:11:eb:5d:2c:
         6d:00:dd:f8:6c:0b:b2:86:d2:4d:56:67:38:fc:f1:8a:38:48:
         f7:9b:35:44:25:78:81:bf:91:7b:aa:46:20:44:b2:ce:64:c4:
         1f:76:97:90:62:2e:b8:b3:7b:de:20:c4:c6:52:e8:98:a5:dd:
         26:56:dd:79:6e:5c:c7:e2:1c:c1:df:48:69:07:65:2a:67:28:
         54:72:2c:71:11:48:e5:a7:b2:6f:7a:b9:3b:66:a2:a8:68:47:
         4e:39:cc:b6:a6:5f:6a:88:0d:5f:26:ca:a9:cf:d2:2d:9b:f5:
         d3:f1:42:66:e6:7a:bf:4f:7d:08:f1:2d:c8:2e:85:9c:81:fb:
         fa:f3:5a:a6:e8:38:d4:26:e4:9f:33:18:ff:ae:09:ba:fd:a0:
         e9:f2:a1:0e:83:49:e5:21:88:fc:ff:42:74:1f:a8:40:eb:17:
         44:fc:ce:6a:81:fd:7a:d7:5b:dd:44:7a:24:d6:fd:0e:4c:10:
         20:61:69:6b
-----BEGIN CERTIFICATE-----
MIIDXDCCAkSgAwIBAgIQTbDTYFJjOkb6GjfoHDEjEjANBgkqhkiG9w0BAQsFADAW
MRQwEgYDVQQDDAt0ZWFtNzQ1LW5ldDAeFw0yMjA1MTkwMDA5MThaFw0yNTA1MDMw
MDA5MThaMBkxFzAVBgNVBAMMDnRlYW03NDUtY2xpZW50MIIBIjANBgkqhkiG9w0B
AQEFAAOCAQ8AMIIBCgKCAQEAyHt5OwMj28fcN8HlBVSaHI+eMisTMYK4HUiMSVcE
ue6cNChs14qd4+WHplA7exJi8dPdKtxTmgMYpdHoaEdeViRvM8kvxplvIag643p2
C4nUTcSGFz9i0MiO0AYxL8knmGB0w06MB+AnGSB3mCfdnm4Cj1dmXJg8IDwzy1Bk
QrTSdhuKS+oZjoeRR7VTW3CRxnDMC8oq3jQkN9tfVZtFehV3E3TwciFzY9mezpuz
tB/13gmTlaSzT2nUglnKIk3AaOIRY3pKVFe03ai2PsXVGlCqeTQaSx4osttIX3LK
TVi4eEAHipxgcTTvyAfo7l01wnBks4FOTS6DmlLFmRcJUQIDAQABo4GiMIGfMAkG
A1UdEwQCMAAwHQYDVR0OBBYEFPpWnQAODOCB4NrrIdSxfCBNsog4MFEGA1UdIwRK
MEiAFLHczxOOMfAcBpzMAVHT52HNwWsZoRqkGDAWMRQwEgYDVQQDDAt0ZWFtNzQ1
LW5ldIIUW6gV9/6sPfeYvEWKDvCXh+ydYHcwEwYDVR0lBAwwCgYIKwYBBQUHAwIw
CwYDVR0PBAQDAgeAMA0GCSqGSIb3DQEBCwUAA4IBAQC/CxAHyLd4/Fe2JqJo6C4E
HPbdYBxDSL281R/OdQO8yJ/3TuCV5lvDGghAXcCRryjOurFkvVjST6efIQGgmAOQ
WZao3hHrXSxtAN34bAuyhtJNVmc4/PGKOEj3mzVEJXiBv5F7qkYgRLLOZMQfdpeQ
Yi64s3veIMTGUuiYpd0mVt15blzH4hzB30hpB2UqZyhUcixxEUjlp7Jverk7ZqKo
aEdOOcy2pl9qiA1fJsqpz9Itm/XT8UJm5nq/T30I8S3ILoWcgfv681qm6DjUJuSf
Mxj/rgm6/aDp8qEOg0nlIYj8/0J0H6hA6xdE/M5qgf1611vdRHok1v0OTBAgYWlr
-----END CERTIFICATE-----
