Certificate:
    Data:
        Version: 3 (0x2)
        Serial Number:
            15:1f:00:5a:87:0c:2b:49:d1:a4:f9:f4:f8:b2:ee:e9
        Signature Algorithm: sha256WithRSAEncryption
        Issuer: CN=team329-net
        Validity
            Not Before: May 18 20:15:58 2022 GMT
            Not After : May  2 20:15:58 2025 GMT
        Subject: CN=team329-server
        Subject Public Key Info:
            Public Key Algorithm: rsaEncryption
                RSA Public-Key: (2048 bit)
                Modulus:
                    00:da:70:c6:03:75:2e:13:00:ad:1d:03:61:db:bf:
                    9b:6d:d2:13:f7:46:e2:c0:c9:d4:dd:3d:9f:66:ca:
                    60:79:d7:a8:91:37:a8:ec:df:ac:c7:79:cc:2f:a1:
                    52:b9:b5:5d:f4:60:cb:14:14:a8:44:66:a1:90:d7:
                    fb:16:ad:b1:59:c2:1f:53:d7:6b:8a:70:5b:94:d5:
                    8a:23:97:16:ef:0c:ad:b7:9c:64:e8:06:c0:d5:51:
                    d8:ac:d0:1d:36:5a:e2:37:81:37:0b:b0:8e:78:20:
                    c6:f9:f2:c4:68:c5:e6:5a:48:1c:9c:36:eb:32:c0:
                    f8:69:c1:b2:73:bb:63:07:9f:35:13:5b:e5:d2:62:
                    8f:87:0a:cc:ec:35:f3:44:bb:27:91:57:65:b7:5f:
                    b3:23:34:92:2e:8e:2c:3f:64:db:57:1e:1b:1e:5f:
                    bc:10:1e:19:9f:02:e3:d5:47:0b:91:da:71:11:7b:
                    08:3b:2e:25:6b:05:bb:32:c6:a7:b8:f1:69:50:9e:
                    af:78:4f:7e:72:e0:0f:2a:2b:07:d5:a5:72:1e:82:
                    99:9c:e6:f0:6d:59:cf:2c:e2:14:06:ad:fa:ae:6b:
                    48:5e:6b:10:12:ee:49:4c:ba:7c:cd:0d:4c:31:b6:
                    a1:0f:02:38:20:90:7c:49:23:37:84:47:36:23:7b:
                    de:5f
                Exponent: 65537 (0x10001)
        X509v3 extensions:
            X509v3 Basic Constraints: 
                CA:FALSE
            X509v3 Subject Key Identifier: 
                CA:7B:22:C8:7F:57:23:AE:E5:BB:3F:5D:0D:66:60:C4:8D:F6:BD:4A
            X509v3 Authority Key Identifier: 
                keyid:69:38:84:C0:A0:2D:0B:D1:03:B0:3E:AC:13:6D:2A:21:62:6C:D0:70
                DirName:/CN=team329-net
                serial:1F:05:5F:24:B8:4F:23:02:8D:AE:93:52:F2:AD:BE:7A:28:7B:A3:A8

            X509v3 Extended Key Usage: 
                TLS Web Server Authentication
            X509v3 Key Usage: 
                Digital Signature, Key Encipherment
            X509v3 Subject Alternative Name: 
                DNS:team329-server
    Signature Algorithm: sha256WithRSAEncryption
         5b:26:b8:fc:2e:09:c9:fd:d1:bd:4d:2c:93:53:b0:be:e9:f2:
         b3:aa:fb:90:e7:9f:0e:e5:94:ac:6a:95:04:1d:4b:50:40:b0:
         5c:90:4f:b2:f9:4e:b2:d4:3b:2f:95:2f:25:e4:6c:97:f1:7a:
         a4:e0:2f:cd:55:51:b2:e0:1d:fe:c0:48:d4:e0:77:1a:92:11:
         c1:42:19:71:ed:6f:0b:ac:54:0b:a5:27:65:3c:b5:6b:f7:19:
         13:6d:98:89:f1:76:de:e3:79:7b:ad:fe:4a:7f:57:e9:c9:6c:
         f9:cd:14:d8:f5:18:bd:26:d3:77:3a:1c:02:ed:54:5d:f4:cd:
         da:a3:1f:d3:9c:39:f9:c7:76:0a:87:d7:6f:53:93:2a:e9:17:
         fe:ad:61:5f:48:db:62:1c:d1:0b:8a:0e:4f:72:d5:e2:fd:77:
         50:ef:13:e9:76:ad:12:04:98:2d:f5:c2:2b:2d:9b:07:1a:6f:
         e5:46:64:2d:81:62:4a:f6:16:08:e2:c9:91:05:5e:37:d9:39:
         e7:36:ce:d8:ff:b7:82:6d:d7:1a:0c:02:d6:07:ff:e0:b1:40:
         2a:b6:37:9f:82:92:df:f0:bb:90:20:9f:09:bd:4f:83:26:c2:
         f5:5f:c3:1e:84:fa:f4:89:db:52:fa:f4:2e:ce:9c:d2:32:cd:
         17:3b:6a:3f
-----BEGIN CERTIFICATE-----
MIIDdzCCAl+gAwIBAgIQFR8AWocMK0nRpPn0+LLu6TANBgkqhkiG9w0BAQsFADAW
MRQwEgYDVQQDDAt0ZWFtMzI5LW5ldDAeFw0yMjA1MTgyMDE1NThaFw0yNTA1MDIy
MDE1NThaMBkxFzAVBgNVBAMMDnRlYW0zMjktc2VydmVyMIIBIjANBgkqhkiG9w0B
AQEFAAOCAQ8AMIIBCgKCAQEA2nDGA3UuEwCtHQNh27+bbdIT90biwMnU3T2fZspg
edeokTeo7N+sx3nML6FSubVd9GDLFBSoRGahkNf7Fq2xWcIfU9drinBblNWKI5cW
7wytt5xk6AbA1VHYrNAdNlriN4E3C7COeCDG+fLEaMXmWkgcnDbrMsD4acGyc7tj
B581E1vl0mKPhwrM7DXzRLsnkVdlt1+zIzSSLo4sP2TbVx4bHl+8EB4ZnwLj1UcL
kdpxEXsIOy4lawW7MsanuPFpUJ6veE9+cuAPKisH1aVyHoKZnObwbVnPLOIUBq36
rmtIXmsQEu5JTLp8zQ1MMbahDwI4IJB8SSM3hEc2I3veXwIDAQABo4G9MIG6MAkG
A1UdEwQCMAAwHQYDVR0OBBYEFMp7Ish/VyOu5bs/XQ1mYMSN9r1KMFEGA1UdIwRK
MEiAFGk4hMCgLQvRA7A+rBNtKiFibNBwoRqkGDAWMRQwEgYDVQQDDAt0ZWFtMzI5
LW5ldIIUHwVfJLhPIwKNrpNS8q2+eih7o6gwEwYDVR0lBAwwCgYIKwYBBQUHAwEw
CwYDVR0PBAQDAgWgMBkGA1UdEQQSMBCCDnRlYW0zMjktc2VydmVyMA0GCSqGSIb3
DQEBCwUAA4IBAQBbJrj8LgnJ/dG9TSyTU7C+6fKzqvuQ558O5ZSsapUEHUtQQLBc
kE+y+U6y1DsvlS8l5GyX8Xqk4C/NVVGy4B3+wEjU4HcakhHBQhlx7W8LrFQLpSdl
PLVr9xkTbZiJ8Xbe43l7rf5Kf1fpyWz5zRTY9Ri9JtN3OhwC7VRd9M3aox/TnDn5
x3YKh9dvU5Mq6Rf+rWFfSNtiHNELig5PctXi/XdQ7xPpdq0SBJgt9cIrLZsHGm/l
RmQtgWJK9hYI4smRBV432TnnNs7Y/7eCbdcaDALWB//gsUAqtjefgpLf8LuQIJ8J
vU+DJsL1X8MehPr0idtS+vQuzpzSMs0XO2o/
-----END CERTIFICATE-----
