Certificate:
    Data:
        Version: 3 (0x2)
        Serial Number:
            07:fe:aa:70:11:cc:24:c3:f6:fb:99:46:80:da:dc:69
        Signature Algorithm: sha256WithRSAEncryption
        Issuer: CN=team21-net
        Validity
            Not Before: May 18 14:02:44 2022 GMT
            Not After : May  2 14:02:44 2025 GMT
        Subject: CN=team21-client
        Subject Public Key Info:
            Public Key Algorithm: rsaEncryption
                RSA Public-Key: (2048 bit)
                Modulus:
                    00:ad:d2:52:7e:0b:08:82:38:ed:50:29:30:a6:e4:
                    d5:c5:a0:c2:69:c2:d1:a2:bc:e2:69:ec:93:df:d0:
                    82:aa:d2:5a:1d:bb:e4:90:18:5a:52:c2:2a:2a:6f:
                    d3:6c:80:76:02:cb:59:0f:28:f5:70:a3:fb:9f:85:
                    c4:62:f0:be:2f:3f:39:51:ee:59:57:7f:a7:99:a3:
                    67:fe:77:02:8a:3c:32:43:d7:27:7c:41:d4:61:1a:
                    87:14:e8:65:56:ea:08:6c:26:cf:e0:35:0e:fa:ff:
                    89:6f:f7:3f:7c:d0:65:49:da:c8:37:82:af:68:7a:
                    28:0b:54:a6:5e:21:16:3c:32:4d:99:b8:ab:0c:b4:
                    f1:94:e4:a9:38:1f:b6:a5:6a:fb:3b:2b:1c:fe:df:
                    79:2d:06:49:77:2a:bc:57:a3:c1:fe:a1:31:c1:88:
                    cf:96:c0:54:65:df:ce:62:10:51:fd:51:54:dc:a2:
                    e6:bb:8d:44:2a:2e:9c:00:f5:2e:9e:73:a5:3c:24:
                    6d:d6:28:dc:9a:79:28:5f:92:d6:14:69:57:79:68:
                    89:21:f3:28:cc:36:d4:85:bf:8d:6d:ad:36:41:ba:
                    c2:59:74:de:9b:15:f2:3f:62:c4:6e:bc:49:eb:ba:
                    c0:de:04:f1:80:f7:61:25:a2:74:f7:c5:a1:cc:9b:
                    79:83
                Exponent: 65537 (0x10001)
        X509v3 extensions:
            X509v3 Basic Constraints: 
                CA:FALSE
            X509v3 Subject Key Identifier: 
                5F:44:9D:0C:8B:FF:FB:E7:8E:6E:EE:CF:68:BF:A9:14:64:AD:66:80
            X509v3 Authority Key Identifier: 
                keyid:8C:4C:0A:CC:C2:A2:BA:F9:69:43:28:72:46:22:E0:CA:FF:0B:D6:DD
                DirName:/CN=team21-net
                serial:7D:0D:91:E6:E1:1D:96:6F:28:E4:1E:41:C0:80:AC:DF:4B:D6:C9:72

            X509v3 Extended Key Usage: 
                TLS Web Client Authentication
            X509v3 Key Usage: 
                Digital Signature
    Signature Algorithm: sha256WithRSAEncryption
         80:2c:48:99:c6:23:e2:d1:33:8f:51:c0:c0:97:dd:62:0d:58:
         a2:37:94:9a:b2:b5:d9:0a:4a:0e:e3:70:4a:36:26:a4:c0:c1:
         64:c0:fd:ac:af:d0:00:53:a3:f1:9d:18:88:8b:e8:b3:8c:38:
         2a:10:56:a9:12:55:00:42:18:45:cd:04:26:d3:21:0f:c2:56:
         7c:32:e0:12:99:37:62:ca:fc:3c:a7:0f:c7:59:fe:46:54:b3:
         42:df:aa:53:2a:2f:7d:f2:00:ee:3e:73:8b:38:ca:4e:3d:37:
         19:31:43:24:72:98:41:85:74:aa:68:19:ed:ed:3e:70:cd:bc:
         c7:60:b8:d0:19:95:bc:b7:5e:a8:91:b7:fb:9f:74:ef:dc:c4:
         48:0e:02:0e:82:a9:ff:e7:3c:a6:f6:57:05:33:db:07:56:9c:
         3a:35:1b:26:e0:a6:22:de:23:ba:38:bc:65:96:97:01:c8:a9:
         a3:4e:03:50:51:10:ee:cc:98:c5:be:64:ac:f5:52:49:f7:86:
         59:a9:97:39:5f:ce:ef:41:31:e3:a5:c4:7c:88:e4:06:a7:33:
         87:cb:ca:dc:d3:e2:51:af:0f:88:06:2d:a9:a8:51:5a:95:2f:
         bd:72:4e:bb:2e:27:be:6e:c8:b0:d1:87:f1:10:91:a5:65:c4:
         58:7a:0b:da
-----BEGIN CERTIFICATE-----
MIIDWTCCAkGgAwIBAgIQB/6qcBHMJMP2+5lGgNrcaTANBgkqhkiG9w0BAQsFADAV
MRMwEQYDVQQDDAp0ZWFtMjEtbmV0MB4XDTIyMDUxODE0MDI0NFoXDTI1MDUwMjE0
MDI0NFowGDEWMBQGA1UEAwwNdGVhbTIxLWNsaWVudDCCASIwDQYJKoZIhvcNAQEB
BQADggEPADCCAQoCggEBAK3SUn4LCII47VApMKbk1cWgwmnC0aK84mnsk9/QgqrS
Wh275JAYWlLCKipv02yAdgLLWQ8o9XCj+5+FxGLwvi8/OVHuWVd/p5mjZ/53Aoo8
MkPXJ3xB1GEahxToZVbqCGwmz+A1Dvr/iW/3P3zQZUnayDeCr2h6KAtUpl4hFjwy
TZm4qwy08ZTkqTgftqVq+zsrHP7feS0GSXcqvFejwf6hMcGIz5bAVGXfzmIQUf1R
VNyi5ruNRCounAD1Lp5zpTwkbdYo3Jp5KF+S1hRpV3loiSHzKMw21IW/jW2tNkG6
wll03psV8j9ixG68Seu6wN4E8YD3YSWidPfFocybeYMCAwEAAaOBoTCBnjAJBgNV
HRMEAjAAMB0GA1UdDgQWBBRfRJ0Mi//7545u7s9ov6kUZK1mgDBQBgNVHSMESTBH
gBSMTArMwqK6+WlDKHJGIuDK/wvW3aEZpBcwFTETMBEGA1UEAwwKdGVhbTIxLW5l
dIIUfQ2R5uEdlm8o5B5BwICs30vWyXIwEwYDVR0lBAwwCgYIKwYBBQUHAwIwCwYD
VR0PBAQDAgeAMA0GCSqGSIb3DQEBCwUAA4IBAQCALEiZxiPi0TOPUcDAl91iDVii
N5SasrXZCkoO43BKNiakwMFkwP2sr9AAU6PxnRiIi+izjDgqEFapElUAQhhFzQQm
0yEPwlZ8MuASmTdiyvw8pw/HWf5GVLNC36pTKi998gDuPnOLOMpOPTcZMUMkcphB
hXSqaBnt7T5wzbzHYLjQGZW8t16okbf7n3Tv3MRIDgIOgqn/5zym9lcFM9sHVpw6
NRsm4KYi3iO6OLxllpcByKmjTgNQURDuzJjFvmSs9VJJ94ZZqZc5X87vQTHjpcR8
iOQGpzOHy8rc0+JRrw+IBi2pqFFalS+9ck67Lie+bsiw0YfxEJGlZcRYegva
-----END CERTIFICATE-----
