Certificate:
    Data:
        Version: 3 (0x2)
        Serial Number:
            a4:db:a0:86:e4:01:0e:d5:48:1b:e2:05:c0:a8:bb:7d
        Signature Algorithm: sha256WithRSAEncryption
        Issuer: CN=team21-net
        Validity
            Not Before: May 18 14:02:45 2022 GMT
            Not After : May  2 14:02:45 2025 GMT
        Subject: CN=team21-server
        Subject Public Key Info:
            Public Key Algorithm: rsaEncryption
                RSA Public-Key: (2048 bit)
                Modulus:
                    00:c8:e7:f8:3f:55:7b:d7:22:6e:eb:08:d5:d0:3d:
                    d0:ee:39:eb:68:f4:d5:15:7f:fd:d2:d1:bb:4e:2a:
                    84:8d:53:e0:e5:ce:37:f9:f3:a5:d5:18:4a:58:04:
                    b0:09:c9:95:44:e7:ca:2a:44:27:27:9b:9b:dc:6e:
                    46:06:d0:de:3e:61:e4:4e:75:73:e9:7b:11:96:bd:
                    76:35:16:58:89:f7:c9:6f:86:11:bb:42:ac:bf:61:
                    4b:2d:55:eb:50:76:d1:e0:92:3c:48:7f:6f:8d:17:
                    ac:ce:63:e1:9a:57:33:1d:a2:ba:d3:08:69:dd:d8:
                    ca:90:3b:dc:95:85:5d:72:19:23:82:8c:2f:3c:7a:
                    f3:9e:6c:49:8b:7c:ac:be:78:48:e6:c9:78:97:cf:
                    92:d0:99:69:2c:d3:e6:57:1a:9e:5f:3e:8b:07:12:
                    c3:31:d8:b8:74:8b:1f:97:5a:e7:56:21:72:7a:23:
                    6d:71:37:d1:b2:8b:d7:4d:ed:22:19:15:3f:c3:25:
                    32:f5:32:63:a3:f2:0d:e2:9d:45:48:d2:20:4a:8e:
                    fc:ba:a8:41:d6:ff:7e:2d:4a:88:9e:0b:e1:a7:81:
                    08:73:9b:9e:d7:d4:75:f8:03:64:93:38:b4:f2:5f:
                    60:44:45:6e:01:f4:d7:11:c0:8b:a6:17:85:31:c8:
                    3e:3b
                Exponent: 65537 (0x10001)
        X509v3 extensions:
            X509v3 Basic Constraints: 
                CA:FALSE
            X509v3 Subject Key Identifier: 
                57:98:B7:B0:FB:D1:99:CA:3D:CE:F2:6A:6C:52:06:5A:91:2A:66:76
            X509v3 Authority Key Identifier: 
                keyid:8C:4C:0A:CC:C2:A2:BA:F9:69:43:28:72:46:22:E0:CA:FF:0B:D6:DD
                DirName:/CN=team21-net
                serial:7D:0D:91:E6:E1:1D:96:6F:28:E4:1E:41:C0:80:AC:DF:4B:D6:C9:72

            X509v3 Extended Key Usage: 
                TLS Web Server Authentication
            X509v3 Key Usage: 
                Digital Signature, Key Encipherment
            X509v3 Subject Alternative Name: 
                DNS:team21-server
    Signature Algorithm: sha256WithRSAEncryption
         59:9a:d0:1a:e8:ee:a0:74:04:73:9c:7b:e7:ff:9b:eb:0d:fc:
         b9:df:fa:aa:54:1d:60:a7:5d:ea:2f:69:17:0d:98:1b:90:28:
         78:f0:27:93:ec:ca:bd:e5:49:6b:5b:80:12:0d:50:e8:c1:7a:
         25:55:94:93:10:cd:a0:c5:54:41:60:6c:29:52:09:36:a0:df:
         c5:8f:37:a6:a7:15:7c:73:48:49:9e:c5:ed:00:d4:fc:a2:a2:
         f8:3b:d5:4b:e1:3e:77:fc:b6:68:bb:68:b0:ff:10:c4:63:34:
         df:0d:3e:ae:f8:32:37:61:0a:2f:99:cb:98:11:83:21:64:78:
         1d:17:89:21:9d:c1:1a:24:d0:b6:5d:09:90:09:d3:06:14:e4:
         06:d3:f9:72:e5:b3:73:5a:01:81:46:21:10:72:0b:39:33:52:
         dc:3c:60:c9:06:82:c7:8b:c3:18:15:54:50:21:38:3e:79:38:
         de:eb:91:ae:8d:a7:e6:11:60:78:de:29:74:9b:ca:6c:e6:39:
         93:2b:a0:59:00:74:b9:97:30:ed:91:cb:d9:4e:0e:f0:eb:87:
         90:4f:dc:46:b3:bc:dc:6d:00:18:c2:df:29:35:77:1b:77:75:
         97:af:6c:10:e0:3f:5c:b6:05:7c:4b:f5:80:1b:64:27:7e:78:
         1c:34:32:34
-----BEGIN CERTIFICATE-----
MIIDdDCCAlygAwIBAgIRAKTboIbkAQ7VSBviBcCou30wDQYJKoZIhvcNAQELBQAw
FTETMBEGA1UEAwwKdGVhbTIxLW5ldDAeFw0yMjA1MTgxNDAyNDVaFw0yNTA1MDIx
NDAyNDVaMBgxFjAUBgNVBAMMDXRlYW0yMS1zZXJ2ZXIwggEiMA0GCSqGSIb3DQEB
AQUAA4IBDwAwggEKAoIBAQDI5/g/VXvXIm7rCNXQPdDuOeto9NUVf/3S0btOKoSN
U+Dlzjf586XVGEpYBLAJyZVE58oqRCcnm5vcbkYG0N4+YeROdXPpexGWvXY1FliJ
98lvhhG7Qqy/YUstVetQdtHgkjxIf2+NF6zOY+GaVzMdorrTCGnd2MqQO9yVhV1y
GSOCjC88evOebEmLfKy+eEjmyXiXz5LQmWks0+ZXGp5fPosHEsMx2Lh0ix+XWudW
IXJ6I21xN9Gyi9dN7SIZFT/DJTL1MmOj8g3inUVI0iBKjvy6qEHW/34tSoieC+Gn
gQhzm57X1HX4A2STOLTyX2BERW4B9NcRwIumF4UxyD47AgMBAAGjgbswgbgwCQYD
VR0TBAIwADAdBgNVHQ4EFgQUV5i3sPvRmco9zvJqbFIGWpEqZnYwUAYDVR0jBEkw
R4AUjEwKzMKiuvlpQyhyRiLgyv8L1t2hGaQXMBUxEzARBgNVBAMMCnRlYW0yMS1u
ZXSCFH0NkebhHZZvKOQeQcCArN9L1slyMBMGA1UdJQQMMAoGCCsGAQUFBwMBMAsG
A1UdDwQEAwIFoDAYBgNVHREEETAPgg10ZWFtMjEtc2VydmVyMA0GCSqGSIb3DQEB
CwUAA4IBAQBZmtAa6O6gdARznHvn/5vrDfy53/qqVB1gp13qL2kXDZgbkCh48CeT
7Mq95UlrW4ASDVDowXolVZSTEM2gxVRBYGwpUgk2oN/FjzempxV8c0hJnsXtANT8
oqL4O9VL4T53/LZou2iw/xDEYzTfDT6u+DI3YQovmcuYEYMhZHgdF4khncEaJNC2
XQmQCdMGFOQG0/ly5bNzWgGBRiEQcgs5M1LcPGDJBoLHi8MYFVRQITg+eTje65Gu
jafmEWB43il0m8ps5jmTK6BZAHS5lzDtkcvZTg7w64eQT9xGs7zcbQAYwt8pNXcb
d3WXr2wQ4D9ctgV8S/WAG2QnfngcNDI0
-----END CERTIFICATE-----
