Certificate:
    Data:
        Version: 3 (0x2)
        Serial Number:
            ea:51:f2:2d:0f:07:89:00:09:34:38:07:ff:89:9a:fd
        Signature Algorithm: sha256WithRSAEncryption
        Issuer: CN=team711-net
        Validity
            Not Before: May 18 23:51:25 2022 GMT
            Not After : May  2 23:51:25 2025 GMT
        Subject: CN=team711-client
        Subject Public Key Info:
            Public Key Algorithm: rsaEncryption
                RSA Public-Key: (2048 bit)
                Modulus:
                    00:a2:6d:72:43:eb:10:60:25:4a:c0:33:26:5e:8c:
                    ad:79:c0:8d:82:77:87:1b:ba:55:f4:1f:42:5b:58:
                    15:0e:0f:b2:33:de:61:34:f8:63:87:92:c2:3b:19:
                    de:c5:9f:7b:0d:20:66:4f:26:1b:4c:c6:f9:d0:45:
                    8d:4c:09:d0:ae:b4:6c:bc:83:d1:80:a5:45:d0:a2:
                    0a:2b:62:de:f4:c2:d6:54:24:82:69:7a:18:aa:a1:
                    40:0d:d7:9e:28:f3:70:c7:b5:84:ae:7d:6f:df:d0:
                    81:43:68:93:8f:0c:45:0d:cd:30:f2:f3:4c:c8:c0:
                    0f:9a:b0:7e:a8:dd:f3:85:e8:d4:ee:09:6e:63:43:
                    78:24:fe:5d:36:0f:2a:2e:29:03:11:c7:f6:09:6e:
                    cf:cf:82:5d:eb:ef:0a:04:d5:3b:db:57:7f:bf:67:
                    47:c4:c6:f9:52:67:20:39:0c:6f:57:47:58:85:b9:
                    13:19:32:05:1b:d5:5b:73:9a:b6:5c:3b:ca:95:43:
                    a5:5b:04:f4:78:84:96:dd:1c:da:bd:40:b0:77:e1:
                    25:e4:ab:d9:25:91:f3:0e:bb:c4:3f:1e:c3:f1:98:
                    30:b2:50:98:c1:7e:08:2a:a5:68:32:16:7d:3e:9c:
                    7a:53:c4:3c:09:e2:37:19:bf:66:14:0b:f8:d2:f0:
                    a9:71
                Exponent: 65537 (0x10001)
        X509v3 extensions:
            X509v3 Basic Constraints: 
                CA:FALSE
            X509v3 Subject Key Identifier: 
                DE:CE:E6:61:79:AD:65:30:61:33:ED:8C:A8:4C:B0:89:98:AE:10:FF
            X509v3 Authority Key Identifier: 
                keyid:F6:9E:80:A7:12:C7:B2:61:3A:FD:2C:36:A6:7A:2A:E9:65:3E:E8:9B
                DirName:/CN=team711-net
                serial:65:2F:8A:73:57:89:D9:75:DA:F5:4C:AC:B4:0E:5A:AC:CF:F3:0A:39

            X509v3 Extended Key Usage: 
                TLS Web Client Authentication
            X509v3 Key Usage: 
                Digital Signature
    Signature Algorithm: sha256WithRSAEncryption
         43:7d:d2:93:07:f8:eb:b5:0c:f4:90:ec:a3:62:f2:f8:19:54:
         37:ee:bc:dd:1f:58:7b:aa:ec:a7:c0:f4:7a:ff:1a:a8:77:60:
         7b:40:6a:d0:3f:27:98:77:ba:56:33:0d:87:06:e0:7f:b1:a9:
         40:9f:44:8a:3b:e9:14:5e:86:a4:7b:15:a2:7c:a8:06:1c:18:
         7b:b1:dd:9b:bb:7e:bd:27:9e:9b:5e:e1:d7:29:5a:d7:91:3f:
         08:51:19:50:35:b3:2f:dc:90:f3:c4:34:e1:9e:17:44:f7:4a:
         90:39:05:fa:d9:3e:3a:01:d5:7c:71:18:71:07:e5:34:dd:21:
         41:06:0b:cc:69:97:55:1f:30:a0:b6:1a:32:bf:30:98:7b:50:
         a9:11:c5:29:ba:49:31:b4:04:ea:06:93:17:de:ac:2f:c3:bb:
         d3:e7:15:25:8e:fa:b7:bf:85:77:4c:a1:8c:10:a2:fb:c0:fc:
         ef:4c:68:47:d3:1e:60:53:da:0a:80:1a:3c:82:6a:3c:62:e6:
         72:fd:e3:e2:49:19:c6:d5:78:b5:8a:b5:81:16:37:ec:f1:ef:
         cb:ec:36:95:77:ab:3e:09:c4:df:e4:ea:ca:1f:84:b2:13:f0:
         21:2e:67:0a:0a:b1:5d:b2:e1:a3:4e:4b:64:6f:8d:35:b0:88:
         d1:2f:83:c8
-----BEGIN CERTIFICATE-----
MIIDXTCCAkWgAwIBAgIRAOpR8i0PB4kACTQ4B/+Jmv0wDQYJKoZIhvcNAQELBQAw
FjEUMBIGA1UEAwwLdGVhbTcxMS1uZXQwHhcNMjIwNTE4MjM1MTI1WhcNMjUwNTAy
MjM1MTI1WjAZMRcwFQYDVQQDDA50ZWFtNzExLWNsaWVudDCCASIwDQYJKoZIhvcN
AQEBBQADggEPADCCAQoCggEBAKJtckPrEGAlSsAzJl6MrXnAjYJ3hxu6VfQfQltY
FQ4PsjPeYTT4Y4eSwjsZ3sWfew0gZk8mG0zG+dBFjUwJ0K60bLyD0YClRdCiCiti
3vTC1lQkgml6GKqhQA3XnijzcMe1hK59b9/QgUNok48MRQ3NMPLzTMjAD5qwfqjd
84Xo1O4JbmNDeCT+XTYPKi4pAxHH9gluz8+CXevvCgTVO9tXf79nR8TG+VJnIDkM
b1dHWIW5ExkyBRvVW3Oatlw7ypVDpVsE9HiElt0c2r1AsHfhJeSr2SWR8w67xD8e
w/GYMLJQmMF+CCqlaDIWfT6celPEPAniNxm/ZhQL+NLwqXECAwEAAaOBojCBnzAJ
BgNVHRMEAjAAMB0GA1UdDgQWBBTezuZhea1lMGEz7YyoTLCJmK4Q/zBRBgNVHSME
SjBIgBT2noCnEseyYTr9LDameirpZT7om6EapBgwFjEUMBIGA1UEAwwLdGVhbTcx
MS1uZXSCFGUvinNXidl12vVMrLQOWqzP8wo5MBMGA1UdJQQMMAoGCCsGAQUFBwMC
MAsGA1UdDwQEAwIHgDANBgkqhkiG9w0BAQsFAAOCAQEAQ33Skwf467UM9JDso2Ly
+BlUN+683R9Ye6rsp8D0ev8aqHdge0Bq0D8nmHe6VjMNhwbgf7GpQJ9EijvpFF6G
pHsVonyoBhwYe7Hdm7t+vSeem17h1yla15E/CFEZUDWzL9yQ88Q04Z4XRPdKkDkF
+tk+OgHVfHEYcQflNN0hQQYLzGmXVR8woLYaMr8wmHtQqRHFKbpJMbQE6gaTF96s
L8O70+cVJY76t7+Fd0yhjBCi+8D870xoR9MeYFPaCoAaPIJqPGLmcv3j4kkZxtV4
tYq1gRY37PHvy+w2lXerPgnE3+Tqyh+EshPwIS5nCgqxXbLho05LZG+NNbCI0S+D
yA==
-----END CERTIFICATE-----
