Certificate:
    Data:
        Version: 3 (0x2)
        Serial Number:
            1a:80:14:ce:ba:1b:52:01:33:2e:dc:92:06:88:f8:45
        Signature Algorithm: sha256WithRSAEncryption
        Issuer: CN=team334-net
        Validity
            Not Before: May 18 20:19:07 2022 GMT
            Not After : May  2 20:19:07 2025 GMT
        Subject: CN=team334-server
        Subject Public Key Info:
            Public Key Algorithm: rsaEncryption
                RSA Public-Key: (2048 bit)
                Modulus:
                    00:c8:c1:13:d3:91:e9:b6:c7:ad:c6:00:b7:3c:9f:
                    a6:28:97:b8:bf:0e:d0:a7:ef:4a:24:27:d2:4c:97:
                    13:4d:c4:26:89:18:dd:53:bf:d3:32:a3:cb:70:a7:
                    ba:80:79:cb:61:34:63:2f:0f:91:aa:6b:a3:8e:91:
                    12:b8:a6:27:2f:ea:1c:31:1a:02:98:78:69:d8:17:
                    75:5a:2b:35:6d:41:e1:1e:af:cd:7c:12:a4:b2:96:
                    5b:ac:1e:b9:88:10:f3:f6:22:7d:f7:73:88:26:0c:
                    90:27:d9:af:ed:ee:c9:ce:cc:be:fa:47:f5:aa:be:
                    4d:c9:71:bd:ba:98:bf:76:1a:82:d6:d5:8c:21:2d:
                    1c:24:4e:20:be:39:94:15:2c:38:30:84:b1:bc:28:
                    51:72:42:28:82:ba:a0:b6:c2:63:d7:81:07:c8:3a:
                    fb:ee:a2:c8:ec:7e:a4:bd:3e:8a:c9:94:aa:ae:c7:
                    22:be:b4:30:06:5c:bb:ee:c4:0c:3d:c4:82:dc:eb:
                    f3:ff:63:5d:72:b7:4a:2a:3e:e1:04:cf:72:fe:be:
                    36:7d:72:b0:a4:54:5a:19:fb:3f:a8:71:06:23:54:
                    7c:c1:5f:c6:5f:26:6b:5d:e7:c4:f0:38:06:a9:48:
                    2d:28:25:f1:26:88:70:7e:c9:ab:a5:75:ed:28:2b:
                    43:17
                Exponent: 65537 (0x10001)
        X509v3 extensions:
            X509v3 Basic Constraints: 
                CA:FALSE
            X509v3 Subject Key Identifier: 
                45:36:AB:D0:53:EC:8E:83:6B:E7:77:EC:67:9A:30:00:8A:F0:58:FB
            X509v3 Authority Key Identifier: 
                keyid:48:F6:E5:14:C2:8A:0B:7B:6A:24:4A:4B:39:88:A3:67:04:C1:F8:30
                DirName:/CN=team334-net
                serial:47:3A:72:27:86:99:B5:CB:58:BF:46:6D:4E:08:14:BC:22:C2:38:15

            X509v3 Extended Key Usage: 
                TLS Web Server Authentication
            X509v3 Key Usage: 
                Digital Signature, Key Encipherment
            X509v3 Subject Alternative Name: 
                DNS:team334-server
    Signature Algorithm: sha256WithRSAEncryption
         93:1a:4d:59:20:72:be:68:e5:54:ac:f0:4b:2a:c5:f4:ed:c4:
         4c:bc:d1:b1:04:3b:ad:49:65:1b:38:dc:fc:97:b1:f5:90:38:
         39:0f:8b:5f:9e:69:45:1c:3f:34:57:70:a9:bd:e8:af:a8:da:
         a0:8c:cb:5b:96:ce:f7:8e:de:a3:26:7b:ea:4a:c4:ed:a1:ed:
         33:fb:66:61:9f:58:5c:1e:65:e9:e6:30:d0:c9:28:a3:53:2d:
         b7:da:28:6f:01:f3:1b:9c:8a:86:33:3e:69:f6:1f:cd:ac:bd:
         8e:77:f8:37:f6:94:25:d7:d1:c1:27:3c:a7:5d:49:8f:c2:4f:
         20:71:e0:01:13:65:09:1c:64:1b:1d:04:34:8b:4a:cb:8a:39:
         53:6d:fc:e4:ef:80:b3:f5:10:df:e5:ca:20:95:3e:c1:a1:fc:
         34:18:4b:df:d9:30:f0:17:d3:a1:e4:2e:da:04:b1:c8:a1:e7:
         52:18:88:e5:39:0c:7c:84:f2:8c:0d:d5:36:fe:c1:ec:07:55:
         9f:da:86:db:e0:75:cb:df:04:c9:32:1d:69:b2:f9:e5:05:ad:
         e2:33:27:7e:86:b1:7d:13:cb:8d:a9:0c:f2:73:f1:1a:2c:5b:
         ef:3b:a8:ee:89:f0:77:c3:0d:2c:86:d3:35:3f:a7:18:08:05:
         5c:32:3f:2c
-----BEGIN CERTIFICATE-----
MIIDdzCCAl+gAwIBAgIQGoAUzrobUgEzLtySBoj4RTANBgkqhkiG9w0BAQsFADAW
MRQwEgYDVQQDDAt0ZWFtMzM0LW5ldDAeFw0yMjA1MTgyMDE5MDdaFw0yNTA1MDIy
MDE5MDdaMBkxFzAVBgNVBAMMDnRlYW0zMzQtc2VydmVyMIIBIjANBgkqhkiG9w0B
AQEFAAOCAQ8AMIIBCgKCAQEAyMET05HptsetxgC3PJ+mKJe4vw7Qp+9KJCfSTJcT
TcQmiRjdU7/TMqPLcKe6gHnLYTRjLw+RqmujjpESuKYnL+ocMRoCmHhp2Bd1Wis1
bUHhHq/NfBKkspZbrB65iBDz9iJ993OIJgyQJ9mv7e7Jzsy++kf1qr5NyXG9upi/
dhqC1tWMIS0cJE4gvjmUFSw4MISxvChRckIogrqgtsJj14EHyDr77qLI7H6kvT6K
yZSqrscivrQwBly77sQMPcSC3Ovz/2NdcrdKKj7hBM9y/r42fXKwpFRaGfs/qHEG
I1R8wV/GXyZrXefE8DgGqUgtKCXxJohwfsmrpXXtKCtDFwIDAQABo4G9MIG6MAkG
A1UdEwQCMAAwHQYDVR0OBBYEFEU2q9BT7I6Da+d37GeaMACK8Fj7MFEGA1UdIwRK
MEiAFEj25RTCigt7aiRKSzmIo2cEwfgwoRqkGDAWMRQwEgYDVQQDDAt0ZWFtMzM0
LW5ldIIURzpyJ4aZtctYv0ZtTggUvCLCOBUwEwYDVR0lBAwwCgYIKwYBBQUHAwEw
CwYDVR0PBAQDAgWgMBkGA1UdEQQSMBCCDnRlYW0zMzQtc2VydmVyMA0GCSqGSIb3
DQEBCwUAA4IBAQCTGk1ZIHK+aOVUrPBLKsX07cRMvNGxBDutSWUbONz8l7H1kDg5
D4tfnmlFHD80V3CpveivqNqgjMtbls73jt6jJnvqSsTtoe0z+2Zhn1hcHmXp5jDQ
ySijUy232ihvAfMbnIqGMz5p9h/NrL2Od/g39pQl19HBJzynXUmPwk8gceABE2UJ
HGQbHQQ0i0rLijlTbfzk74Cz9RDf5coglT7Bofw0GEvf2TDwF9Oh5C7aBLHIoedS
GIjlOQx8hPKMDdU2/sHsB1Wf2obb4HXL3wTJMh1psvnlBa3iMyd+hrF9E8uNqQzy
c/EaLFvvO6juifB3ww0shtM1P6cYCAVcMj8s
-----END CERTIFICATE-----
