Certificate:
    Data:
        Version: 3 (0x2)
        Serial Number:
            b4:11:e9:92:4b:f7:6e:dc:f0:b0:be:e5:5b:da:a7:70
        Signature Algorithm: sha256WithRSAEncryption
        Issuer: CN=team564-net
        Validity
            Not Before: May 18 22:26:13 2022 GMT
            Not After : May  2 22:26:13 2025 GMT
        Subject: CN=team564-server
        Subject Public Key Info:
            Public Key Algorithm: rsaEncryption
                RSA Public-Key: (2048 bit)
                Modulus:
                    00:c9:31:1e:d6:cc:cf:40:25:dd:be:c3:f7:ea:52:
                    19:d7:16:90:bb:ab:a8:68:a1:c7:d4:8c:a6:e8:de:
                    e4:61:ec:fe:32:0f:38:f4:e2:1a:88:63:c5:23:01:
                    af:2c:36:f5:3d:37:4f:14:93:7c:c2:ed:10:b2:ba:
                    57:2a:8f:52:fb:e9:03:11:b2:2c:49:2d:1b:fe:8c:
                    13:67:62:6d:7b:25:e7:cf:1e:25:e1:23:46:08:31:
                    5e:d4:5c:5b:19:d4:2d:e6:14:3e:a5:a6:06:ff:2e:
                    df:be:d5:5a:3b:90:de:bb:e4:15:ac:b5:e6:42:16:
                    2d:0f:8b:91:de:71:3c:76:ae:45:31:80:cf:f5:11:
                    0d:e8:0e:e6:ce:fb:0f:0b:08:96:80:b4:79:62:d8:
                    c0:3c:06:2c:79:d8:e5:4b:af:7b:e2:8c:4b:69:3f:
                    57:c8:29:6b:c1:fc:ee:e8:b0:b1:ef:a9:c7:9e:81:
                    7c:8a:2a:66:f3:81:46:b1:17:3e:e7:63:51:74:8c:
                    08:8e:d5:39:fd:09:e7:1f:ad:e2:86:4f:72:d8:da:
                    80:fb:e7:db:40:1f:ca:65:a1:d6:28:01:89:87:6e:
                    82:4d:75:da:b3:47:cb:43:59:33:56:99:d1:34:d7:
                    8d:ce:90:ba:1c:87:12:f8:70:95:36:84:5a:2d:09:
                    ca:4d
                Exponent: 65537 (0x10001)
        X509v3 extensions:
            X509v3 Basic Constraints: 
                CA:FALSE
            X509v3 Subject Key Identifier: 
                2D:55:C7:92:B1:59:54:F3:C4:B3:13:8F:24:82:B9:15:14:A1:57:FF
            X509v3 Authority Key Identifier: 
                keyid:28:10:73:B1:74:FE:6D:A0:D6:D2:50:13:4E:5A:0C:D5:CF:00:75:80
                DirName:/CN=team564-net
                serial:27:6B:A7:75:B4:01:5B:C9:D9:1F:7D:E1:21:DD:90:6C:CF:FF:90:D8

            X509v3 Extended Key Usage: 
                TLS Web Server Authentication
            X509v3 Key Usage: 
                Digital Signature, Key Encipherment
            X509v3 Subject Alternative Name: 
                DNS:team564-server
    Signature Algorithm: sha256WithRSAEncryption
         bb:0e:4b:2f:24:f9:be:ec:dc:d5:46:77:f6:a0:95:d2:c2:3f:
         98:11:75:aa:db:7d:2a:4e:ae:de:5c:46:79:cc:46:e2:fe:bd:
         3d:31:88:a8:72:4e:33:42:7c:d8:47:1e:9e:b3:90:1a:f9:65:
         38:4f:a3:fc:e3:0e:77:fc:92:a6:22:c9:78:33:ad:91:af:f7:
         be:ed:6d:75:98:00:a6:a1:93:5f:2e:e2:5e:e0:6a:6c:93:c4:
         89:23:09:8d:28:11:ef:6a:61:a7:45:87:bb:4b:15:26:07:74:
         0e:e1:db:e7:3e:46:b5:d1:ba:cc:0c:9c:f7:60:53:f6:f8:66:
         0c:02:1c:ae:9c:54:84:b5:47:42:84:f7:e6:b2:c3:c7:3d:25:
         61:aa:b0:42:71:3a:40:9c:0c:01:3b:05:41:04:cb:05:70:a2:
         f0:5c:eb:2f:67:3e:30:0a:fb:cd:c1:5a:b5:ed:c2:9d:10:d6:
         0a:32:96:31:45:c6:4e:25:99:68:ef:ff:29:26:fa:2b:6e:e5:
         84:98:a9:68:ce:4e:54:d4:93:91:81:85:f6:63:98:ce:5d:99:
         0a:3e:01:1e:17:e4:09:32:36:9e:fd:8d:63:51:3d:1e:3e:c1:
         72:24:f4:cc:78:0f:43:95:97:ef:30:12:89:1a:b6:cd:c9:c5:
         6b:d6:5c:a4
-----BEGIN CERTIFICATE-----
MIIDeDCCAmCgAwIBAgIRALQR6ZJL927c8LC+5Vvap3AwDQYJKoZIhvcNAQELBQAw
FjEUMBIGA1UEAwwLdGVhbTU2NC1uZXQwHhcNMjIwNTE4MjIyNjEzWhcNMjUwNTAy
MjIyNjEzWjAZMRcwFQYDVQQDDA50ZWFtNTY0LXNlcnZlcjCCASIwDQYJKoZIhvcN
AQEBBQADggEPADCCAQoCggEBAMkxHtbMz0Al3b7D9+pSGdcWkLurqGihx9SMpuje
5GHs/jIPOPTiGohjxSMBryw29T03TxSTfMLtELK6VyqPUvvpAxGyLEktG/6ME2di
bXsl588eJeEjRggxXtRcWxnULeYUPqWmBv8u377VWjuQ3rvkFay15kIWLQ+Lkd5x
PHauRTGAz/URDegO5s77DwsIloC0eWLYwDwGLHnY5Uuve+KMS2k/V8gpa8H87uiw
se+px56BfIoqZvOBRrEXPudjUXSMCI7VOf0J5x+t4oZPctjagPvn20AfymWh1igB
iYdugk112rNHy0NZM1aZ0TTXjc6QuhyHEvhwlTaEWi0Jyk0CAwEAAaOBvTCBujAJ
BgNVHRMEAjAAMB0GA1UdDgQWBBQtVceSsVlU88SzE48kgrkVFKFX/zBRBgNVHSME
SjBIgBQoEHOxdP5toNbSUBNOWgzVzwB1gKEapBgwFjEUMBIGA1UEAwwLdGVhbTU2
NC1uZXSCFCdrp3W0AVvJ2R994SHdkGzP/5DYMBMGA1UdJQQMMAoGCCsGAQUFBwMB
MAsGA1UdDwQEAwIFoDAZBgNVHREEEjAQgg50ZWFtNTY0LXNlcnZlcjANBgkqhkiG
9w0BAQsFAAOCAQEAuw5LLyT5vuzc1UZ39qCV0sI/mBF1qtt9Kk6u3lxGecxG4v69
PTGIqHJOM0J82EcenrOQGvllOE+j/OMOd/ySpiLJeDOtka/3vu1tdZgApqGTXy7i
XuBqbJPEiSMJjSgR72php0WHu0sVJgd0DuHb5z5GtdG6zAyc92BT9vhmDAIcrpxU
hLVHQoT35rLDxz0lYaqwQnE6QJwMATsFQQTLBXCi8FzrL2c+MAr7zcFate3CnRDW
CjKWMUXGTiWZaO//KSb6K27lhJipaM5OVNSTkYGF9mOYzl2ZCj4BHhfkCTI2nv2N
Y1E9Hj7BciT0zHgPQ5WX7zASiRq2zcnFa9ZcpA==
-----END CERTIFICATE-----
