Certificate:
    Data:
        Version: 3 (0x2)
        Serial Number:
            29:92:66:22:82:a5:4a:7a:15:0d:e7:3a:2a:75:69:c2
        Signature Algorithm: sha256WithRSAEncryption
        Issuer: CN=team422-net
        Validity
            Not Before: May 18 21:04:31 2022 GMT
            Not After : May  2 21:04:31 2025 GMT
        Subject: CN=team422-client
        Subject Public Key Info:
            Public Key Algorithm: rsaEncryption
                RSA Public-Key: (2048 bit)
                Modulus:
                    00:aa:b1:1e:90:1b:3c:20:7f:08:9e:ba:4c:90:cb:
                    7c:5b:45:98:66:3f:93:ee:e2:0e:20:e1:8b:16:78:
                    75:69:c8:35:d1:17:da:fc:e3:84:22:85:d3:b5:d9:
                    f6:3c:7f:40:cf:cb:8d:19:c8:19:37:df:1c:ae:f7:
                    c9:eb:dd:32:30:48:94:a1:75:c0:d6:31:d7:b9:0e:
                    c5:f7:f1:9c:bc:3e:5d:46:81:f4:db:74:ab:28:c9:
                    97:d7:77:d8:e9:7b:a7:a4:6d:ac:de:1e:4c:5c:3c:
                    c7:ae:13:5f:40:74:65:a5:f3:df:43:4a:fd:eb:06:
                    65:8a:14:ab:f3:97:94:b2:55:7e:ba:7a:34:10:ae:
                    75:2e:ca:ba:62:3d:a0:0d:52:7b:23:b4:30:69:67:
                    3e:08:55:51:8d:be:c7:f7:c1:29:e1:da:54:b0:a4:
                    71:80:9a:c7:81:0e:ba:01:02:3b:02:62:3b:ac:00:
                    bb:41:c4:c4:26:64:35:41:8f:b2:4b:f4:9a:05:32:
                    ab:58:81:14:75:c7:00:43:8a:ad:d0:43:e0:28:6e:
                    80:b3:ad:3f:b3:89:ee:e2:17:b2:f6:77:6d:ee:f0:
                    73:94:bb:58:f0:1c:af:6c:b2:32:37:8d:b2:bb:64:
                    fa:f6:a4:32:2e:b9:e3:7d:b3:0c:62:ee:42:1e:f2:
                    e7:db
                Exponent: 65537 (0x10001)
        X509v3 extensions:
            X509v3 Basic Constraints: 
                CA:FALSE
            X509v3 Subject Key Identifier: 
                49:2A:BC:30:96:C2:6D:B3:24:EC:8C:2B:E9:DF:83:94:9D:B0:C9:F1
            X509v3 Authority Key Identifier: 
                keyid:45:D3:B9:D8:56:B6:4A:03:9C:B7:3A:17:7B:75:1F:FD:9B:4A:BA:43
                DirName:/CN=team422-net
                serial:6B:6C:A7:BD:16:6C:54:26:28:86:55:30:30:A4:B1:89:4E:88:53:84

            X509v3 Extended Key Usage: 
                TLS Web Client Authentication
            X509v3 Key Usage: 
                Digital Signature
    Signature Algorithm: sha256WithRSAEncryption
         0a:4d:aa:be:da:aa:3b:75:76:f1:d6:0c:09:ef:6d:31:55:67:
         46:ca:f7:70:2f:bc:64:d2:87:cc:9c:11:e2:60:4e:d5:63:28:
         57:71:39:7e:93:8a:db:0d:47:9e:dc:54:c6:65:4e:7e:52:1f:
         6c:f3:92:6f:87:95:4b:83:4b:64:47:41:65:39:67:9d:14:b4:
         9f:93:39:95:eb:a7:c4:9e:00:ef:12:3f:73:bf:13:67:96:2f:
         13:30:24:c8:ea:11:36:a3:9a:15:85:94:13:3a:95:d0:d5:4c:
         60:23:ee:4b:1f:be:06:f7:ed:b5:f8:38:53:ee:e7:97:2f:f4:
         f4:04:8b:da:ba:43:5e:18:13:5d:1e:36:96:09:2d:70:88:d9:
         67:30:b0:98:0f:6f:ea:b9:43:a5:1f:00:3b:42:2f:4f:cd:4f:
         57:9f:83:20:79:ac:3a:b8:84:ea:24:9c:22:8b:e5:8b:61:33:
         08:2c:50:ba:ea:54:c1:c2:ac:3a:b0:7d:6f:68:1e:cd:9a:68:
         bf:7c:2b:ad:ad:47:67:39:c6:1f:66:b8:c4:73:62:34:26:6c:
         ec:3d:ed:c6:f8:79:4f:c8:e1:10:a0:2a:86:a9:26:9f:17:a4:
         43:8b:78:44:33:b9:8d:87:43:35:a4:cc:8c:65:db:3c:91:0c:
         88:5d:22:e6
-----BEGIN CERTIFICATE-----
MIIDXDCCAkSgAwIBAgIQKZJmIoKlSnoVDec6KnVpwjANBgkqhkiG9w0BAQsFADAW
MRQwEgYDVQQDDAt0ZWFtNDIyLW5ldDAeFw0yMjA1MTgyMTA0MzFaFw0yNTA1MDIy
MTA0MzFaMBkxFzAVBgNVBAMMDnRlYW00MjItY2xpZW50MIIBIjANBgkqhkiG9w0B
AQEFAAOCAQ8AMIIBCgKCAQEAqrEekBs8IH8InrpMkMt8W0WYZj+T7uIOIOGLFnh1
acg10Rfa/OOEIoXTtdn2PH9Az8uNGcgZN98crvfJ690yMEiUoXXA1jHXuQ7F9/Gc
vD5dRoH023SrKMmX13fY6XunpG2s3h5MXDzHrhNfQHRlpfPfQ0r96wZlihSr85eU
slV+uno0EK51Lsq6Yj2gDVJ7I7QwaWc+CFVRjb7H98Ep4dpUsKRxgJrHgQ66AQI7
AmI7rAC7QcTEJmQ1QY+yS/SaBTKrWIEUdccAQ4qt0EPgKG6As60/s4nu4hey9ndt
7vBzlLtY8ByvbLIyN42yu2T69qQyLrnjfbMMYu5CHvLn2wIDAQABo4GiMIGfMAkG
A1UdEwQCMAAwHQYDVR0OBBYEFEkqvDCWwm2zJOyMK+nfg5SdsMnxMFEGA1UdIwRK
MEiAFEXTudhWtkoDnLc6F3t1H/2bSrpDoRqkGDAWMRQwEgYDVQQDDAt0ZWFtNDIy
LW5ldIIUa2ynvRZsVCYohlUwMKSxiU6IU4QwEwYDVR0lBAwwCgYIKwYBBQUHAwIw
CwYDVR0PBAQDAgeAMA0GCSqGSIb3DQEBCwUAA4IBAQAKTaq+2qo7dXbx1gwJ720x
VWdGyvdwL7xk0ofMnBHiYE7VYyhXcTl+k4rbDUee3FTGZU5+Uh9s85Jvh5VLg0tk
R0FlOWedFLSfkzmV66fEngDvEj9zvxNnli8TMCTI6hE2o5oVhZQTOpXQ1UxgI+5L
H74G9+21+DhT7ueXL/T0BIvaukNeGBNdHjaWCS1wiNlnMLCYD2/quUOlHwA7Qi9P
zU9Xn4Mgeaw6uITqJJwii+WLYTMILFC66lTBwqw6sH1vaB7Nmmi/fCutrUdnOcYf
ZrjEc2I0JmzsPe3G+HlPyOEQoCqGqSafF6RDi3hEM7mNh0M1pMyMZds8kQyIXSLm
-----END CERTIFICATE-----
