Certificate:
    Data:
        Version: 3 (0x2)
        Serial Number:
            98:da:c3:36:92:65:ff:17:d2:4e:dd:a3:82:76:fe:82
        Signature Algorithm: sha256WithRSAEncryption
        Issuer: CN=team764-net
        Validity
            Not Before: May 19 00:22:57 2022 GMT
            Not After : May  3 00:22:57 2025 GMT
        Subject: CN=team764-client
        Subject Public Key Info:
            Public Key Algorithm: rsaEncryption
                RSA Public-Key: (2048 bit)
                Modulus:
                    00:af:73:29:0a:e6:2f:d3:53:f2:c8:1b:dd:e8:6a:
                    80:c1:f8:21:b8:7a:e6:38:33:e8:93:e9:71:cb:72:
                    18:08:1e:42:ac:ff:9e:f7:4d:6a:d0:08:9b:f0:bb:
                    39:03:bd:0c:98:33:8d:cf:09:32:af:e7:07:10:2b:
                    83:e0:e1:66:83:a5:40:c2:43:cc:8a:c4:7d:35:4e:
                    26:4f:f6:33:8b:f1:c1:93:d4:fa:45:da:16:64:4e:
                    32:18:fe:e3:28:6f:0c:1e:1b:ef:0a:9d:86:95:b6:
                    41:bb:28:b2:6c:e5:ac:af:5a:3f:1f:af:97:26:76:
                    0e:1c:2c:fa:73:de:e0:b8:83:64:8e:b8:55:7d:ca:
                    43:96:e9:fe:40:cc:9b:0d:3a:15:ef:7b:38:55:1a:
                    6f:95:c3:5a:85:32:c1:7e:b2:33:5c:c8:d3:73:c4:
                    d4:6e:13:2c:2c:44:1c:ee:66:40:a0:f7:3c:5a:42:
                    60:27:b4:6f:f8:e3:8d:e0:8c:be:2f:9d:1b:cf:8e:
                    03:d6:4b:78:41:f9:25:34:85:df:e0:dd:a5:e0:2b:
                    8b:a7:32:eb:17:32:79:12:49:4d:f5:b3:e2:11:a3:
                    42:ff:93:d4:52:36:34:24:5b:59:af:72:9c:27:07:
                    17:52:6f:f9:46:4b:d7:cf:e7:20:e2:85:70:7e:9e:
                    1b:6b
                Exponent: 65537 (0x10001)
        X509v3 extensions:
            X509v3 Basic Constraints: 
                CA:FALSE
            X509v3 Subject Key Identifier: 
                23:6D:E1:4C:16:AD:4C:5D:D6:17:E1:F1:8F:E9:12:65:0C:C3:2E:E4
            X509v3 Authority Key Identifier: 
                keyid:62:7B:51:C9:8A:DE:43:DD:A9:D5:B3:20:CF:2B:5A:88:AD:D7:48:E6
                DirName:/CN=team764-net
                serial:18:15:9B:8B:B1:20:46:86:0B:6C:FF:DD:13:B9:6D:22:56:4E:D5:D7

            X509v3 Extended Key Usage: 
                TLS Web Client Authentication
            X509v3 Key Usage: 
                Digital Signature
    Signature Algorithm: sha256WithRSAEncryption
         31:8f:fe:f8:1a:57:3a:6b:4a:84:92:04:73:e1:f7:6b:e7:8c:
         0c:49:b9:8f:bc:16:0f:8e:71:1c:df:22:6d:2b:50:40:eb:b0:
         ee:e1:8f:90:05:af:2c:2a:e1:9a:40:ab:82:05:bf:cd:c5:77:
         28:79:f2:a8:91:42:7d:a5:89:b1:20:cd:52:8d:4a:61:c0:18:
         a7:5d:ef:c5:01:44:ec:18:cb:61:3e:5b:80:4e:0b:7e:c4:3d:
         d9:33:ca:d4:6a:82:86:6d:94:7c:0e:22:bf:45:52:05:c1:b9:
         b6:14:c0:23:a3:43:e2:0c:dd:81:eb:8f:db:e1:11:f3:15:2e:
         90:68:2a:9c:4d:a9:25:45:d9:90:2d:75:3f:84:e3:8d:cd:6e:
         9a:ce:82:45:bb:08:44:30:f0:30:12:2b:5a:ce:65:2e:97:76:
         54:59:6c:72:67:0f:be:f1:77:60:9e:2e:c1:b1:10:23:d4:39:
         df:65:7e:fc:c7:9d:78:a8:f7:e6:0b:05:c9:3a:ca:af:2e:40:
         3d:1b:9e:d6:ea:de:7b:6f:17:40:72:b9:62:c2:55:5e:8b:f4:
         ae:4e:3e:b7:47:75:32:78:c1:41:e6:2a:30:54:94:20:73:5c:
         0d:95:7d:17:6b:63:23:f0:56:5e:52:a9:e8:01:a1:2c:2b:43:
         c2:17:96:ce
-----BEGIN CERTIFICATE-----
MIIDXTCCAkWgAwIBAgIRAJjawzaSZf8X0k7do4J2/oIwDQYJKoZIhvcNAQELBQAw
FjEUMBIGA1UEAwwLdGVhbTc2NC1uZXQwHhcNMjIwNTE5MDAyMjU3WhcNMjUwNTAz
MDAyMjU3WjAZMRcwFQYDVQQDDA50ZWFtNzY0LWNsaWVudDCCASIwDQYJKoZIhvcN
AQEBBQADggEPADCCAQoCggEBAK9zKQrmL9NT8sgb3ehqgMH4Ibh65jgz6JPpccty
GAgeQqz/nvdNatAIm/C7OQO9DJgzjc8JMq/nBxArg+DhZoOlQMJDzIrEfTVOJk/2
M4vxwZPU+kXaFmROMhj+4yhvDB4b7wqdhpW2QbsosmzlrK9aPx+vlyZ2Dhws+nPe
4LiDZI64VX3KQ5bp/kDMmw06Fe97OFUab5XDWoUywX6yM1zI03PE1G4TLCxEHO5m
QKD3PFpCYCe0b/jjjeCMvi+dG8+OA9ZLeEH5JTSF3+DdpeAri6cy6xcyeRJJTfWz
4hGjQv+T1FI2NCRbWa9ynCcHF1Jv+UZL18/nIOKFcH6eG2sCAwEAAaOBojCBnzAJ
BgNVHRMEAjAAMB0GA1UdDgQWBBQjbeFMFq1MXdYX4fGP6RJlDMMu5DBRBgNVHSME
SjBIgBRie1HJit5D3anVsyDPK1qIrddI5qEapBgwFjEUMBIGA1UEAwwLdGVhbTc2
NC1uZXSCFBgVm4uxIEaGC2z/3RO5bSJWTtXXMBMGA1UdJQQMMAoGCCsGAQUFBwMC
MAsGA1UdDwQEAwIHgDANBgkqhkiG9w0BAQsFAAOCAQEAMY/++BpXOmtKhJIEc+H3
a+eMDEm5j7wWD45xHN8ibStQQOuw7uGPkAWvLCrhmkCrggW/zcV3KHnyqJFCfaWJ
sSDNUo1KYcAYp13vxQFE7BjLYT5bgE4LfsQ92TPK1GqChm2UfA4iv0VSBcG5thTA
I6ND4gzdgeuP2+ER8xUukGgqnE2pJUXZkC11P4Tjjc1ums6CRbsIRDDwMBIrWs5l
Lpd2VFlscmcPvvF3YJ4uwbEQI9Q532V+/MedeKj35gsFyTrKry5APRue1uree28X
QHK5YsJVXov0rk4+t0d1MnjBQeYqMFSUIHNcDZV9F2tjI/BWXlKp6AGhLCtDwheW
zg==
-----END CERTIFICATE-----
