Certificate:
    Data:
        Version: 3 (0x2)
        Serial Number:
            65:a1:b2:a9:93:7f:55:65:91:bc:93:27:22:b6:24:bc
        Signature Algorithm: sha256WithRSAEncryption
        Issuer: CN=team94-net
        Validity
            Not Before: May 18 14:46:19 2022 GMT
            Not After : May  2 14:46:19 2025 GMT
        Subject: CN=team94-server
        Subject Public Key Info:
            Public Key Algorithm: rsaEncryption
                RSA Public-Key: (2048 bit)
                Modulus:
                    00:c0:f3:ed:01:e7:7f:c2:85:8b:c8:b7:82:72:d8:
                    71:11:9f:31:17:66:7b:55:e1:fb:d3:b5:bd:2d:f1:
                    4b:4d:c9:e7:e9:55:f8:7a:d2:21:45:04:79:ae:da:
                    56:2e:64:a3:79:da:82:c0:f0:ef:ae:ef:b7:02:9d:
                    c5:bf:5f:f3:59:f4:87:fa:71:89:6e:0f:eb:76:04:
                    ae:cc:eb:03:e7:87:02:6b:7b:e5:3c:9b:43:0b:d3:
                    9b:a9:74:d3:2a:aa:a5:89:bb:ee:2f:de:48:88:b0:
                    1d:9a:63:9b:d6:df:40:8c:42:8d:ef:9e:de:d6:16:
                    e4:62:a2:e7:c2:10:73:00:aa:d7:33:0f:cb:15:68:
                    3a:9e:68:58:cb:25:c9:32:71:c0:cf:2c:74:b8:1f:
                    fe:96:ca:d2:da:c2:e9:15:72:74:04:78:2a:1f:28:
                    cb:ab:4f:c4:4d:42:95:a3:c8:cc:e2:80:4b:37:5d:
                    f3:5f:5d:10:9a:b0:31:76:f6:d6:32:43:19:13:02:
                    2d:e4:78:f3:48:eb:9f:9e:a8:9d:6a:62:5b:cd:74:
                    d8:8f:bc:42:4f:f5:f6:c0:b7:32:35:95:0f:24:27:
                    1a:96:42:fc:b8:d4:fe:e4:1f:d5:2c:25:ac:d6:c3:
                    ad:d4:79:a2:56:79:f3:75:44:35:82:bd:5a:32:84:
                    39:6b
                Exponent: 65537 (0x10001)
        X509v3 extensions:
            X509v3 Basic Constraints: 
                CA:FALSE
            X509v3 Subject Key Identifier: 
                BA:00:45:3E:19:B3:3D:25:B0:1A:6F:EC:98:A3:C8:CB:33:84:EC:65
            X509v3 Authority Key Identifier: 
                keyid:98:17:3B:DF:8B:FB:32:4F:97:E2:A1:58:CA:E1:19:34:7D:81:22:31
                DirName:/CN=team94-net
                serial:3A:2E:A7:73:C7:8C:C9:89:FC:C4:6D:57:46:FA:36:97:BA:92:0C:1F

            X509v3 Extended Key Usage: 
                TLS Web Server Authentication
            X509v3 Key Usage: 
                Digital Signature, Key Encipherment
            X509v3 Subject Alternative Name: 
                DNS:team94-server
    Signature Algorithm: sha256WithRSAEncryption
         e0:87:07:c5:23:46:e2:7b:df:c4:d5:d5:3c:70:18:8e:0b:3e:
         b9:5e:f3:4a:38:a3:58:b8:bb:76:f0:77:8e:e6:1f:8f:21:b6:
         b3:60:af:ec:52:25:8d:af:ae:97:99:7d:f3:e3:57:e0:c9:a6:
         28:2c:01:d8:0d:58:81:4d:c6:e6:ef:02:ba:08:cb:95:cd:88:
         dd:73:fd:2f:57:6a:73:eb:7c:a6:4d:20:a2:53:c0:16:90:97:
         76:3b:fb:db:7d:73:e5:d1:93:8d:ec:2d:0c:a4:78:36:a1:11:
         43:43:80:91:ca:54:55:6e:34:11:b8:39:9b:a2:9e:1f:5e:2c:
         db:33:d7:47:c6:4e:53:4a:94:88:77:30:71:f1:55:dd:b4:68:
         a1:19:f3:7c:99:89:1f:6f:1d:38:17:fa:f3:ae:b6:07:38:9b:
         bb:dd:dc:90:5e:07:06:c1:8d:f1:92:4f:a4:85:44:07:de:09:
         82:6d:f7:67:b3:73:db:14:7e:16:0f:99:6f:a4:5c:a6:3d:1c:
         ea:44:05:74:72:ad:13:8e:85:9a:d5:56:08:aa:ab:de:6d:bc:
         77:0d:6a:1f:ce:5c:55:c1:0b:56:4d:7f:5c:2e:02:48:a9:95:
         2e:69:b3:ba:39:aa:89:4b:7e:ca:f5:cb:2b:cc:ad:8f:a8:a7:
         9a:c9:93:59
-----BEGIN CERTIFICATE-----
MIIDczCCAlugAwIBAgIQZaGyqZN/VWWRvJMnIrYkvDANBgkqhkiG9w0BAQsFADAV
MRMwEQYDVQQDDAp0ZWFtOTQtbmV0MB4XDTIyMDUxODE0NDYxOVoXDTI1MDUwMjE0
NDYxOVowGDEWMBQGA1UEAwwNdGVhbTk0LXNlcnZlcjCCASIwDQYJKoZIhvcNAQEB
BQADggEPADCCAQoCggEBAMDz7QHnf8KFi8i3gnLYcRGfMRdme1Xh+9O1vS3xS03J
5+lV+HrSIUUEea7aVi5ko3nagsDw767vtwKdxb9f81n0h/pxiW4P63YErszrA+eH
Amt75TybQwvTm6l00yqqpYm77i/eSIiwHZpjm9bfQIxCje+e3tYW5GKi58IQcwCq
1zMPyxVoOp5oWMslyTJxwM8sdLgf/pbK0trC6RVydAR4Kh8oy6tPxE1ClaPIzOKA
Szdd819dEJqwMXb21jJDGRMCLeR480jrn56onWpiW8102I+8Qk/19sC3MjWVDyQn
GpZC/LjU/uQf1SwlrNbDrdR5olZ583VENYK9WjKEOWsCAwEAAaOBuzCBuDAJBgNV
HRMEAjAAMB0GA1UdDgQWBBS6AEU+GbM9JbAab+yYo8jLM4TsZTBQBgNVHSMESTBH
gBSYFzvfi/syT5fioVjK4Rk0fYEiMaEZpBcwFTETMBEGA1UEAwwKdGVhbTk0LW5l
dIIUOi6nc8eMyYn8xG1XRvo2l7qSDB8wEwYDVR0lBAwwCgYIKwYBBQUHAwEwCwYD
VR0PBAQDAgWgMBgGA1UdEQQRMA+CDXRlYW05NC1zZXJ2ZXIwDQYJKoZIhvcNAQEL
BQADggEBAOCHB8UjRuJ738TV1TxwGI4LPrle80o4o1i4u3bwd47mH48htrNgr+xS
JY2vrpeZffPjV+DJpigsAdgNWIFNxubvAroIy5XNiN1z/S9XanPrfKZNIKJTwBaQ
l3Y7+9t9c+XRk43sLQykeDahEUNDgJHKVFVuNBG4OZuinh9eLNsz10fGTlNKlIh3
MHHxVd20aKEZ83yZiR9vHTgX+vOutgc4m7vd3JBeBwbBjfGST6SFRAfeCYJt92ez
c9sUfhYPmW+kXKY9HOpEBXRyrROOhZrVVgiqq95tvHcNah/OXFXBC1ZNf1wuAkip
lS5ps7o5qolLfsr1yyvMrY+op5rJk1k=
-----END CERTIFICATE-----
