Certificate:
    Data:
        Version: 3 (0x2)
        Serial Number:
            fb:8b:63:14:78:61:d2:e8:40:0f:9d:ee:42:4b:f9:a8
        Signature Algorithm: sha256WithRSAEncryption
        Issuer: CN=team349-net
        Validity
            Not Before: May 18 20:34:52 2022 GMT
            Not After : May  2 20:34:52 2025 GMT
        Subject: CN=team349-server
        Subject Public Key Info:
            Public Key Algorithm: rsaEncryption
                RSA Public-Key: (2048 bit)
                Modulus:
                    00:cc:80:93:16:71:86:98:1b:cb:ed:ce:65:46:76:
                    15:ab:0d:4b:3e:d9:e8:63:ba:fe:1d:fb:65:5f:21:
                    58:5e:9b:90:99:65:78:b0:a0:25:15:55:69:a0:9e:
                    16:6d:f9:12:94:6d:1d:69:03:3a:8f:0e:95:e8:8a:
                    fa:94:98:d3:2a:9d:79:91:c1:36:b8:81:9e:d2:e5:
                    33:58:cb:00:12:71:4e:12:98:6c:76:8b:97:86:7a:
                    a2:89:0e:21:6b:13:7a:19:cb:2a:1e:9e:39:1b:75:
                    6a:3f:c0:39:8b:88:35:a4:a4:9e:54:e9:1f:d6:fa:
                    3b:4e:b2:63:21:a9:8a:1c:0f:45:0e:50:a7:c5:4b:
                    d0:bc:a0:2e:7f:2e:bb:a9:e7:62:d7:dc:a6:b5:84:
                    34:85:b2:db:24:80:dd:13:2f:60:11:a1:05:de:57:
                    8f:77:76:08:89:30:ec:ae:43:8f:9b:d4:1a:76:64:
                    16:99:b4:1b:d7:d0:4e:b3:ed:04:2d:80:5d:f1:50:
                    4f:9e:bf:88:eb:0a:cc:b6:8f:3f:f6:e5:9c:4c:82:
                    2b:7a:10:01:c3:c3:d4:4a:75:68:84:58:c3:13:98:
                    6e:de:ab:39:d7:e9:d2:6d:e6:55:a1:bb:06:ff:af:
                    13:62:0e:0f:e1:ed:69:ff:31:d6:f9:15:65:2d:3a:
                    1c:3b
                Exponent: 65537 (0x10001)
        X509v3 extensions:
            X509v3 Basic Constraints: 
                CA:FALSE
            X509v3 Subject Key Identifier: 
                5C:23:69:30:4B:7A:72:11:CF:A4:66:40:6D:C2:38:33:86:9C:25:09
            X509v3 Authority Key Identifier: 
                keyid:93:F2:21:53:64:E9:BE:0E:7D:30:1C:4A:1D:3C:01:D1:56:8D:31:E5
                DirName:/CN=team349-net
                serial:6E:B9:93:C3:A0:95:14:4F:B9:17:88:4C:A6:2B:8C:C3:28:E4:08:48

            X509v3 Extended Key Usage: 
                TLS Web Server Authentication
            X509v3 Key Usage: 
                Digital Signature, Key Encipherment
            X509v3 Subject Alternative Name: 
                DNS:team349-server
    Signature Algorithm: sha256WithRSAEncryption
         31:6a:62:e1:2b:8e:eb:23:23:3e:49:b2:59:37:b2:47:30:eb:
         92:ab:d5:b0:a4:a4:25:9f:04:9d:6d:ef:be:62:75:a3:ac:50:
         6e:12:79:f4:b8:32:2e:1d:b8:31:0d:96:ad:0c:29:be:b9:0d:
         72:93:17:9c:29:f2:cf:ae:5e:ec:81:9f:1c:9d:a4:bf:71:a0:
         a6:3e:6c:7c:cd:80:f1:01:01:f0:e8:10:fd:99:46:34:a6:44:
         1b:10:b2:0b:bf:35:82:7c:d5:e0:33:de:d2:ec:50:04:53:3a:
         56:8a:91:56:dc:77:0c:b9:67:20:52:58:f2:64:47:82:af:48:
         50:f7:89:19:1d:e3:27:21:d4:79:e8:04:b1:17:9c:50:91:43:
         82:de:39:88:e8:ca:6e:4e:80:b8:59:a2:bb:71:7d:7d:78:39:
         ae:7b:cd:2c:a1:d1:6e:92:8b:14:7c:cf:59:16:d8:55:2e:e0:
         33:0e:7f:71:5d:bc:83:ec:b6:68:e6:e7:ee:68:22:ce:0c:9f:
         96:0a:4c:fb:b2:42:ae:a9:f5:b4:a5:45:0b:a9:58:0d:3d:d0:
         12:73:1c:85:b2:37:c0:64:c4:cb:5c:2b:16:81:7c:21:eb:1a:
         22:8d:7f:cb:21:c3:8b:20:f9:7d:44:bc:e8:ed:27:d2:e6:e8:
         b7:1c:56:64
-----BEGIN CERTIFICATE-----
MIIDeDCCAmCgAwIBAgIRAPuLYxR4YdLoQA+d7kJL+agwDQYJKoZIhvcNAQELBQAw
FjEUMBIGA1UEAwwLdGVhbTM0OS1uZXQwHhcNMjIwNTE4MjAzNDUyWhcNMjUwNTAy
MjAzNDUyWjAZMRcwFQYDVQQDDA50ZWFtMzQ5LXNlcnZlcjCCASIwDQYJKoZIhvcN
AQEBBQADggEPADCCAQoCggEBAMyAkxZxhpgby+3OZUZ2FasNSz7Z6GO6/h37ZV8h
WF6bkJlleLCgJRVVaaCeFm35EpRtHWkDOo8OleiK+pSY0yqdeZHBNriBntLlM1jL
ABJxThKYbHaLl4Z6ookOIWsTehnLKh6eORt1aj/AOYuINaSknlTpH9b6O06yYyGp
ihwPRQ5Qp8VL0LygLn8uu6nnYtfcprWENIWy2ySA3RMvYBGhBd5Xj3d2CIkw7K5D
j5vUGnZkFpm0G9fQTrPtBC2AXfFQT56/iOsKzLaPP/blnEyCK3oQAcPD1Ep1aIRY
wxOYbt6rOdfp0m3mVaG7Bv+vE2IOD+Htaf8x1vkVZS06HDsCAwEAAaOBvTCBujAJ
BgNVHRMEAjAAMB0GA1UdDgQWBBRcI2kwS3pyEc+kZkBtwjgzhpwlCTBRBgNVHSME
SjBIgBST8iFTZOm+Dn0wHEodPAHRVo0x5aEapBgwFjEUMBIGA1UEAwwLdGVhbTM0
OS1uZXSCFG65k8OglRRPuReITKYrjMMo5AhIMBMGA1UdJQQMMAoGCCsGAQUFBwMB
MAsGA1UdDwQEAwIFoDAZBgNVHREEEjAQgg50ZWFtMzQ5LXNlcnZlcjANBgkqhkiG
9w0BAQsFAAOCAQEAMWpi4SuO6yMjPkmyWTeyRzDrkqvVsKSkJZ8EnW3vvmJ1o6xQ
bhJ59LgyLh24MQ2WrQwpvrkNcpMXnCnyz65e7IGfHJ2kv3Ggpj5sfM2A8QEB8OgQ
/ZlGNKZEGxCyC781gnzV4DPe0uxQBFM6VoqRVtx3DLlnIFJY8mRHgq9IUPeJGR3j
JyHUeegEsRecUJFDgt45iOjKbk6AuFmiu3F9fXg5rnvNLKHRbpKLFHzPWRbYVS7g
Mw5/cV28g+y2aObn7mgizgyflgpM+7JCrqn1tKVFC6lYDT3QEnMchbI3wGTEy1wr
FoF8IesaIo1/yyHDiyD5fUS86O0n0ubotxxWZA==
-----END CERTIFICATE-----
