Certificate:
    Data:
        Version: 3 (0x2)
        Serial Number:
            9c:7c:eb:c8:1a:ef:ae:d1:39:6d:6a:f6:90:39:7c:a7
        Signature Algorithm: sha256WithRSAEncryption
        Issuer: CN=team217-net
        Validity
            Not Before: May 18 19:10:13 2022 GMT
            Not After : May  2 19:10:13 2025 GMT
        Subject: CN=team217-client
        Subject Public Key Info:
            Public Key Algorithm: rsaEncryption
                RSA Public-Key: (2048 bit)
                Modulus:
                    00:c2:27:bc:80:66:71:c2:72:14:38:eb:ff:fa:f7:
                    c5:ad:35:4b:6f:91:72:b7:f8:e4:4c:d5:34:62:0f:
                    2d:97:2d:2d:02:18:ee:e8:d2:60:d6:07:1c:c3:ef:
                    e9:ad:e2:11:36:ae:7e:5d:2c:6a:a3:07:71:97:6c:
                    c1:dc:60:fc:2d:71:c1:5b:67:22:6e:a8:f6:be:ff:
                    a8:45:79:8c:ba:f4:39:69:47:df:e3:8c:ba:13:c7:
                    cb:1a:2b:c2:4c:aa:e9:72:1b:01:19:c8:17:2d:f0:
                    cb:b3:b7:8c:3a:b7:e9:f3:40:c5:88:8e:06:48:74:
                    34:c0:84:04:03:79:11:ac:29:8a:72:a0:9a:3b:a5:
                    29:53:6e:90:45:ca:1e:41:33:8e:bb:80:a6:0c:83:
                    a7:a4:22:e9:ea:94:75:a1:5c:e8:4e:3e:56:fa:a4:
                    f7:4c:21:29:39:4d:3f:fe:01:28:65:c0:c9:e9:ef:
                    18:0a:22:72:ad:e2:29:d4:d2:3a:48:86:71:b7:03:
                    d7:3a:42:6d:f4:1e:5c:82:9c:70:ab:2f:58:f0:24:
                    28:29:7c:46:e9:01:55:66:3c:46:da:64:63:36:f0:
                    a2:7c:82:02:e8:c8:ec:ca:40:96:45:14:63:5d:cd:
                    0b:e7:9a:22:b5:81:5c:03:3c:cc:81:51:92:20:36:
                    4d:fb
                Exponent: 65537 (0x10001)
        X509v3 extensions:
            X509v3 Basic Constraints: 
                CA:FALSE
            X509v3 Subject Key Identifier: 
                6B:D0:FF:D7:1E:A6:35:26:6F:C5:15:75:96:49:E7:D2:0C:91:55:08
            X509v3 Authority Key Identifier: 
                keyid:8E:CF:80:F9:64:9F:D5:15:66:79:B4:DF:F0:09:80:CA:86:9F:A4:91
                DirName:/CN=team217-net
                serial:57:58:03:FD:34:8A:AC:0A:B5:BB:12:D2:0D:7A:A2:D1:60:69:6D:2C

            X509v3 Extended Key Usage: 
                TLS Web Client Authentication
            X509v3 Key Usage: 
                Digital Signature
    Signature Algorithm: sha256WithRSAEncryption
         48:13:18:55:6a:a1:48:0e:5a:af:c3:d1:88:70:ca:27:5c:1a:
         b2:49:a8:de:df:4a:e1:f2:f2:34:ae:0e:93:64:56:a5:8f:0a:
         b9:13:80:9b:a6:8e:1a:10:06:f5:aa:90:bd:d2:1b:ae:9a:38:
         50:65:0d:ea:56:6e:19:f4:c4:f0:49:70:5f:70:af:cf:41:48:
         eb:da:b1:63:83:14:5c:a1:7a:7a:37:f6:23:3b:22:83:66:6f:
         e1:34:59:5b:3e:16:aa:13:b7:89:c8:15:6e:15:6d:f3:43:34:
         e2:03:f9:c1:97:dc:86:ad:f9:29:1d:f8:17:87:4c:2e:a3:29:
         ca:ef:0a:3d:1e:81:ba:6e:cb:dd:09:98:d6:f5:aa:ac:f8:ca:
         39:54:72:c3:62:84:2d:c7:c3:05:b8:88:5b:6f:2c:30:40:ef:
         f4:76:23:b8:65:c7:b5:0d:99:ad:13:c7:77:dc:63:29:92:d5:
         3c:08:2d:47:a4:f3:3a:0d:34:9c:32:25:e5:82:78:43:57:63:
         6e:1b:b5:d0:dc:1e:29:1a:94:5d:6f:05:b4:5a:13:72:58:fd:
         26:08:5c:0b:8e:56:70:89:53:97:30:dc:f5:f2:15:e3:50:30:
         f9:53:33:82:21:cb:bd:81:9f:45:29:04:9d:41:eb:3f:bb:65:
         5f:e6:2c:a2
-----BEGIN CERTIFICATE-----
MIIDXTCCAkWgAwIBAgIRAJx868ga767ROW1q9pA5fKcwDQYJKoZIhvcNAQELBQAw
FjEUMBIGA1UEAwwLdGVhbTIxNy1uZXQwHhcNMjIwNTE4MTkxMDEzWhcNMjUwNTAy
MTkxMDEzWjAZMRcwFQYDVQQDDA50ZWFtMjE3LWNsaWVudDCCASIwDQYJKoZIhvcN
AQEBBQADggEPADCCAQoCggEBAMInvIBmccJyFDjr//r3xa01S2+Rcrf45EzVNGIP
LZctLQIY7ujSYNYHHMPv6a3iETaufl0saqMHcZdswdxg/C1xwVtnIm6o9r7/qEV5
jLr0OWlH3+OMuhPHyxorwkyq6XIbARnIFy3wy7O3jDq36fNAxYiOBkh0NMCEBAN5
EawpinKgmjulKVNukEXKHkEzjruApgyDp6Qi6eqUdaFc6E4+Vvqk90whKTlNP/4B
KGXAyenvGAoicq3iKdTSOkiGcbcD1zpCbfQeXIKccKsvWPAkKCl8RukBVWY8Rtpk
YzbwonyCAujI7MpAlkUUY13NC+eaIrWBXAM8zIFRkiA2TfsCAwEAAaOBojCBnzAJ
BgNVHRMEAjAAMB0GA1UdDgQWBBRr0P/XHqY1Jm/FFXWWSefSDJFVCDBRBgNVHSME
SjBIgBSOz4D5ZJ/VFWZ5tN/wCYDKhp+kkaEapBgwFjEUMBIGA1UEAwwLdGVhbTIx
Ny1uZXSCFFdYA/00iqwKtbsS0g16otFgaW0sMBMGA1UdJQQMMAoGCCsGAQUFBwMC
MAsGA1UdDwQEAwIHgDANBgkqhkiG9w0BAQsFAAOCAQEASBMYVWqhSA5ar8PRiHDK
J1waskmo3t9K4fLyNK4Ok2RWpY8KuROAm6aOGhAG9aqQvdIbrpo4UGUN6lZuGfTE
8ElwX3Cvz0FI69qxY4MUXKF6ejf2Izsig2Zv4TRZWz4WqhO3icgVbhVt80M04gP5
wZfchq35KR34F4dMLqMpyu8KPR6Bum7L3QmY1vWqrPjKOVRyw2KELcfDBbiIW28s
MEDv9HYjuGXHtQ2ZrRPHd9xjKZLVPAgtR6TzOg00nDIl5YJ4Q1djbhu10NweKRqU
XW8FtFoTclj9JghcC45WcIlTlzDc9fIV41Aw+VMzgiHLvYGfRSkEnUHrP7tlX+Ys
og==
-----END CERTIFICATE-----
