Certificate:
    Data:
        Version: 3 (0x2)
        Serial Number:
            0e:0e:d1:64:3b:fe:1b:57:3f:06:a1:34:8b:53:eb:96
        Signature Algorithm: sha256WithRSAEncryption
        Issuer: CN=team460-net
        Validity
            Not Before: May 18 21:20:22 2022 GMT
            Not After : May  2 21:20:22 2025 GMT
        Subject: CN=team460-server
        Subject Public Key Info:
            Public Key Algorithm: rsaEncryption
                RSA Public-Key: (2048 bit)
                Modulus:
                    00:b9:30:da:69:64:42:e5:9f:9e:64:d3:21:f7:35:
                    22:4f:a1:71:45:42:9a:26:c6:3a:8e:ca:93:96:cf:
                    75:0a:1f:55:ef:0c:7f:fb:ce:2b:89:cc:4f:5b:88:
                    76:6a:a2:53:db:7d:da:c1:5d:3c:20:8e:03:88:d7:
                    23:a0:20:2e:4d:cc:e5:93:2c:8e:8c:2e:ee:cd:52:
                    d1:72:b6:14:92:43:62:fb:3f:1e:fb:60:2f:01:f3:
                    ee:4f:4f:91:b3:a2:31:5c:71:16:bd:42:d3:14:3c:
                    18:a1:d5:6f:39:9b:5b:8a:13:1e:e5:ef:de:0e:bc:
                    82:f9:17:63:dd:20:aa:79:06:30:bd:86:c0:82:84:
                    6d:c6:88:50:5d:f3:93:82:a1:2a:28:84:da:73:37:
                    1a:17:0f:5e:4a:5d:a5:82:a2:97:0d:ff:04:e2:0e:
                    dd:9c:28:24:43:88:c9:69:39:d0:0b:f9:05:1e:74:
                    00:26:94:87:88:a5:9a:55:d1:c9:b7:a4:12:c2:f4:
                    85:1a:d0:d2:9a:64:c9:97:4d:f2:95:4d:52:c2:f2:
                    a5:1a:7b:c2:0c:d8:e8:77:5e:02:9a:84:83:1a:48:
                    e8:1a:4a:8c:6f:61:54:34:f5:b7:58:ea:12:92:a0:
                    5c:88:9c:23:db:ea:b4:ad:da:d4:8e:a2:2f:b7:c6:
                    1f:ef
                Exponent: 65537 (0x10001)
        X509v3 extensions:
            X509v3 Basic Constraints: 
                CA:FALSE
            X509v3 Subject Key Identifier: 
                A6:25:A7:EA:41:33:8C:3B:69:12:09:CF:EA:D8:1C:8C:F5:61:FE:93
            X509v3 Authority Key Identifier: 
                keyid:AA:FE:1B:DB:67:2E:06:AC:B5:B3:64:8C:83:B6:26:ED:5B:5F:F1:34
                DirName:/CN=team460-net
                serial:6C:21:20:F6:EE:A2:6B:8F:DB:41:7B:C5:90:45:86:8E:EB:65:A7:DF

            X509v3 Extended Key Usage: 
                TLS Web Server Authentication
            X509v3 Key Usage: 
                Digital Signature, Key Encipherment
            X509v3 Subject Alternative Name: 
                DNS:team460-server
    Signature Algorithm: sha256WithRSAEncryption
         3f:d4:4b:14:fd:c0:c4:1f:68:b8:3b:32:f8:e1:a8:79:e8:73:
         2b:3d:55:5d:19:7e:dc:e6:ca:9b:68:f2:6c:00:2e:8f:99:a9:
         36:d2:49:0f:29:d0:c6:1e:e4:46:b4:aa:e0:9b:59:53:68:d0:
         23:54:f4:e5:b6:7d:f4:a0:23:05:5a:b3:c4:64:ec:55:fb:e1:
         7a:7d:33:dd:a9:15:8e:63:69:1a:69:ff:e3:a3:06:df:49:57:
         4e:d3:55:8d:d5:45:6b:c9:28:42:cf:be:1c:56:92:d9:fc:73:
         37:ef:a2:31:9f:9b:03:98:3c:7f:36:f0:70:1e:6f:93:dd:12:
         02:b4:73:ed:48:b6:68:bb:f1:39:cd:4c:20:b0:35:af:a1:e2:
         35:b0:33:28:55:39:4d:8c:11:e3:3a:de:91:bc:83:1b:9f:8f:
         25:28:70:f9:ad:20:be:3f:45:63:fc:8e:de:e8:69:ec:c1:ba:
         43:12:66:29:5e:ff:82:4f:bb:ab:31:3f:87:11:4f:3e:09:9a:
         47:24:ea:69:6f:8f:40:35:be:d8:fd:ef:ae:fa:7a:e3:fa:5b:
         fa:91:98:96:11:c8:d6:7d:a5:49:7b:fd:cd:de:42:9d:ea:da:
         2a:1b:57:42:6f:37:57:1a:79:bf:15:fb:17:37:33:0c:d1:ed:
         1f:32:d6:4c
-----BEGIN CERTIFICATE-----
MIIDdzCCAl+gAwIBAgIQDg7RZDv+G1c/BqE0i1PrljANBgkqhkiG9w0BAQsFADAW
MRQwEgYDVQQDDAt0ZWFtNDYwLW5ldDAeFw0yMjA1MTgyMTIwMjJaFw0yNTA1MDIy
MTIwMjJaMBkxFzAVBgNVBAMMDnRlYW00NjAtc2VydmVyMIIBIjANBgkqhkiG9w0B
AQEFAAOCAQ8AMIIBCgKCAQEAuTDaaWRC5Z+eZNMh9zUiT6FxRUKaJsY6jsqTls91
Ch9V7wx/+84ricxPW4h2aqJT233awV08II4DiNcjoCAuTczlkyyOjC7uzVLRcrYU
kkNi+z8e+2AvAfPuT0+Rs6IxXHEWvULTFDwYodVvOZtbihMe5e/eDryC+Rdj3SCq
eQYwvYbAgoRtxohQXfOTgqEqKITaczcaFw9eSl2lgqKXDf8E4g7dnCgkQ4jJaTnQ
C/kFHnQAJpSHiKWaVdHJt6QSwvSFGtDSmmTJl03ylU1SwvKlGnvCDNjod14CmoSD
GkjoGkqMb2FUNPW3WOoSkqBciJwj2+q0rdrUjqIvt8Yf7wIDAQABo4G9MIG6MAkG
A1UdEwQCMAAwHQYDVR0OBBYEFKYlp+pBM4w7aRIJz+rYHIz1Yf6TMFEGA1UdIwRK
MEiAFKr+G9tnLgastbNkjIO2Ju1bX/E0oRqkGDAWMRQwEgYDVQQDDAt0ZWFtNDYw
LW5ldIIUbCEg9u6ia4/bQXvFkEWGjutlp98wEwYDVR0lBAwwCgYIKwYBBQUHAwEw
CwYDVR0PBAQDAgWgMBkGA1UdEQQSMBCCDnRlYW00NjAtc2VydmVyMA0GCSqGSIb3
DQEBCwUAA4IBAQA/1EsU/cDEH2i4OzL44ah56HMrPVVdGX7c5sqbaPJsAC6Pmak2
0kkPKdDGHuRGtKrgm1lTaNAjVPTltn30oCMFWrPEZOxV++F6fTPdqRWOY2kaaf/j
owbfSVdO01WN1UVryShCz74cVpLZ/HM376Ixn5sDmDx/NvBwHm+T3RICtHPtSLZo
u/E5zUwgsDWvoeI1sDMoVTlNjBHjOt6RvIMbn48lKHD5rSC+P0Vj/I7e6GnswbpD
EmYpXv+CT7urMT+HEU8+CZpHJOppb49ANb7Y/e+u+nrj+lv6kZiWEcjWfaVJe/3N
3kKd6toqG1dCbzdXGnm/FfsXNzMM0e0fMtZM
-----END CERTIFICATE-----
