Certificate:
    Data:
        Version: 3 (0x2)
        Serial Number:
            ce:27:93:97:9d:d5:49:c5:be:23:4f:7b:43:49:46:ac
        Signature Algorithm: sha256WithRSAEncryption
        Issuer: CN=team254-net
        Validity
            Not Before: May 18 19:40:21 2022 GMT
            Not After : May  2 19:40:21 2025 GMT
        Subject: CN=team254-server
        Subject Public Key Info:
            Public Key Algorithm: rsaEncryption
                RSA Public-Key: (2048 bit)
                Modulus:
                    00:c5:38:59:d5:aa:16:8b:8b:38:3c:02:fc:62:d8:
                    66:41:be:ae:7f:b3:21:80:e2:16:df:44:27:c5:73:
                    b7:14:a5:41:db:2e:1f:7d:07:f9:fd:c5:e2:6c:11:
                    f7:a9:ae:67:a0:c7:1b:bf:38:0f:65:f5:75:50:bf:
                    2a:77:5a:7f:94:1b:10:b9:22:5a:af:7d:ba:2c:4c:
                    bd:57:00:cc:ff:df:77:33:27:71:49:3b:98:6e:74:
                    6c:99:99:3f:6d:63:02:3f:e5:ca:b8:11:85:f6:58:
                    62:b0:14:47:c2:25:6c:14:6b:88:0f:9c:7c:e5:50:
                    4f:a7:a2:1d:0b:a3:d1:5f:19:7c:b5:c8:46:11:76:
                    3b:16:4b:54:4b:68:b0:62:44:74:68:8e:c5:5c:9a:
                    62:9b:96:6a:96:1f:f9:6c:a1:39:bd:b6:dc:fa:7a:
                    3c:47:d9:8e:1c:d3:14:09:d6:86:1f:ef:d5:4e:a3:
                    d8:28:3e:4d:47:dd:2e:aa:b3:3f:d9:60:56:52:e4:
                    f2:f2:83:e4:77:bd:72:9b:fb:2e:81:6b:9e:fb:12:
                    35:91:6e:f5:49:17:40:6f:3c:8d:79:e8:de:0e:62:
                    28:13:14:d6:ea:71:da:13:8a:e0:5e:b6:51:d3:49:
                    52:4b:69:af:de:23:f6:13:5e:2e:72:42:ce:e0:77:
                    a8:95
                Exponent: 65537 (0x10001)
        X509v3 extensions:
            X509v3 Basic Constraints: 
                CA:FALSE
            X509v3 Subject Key Identifier: 
                B3:9E:5B:E1:28:46:F3:6F:EB:B9:30:9B:4A:AB:C4:17:99:96:79:B0
            X509v3 Authority Key Identifier: 
                keyid:61:60:BA:BF:50:1B:C3:62:05:CA:AC:B4:89:2F:59:4B:61:1C:AE:6A
                DirName:/CN=team254-net
                serial:1E:3A:A5:5A:64:0E:F9:38:4A:FC:FF:CA:F6:33:16:01:2D:15:D4:F3

            X509v3 Extended Key Usage: 
                TLS Web Server Authentication
            X509v3 Key Usage: 
                Digital Signature, Key Encipherment
            X509v3 Subject Alternative Name: 
                DNS:team254-server
    Signature Algorithm: sha256WithRSAEncryption
         be:ee:5d:ae:0b:db:d1:4d:0c:1e:e9:7f:0c:67:fe:c7:4c:87:
         06:05:de:2c:1b:11:cb:1d:fe:ae:dd:e2:d3:1b:7d:28:58:4b:
         ff:5b:68:aa:24:dc:8d:15:1f:e2:53:7e:29:76:3d:43:13:16:
         06:f5:29:db:7d:95:33:3d:5e:8d:20:6e:54:6c:69:1f:0b:7d:
         2f:2a:7c:07:8b:c7:8e:34:60:db:cc:0d:14:a8:3b:e5:15:4e:
         bb:ca:af:8e:38:38:18:08:65:57:82:b9:27:a6:cd:40:ee:88:
         41:a2:b0:2a:5b:bd:f9:9f:66:25:3c:78:21:40:80:55:20:b5:
         2e:19:bc:a6:7c:86:75:82:92:8c:37:52:c3:99:fa:b1:47:58:
         aa:b0:fd:00:73:37:1a:29:6c:44:00:09:b1:78:5d:17:0e:9f:
         45:e5:cb:27:da:46:68:11:c9:a6:0a:16:37:d4:52:c0:c3:73:
         16:18:a5:ac:b0:f1:98:e7:c4:c5:78:d4:a2:4f:cc:91:1e:2b:
         76:6b:22:18:d6:e5:c2:8c:aa:ff:ce:9d:b8:69:60:be:79:8f:
         75:01:79:93:86:b7:26:7f:11:a2:f8:fc:2c:e7:20:7d:38:b5:
         9d:1a:84:ea:35:1f:8a:27:6a:62:54:06:39:76:3c:48:65:45:
         02:a6:50:e0
-----BEGIN CERTIFICATE-----
MIIDeDCCAmCgAwIBAgIRAM4nk5ed1UnFviNPe0NJRqwwDQYJKoZIhvcNAQELBQAw
FjEUMBIGA1UEAwwLdGVhbTI1NC1uZXQwHhcNMjIwNTE4MTk0MDIxWhcNMjUwNTAy
MTk0MDIxWjAZMRcwFQYDVQQDDA50ZWFtMjU0LXNlcnZlcjCCASIwDQYJKoZIhvcN
AQEBBQADggEPADCCAQoCggEBAMU4WdWqFouLODwC/GLYZkG+rn+zIYDiFt9EJ8Vz
txSlQdsuH30H+f3F4mwR96muZ6DHG784D2X1dVC/Kndaf5QbELkiWq99uixMvVcA
zP/fdzMncUk7mG50bJmZP21jAj/lyrgRhfZYYrAUR8IlbBRriA+cfOVQT6eiHQuj
0V8ZfLXIRhF2OxZLVEtosGJEdGiOxVyaYpuWapYf+WyhOb223Pp6PEfZjhzTFAnW
hh/v1U6j2Cg+TUfdLqqzP9lgVlLk8vKD5He9cpv7LoFrnvsSNZFu9UkXQG88jXno
3g5iKBMU1upx2hOK4F62UdNJUktpr94j9hNeLnJCzuB3qJUCAwEAAaOBvTCBujAJ
BgNVHRMEAjAAMB0GA1UdDgQWBBSznlvhKEbzb+u5MJtKq8QXmZZ5sDBRBgNVHSME
SjBIgBRhYLq/UBvDYgXKrLSJL1lLYRyuaqEapBgwFjEUMBIGA1UEAwwLdGVhbTI1
NC1uZXSCFB46pVpkDvk4Svz/yvYzFgEtFdTzMBMGA1UdJQQMMAoGCCsGAQUFBwMB
MAsGA1UdDwQEAwIFoDAZBgNVHREEEjAQgg50ZWFtMjU0LXNlcnZlcjANBgkqhkiG
9w0BAQsFAAOCAQEAvu5drgvb0U0MHul/DGf+x0yHBgXeLBsRyx3+rt3i0xt9KFhL
/1toqiTcjRUf4lN+KXY9QxMWBvUp232VMz1ejSBuVGxpHwt9Lyp8B4vHjjRg28wN
FKg75RVOu8qvjjg4GAhlV4K5J6bNQO6IQaKwKlu9+Z9mJTx4IUCAVSC1Lhm8pnyG
dYKSjDdSw5n6sUdYqrD9AHM3GilsRAAJsXhdFw6fReXLJ9pGaBHJpgoWN9RSwMNz
FhilrLDxmOfExXjUok/MkR4rdmsiGNblwoyq/86duGlgvnmPdQF5k4a3Jn8Rovj8
LOcgfTi1nRqE6jUfiidqYlQGOXY8SGVFAqZQ4A==
-----END CERTIFICATE-----
