Certificate:
    Data:
        Version: 3 (0x2)
        Serial Number:
            ad:48:bf:8f:22:06:b4:c8:22:fb:80:86:77:94:7c:c4
        Signature Algorithm: sha256WithRSAEncryption
        Issuer: CN=team198-net
        Validity
            Not Before: May 18 19:08:04 2022 GMT
            Not After : May  2 19:08:04 2025 GMT
        Subject: CN=team198-client
        Subject Public Key Info:
            Public Key Algorithm: rsaEncryption
                RSA Public-Key: (2048 bit)
                Modulus:
                    00:be:9c:69:8b:80:29:be:7b:7b:c3:bf:21:50:5e:
                    2e:48:16:81:cf:28:6e:21:31:8a:2e:53:d8:13:3e:
                    90:c1:0b:f2:96:6d:95:40:0f:9a:b9:75:05:69:cf:
                    d1:50:1a:cc:14:ed:5b:0b:c4:dc:96:df:67:e6:55:
                    4a:26:43:cb:dd:ce:22:e9:8b:07:19:18:a9:ae:e4:
                    55:a8:28:4b:52:43:c4:14:83:26:05:21:5d:00:a3:
                    35:cb:61:05:ec:f0:76:6e:68:ee:05:70:7a:e1:17:
                    17:c3:0a:ba:76:6e:c3:16:ff:43:d6:01:50:68:5a:
                    fa:a7:c3:b2:39:ff:15:10:8c:50:34:2d:3d:c0:ea:
                    0c:4a:59:c1:0a:3a:26:b8:65:cd:23:88:38:74:9a:
                    44:a9:56:8b:78:fa:b9:01:ff:78:67:49:21:b2:e6:
                    e9:8d:2e:19:c3:cd:ac:4c:21:e5:3c:3d:e5:03:64:
                    3b:61:73:58:9b:9b:e4:e9:c5:3d:68:6b:5d:69:b4:
                    41:42:ee:68:39:c5:6e:8c:e3:54:2f:93:58:b7:71:
                    2a:27:e6:24:f6:5c:94:48:3b:40:a7:91:b2:d8:13:
                    e4:65:dd:eb:da:9c:c9:30:7d:b9:c1:bc:dd:bf:38:
                    cf:68:37:30:00:9a:0d:e8:73:fe:3b:0f:1c:7d:41:
                    54:43
                Exponent: 65537 (0x10001)
        X509v3 extensions:
            X509v3 Basic Constraints: 
                CA:FALSE
            X509v3 Subject Key Identifier: 
                C4:25:6A:7E:05:52:33:84:22:BF:A8:43:5A:D2:52:56:B9:8E:98:ED
            X509v3 Authority Key Identifier: 
                keyid:BE:98:E1:26:35:B7:ED:A2:10:BE:FD:49:39:6E:61:D8:6B:0B:3F:8C
                DirName:/CN=team198-net
                serial:43:A0:4D:50:DE:2B:34:36:70:5B:F4:EC:EF:7B:1E:40:E5:F1:94:70

            X509v3 Extended Key Usage: 
                TLS Web Client Authentication
            X509v3 Key Usage: 
                Digital Signature
    Signature Algorithm: sha256WithRSAEncryption
         37:3d:e4:56:20:e5:0e:fc:44:01:da:e5:77:e7:00:7b:8f:08:
         98:70:7c:24:54:ad:78:df:b5:82:db:4e:94:d0:2f:07:d0:91:
         2e:66:2f:05:4d:3b:1f:3a:f8:7a:21:72:5d:64:8a:83:6c:98:
         8b:f9:0b:89:58:44:d8:63:79:d6:80:36:f0:3c:83:78:23:fe:
         3f:86:26:51:75:d1:4c:f5:28:e2:b1:9b:b6:34:db:a3:62:68:
         09:9f:cc:c4:b2:c5:79:8d:e6:2b:81:bb:fe:a4:4a:1a:16:46:
         b2:9c:4e:a1:46:57:b6:88:80:10:5f:92:13:6f:30:b5:91:b8:
         49:9e:80:0c:91:ab:b7:19:b6:58:b9:0d:e5:dd:6b:e8:7a:2c:
         fa:dd:55:65:e6:5e:b1:60:7a:13:7b:b4:e0:90:2a:6e:ef:ca:
         4c:42:7c:96:53:77:af:e1:7b:cb:27:f8:7e:73:e7:a8:94:cd:
         3e:d1:e7:c6:aa:ea:45:f1:03:b2:0d:63:22:a1:e9:98:6b:f4:
         41:77:7a:4c:09:d0:da:7c:10:76:30:03:a2:fa:25:13:45:36:
         34:f5:a0:3b:e7:4c:9b:24:fb:67:27:e0:1e:b4:d6:7c:c8:e0:
         78:3e:b3:e3:12:6c:72:22:c5:ff:e9:8c:03:76:a9:21:1e:6e:
         ed:5a:ed:24
-----BEGIN CERTIFICATE-----
MIIDXTCCAkWgAwIBAgIRAK1Iv48iBrTIIvuAhneUfMQwDQYJKoZIhvcNAQELBQAw
FjEUMBIGA1UEAwwLdGVhbTE5OC1uZXQwHhcNMjIwNTE4MTkwODA0WhcNMjUwNTAy
MTkwODA0WjAZMRcwFQYDVQQDDA50ZWFtMTk4LWNsaWVudDCCASIwDQYJKoZIhvcN
AQEBBQADggEPADCCAQoCggEBAL6caYuAKb57e8O/IVBeLkgWgc8obiExii5T2BM+
kMEL8pZtlUAPmrl1BWnP0VAazBTtWwvE3JbfZ+ZVSiZDy93OIumLBxkYqa7kVago
S1JDxBSDJgUhXQCjNcthBezwdm5o7gVweuEXF8MKunZuwxb/Q9YBUGha+qfDsjn/
FRCMUDQtPcDqDEpZwQo6JrhlzSOIOHSaRKlWi3j6uQH/eGdJIbLm6Y0uGcPNrEwh
5Tw95QNkO2FzWJub5OnFPWhrXWm0QULuaDnFbozjVC+TWLdxKifmJPZclEg7QKeR
stgT5GXd69qcyTB9ucG83b84z2g3MACaDehz/jsPHH1BVEMCAwEAAaOBojCBnzAJ
BgNVHRMEAjAAMB0GA1UdDgQWBBTEJWp+BVIzhCK/qENa0lJWuY6Y7TBRBgNVHSME
SjBIgBS+mOEmNbftohC+/Uk5bmHYaws/jKEapBgwFjEUMBIGA1UEAwwLdGVhbTE5
OC1uZXSCFEOgTVDeKzQ2cFv07O97HkDl8ZRwMBMGA1UdJQQMMAoGCCsGAQUFBwMC
MAsGA1UdDwQEAwIHgDANBgkqhkiG9w0BAQsFAAOCAQEANz3kViDlDvxEAdrld+cA
e48ImHB8JFSteN+1gttOlNAvB9CRLmYvBU07Hzr4eiFyXWSKg2yYi/kLiVhE2GN5
1oA28DyDeCP+P4YmUXXRTPUo4rGbtjTbo2JoCZ/MxLLFeY3mK4G7/qRKGhZGspxO
oUZXtoiAEF+SE28wtZG4SZ6ADJGrtxm2WLkN5d1r6Hos+t1VZeZesWB6E3u04JAq
bu/KTEJ8llN3r+F7yyf4fnPnqJTNPtHnxqrqRfEDsg1jIqHpmGv0QXd6TAnQ2nwQ
djADovolE0U2NPWgO+dMmyT7ZyfgHrTWfMjgeD6z4xJsciLF/+mMA3apIR5u7Vrt
JA==
-----END CERTIFICATE-----
