Certificate:
    Data:
        Version: 3 (0x2)
        Serial Number:
            b2:e1:20:3f:b6:11:2f:8d:19:ce:a5:d4:24:43:46:fd
        Signature Algorithm: sha256WithRSAEncryption
        Issuer: CN=team235-net
        Validity
            Not Before: May 18 19:22:21 2022 GMT
            Not After : May  2 19:22:21 2025 GMT
        Subject: CN=team235-server
        Subject Public Key Info:
            Public Key Algorithm: rsaEncryption
                RSA Public-Key: (2048 bit)
                Modulus:
                    00:d5:74:60:65:70:a4:b9:9b:9e:de:91:4e:d2:8a:
                    21:f5:b5:b7:f2:56:35:81:18:a7:45:2f:a9:44:a4:
                    5b:ba:a3:89:b7:44:6b:53:b1:c5:23:29:94:eb:d9:
                    59:2a:01:2d:aa:d1:f2:37:4b:ad:7a:9f:d1:36:25:
                    7b:d4:4b:4a:94:11:34:eb:ac:bf:bf:e9:f9:9a:f6:
                    7e:25:52:30:48:3b:bd:49:55:f5:03:93:60:4d:fc:
                    1a:f1:0c:66:29:06:68:b9:cb:8a:5d:c9:ff:42:3b:
                    fa:fd:e0:a6:cd:a5:12:bc:ee:54:06:f1:43:22:ad:
                    a2:d5:de:91:d4:2b:28:fc:4e:37:d0:e4:21:71:e1:
                    c0:eb:07:17:6c:96:f0:0a:c4:a7:ea:12:12:5d:dd:
                    f1:39:ea:07:0a:e9:81:53:69:9b:dd:38:90:b9:e9:
                    e4:77:8f:f8:b7:de:c5:83:7e:da:41:8e:94:be:34:
                    c2:3e:bd:82:97:9d:4c:f0:c1:eb:70:23:e8:87:6c:
                    b0:89:2b:e4:37:5b:4a:06:f4:e3:21:b4:26:30:6e:
                    c7:0a:43:f6:9d:c3:ff:94:5f:5f:ba:7c:7d:93:d7:
                    ce:4f:06:aa:51:03:86:a3:e9:4e:c1:a8:29:ce:69:
                    b5:d8:f2:8a:5e:8f:27:43:6e:54:2f:a9:44:b8:66:
                    21:c7
                Exponent: 65537 (0x10001)
        X509v3 extensions:
            X509v3 Basic Constraints: 
                CA:FALSE
            X509v3 Subject Key Identifier: 
                9B:A8:B6:15:E3:00:ED:1D:12:22:D3:42:FB:65:C6:54:C2:C4:EE:BA
            X509v3 Authority Key Identifier: 
                keyid:50:FF:98:61:BD:C0:09:C4:4B:F6:93:E3:E8:B4:B0:67:1D:AB:C5:20
                DirName:/CN=team235-net
                serial:18:97:02:98:80:CD:B6:16:48:10:A5:BD:36:DB:43:02:CE:5E:53:82

            X509v3 Extended Key Usage: 
                TLS Web Server Authentication
            X509v3 Key Usage: 
                Digital Signature, Key Encipherment
            X509v3 Subject Alternative Name: 
                DNS:team235-server
    Signature Algorithm: sha256WithRSAEncryption
         28:c6:51:c0:6e:f2:5d:92:a3:4b:17:d2:ab:7f:4e:09:2b:da:
         23:01:b0:bb:fc:4e:8f:7a:af:1d:8b:3d:ef:b1:08:3f:1b:10:
         7b:4c:71:f1:23:20:95:d8:5d:08:fd:91:ae:c0:74:ef:f5:43:
         bf:85:68:e1:bb:dd:55:f5:20:a7:f3:45:6b:40:52:94:1a:7e:
         22:0d:0e:8d:14:13:4b:de:dd:0d:d0:71:09:b0:59:5b:03:05:
         c0:f9:29:a0:29:db:a9:71:f8:a8:08:43:17:d1:4d:ad:db:02:
         2d:38:96:3f:61:e8:42:aa:57:7c:3c:2f:7c:45:ff:94:b1:b7:
         e4:6f:0e:a7:22:2a:d6:44:38:ca:3f:54:80:a3:da:2b:9c:bc:
         20:3e:2e:47:92:f8:3f:2a:41:81:36:95:0b:bb:47:ec:f2:60:
         50:89:5f:e3:d7:8c:29:06:61:e2:a8:1e:e9:aa:4d:42:27:d0:
         58:9d:11:55:e2:62:96:7a:22:66:70:7b:b0:5b:90:ef:9d:89:
         23:b2:3d:48:d6:91:c7:d9:88:99:a2:35:be:2b:14:a1:2f:00:
         04:66:38:7d:ea:b2:a7:7b:d1:8f:95:6f:7f:2c:94:95:57:2f:
         00:f3:1f:e0:6f:a1:21:71:14:f6:a2:8d:c9:d5:e1:0d:4c:f4:
         8a:32:50:bf
-----BEGIN CERTIFICATE-----
MIIDeDCCAmCgAwIBAgIRALLhID+2ES+NGc6l1CRDRv0wDQYJKoZIhvcNAQELBQAw
FjEUMBIGA1UEAwwLdGVhbTIzNS1uZXQwHhcNMjIwNTE4MTkyMjIxWhcNMjUwNTAy
MTkyMjIxWjAZMRcwFQYDVQQDDA50ZWFtMjM1LXNlcnZlcjCCASIwDQYJKoZIhvcN
AQEBBQADggEPADCCAQoCggEBANV0YGVwpLmbnt6RTtKKIfW1t/JWNYEYp0UvqUSk
W7qjibdEa1OxxSMplOvZWSoBLarR8jdLrXqf0TYle9RLSpQRNOusv7/p+Zr2fiVS
MEg7vUlV9QOTYE38GvEMZikGaLnLil3J/0I7+v3gps2lErzuVAbxQyKtotXekdQr
KPxON9DkIXHhwOsHF2yW8ArEp+oSEl3d8TnqBwrpgVNpm904kLnp5HeP+LfexYN+
2kGOlL40wj69gpedTPDB63Aj6IdssIkr5DdbSgb04yG0JjBuxwpD9p3D/5RfX7p8
fZPXzk8GqlEDhqPpTsGoKc5ptdjyil6PJ0NuVC+pRLhmIccCAwEAAaOBvTCBujAJ
BgNVHRMEAjAAMB0GA1UdDgQWBBSbqLYV4wDtHRIi00L7ZcZUwsTuujBRBgNVHSME
SjBIgBRQ/5hhvcAJxEv2k+PotLBnHavFIKEapBgwFjEUMBIGA1UEAwwLdGVhbTIz
NS1uZXSCFBiXApiAzbYWSBClvTbbQwLOXlOCMBMGA1UdJQQMMAoGCCsGAQUFBwMB
MAsGA1UdDwQEAwIFoDAZBgNVHREEEjAQgg50ZWFtMjM1LXNlcnZlcjANBgkqhkiG
9w0BAQsFAAOCAQEAKMZRwG7yXZKjSxfSq39OCSvaIwGwu/xOj3qvHYs977EIPxsQ
e0xx8SMgldhdCP2RrsB07/VDv4Vo4bvdVfUgp/NFa0BSlBp+Ig0OjRQTS97dDdBx
CbBZWwMFwPkpoCnbqXH4qAhDF9FNrdsCLTiWP2HoQqpXfDwvfEX/lLG35G8OpyIq
1kQ4yj9UgKPaK5y8ID4uR5L4PypBgTaVC7tH7PJgUIlf49eMKQZh4qge6apNQifQ
WJ0RVeJilnoiZnB7sFuQ752JI7I9SNaRx9mImaI1visUoS8ABGY4feqyp3vRj5Vv
fyyUlVcvAPMf4G+hIXEU9qKNydXhDUz0ijJQvw==
-----END CERTIFICATE-----
