Certificate:
    Data:
        Version: 3 (0x2)
        Serial Number:
            3f:78:8b:a7:8e:28:ba:01:9c:13:c8:d7:e8:20:c7:d9
        Signature Algorithm: sha256WithRSAEncryption
        Issuer: CN=team266-net
        Validity
            Not Before: May 18 19:37:51 2022 GMT
            Not After : May  2 19:37:51 2025 GMT
        Subject: CN=team266-client
        Subject Public Key Info:
            Public Key Algorithm: rsaEncryption
                RSA Public-Key: (2048 bit)
                Modulus:
                    00:9f:ae:ac:79:86:c1:b5:bd:14:e7:c8:41:68:f7:
                    88:8d:2a:13:83:a2:9c:26:15:02:73:1a:90:3b:bd:
                    fc:84:b2:fa:8e:85:3c:f1:ea:47:0b:28:c8:8b:8b:
                    41:2a:28:fd:a9:b2:d2:7e:77:53:cd:01:0a:cc:8b:
                    28:83:56:7f:9d:b4:7e:a0:3c:a9:6d:3d:62:45:54:
                    24:c2:c9:ea:e9:75:f0:26:6d:a7:cb:10:fb:df:3d:
                    3e:65:0b:fe:c9:f8:34:86:66:59:f1:f9:cb:8f:4d:
                    45:3a:93:67:98:bf:a3:3f:a3:da:af:79:89:e1:0d:
                    3e:fa:6b:33:23:9d:6f:16:67:c4:14:97:1b:9d:37:
                    07:cf:f9:c4:bb:c9:76:51:c9:47:3a:c0:6e:9d:a5:
                    23:0e:17:b1:8c:2e:93:f4:06:39:67:06:0a:be:7e:
                    f7:6d:2e:84:cb:82:60:be:33:9a:ff:e3:41:13:8d:
                    10:47:ca:da:f7:e0:a7:85:0c:fe:dc:6a:e6:7a:8d:
                    25:e9:a8:e1:f7:9a:82:25:f8:46:73:45:ae:da:ef:
                    33:8b:7d:d8:31:dc:a9:79:bf:ab:fb:ca:4b:02:d9:
                    f3:5a:47:c9:9c:e0:33:ff:04:dd:39:d8:1d:e9:5f:
                    cb:95:5e:0e:b9:c6:23:9f:54:83:fc:53:0a:87:de:
                    de:a5
                Exponent: 65537 (0x10001)
        X509v3 extensions:
            X509v3 Basic Constraints: 
                CA:FALSE
            X509v3 Subject Key Identifier: 
                31:4E:0D:66:79:B2:82:9C:80:39:E6:DC:70:2A:6A:99:96:28:2E:36
            X509v3 Authority Key Identifier: 
                keyid:2C:C8:C0:91:7D:CF:FC:40:35:45:F6:3C:E4:59:8F:B4:1F:16:05:82
                DirName:/CN=team266-net
                serial:1D:63:CC:D1:A6:93:35:00:44:D9:AB:4E:2B:94:8C:CF:7F:6C:77:7D

            X509v3 Extended Key Usage: 
                TLS Web Client Authentication
            X509v3 Key Usage: 
                Digital Signature
    Signature Algorithm: sha256WithRSAEncryption
         cd:82:af:4e:90:9f:a0:73:19:51:6f:ca:a8:ad:c2:f9:23:39:
         df:55:c5:fc:a1:82:15:88:08:87:75:15:a3:75:87:de:cf:c0:
         1f:3d:86:78:7a:0a:0c:fa:14:ee:fb:42:b6:af:d0:de:0f:c7:
         a7:8d:f7:dc:ec:ea:94:10:1d:55:24:cf:57:90:22:87:0e:43:
         02:eb:43:9e:d9:21:42:f2:80:6a:73:52:9c:e3:8f:5f:20:3b:
         24:41:78:68:29:b9:77:4c:d9:6f:e8:f0:0b:4c:ea:6e:d8:69:
         d0:33:b2:8b:a2:00:8f:fc:97:a8:d3:a4:81:21:38:3c:85:1e:
         a9:05:16:a9:bd:1b:1d:17:64:2d:28:f8:58:84:4d:57:33:62:
         f6:ed:36:fd:6f:a3:02:01:ab:0d:1b:44:4a:50:a4:7f:98:7f:
         a2:9c:a6:ca:91:00:f8:fc:86:fd:86:b6:bd:71:d5:0e:18:04:
         80:b7:19:41:35:12:0b:40:aa:2c:ac:b0:37:2a:c0:ed:5a:6f:
         46:27:ef:30:d0:97:e3:f5:67:5b:a5:76:4e:b7:5f:6e:f6:00:
         d6:f4:2f:fd:31:61:12:c4:4c:d1:53:c1:ec:75:a9:b9:32:b8:
         84:72:67:c3:e6:84:e5:ee:dd:68:6c:12:92:0e:6d:81:c8:ed:
         fa:b8:cb:81
-----BEGIN CERTIFICATE-----
MIIDXDCCAkSgAwIBAgIQP3iLp44ougGcE8jX6CDH2TANBgkqhkiG9w0BAQsFADAW
MRQwEgYDVQQDDAt0ZWFtMjY2LW5ldDAeFw0yMjA1MTgxOTM3NTFaFw0yNTA1MDIx
OTM3NTFaMBkxFzAVBgNVBAMMDnRlYW0yNjYtY2xpZW50MIIBIjANBgkqhkiG9w0B
AQEFAAOCAQ8AMIIBCgKCAQEAn66seYbBtb0U58hBaPeIjSoTg6KcJhUCcxqQO738
hLL6joU88epHCyjIi4tBKij9qbLSfndTzQEKzIsog1Z/nbR+oDypbT1iRVQkwsnq
6XXwJm2nyxD73z0+ZQv+yfg0hmZZ8fnLj01FOpNnmL+jP6Par3mJ4Q0++mszI51v
FmfEFJcbnTcHz/nEu8l2UclHOsBunaUjDhexjC6T9AY5ZwYKvn73bS6Ey4JgvjOa
/+NBE40QR8ra9+CnhQz+3Grmeo0l6ajh95qCJfhGc0Wu2u8zi33YMdypeb+r+8pL
AtnzWkfJnOAz/wTdOdgd6V/LlV4OucYjn1SD/FMKh97epQIDAQABo4GiMIGfMAkG
A1UdEwQCMAAwHQYDVR0OBBYEFDFODWZ5soKcgDnm3HAqapmWKC42MFEGA1UdIwRK
MEiAFCzIwJF9z/xANUX2PORZj7QfFgWCoRqkGDAWMRQwEgYDVQQDDAt0ZWFtMjY2
LW5ldIIUHWPM0aaTNQBE2atOK5SMz39sd30wEwYDVR0lBAwwCgYIKwYBBQUHAwIw
CwYDVR0PBAQDAgeAMA0GCSqGSIb3DQEBCwUAA4IBAQDNgq9OkJ+gcxlRb8qorcL5
IznfVcX8oYIViAiHdRWjdYfez8AfPYZ4egoM+hTu+0K2r9DeD8enjffc7OqUEB1V
JM9XkCKHDkMC60Oe2SFC8oBqc1Kc449fIDskQXhoKbl3TNlv6PALTOpu2GnQM7KL
ogCP/Jeo06SBITg8hR6pBRapvRsdF2QtKPhYhE1XM2L27Tb9b6MCAasNG0RKUKR/
mH+inKbKkQD4/Ib9hra9cdUOGASAtxlBNRILQKosrLA3KsDtWm9GJ+8w0Jfj9Wdb
pXZOt19u9gDW9C/9MWESxEzRU8Hsdam5MriEcmfD5oTl7t1obBKSDm2ByO36uMuB
-----END CERTIFICATE-----
