Certificate:
    Data:
        Version: 3 (0x2)
        Serial Number:
            87:52:e5:8e:e9:9e:ce:c5:60:ac:0c:df:f3:97:6c:38
        Signature Algorithm: sha256WithRSAEncryption
        Issuer: CN=team176-net
        Validity
            Not Before: May 18 18:50:30 2022 GMT
            Not After : May  2 18:50:30 2025 GMT
        Subject: CN=team176-server
        Subject Public Key Info:
            Public Key Algorithm: rsaEncryption
                RSA Public-Key: (2048 bit)
                Modulus:
                    00:bc:eb:ab:f3:79:9c:62:3e:8b:3a:06:15:ff:f0:
                    6d:43:53:10:97:7a:6f:a8:8e:03:78:d3:16:33:49:
                    e4:41:50:88:86:f9:c7:75:a0:7d:81:70:d9:28:45:
                    cb:5b:1a:24:7b:6b:ae:f7:0f:25:44:15:68:0f:f1:
                    ed:9c:ec:e0:7a:69:15:49:eb:0c:04:c1:a8:80:ee:
                    bf:1f:9a:4a:35:96:de:d0:07:94:0e:37:a0:09:f7:
                    9a:a3:8e:35:5f:7f:f9:74:5c:bf:54:a2:02:36:e7:
                    7f:68:ad:de:73:a6:ee:d5:bd:7e:7b:75:aa:d7:b9:
                    ff:97:dc:0c:7c:af:25:61:74:55:b8:64:65:5a:8f:
                    a2:37:59:c0:a4:07:bf:6e:34:3d:2e:5b:14:c7:52:
                    a9:71:80:0b:07:ed:89:6d:12:25:80:d9:28:40:10:
                    a9:35:5f:bc:6c:03:fb:d9:09:e6:b4:ea:66:46:37:
                    4b:7f:73:a9:67:d5:2c:8a:fb:c8:83:60:41:40:b7:
                    87:44:50:1a:27:09:55:e5:86:50:b8:10:5c:0d:03:
                    e5:c0:17:cf:53:a2:58:d9:f6:5a:1a:28:f8:4b:d1:
                    e9:e1:f1:8e:45:bc:e0:2d:69:3a:a9:bc:da:05:e9:
                    cf:59:d4:73:12:a3:a6:ee:f7:a0:83:08:e5:aa:1a:
                    27:41
                Exponent: 65537 (0x10001)
        X509v3 extensions:
            X509v3 Basic Constraints: 
                CA:FALSE
            X509v3 Subject Key Identifier: 
                6D:A9:FD:75:69:3D:FB:C3:1B:48:F0:C6:46:0E:66:0E:B6:5B:74:33
            X509v3 Authority Key Identifier: 
                keyid:49:69:C9:1B:48:36:BB:E5:2F:DA:75:0D:95:F2:09:9C:38:F0:C1:7D
                DirName:/CN=team176-net
                serial:25:F5:06:5B:55:85:1C:7D:50:CE:8B:95:27:01:DA:4C:B3:6B:C2:9D

            X509v3 Extended Key Usage: 
                TLS Web Server Authentication
            X509v3 Key Usage: 
                Digital Signature, Key Encipherment
            X509v3 Subject Alternative Name: 
                DNS:team176-server
    Signature Algorithm: sha256WithRSAEncryption
         35:67:70:a3:85:37:98:3b:b4:94:96:9f:21:a2:ed:6f:2b:cf:
         2b:94:b6:d7:65:c6:2a:51:cf:9f:0a:cf:30:d6:09:6f:61:f0:
         0a:62:28:85:42:f3:5d:5b:40:18:95:50:a4:a8:e7:ef:d0:0c:
         3f:3a:ee:ad:2d:f7:7a:2e:1a:c1:fc:55:85:9c:f3:1f:27:1b:
         46:f4:f4:ab:f5:8d:10:61:52:87:00:d6:d9:c3:aa:f9:c4:ad:
         99:fe:16:a7:c9:19:82:c4:c6:2c:a9:30:0f:03:0b:9c:df:a3:
         7d:58:f3:2b:c1:7d:38:6a:1f:f5:5e:3e:bb:3a:f4:7d:a1:9f:
         9c:2f:9b:72:1a:83:73:f5:ef:40:78:87:8a:41:2a:67:24:83:
         46:15:78:a1:93:5b:1e:f2:e0:fe:4c:16:33:ce:f0:2b:c3:d2:
         d6:1f:c9:95:bf:c3:29:b6:b9:a0:12:87:49:2d:29:71:bb:ae:
         b5:2a:b4:67:da:02:a3:df:fa:25:c9:55:92:50:80:ba:a3:d8:
         2e:0f:f5:e1:a4:d5:d9:69:1d:88:21:c1:c2:fe:1f:93:cd:dc:
         46:85:e0:5b:25:8b:8c:aa:5a:67:16:be:6b:12:89:f6:bd:bb:
         0b:e5:1a:e8:ef:ac:fb:e5:b5:c4:61:b7:b8:8e:cc:1f:39:3f:
         17:b3:c3:ee
-----BEGIN CERTIFICATE-----
MIIDeDCCAmCgAwIBAgIRAIdS5Y7pns7FYKwM3/OXbDgwDQYJKoZIhvcNAQELBQAw
FjEUMBIGA1UEAwwLdGVhbTE3Ni1uZXQwHhcNMjIwNTE4MTg1MDMwWhcNMjUwNTAy
MTg1MDMwWjAZMRcwFQYDVQQDDA50ZWFtMTc2LXNlcnZlcjCCASIwDQYJKoZIhvcN
AQEBBQADggEPADCCAQoCggEBALzrq/N5nGI+izoGFf/wbUNTEJd6b6iOA3jTFjNJ
5EFQiIb5x3WgfYFw2ShFy1saJHtrrvcPJUQVaA/x7Zzs4HppFUnrDATBqIDuvx+a
SjWW3tAHlA43oAn3mqOONV9/+XRcv1SiAjbnf2it3nOm7tW9fnt1qte5/5fcDHyv
JWF0VbhkZVqPojdZwKQHv240PS5bFMdSqXGACwftiW0SJYDZKEAQqTVfvGwD+9kJ
5rTqZkY3S39zqWfVLIr7yINgQUC3h0RQGicJVeWGULgQXA0D5cAXz1OiWNn2Whoo
+EvR6eHxjkW84C1pOqm82gXpz1nUcxKjpu73oIMI5aoaJ0ECAwEAAaOBvTCBujAJ
BgNVHRMEAjAAMB0GA1UdDgQWBBRtqf11aT37wxtI8MZGDmYOtlt0MzBRBgNVHSME
SjBIgBRJackbSDa75S/adQ2V8gmcOPDBfaEapBgwFjEUMBIGA1UEAwwLdGVhbTE3
Ni1uZXSCFCX1BltVhRx9UM6LlScB2kyza8KdMBMGA1UdJQQMMAoGCCsGAQUFBwMB
MAsGA1UdDwQEAwIFoDAZBgNVHREEEjAQgg50ZWFtMTc2LXNlcnZlcjANBgkqhkiG
9w0BAQsFAAOCAQEANWdwo4U3mDu0lJafIaLtbyvPK5S212XGKlHPnwrPMNYJb2Hw
CmIohULzXVtAGJVQpKjn79AMPzrurS33ei4awfxVhZzzHycbRvT0q/WNEGFShwDW
2cOq+cStmf4Wp8kZgsTGLKkwDwMLnN+jfVjzK8F9OGof9V4+uzr0faGfnC+bchqD
c/XvQHiHikEqZySDRhV4oZNbHvLg/kwWM87wK8PS1h/Jlb/DKba5oBKHSS0pcbuu
tSq0Z9oCo9/6JclVklCAuqPYLg/14aTV2WkdiCHBwv4fk83cRoXgWyWLjKpaZxa+
axKJ9r27C+Ua6O+s++W1xGG3uI7MHzk/F7PD7g==
-----END CERTIFICATE-----
