Certificate:
    Data:
        Version: 3 (0x2)
        Serial Number:
            57:60:7a:d4:0a:86:71:48:35:76:e2:02:8a:0a:09:e8
        Signature Algorithm: sha256WithRSAEncryption
        Issuer: CN=team323-net
        Validity
            Not Before: May 18 20:10:56 2022 GMT
            Not After : May  2 20:10:56 2025 GMT
        Subject: CN=team323-client
        Subject Public Key Info:
            Public Key Algorithm: rsaEncryption
                RSA Public-Key: (2048 bit)
                Modulus:
                    00:ac:8a:fd:62:79:27:de:40:6b:24:22:6b:5a:7f:
                    ba:f8:68:16:73:bf:1c:77:d8:ee:f2:99:59:25:e1:
                    c5:ac:6f:83:3c:67:54:c2:3e:c8:4c:a5:84:26:22:
                    db:84:36:2d:f4:a6:21:34:a6:1f:4a:72:be:77:aa:
                    9c:44:82:95:47:cd:1a:79:6f:55:d9:1b:5c:49:e2:
                    14:a2:5a:45:c8:62:3a:f9:d5:af:50:3d:54:96:ab:
                    b3:ed:84:c9:87:9c:a4:33:c4:e1:83:b7:27:c3:96:
                    b0:fc:9a:60:14:c6:90:3a:20:5c:e5:79:4b:d3:fe:
                    a3:ea:ab:4f:23:de:66:32:85:06:1b:eb:2f:7c:de:
                    0d:04:99:1e:a7:4c:98:c7:6e:9d:98:3b:77:58:6a:
                    1c:2c:f5:1b:f6:98:43:8b:cf:7e:2a:bb:f7:55:9d:
                    fc:a7:49:b2:da:c4:22:47:e5:68:59:6b:78:88:58:
                    19:56:74:05:91:01:0a:3b:2a:b6:b6:50:65:2e:66:
                    6e:9d:78:be:92:72:4f:dd:fb:bd:dd:74:a7:81:60:
                    dc:7d:79:bc:6c:ce:6f:13:b6:fe:eb:e3:cd:9b:32:
                    44:6f:98:22:6f:0c:04:db:e6:f3:0a:6d:57:10:43:
                    44:e5:98:b1:87:cd:87:99:5f:69:f9:6a:f5:b9:d3:
                    0c:47
                Exponent: 65537 (0x10001)
        X509v3 extensions:
            X509v3 Basic Constraints: 
                CA:FALSE
            X509v3 Subject Key Identifier: 
                0B:5D:A8:2E:92:B1:AA:22:98:AA:CF:EE:F6:73:8B:D1:92:7C:3B:CE
            X509v3 Authority Key Identifier: 
                keyid:6D:55:2D:86:62:FB:B8:4C:13:BF:40:99:02:A9:41:3C:D0:D9:73:D1
                DirName:/CN=team323-net
                serial:77:28:1C:B1:2D:0F:0D:44:51:43:78:6B:83:72:48:2D:0A:1D:72:32

            X509v3 Extended Key Usage: 
                TLS Web Client Authentication
            X509v3 Key Usage: 
                Digital Signature
    Signature Algorithm: sha256WithRSAEncryption
         11:76:cb:9b:8f:18:e5:0a:e6:26:b2:0d:48:72:d9:70:49:20:
         c0:72:78:2c:95:ed:2e:09:4f:24:86:70:ed:76:56:f7:b9:21:
         ee:6b:d5:14:0f:8b:8a:33:76:27:44:ca:f1:79:67:fc:40:ad:
         46:ae:12:3e:ef:15:79:b0:de:47:bb:ea:d3:87:95:30:6a:4c:
         7b:48:4e:c9:e8:bb:1c:a9:1c:9c:a5:f5:fe:eb:a0:4e:9b:0a:
         fa:c2:2c:7c:23:4b:5e:02:e2:af:60:1e:2e:1d:5f:84:65:c0:
         20:86:41:95:11:a2:3c:0c:12:c4:37:c5:8d:b6:2e:99:7f:1a:
         ad:30:01:d5:ba:f6:8f:3e:d3:e8:1c:e5:74:3e:fb:09:a4:c2:
         06:32:06:29:44:90:cd:dc:70:ae:ff:4a:2c:df:56:36:ad:67:
         51:f5:2d:38:c9:8c:16:e9:9b:ba:4c:95:a1:a4:b8:7a:58:76:
         13:94:1c:a4:bf:8e:fb:6b:6e:82:dd:77:ce:62:18:7e:08:f8:
         76:21:55:af:f0:5e:8c:57:00:ac:21:f4:7a:fc:af:a9:83:3f:
         b6:4b:79:a0:eb:89:f0:8b:bf:52:66:dd:f6:5e:8f:f1:23:18:
         4d:38:90:1c:2f:9a:86:d9:95:f1:ef:1d:8b:93:c0:d3:0e:e9:
         23:75:fd:26
-----BEGIN CERTIFICATE-----
MIIDXDCCAkSgAwIBAgIQV2B61AqGcUg1duICigoJ6DANBgkqhkiG9w0BAQsFADAW
MRQwEgYDVQQDDAt0ZWFtMzIzLW5ldDAeFw0yMjA1MTgyMDEwNTZaFw0yNTA1MDIy
MDEwNTZaMBkxFzAVBgNVBAMMDnRlYW0zMjMtY2xpZW50MIIBIjANBgkqhkiG9w0B
AQEFAAOCAQ8AMIIBCgKCAQEArIr9Ynkn3kBrJCJrWn+6+GgWc78cd9ju8plZJeHF
rG+DPGdUwj7ITKWEJiLbhDYt9KYhNKYfSnK+d6qcRIKVR80aeW9V2RtcSeIUolpF
yGI6+dWvUD1Ulquz7YTJh5ykM8Thg7cnw5aw/JpgFMaQOiBc5XlL0/6j6qtPI95m
MoUGG+svfN4NBJkep0yYx26dmDt3WGocLPUb9phDi89+Krv3VZ38p0my2sQiR+Vo
WWt4iFgZVnQFkQEKOyq2tlBlLmZunXi+knJP3fu93XSngWDcfXm8bM5vE7b+6+PN
mzJEb5gibwwE2+bzCm1XEENE5Zixh82HmV9p+Wr1udMMRwIDAQABo4GiMIGfMAkG
A1UdEwQCMAAwHQYDVR0OBBYEFAtdqC6SsaoimKrP7vZzi9GSfDvOMFEGA1UdIwRK
MEiAFG1VLYZi+7hME79AmQKpQTzQ2XPRoRqkGDAWMRQwEgYDVQQDDAt0ZWFtMzIz
LW5ldIIUdygcsS0PDURRQ3hrg3JILQodcjIwEwYDVR0lBAwwCgYIKwYBBQUHAwIw
CwYDVR0PBAQDAgeAMA0GCSqGSIb3DQEBCwUAA4IBAQARdsubjxjlCuYmsg1Ictlw
SSDAcngsle0uCU8khnDtdlb3uSHua9UUD4uKM3YnRMrxeWf8QK1GrhI+7xV5sN5H
u+rTh5Uwakx7SE7J6LscqRycpfX+66BOmwr6wix8I0teAuKvYB4uHV+EZcAghkGV
EaI8DBLEN8WNti6ZfxqtMAHVuvaPPtPoHOV0PvsJpMIGMgYpRJDN3HCu/0os31Y2
rWdR9S04yYwW6Zu6TJWhpLh6WHYTlBykv477a26C3XfOYhh+CPh2IVWv8F6MVwCs
IfR6/K+pgz+2S3mg64nwi79SZt32Xo/xIxhNOJAcL5qG2ZXx7x2Lk8DTDukjdf0m
-----END CERTIFICATE-----
