Certificate:
    Data:
        Version: 3 (0x2)
        Serial Number:
            96:0a:30:03:be:f6:2b:5b:bc:bf:10:f2:de:70:ef:52
        Signature Algorithm: sha256WithRSAEncryption
        Issuer: CN=team144-net
        Validity
            Not Before: May 18 18:35:56 2022 GMT
            Not After : May  2 18:35:56 2025 GMT
        Subject: CN=team144-server
        Subject Public Key Info:
            Public Key Algorithm: rsaEncryption
                RSA Public-Key: (2048 bit)
                Modulus:
                    00:aa:dc:43:e6:15:db:a9:4d:74:bc:8f:b6:f8:ca:
                    ec:98:bb:3c:3a:12:eb:06:38:88:1d:15:21:ce:8a:
                    0c:19:39:75:80:06:43:e7:b2:c6:1c:3a:bf:6c:11:
                    47:67:d2:44:c6:95:8c:85:9b:74:a2:aa:37:6d:98:
                    a2:90:ad:65:44:47:78:bc:5e:53:fb:5d:1c:fc:ac:
                    95:b8:3a:a0:44:88:86:76:23:b3:7f:89:05:76:a3:
                    b3:28:34:47:4e:2c:d9:1b:22:b6:97:8c:db:1a:9d:
                    a0:f3:b2:99:42:59:5e:dc:bc:47:32:bf:f5:ba:ca:
                    93:4b:f7:a7:81:82:f9:b3:a6:88:d7:50:29:7e:7a:
                    da:81:e5:86:19:06:ff:81:cb:0c:af:6b:f2:e3:67:
                    b0:bc:88:ef:f5:7b:24:c0:95:17:df:a1:92:c8:b0:
                    d4:4e:8d:39:d8:3c:6f:96:0b:e0:4b:7b:cc:a6:b5:
                    19:97:1f:4f:94:ba:c1:b0:2e:53:00:49:b3:59:ae:
                    3d:19:10:f4:ad:d0:14:8d:f5:9b:1d:e7:93:c2:35:
                    4f:1f:56:48:bd:5f:b2:06:fa:8f:6f:37:c9:a7:90:
                    ba:ad:fb:ad:19:ec:41:c6:60:20:79:ff:50:f9:c0:
                    61:47:a4:4e:78:8a:16:23:84:f3:01:a1:4c:f2:62:
                    2b:85
                Exponent: 65537 (0x10001)
        X509v3 extensions:
            X509v3 Basic Constraints: 
                CA:FALSE
            X509v3 Subject Key Identifier: 
                9D:E6:25:DA:FE:F2:7F:6C:A5:83:B7:51:1F:EF:F9:83:46:E9:34:61
            X509v3 Authority Key Identifier: 
                keyid:A0:96:C2:87:80:35:69:4C:30:6E:F0:10:1D:CE:3B:55:C7:4D:0C:53
                DirName:/CN=team144-net
                serial:65:E6:A1:BE:3E:61:1C:7D:95:50:D4:16:E8:D1:51:B0:8B:F2:64:41

            X509v3 Extended Key Usage: 
                TLS Web Server Authentication
            X509v3 Key Usage: 
                Digital Signature, Key Encipherment
            X509v3 Subject Alternative Name: 
                DNS:team144-server
    Signature Algorithm: sha256WithRSAEncryption
         3a:bf:d0:cf:60:6d:ef:ac:4e:0e:b1:83:5e:0d:71:b0:7f:30:
         aa:95:ed:b8:3d:39:20:9b:b0:7b:9e:b2:79:56:98:9a:98:f1:
         df:e8:d4:cd:22:15:26:86:3a:b5:8f:e6:9a:4b:a2:32:99:73:
         91:82:63:81:7d:ec:6f:fb:4f:c9:23:87:65:ba:0b:ba:6a:11:
         8f:63:b1:e5:26:14:bb:c8:f8:aa:de:b7:c5:a8:ab:76:0f:1f:
         96:7b:9f:15:1b:2f:11:11:bb:26:2e:4d:bc:15:69:c2:ac:16:
         d6:fe:b7:b4:c3:91:35:49:94:66:4e:28:5e:4f:25:6a:06:09:
         c1:77:92:f9:51:76:60:14:58:6e:bf:d6:10:f7:0c:87:bd:3b:
         39:5e:a1:14:ad:89:a0:6e:95:50:fb:44:53:41:1a:c4:25:bc:
         56:39:21:d8:8b:c2:5c:e6:cd:5d:17:8f:f3:86:8e:a5:f3:4e:
         e0:da:de:21:40:f5:85:7a:09:f1:1b:f1:cb:5b:a0:ff:75:97:
         b4:bf:5b:83:25:7b:f5:c5:dc:fa:9d:5b:83:0d:4e:10:38:3b:
         83:d2:0b:4e:2a:44:77:c3:4f:c1:f0:ee:e7:1c:26:67:e0:b1:
         99:94:19:72:bd:bf:9f:18:62:cd:fe:e6:52:9f:9f:8b:15:f1:
         e3:73:4d:00
-----BEGIN CERTIFICATE-----
MIIDeDCCAmCgAwIBAgIRAJYKMAO+9itbvL8Q8t5w71IwDQYJKoZIhvcNAQELBQAw
FjEUMBIGA1UEAwwLdGVhbTE0NC1uZXQwHhcNMjIwNTE4MTgzNTU2WhcNMjUwNTAy
MTgzNTU2WjAZMRcwFQYDVQQDDA50ZWFtMTQ0LXNlcnZlcjCCASIwDQYJKoZIhvcN
AQEBBQADggEPADCCAQoCggEBAKrcQ+YV26lNdLyPtvjK7Ji7PDoS6wY4iB0VIc6K
DBk5dYAGQ+eyxhw6v2wRR2fSRMaVjIWbdKKqN22YopCtZURHeLxeU/tdHPyslbg6
oESIhnYjs3+JBXajsyg0R04s2RsitpeM2xqdoPOymUJZXty8RzK/9brKk0v3p4GC
+bOmiNdQKX562oHlhhkG/4HLDK9r8uNnsLyI7/V7JMCVF9+hksiw1E6NOdg8b5YL
4Et7zKa1GZcfT5S6wbAuUwBJs1muPRkQ9K3QFI31mx3nk8I1Tx9WSL1fsgb6j283
yaeQuq37rRnsQcZgIHn/UPnAYUekTniKFiOE8wGhTPJiK4UCAwEAAaOBvTCBujAJ
BgNVHRMEAjAAMB0GA1UdDgQWBBSd5iXa/vJ/bKWDt1Ef7/mDRuk0YTBRBgNVHSME
SjBIgBSglsKHgDVpTDBu8BAdzjtVx00MU6EapBgwFjEUMBIGA1UEAwwLdGVhbTE0
NC1uZXSCFGXmob4+YRx9lVDUFujRUbCL8mRBMBMGA1UdJQQMMAoGCCsGAQUFBwMB
MAsGA1UdDwQEAwIFoDAZBgNVHREEEjAQgg50ZWFtMTQ0LXNlcnZlcjANBgkqhkiG
9w0BAQsFAAOCAQEAOr/Qz2Bt76xODrGDXg1xsH8wqpXtuD05IJuwe56yeVaYmpjx
3+jUzSIVJoY6tY/mmkuiMplzkYJjgX3sb/tPySOHZboLumoRj2Ox5SYUu8j4qt63
xairdg8flnufFRsvERG7Ji5NvBVpwqwW1v63tMORNUmUZk4oXk8lagYJwXeS+VF2
YBRYbr/WEPcMh707OV6hFK2JoG6VUPtEU0EaxCW8Vjkh2IvCXObNXReP84aOpfNO
4NreIUD1hXoJ8Rvxy1ug/3WXtL9bgyV79cXc+p1bgw1OEDg7g9ILTipEd8NPwfDu
5xwmZ+CxmZQZcr2/nxhizf7mUp+fixXx43NNAA==
-----END CERTIFICATE-----
