Certificate:
    Data:
        Version: 3 (0x2)
        Serial Number:
            e3:a2:15:14:07:0b:15:7c:7b:da:ac:f6:06:cc:94:21
        Signature Algorithm: sha256WithRSAEncryption
        Issuer: CN=team144-net
        Validity
            Not Before: May 18 18:35:56 2022 GMT
            Not After : May  2 18:35:56 2025 GMT
        Subject: CN=team144-client
        Subject Public Key Info:
            Public Key Algorithm: rsaEncryption
                RSA Public-Key: (2048 bit)
                Modulus:
                    00:dc:62:2d:86:87:fe:7e:bd:84:43:79:6e:79:3e:
                    89:41:86:5c:62:66:30:ca:f9:09:02:20:77:5e:50:
                    60:ed:46:9f:b5:00:f1:79:2a:b8:ab:ee:ed:bc:fa:
                    25:14:39:3a:75:54:8d:2b:44:c0:2d:0e:a3:24:2d:
                    ef:a7:17:92:42:22:44:32:a1:9e:77:e0:be:7a:56:
                    ba:2f:56:25:f7:93:bb:cd:d8:ee:eb:f2:9f:51:1f:
                    1c:3b:e8:e9:69:a1:c0:58:a3:88:20:82:d6:0c:62:
                    15:1b:bd:7e:e9:90:ed:28:62:2c:3d:18:41:c1:51:
                    19:15:52:d3:f6:8b:4d:c0:33:4f:71:bf:ae:8c:5a:
                    bf:38:32:c6:ac:56:36:0f:cc:30:37:0c:4f:44:93:
                    1b:0b:64:b0:7f:74:df:f4:37:9a:e3:47:d6:56:82:
                    fb:58:69:db:b6:ed:96:49:18:fe:d6:24:23:f9:ab:
                    47:72:18:68:ed:60:82:1a:26:cb:99:32:39:61:b5:
                    2e:a9:b0:c3:59:80:f2:7c:a6:5a:aa:a3:06:f0:b1:
                    fc:a7:16:e2:1a:a2:7e:f0:92:3e:49:7f:43:e8:77:
                    90:7f:39:1e:73:ca:6f:3d:1f:67:1e:3b:5a:c6:25:
                    03:1d:65:b6:70:fb:99:7c:72:c8:43:12:c5:b0:a5:
                    3e:e7
                Exponent: 65537 (0x10001)
        X509v3 extensions:
            X509v3 Basic Constraints: 
                CA:FALSE
            X509v3 Subject Key Identifier: 
                D9:B9:87:BE:88:AE:34:D3:52:A9:D4:50:60:39:AE:1C:3C:98:FE:18
            X509v3 Authority Key Identifier: 
                keyid:A0:96:C2:87:80:35:69:4C:30:6E:F0:10:1D:CE:3B:55:C7:4D:0C:53
                DirName:/CN=team144-net
                serial:65:E6:A1:BE:3E:61:1C:7D:95:50:D4:16:E8:D1:51:B0:8B:F2:64:41

            X509v3 Extended Key Usage: 
                TLS Web Client Authentication
            X509v3 Key Usage: 
                Digital Signature
    Signature Algorithm: sha256WithRSAEncryption
         28:bf:ef:b4:99:81:84:28:a2:bf:fd:5b:85:0f:76:ca:73:17:
         c8:45:03:43:92:5d:c4:3e:57:73:b9:86:92:0a:ee:9e:81:d5:
         c0:11:d9:a3:b4:e7:30:d5:f8:c0:11:7e:5c:85:5b:f6:1e:a7:
         46:f1:6f:56:3c:03:cd:16:ca:c7:07:f7:42:62:1f:59:96:98:
         82:9c:22:f1:14:32:06:13:ab:96:ed:52:2c:a1:9e:ba:f6:23:
         d8:7b:be:db:aa:6e:ac:7b:78:7e:74:5b:27:c1:ff:02:a2:f8:
         96:59:aa:c0:5c:e9:90:1e:8d:18:d3:03:43:49:49:bb:23:fc:
         fc:2b:1d:76:c4:33:b3:ef:cb:20:d1:c8:e2:51:47:13:53:42:
         52:f2:d5:0c:cf:11:9a:99:3f:09:45:6a:65:e2:da:e0:72:97:
         8b:61:bf:6b:4a:55:71:4f:68:70:43:eb:d1:10:3b:3b:01:1b:
         5e:c2:55:d2:17:2a:f5:52:98:3d:d6:4e:b6:b9:8b:6e:04:ac:
         d6:5d:83:55:89:6d:44:e7:5f:1a:89:40:cd:24:f4:59:fd:92:
         43:8d:b9:2b:08:29:48:60:af:f8:48:a6:93:9a:1c:82:af:c5:
         15:e6:c1:dd:7d:54:b6:f3:e2:d0:da:34:9b:ee:ee:fb:e0:8a:
         da:77:44:01
-----BEGIN CERTIFICATE-----
MIIDXTCCAkWgAwIBAgIRAOOiFRQHCxV8e9qs9gbMlCEwDQYJKoZIhvcNAQELBQAw
FjEUMBIGA1UEAwwLdGVhbTE0NC1uZXQwHhcNMjIwNTE4MTgzNTU2WhcNMjUwNTAy
MTgzNTU2WjAZMRcwFQYDVQQDDA50ZWFtMTQ0LWNsaWVudDCCASIwDQYJKoZIhvcN
AQEBBQADggEPADCCAQoCggEBANxiLYaH/n69hEN5bnk+iUGGXGJmMMr5CQIgd15Q
YO1Gn7UA8XkquKvu7bz6JRQ5OnVUjStEwC0OoyQt76cXkkIiRDKhnnfgvnpWui9W
JfeTu83Y7uvyn1EfHDvo6WmhwFijiCCC1gxiFRu9fumQ7ShiLD0YQcFRGRVS0/aL
TcAzT3G/roxavzgyxqxWNg/MMDcMT0STGwtksH903/Q3muNH1laC+1hp27btlkkY
/tYkI/mrR3IYaO1gghomy5kyOWG1Lqmww1mA8nymWqqjBvCx/KcW4hqifvCSPkl/
Q+h3kH85HnPKbz0fZx47WsYlAx1ltnD7mXxyyEMSxbClPucCAwEAAaOBojCBnzAJ
BgNVHRMEAjAAMB0GA1UdDgQWBBTZuYe+iK4001Kp1FBgOa4cPJj+GDBRBgNVHSME
SjBIgBSglsKHgDVpTDBu8BAdzjtVx00MU6EapBgwFjEUMBIGA1UEAwwLdGVhbTE0
NC1uZXSCFGXmob4+YRx9lVDUFujRUbCL8mRBMBMGA1UdJQQMMAoGCCsGAQUFBwMC
MAsGA1UdDwQEAwIHgDANBgkqhkiG9w0BAQsFAAOCAQEAKL/vtJmBhCiiv/1bhQ92
ynMXyEUDQ5JdxD5Xc7mGkgrunoHVwBHZo7TnMNX4wBF+XIVb9h6nRvFvVjwDzRbK
xwf3QmIfWZaYgpwi8RQyBhOrlu1SLKGeuvYj2Hu+26purHt4fnRbJ8H/AqL4llmq
wFzpkB6NGNMDQ0lJuyP8/CsddsQzs+/LINHI4lFHE1NCUvLVDM8Rmpk/CUVqZeLa
4HKXi2G/a0pVcU9ocEPr0RA7OwEbXsJV0hcq9VKYPdZOtrmLbgSs1l2DVYltROdf
GolAzST0Wf2SQ425KwgpSGCv+Eimk5ocgq/FFebB3X1UtvPi0No0m+7u++CK2ndE
AQ==
-----END CERTIFICATE-----
