Certificate:
    Data:
        Version: 3 (0x2)
        Serial Number:
            f9:9d:b1:f2:af:8f:6c:61:cd:14:8b:71:18:bd:2a:79
        Signature Algorithm: sha256WithRSAEncryption
        Issuer: CN=team529-net
        Validity
            Not Before: May 18 22:08:44 2022 GMT
            Not After : May  2 22:08:44 2025 GMT
        Subject: CN=team529-server
        Subject Public Key Info:
            Public Key Algorithm: rsaEncryption
                RSA Public-Key: (2048 bit)
                Modulus:
                    00:e7:69:a5:af:3e:40:fa:76:0a:a7:e5:74:ee:38:
                    cf:84:f4:a4:77:a2:87:11:a6:73:03:f2:18:7d:81:
                    43:a9:59:5d:7d:9c:e0:4c:30:73:67:fb:4a:73:0b:
                    70:69:45:82:bc:bc:04:9f:a1:05:6c:ad:36:f9:de:
                    06:1e:65:20:8d:a0:9a:c7:36:54:9f:18:10:8d:e2:
                    ea:f9:58:86:b0:8e:84:98:77:b9:4d:7d:22:dc:b4:
                    8d:a8:8b:b4:68:b9:c1:25:c7:b4:4d:f8:75:d5:98:
                    fa:96:ab:9c:6f:78:65:b0:ad:a3:6e:57:04:36:04:
                    95:a9:c4:ec:2c:d5:7a:cf:e9:5f:44:2b:8b:37:25:
                    4b:e7:55:aa:18:f3:0f:b8:b1:33:9e:88:8f:d6:f9:
                    d3:d8:e2:96:4d:e1:bd:7a:99:31:48:02:7b:f3:55:
                    fc:52:9a:a5:2b:32:02:eb:df:6b:68:af:13:05:69:
                    1b:fe:d2:0b:74:b7:39:59:a5:3b:3b:d8:11:47:27:
                    18:ce:98:75:5a:a4:e1:c6:57:2e:d0:00:0e:16:a2:
                    42:c6:31:62:fc:1e:1f:80:5c:00:f9:e0:d6:f8:fa:
                    49:9b:ef:a1:15:83:e6:3b:22:95:dd:47:0a:ef:6b:
                    b2:9a:51:e6:69:4d:3d:eb:a1:ff:96:f6:74:e7:85:
                    6e:5b
                Exponent: 65537 (0x10001)
        X509v3 extensions:
            X509v3 Basic Constraints: 
                CA:FALSE
            X509v3 Subject Key Identifier: 
                5E:D8:F9:C3:C4:09:5B:91:20:EA:70:E9:1B:52:85:A0:2F:F4:FD:1A
            X509v3 Authority Key Identifier: 
                keyid:CB:03:74:B6:43:FE:3A:98:84:99:49:D4:5F:81:57:FA:38:5A:3E:85
                DirName:/CN=team529-net
                serial:1A:0F:8B:04:15:18:E4:D3:A7:91:19:6E:0B:F3:C3:8C:EC:B4:20:9B

            X509v3 Extended Key Usage: 
                TLS Web Server Authentication
            X509v3 Key Usage: 
                Digital Signature, Key Encipherment
            X509v3 Subject Alternative Name: 
                DNS:team529-server
    Signature Algorithm: sha256WithRSAEncryption
         20:c4:77:62:49:1f:d2:ff:28:68:11:a3:c6:0c:21:3a:ad:95:
         71:ae:7f:26:f7:b2:03:83:e7:1a:45:4e:2d:35:16:97:77:f0:
         0e:d0:3c:78:a1:e4:67:a1:5d:58:65:09:56:b8:be:9b:86:a6:
         32:e7:f1:70:69:32:15:27:d8:e1:e4:3d:56:7d:78:88:ca:cd:
         c1:da:be:e0:9f:50:7e:14:52:08:76:37:3b:92:5f:6a:44:5f:
         f4:ce:4c:93:05:b4:01:5d:ae:91:3c:ae:73:97:c5:f5:56:66:
         ca:d4:a3:1e:b7:b2:fc:fb:bb:f8:fc:5e:dd:99:1a:1c:ef:85:
         82:1b:3c:13:4b:2a:20:76:67:1f:de:9c:f1:b8:e3:67:26:c2:
         e6:02:fb:09:02:e2:6a:bf:20:27:7a:cf:aa:a8:eb:db:19:5f:
         db:f0:9e:55:c3:8e:13:ed:30:f8:14:f0:9c:6b:6b:f7:41:83:
         5a:fe:9c:8c:c1:cd:50:ab:aa:40:a1:85:23:01:8d:c3:b4:67:
         83:18:41:c1:7f:2e:65:2a:80:23:33:70:e3:17:78:6a:c5:c6:
         39:c5:cc:c6:c5:85:21:6a:34:0c:a3:df:57:02:9d:55:76:56:
         7c:6a:0c:c0:83:d2:63:78:7c:f7:73:29:90:10:ea:bc:72:d9:
         6b:d0:cb:8b
-----BEGIN CERTIFICATE-----
MIIDeDCCAmCgAwIBAgIRAPmdsfKvj2xhzRSLcRi9KnkwDQYJKoZIhvcNAQELBQAw
FjEUMBIGA1UEAwwLdGVhbTUyOS1uZXQwHhcNMjIwNTE4MjIwODQ0WhcNMjUwNTAy
MjIwODQ0WjAZMRcwFQYDVQQDDA50ZWFtNTI5LXNlcnZlcjCCASIwDQYJKoZIhvcN
AQEBBQADggEPADCCAQoCggEBAOdppa8+QPp2CqfldO44z4T0pHeihxGmcwPyGH2B
Q6lZXX2c4Ewwc2f7SnMLcGlFgry8BJ+hBWytNvneBh5lII2gmsc2VJ8YEI3i6vlY
hrCOhJh3uU19Ity0jaiLtGi5wSXHtE34ddWY+parnG94ZbCto25XBDYElanE7CzV
es/pX0QrizclS+dVqhjzD7ixM56Ij9b509jilk3hvXqZMUgCe/NV/FKapSsyAuvf
a2ivEwVpG/7SC3S3OVmlOzvYEUcnGM6YdVqk4cZXLtAADhaiQsYxYvweH4BcAPng
1vj6SZvvoRWD5jsild1HCu9rsppR5mlNPeuh/5b2dOeFblsCAwEAAaOBvTCBujAJ
BgNVHRMEAjAAMB0GA1UdDgQWBBRe2PnDxAlbkSDqcOkbUoWgL/T9GjBRBgNVHSME
SjBIgBTLA3S2Q/46mISZSdRfgVf6OFo+haEapBgwFjEUMBIGA1UEAwwLdGVhbTUy
OS1uZXSCFBoPiwQVGOTTp5EZbgvzw4zstCCbMBMGA1UdJQQMMAoGCCsGAQUFBwMB
MAsGA1UdDwQEAwIFoDAZBgNVHREEEjAQgg50ZWFtNTI5LXNlcnZlcjANBgkqhkiG
9w0BAQsFAAOCAQEAIMR3Ykkf0v8oaBGjxgwhOq2Vca5/JveyA4PnGkVOLTUWl3fw
DtA8eKHkZ6FdWGUJVri+m4amMufxcGkyFSfY4eQ9Vn14iMrNwdq+4J9QfhRSCHY3
O5JfakRf9M5MkwW0AV2ukTyuc5fF9VZmytSjHrey/Pu7+Pxe3ZkaHO+Fghs8E0sq
IHZnH96c8bjjZybC5gL7CQLiar8gJ3rPqqjr2xlf2/CeVcOOE+0w+BTwnGtr90GD
Wv6cjMHNUKuqQKGFIwGNw7RngxhBwX8uZSqAIzNw4xd4asXGOcXMxsWFIWo0DKPf
VwKdVXZWfGoMwIPSY3h893MpkBDqvHLZa9DLiw==
-----END CERTIFICATE-----
