Certificate:
    Data:
        Version: 3 (0x2)
        Serial Number:
            02:93:33:23:78:30:5d:e3:ee:51:ca:04:f5:f3:d2:d8
        Signature Algorithm: sha256WithRSAEncryption
        Issuer: CN=team429-net
        Validity
            Not Before: May 18 21:07:38 2022 GMT
            Not After : May  2 21:07:38 2025 GMT
        Subject: CN=team429-client
        Subject Public Key Info:
            Public Key Algorithm: rsaEncryption
                RSA Public-Key: (2048 bit)
                Modulus:
                    00:c1:47:66:1b:29:56:3d:1e:a5:f3:bd:5b:4a:1d:
                    f8:2a:51:0b:05:14:25:61:e6:e1:a9:92:18:dc:62:
                    a8:e7:bd:da:69:34:67:b9:ba:41:4b:a0:85:6b:07:
                    3b:4e:ba:2f:67:1e:fb:2e:ab:99:2e:e1:db:39:7b:
                    0a:34:c2:87:75:40:60:58:42:34:87:7f:15:e7:f5:
                    7b:5f:48:8c:02:46:af:b2:ca:20:97:3a:fe:62:a1:
                    ff:44:f6:7b:9f:95:f6:e2:a1:6d:8e:08:00:b8:19:
                    a5:f6:1a:d8:a8:cc:76:ad:c3:38:e8:a1:a2:e3:f6:
                    2a:7a:6b:00:73:fe:8c:a8:69:97:be:61:96:e2:5c:
                    13:38:7a:04:80:f0:8c:75:e5:5a:7c:48:4e:aa:fa:
                    1c:30:8d:d8:16:d1:8f:3a:2e:59:09:e3:8d:90:5b:
                    9c:8e:06:2e:91:cd:ed:77:1b:93:81:5a:56:d3:bb:
                    98:5e:d5:01:99:44:52:b3:e2:4f:f2:ea:a2:70:55:
                    bf:0c:95:02:c9:e4:f5:42:2c:31:e4:fd:e0:c0:0d:
                    fb:0a:3c:44:d9:8c:af:0f:4c:0c:f2:fa:0a:a2:5f:
                    4c:63:f7:d0:d1:87:b5:a0:6e:06:70:1b:12:f1:88:
                    35:15:10:50:69:68:63:e0:ec:3f:4c:6b:86:60:e6:
                    05:51
                Exponent: 65537 (0x10001)
        X509v3 extensions:
            X509v3 Basic Constraints: 
                CA:FALSE
            X509v3 Subject Key Identifier: 
                98:30:02:44:29:C2:88:6E:5C:25:3C:65:D8:D1:A5:7B:5B:56:E4:3D
            X509v3 Authority Key Identifier: 
                keyid:3A:03:8D:34:66:94:35:95:81:1E:27:44:43:7A:B9:2F:20:4F:2C:A9
                DirName:/CN=team429-net
                serial:7D:95:0D:45:F6:50:B0:32:A7:A1:C1:46:75:EC:5E:2C:96:73:19:BA

            X509v3 Extended Key Usage: 
                TLS Web Client Authentication
            X509v3 Key Usage: 
                Digital Signature
    Signature Algorithm: sha256WithRSAEncryption
         50:1c:a3:ac:20:54:62:39:79:8d:3d:d8:63:bf:a8:b6:45:90:
         29:53:8c:c5:70:57:59:f0:a6:84:89:fc:7d:5e:a7:20:87:c7:
         77:b0:ba:50:7b:ec:a6:94:a2:37:c0:11:93:0e:af:5d:7c:8b:
         07:90:d0:5b:2c:80:af:63:09:fd:fb:7c:26:14:fe:30:e9:fb:
         c4:db:8f:3c:c4:ef:cf:c3:88:79:9d:3c:af:84:53:40:ff:c0:
         3e:f2:9b:3f:5c:fa:56:b9:5a:da:52:88:93:8f:57:88:0e:50:
         aa:4a:a0:54:65:75:55:f8:87:88:3c:ba:3a:f7:f7:1a:36:70:
         85:c4:86:24:8f:7e:52:aa:93:74:b5:17:f2:b4:28:b8:2a:71:
         5a:a7:44:9a:e7:ee:3f:7a:7d:d0:63:c8:71:02:a9:a8:e0:07:
         96:75:87:4e:3f:55:ea:e2:7f:1d:da:d7:ed:78:55:9e:d6:04:
         84:19:2a:8a:99:6b:c0:a4:f6:6f:bc:e7:1b:d8:6f:ce:3f:ac:
         58:ec:dc:99:1c:5f:3c:71:7e:1a:c5:ca:d1:68:c0:c6:04:da:
         db:e5:76:26:2c:f6:1c:f1:ba:1c:63:1c:11:1f:4d:74:b7:3d:
         d9:51:4c:20:c5:66:79:e5:59:aa:f1:ed:2a:36:97:80:ae:5a:
         b7:c1:f1:58
-----BEGIN CERTIFICATE-----
MIIDXDCCAkSgAwIBAgIQApMzI3gwXePuUcoE9fPS2DANBgkqhkiG9w0BAQsFADAW
MRQwEgYDVQQDDAt0ZWFtNDI5LW5ldDAeFw0yMjA1MTgyMTA3MzhaFw0yNTA1MDIy
MTA3MzhaMBkxFzAVBgNVBAMMDnRlYW00MjktY2xpZW50MIIBIjANBgkqhkiG9w0B
AQEFAAOCAQ8AMIIBCgKCAQEAwUdmGylWPR6l871bSh34KlELBRQlYebhqZIY3GKo
573aaTRnubpBS6CFawc7TrovZx77LquZLuHbOXsKNMKHdUBgWEI0h38V5/V7X0iM
Akavssoglzr+YqH/RPZ7n5X24qFtjggAuBml9hrYqMx2rcM46KGi4/YqemsAc/6M
qGmXvmGW4lwTOHoEgPCMdeVafEhOqvocMI3YFtGPOi5ZCeONkFucjgYukc3tdxuT
gVpW07uYXtUBmURSs+JP8uqicFW/DJUCyeT1Qiwx5P3gwA37CjxE2YyvD0wM8voK
ol9MY/fQ0Ye1oG4GcBsS8Yg1FRBQaWhj4Ow/TGuGYOYFUQIDAQABo4GiMIGfMAkG
A1UdEwQCMAAwHQYDVR0OBBYEFJgwAkQpwohuXCU8ZdjRpXtbVuQ9MFEGA1UdIwRK
MEiAFDoDjTRmlDWVgR4nREN6uS8gTyypoRqkGDAWMRQwEgYDVQQDDAt0ZWFtNDI5
LW5ldIIUfZUNRfZQsDKnocFGdexeLJZzGbowEwYDVR0lBAwwCgYIKwYBBQUHAwIw
CwYDVR0PBAQDAgeAMA0GCSqGSIb3DQEBCwUAA4IBAQBQHKOsIFRiOXmNPdhjv6i2
RZApU4zFcFdZ8KaEifx9Xqcgh8d3sLpQe+ymlKI3wBGTDq9dfIsHkNBbLICvYwn9
+3wmFP4w6fvE2488xO/Pw4h5nTyvhFNA/8A+8ps/XPpWuVraUoiTj1eIDlCqSqBU
ZXVV+IeIPLo69/caNnCFxIYkj35SqpN0tRfytCi4KnFap0Sa5+4/en3QY8hxAqmo
4AeWdYdOP1Xq4n8d2tfteFWe1gSEGSqKmWvApPZvvOcb2G/OP6xY7NyZHF88cX4a
xcrRaMDGBNrb5XYmLPYc8bocYxwRH010tz3ZUUwgxWZ55Vmq8e0qNpeArlq3wfFY
-----END CERTIFICATE-----
