Certificate:
    Data:
        Version: 3 (0x2)
        Serial Number:
            c7:c1:11:ed:0b:aa:d5:9c:ab:3b:32:80:50:63:18:45
        Signature Algorithm: sha256WithRSAEncryption
        Issuer: CN=team429-net
        Validity
            Not Before: May 18 21:07:39 2022 GMT
            Not After : May  2 21:07:39 2025 GMT
        Subject: CN=team429-server
        Subject Public Key Info:
            Public Key Algorithm: rsaEncryption
                RSA Public-Key: (2048 bit)
                Modulus:
                    00:d5:53:6a:de:fc:31:8f:59:b6:9f:82:7c:4e:54:
                    b0:26:7c:54:12:0d:d5:c7:50:3e:20:7d:ad:c0:3b:
                    a8:87:5a:10:8a:3a:64:90:78:29:62:ac:fa:ce:93:
                    c1:c9:e3:36:5a:7c:e4:3d:9d:84:09:b5:75:9b:59:
                    23:db:60:f0:2c:aa:2b:ba:52:1d:0c:dd:2d:4d:e9:
                    73:3e:8b:44:db:15:2d:f5:f2:c3:df:bf:4c:d7:4a:
                    82:2a:96:12:7f:d3:2f:49:83:18:d8:d0:36:87:49:
                    1f:58:ad:c9:eb:88:b9:f5:76:57:a5:81:b0:e2:87:
                    77:07:75:cb:47:fb:b0:65:d4:14:57:96:a5:37:f6:
                    70:91:6b:66:d2:48:cb:ee:43:4b:66:6d:2d:3a:22:
                    62:f0:d2:49:22:9d:20:9f:44:6a:cb:f8:29:38:6e:
                    30:f1:2c:6c:90:11:09:03:89:10:38:de:d7:d7:2c:
                    d0:6f:af:32:14:7f:2e:84:39:6e:23:3f:fc:6b:59:
                    5a:19:ad:b3:6c:13:eb:09:26:0d:60:e4:00:a7:bc:
                    b0:b1:45:b2:43:72:f5:99:08:c3:37:ce:8c:c3:58:
                    7c:69:df:8e:8c:ba:91:55:2f:bf:1d:32:b3:42:6e:
                    1c:c3:b4:e8:19:bd:7f:3d:2a:14:8a:a2:52:89:70:
                    b7:cd
                Exponent: 65537 (0x10001)
        X509v3 extensions:
            X509v3 Basic Constraints: 
                CA:FALSE
            X509v3 Subject Key Identifier: 
                31:AE:07:CB:65:0B:A0:D7:69:65:BA:93:03:BF:F1:1E:2D:C2:CD:46
            X509v3 Authority Key Identifier: 
                keyid:3A:03:8D:34:66:94:35:95:81:1E:27:44:43:7A:B9:2F:20:4F:2C:A9
                DirName:/CN=team429-net
                serial:7D:95:0D:45:F6:50:B0:32:A7:A1:C1:46:75:EC:5E:2C:96:73:19:BA

            X509v3 Extended Key Usage: 
                TLS Web Server Authentication
            X509v3 Key Usage: 
                Digital Signature, Key Encipherment
            X509v3 Subject Alternative Name: 
                DNS:team429-server
    Signature Algorithm: sha256WithRSAEncryption
         95:33:ab:5a:44:ce:33:c3:38:f1:58:6d:5a:22:0e:06:56:f4:
         eb:90:26:e4:bb:1d:6d:66:9a:a2:1f:1c:d3:6f:46:dc:e1:03:
         e3:5c:69:62:aa:83:e7:a3:57:7c:d1:7c:0b:a3:2e:54:c8:8a:
         26:e6:d7:dc:6b:b0:f4:0d:44:a0:6f:fc:5e:5f:2b:68:0c:c8:
         3c:fa:a1:cb:b4:b1:6a:c9:1c:4a:2e:01:bb:06:28:b9:90:d1:
         c4:66:05:78:6c:2a:bb:8c:56:34:cc:91:e6:a1:5c:6c:e3:18:
         23:ce:6b:14:6a:c1:73:2b:79:38:fa:14:eb:6a:1d:8f:48:2c:
         22:09:6f:8c:d3:0c:39:d0:22:82:0e:65:77:44:2b:2e:82:43:
         86:9b:a1:90:5b:19:33:57:32:bc:9c:9f:c6:dc:78:94:fb:1e:
         00:04:17:bb:7f:10:ab:44:3b:6c:a7:ed:b1:ba:16:d5:90:0f:
         34:34:94:d6:54:8e:f4:35:5b:06:17:2e:db:ce:cd:90:67:7e:
         5a:f5:69:60:b4:ef:06:80:08:84:0b:6d:c0:4b:4d:e6:bc:2a:
         d3:4e:9c:57:e1:f7:95:d7:b6:e8:4c:72:69:e3:fb:cc:67:a9:
         c7:1e:91:af:c0:4a:35:2b:89:c9:c5:ec:1c:f4:43:7a:e6:5e:
         1b:2d:9d:29
-----BEGIN CERTIFICATE-----
MIIDeDCCAmCgAwIBAgIRAMfBEe0LqtWcqzsygFBjGEUwDQYJKoZIhvcNAQELBQAw
FjEUMBIGA1UEAwwLdGVhbTQyOS1uZXQwHhcNMjIwNTE4MjEwNzM5WhcNMjUwNTAy
MjEwNzM5WjAZMRcwFQYDVQQDDA50ZWFtNDI5LXNlcnZlcjCCASIwDQYJKoZIhvcN
AQEBBQADggEPADCCAQoCggEBANVTat78MY9Ztp+CfE5UsCZ8VBIN1cdQPiB9rcA7
qIdaEIo6ZJB4KWKs+s6TwcnjNlp85D2dhAm1dZtZI9tg8CyqK7pSHQzdLU3pcz6L
RNsVLfXyw9+/TNdKgiqWEn/TL0mDGNjQNodJH1ityeuIufV2V6WBsOKHdwd1y0f7
sGXUFFeWpTf2cJFrZtJIy+5DS2ZtLToiYvDSSSKdIJ9Easv4KThuMPEsbJARCQOJ
EDje19cs0G+vMhR/LoQ5biM//GtZWhmts2wT6wkmDWDkAKe8sLFFskNy9ZkIwzfO
jMNYfGnfjoy6kVUvvx0ys0JuHMO06Bm9fz0qFIqiUolwt80CAwEAAaOBvTCBujAJ
BgNVHRMEAjAAMB0GA1UdDgQWBBQxrgfLZQug12llupMDv/EeLcLNRjBRBgNVHSME
SjBIgBQ6A400ZpQ1lYEeJ0RDerkvIE8sqaEapBgwFjEUMBIGA1UEAwwLdGVhbTQy
OS1uZXSCFH2VDUX2ULAyp6HBRnXsXiyWcxm6MBMGA1UdJQQMMAoGCCsGAQUFBwMB
MAsGA1UdDwQEAwIFoDAZBgNVHREEEjAQgg50ZWFtNDI5LXNlcnZlcjANBgkqhkiG
9w0BAQsFAAOCAQEAlTOrWkTOM8M48VhtWiIOBlb065Am5LsdbWaaoh8c029G3OED
41xpYqqD56NXfNF8C6MuVMiKJubX3Guw9A1EoG/8Xl8raAzIPPqhy7SxaskcSi4B
uwYouZDRxGYFeGwqu4xWNMyR5qFcbOMYI85rFGrBcyt5OPoU62odj0gsIglvjNMM
OdAigg5ld0QrLoJDhpuhkFsZM1cyvJyfxtx4lPseAAQXu38Qq0Q7bKftsboW1ZAP
NDSU1lSO9DVbBhcu287NkGd+WvVpYLTvBoAIhAttwEtN5rwq006cV+H3lde26Exy
aeP7zGepxx6Rr8BKNSuJycXsHPRDeuZeGy2dKQ==
-----END CERTIFICATE-----
