Certificate:
    Data:
        Version: 3 (0x2)
        Serial Number:
            a1:f3:58:5c:b2:dd:51:00:5f:28:14:41:1b:39:48:6f
        Signature Algorithm: sha256WithRSAEncryption
        Issuer: CN=team41-net
        Validity
            Not Before: May 18 14:16:36 2022 GMT
            Not After : May  2 14:16:36 2025 GMT
        Subject: CN=team41-server
        Subject Public Key Info:
            Public Key Algorithm: rsaEncryption
                RSA Public-Key: (2048 bit)
                Modulus:
                    00:c9:72:1d:cd:d1:31:97:da:0c:f1:37:66:a2:b3:
                    4b:2d:ae:9e:af:f5:49:b5:04:31:65:65:94:aa:9c:
                    3a:32:25:aa:de:a7:2c:62:07:e2:37:82:09:c4:a2:
                    8f:a2:f4:24:f8:32:f3:e9:e7:a2:aa:15:55:35:f5:
                    6d:c6:df:5b:bc:91:29:f6:2d:56:b2:b1:10:1b:4d:
                    26:a7:70:ac:e3:35:fa:8e:12:41:c5:b5:5b:6c:a5:
                    eb:ec:78:91:30:a1:ed:1a:c3:6a:20:69:23:29:13:
                    4b:f3:7a:cc:cd:98:25:33:ba:4d:ed:7b:8d:49:07:
                    4f:35:a3:fc:ab:e0:56:5b:ab:41:28:0e:3f:32:35:
                    9a:55:f0:98:75:be:ba:f6:4b:6f:44:20:26:14:17:
                    c1:30:55:c9:7a:21:c3:f3:e4:e3:5d:d8:56:df:17:
                    89:99:64:2a:7c:1b:2a:cb:f6:e1:d2:80:af:91:88:
                    bf:61:5c:44:ea:ef:d0:35:eb:2f:b8:ee:11:3b:1f:
                    a8:52:33:86:84:e6:ff:49:f4:e2:87:8d:73:db:81:
                    fa:c9:06:ff:63:9f:91:9d:5e:3d:53:ec:20:05:b6:
                    27:1f:8a:ea:79:1e:cb:01:a3:a3:fc:3e:9f:0a:ea:
                    f4:b6:d9:f3:2f:a9:cb:51:2a:7d:d9:b8:a3:68:1c:
                    ce:ed
                Exponent: 65537 (0x10001)
        X509v3 extensions:
            X509v3 Basic Constraints: 
                CA:FALSE
            X509v3 Subject Key Identifier: 
                1A:C9:27:D4:56:FD:9F:C7:08:6C:AF:CF:8C:A4:DF:FF:D0:E0:8C:4D
            X509v3 Authority Key Identifier: 
                keyid:46:F6:4F:62:03:23:94:9A:85:2F:0A:81:76:29:DF:E7:C5:6A:5D:B9
                DirName:/CN=team41-net
                serial:21:47:93:05:E7:08:4E:EE:1F:29:EE:A3:00:75:33:59:1A:52:52:04

            X509v3 Extended Key Usage: 
                TLS Web Server Authentication
            X509v3 Key Usage: 
                Digital Signature, Key Encipherment
            X509v3 Subject Alternative Name: 
                DNS:team41-server
    Signature Algorithm: sha256WithRSAEncryption
         96:76:ec:42:84:5c:dc:69:25:49:0b:64:7d:99:a9:80:54:36:
         c3:98:bc:f8:ed:0c:8b:5f:3c:5b:18:50:a1:2e:b6:82:0c:ee:
         dd:ae:05:5f:49:af:e1:38:27:30:5d:72:45:1b:13:01:ee:95:
         da:34:70:41:f3:6e:24:32:f3:f0:ef:b6:de:1b:f0:ff:c0:52:
         f1:f0:33:9a:1d:4d:1b:3e:74:87:fc:a3:ac:56:9f:cf:03:b7:
         a8:aa:57:fe:4d:70:c5:7e:13:13:07:60:87:21:46:9f:86:ca:
         0b:fd:45:ea:3d:59:fb:fe:c5:b8:3a:e8:8f:4a:99:a7:c9:a9:
         ea:24:33:56:a1:c3:1d:52:8e:d4:5c:59:24:8c:83:d5:71:98:
         dd:34:03:7f:8e:bc:95:86:20:fb:29:07:eb:d8:6d:fe:ad:57:
         c0:86:53:07:ae:f7:bc:42:63:1c:fd:a4:2e:e2:0d:3d:3a:43:
         e5:61:d6:c5:bd:ef:c3:71:ee:eb:ea:b0:c4:b9:72:4d:3f:eb:
         ce:69:c0:de:62:6a:dc:a2:25:37:01:f9:84:24:00:01:b0:98:
         ed:90:06:4a:8a:f5:92:81:99:56:1f:f4:45:1a:38:60:04:84:
         d2:1c:8e:12:f7:56:ea:cd:37:66:1a:5a:af:14:2a:28:f3:b3:
         d2:07:09:db
-----BEGIN CERTIFICATE-----
MIIDdDCCAlygAwIBAgIRAKHzWFyy3VEAXygUQRs5SG8wDQYJKoZIhvcNAQELBQAw
FTETMBEGA1UEAwwKdGVhbTQxLW5ldDAeFw0yMjA1MTgxNDE2MzZaFw0yNTA1MDIx
NDE2MzZaMBgxFjAUBgNVBAMMDXRlYW00MS1zZXJ2ZXIwggEiMA0GCSqGSIb3DQEB
AQUAA4IBDwAwggEKAoIBAQDJch3N0TGX2gzxN2ais0strp6v9Um1BDFlZZSqnDoy
JarepyxiB+I3ggnEoo+i9CT4MvPp56KqFVU19W3G31u8kSn2LVaysRAbTSancKzj
NfqOEkHFtVtspevseJEwoe0aw2ogaSMpE0vzeszNmCUzuk3te41JB081o/yr4FZb
q0EoDj8yNZpV8Jh1vrr2S29EICYUF8EwVcl6IcPz5ONd2FbfF4mZZCp8GyrL9uHS
gK+RiL9hXETq79A16y+47hE7H6hSM4aE5v9J9OKHjXPbgfrJBv9jn5GdXj1T7CAF
ticfiup5HssBo6P8Pp8K6vS22fMvqctRKn3ZuKNoHM7tAgMBAAGjgbswgbgwCQYD
VR0TBAIwADAdBgNVHQ4EFgQUGskn1Fb9n8cIbK/PjKTf/9DgjE0wUAYDVR0jBEkw
R4AURvZPYgMjlJqFLwqBdinf58VqXbmhGaQXMBUxEzARBgNVBAMMCnRlYW00MS1u
ZXSCFCFHkwXnCE7uHynuowB1M1kaUlIEMBMGA1UdJQQMMAoGCCsGAQUFBwMBMAsG
A1UdDwQEAwIFoDAYBgNVHREEETAPgg10ZWFtNDEtc2VydmVyMA0GCSqGSIb3DQEB
CwUAA4IBAQCWduxChFzcaSVJC2R9mamAVDbDmLz47QyLXzxbGFChLraCDO7drgVf
Sa/hOCcwXXJFGxMB7pXaNHBB824kMvPw77beG/D/wFLx8DOaHU0bPnSH/KOsVp/P
A7eoqlf+TXDFfhMTB2CHIUafhsoL/UXqPVn7/sW4OuiPSpmnyanqJDNWocMdUo7U
XFkkjIPVcZjdNAN/jryVhiD7KQfr2G3+rVfAhlMHrve8QmMc/aQu4g09OkPlYdbF
ve/Dce7r6rDEuXJNP+vOacDeYmrcoiU3AfmEJAABsJjtkAZKivWSgZlWH/RFGjhg
BITSHI4S91bqzTdmGlqvFCoo87PSBwnb
-----END CERTIFICATE-----
