Certificate:
    Data:
        Version: 3 (0x2)
        Serial Number:
            32:1a:c4:91:15:e5:38:7c:09:ca:60:49:32:f9:39:ea
        Signature Algorithm: sha256WithRSAEncryption
        Issuer: CN=team510-net
        Validity
            Not Before: May 18 22:00:06 2022 GMT
            Not After : May  2 22:00:06 2025 GMT
        Subject: CN=team510-server
        Subject Public Key Info:
            Public Key Algorithm: rsaEncryption
                RSA Public-Key: (2048 bit)
                Modulus:
                    00:b2:d1:4f:89:cf:0d:d0:8f:93:8b:63:7b:63:26:
                    a0:d6:67:f7:ea:99:cc:bd:3a:e0:7e:f5:55:c3:4a:
                    2a:9d:60:4c:80:2b:c8:c3:a6:21:b6:6b:cd:92:fb:
                    af:4b:2d:9c:27:62:54:95:23:b2:43:fa:59:52:b9:
                    4a:5f:b4:52:d9:9a:f9:63:e6:cb:8c:b4:1a:0c:15:
                    33:35:60:f4:9f:f9:a4:83:24:27:47:34:17:e2:b4:
                    b2:10:ae:5d:dd:43:f9:93:39:99:f7:c8:c0:1c:b0:
                    a4:53:3a:5f:16:42:a7:7e:32:ba:53:23:a5:ee:af:
                    99:12:1b:4b:03:ab:60:c7:da:c4:5d:89:7e:a4:c7:
                    7d:d8:0e:8e:f8:c6:e3:69:bc:9d:75:ac:ca:3a:0c:
                    8e:dd:96:40:86:68:ab:81:b5:41:7c:9a:79:82:5f:
                    e2:76:38:7b:ac:ed:1c:84:de:98:62:3a:f9:15:50:
                    5f:63:b6:ba:d3:b2:b6:73:2c:b4:77:b6:6c:45:98:
                    24:a2:39:58:2d:31:ff:be:5a:ff:ff:c5:90:67:89:
                    a1:16:09:ac:48:c6:3f:3a:03:de:2b:38:ac:94:4e:
                    36:c4:fd:25:7b:c4:69:95:e8:90:98:b5:37:ed:c7:
                    2d:bd:f1:bf:72:f8:3b:ba:b2:d2:73:a8:59:54:1e:
                    48:0d
                Exponent: 65537 (0x10001)
        X509v3 extensions:
            X509v3 Basic Constraints: 
                CA:FALSE
            X509v3 Subject Key Identifier: 
                56:0F:75:FF:B4:E8:56:11:0E:61:B0:B1:F9:C9:21:92:47:7C:69:A6
            X509v3 Authority Key Identifier: 
                keyid:AD:57:06:78:DF:52:45:C8:CD:00:00:0F:85:43:4B:64:0B:8C:8B:65
                DirName:/CN=team510-net
                serial:1E:4A:95:7C:00:B9:AF:24:5D:2D:C1:57:DF:EB:22:03:84:65:38:5B

            X509v3 Extended Key Usage: 
                TLS Web Server Authentication
            X509v3 Key Usage: 
                Digital Signature, Key Encipherment
            X509v3 Subject Alternative Name: 
                DNS:team510-server
    Signature Algorithm: sha256WithRSAEncryption
         52:5f:77:e2:d7:fa:14:b9:aa:03:ce:da:47:ac:a5:30:52:62:
         88:af:15:3e:31:09:b4:93:00:61:94:6d:0e:2e:e2:c1:d6:4e:
         87:54:0c:f7:98:5e:98:80:34:2c:f3:10:2e:50:0f:c6:48:ab:
         a4:a6:99:bf:0b:c9:09:21:f9:b1:1b:c5:e5:0a:da:d1:6a:59:
         bb:99:87:5e:fa:99:c3:a2:2c:17:53:c0:4e:25:45:37:be:11:
         a4:ea:61:72:32:f7:b8:26:46:b6:36:2d:d0:bb:7f:47:42:81:
         8c:87:a9:fb:f4:c5:ba:07:d7:69:fd:e0:b1:1f:ab:61:fd:df:
         cd:6b:af:e2:9b:09:22:e8:40:79:41:2d:48:38:94:e5:15:49:
         84:a4:cb:80:c5:d4:a2:09:67:4f:4b:eb:22:48:8c:13:f6:c2:
         c3:64:c8:07:64:d0:8b:7a:23:6a:df:85:ff:81:5e:17:4a:47:
         ec:66:2f:78:13:50:dc:e0:6b:4b:2f:3e:56:d8:f5:8a:68:ad:
         ab:46:b5:fa:12:30:d9:a1:8e:70:ef:84:b2:55:b1:c7:0a:7c:
         af:b4:b7:5d:0c:02:09:23:66:ac:d2:a7:b6:8a:df:40:c3:fa:
         60:d0:21:ba:9e:42:df:8a:85:12:bb:da:27:6b:3d:27:d2:f9:
         74:88:e6:a0
-----BEGIN CERTIFICATE-----
MIIDdzCCAl+gAwIBAgIQMhrEkRXlOHwJymBJMvk56jANBgkqhkiG9w0BAQsFADAW
MRQwEgYDVQQDDAt0ZWFtNTEwLW5ldDAeFw0yMjA1MTgyMjAwMDZaFw0yNTA1MDIy
MjAwMDZaMBkxFzAVBgNVBAMMDnRlYW01MTAtc2VydmVyMIIBIjANBgkqhkiG9w0B
AQEFAAOCAQ8AMIIBCgKCAQEAstFPic8N0I+Ti2N7Yyag1mf36pnMvTrgfvVVw0oq
nWBMgCvIw6YhtmvNkvuvSy2cJ2JUlSOyQ/pZUrlKX7RS2Zr5Y+bLjLQaDBUzNWD0
n/mkgyQnRzQX4rSyEK5d3UP5kzmZ98jAHLCkUzpfFkKnfjK6UyOl7q+ZEhtLA6tg
x9rEXYl+pMd92A6O+MbjabyddazKOgyO3ZZAhmirgbVBfJp5gl/idjh7rO0chN6Y
Yjr5FVBfY7a607K2cyy0d7ZsRZgkojlYLTH/vlr//8WQZ4mhFgmsSMY/OgPeKzis
lE42xP0le8RpleiQmLU37cctvfG/cvg7urLSc6hZVB5IDQIDAQABo4G9MIG6MAkG
A1UdEwQCMAAwHQYDVR0OBBYEFFYPdf+06FYRDmGwsfnJIZJHfGmmMFEGA1UdIwRK
MEiAFK1XBnjfUkXIzQAAD4VDS2QLjItloRqkGDAWMRQwEgYDVQQDDAt0ZWFtNTEw
LW5ldIIUHkqVfAC5ryRdLcFX3+siA4RlOFswEwYDVR0lBAwwCgYIKwYBBQUHAwEw
CwYDVR0PBAQDAgWgMBkGA1UdEQQSMBCCDnRlYW01MTAtc2VydmVyMA0GCSqGSIb3
DQEBCwUAA4IBAQBSX3fi1/oUuaoDztpHrKUwUmKIrxU+MQm0kwBhlG0OLuLB1k6H
VAz3mF6YgDQs8xAuUA/GSKukppm/C8kJIfmxG8XlCtrRalm7mYde+pnDoiwXU8BO
JUU3vhGk6mFyMve4Jka2Ni3Qu39HQoGMh6n79MW6B9dp/eCxH6th/d/Na6/imwki
6EB5QS1IOJTlFUmEpMuAxdSiCWdPS+siSIwT9sLDZMgHZNCLeiNq34X/gV4XSkfs
Zi94E1Dc4GtLLz5W2PWKaK2rRrX6EjDZoY5w74SyVbHHCnyvtLddDAIJI2as0qe2
it9Aw/pg0CG6nkLfioUSu9onaz0n0vl0iOag
-----END CERTIFICATE-----
