Certificate:
    Data:
        Version: 3 (0x2)
        Serial Number:
            9e:4c:d9:45:c5:c0:b6:2e:34:be:ff:ca:0e:ec:d2:93
        Signature Algorithm: sha256WithRSAEncryption
        Issuer: CN=team510-net
        Validity
            Not Before: May 18 22:00:05 2022 GMT
            Not After : May  2 22:00:05 2025 GMT
        Subject: CN=team510-client
        Subject Public Key Info:
            Public Key Algorithm: rsaEncryption
                RSA Public-Key: (2048 bit)
                Modulus:
                    00:ce:0a:45:25:91:90:49:59:ce:b0:55:95:79:f2:
                    90:d0:5c:bc:40:4a:a8:2a:6b:17:34:53:7c:57:68:
                    aa:d9:7c:6e:7f:62:d8:16:bc:c8:8d:bc:a2:0d:5d:
                    4e:ee:a6:0f:d8:62:b3:3d:d3:1f:32:a9:39:89:ee:
                    37:52:96:0e:2b:09:05:f0:83:9d:b2:02:31:0f:05:
                    29:ae:60:62:79:7b:85:b4:33:85:0c:4a:ae:95:91:
                    ab:78:e9:4c:74:9c:5d:30:f4:89:3a:5c:8f:00:93:
                    d5:2f:7e:20:46:be:9e:4f:7d:9d:c0:aa:b6:fc:8e:
                    3c:7d:2e:18:2d:e1:7e:ed:7c:4c:88:2c:51:25:2f:
                    13:73:14:8c:b4:40:d2:17:c9:36:dd:2d:2e:f0:ea:
                    95:6e:7e:b3:b5:53:78:40:0f:70:f8:ef:de:3d:5a:
                    b8:5a:92:04:19:03:13:86:71:60:0c:68:35:61:3c:
                    b2:d6:24:43:e9:49:bb:e5:9d:05:dc:18:64:58:17:
                    8e:94:ad:46:cc:44:2e:f1:ea:3d:82:d6:01:b3:55:
                    7a:49:d6:2f:fe:42:6f:c6:bd:ea:74:ab:b9:b0:b8:
                    96:8f:7e:04:62:24:a1:02:12:73:e9:ef:7b:7c:83:
                    30:5f:4c:84:d3:bb:35:92:d3:20:b6:06:d1:58:b2:
                    15:63
                Exponent: 65537 (0x10001)
        X509v3 extensions:
            X509v3 Basic Constraints: 
                CA:FALSE
            X509v3 Subject Key Identifier: 
                2E:DB:F0:F8:27:59:BE:25:7D:1C:09:E0:8B:5A:1A:A5:F3:4E:4B:E4
            X509v3 Authority Key Identifier: 
                keyid:AD:57:06:78:DF:52:45:C8:CD:00:00:0F:85:43:4B:64:0B:8C:8B:65
                DirName:/CN=team510-net
                serial:1E:4A:95:7C:00:B9:AF:24:5D:2D:C1:57:DF:EB:22:03:84:65:38:5B

            X509v3 Extended Key Usage: 
                TLS Web Client Authentication
            X509v3 Key Usage: 
                Digital Signature
    Signature Algorithm: sha256WithRSAEncryption
         0d:0b:5c:33:30:2b:ff:55:fa:08:87:f7:a7:47:4b:9a:48:a6:
         47:d9:f0:fe:e1:c5:37:44:23:51:d8:e0:f8:d3:ed:0a:f9:15:
         0f:24:dd:bd:d6:41:fe:51:9b:d3:f8:4f:1a:d4:57:23:7f:4e:
         71:7c:60:1b:69:9c:19:4e:32:c3:d4:ed:7b:c7:84:78:66:ec:
         86:15:99:3b:47:e6:5e:ba:c2:23:90:91:7b:36:5d:88:32:bc:
         dd:5b:a5:29:2f:0d:1c:f8:dc:25:ce:05:be:dc:71:46:6d:ef:
         ba:8e:28:24:66:c3:ee:1d:32:ba:68:c3:7c:32:3f:b3:1d:67:
         54:b8:72:4c:d8:03:ad:57:1b:aa:f0:d5:5d:e1:fe:ca:25:27:
         a0:7a:5a:cc:f4:ac:58:df:a3:92:b7:55:48:bc:e3:a9:30:a1:
         3b:a5:60:58:8d:0c:b4:f2:fc:1a:78:a8:26:1f:dd:65:41:b1:
         48:11:54:57:d6:b7:4c:6b:73:37:b0:b5:d6:b9:9c:dd:21:69:
         a5:40:6e:8a:dc:01:95:ee:a5:fa:91:8f:d8:83:d0:0b:d4:1e:
         b2:19:6e:6d:c1:1a:a6:d0:85:74:5c:0c:5d:66:7d:84:89:de:
         fc:0e:86:7f:6c:d9:bc:d7:e1:11:f8:ae:79:51:23:61:3e:28:
         7f:99:3a:4c
-----BEGIN CERTIFICATE-----
MIIDXTCCAkWgAwIBAgIRAJ5M2UXFwLYuNL7/yg7s0pMwDQYJKoZIhvcNAQELBQAw
FjEUMBIGA1UEAwwLdGVhbTUxMC1uZXQwHhcNMjIwNTE4MjIwMDA1WhcNMjUwNTAy
MjIwMDA1WjAZMRcwFQYDVQQDDA50ZWFtNTEwLWNsaWVudDCCASIwDQYJKoZIhvcN
AQEBBQADggEPADCCAQoCggEBAM4KRSWRkElZzrBVlXnykNBcvEBKqCprFzRTfFdo
qtl8bn9i2Ba8yI28og1dTu6mD9hisz3THzKpOYnuN1KWDisJBfCDnbICMQ8FKa5g
Ynl7hbQzhQxKrpWRq3jpTHScXTD0iTpcjwCT1S9+IEa+nk99ncCqtvyOPH0uGC3h
fu18TIgsUSUvE3MUjLRA0hfJNt0tLvDqlW5+s7VTeEAPcPjv3j1auFqSBBkDE4Zx
YAxoNWE8stYkQ+lJu+WdBdwYZFgXjpStRsxELvHqPYLWAbNVeknWL/5Cb8a96nSr
ubC4lo9+BGIkoQISc+nve3yDMF9MhNO7NZLTILYG0ViyFWMCAwEAAaOBojCBnzAJ
BgNVHRMEAjAAMB0GA1UdDgQWBBQu2/D4J1m+JX0cCeCLWhql805L5DBRBgNVHSME
SjBIgBStVwZ431JFyM0AAA+FQ0tkC4yLZaEapBgwFjEUMBIGA1UEAwwLdGVhbTUx
MC1uZXSCFB5KlXwAua8kXS3BV9/rIgOEZThbMBMGA1UdJQQMMAoGCCsGAQUFBwMC
MAsGA1UdDwQEAwIHgDANBgkqhkiG9w0BAQsFAAOCAQEADQtcMzAr/1X6CIf3p0dL
mkimR9nw/uHFN0QjUdjg+NPtCvkVDyTdvdZB/lGb0/hPGtRXI39OcXxgG2mcGU4y
w9Tte8eEeGbshhWZO0fmXrrCI5CRezZdiDK83VulKS8NHPjcJc4FvtxxRm3vuo4o
JGbD7h0yumjDfDI/sx1nVLhyTNgDrVcbqvDVXeH+yiUnoHpazPSsWN+jkrdVSLzj
qTChO6VgWI0MtPL8GnioJh/dZUGxSBFUV9a3TGtzN7C11rmc3SFppUBuitwBle6l
+pGP2IPQC9QeshlubcEaptCFdFwMXWZ9hIne/A6Gf2zZvNfhEfiueVEjYT4of5k6
TA==
-----END CERTIFICATE-----
