Certificate:
    Data:
        Version: 3 (0x2)
        Serial Number:
            03:d9:4d:b7:fe:bd:1a:8b:f4:a6:89:cd:70:06:ea:27
        Signature Algorithm: sha256WithRSAEncryption
        Issuer: CN=team696-net
        Validity
            Not Before: May 18 23:30:28 2022 GMT
            Not After : May  2 23:30:28 2025 GMT
        Subject: CN=team696-client
        Subject Public Key Info:
            Public Key Algorithm: rsaEncryption
                RSA Public-Key: (2048 bit)
                Modulus:
                    00:b9:ee:1d:13:b2:1f:7b:6d:dc:fb:a7:b6:49:e8:
                    b6:69:d6:6a:50:47:3f:75:a9:d5:41:b5:68:81:ea:
                    c1:94:54:1b:72:ce:24:56:e0:a6:2c:3e:c3:11:c9:
                    21:7f:d3:b4:7e:35:a4:5a:81:fd:c5:32:93:b7:a7:
                    25:a2:3b:90:91:69:df:1d:ae:3b:c2:94:fe:4e:63:
                    db:aa:64:3a:95:2a:af:a3:60:bf:08:8f:84:9e:cd:
                    90:4a:07:b0:c8:1a:ed:69:c0:64:2d:bd:0d:9e:dc:
                    11:b4:11:f4:0b:60:39:c1:af:8a:40:c2:dc:3c:ee:
                    45:06:4f:b8:c8:7d:0d:bd:41:66:1f:84:4a:30:0c:
                    34:07:b8:c0:f3:84:36:14:a1:0b:cf:45:e1:42:fe:
                    76:fc:22:83:35:32:dd:13:7f:70:d2:e5:c4:f0:2b:
                    9b:c3:c3:12:45:61:66:03:45:f5:86:d0:0f:d3:2e:
                    79:a4:d9:6b:4d:08:5d:d1:a6:b3:31:9f:76:3c:0d:
                    07:51:e6:8c:25:94:7f:cc:fe:91:3b:4f:ab:33:25:
                    57:c5:08:ab:99:3d:19:1d:77:b1:3b:17:86:d0:e0:
                    aa:41:fd:4b:1c:94:aa:d1:f4:5c:84:43:95:f4:4e:
                    6c:99:6e:8b:83:21:2e:77:c1:a7:7c:e3:ad:9e:b2:
                    34:d3
                Exponent: 65537 (0x10001)
        X509v3 extensions:
            X509v3 Basic Constraints: 
                CA:FALSE
            X509v3 Subject Key Identifier: 
                A3:28:89:12:98:BA:32:20:40:37:60:D8:45:EB:F4:A9:CB:A7:C7:77
            X509v3 Authority Key Identifier: 
                keyid:21:E0:7A:6B:62:3F:A6:67:15:2D:D1:F5:A0:3C:A6:45:8F:15:E5:10
                DirName:/CN=team696-net
                serial:7C:B8:9B:BC:4F:F5:14:9E:AD:72:3C:1A:48:1F:58:FA:8A:C4:21:AD

            X509v3 Extended Key Usage: 
                TLS Web Client Authentication
            X509v3 Key Usage: 
                Digital Signature
    Signature Algorithm: sha256WithRSAEncryption
         0b:72:b7:27:48:d1:a7:bd:96:51:25:cd:ce:44:92:fb:51:ce:
         fc:76:58:2a:54:5e:ef:2a:ba:28:b2:c7:fe:38:72:3a:14:14:
         f9:c2:75:38:6f:2f:10:d5:7d:cb:17:03:f9:04:09:57:a1:d9:
         a6:cf:12:f7:94:a7:70:69:cc:97:3e:ae:01:93:c4:69:c8:c9:
         dc:36:cc:e5:2b:a0:d1:07:96:a1:59:e3:6e:0d:a1:5e:b4:03:
         ea:79:6c:d1:10:7b:cf:83:5c:de:53:93:37:50:c8:b5:d3:1b:
         a7:1e:1a:2e:e0:85:3a:55:a9:9d:c4:40:64:0b:90:ab:09:ab:
         84:ea:e7:e4:32:17:3e:7c:b5:db:3c:e0:e8:7a:c8:7d:b8:c0:
         0a:0e:f8:84:e5:bb:8d:9b:cd:44:f6:11:75:e3:cb:3c:57:60:
         1d:bf:17:b6:a3:07:0d:36:d7:28:b5:63:6b:70:10:fb:12:c4:
         1d:df:43:0b:c4:67:4b:7b:aa:59:06:98:8b:28:ed:34:83:ed:
         c0:a4:2c:42:0f:41:3f:14:94:f2:ec:9f:07:c2:15:bb:ae:d8:
         9b:e8:e3:eb:51:1e:33:db:0c:59:82:87:37:18:12:fa:97:94:
         5a:a4:ec:de:78:ca:c7:dc:2b:89:36:f9:6a:15:43:fa:ca:d3:
         4c:75:6e:24
-----BEGIN CERTIFICATE-----
MIIDXDCCAkSgAwIBAgIQA9lNt/69Gov0ponNcAbqJzANBgkqhkiG9w0BAQsFADAW
MRQwEgYDVQQDDAt0ZWFtNjk2LW5ldDAeFw0yMjA1MTgyMzMwMjhaFw0yNTA1MDIy
MzMwMjhaMBkxFzAVBgNVBAMMDnRlYW02OTYtY2xpZW50MIIBIjANBgkqhkiG9w0B
AQEFAAOCAQ8AMIIBCgKCAQEAue4dE7Ife23c+6e2Sei2adZqUEc/danVQbVogerB
lFQbcs4kVuCmLD7DEckhf9O0fjWkWoH9xTKTt6clojuQkWnfHa47wpT+TmPbqmQ6
lSqvo2C/CI+Ens2QSgewyBrtacBkLb0NntwRtBH0C2A5wa+KQMLcPO5FBk+4yH0N
vUFmH4RKMAw0B7jA84Q2FKELz0XhQv52/CKDNTLdE39w0uXE8Cubw8MSRWFmA0X1
htAP0y55pNlrTQhd0aazMZ92PA0HUeaMJZR/zP6RO0+rMyVXxQirmT0ZHXexOxeG
0OCqQf1LHJSq0fRchEOV9E5smW6LgyEud8GnfOOtnrI00wIDAQABo4GiMIGfMAkG
A1UdEwQCMAAwHQYDVR0OBBYEFKMoiRKYujIgQDdg2EXr9KnLp8d3MFEGA1UdIwRK
MEiAFCHgemtiP6ZnFS3R9aA8pkWPFeUQoRqkGDAWMRQwEgYDVQQDDAt0ZWFtNjk2
LW5ldIIUfLibvE/1FJ6tcjwaSB9Y+orEIa0wEwYDVR0lBAwwCgYIKwYBBQUHAwIw
CwYDVR0PBAQDAgeAMA0GCSqGSIb3DQEBCwUAA4IBAQALcrcnSNGnvZZRJc3ORJL7
Uc78dlgqVF7vKroossf+OHI6FBT5wnU4by8Q1X3LFwP5BAlXodmmzxL3lKdwacyX
Pq4Bk8RpyMncNszlK6DRB5ahWeNuDaFetAPqeWzREHvPg1zeU5M3UMi10xunHhou
4IU6VamdxEBkC5CrCauE6ufkMhc+fLXbPODoesh9uMAKDviE5buNm81E9hF148s8
V2Advxe2owcNNtcotWNrcBD7EsQd30MLxGdLe6pZBpiLKO00g+3ApCxCD0E/FJTy
7J8HwhW7rtib6OPrUR4z2wxZgoc3GBL6l5RapOzeeMrH3CuJNvlqFUP6ytNMdW4k
-----END CERTIFICATE-----
