Certificate:
    Data:
        Version: 3 (0x2)
        Serial Number:
            ca:c2:30:da:6b:8a:15:4f:b0:40:49:1d:55:ed:c3:3c
        Signature Algorithm: sha256WithRSAEncryption
        Issuer: CN=team148-net
        Validity
            Not Before: May 18 18:39:08 2022 GMT
            Not After : May  2 18:39:08 2025 GMT
        Subject: CN=team148-server
        Subject Public Key Info:
            Public Key Algorithm: rsaEncryption
                RSA Public-Key: (2048 bit)
                Modulus:
                    00:b5:92:5d:8e:c3:4b:43:69:c8:e8:8e:4e:65:68:
                    32:2f:93:62:c3:d6:bb:1b:2f:1b:6c:92:a7:7b:b7:
                    0e:e7:dd:7b:90:13:33:56:f4:b8:88:ca:05:b7:7b:
                    1d:9d:fb:05:e6:de:38:7b:2e:76:f6:f0:ef:04:d0:
                    e8:02:a5:23:37:4e:f5:14:41:f1:35:28:18:6d:d5:
                    2d:53:9f:9d:4c:d1:06:78:a3:4e:d7:58:43:01:68:
                    a7:d2:79:c8:d9:0b:0b:da:84:cd:d8:65:6a:a7:1b:
                    a6:56:2f:7e:a6:30:b1:a0:61:f4:f5:37:a8:32:4b:
                    be:89:98:7b:40:40:ba:fa:14:e0:b0:cf:4b:a7:fd:
                    bd:f0:c0:97:cb:8e:af:a0:f8:76:eb:3c:a1:e4:c3:
                    61:0a:27:5c:7e:79:2f:d1:ff:b0:85:c7:ba:82:f0:
                    4f:de:ca:2a:10:44:2c:8a:19:1a:f3:3c:19:fd:c6:
                    17:91:39:6c:f4:3c:e7:bd:a3:74:68:23:de:37:8c:
                    68:f8:78:94:25:bb:75:a2:0e:02:22:74:13:6f:25:
                    91:94:6b:82:f8:cd:d1:b4:ab:07:9b:19:b3:3c:99:
                    ed:14:95:74:e3:c1:23:ec:d4:c5:c0:14:a2:22:99:
                    9b:16:f5:35:4b:8a:c1:6a:6a:35:47:50:7f:3a:c1:
                    05:15
                Exponent: 65537 (0x10001)
        X509v3 extensions:
            X509v3 Basic Constraints: 
                CA:FALSE
            X509v3 Subject Key Identifier: 
                85:88:13:2F:72:F9:47:94:9D:25:3E:A2:53:AD:86:19:13:25:CA:57
            X509v3 Authority Key Identifier: 
                keyid:21:C8:5A:55:B5:E0:EB:EA:4D:35:F0:8D:C5:13:27:91:E2:5E:A0:00
                DirName:/CN=team148-net
                serial:51:D6:29:39:FC:4D:8E:BB:43:D0:FE:A2:D9:8D:21:5A:65:9F:27:FF

            X509v3 Extended Key Usage: 
                TLS Web Server Authentication
            X509v3 Key Usage: 
                Digital Signature, Key Encipherment
            X509v3 Subject Alternative Name: 
                DNS:team148-server
    Signature Algorithm: sha256WithRSAEncryption
         b1:2a:51:8a:f8:81:42:bc:bd:fd:29:70:ba:23:c0:86:9b:ea:
         42:1a:8d:2e:5f:bd:5b:fe:ad:f1:7a:27:e9:6a:7e:6e:76:62:
         31:d1:9a:e2:4f:60:6a:9c:4e:a9:26:61:e6:60:72:da:37:be:
         90:08:02:6c:a5:8e:3a:50:8d:95:5b:0d:4e:dc:a5:60:e8:48:
         95:55:a5:ec:4d:5e:80:94:9f:04:ee:a0:a9:c9:a7:89:e1:67:
         d2:6e:2a:b6:1a:0c:d7:c9:19:35:ea:5e:56:4b:1e:ff:dd:1a:
         48:fc:9e:e9:17:25:f5:b9:b4:be:e9:e3:23:a4:e0:25:4d:df:
         a2:5e:92:55:26:95:ec:dc:59:c4:d6:f3:5e:f1:04:72:f0:3a:
         22:d1:58:8a:3f:b3:51:88:3c:da:f2:c6:35:be:83:ba:b9:ce:
         8a:78:51:dc:9c:62:d4:87:03:7c:be:d7:39:69:e9:14:71:b4:
         c1:f1:3f:2e:cd:f0:67:72:20:23:6a:78:f3:84:52:92:15:0d:
         10:21:5b:d9:56:07:3d:d8:ae:d0:c7:31:ee:05:c1:cc:1e:37:
         7e:c5:40:c8:ea:54:70:8d:6c:93:62:80:5f:9f:dd:63:a7:db:
         93:36:bf:54:4e:e9:6b:e4:c6:52:73:14:c0:b2:6e:86:21:59:
         fb:b4:88:40
-----BEGIN CERTIFICATE-----
MIIDeDCCAmCgAwIBAgIRAMrCMNprihVPsEBJHVXtwzwwDQYJKoZIhvcNAQELBQAw
FjEUMBIGA1UEAwwLdGVhbTE0OC1uZXQwHhcNMjIwNTE4MTgzOTA4WhcNMjUwNTAy
MTgzOTA4WjAZMRcwFQYDVQQDDA50ZWFtMTQ4LXNlcnZlcjCCASIwDQYJKoZIhvcN
AQEBBQADggEPADCCAQoCggEBALWSXY7DS0NpyOiOTmVoMi+TYsPWuxsvG2ySp3u3
Dufde5ATM1b0uIjKBbd7HZ37BebeOHsudvbw7wTQ6AKlIzdO9RRB8TUoGG3VLVOf
nUzRBnijTtdYQwFop9J5yNkLC9qEzdhlaqcbplYvfqYwsaBh9PU3qDJLvomYe0BA
uvoU4LDPS6f9vfDAl8uOr6D4dus8oeTDYQonXH55L9H/sIXHuoLwT97KKhBELIoZ
GvM8Gf3GF5E5bPQ8572jdGgj3jeMaPh4lCW7daIOAiJ0E28lkZRrgvjN0bSrB5sZ
szyZ7RSVdOPBI+zUxcAUoiKZmxb1NUuKwWpqNUdQfzrBBRUCAwEAAaOBvTCBujAJ
BgNVHRMEAjAAMB0GA1UdDgQWBBSFiBMvcvlHlJ0lPqJTrYYZEyXKVzBRBgNVHSME
SjBIgBQhyFpVteDr6k018I3FEyeR4l6gAKEapBgwFjEUMBIGA1UEAwwLdGVhbTE0
OC1uZXSCFFHWKTn8TY67Q9D+otmNIVplnyf/MBMGA1UdJQQMMAoGCCsGAQUFBwMB
MAsGA1UdDwQEAwIFoDAZBgNVHREEEjAQgg50ZWFtMTQ4LXNlcnZlcjANBgkqhkiG
9w0BAQsFAAOCAQEAsSpRiviBQry9/SlwuiPAhpvqQhqNLl+9W/6t8Xon6Wp+bnZi
MdGa4k9gapxOqSZh5mBy2je+kAgCbKWOOlCNlVsNTtylYOhIlVWl7E1egJSfBO6g
qcmnieFn0m4qthoM18kZNepeVkse/90aSPye6Rcl9bm0vunjI6TgJU3fol6SVSaV
7NxZxNbzXvEEcvA6ItFYij+zUYg82vLGNb6DurnOinhR3Jxi1IcDfL7XOWnpFHG0
wfE/Ls3wZ3IgI2p484RSkhUNECFb2VYHPdiu0Mcx7gXBzB43fsVAyOpUcI1sk2KA
X5/dY6fbkza/VE7pa+TGUnMUwLJuhiFZ+7SIQA==
-----END CERTIFICATE-----
