Certificate:
    Data:
        Version: 3 (0x2)
        Serial Number:
            c3:80:28:5a:f9:50:96:c2:79:52:7e:f5:61:aa:29:fd
        Signature Algorithm: sha256WithRSAEncryption
        Issuer: CN=team547-net
        Validity
            Not Before: May 18 22:16:41 2022 GMT
            Not After : May  2 22:16:41 2025 GMT
        Subject: CN=team547-client
        Subject Public Key Info:
            Public Key Algorithm: rsaEncryption
                RSA Public-Key: (2048 bit)
                Modulus:
                    00:c5:a4:ad:43:39:d2:16:fb:08:d2:64:d1:0b:0a:
                    2b:42:3a:0f:39:4e:b6:b7:ec:7a:93:88:1f:4c:ce:
                    90:66:66:ca:72:3c:54:b8:23:59:7f:58:77:0e:e1:
                    b2:71:b6:83:5a:0e:37:3b:5c:28:4a:95:95:2c:13:
                    db:fd:58:34:96:38:3b:37:be:24:56:0f:90:05:6b:
                    e6:dc:27:0b:00:f1:b3:e3:a2:96:67:7b:85:6a:19:
                    c5:12:71:18:44:ce:aa:74:2b:a4:7a:30:c0:b2:79:
                    4a:9e:05:90:9f:14:b8:14:8f:f6:a0:c2:1b:42:be:
                    f3:d5:10:d0:3f:09:48:c6:ab:38:d1:c6:5d:2b:62:
                    c3:c3:03:ad:59:04:64:92:b2:04:cb:32:11:d8:a1:
                    70:08:9a:34:44:4c:67:b4:fa:8c:70:e3:3b:4b:b0:
                    96:72:09:29:9e:7b:b6:8c:dd:cb:4a:be:fe:07:83:
                    6d:f3:d3:6e:9c:8d:bd:f7:ce:3a:34:4b:3f:b5:4b:
                    07:5d:f3:cf:52:ac:97:78:8d:d9:cc:d0:26:ab:d8:
                    de:ee:f3:bb:a0:b0:63:fc:3e:12:86:64:19:17:d7:
                    f9:c2:93:50:c1:27:90:d8:c6:3d:19:3b:a2:88:4e:
                    72:f2:34:77:1c:b8:53:db:e6:af:98:49:b9:b8:f5:
                    ed:f1
                Exponent: 65537 (0x10001)
        X509v3 extensions:
            X509v3 Basic Constraints: 
                CA:FALSE
            X509v3 Subject Key Identifier: 
                69:50:2B:62:61:6C:54:12:A3:73:DE:57:63:D3:96:02:EB:05:7A:51
            X509v3 Authority Key Identifier: 
                keyid:56:95:41:FD:8D:54:BA:E6:69:F8:C1:9C:95:4C:CB:87:C8:E8:55:38
                DirName:/CN=team547-net
                serial:23:3D:13:95:5A:90:12:32:D5:52:7F:86:75:B7:16:2A:88:1F:AB:2A

            X509v3 Extended Key Usage: 
                TLS Web Client Authentication
            X509v3 Key Usage: 
                Digital Signature
    Signature Algorithm: sha256WithRSAEncryption
         03:86:0b:fb:15:01:e0:06:20:1d:3b:fa:99:65:82:e4:87:a0:
         c5:cb:96:68:7a:9f:1f:cb:ed:5e:b6:a0:37:51:df:ba:93:13:
         22:04:f3:ea:49:42:27:6e:05:6b:3b:6a:a8:1d:95:63:c0:92:
         4a:88:0d:33:96:67:ef:e0:93:17:85:6f:5f:9f:9e:8a:4b:9b:
         e5:ec:48:08:da:9a:f7:5e:6c:db:27:6b:4c:4d:cf:f0:86:70:
         9b:62:99:8a:29:92:94:e8:30:58:99:cc:08:fc:f2:59:16:7d:
         bc:ee:d2:13:b3:21:ec:ca:cf:f2:e4:c8:20:8a:ce:0f:31:46:
         97:0b:54:62:3c:d5:9b:3e:c7:fd:ee:e9:0b:0f:5d:7e:9d:49:
         8b:3e:63:62:2b:e4:3e:e4:21:c1:ab:aa:78:59:19:35:55:1f:
         ec:d5:bf:57:91:e7:6a:80:df:82:21:4b:dd:bb:7a:84:88:0c:
         f0:e0:84:9d:e5:88:54:9f:26:4f:35:e9:14:b1:45:c4:37:9d:
         c0:b5:d3:cb:36:52:6a:10:50:a4:34:50:c3:79:41:4a:95:5e:
         8d:61:a1:06:16:75:1b:cf:c5:27:0b:71:ce:39:10:b1:26:c7:
         64:f8:e9:cc:04:3e:ab:97:86:49:94:05:27:52:3e:c7:de:74:
         fd:14:e5:55
-----BEGIN CERTIFICATE-----
MIIDXTCCAkWgAwIBAgIRAMOAKFr5UJbCeVJ+9WGqKf0wDQYJKoZIhvcNAQELBQAw
FjEUMBIGA1UEAwwLdGVhbTU0Ny1uZXQwHhcNMjIwNTE4MjIxNjQxWhcNMjUwNTAy
MjIxNjQxWjAZMRcwFQYDVQQDDA50ZWFtNTQ3LWNsaWVudDCCASIwDQYJKoZIhvcN
AQEBBQADggEPADCCAQoCggEBAMWkrUM50hb7CNJk0QsKK0I6DzlOtrfsepOIH0zO
kGZmynI8VLgjWX9Ydw7hsnG2g1oONztcKEqVlSwT2/1YNJY4Oze+JFYPkAVr5twn
CwDxs+Oilmd7hWoZxRJxGETOqnQrpHowwLJ5Sp4FkJ8UuBSP9qDCG0K+89UQ0D8J
SMarONHGXStiw8MDrVkEZJKyBMsyEdihcAiaNERMZ7T6jHDjO0uwlnIJKZ57tozd
y0q+/geDbfPTbpyNvffOOjRLP7VLB13zz1Ksl3iN2czQJqvY3u7zu6CwY/w+EoZk
GRfX+cKTUMEnkNjGPRk7oohOcvI0dxy4U9vmr5hJubj17fECAwEAAaOBojCBnzAJ
BgNVHRMEAjAAMB0GA1UdDgQWBBRpUCtiYWxUEqNz3ldj05YC6wV6UTBRBgNVHSME
SjBIgBRWlUH9jVS65mn4wZyVTMuHyOhVOKEapBgwFjEUMBIGA1UEAwwLdGVhbTU0
Ny1uZXSCFCM9E5VakBIy1VJ/hnW3FiqIH6sqMBMGA1UdJQQMMAoGCCsGAQUFBwMC
MAsGA1UdDwQEAwIHgDANBgkqhkiG9w0BAQsFAAOCAQEAA4YL+xUB4AYgHTv6mWWC
5IegxcuWaHqfH8vtXragN1HfupMTIgTz6klCJ24FaztqqB2VY8CSSogNM5Zn7+CT
F4VvX5+eikub5exICNqa915s2ydrTE3P8IZwm2KZiimSlOgwWJnMCPzyWRZ9vO7S
E7Mh7MrP8uTIIIrODzFGlwtUYjzVmz7H/e7pCw9dfp1Jiz5jYivkPuQhwauqeFkZ
NVUf7NW/V5HnaoDfgiFL3bt6hIgM8OCEneWIVJ8mTzXpFLFFxDedwLXTyzZSahBQ
pDRQw3lBSpVejWGhBhZ1G8/FJwtxzjkQsSbHZPjpzAQ+q5eGSZQFJ1I+x950/RTl
VQ==
-----END CERTIFICATE-----
