Certificate:
    Data:
        Version: 3 (0x2)
        Serial Number:
            d0:a9:f3:e8:d9:a9:57:37:7d:83:9f:9d:cf:c7:42:59
        Signature Algorithm: sha256WithRSAEncryption
        Issuer: CN=team547-net
        Validity
            Not Before: May 18 22:16:41 2022 GMT
            Not After : May  2 22:16:41 2025 GMT
        Subject: CN=team547-server
        Subject Public Key Info:
            Public Key Algorithm: rsaEncryption
                RSA Public-Key: (2048 bit)
                Modulus:
                    00:bf:2d:9d:84:fd:1d:e4:0f:b9:19:de:1c:d7:d1:
                    d8:c4:34:f5:33:d9:cd:84:88:83:16:1a:6f:bf:3d:
                    97:85:e6:04:13:a5:d9:64:42:70:20:2d:ec:ac:42:
                    fe:2f:f0:3c:f0:81:dd:d1:24:ce:e2:25:16:15:83:
                    53:37:f1:2b:84:90:01:a2:ef:78:15:e1:a8:f3:22:
                    c8:69:d5:a8:82:43:49:da:6d:b3:47:3c:70:f4:e2:
                    e3:0e:a0:0a:e7:6a:49:7e:9d:68:08:fa:a8:89:16:
                    5d:c0:af:06:cf:de:1b:14:2f:65:53:16:a8:d2:b1:
                    71:fc:0d:e6:fe:1d:d4:3f:c8:d3:95:f3:b8:75:c2:
                    4c:8c:fd:f4:1e:bf:52:a7:e4:77:87:ec:7c:a6:5f:
                    71:a5:bf:de:6c:e0:8b:08:ec:74:c2:50:98:a2:f8:
                    60:79:32:10:94:f8:72:07:13:40:98:c5:d4:42:98:
                    91:83:36:cc:75:35:88:48:72:0a:fe:a2:29:4d:86:
                    1e:81:05:e4:b7:5a:70:dd:9e:b9:ce:fa:43:9d:51:
                    01:11:36:32:c7:7c:d7:92:12:92:bb:06:37:9c:4a:
                    9a:f7:a2:ab:52:e0:7a:97:58:a6:88:2f:34:d5:95:
                    37:53:c0:24:4c:8f:5f:61:86:18:08:ce:0b:26:c6:
                    1a:f7
                Exponent: 65537 (0x10001)
        X509v3 extensions:
            X509v3 Basic Constraints: 
                CA:FALSE
            X509v3 Subject Key Identifier: 
                89:F1:FC:A8:15:B2:3D:54:28:82:98:26:42:C1:DF:4E:01:0A:A2:28
            X509v3 Authority Key Identifier: 
                keyid:56:95:41:FD:8D:54:BA:E6:69:F8:C1:9C:95:4C:CB:87:C8:E8:55:38
                DirName:/CN=team547-net
                serial:23:3D:13:95:5A:90:12:32:D5:52:7F:86:75:B7:16:2A:88:1F:AB:2A

            X509v3 Extended Key Usage: 
                TLS Web Server Authentication
            X509v3 Key Usage: 
                Digital Signature, Key Encipherment
            X509v3 Subject Alternative Name: 
                DNS:team547-server
    Signature Algorithm: sha256WithRSAEncryption
         45:94:78:93:bf:a6:a8:d7:53:c2:af:5b:d3:b8:e9:ed:7c:1d:
         6b:3d:f3:1d:90:54:b9:cd:58:98:3a:64:f1:e5:37:8b:04:ca:
         e3:8f:b2:ba:58:91:30:dd:25:ac:50:bc:e4:83:da:77:5a:e2:
         2f:d9:ed:89:bc:25:68:be:e3:74:27:26:a5:04:d8:6e:2f:73:
         57:72:db:29:21:72:f4:c4:65:94:4a:60:52:8e:01:3e:fa:ae:
         03:37:8c:9b:0d:e0:4f:b9:c5:03:32:ab:72:46:32:43:a7:94:
         20:ab:c8:62:03:88:35:b0:3e:46:8f:23:66:10:de:2d:0f:03:
         e6:22:78:6f:85:b7:68:a8:f1:e6:c1:65:19:20:47:9c:80:02:
         07:5a:95:1f:71:28:5b:e6:8a:ca:ae:17:f8:35:46:5a:ab:29:
         f5:5f:34:8d:f6:24:8d:62:2c:a7:2e:f8:fc:34:80:81:94:1c:
         ac:03:0a:0b:c4:90:72:78:90:4e:6f:32:24:95:5d:e9:f6:2a:
         b5:6b:70:17:fa:a0:09:48:af:24:0f:02:2c:b0:48:22:a7:1e:
         86:ee:e8:e8:fc:41:dc:69:8d:22:85:73:77:ed:02:28:c5:93:
         c3:17:a7:84:0a:0e:98:0c:40:45:0c:46:c0:25:8e:d5:15:05:
         eb:d7:c9:d5
-----BEGIN CERTIFICATE-----
MIIDeDCCAmCgAwIBAgIRANCp8+jZqVc3fYOfnc/HQlkwDQYJKoZIhvcNAQELBQAw
FjEUMBIGA1UEAwwLdGVhbTU0Ny1uZXQwHhcNMjIwNTE4MjIxNjQxWhcNMjUwNTAy
MjIxNjQxWjAZMRcwFQYDVQQDDA50ZWFtNTQ3LXNlcnZlcjCCASIwDQYJKoZIhvcN
AQEBBQADggEPADCCAQoCggEBAL8tnYT9HeQPuRneHNfR2MQ09TPZzYSIgxYab789
l4XmBBOl2WRCcCAt7KxC/i/wPPCB3dEkzuIlFhWDUzfxK4SQAaLveBXhqPMiyGnV
qIJDSdpts0c8cPTi4w6gCudqSX6daAj6qIkWXcCvBs/eGxQvZVMWqNKxcfwN5v4d
1D/I05XzuHXCTIz99B6/Uqfkd4fsfKZfcaW/3mzgiwjsdMJQmKL4YHkyEJT4cgcT
QJjF1EKYkYM2zHU1iEhyCv6iKU2GHoEF5LdacN2euc76Q51RARE2Msd815ISkrsG
N5xKmveiq1LgepdYpogvNNWVN1PAJEyPX2GGGAjOCybGGvcCAwEAAaOBvTCBujAJ
BgNVHRMEAjAAMB0GA1UdDgQWBBSJ8fyoFbI9VCiCmCZCwd9OAQqiKDBRBgNVHSME
SjBIgBRWlUH9jVS65mn4wZyVTMuHyOhVOKEapBgwFjEUMBIGA1UEAwwLdGVhbTU0
Ny1uZXSCFCM9E5VakBIy1VJ/hnW3FiqIH6sqMBMGA1UdJQQMMAoGCCsGAQUFBwMB
MAsGA1UdDwQEAwIFoDAZBgNVHREEEjAQgg50ZWFtNTQ3LXNlcnZlcjANBgkqhkiG
9w0BAQsFAAOCAQEARZR4k7+mqNdTwq9b07jp7Xwdaz3zHZBUuc1YmDpk8eU3iwTK
44+yuliRMN0lrFC85IPad1riL9ntibwlaL7jdCcmpQTYbi9zV3LbKSFy9MRllEpg
Uo4BPvquAzeMmw3gT7nFAzKrckYyQ6eUIKvIYgOINbA+Ro8jZhDeLQ8D5iJ4b4W3
aKjx5sFlGSBHnIACB1qVH3EoW+aKyq4X+DVGWqsp9V80jfYkjWIspy74/DSAgZQc
rAMKC8SQcniQTm8yJJVd6fYqtWtwF/qgCUivJA8CLLBIIqcehu7o6PxB3GmNIoVz
d+0CKMWTwxenhAoOmAxARQxGwCWO1RUF69fJ1Q==
-----END CERTIFICATE-----
