Certificate:
    Data:
        Version: 3 (0x2)
        Serial Number:
            11:db:4d:19:9d:ef:fa:0b:92:23:49:51:1f:07:1c:0a
        Signature Algorithm: sha256WithRSAEncryption
        Issuer: CN=team34-net
        Validity
            Not Before: May 18 14:09:44 2022 GMT
            Not After : May  2 14:09:44 2025 GMT
        Subject: CN=team34-server
        Subject Public Key Info:
            Public Key Algorithm: rsaEncryption
                RSA Public-Key: (2048 bit)
                Modulus:
                    00:c9:88:d5:9f:c1:39:4f:38:a3:1b:ac:b0:01:79:
                    0a:0b:17:e9:99:9a:c0:84:dc:de:70:1a:06:ba:ff:
                    db:e4:fe:b4:79:4a:ae:70:d0:3d:7e:f3:a4:d6:4d:
                    31:fc:41:e5:a5:ed:a7:95:09:ae:a1:ea:a6:da:f6:
                    50:8d:72:62:a7:d1:95:95:45:d4:c3:f1:cb:42:33:
                    d3:d8:48:b6:a5:f1:c4:1a:9b:e8:e7:17:06:0e:28:
                    c9:bf:63:0a:92:e6:48:47:a9:1f:6f:bb:04:c1:6f:
                    80:61:66:b4:4c:e4:04:fa:a1:6e:03:ac:4e:b7:56:
                    59:97:1b:7e:33:0b:1c:09:c6:8a:1e:af:70:87:82:
                    6d:5d:be:4b:eb:99:d7:6a:1e:ca:ab:2a:d2:58:a0:
                    4b:cc:5f:00:84:b0:df:09:af:6a:a8:13:86:f7:85:
                    1f:c0:44:fd:e5:a9:70:9d:c1:ed:67:52:43:1a:96:
                    8a:c9:f6:75:c7:94:9d:50:ca:ed:0b:45:b4:3f:87:
                    8c:54:18:34:fd:b1:cb:54:25:07:0c:ba:c7:89:a1:
                    b0:9e:c9:44:a2:8a:61:91:5d:b9:42:fc:78:41:87:
                    07:1d:7e:5d:ed:61:99:ba:63:cb:43:7f:d8:01:31:
                    12:0d:2f:ef:78:af:ef:84:2c:06:a7:18:fa:a0:ef:
                    a2:75
                Exponent: 65537 (0x10001)
        X509v3 extensions:
            X509v3 Basic Constraints: 
                CA:FALSE
            X509v3 Subject Key Identifier: 
                1B:CD:56:FC:FC:CC:65:0F:EB:85:77:C5:D7:6D:B2:28:7C:24:22:37
            X509v3 Authority Key Identifier: 
                keyid:16:80:42:C1:36:B8:80:94:FD:D6:DA:9E:0B:EA:95:D7:DD:9C:78:AC
                DirName:/CN=team34-net
                serial:75:69:B5:3C:27:CF:32:73:E3:79:4D:42:08:9E:99:B5:9E:7B:70:81

            X509v3 Extended Key Usage: 
                TLS Web Server Authentication
            X509v3 Key Usage: 
                Digital Signature, Key Encipherment
            X509v3 Subject Alternative Name: 
                DNS:team34-server
    Signature Algorithm: sha256WithRSAEncryption
         8a:ce:88:08:8a:d5:64:db:52:5f:81:b1:0d:8e:98:f9:d7:f3:
         6c:a5:c6:18:06:7c:15:a7:dd:98:c7:37:ad:42:24:cd:64:07:
         92:61:2d:24:9e:c9:0e:bc:92:e2:c1:c4:a0:50:f4:57:05:05:
         81:bf:7d:45:78:79:e7:d2:7d:e6:60:db:f4:e5:06:82:50:6e:
         65:26:03:6c:6a:3f:3a:33:da:77:c6:e9:a3:5a:fd:a9:c6:7d:
         e9:c2:b7:90:6e:61:74:10:58:c1:0b:eb:6e:fa:47:91:a6:fe:
         c3:c6:4b:f0:b3:89:cc:9d:80:ac:08:91:88:81:df:e4:cf:78:
         74:e6:b4:9d:61:be:95:f8:22:2c:8e:cd:de:77:3d:46:42:a1:
         f1:aa:7c:96:fa:fa:80:0b:55:d7:45:be:38:5b:2f:cb:a9:21:
         1b:9c:a2:ef:66:ca:58:b1:32:16:77:02:cf:48:2c:21:3e:49:
         43:c5:b8:77:fc:67:ae:4b:fe:90:61:0d:ca:26:31:54:5e:4c:
         20:84:62:0a:bf:fd:08:4e:79:2a:32:a4:1a:79:af:c1:1c:c1:
         a4:30:9f:22:2e:4c:ed:c8:9d:47:41:b1:aa:e3:fb:1f:14:01:
         d5:d1:b4:d4:40:00:47:06:64:e3:2f:c8:20:f9:94:f0:b8:a8:
         91:61:ce:fa
-----BEGIN CERTIFICATE-----
MIIDczCCAlugAwIBAgIQEdtNGZ3v+guSI0lRHwccCjANBgkqhkiG9w0BAQsFADAV
MRMwEQYDVQQDDAp0ZWFtMzQtbmV0MB4XDTIyMDUxODE0MDk0NFoXDTI1MDUwMjE0
MDk0NFowGDEWMBQGA1UEAwwNdGVhbTM0LXNlcnZlcjCCASIwDQYJKoZIhvcNAQEB
BQADggEPADCCAQoCggEBAMmI1Z/BOU84oxussAF5CgsX6ZmawITc3nAaBrr/2+T+
tHlKrnDQPX7zpNZNMfxB5aXtp5UJrqHqptr2UI1yYqfRlZVF1MPxy0Iz09hItqXx
xBqb6OcXBg4oyb9jCpLmSEepH2+7BMFvgGFmtEzkBPqhbgOsTrdWWZcbfjMLHAnG
ih6vcIeCbV2+S+uZ12oeyqsq0ligS8xfAISw3wmvaqgThveFH8BE/eWpcJ3B7WdS
QxqWisn2dceUnVDK7QtFtD+HjFQYNP2xy1QlBwy6x4mhsJ7JRKKKYZFduUL8eEGH
Bx1+Xe1hmbpjy0N/2AExEg0v73iv74QsBqcY+qDvonUCAwEAAaOBuzCBuDAJBgNV
HRMEAjAAMB0GA1UdDgQWBBQbzVb8/MxlD+uFd8XXbbIofCQiNzBQBgNVHSMESTBH
gBQWgELBNriAlP3W2p4L6pXX3Zx4rKEZpBcwFTETMBEGA1UEAwwKdGVhbTM0LW5l
dIIUdWm1PCfPMnPjeU1CCJ6ZtZ57cIEwEwYDVR0lBAwwCgYIKwYBBQUHAwEwCwYD
VR0PBAQDAgWgMBgGA1UdEQQRMA+CDXRlYW0zNC1zZXJ2ZXIwDQYJKoZIhvcNAQEL
BQADggEBAIrOiAiK1WTbUl+BsQ2OmPnX82ylxhgGfBWn3ZjHN61CJM1kB5JhLSSe
yQ68kuLBxKBQ9FcFBYG/fUV4eefSfeZg2/TlBoJQbmUmA2xqPzoz2nfG6aNa/anG
fenCt5BuYXQQWMEL6276R5Gm/sPGS/CzicydgKwIkYiB3+TPeHTmtJ1hvpX4IiyO
zd53PUZCofGqfJb6+oALVddFvjhbL8upIRucou9mylixMhZ3As9ILCE+SUPFuHf8
Z65L/pBhDcomMVReTCCEYgq//QhOeSoypBp5r8EcwaQwnyIuTO3InUdBsarj+x8U
AdXRtNRAAEcGZOMvyCD5lPC4qJFhzvo=
-----END CERTIFICATE-----
