Certificate:
    Data:
        Version: 3 (0x2)
        Serial Number:
            7d:1f:eb:b9:91:7d:2b:24:ec:f8:d2:e4:40:bf:53:9a
        Signature Algorithm: sha256WithRSAEncryption
        Issuer: CN=team369-net
        Validity
            Not Before: May 18 20:37:04 2022 GMT
            Not After : May  2 20:37:04 2025 GMT
        Subject: CN=team369-server
        Subject Public Key Info:
            Public Key Algorithm: rsaEncryption
                RSA Public-Key: (2048 bit)
                Modulus:
                    00:99:d3:51:e4:91:42:5b:c6:92:09:3b:94:f6:8d:
                    d6:11:bb:1b:43:ac:bb:52:d8:ec:fa:fd:03:c7:84:
                    7c:f7:35:1d:f0:75:81:77:7d:e1:9a:6e:b5:ee:f6:
                    72:7d:40:f7:38:1f:9b:f3:18:72:85:75:65:f6:bb:
                    76:b4:1c:47:45:86:35:23:b4:a8:5d:8e:02:e8:31:
                    13:68:3f:8f:bd:30:c5:08:f1:56:5c:7f:50:3e:30:
                    08:03:68:1a:12:8a:b0:17:f7:10:2d:0b:51:de:9c:
                    85:67:51:6c:3c:79:a4:f8:56:00:96:73:c8:c2:df:
                    8d:2e:c3:e9:7e:9c:24:69:66:23:79:4d:8d:92:a7:
                    70:90:f8:c5:e1:ae:f6:f2:e0:de:21:ff:68:fd:e9:
                    19:76:4f:9c:e9:a5:75:53:f4:c9:99:df:a6:ed:68:
                    89:0c:67:1e:da:9d:44:6b:91:f8:63:7a:7a:17:a7:
                    d0:48:d5:53:1f:fd:e3:82:7c:44:f3:64:1d:68:88:
                    e0:57:63:69:23:e0:24:72:28:92:9f:b9:78:b4:fc:
                    7e:ed:9c:6b:d1:b5:0f:65:d2:dd:96:40:42:bb:a5:
                    47:a8:d6:d7:9a:23:f9:60:0f:18:89:a1:91:99:9f:
                    f5:2e:6a:3f:ef:82:38:b3:f3:65:e4:41:39:53:fd:
                    54:1f
                Exponent: 65537 (0x10001)
        X509v3 extensions:
            X509v3 Basic Constraints: 
                CA:FALSE
            X509v3 Subject Key Identifier: 
                1E:95:C4:38:A1:FF:FA:49:D8:7C:A3:55:B5:EC:EE:1F:FE:6B:DF:8F
            X509v3 Authority Key Identifier: 
                keyid:6D:B7:07:64:69:99:E6:EF:64:60:93:54:0E:83:00:A9:CF:BD:48:D7
                DirName:/CN=team369-net
                serial:4F:61:65:F6:60:6E:93:24:8D:45:B3:D6:7D:35:FF:12:7E:DF:8B:88

            X509v3 Extended Key Usage: 
                TLS Web Server Authentication
            X509v3 Key Usage: 
                Digital Signature, Key Encipherment
            X509v3 Subject Alternative Name: 
                DNS:team369-server
    Signature Algorithm: sha256WithRSAEncryption
         ba:ef:84:9a:a8:bd:2d:ea:f3:d4:cb:3b:31:b8:0d:f9:59:1c:
         d1:5d:fa:c6:a5:dd:79:5d:6f:26:fb:46:34:1a:9a:08:5b:7c:
         e7:cb:ec:eb:92:bc:b3:af:10:89:d2:00:ed:a9:82:40:a0:a6:
         82:ea:2a:ac:8d:9e:f8:be:ca:3b:7a:53:2f:cc:f0:d8:36:d4:
         45:c1:41:76:50:50:88:5b:52:4f:0f:57:dc:db:10:e5:6f:b4:
         6d:bf:fa:d6:1b:c0:e4:a8:06:30:7b:4b:0d:6d:d1:09:6a:7a:
         0a:de:12:12:8d:9e:aa:93:26:fb:48:a7:97:9c:a3:00:66:1f:
         d4:54:41:7f:9c:57:81:a6:2f:c0:3f:8f:4f:11:ea:10:97:ea:
         6f:ed:55:3a:d2:3d:93:14:a5:78:55:d8:39:56:e2:f5:d6:13:
         45:88:8e:f2:a4:88:88:d9:0d:2e:f9:2a:d5:49:d6:84:fe:f4:
         f1:36:ac:14:ad:c5:e1:a8:ff:d3:3d:62:4c:04:c7:f5:a5:e1:
         32:e4:35:b7:62:5a:aa:05:b0:1b:d8:70:0d:e2:6e:b9:21:19:
         bf:88:fc:3b:4b:45:8d:98:e5:f3:c1:31:f7:26:a8:4d:15:56:
         8b:ee:37:60:ac:dd:c3:c3:79:eb:a8:95:6a:0a:c0:d4:69:3f:
         5e:9e:2d:49
-----BEGIN CERTIFICATE-----
MIIDdzCCAl+gAwIBAgIQfR/ruZF9KyTs+NLkQL9TmjANBgkqhkiG9w0BAQsFADAW
MRQwEgYDVQQDDAt0ZWFtMzY5LW5ldDAeFw0yMjA1MTgyMDM3MDRaFw0yNTA1MDIy
MDM3MDRaMBkxFzAVBgNVBAMMDnRlYW0zNjktc2VydmVyMIIBIjANBgkqhkiG9w0B
AQEFAAOCAQ8AMIIBCgKCAQEAmdNR5JFCW8aSCTuU9o3WEbsbQ6y7Utjs+v0Dx4R8
9zUd8HWBd33hmm617vZyfUD3OB+b8xhyhXVl9rt2tBxHRYY1I7SoXY4C6DETaD+P
vTDFCPFWXH9QPjAIA2gaEoqwF/cQLQtR3pyFZ1FsPHmk+FYAlnPIwt+NLsPpfpwk
aWYjeU2NkqdwkPjF4a728uDeIf9o/ekZdk+c6aV1U/TJmd+m7WiJDGce2p1Ea5H4
Y3p6F6fQSNVTH/3jgnxE82QdaIjgV2NpI+AkciiSn7l4tPx+7Zxr0bUPZdLdlkBC
u6VHqNbXmiP5YA8YiaGRmZ/1Lmo/74I4s/Nl5EE5U/1UHwIDAQABo4G9MIG6MAkG
A1UdEwQCMAAwHQYDVR0OBBYEFB6VxDih//pJ2HyjVbXs7h/+a9+PMFEGA1UdIwRK
MEiAFG23B2RpmebvZGCTVA6DAKnPvUjXoRqkGDAWMRQwEgYDVQQDDAt0ZWFtMzY5
LW5ldIIUT2Fl9mBukySNRbPWfTX/En7fi4gwEwYDVR0lBAwwCgYIKwYBBQUHAwEw
CwYDVR0PBAQDAgWgMBkGA1UdEQQSMBCCDnRlYW0zNjktc2VydmVyMA0GCSqGSIb3
DQEBCwUAA4IBAQC674SaqL0t6vPUyzsxuA35WRzRXfrGpd15XW8m+0Y0GpoIW3zn
y+zrkryzrxCJ0gDtqYJAoKaC6iqsjZ74vso7elMvzPDYNtRFwUF2UFCIW1JPD1fc
2xDlb7Rtv/rWG8DkqAYwe0sNbdEJanoK3hISjZ6qkyb7SKeXnKMAZh/UVEF/nFeB
pi/AP49PEeoQl+pv7VU60j2TFKV4Vdg5VuL11hNFiI7ypIiI2Q0u+SrVSdaE/vTx
NqwUrcXhqP/TPWJMBMf1peEy5DW3YlqqBbAb2HAN4m65IRm/iPw7S0WNmOXzwTH3
JqhNFVaL7jdgrN3Dw3nrqJVqCsDUaT9eni1J
-----END CERTIFICATE-----
