Certificate:
    Data:
        Version: 3 (0x2)
        Serial Number:
            74:c3:a9:99:55:9b:0c:a9:30:d0:1f:31:63:c9:16:88
        Signature Algorithm: sha256WithRSAEncryption
        Issuer: CN=team152-net
        Validity
            Not Before: May 18 18:37:29 2022 GMT
            Not After : May  2 18:37:29 2025 GMT
        Subject: CN=team152-client
        Subject Public Key Info:
            Public Key Algorithm: rsaEncryption
                RSA Public-Key: (2048 bit)
                Modulus:
                    00:c2:47:f7:d2:9c:99:7e:0a:3f:25:25:a5:3f:74:
                    7a:33:f3:56:a0:26:11:00:17:e6:8b:e7:62:81:f9:
                    ea:8b:63:87:76:9e:3f:b8:46:ac:c8:1c:06:af:f8:
                    12:ce:52:85:55:c7:10:d6:4f:cd:5c:52:4c:fd:e0:
                    43:84:ac:bd:35:9f:30:64:05:a0:a0:56:bd:6e:79:
                    06:61:1f:64:c6:41:cd:39:21:c9:cd:34:0a:13:73:
                    57:63:46:5c:13:1d:71:2c:40:92:4c:62:dd:04:2c:
                    0d:a1:38:fc:ab:83:b2:78:c5:35:c1:29:a6:e5:4a:
                    2e:9a:9c:4f:44:e1:b6:58:9c:ad:11:69:67:fb:c1:
                    c7:82:c6:e7:98:db:cf:4b:c2:fa:f6:ba:21:91:6d:
                    25:46:b9:92:85:42:c0:c0:cf:ff:1d:b1:1f:7c:fe:
                    46:a9:f5:67:b0:30:43:66:3e:81:da:31:2e:4f:61:
                    59:29:92:55:34:f6:f2:bd:56:6b:52:95:a1:7e:2f:
                    29:6f:a1:e4:c2:d9:a1:d3:f2:31:4f:8d:34:ce:ae:
                    70:02:0e:0d:a6:98:53:3d:27:1c:82:5a:f6:4b:b1:
                    21:7f:05:8a:7c:70:b1:f8:c6:cb:9f:d6:22:66:00:
                    41:01:1e:8e:37:7e:95:7e:e4:34:f4:ab:d8:d9:3f:
                    c3:51
                Exponent: 65537 (0x10001)
        X509v3 extensions:
            X509v3 Basic Constraints: 
                CA:FALSE
            X509v3 Subject Key Identifier: 
                7D:3B:6E:1E:9A:2B:52:A6:51:E0:11:C9:C1:B9:94:24:2A:99:87:75
            X509v3 Authority Key Identifier: 
                keyid:A5:B4:AF:FC:C2:60:08:C8:18:3E:9D:CA:63:65:4F:26:86:1B:1B:70
                DirName:/CN=team152-net
                serial:5B:EB:A6:6B:2F:9A:DE:98:18:4C:56:7A:DD:0B:1A:58:2E:86:DC:17

            X509v3 Extended Key Usage: 
                TLS Web Client Authentication
            X509v3 Key Usage: 
                Digital Signature
    Signature Algorithm: sha256WithRSAEncryption
         81:61:7c:8c:28:18:51:ac:36:10:db:7f:22:f3:71:23:5d:6f:
         7d:a6:86:7f:1b:39:0f:a6:d4:04:4b:46:57:1c:e6:f1:69:ea:
         ba:53:24:d0:f3:65:5e:6e:f1:0e:18:d2:2b:df:03:19:cd:e6:
         78:c6:5f:e8:9c:c2:a1:66:2f:c5:5a:3c:b0:ad:31:0d:98:47:
         0b:a6:71:43:23:de:8e:f1:fa:e9:af:ec:48:5a:53:0c:79:c5:
         1f:f0:48:43:c9:8f:8e:88:89:5f:78:55:12:0c:e9:97:8f:c9:
         a3:bc:1a:94:d0:5a:0e:0e:16:d3:a4:3f:a9:fb:45:49:ec:ae:
         41:98:c9:d2:ec:53:91:7f:fa:ba:3c:f3:71:fa:47:9a:3c:ae:
         e9:b9:4e:0b:b1:ff:50:d7:9f:98:34:3b:12:01:59:23:6c:09:
         e5:de:38:03:88:b0:6f:6b:20:99:33:1c:a8:d6:25:ef:01:09:
         9e:12:db:8d:24:c3:c3:85:8e:c3:f9:68:48:d1:2b:83:5c:f6:
         43:4a:e4:bc:a7:eb:88:8c:58:3e:20:18:04:30:f8:98:5e:1e:
         82:32:5a:f8:33:8e:41:87:c0:28:7f:44:ca:b9:4f:60:dc:28:
         03:1a:a7:bf:49:3f:16:e6:01:83:ea:b2:fa:89:8d:64:7f:40:
         75:2d:76:9a
-----BEGIN CERTIFICATE-----
MIIDXDCCAkSgAwIBAgIQdMOpmVWbDKkw0B8xY8kWiDANBgkqhkiG9w0BAQsFADAW
MRQwEgYDVQQDDAt0ZWFtMTUyLW5ldDAeFw0yMjA1MTgxODM3MjlaFw0yNTA1MDIx
ODM3MjlaMBkxFzAVBgNVBAMMDnRlYW0xNTItY2xpZW50MIIBIjANBgkqhkiG9w0B
AQEFAAOCAQ8AMIIBCgKCAQEAwkf30pyZfgo/JSWlP3R6M/NWoCYRABfmi+digfnq
i2OHdp4/uEasyBwGr/gSzlKFVccQ1k/NXFJM/eBDhKy9NZ8wZAWgoFa9bnkGYR9k
xkHNOSHJzTQKE3NXY0ZcEx1xLECSTGLdBCwNoTj8q4OyeMU1wSmm5UoumpxPROG2
WJytEWln+8HHgsbnmNvPS8L69rohkW0lRrmShULAwM//HbEffP5GqfVnsDBDZj6B
2jEuT2FZKZJVNPbyvVZrUpWhfi8pb6Hkwtmh0/IxT400zq5wAg4NpphTPSccglr2
S7EhfwWKfHCx+MbLn9YiZgBBAR6ON36VfuQ09KvY2T/DUQIDAQABo4GiMIGfMAkG
A1UdEwQCMAAwHQYDVR0OBBYEFH07bh6aK1KmUeARycG5lCQqmYd1MFEGA1UdIwRK
MEiAFKW0r/zCYAjIGD6dymNlTyaGGxtwoRqkGDAWMRQwEgYDVQQDDAt0ZWFtMTUy
LW5ldIIUW+umay+a3pgYTFZ63QsaWC6G3BcwEwYDVR0lBAwwCgYIKwYBBQUHAwIw
CwYDVR0PBAQDAgeAMA0GCSqGSIb3DQEBCwUAA4IBAQCBYXyMKBhRrDYQ238i83Ej
XW99poZ/GzkPptQES0ZXHObxaeq6UyTQ82VebvEOGNIr3wMZzeZ4xl/onMKhZi/F
WjywrTENmEcLpnFDI96O8frpr+xIWlMMecUf8EhDyY+OiIlfeFUSDOmXj8mjvBqU
0FoODhbTpD+p+0VJ7K5BmMnS7FORf/q6PPNx+keaPK7puU4Lsf9Q15+YNDsSAVkj
bAnl3jgDiLBvayCZMxyo1iXvAQmeEtuNJMPDhY7D+WhI0SuDXPZDSuS8p+uIjFg+
IBgEMPiYXh6CMlr4M45Bh8Aof0TKuU9g3CgDGqe/ST8W5gGD6rL6iY1kf0B1LXaa
-----END CERTIFICATE-----
