Certificate:
    Data:
        Version: 3 (0x2)
        Serial Number:
            30:83:00:41:a6:40:84:08:33:3a:7d:47:10:9b:19:8a
        Signature Algorithm: sha256WithRSAEncryption
        Issuer: CN=team42-net
        Validity
            Not Before: May 18 14:15:00 2022 GMT
            Not After : May  2 14:15:00 2025 GMT
        Subject: CN=team42-server
        Subject Public Key Info:
            Public Key Algorithm: rsaEncryption
                RSA Public-Key: (2048 bit)
                Modulus:
                    00:9e:f2:b9:67:1c:5a:0d:31:8b:6c:65:10:5d:78:
                    9b:41:44:fc:05:bc:e9:b9:38:91:39:cf:7c:e4:e8:
                    52:cf:c0:72:ab:49:e9:42:d6:77:f1:57:5e:d7:60:
                    8c:f1:f9:d5:2e:bd:2f:f3:f0:91:34:ef:2d:52:44:
                    dd:70:66:61:d5:f9:6d:4e:56:7c:15:ba:ba:25:b0:
                    6b:30:5a:d8:31:60:5e:f8:49:c8:6e:08:07:7d:d7:
                    24:17:7b:d9:87:b2:4d:a2:b4:6a:5b:b9:92:8b:fe:
                    3d:a2:62:e9:63:61:2d:7a:19:e3:05:74:5c:ed:5b:
                    81:41:d2:b5:3d:96:c5:b1:fa:86:7b:e8:19:27:58:
                    e5:4e:2e:15:53:60:9b:18:78:86:db:ce:8a:1d:c7:
                    3d:3d:17:7b:2b:df:75:e1:d3:95:1a:af:3b:54:16:
                    eb:29:06:93:ad:20:13:d9:42:8d:c2:f5:23:77:7f:
                    47:a2:5f:8d:75:ef:b9:b3:94:68:97:76:38:af:92:
                    9e:90:d6:9c:d8:9f:c8:c1:92:85:3f:2e:94:3e:be:
                    74:f8:79:b4:8d:f1:73:03:7f:71:b4:8e:bb:66:dd:
                    79:84:b7:18:77:56:f9:83:65:1a:a1:cb:ce:46:cb:
                    f0:34:34:50:3f:61:e4:31:fc:5a:ff:9c:18:9d:bd:
                    32:ed
                Exponent: 65537 (0x10001)
        X509v3 extensions:
            X509v3 Basic Constraints: 
                CA:FALSE
            X509v3 Subject Key Identifier: 
                59:49:5F:FF:0B:F0:3D:AA:1C:0F:91:79:51:47:70:0B:C0:40:B9:24
            X509v3 Authority Key Identifier: 
                keyid:B2:4D:5A:1D:47:3C:AD:EB:25:1F:DD:DC:0B:55:06:94:7F:CF:A7:7A
                DirName:/CN=team42-net
                serial:54:3D:9D:58:26:B7:62:B7:0D:0A:43:ED:DF:8E:8B:36:79:7C:CF:19

            X509v3 Extended Key Usage: 
                TLS Web Server Authentication
            X509v3 Key Usage: 
                Digital Signature, Key Encipherment
            X509v3 Subject Alternative Name: 
                DNS:team42-server
    Signature Algorithm: sha256WithRSAEncryption
         12:47:a8:f1:38:02:58:2b:1e:68:46:8c:cf:7c:30:08:0b:6f:
         5a:94:2e:00:74:6b:b4:db:e2:08:d5:4d:63:dd:f5:27:c0:23:
         49:2e:d8:9c:20:4a:19:fc:46:db:11:67:86:ed:cb:46:3f:f2:
         18:2f:f5:4b:b4:82:5f:bb:f1:8c:63:0b:de:83:b4:cb:10:c6:
         97:9c:47:33:51:cc:9c:8a:b8:af:fc:dc:71:5b:91:8e:98:82:
         da:23:e7:a4:27:3b:7b:e2:41:4c:d9:53:43:f9:b2:61:2c:fe:
         58:da:9f:d7:04:4a:75:1a:b0:47:de:42:36:b4:fb:6a:f6:fe:
         7f:ee:34:c1:05:78:27:e2:7a:ef:55:dd:32:b5:f4:9e:0e:90:
         f1:84:ff:5e:3d:a9:39:36:48:5b:c3:67:c7:c4:83:d9:1f:23:
         4b:17:70:f1:6a:64:8d:ff:84:84:ea:85:46:58:48:8b:d9:4d:
         86:fd:5b:a6:27:02:05:cd:e7:87:d1:13:9c:76:2d:1e:bc:a6:
         d9:0d:c0:7c:4a:b0:21:65:44:b5:15:2d:42:1b:2b:c5:32:84:
         f5:51:f2:2c:64:6c:ed:38:3f:06:cd:35:a1:71:75:58:94:6e:
         1e:57:42:4e:64:77:5b:bb:6e:ed:46:75:da:e2:c0:f7:de:34:
         6c:1d:86:77
-----BEGIN CERTIFICATE-----
MIIDczCCAlugAwIBAgIQMIMAQaZAhAgzOn1HEJsZijANBgkqhkiG9w0BAQsFADAV
MRMwEQYDVQQDDAp0ZWFtNDItbmV0MB4XDTIyMDUxODE0MTUwMFoXDTI1MDUwMjE0
MTUwMFowGDEWMBQGA1UEAwwNdGVhbTQyLXNlcnZlcjCCASIwDQYJKoZIhvcNAQEB
BQADggEPADCCAQoCggEBAJ7yuWccWg0xi2xlEF14m0FE/AW86bk4kTnPfOToUs/A
cqtJ6ULWd/FXXtdgjPH51S69L/PwkTTvLVJE3XBmYdX5bU5WfBW6uiWwazBa2DFg
XvhJyG4IB33XJBd72YeyTaK0alu5kov+PaJi6WNhLXoZ4wV0XO1bgUHStT2WxbH6
hnvoGSdY5U4uFVNgmxh4htvOih3HPT0XeyvfdeHTlRqvO1QW6ykGk60gE9lCjcL1
I3d/R6JfjXXvubOUaJd2OK+SnpDWnNifyMGShT8ulD6+dPh5tI3xcwN/cbSOu2bd
eYS3GHdW+YNlGqHLzkbL8DQ0UD9h5DH8Wv+cGJ29Mu0CAwEAAaOBuzCBuDAJBgNV
HRMEAjAAMB0GA1UdDgQWBBRZSV//C/A9qhwPkXlRR3ALwEC5JDBQBgNVHSMESTBH
gBSyTVodRzyt6yUf3dwLVQaUf8+neqEZpBcwFTETMBEGA1UEAwwKdGVhbTQyLW5l
dIIUVD2dWCa3YrcNCkPt346LNnl8zxkwEwYDVR0lBAwwCgYIKwYBBQUHAwEwCwYD
VR0PBAQDAgWgMBgGA1UdEQQRMA+CDXRlYW00Mi1zZXJ2ZXIwDQYJKoZIhvcNAQEL
BQADggEBABJHqPE4AlgrHmhGjM98MAgLb1qULgB0a7Tb4gjVTWPd9SfAI0ku2Jwg
Shn8RtsRZ4bty0Y/8hgv9Uu0gl+78YxjC96DtMsQxpecRzNRzJyKuK/83HFbkY6Y
gtoj56QnO3viQUzZU0P5smEs/ljan9cESnUasEfeQja0+2r2/n/uNMEFeCfieu9V
3TK19J4OkPGE/149qTk2SFvDZ8fEg9kfI0sXcPFqZI3/hITqhUZYSIvZTYb9W6Yn
AgXN54fRE5x2LR68ptkNwHxKsCFlRLUVLUIbK8UyhPVR8ixkbO04PwbNNaFxdViU
bh5XQk5kd1u7bu1GddriwPfeNGwdhnc=
-----END CERTIFICATE-----
