Certificate:
    Data:
        Version: 3 (0x2)
        Serial Number:
            8d:c4:95:a4:85:85:07:d2:bf:b3:ca:63:7a:f6:ee:03
        Signature Algorithm: sha256WithRSAEncryption
        Issuer: CN=team42-net
        Validity
            Not Before: May 18 14:15:00 2022 GMT
            Not After : May  2 14:15:00 2025 GMT
        Subject: CN=team42-client
        Subject Public Key Info:
            Public Key Algorithm: rsaEncryption
                RSA Public-Key: (2048 bit)
                Modulus:
                    00:d6:95:6e:07:c7:85:a5:d3:c3:0f:5f:ac:d4:2a:
                    76:6f:45:29:e9:1c:6f:53:c6:da:d8:4d:9c:fc:6c:
                    f9:70:49:17:f7:70:fc:09:65:e1:3a:f2:74:0c:13:
                    c6:cf:e5:84:45:bd:57:87:15:1e:01:23:db:e9:ce:
                    4f:a9:f9:1f:a7:3c:cd:8f:65:86:56:6a:90:35:0e:
                    f1:ea:16:a8:99:47:e0:64:a2:74:7e:30:b1:f6:0a:
                    06:2b:52:68:3c:db:4c:ee:7d:e6:ff:ba:d7:7b:6f:
                    b2:1d:a0:ea:66:d2:8e:83:ac:49:61:e0:c7:1c:fa:
                    86:f5:12:0d:a8:81:59:cd:13:ce:cc:1b:04:81:be:
                    52:aa:a4:f0:13:22:d1:f3:e6:6d:f8:2c:2f:77:ba:
                    c9:ca:2f:65:03:fc:5b:ab:b7:b1:a0:77:e1:b4:2f:
                    90:a6:9c:98:e1:82:14:fc:90:ad:30:6b:fc:70:e4:
                    11:aa:71:20:f2:79:53:5b:c2:85:4e:3b:36:c4:90:
                    ac:b4:8c:52:98:40:9f:53:ea:98:6a:dd:19:ce:de:
                    ba:59:c2:6f:87:86:a0:cf:4c:f8:e9:d4:81:db:2f:
                    ba:3d:6d:a3:e4:0d:7e:4a:44:74:7b:78:b1:14:1e:
                    07:38:fd:c8:de:83:2d:85:eb:83:69:3d:cf:75:b0:
                    ac:4d
                Exponent: 65537 (0x10001)
        X509v3 extensions:
            X509v3 Basic Constraints: 
                CA:FALSE
            X509v3 Subject Key Identifier: 
                43:C7:14:44:30:99:E4:BF:A4:D1:08:79:C2:3E:9C:07:A0:55:94:96
            X509v3 Authority Key Identifier: 
                keyid:B2:4D:5A:1D:47:3C:AD:EB:25:1F:DD:DC:0B:55:06:94:7F:CF:A7:7A
                DirName:/CN=team42-net
                serial:54:3D:9D:58:26:B7:62:B7:0D:0A:43:ED:DF:8E:8B:36:79:7C:CF:19

            X509v3 Extended Key Usage: 
                TLS Web Client Authentication
            X509v3 Key Usage: 
                Digital Signature
    Signature Algorithm: sha256WithRSAEncryption
         1a:35:27:3c:e0:a6:8d:e4:32:45:fa:d1:ad:7d:f3:c0:27:59:
         ed:f2:1b:1e:77:38:97:99:89:08:d3:9c:11:a8:5e:9e:48:45:
         ea:bc:38:e9:3b:3b:ea:b2:45:3b:43:21:08:e8:75:15:91:83:
         99:b3:fc:3b:e8:34:1a:2a:39:8f:51:04:2d:2f:d3:6d:e6:78:
         d8:7e:cf:2d:2a:5b:82:5f:3c:f8:d9:40:c9:7f:69:f0:ff:1c:
         0d:4a:fc:c1:e2:2f:c5:3e:93:9c:0a:de:39:10:8e:04:33:50:
         61:94:82:b4:65:c8:5b:62:f2:1a:39:b9:72:74:e7:3e:dd:fc:
         66:fe:af:17:74:d2:ad:4c:e5:27:48:44:ff:50:7b:7b:31:2b:
         bd:f8:50:da:59:fd:36:48:85:0d:11:82:62:5b:9a:3e:53:6e:
         07:3c:25:0f:e3:05:6b:37:43:0d:6e:3f:22:39:df:54:73:65:
         1c:7a:76:83:d7:7f:35:ad:13:bc:fb:1e:6b:f5:52:51:20:b6:
         ed:0e:09:a3:ce:23:5a:8e:6c:57:8c:3b:3d:97:e0:bb:33:00:
         a2:80:9e:4e:0a:18:b8:fe:98:02:6e:87:d9:32:bf:24:d3:d7:
         5d:0b:dd:23:40:7a:13:fc:b7:55:2a:9c:77:95:1b:99:06:63:
         e4:c6:a9:3a
-----BEGIN CERTIFICATE-----
MIIDWjCCAkKgAwIBAgIRAI3ElaSFhQfSv7PKY3r27gMwDQYJKoZIhvcNAQELBQAw
FTETMBEGA1UEAwwKdGVhbTQyLW5ldDAeFw0yMjA1MTgxNDE1MDBaFw0yNTA1MDIx
NDE1MDBaMBgxFjAUBgNVBAMMDXRlYW00Mi1jbGllbnQwggEiMA0GCSqGSIb3DQEB
AQUAA4IBDwAwggEKAoIBAQDWlW4Hx4Wl08MPX6zUKnZvRSnpHG9TxtrYTZz8bPlw
SRf3cPwJZeE68nQME8bP5YRFvVeHFR4BI9vpzk+p+R+nPM2PZYZWapA1DvHqFqiZ
R+BkonR+MLH2CgYrUmg820zufeb/utd7b7IdoOpm0o6DrElh4Mcc+ob1Eg2ogVnN
E87MGwSBvlKqpPATItHz5m34LC93usnKL2UD/Furt7Ggd+G0L5CmnJjhghT8kK0w
a/xw5BGqcSDyeVNbwoVOOzbEkKy0jFKYQJ9T6phq3RnO3rpZwm+HhqDPTPjp1IHb
L7o9baPkDX5KRHR7eLEUHgc4/cjegy2F64NpPc91sKxNAgMBAAGjgaEwgZ4wCQYD
VR0TBAIwADAdBgNVHQ4EFgQUQ8cURDCZ5L+k0Qh5wj6cB6BVlJYwUAYDVR0jBEkw
R4AUsk1aHUc8reslH93cC1UGlH/Pp3qhGaQXMBUxEzARBgNVBAMMCnRlYW00Mi1u
ZXSCFFQ9nVgmt2K3DQpD7d+OizZ5fM8ZMBMGA1UdJQQMMAoGCCsGAQUFBwMCMAsG
A1UdDwQEAwIHgDANBgkqhkiG9w0BAQsFAAOCAQEAGjUnPOCmjeQyRfrRrX3zwCdZ
7fIbHnc4l5mJCNOcEahenkhF6rw46Ts76rJFO0MhCOh1FZGDmbP8O+g0Gio5j1EE
LS/TbeZ42H7PLSpbgl88+NlAyX9p8P8cDUr8weIvxT6TnAreORCOBDNQYZSCtGXI
W2LyGjm5cnTnPt38Zv6vF3TSrUzlJ0hE/1B7ezErvfhQ2ln9NkiFDRGCYluaPlNu
BzwlD+MFazdDDW4/IjnfVHNlHHp2g9d/Na0TvPsea/VSUSC27Q4Jo84jWo5sV4w7
PZfguzMAooCeTgoYuP6YAm6H2TK/JNPXXQvdI0B6E/y3VSqcd5UbmQZj5MapOg==
-----END CERTIFICATE-----
