Certificate:
    Data:
        Version: 3 (0x2)
        Serial Number:
            85:d0:15:4a:f0:54:d5:dd:c0:d8:47:69:32:61:fe:61
        Signature Algorithm: sha256WithRSAEncryption
        Issuer: CN=team161-net
        Validity
            Not Before: May 18 18:46:31 2022 GMT
            Not After : May  2 18:46:31 2025 GMT
        Subject: CN=team161-server
        Subject Public Key Info:
            Public Key Algorithm: rsaEncryption
                RSA Public-Key: (2048 bit)
                Modulus:
                    00:cd:0c:f4:a9:b6:3c:b2:0e:c6:ea:00:04:f0:b2:
                    90:11:b4:ca:35:72:c1:ec:a4:69:28:e3:91:19:36:
                    f6:a9:d7:99:71:a5:86:ad:ab:53:ad:3e:21:f4:06:
                    d3:26:11:e2:d2:a7:a0:a9:40:e3:84:b3:0c:7f:a2:
                    13:8c:f0:6d:ff:f7:2d:c4:cb:36:fe:0c:83:df:c9:
                    2c:ca:b7:c9:8b:a9:e3:25:06:75:1b:f5:a3:43:e8:
                    01:3d:9b:7b:a9:72:51:6a:e3:cf:29:05:8b:11:62:
                    e8:03:67:83:8a:e7:fa:60:1c:d4:7e:27:9b:de:06:
                    cb:2f:b4:88:38:8e:f5:44:05:1e:59:64:e3:56:23:
                    66:5f:e5:c3:8b:93:96:10:ed:10:7b:82:3e:01:b2:
                    ab:dd:08:12:fb:df:92:da:6e:04:61:58:13:d9:80:
                    2d:4f:65:d3:58:e9:61:67:99:07:7d:46:c2:e9:fe:
                    d7:c4:21:5d:97:7b:9c:2b:04:32:7f:c6:e6:10:a8:
                    7e:76:e4:39:47:da:69:4d:17:b2:59:ca:2c:9a:50:
                    fd:0b:82:7b:c7:26:3e:01:e9:9c:81:2d:37:eb:cc:
                    27:7f:54:66:16:95:ac:9c:fb:54:98:a9:0c:5b:6f:
                    cf:ac:2b:e1:44:0b:14:55:52:71:cb:1d:bd:62:58:
                    79:d9
                Exponent: 65537 (0x10001)
        X509v3 extensions:
            X509v3 Basic Constraints: 
                CA:FALSE
            X509v3 Subject Key Identifier: 
                9A:E6:6E:E8:80:93:B5:BC:BE:64:C1:51:EB:A3:EE:84:14:AC:26:26
            X509v3 Authority Key Identifier: 
                keyid:17:40:F4:74:5C:84:89:D2:77:75:14:10:F6:B8:6E:C9:F4:60:19:D0
                DirName:/CN=team161-net
                serial:0C:FC:B0:FA:94:09:5E:E1:9C:41:5B:D7:86:08:C8:1E:67:27:3F:11

            X509v3 Extended Key Usage: 
                TLS Web Server Authentication
            X509v3 Key Usage: 
                Digital Signature, Key Encipherment
            X509v3 Subject Alternative Name: 
                DNS:team161-server
    Signature Algorithm: sha256WithRSAEncryption
         1a:d6:6d:33:fd:ae:31:69:84:ed:2a:9b:e5:23:47:b4:f1:2e:
         00:46:2b:47:1c:45:46:a7:fc:8f:ca:76:db:00:9b:ec:ec:8b:
         de:85:62:27:a3:54:8f:15:06:a8:9c:69:10:2c:a2:66:d9:17:
         c5:36:83:78:a7:13:3a:56:08:8d:e0:59:b7:69:cc:90:30:c4:
         ca:c5:3c:82:d4:21:d7:cf:2e:69:6c:40:da:ec:4f:a4:65:d8:
         a8:95:5b:5d:c8:ff:c9:99:68:ba:fb:0a:e2:82:dd:ee:ea:9b:
         d7:fb:84:66:5f:30:79:9c:65:c5:c3:ec:f0:5a:b9:ec:01:e5:
         77:71:53:fd:2e:4b:24:ba:a6:35:52:a1:85:1f:54:d2:79:24:
         24:67:98:6c:ba:b4:7b:a2:28:74:92:6e:c5:50:94:4a:53:ec:
         ff:10:fd:09:4c:37:35:f1:16:93:dc:87:7a:06:c1:2f:95:02:
         73:57:0b:ad:83:d9:bf:37:82:a3:6a:16:85:95:ba:df:09:e8:
         3d:81:fe:0a:40:99:a9:19:6b:d9:92:72:3d:ad:0e:60:9f:42:
         1d:a8:dc:73:a6:06:b6:f3:8c:77:1b:4c:49:b6:de:6b:62:53:
         dc:f5:08:72:ea:c2:6a:ad:cf:80:ab:29:05:da:df:4f:73:bc:
         ef:10:c9:b9
-----BEGIN CERTIFICATE-----
MIIDeDCCAmCgAwIBAgIRAIXQFUrwVNXdwNhHaTJh/mEwDQYJKoZIhvcNAQELBQAw
FjEUMBIGA1UEAwwLdGVhbTE2MS1uZXQwHhcNMjIwNTE4MTg0NjMxWhcNMjUwNTAy
MTg0NjMxWjAZMRcwFQYDVQQDDA50ZWFtMTYxLXNlcnZlcjCCASIwDQYJKoZIhvcN
AQEBBQADggEPADCCAQoCggEBAM0M9Km2PLIOxuoABPCykBG0yjVyweykaSjjkRk2
9qnXmXGlhq2rU60+IfQG0yYR4tKnoKlA44SzDH+iE4zwbf/3LcTLNv4Mg9/JLMq3
yYup4yUGdRv1o0PoAT2be6lyUWrjzykFixFi6ANng4rn+mAc1H4nm94Gyy+0iDiO
9UQFHllk41YjZl/lw4uTlhDtEHuCPgGyq90IEvvfktpuBGFYE9mALU9l01jpYWeZ
B31Gwun+18QhXZd7nCsEMn/G5hCofnbkOUfaaU0XslnKLJpQ/QuCe8cmPgHpnIEt
N+vMJ39UZhaVrJz7VJipDFtvz6wr4UQLFFVSccsdvWJYedkCAwEAAaOBvTCBujAJ
BgNVHRMEAjAAMB0GA1UdDgQWBBSa5m7ogJO1vL5kwVHro+6EFKwmJjBRBgNVHSME
SjBIgBQXQPR0XISJ0nd1FBD2uG7J9GAZ0KEapBgwFjEUMBIGA1UEAwwLdGVhbTE2
MS1uZXSCFAz8sPqUCV7hnEFb14YIyB5nJz8RMBMGA1UdJQQMMAoGCCsGAQUFBwMB
MAsGA1UdDwQEAwIFoDAZBgNVHREEEjAQgg50ZWFtMTYxLXNlcnZlcjANBgkqhkiG
9w0BAQsFAAOCAQEAGtZtM/2uMWmE7Sqb5SNHtPEuAEYrRxxFRqf8j8p22wCb7OyL
3oViJ6NUjxUGqJxpECyiZtkXxTaDeKcTOlYIjeBZt2nMkDDEysU8gtQh188uaWxA
2uxPpGXYqJVbXcj/yZlouvsK4oLd7uqb1/uEZl8weZxlxcPs8Fq57AHld3FT/S5L
JLqmNVKhhR9U0nkkJGeYbLq0e6IodJJuxVCUSlPs/xD9CUw3NfEWk9yHegbBL5UC
c1cLrYPZvzeCo2oWhZW63wnoPYH+CkCZqRlr2ZJyPa0OYJ9CHajcc6YGtvOMdxtM
Sbbea2JT3PUIcurCaq3PgKspBdrfT3O87xDJuQ==
-----END CERTIFICATE-----
