Certificate:
    Data:
        Version: 3 (0x2)
        Serial Number:
            d6:35:49:6e:0e:0e:f4:25:8b:19:d2:3e:38:bc:07:82
        Signature Algorithm: sha256WithRSAEncryption
        Issuer: CN=team724-net
        Validity
            Not Before: May 18 23:46:25 2022 GMT
            Not After : May  2 23:46:25 2025 GMT
        Subject: CN=team724-server
        Subject Public Key Info:
            Public Key Algorithm: rsaEncryption
                RSA Public-Key: (2048 bit)
                Modulus:
                    00:b8:4a:7a:11:1e:db:55:f3:21:30:06:57:33:df:
                    1a:24:da:7c:29:1c:5e:1c:2b:bf:68:3a:8b:0a:ca:
                    3b:98:32:76:d2:96:09:d5:c9:d7:77:df:26:34:17:
                    84:71:c7:ea:a0:03:6e:8c:5a:d6:37:2b:a1:cd:ca:
                    ad:92:54:43:d2:f5:1b:62:3f:64:8b:f9:72:8d:49:
                    cb:89:88:15:02:6e:28:cf:ea:a3:2d:8e:01:4e:91:
                    7c:e7:1f:69:c5:31:ac:58:0b:59:d1:70:7a:b0:e1:
                    cc:5f:68:75:29:7b:ca:fb:2b:91:b7:5c:18:83:d6:
                    48:7d:41:10:ab:35:98:f4:35:e4:c9:48:80:ab:21:
                    52:65:51:c7:52:8f:65:bb:00:9b:68:c3:c0:21:8c:
                    80:b0:33:21:f4:e7:ea:18:ba:45:48:54:78:54:cc:
                    6d:aa:f6:ee:57:b1:c8:57:04:0e:c9:47:4e:f2:f9:
                    7d:10:1d:4a:89:09:51:09:32:9c:4a:7e:6d:8c:79:
                    61:fa:79:61:9c:fd:34:e9:13:ef:6b:c6:b0:aa:1c:
                    c5:01:ee:93:72:43:e8:1d:bf:1b:47:75:57:33:12:
                    98:f3:2b:32:d7:20:9f:8d:da:78:a3:b5:6f:d1:2e:
                    59:14:9c:df:f9:5b:87:7d:48:00:46:3e:7c:96:65:
                    ce:cf
                Exponent: 65537 (0x10001)
        X509v3 extensions:
            X509v3 Basic Constraints: 
                CA:FALSE
            X509v3 Subject Key Identifier: 
                B1:BE:F8:C6:A0:B3:15:1E:00:E1:B5:F4:55:BE:0E:C9:CD:3E:32:FC
            X509v3 Authority Key Identifier: 
                keyid:FB:D9:51:92:4A:1F:BA:6F:9E:60:B5:94:84:03:2A:F8:81:11:39:DE
                DirName:/CN=team724-net
                serial:6D:E3:59:81:24:AA:22:04:26:2B:A0:C7:42:1F:CD:10:14:A4:06:BC

            X509v3 Extended Key Usage: 
                TLS Web Server Authentication
            X509v3 Key Usage: 
                Digital Signature, Key Encipherment
            X509v3 Subject Alternative Name: 
                DNS:team724-server
    Signature Algorithm: sha256WithRSAEncryption
         42:6a:c5:62:4a:c0:f3:4e:31:a1:18:5e:af:8a:83:f7:4c:03:
         46:6e:15:87:82:39:ea:e8:c5:60:62:ac:f9:7f:86:49:22:18:
         6c:93:ab:d9:32:4c:3c:5c:b8:e3:e6:74:56:17:b2:0d:8e:88:
         bf:c7:68:f6:2e:f0:3d:0a:80:d1:27:a6:82:95:8d:ba:20:9e:
         05:03:17:33:fc:62:77:0c:9c:a5:7f:a9:c8:b3:9a:89:3e:89:
         de:1b:e4:59:e5:45:16:dc:b8:e1:4f:cd:16:34:6c:59:41:62:
         e3:90:3d:ba:e5:36:33:b6:18:d9:aa:bb:45:91:ce:e8:8d:e1:
         7e:54:31:92:89:e4:62:4d:18:73:35:41:05:44:28:f8:2c:08:
         d6:88:a0:77:e8:30:af:74:19:d4:e3:a5:86:8c:f1:83:bf:bb:
         17:8e:71:93:9a:69:60:47:a7:a3:8a:0a:c9:38:bd:74:44:b7:
         0f:f4:f1:9f:76:58:29:2f:e3:63:24:4b:cb:56:fd:80:4a:28:
         df:67:f8:aa:fa:e5:62:06:ad:36:cc:31:96:45:d8:60:85:a4:
         11:76:c4:2f:77:87:0e:5e:64:30:e4:e4:f8:2f:7f:eb:70:9f:
         70:aa:eb:2a:ed:46:7d:9e:31:a3:06:83:ae:11:d5:47:22:51:
         04:70:fa:5a
-----BEGIN CERTIFICATE-----
MIIDeDCCAmCgAwIBAgIRANY1SW4ODvQlixnSPji8B4IwDQYJKoZIhvcNAQELBQAw
FjEUMBIGA1UEAwwLdGVhbTcyNC1uZXQwHhcNMjIwNTE4MjM0NjI1WhcNMjUwNTAy
MjM0NjI1WjAZMRcwFQYDVQQDDA50ZWFtNzI0LXNlcnZlcjCCASIwDQYJKoZIhvcN
AQEBBQADggEPADCCAQoCggEBALhKehEe21XzITAGVzPfGiTafCkcXhwrv2g6iwrK
O5gydtKWCdXJ13ffJjQXhHHH6qADboxa1jcroc3KrZJUQ9L1G2I/ZIv5co1Jy4mI
FQJuKM/qoy2OAU6RfOcfacUxrFgLWdFwerDhzF9odSl7yvsrkbdcGIPWSH1BEKs1
mPQ15MlIgKshUmVRx1KPZbsAm2jDwCGMgLAzIfTn6hi6RUhUeFTMbar27lexyFcE
DslHTvL5fRAdSokJUQkynEp+bYx5Yfp5YZz9NOkT72vGsKocxQHuk3JD6B2/G0d1
VzMSmPMrMtcgn43aeKO1b9EuWRSc3/lbh31IAEY+fJZlzs8CAwEAAaOBvTCBujAJ
BgNVHRMEAjAAMB0GA1UdDgQWBBSxvvjGoLMVHgDhtfRVvg7JzT4y/DBRBgNVHSME
SjBIgBT72VGSSh+6b55gtZSEAyr4gRE53qEapBgwFjEUMBIGA1UEAwwLdGVhbTcy
NC1uZXSCFG3jWYEkqiIEJiugx0IfzRAUpAa8MBMGA1UdJQQMMAoGCCsGAQUFBwMB
MAsGA1UdDwQEAwIFoDAZBgNVHREEEjAQgg50ZWFtNzI0LXNlcnZlcjANBgkqhkiG
9w0BAQsFAAOCAQEAQmrFYkrA804xoRher4qD90wDRm4Vh4I56ujFYGKs+X+GSSIY
bJOr2TJMPFy44+Z0VheyDY6Iv8do9i7wPQqA0SemgpWNuiCeBQMXM/xidwycpX+p
yLOaiT6J3hvkWeVFFty44U/NFjRsWUFi45A9uuU2M7YY2aq7RZHO6I3hflQxkonk
Yk0YczVBBUQo+CwI1oigd+gwr3QZ1OOlhozxg7+7F45xk5ppYEeno4oKyTi9dES3
D/Txn3ZYKS/jYyRLy1b9gEoo32f4qvrlYgatNswxlkXYYIWkEXbEL3eHDl5kMOTk
+C9/63CfcKrrKu1GfZ4xowaDrhHVRyJRBHD6Wg==
-----END CERTIFICATE-----
