Certificate:
    Data:
        Version: 3 (0x2)
        Serial Number:
            b5:48:d7:f9:84:cc:90:3a:07:6b:d7:77:31:46:f9:4e
        Signature Algorithm: sha256WithRSAEncryption
        Issuer: CN=team407-net
        Validity
            Not Before: May 18 20:51:24 2022 GMT
            Not After : May  2 20:51:24 2025 GMT
        Subject: CN=team407-client
        Subject Public Key Info:
            Public Key Algorithm: rsaEncryption
                RSA Public-Key: (2048 bit)
                Modulus:
                    00:cb:46:ca:e6:a9:48:e2:5b:6a:8c:32:87:e2:39:
                    44:43:cb:f5:b4:16:66:23:67:b5:90:ff:89:0c:9d:
                    50:de:06:da:46:f6:20:86:fb:60:e9:47:fc:2c:d8:
                    51:6d:af:07:3a:e7:09:14:a5:68:2f:2f:8e:35:e8:
                    15:17:79:90:bf:7a:71:ca:24:03:ce:ce:e0:3b:c7:
                    81:c3:be:18:01:e5:2a:08:72:a3:9b:84:02:73:c9:
                    1b:b7:8e:5f:07:a6:57:63:b3:9e:c2:17:28:f5:f1:
                    7c:0f:e9:9a:06:b9:e4:7a:35:e4:41:f6:cf:ad:ee:
                    ac:6d:c4:6e:54:aa:f6:3c:51:aa:f6:5d:ee:5a:c1:
                    d3:4f:04:e5:13:15:7e:4b:20:49:13:72:51:fd:82:
                    cf:f2:ae:8c:95:8c:06:cc:9c:13:ae:95:81:b7:2c:
                    c1:70:d8:bd:95:ab:6b:bb:76:11:5e:07:2c:b2:9b:
                    aa:3d:ff:02:be:ea:c1:f0:e5:36:9e:d9:2e:f5:c6:
                    4e:e5:c3:52:d1:e2:95:06:b4:86:bb:22:71:10:e7:
                    f6:27:2f:82:44:f7:7f:9a:00:f6:51:69:ef:ac:df:
                    27:16:1d:f4:4c:bb:22:44:e5:0d:3d:8c:93:7c:d6:
                    8f:8f:08:c0:b5:93:7c:85:14:55:e0:b3:0c:dc:d0:
                    34:1d
                Exponent: 65537 (0x10001)
        X509v3 extensions:
            X509v3 Basic Constraints: 
                CA:FALSE
            X509v3 Subject Key Identifier: 
                81:29:B2:C5:8F:75:B4:63:71:6C:34:56:83:AC:62:34:CC:8B:AD:2A
            X509v3 Authority Key Identifier: 
                keyid:20:FA:36:28:D6:3A:87:46:B6:59:FE:C5:30:E4:F2:38:5D:6B:B5:15
                DirName:/CN=team407-net
                serial:49:F9:81:3B:6B:CB:9B:4D:8D:97:E3:ED:7D:A8:F0:0F:9F:0A:AE:F8

            X509v3 Extended Key Usage: 
                TLS Web Client Authentication
            X509v3 Key Usage: 
                Digital Signature
    Signature Algorithm: sha256WithRSAEncryption
         1e:2b:af:79:d6:32:b4:68:2f:af:36:a1:b0:95:27:d7:bf:dd:
         ef:da:f6:fa:24:a3:bf:59:f3:d0:ae:1b:ff:59:81:62:c9:77:
         0f:7a:94:44:e7:95:86:b0:a6:62:c9:73:31:01:ef:df:cc:4e:
         ba:c9:89:7e:4f:1e:25:01:52:c0:f2:30:6d:9e:98:6a:98:14:
         57:db:05:73:1c:32:94:53:01:f2:04:4e:a5:5d:16:4d:c8:c7:
         bc:b6:99:ad:d1:a0:e5:3a:c1:16:22:49:b6:b5:ad:84:6a:e4:
         42:3f:23:92:e9:39:56:c1:6f:9b:78:0f:ea:56:43:9b:9c:63:
         93:02:af:06:78:6b:fb:df:26:86:16:f6:6c:8e:98:f1:b6:b6:
         af:b3:62:87:43:d7:67:fe:4b:02:18:af:11:ea:e8:88:78:7f:
         51:67:2a:9b:35:21:9d:c1:22:03:05:4a:57:4c:27:fd:93:39:
         e7:00:cd:82:82:7b:49:53:bb:ea:b2:68:60:da:7f:d4:13:ce:
         50:fc:81:51:a0:37:b1:20:eb:f4:79:85:8d:9b:0c:bf:a4:7c:
         11:b7:01:ac:5c:1c:92:0b:ec:3b:a3:ad:9f:05:89:88:62:9e:
         09:46:df:d3:39:2a:e5:4b:97:6d:9f:47:45:61:9a:1f:f6:1d:
         16:89:90:0f
-----BEGIN CERTIFICATE-----
MIIDXTCCAkWgAwIBAgIRALVI1/mEzJA6B2vXdzFG+U4wDQYJKoZIhvcNAQELBQAw
FjEUMBIGA1UEAwwLdGVhbTQwNy1uZXQwHhcNMjIwNTE4MjA1MTI0WhcNMjUwNTAy
MjA1MTI0WjAZMRcwFQYDVQQDDA50ZWFtNDA3LWNsaWVudDCCASIwDQYJKoZIhvcN
AQEBBQADggEPADCCAQoCggEBAMtGyuapSOJbaowyh+I5REPL9bQWZiNntZD/iQyd
UN4G2kb2IIb7YOlH/CzYUW2vBzrnCRSlaC8vjjXoFRd5kL96ccokA87O4DvHgcO+
GAHlKghyo5uEAnPJG7eOXwemV2OznsIXKPXxfA/pmga55Ho15EH2z63urG3EblSq
9jxRqvZd7lrB008E5RMVfksgSRNyUf2Cz/KujJWMBsycE66VgbcswXDYvZWra7t2
EV4HLLKbqj3/Ar7qwfDlNp7ZLvXGTuXDUtHilQa0hrsicRDn9icvgkT3f5oA9lFp
76zfJxYd9Ey7IkTlDT2Mk3zWj48IwLWTfIUUVeCzDNzQNB0CAwEAAaOBojCBnzAJ
BgNVHRMEAjAAMB0GA1UdDgQWBBSBKbLFj3W0Y3FsNFaDrGI0zIutKjBRBgNVHSME
SjBIgBQg+jYo1jqHRrZZ/sUw5PI4XWu1FaEapBgwFjEUMBIGA1UEAwwLdGVhbTQw
Ny1uZXSCFEn5gTtry5tNjZfj7X2o8A+fCq74MBMGA1UdJQQMMAoGCCsGAQUFBwMC
MAsGA1UdDwQEAwIHgDANBgkqhkiG9w0BAQsFAAOCAQEAHiuvedYytGgvrzahsJUn
17/d79r2+iSjv1nz0K4b/1mBYsl3D3qUROeVhrCmYslzMQHv38xOusmJfk8eJQFS
wPIwbZ6YapgUV9sFcxwylFMB8gROpV0WTcjHvLaZrdGg5TrBFiJJtrWthGrkQj8j
kuk5VsFvm3gP6lZDm5xjkwKvBnhr+98mhhb2bI6Y8ba2r7Nih0PXZ/5LAhivEero
iHh/UWcqmzUhncEiAwVKV0wn/ZM55wDNgoJ7SVO76rJoYNp/1BPOUPyBUaA3sSDr
9HmFjZsMv6R8EbcBrFwckgvsO6OtnwWJiGKeCUbf0zkq5UuXbZ9HRWGaH/YdFomQ
Dw==
-----END CERTIFICATE-----
