Certificate:
    Data:
        Version: 3 (0x2)
        Serial Number:
            1c:b4:b0:af:f9:58:42:21:b9:41:ed:79:d2:d9:c7:b2
        Signature Algorithm: sha256WithRSAEncryption
        Issuer: CN=team33-net
        Validity
            Not Before: May 18 14:09:26 2022 GMT
            Not After : May  2 14:09:26 2025 GMT
        Subject: CN=team33-client
        Subject Public Key Info:
            Public Key Algorithm: rsaEncryption
                RSA Public-Key: (2048 bit)
                Modulus:
                    00:9f:d8:98:be:9a:01:44:2e:7c:65:b5:16:f8:66:
                    64:93:33:a0:30:1b:ae:59:02:7b:15:11:e0:d7:c3:
                    dd:1e:69:7a:41:3a:8d:ef:3f:1b:eb:14:f5:83:73:
                    6b:a4:7c:02:96:89:f0:c7:c7:c0:9e:7d:a8:24:fe:
                    cb:72:98:22:9e:23:28:da:03:dd:01:dc:55:32:a1:
                    f3:0d:4f:1c:ae:7b:14:6f:0d:90:b0:2b:a9:72:ec:
                    c7:4d:22:2c:4c:ca:2f:cb:ad:10:9d:02:fb:19:94:
                    d6:b1:fa:a2:cf:7a:07:44:7a:1e:d0:ed:fe:11:3a:
                    da:37:e3:b3:dd:16:12:b6:f9:5a:43:69:7e:76:be:
                    aa:6d:9d:ea:48:ae:f0:dc:32:a0:70:ab:ec:67:cc:
                    13:1e:ae:6c:6f:6a:48:0c:38:29:dc:5b:45:db:f7:
                    b4:50:43:79:2b:49:c3:b7:ed:a1:9c:ff:95:a3:88:
                    16:8f:63:be:c4:e6:cd:b3:51:89:41:21:a9:1f:4d:
                    ce:5a:4e:50:53:69:64:42:e7:a1:02:66:e5:3c:1e:
                    ca:b0:e4:80:27:65:f4:af:5d:cb:c2:bf:9a:6d:7e:
                    96:95:ac:0e:c9:1b:2a:e6:87:e0:cb:4d:a9:1d:c3:
                    38:ab:c1:6d:0d:c5:da:15:e0:79:4b:4c:3f:c1:d7:
                    8e:97
                Exponent: 65537 (0x10001)
        X509v3 extensions:
            X509v3 Basic Constraints: 
                CA:FALSE
            X509v3 Subject Key Identifier: 
                7B:29:C1:EA:0A:CC:99:6A:FE:0E:E8:4B:B4:B4:2E:DB:77:11:D0:B1
            X509v3 Authority Key Identifier: 
                keyid:AD:7C:09:C8:EF:96:B1:5E:AE:A6:14:1B:54:B0:43:1D:B0:B2:70:A3
                DirName:/CN=team33-net
                serial:6F:96:70:A4:BA:44:91:61:DE:C4:30:E0:C0:D6:5C:18:0B:98:54:AF

            X509v3 Extended Key Usage: 
                TLS Web Client Authentication
            X509v3 Key Usage: 
                Digital Signature
    Signature Algorithm: sha256WithRSAEncryption
         2b:3a:9a:38:5b:60:28:54:a4:91:0e:ed:cb:34:ba:e0:b6:84:
         0a:4a:e9:79:19:70:8d:af:67:0a:ef:d7:3f:e7:93:11:45:ee:
         f0:99:63:3d:03:c8:cb:3b:6f:a5:61:cd:66:62:51:ac:04:8d:
         18:f0:b8:3a:a2:34:7a:42:e6:0c:f7:34:f2:53:8f:be:43:dc:
         a9:95:17:a4:dd:9b:45:b7:4e:7e:54:38:43:77:b0:17:f4:98:
         30:ca:19:0e:e3:4a:b8:9d:36:81:52:13:4d:cc:57:5f:b1:07:
         ea:65:4a:5f:1f:9b:a3:f4:4d:8d:3a:9f:f2:9f:9a:84:64:b4:
         61:c9:f8:16:36:55:d6:09:6a:b9:b7:a3:f3:d4:1f:da:2e:bf:
         41:0e:b3:c4:44:c2:d0:44:ab:9b:05:01:aa:fe:51:44:35:47:
         93:65:76:08:f3:30:26:cc:a6:4c:5e:67:d8:a9:ae:d4:3b:38:
         f9:5d:c4:ea:0c:e9:1e:69:f3:e4:8d:da:32:ea:98:3d:d4:68:
         96:99:23:fd:91:89:7e:10:1a:a2:ec:e0:c2:e9:74:59:98:f2:
         6a:ac:83:27:9d:91:d9:7d:c2:98:b1:62:3c:9d:d3:b8:94:5f:
         24:7d:d1:de:28:0c:fe:a8:70:0e:d7:de:7a:05:28:b5:72:47:
         29:e6:40:bd
-----BEGIN CERTIFICATE-----
MIIDWTCCAkGgAwIBAgIQHLSwr/lYQiG5Qe150tnHsjANBgkqhkiG9w0BAQsFADAV
MRMwEQYDVQQDDAp0ZWFtMzMtbmV0MB4XDTIyMDUxODE0MDkyNloXDTI1MDUwMjE0
MDkyNlowGDEWMBQGA1UEAwwNdGVhbTMzLWNsaWVudDCCASIwDQYJKoZIhvcNAQEB
BQADggEPADCCAQoCggEBAJ/YmL6aAUQufGW1FvhmZJMzoDAbrlkCexUR4NfD3R5p
ekE6je8/G+sU9YNza6R8ApaJ8MfHwJ59qCT+y3KYIp4jKNoD3QHcVTKh8w1PHK57
FG8NkLArqXLsx00iLEzKL8utEJ0C+xmU1rH6os96B0R6HtDt/hE62jfjs90WErb5
WkNpfna+qm2d6kiu8NwyoHCr7GfMEx6ubG9qSAw4KdxbRdv3tFBDeStJw7ftoZz/
laOIFo9jvsTmzbNRiUEhqR9NzlpOUFNpZELnoQJm5TweyrDkgCdl9K9dy8K/mm1+
lpWsDskbKuaH4MtNqR3DOKvBbQ3F2hXgeUtMP8HXjpcCAwEAAaOBoTCBnjAJBgNV
HRMEAjAAMB0GA1UdDgQWBBR7KcHqCsyZav4O6Eu0tC7bdxHQsTBQBgNVHSMESTBH
gBStfAnI75axXq6mFBtUsEMdsLJwo6EZpBcwFTETMBEGA1UEAwwKdGVhbTMzLW5l
dIIUb5ZwpLpEkWHexDDgwNZcGAuYVK8wEwYDVR0lBAwwCgYIKwYBBQUHAwIwCwYD
VR0PBAQDAgeAMA0GCSqGSIb3DQEBCwUAA4IBAQArOpo4W2AoVKSRDu3LNLrgtoQK
Sul5GXCNr2cK79c/55MRRe7wmWM9A8jLO2+lYc1mYlGsBI0Y8Lg6ojR6QuYM9zTy
U4++Q9yplRek3ZtFt05+VDhDd7AX9JgwyhkO40q4nTaBUhNNzFdfsQfqZUpfH5uj
9E2NOp/yn5qEZLRhyfgWNlXWCWq5t6Pz1B/aLr9BDrPERMLQRKubBQGq/lFENUeT
ZXYI8zAmzKZMXmfYqa7UOzj5XcTqDOkeafPkjdoy6pg91GiWmSP9kYl+EBqi7ODC
6XRZmPJqrIMnnZHZfcKYsWI8ndO4lF8kfdHeKAz+qHAO1956BSi1ckcp5kC9
-----END CERTIFICATE-----
