Certificate:
    Data:
        Version: 3 (0x2)
        Serial Number:
            ee:13:4c:9b:dd:f2:ba:b7:92:7a:65:dd:64:37:24:50
        Signature Algorithm: sha256WithRSAEncryption
        Issuer: CN=team298-net
        Validity
            Not Before: May 18 19:58:29 2022 GMT
            Not After : May  2 19:58:29 2025 GMT
        Subject: CN=team298-server
        Subject Public Key Info:
            Public Key Algorithm: rsaEncryption
                RSA Public-Key: (2048 bit)
                Modulus:
                    00:a9:44:b1:79:90:44:6e:ad:8f:3d:90:c8:ad:df:
                    cb:31:27:01:d3:3b:2d:9e:d7:28:4c:2b:e1:84:e9:
                    46:b3:a3:9f:9a:ea:be:44:6c:33:4e:40:86:99:ef:
                    34:09:43:c8:49:fe:93:0f:2a:4b:b0:d7:a1:74:0f:
                    8b:4e:05:0c:53:25:7e:8b:d2:ee:ae:09:d0:4b:e0:
                    20:a2:f8:a9:39:3a:59:d2:e5:f4:85:84:80:50:1f:
                    31:51:e5:9e:0a:d4:4e:ce:ed:69:ff:32:d9:24:37:
                    ce:21:f8:64:c8:49:dc:db:c9:49:ba:61:c4:55:e9:
                    fd:7d:b2:19:64:c2:49:2c:34:bc:5e:5c:56:55:80:
                    29:fc:88:b3:03:c3:f6:7d:dc:e7:50:d1:95:dd:f0:
                    f7:90:2d:aa:3e:a1:a2:c1:0c:e5:c5:76:01:e6:2e:
                    46:9c:43:8a:b2:3e:fe:86:49:bc:0a:ee:39:1f:68:
                    5c:5f:49:83:0e:5c:d0:5d:1b:54:94:18:d2:9b:f4:
                    69:2c:67:06:e9:1d:70:24:f2:c5:e7:43:d9:2c:61:
                    d6:da:8f:0e:51:01:cc:9b:e1:1a:bf:7b:c6:f5:64:
                    e0:69:e9:47:54:73:a1:f5:b3:25:55:8f:bb:f0:c3:
                    51:e4:eb:3b:b9:81:30:92:33:d4:8d:cf:30:02:0f:
                    44:bf
                Exponent: 65537 (0x10001)
        X509v3 extensions:
            X509v3 Basic Constraints: 
                CA:FALSE
            X509v3 Subject Key Identifier: 
                A9:DA:61:E8:3A:1F:31:14:72:98:45:B7:2D:F2:6C:87:C9:A9:EA:8F
            X509v3 Authority Key Identifier: 
                keyid:97:7E:C1:2B:3B:78:7C:E2:59:7C:42:35:B2:17:A8:04:7B:A3:B5:F8
                DirName:/CN=team298-net
                serial:0F:55:8C:29:BD:60:DB:5C:A0:9E:42:41:6C:B9:E8:A2:D2:95:0E:D4

            X509v3 Extended Key Usage: 
                TLS Web Server Authentication
            X509v3 Key Usage: 
                Digital Signature, Key Encipherment
            X509v3 Subject Alternative Name: 
                DNS:team298-server
    Signature Algorithm: sha256WithRSAEncryption
         31:2d:2e:bd:de:92:61:60:b7:cb:28:ed:44:3c:4e:db:56:c4:
         62:84:90:ad:fe:14:9b:48:f9:48:80:1d:ef:77:a6:01:f1:17:
         8e:ce:8c:28:8d:b9:87:1a:02:05:79:36:e1:7b:31:fb:24:db:
         55:b2:ca:5b:4d:92:69:27:89:fd:fe:00:19:96:3e:20:40:bd:
         f6:65:02:63:b0:d2:9a:8d:5f:08:55:37:8f:2a:9f:ee:67:04:
         72:22:89:cd:77:93:45:31:8d:13:15:da:9c:95:06:97:ed:6f:
         ce:dc:63:8f:a7:57:f2:75:dc:21:78:07:1d:ea:1e:bb:8c:a3:
         a2:ff:95:2c:6b:5e:00:d5:24:1e:26:b5:43:fe:da:a4:6d:f7:
         14:2e:0a:9f:9d:1b:f5:65:de:03:22:62:b5:80:03:93:be:fe:
         4d:2e:a1:85:11:83:48:7e:80:14:c6:a3:b5:db:25:65:50:49:
         64:53:f7:cc:3d:bb:6f:70:ac:5c:b5:d1:cd:21:a0:31:7f:00:
         4b:c9:db:e6:1b:9f:c3:c0:27:b4:2c:b8:15:00:17:14:fc:c6:
         3d:21:7d:d3:4c:1a:bd:c6:4f:59:7b:ce:6d:14:94:84:8d:6a:
         11:94:b4:80:77:e0:d5:72:98:6b:4e:5a:d9:a9:57:7c:95:01:
         68:c1:bc:6a
-----BEGIN CERTIFICATE-----
MIIDeDCCAmCgAwIBAgIRAO4TTJvd8rq3knpl3WQ3JFAwDQYJKoZIhvcNAQELBQAw
FjEUMBIGA1UEAwwLdGVhbTI5OC1uZXQwHhcNMjIwNTE4MTk1ODI5WhcNMjUwNTAy
MTk1ODI5WjAZMRcwFQYDVQQDDA50ZWFtMjk4LXNlcnZlcjCCASIwDQYJKoZIhvcN
AQEBBQADggEPADCCAQoCggEBAKlEsXmQRG6tjz2QyK3fyzEnAdM7LZ7XKEwr4YTp
RrOjn5rqvkRsM05AhpnvNAlDyEn+kw8qS7DXoXQPi04FDFMlfovS7q4J0EvgIKL4
qTk6WdLl9IWEgFAfMVHlngrUTs7taf8y2SQ3ziH4ZMhJ3NvJSbphxFXp/X2yGWTC
SSw0vF5cVlWAKfyIswPD9n3c51DRld3w95Atqj6hosEM5cV2AeYuRpxDirI+/oZJ
vAruOR9oXF9Jgw5c0F0bVJQY0pv0aSxnBukdcCTyxedD2Sxh1tqPDlEBzJvhGr97
xvVk4GnpR1RzofWzJVWPu/DDUeTrO7mBMJIz1I3PMAIPRL8CAwEAAaOBvTCBujAJ
BgNVHRMEAjAAMB0GA1UdDgQWBBSp2mHoOh8xFHKYRbct8myHyanqjzBRBgNVHSME
SjBIgBSXfsErO3h84ll8QjWyF6gEe6O1+KEapBgwFjEUMBIGA1UEAwwLdGVhbTI5
OC1uZXSCFA9VjCm9YNtcoJ5CQWy56KLSlQ7UMBMGA1UdJQQMMAoGCCsGAQUFBwMB
MAsGA1UdDwQEAwIFoDAZBgNVHREEEjAQgg50ZWFtMjk4LXNlcnZlcjANBgkqhkiG
9w0BAQsFAAOCAQEAMS0uvd6SYWC3yyjtRDxO21bEYoSQrf4Um0j5SIAd73emAfEX
js6MKI25hxoCBXk24Xsx+yTbVbLKW02SaSeJ/f4AGZY+IEC99mUCY7DSmo1fCFU3
jyqf7mcEciKJzXeTRTGNExXanJUGl+1vztxjj6dX8nXcIXgHHeoeu4yjov+VLGte
ANUkHia1Q/7apG33FC4Kn50b9WXeAyJitYADk77+TS6hhRGDSH6AFMajtdslZVBJ
ZFP3zD27b3CsXLXRzSGgMX8AS8nb5hufw8AntCy4FQAXFPzGPSF900wavcZPWXvO
bRSUhI1qEZS0gHfg1XKYa05a2alXfJUBaMG8ag==
-----END CERTIFICATE-----
