Certificate:
    Data:
        Version: 3 (0x2)
        Serial Number:
            0d:3c:37:fa:74:4c:5f:77:2d:39:86:27:d2:42:db:9e
        Signature Algorithm: sha256WithRSAEncryption
        Issuer: CN=team688-net
        Validity
            Not Before: May 18 23:26:14 2022 GMT
            Not After : May  2 23:26:14 2025 GMT
        Subject: CN=team688-server
        Subject Public Key Info:
            Public Key Algorithm: rsaEncryption
                RSA Public-Key: (2048 bit)
                Modulus:
                    00:bd:1a:56:e2:7f:38:d8:b4:d2:73:23:aa:1b:e2:
                    6f:c9:54:20:b0:05:25:35:29:f0:fa:64:1e:ff:24:
                    fb:e5:af:ee:3d:d5:d7:5e:8c:52:dd:bf:00:0b:ec:
                    7f:ae:a1:77:6f:ec:29:a2:3b:07:dd:6c:d5:b8:98:
                    19:bb:b7:02:bf:5f:4d:0d:9e:32:8d:89:e4:75:2b:
                    2c:88:0e:ea:6f:2b:99:49:b8:fd:a6:9f:7a:a4:46:
                    5e:b2:0e:35:a1:79:45:26:6b:84:c8:51:ad:23:03:
                    e4:4f:a9:2c:08:87:fc:0a:d0:d2:e1:f0:2e:4a:ff:
                    f4:fe:e6:32:26:18:12:bc:a1:c0:6e:30:9d:b0:a6:
                    af:6a:96:40:fa:95:0f:35:12:c1:ea:2e:ec:57:21:
                    a1:b4:a0:cc:e5:25:da:67:b5:52:fe:af:8b:92:33:
                    b6:78:10:b8:10:fb:38:7e:66:b8:b9:b2:88:44:b2:
                    cf:07:ba:1c:54:d3:cc:5d:c1:6f:f0:07:16:13:d7:
                    3a:ff:ab:da:5b:ef:e5:82:55:5d:97:3b:44:da:f5:
                    a2:02:75:07:31:02:de:13:82:17:4c:9d:80:97:c9:
                    52:b5:1c:e5:12:66:48:6e:c5:82:46:c6:b5:27:54:
                    00:67:3e:40:e4:ac:91:c2:65:95:8a:ed:09:d7:79:
                    0a:b1
                Exponent: 65537 (0x10001)
        X509v3 extensions:
            X509v3 Basic Constraints: 
                CA:FALSE
            X509v3 Subject Key Identifier: 
                26:43:15:BC:C4:1E:DE:5D:5E:A3:6F:F3:15:ED:D2:5F:0B:97:BD:F3
            X509v3 Authority Key Identifier: 
                keyid:CA:AE:AC:04:2B:F8:B4:9E:1B:80:7D:C5:5B:C6:8D:9E:A5:39:37:8F
                DirName:/CN=team688-net
                serial:08:14:D5:D3:7C:C8:8C:20:6C:BD:D3:AE:7D:F0:9D:8F:C0:30:98:7B

            X509v3 Extended Key Usage: 
                TLS Web Server Authentication
            X509v3 Key Usage: 
                Digital Signature, Key Encipherment
            X509v3 Subject Alternative Name: 
                DNS:team688-server
    Signature Algorithm: sha256WithRSAEncryption
         b3:69:b3:0d:54:5e:eb:8d:13:84:5b:ff:6d:2e:59:a0:82:80:
         77:a5:30:5c:32:1a:34:b7:d2:d7:e3:b7:d9:ec:2e:a4:10:98:
         7a:7a:06:71:8a:4c:0f:6d:09:0a:21:c1:8f:c4:a8:f4:b7:10:
         9b:33:c6:ec:4f:38:69:15:30:0f:08:05:c9:44:92:54:12:8b:
         bf:37:99:cf:1b:c0:57:c6:0f:1c:f1:4a:57:b5:47:fd:ca:a4:
         a0:98:3c:b9:b8:a5:26:65:d3:16:15:6b:9b:59:ee:69:d7:44:
         ab:db:ce:15:de:13:b8:5f:f1:73:9c:ef:a4:d0:9d:dc:05:17:
         e1:15:ad:f4:12:5a:fb:90:cc:77:53:36:7c:e6:6c:87:f5:88:
         88:e1:62:ae:d0:a6:bd:01:22:2d:8f:98:50:fe:08:33:9d:5e:
         ef:fa:ee:a6:21:61:a0:62:0c:78:df:61:73:2e:26:06:d3:17:
         8d:18:7a:3a:ec:fd:83:8e:83:23:b2:d3:7c:1d:44:68:ea:71:
         db:ad:09:48:dd:b1:5f:e4:60:cf:4c:17:ae:71:0c:da:dc:1d:
         6b:56:7d:20:69:9b:1d:a5:a5:88:e7:7b:58:ca:44:dc:3e:a4:
         49:d2:34:76:79:56:f9:30:93:4c:df:9c:c0:d7:42:fe:4c:99:
         3d:9b:58:cf
-----BEGIN CERTIFICATE-----
MIIDdzCCAl+gAwIBAgIQDTw3+nRMX3ctOYYn0kLbnjANBgkqhkiG9w0BAQsFADAW
MRQwEgYDVQQDDAt0ZWFtNjg4LW5ldDAeFw0yMjA1MTgyMzI2MTRaFw0yNTA1MDIy
MzI2MTRaMBkxFzAVBgNVBAMMDnRlYW02ODgtc2VydmVyMIIBIjANBgkqhkiG9w0B
AQEFAAOCAQ8AMIIBCgKCAQEAvRpW4n842LTScyOqG+JvyVQgsAUlNSnw+mQe/yT7
5a/uPdXXXoxS3b8AC+x/rqF3b+wpojsH3WzVuJgZu7cCv19NDZ4yjYnkdSssiA7q
byuZSbj9pp96pEZesg41oXlFJmuEyFGtIwPkT6ksCIf8CtDS4fAuSv/0/uYyJhgS
vKHAbjCdsKavapZA+pUPNRLB6i7sVyGhtKDM5SXaZ7VS/q+LkjO2eBC4EPs4fma4
ubKIRLLPB7ocVNPMXcFv8AcWE9c6/6vaW+/lglVdlztE2vWiAnUHMQLeE4IXTJ2A
l8lStRzlEmZIbsWCRsa1J1QAZz5A5KyRwmWViu0J13kKsQIDAQABo4G9MIG6MAkG
A1UdEwQCMAAwHQYDVR0OBBYEFCZDFbzEHt5dXqNv8xXt0l8Ll73zMFEGA1UdIwRK
MEiAFMqurAQr+LSeG4B9xVvGjZ6lOTePoRqkGDAWMRQwEgYDVQQDDAt0ZWFtNjg4
LW5ldIIUCBTV03zIjCBsvdOuffCdj8AwmHswEwYDVR0lBAwwCgYIKwYBBQUHAwEw
CwYDVR0PBAQDAgWgMBkGA1UdEQQSMBCCDnRlYW02ODgtc2VydmVyMA0GCSqGSIb3
DQEBCwUAA4IBAQCzabMNVF7rjROEW/9tLlmggoB3pTBcMho0t9LX47fZ7C6kEJh6
egZxikwPbQkKIcGPxKj0txCbM8bsTzhpFTAPCAXJRJJUEou/N5nPG8BXxg8c8UpX
tUf9yqSgmDy5uKUmZdMWFWubWe5p10Sr284V3hO4X/FznO+k0J3cBRfhFa30Elr7
kMx3UzZ85myH9YiI4WKu0Ka9ASItj5hQ/ggznV7v+u6mIWGgYgx432FzLiYG0xeN
GHo67P2DjoMjstN8HURo6nHbrQlI3bFf5GDPTBeucQza3B1rVn0gaZsdpaWI53tY
ykTcPqRJ0jR2eVb5MJNM35zA10L+TJk9m1jP
-----END CERTIFICATE-----
