Certificate:
    Data:
        Version: 3 (0x2)
        Serial Number:
            da:a1:78:9f:48:b8:eb:8f:78:21:5f:7e:ff:db:da:4c
        Signature Algorithm: sha256WithRSAEncryption
        Issuer: CN=team688-net
        Validity
            Not Before: May 18 23:26:13 2022 GMT
            Not After : May  2 23:26:13 2025 GMT
        Subject: CN=team688-client
        Subject Public Key Info:
            Public Key Algorithm: rsaEncryption
                RSA Public-Key: (2048 bit)
                Modulus:
                    00:c5:28:63:72:be:b3:c2:de:d7:13:eb:48:67:85:
                    c0:11:e5:f7:2d:c3:87:30:53:be:18:8b:78:3a:06:
                    8f:73:7e:32:05:db:8f:6f:83:4a:06:e3:c2:d6:65:
                    5a:b1:51:33:0e:50:f9:94:f6:25:4e:be:a0:6c:90:
                    77:b5:62:69:61:d9:8a:97:cb:e3:72:c1:71:c5:cf:
                    b2:97:d6:ea:d1:e3:cf:45:7b:f4:be:68:c9:7e:b0:
                    e6:01:78:92:28:89:3e:52:4f:c2:0a:4c:a7:18:99:
                    46:4e:71:69:c7:d5:24:e6:ed:3b:52:e7:3f:5c:2f:
                    b3:ce:50:ea:89:72:69:f5:50:a3:2e:05:58:7a:4d:
                    cc:58:1a:8a:ed:11:d7:35:67:c5:b4:64:c1:e3:2c:
                    58:60:b9:fa:61:0e:34:83:a1:9c:96:d1:11:d1:bf:
                    5a:06:e5:91:0a:af:eb:bf:bb:61:cb:c7:50:e6:bb:
                    63:5c:26:b4:a7:f7:0a:0c:ff:60:64:7e:cd:7a:2a:
                    a8:6e:4f:43:ef:57:6e:b5:4d:9d:6b:22:0d:ac:bd:
                    cd:09:a3:65:50:c1:fa:87:9b:0d:c3:17:01:2a:85:
                    b4:4f:1b:c4:da:50:19:10:b4:b5:0f:47:ac:e3:4a:
                    a7:3b:00:e6:b1:8e:5a:d0:29:91:28:8a:94:27:4b:
                    41:ff
                Exponent: 65537 (0x10001)
        X509v3 extensions:
            X509v3 Basic Constraints: 
                CA:FALSE
            X509v3 Subject Key Identifier: 
                C9:BE:67:0C:32:D2:BF:4C:4A:FF:06:34:08:C0:F9:1D:3E:30:B2:12
            X509v3 Authority Key Identifier: 
                keyid:CA:AE:AC:04:2B:F8:B4:9E:1B:80:7D:C5:5B:C6:8D:9E:A5:39:37:8F
                DirName:/CN=team688-net
                serial:08:14:D5:D3:7C:C8:8C:20:6C:BD:D3:AE:7D:F0:9D:8F:C0:30:98:7B

            X509v3 Extended Key Usage: 
                TLS Web Client Authentication
            X509v3 Key Usage: 
                Digital Signature
    Signature Algorithm: sha256WithRSAEncryption
         4f:e7:39:d5:7a:c7:12:e7:a2:d8:73:b4:51:84:6a:3d:84:d1:
         1b:0a:ba:e4:89:3c:96:c3:e9:0e:09:27:23:2e:4b:60:33:ce:
         6e:ec:eb:40:db:d8:55:0e:3e:cd:b9:35:1d:71:75:31:fc:54:
         d6:b8:e8:f2:ce:5c:5d:05:7d:ee:ef:2d:06:8b:ce:3e:66:21:
         89:d4:b0:03:20:e0:a5:0a:8a:48:13:17:5b:95:7c:a4:30:69:
         8f:1f:cb:6f:e9:92:38:a8:c0:c7:3a:04:43:58:9c:b3:af:52:
         24:c0:a0:95:f3:93:2f:0c:18:9d:e4:f5:a8:7a:1f:07:ec:df:
         c3:e2:d8:a0:90:b7:95:37:86:c6:b7:fe:dd:91:ac:db:1b:4a:
         94:91:07:e6:85:f2:b1:f7:63:77:d8:c5:90:57:51:00:13:0d:
         f8:de:4c:93:96:d6:1d:7f:e0:17:0a:4d:5c:ba:2c:5f:bc:ee:
         9a:d7:10:f1:97:6f:9b:f2:80:18:52:ed:47:6e:bb:b9:8f:b6:
         d2:ca:b7:73:84:42:50:a5:bd:f9:c4:1c:f5:17:c5:9e:e2:00:
         38:20:64:a9:b9:8a:16:2e:3b:65:22:6d:61:b3:2a:c3:b8:fb:
         f1:ac:b4:dd:63:3d:8c:5d:8a:06:6d:ae:be:d8:de:80:52:16:
         21:4e:20:49
-----BEGIN CERTIFICATE-----
MIIDXTCCAkWgAwIBAgIRANqheJ9IuOuPeCFffv/b2kwwDQYJKoZIhvcNAQELBQAw
FjEUMBIGA1UEAwwLdGVhbTY4OC1uZXQwHhcNMjIwNTE4MjMyNjEzWhcNMjUwNTAy
MjMyNjEzWjAZMRcwFQYDVQQDDA50ZWFtNjg4LWNsaWVudDCCASIwDQYJKoZIhvcN
AQEBBQADggEPADCCAQoCggEBAMUoY3K+s8Le1xPrSGeFwBHl9y3DhzBTvhiLeDoG
j3N+MgXbj2+DSgbjwtZlWrFRMw5Q+ZT2JU6+oGyQd7ViaWHZipfL43LBccXPspfW
6tHjz0V79L5oyX6w5gF4kiiJPlJPwgpMpxiZRk5xacfVJObtO1LnP1wvs85Q6oly
afVQoy4FWHpNzFgaiu0R1zVnxbRkweMsWGC5+mEONIOhnJbREdG/WgblkQqv67+7
YcvHUOa7Y1wmtKf3Cgz/YGR+zXoqqG5PQ+9XbrVNnWsiDay9zQmjZVDB+oebDcMX
ASqFtE8bxNpQGRC0tQ9HrONKpzsA5rGOWtApkSiKlCdLQf8CAwEAAaOBojCBnzAJ
BgNVHRMEAjAAMB0GA1UdDgQWBBTJvmcMMtK/TEr/BjQIwPkdPjCyEjBRBgNVHSME
SjBIgBTKrqwEK/i0nhuAfcVbxo2epTk3j6EapBgwFjEUMBIGA1UEAwwLdGVhbTY4
OC1uZXSCFAgU1dN8yIwgbL3Trn3wnY/AMJh7MBMGA1UdJQQMMAoGCCsGAQUFBwMC
MAsGA1UdDwQEAwIHgDANBgkqhkiG9w0BAQsFAAOCAQEAT+c51XrHEuei2HO0UYRq
PYTRGwq65Ik8lsPpDgknIy5LYDPObuzrQNvYVQ4+zbk1HXF1MfxU1rjo8s5cXQV9
7u8tBovOPmYhidSwAyDgpQqKSBMXW5V8pDBpjx/Lb+mSOKjAxzoEQ1ics69SJMCg
lfOTLwwYneT1qHofB+zfw+LYoJC3lTeGxrf+3ZGs2xtKlJEH5oXysfdjd9jFkFdR
ABMN+N5Mk5bWHX/gFwpNXLosX7zumtcQ8Zdvm/KAGFLtR267uY+20sq3c4RCUKW9
+cQc9RfFnuIAOCBkqbmKFi47ZSJtYbMqw7j78ay03WM9jF2KBm2uvtjegFIWIU4g
SQ==
-----END CERTIFICATE-----
