Certificate:
    Data:
        Version: 3 (0x2)
        Serial Number:
            ba:9a:05:17:18:08:31:32:5d:a9:a0:f6:55:d7:0e:3b
        Signature Algorithm: sha256WithRSAEncryption
        Issuer: CN=team409-net
        Validity
            Not Before: May 18 21:04:52 2022 GMT
            Not After : May  2 21:04:52 2025 GMT
        Subject: CN=team409-client
        Subject Public Key Info:
            Public Key Algorithm: rsaEncryption
                RSA Public-Key: (2048 bit)
                Modulus:
                    00:c0:54:2f:6a:b2:b2:cf:28:8b:b7:66:04:11:67:
                    01:7e:01:e2:7c:f8:e9:2c:68:ea:16:66:cb:00:89:
                    c2:b6:ad:98:3d:94:51:52:a7:48:ac:d2:2b:ec:0c:
                    46:27:60:c4:4b:ee:53:04:17:d1:86:22:27:38:3c:
                    fa:77:47:3c:f2:a1:1e:fc:3f:59:57:de:fa:84:39:
                    99:71:38:12:02:c8:97:3b:86:1b:c7:16:26:b0:f8:
                    ee:c3:eb:a3:51:cd:f5:0f:30:51:1d:80:55:82:71:
                    cd:1b:8f:79:f4:67:bd:2e:c2:ec:c1:4f:28:db:c4:
                    63:46:f3:4b:44:12:7f:e5:72:c3:19:84:cb:c4:b4:
                    93:5d:35:6a:85:ae:53:c4:85:91:71:6b:19:5d:92:
                    a6:1a:60:11:43:8f:fb:66:ad:1e:eb:90:0e:be:b5:
                    69:ae:6f:c5:b3:35:93:6e:f9:da:a2:e3:6b:01:03:
                    77:ec:38:f2:19:bd:8c:ae:52:71:53:b8:f5:64:22:
                    21:d8:8f:53:bc:16:9d:cd:2f:4b:6c:29:47:45:5c:
                    d5:ce:db:60:b8:5c:c0:b6:05:ee:86:5f:85:9f:76:
                    75:a2:ab:25:36:e0:90:a0:58:c8:d3:ee:88:51:6b:
                    f8:fd:b4:98:8b:d4:ac:0e:95:5b:4f:3f:70:22:50:
                    f5:8f
                Exponent: 65537 (0x10001)
        X509v3 extensions:
            X509v3 Basic Constraints: 
                CA:FALSE
            X509v3 Subject Key Identifier: 
                9C:B1:71:A7:C6:43:01:E1:68:27:56:36:FD:E7:54:9E:9F:8E:B9:1F
            X509v3 Authority Key Identifier: 
                keyid:8D:D8:5D:BC:AF:6E:B9:4E:C5:30:F3:80:BB:FE:2E:14:51:CE:BB:71
                DirName:/CN=team409-net
                serial:0C:3D:23:08:A3:D2:72:03:EF:A4:AF:83:54:22:54:D3:12:B6:AB:53

            X509v3 Extended Key Usage: 
                TLS Web Client Authentication
            X509v3 Key Usage: 
                Digital Signature
    Signature Algorithm: sha256WithRSAEncryption
         e6:6d:84:40:de:f6:fc:d5:0f:6b:27:76:d8:28:d4:b6:de:b0:
         84:71:32:f4:a7:d5:9a:0d:cd:75:a1:39:51:56:c6:9c:4f:cc:
         03:78:a0:9c:05:eb:b4:8b:cd:ca:ea:64:ce:64:ec:1f:33:bb:
         34:29:58:76:8b:28:e1:6a:3c:4e:88:3e:74:a7:64:bf:4f:19:
         14:4c:5b:0f:e8:fa:29:c2:59:31:5e:11:3b:09:03:b5:33:a6:
         15:5f:db:f9:5b:74:1c:6e:77:3e:5f:bc:63:63:f8:f1:03:ad:
         c9:b3:1b:6d:58:51:d5:38:7e:f6:97:5f:a1:46:37:8a:7d:d8:
         8c:81:9b:b9:a9:2a:6f:65:1d:b3:f2:33:2d:a7:99:c5:02:8c:
         08:44:a6:1d:0d:ec:13:eb:3f:05:7f:52:cc:83:a8:68:7a:64:
         c4:98:25:93:68:df:39:c1:0b:95:6b:86:0e:e7:56:79:58:6f:
         60:46:bd:1b:78:74:e1:cf:91:60:80:08:a9:ad:05:d3:e8:94:
         a2:01:99:8c:6c:59:8d:ac:76:18:46:13:12:3d:75:b3:d0:59:
         a3:4b:b7:fe:cf:59:d8:8f:db:3d:f9:fa:3c:ca:7c:1d:56:fa:
         4d:d9:56:6b:d5:60:69:45:89:25:fb:da:3f:51:f7:92:a3:61:
         f8:8c:5b:b7
-----BEGIN CERTIFICATE-----
MIIDXTCCAkWgAwIBAgIRALqaBRcYCDEyXamg9lXXDjswDQYJKoZIhvcNAQELBQAw
FjEUMBIGA1UEAwwLdGVhbTQwOS1uZXQwHhcNMjIwNTE4MjEwNDUyWhcNMjUwNTAy
MjEwNDUyWjAZMRcwFQYDVQQDDA50ZWFtNDA5LWNsaWVudDCCASIwDQYJKoZIhvcN
AQEBBQADggEPADCCAQoCggEBAMBUL2qyss8oi7dmBBFnAX4B4nz46Sxo6hZmywCJ
wratmD2UUVKnSKzSK+wMRidgxEvuUwQX0YYiJzg8+ndHPPKhHvw/WVfe+oQ5mXE4
EgLIlzuGG8cWJrD47sPro1HN9Q8wUR2AVYJxzRuPefRnvS7C7MFPKNvEY0bzS0QS
f+VywxmEy8S0k101aoWuU8SFkXFrGV2SphpgEUOP+2atHuuQDr61aa5vxbM1k275
2qLjawEDd+w48hm9jK5ScVO49WQiIdiPU7wWnc0vS2wpR0Vc1c7bYLhcwLYF7oZf
hZ92daKrJTbgkKBYyNPuiFFr+P20mIvUrA6VW08/cCJQ9Y8CAwEAAaOBojCBnzAJ
BgNVHRMEAjAAMB0GA1UdDgQWBBScsXGnxkMB4WgnVjb951Sen465HzBRBgNVHSME
SjBIgBSN2F28r265TsUw84C7/i4UUc67caEapBgwFjEUMBIGA1UEAwwLdGVhbTQw
OS1uZXSCFAw9Iwij0nID76Svg1QiVNMStqtTMBMGA1UdJQQMMAoGCCsGAQUFBwMC
MAsGA1UdDwQEAwIHgDANBgkqhkiG9w0BAQsFAAOCAQEA5m2EQN72/NUPayd22CjU
tt6whHEy9KfVmg3NdaE5UVbGnE/MA3ignAXrtIvNyupkzmTsHzO7NClYdoso4Wo8
Tog+dKdkv08ZFExbD+j6KcJZMV4ROwkDtTOmFV/b+Vt0HG53Pl+8Y2P48QOtybMb
bVhR1Th+9pdfoUY3in3YjIGbuakqb2Uds/IzLaeZxQKMCESmHQ3sE+s/BX9SzIOo
aHpkxJglk2jfOcELlWuGDudWeVhvYEa9G3h04c+RYIAIqa0F0+iUogGZjGxZjax2
GEYTEj11s9BZo0u3/s9Z2I/bPfn6PMp8HVb6TdlWa9VgaUWJJfvaP1H3kqNh+Ixb
tw==
-----END CERTIFICATE-----
