Certificate:
    Data:
        Version: 3 (0x2)
        Serial Number:
            a4:d4:7c:82:3d:a8:6d:6c:43:19:61:79:1a:bb:4a:5a
        Signature Algorithm: sha256WithRSAEncryption
        Issuer: CN=team20-net
        Validity
            Not Before: May 18 14:02:39 2022 GMT
            Not After : May  2 14:02:39 2025 GMT
        Subject: CN=team20-server
        Subject Public Key Info:
            Public Key Algorithm: rsaEncryption
                RSA Public-Key: (2048 bit)
                Modulus:
                    00:bb:04:a1:ff:45:d9:47:19:33:31:84:bb:71:60:
                    c9:76:af:27:b7:db:3d:ec:bb:0e:6b:ac:90:9e:8d:
                    e9:7d:46:d4:6e:4c:02:fd:14:d5:21:d6:dc:a1:a1:
                    96:1e:f1:63:fc:98:28:af:cf:59:d1:0f:79:7b:20:
                    48:2a:66:4a:49:70:cf:a7:6c:f5:cd:a3:38:17:03:
                    1f:0e:0d:3e:ab:a9:a3:59:f8:33:90:75:e3:cb:8c:
                    f2:74:ee:d1:64:dd:0c:af:2c:5d:81:14:56:3b:7f:
                    fe:0a:34:66:0b:c0:63:7a:c7:13:66:24:57:96:f2:
                    ca:a8:82:8c:2f:61:13:58:37:53:28:a5:91:d8:b5:
                    a2:47:ef:3f:a5:dd:64:98:dd:12:d4:28:87:7c:9d:
                    2b:26:66:b0:cd:de:54:f1:bb:88:4d:12:75:e7:d7:
                    b3:dd:4d:eb:52:22:01:1e:40:cc:86:6c:dc:0b:f8:
                    df:92:2a:72:ae:ce:1b:12:f0:c9:ff:84:0a:7f:4f:
                    21:6f:76:88:f8:bb:8b:04:54:e0:49:99:84:65:e9:
                    6d:cc:ba:1c:5d:0b:4a:7e:c8:d3:72:5c:a5:a2:9e:
                    5c:15:67:ad:02:07:cb:34:98:9d:d1:54:67:ae:d7:
                    f4:15:6c:42:be:32:ec:29:5e:a4:10:61:c1:56:ef:
                    18:8b
                Exponent: 65537 (0x10001)
        X509v3 extensions:
            X509v3 Basic Constraints: 
                CA:FALSE
            X509v3 Subject Key Identifier: 
                AF:E8:A7:DC:C4:83:F2:D7:DA:58:34:A7:C7:56:55:D4:FA:66:41:BD
            X509v3 Authority Key Identifier: 
                keyid:09:72:54:39:73:CB:AD:D4:CE:05:7D:61:CF:A2:6F:C2:07:2E:A7:EE
                DirName:/CN=team20-net
                serial:09:2B:4F:01:FA:43:63:A6:03:5E:46:5E:A5:1C:A1:72:32:C7:B0:02

            X509v3 Extended Key Usage: 
                TLS Web Server Authentication
            X509v3 Key Usage: 
                Digital Signature, Key Encipherment
            X509v3 Subject Alternative Name: 
                DNS:team20-server
    Signature Algorithm: sha256WithRSAEncryption
         62:2d:fd:53:d8:ac:58:06:84:94:9c:30:0c:f9:a3:aa:1f:6a:
         c0:89:3a:45:a3:48:45:e8:8e:3e:21:07:73:90:32:cf:9d:b6:
         33:1b:14:0a:34:64:e2:71:d3:5d:6e:b5:74:bf:72:53:6a:7b:
         20:11:52:ad:9a:15:de:f6:00:71:7c:d5:07:c9:af:76:50:4a:
         82:7c:79:e3:d7:f7:e7:0c:e0:0f:36:65:9e:9b:b5:31:32:fd:
         3f:9c:3f:82:9d:37:03:7d:ca:ab:78:96:c1:fb:92:43:8c:97:
         d6:d1:5d:be:42:8f:00:6b:ac:21:22:b3:d8:fd:48:5e:b3:e5:
         57:e8:c6:39:ec:ff:2d:69:6b:21:5d:ae:63:19:63:98:83:38:
         d1:de:c3:dc:fa:c7:18:31:8d:89:94:10:89:39:8b:5d:ad:9b:
         a0:ee:09:3c:ac:53:14:42:1b:93:25:cd:e0:f7:52:f0:1e:e7:
         46:73:ab:be:59:87:51:65:a7:6a:ed:01:06:e4:66:80:1a:23:
         aa:b4:1f:ef:10:83:54:db:7b:7b:a1:1e:9c:a5:90:ea:fa:64:
         92:55:03:79:41:44:2b:ca:4a:10:13:1d:24:63:c3:7b:d9:97:
         6a:11:f4:c0:35:fa:17:67:c2:08:a3:0b:c3:89:ae:1d:50:d8:
         6e:01:1f:a5
-----BEGIN CERTIFICATE-----
MIIDdDCCAlygAwIBAgIRAKTUfII9qG1sQxlheRq7SlowDQYJKoZIhvcNAQELBQAw
FTETMBEGA1UEAwwKdGVhbTIwLW5ldDAeFw0yMjA1MTgxNDAyMzlaFw0yNTA1MDIx
NDAyMzlaMBgxFjAUBgNVBAMMDXRlYW0yMC1zZXJ2ZXIwggEiMA0GCSqGSIb3DQEB
AQUAA4IBDwAwggEKAoIBAQC7BKH/RdlHGTMxhLtxYMl2rye32z3suw5rrJCejel9
RtRuTAL9FNUh1tyhoZYe8WP8mCivz1nRD3l7IEgqZkpJcM+nbPXNozgXAx8ODT6r
qaNZ+DOQdePLjPJ07tFk3QyvLF2BFFY7f/4KNGYLwGN6xxNmJFeW8sqogowvYRNY
N1MopZHYtaJH7z+l3WSY3RLUKId8nSsmZrDN3lTxu4hNEnXn17PdTetSIgEeQMyG
bNwL+N+SKnKuzhsS8Mn/hAp/TyFvdoj4u4sEVOBJmYRl6W3MuhxdC0p+yNNyXKWi
nlwVZ60CB8s0mJ3RVGeu1/QVbEK+MuwpXqQQYcFW7xiLAgMBAAGjgbswgbgwCQYD
VR0TBAIwADAdBgNVHQ4EFgQUr+in3MSD8tfaWDSnx1ZV1PpmQb0wUAYDVR0jBEkw
R4AUCXJUOXPLrdTOBX1hz6Jvwgcup+6hGaQXMBUxEzARBgNVBAMMCnRlYW0yMC1u
ZXSCFAkrTwH6Q2OmA15GXqUcoXIyx7ACMBMGA1UdJQQMMAoGCCsGAQUFBwMBMAsG
A1UdDwQEAwIFoDAYBgNVHREEETAPgg10ZWFtMjAtc2VydmVyMA0GCSqGSIb3DQEB
CwUAA4IBAQBiLf1T2KxYBoSUnDAM+aOqH2rAiTpFo0hF6I4+IQdzkDLPnbYzGxQK
NGTicdNdbrV0v3JTansgEVKtmhXe9gBxfNUHya92UEqCfHnj1/fnDOAPNmWem7Ux
Mv0/nD+CnTcDfcqreJbB+5JDjJfW0V2+Qo8Aa6whIrPY/Uhes+VX6MY57P8taWsh
Xa5jGWOYgzjR3sPc+scYMY2JlBCJOYtdrZug7gk8rFMUQhuTJc3g91LwHudGc6u+
WYdRZadq7QEG5GaAGiOqtB/vEINU23t7oR6cpZDq+mSSVQN5QUQrykoQEx0kY8N7
2ZdqEfTANfoXZ8IIowvDia4dUNhuAR+l
-----END CERTIFICATE-----
