Certificate:
    Data:
        Version: 3 (0x2)
        Serial Number:
            c7:24:39:2f:98:95:dc:e8:c8:ef:4e:b0:a6:ea:18:d4
        Signature Algorithm: sha256WithRSAEncryption
        Issuer: CN=team605-net
        Validity
            Not Before: May 18 22:55:32 2022 GMT
            Not After : May  2 22:55:32 2025 GMT
        Subject: CN=team605-client
        Subject Public Key Info:
            Public Key Algorithm: rsaEncryption
                RSA Public-Key: (2048 bit)
                Modulus:
                    00:c8:f0:9f:e4:1b:79:fb:05:1f:1b:65:cc:a6:27:
                    76:29:3c:11:6e:6a:af:c3:81:2d:ec:0e:4a:7f:8e:
                    2f:bf:ba:1c:b8:a2:8d:12:dc:ee:c1:99:0b:6f:79:
                    86:97:db:b3:a9:c0:5d:7e:63:ec:5f:b7:53:e0:6d:
                    ac:05:a5:17:0b:8e:c6:1c:9e:c2:f8:b6:ec:00:8f:
                    c8:a4:0e:2a:a8:aa:2f:11:af:1b:28:25:31:24:d5:
                    53:88:bc:f6:22:5c:c2:61:ef:71:8b:f5:74:1c:b8:
                    cd:f2:68:bc:ee:8c:8c:df:3a:a9:a6:de:26:30:c1:
                    2e:ff:fe:21:5a:82:3c:8a:0c:c7:f0:c1:39:c9:15:
                    a6:10:d4:85:ad:a1:53:09:98:84:0e:2d:46:71:a5:
                    44:f8:92:29:42:11:c1:d0:60:c0:57:c8:a9:6b:39:
                    ce:26:39:aa:d8:1c:f7:72:47:09:28:0c:5d:54:7e:
                    bc:cc:7f:7f:6c:73:81:f9:1a:5b:29:93:6b:ea:6a:
                    98:1d:7c:de:a0:4b:42:3f:af:b7:9f:20:4d:12:52:
                    58:d4:a6:28:b0:dd:d7:45:98:ee:e1:1c:4f:4a:2e:
                    34:40:f0:f6:65:80:3e:4b:9b:53:4e:4a:2c:7b:12:
                    ed:34:9e:3b:8c:31:f2:e2:65:78:a9:33:41:70:cf:
                    d9:ab
                Exponent: 65537 (0x10001)
        X509v3 extensions:
            X509v3 Basic Constraints: 
                CA:FALSE
            X509v3 Subject Key Identifier: 
                B7:0A:30:87:2F:1E:AB:64:CA:17:4C:AA:4D:66:EB:5E:C7:B7:8B:D8
            X509v3 Authority Key Identifier: 
                keyid:EE:87:69:AA:D4:CA:08:C5:CB:AA:AD:93:4E:EE:81:07:1B:9C:D6:EF
                DirName:/CN=team605-net
                serial:31:EC:BC:D8:0F:C2:4B:BA:8F:7B:92:6A:E0:0B:4D:47:44:F7:83:CD

            X509v3 Extended Key Usage: 
                TLS Web Client Authentication
            X509v3 Key Usage: 
                Digital Signature
    Signature Algorithm: sha256WithRSAEncryption
         89:04:c6:78:b1:8b:f3:fd:7d:65:55:2e:ae:4f:03:a2:5d:32:
         bf:62:79:b0:e7:d0:c3:72:a7:ec:5b:b0:7c:3c:98:83:f7:66:
         92:7c:57:4a:4b:06:54:ad:fc:40:36:38:4c:56:15:6d:24:6b:
         97:68:29:b6:e0:f0:30:bf:c4:c6:48:b2:10:e1:cf:5d:d8:0a:
         37:f5:4c:3a:2c:8d:14:c0:9e:e4:bc:4c:21:16:e6:78:e5:b6:
         be:6f:c8:60:1d:f0:85:f9:8a:22:81:6d:c5:de:aa:41:08:25:
         83:99:18:ed:24:5e:e3:c5:3c:0d:b7:bf:03:09:97:71:dd:d0:
         97:25:84:b5:e8:56:f1:c0:1b:0a:93:38:ab:b6:3c:49:0a:e7:
         7c:49:02:92:56:83:fc:69:c6:69:10:4e:05:9d:40:9c:27:53:
         01:06:30:dd:a3:12:ef:dc:76:8b:f1:e2:9a:69:9c:98:80:ba:
         a4:fb:b8:14:05:49:3a:e7:55:c8:b4:4c:c8:c0:73:aa:25:1f:
         e3:b1:23:a9:0c:81:9f:b9:8f:34:bb:e8:96:c4:37:e2:15:05:
         71:0a:c0:c1:ad:32:cb:13:a4:3d:69:6f:7a:6e:fa:76:46:b6:
         4d:bf:3f:29:01:26:e2:68:61:1a:3a:ea:78:1f:3c:47:75:c3:
         d5:a7:9f:3b
-----BEGIN CERTIFICATE-----
MIIDXTCCAkWgAwIBAgIRAMckOS+YldzoyO9OsKbqGNQwDQYJKoZIhvcNAQELBQAw
FjEUMBIGA1UEAwwLdGVhbTYwNS1uZXQwHhcNMjIwNTE4MjI1NTMyWhcNMjUwNTAy
MjI1NTMyWjAZMRcwFQYDVQQDDA50ZWFtNjA1LWNsaWVudDCCASIwDQYJKoZIhvcN
AQEBBQADggEPADCCAQoCggEBAMjwn+QbefsFHxtlzKYndik8EW5qr8OBLewOSn+O
L7+6HLiijRLc7sGZC295hpfbs6nAXX5j7F+3U+BtrAWlFwuOxhyewvi27ACPyKQO
KqiqLxGvGyglMSTVU4i89iJcwmHvcYv1dBy4zfJovO6MjN86qabeJjDBLv/+IVqC
PIoMx/DBOckVphDUha2hUwmYhA4tRnGlRPiSKUIRwdBgwFfIqWs5ziY5qtgc93JH
CSgMXVR+vMx/f2xzgfkaWymTa+pqmB183qBLQj+vt58gTRJSWNSmKLDd10WY7uEc
T0ouNEDw9mWAPkubU05KLHsS7TSeO4wx8uJleKkzQXDP2asCAwEAAaOBojCBnzAJ
BgNVHRMEAjAAMB0GA1UdDgQWBBS3CjCHLx6rZMoXTKpNZutex7eL2DBRBgNVHSME
SjBIgBTuh2mq1MoIxcuqrZNO7oEHG5zW76EapBgwFjEUMBIGA1UEAwwLdGVhbTYw
NS1uZXSCFDHsvNgPwku6j3uSauALTUdE94PNMBMGA1UdJQQMMAoGCCsGAQUFBwMC
MAsGA1UdDwQEAwIHgDANBgkqhkiG9w0BAQsFAAOCAQEAiQTGeLGL8/19ZVUurk8D
ol0yv2J5sOfQw3Kn7FuwfDyYg/dmknxXSksGVK38QDY4TFYVbSRrl2gptuDwML/E
xkiyEOHPXdgKN/VMOiyNFMCe5LxMIRbmeOW2vm/IYB3whfmKIoFtxd6qQQglg5kY
7SRe48U8Dbe/AwmXcd3QlyWEtehW8cAbCpM4q7Y8SQrnfEkCklaD/GnGaRBOBZ1A
nCdTAQYw3aMS79x2i/HimmmcmIC6pPu4FAVJOudVyLRMyMBzqiUf47EjqQyBn7mP
NLvolsQ34hUFcQrAwa0yyxOkPWlvem76dka2Tb8/KQEm4mhhGjrqeB88R3XD1aef
Ow==
-----END CERTIFICATE-----
