Certificate:
    Data:
        Version: 3 (0x2)
        Serial Number:
            1c:45:65:a0:a9:ff:24:16:02:e1:99:7b:bb:34:5f:7a
        Signature Algorithm: sha256WithRSAEncryption
        Issuer: CN=team717-net
        Validity
            Not Before: May 18 23:41:34 2022 GMT
            Not After : May  2 23:41:34 2025 GMT
        Subject: CN=team717-client
        Subject Public Key Info:
            Public Key Algorithm: rsaEncryption
                RSA Public-Key: (2048 bit)
                Modulus:
                    00:af:85:f3:d9:8c:6d:b9:c9:f3:ce:f4:3f:d7:3c:
                    a0:61:4d:8f:a7:80:9d:ab:a0:26:00:95:1f:59:26:
                    be:d1:33:cb:db:b3:ed:1f:9a:26:53:bf:77:29:f5:
                    47:d1:c2:62:ff:e3:c3:09:d4:a0:e8:23:00:b8:ac:
                    dc:c1:6c:22:9c:c8:1f:cb:3b:34:c3:05:83:d0:99:
                    9d:91:97:81:55:aa:97:97:e0:dd:ee:0a:11:b6:bf:
                    e4:b4:db:af:67:40:bd:05:1b:34:0c:66:1f:ac:cb:
                    d0:87:0c:c3:6c:37:e9:e9:b5:bf:e7:eb:f9:45:91:
                    57:c4:6f:3a:ac:31:f6:8f:9d:f5:e2:1e:c3:c6:34:
                    1d:a1:01:34:d4:91:d4:11:88:1b:37:21:19:f8:5f:
                    00:eb:88:5c:92:3e:dc:2e:39:44:40:bf:5a:4e:73:
                    cf:0b:22:db:16:5a:26:6c:fb:9a:a6:c1:eb:a5:28:
                    1a:86:25:cf:9b:e2:f7:94:c9:64:91:6e:d1:f5:21:
                    83:69:cc:47:09:6c:4b:41:91:35:8a:bb:b7:3a:99:
                    25:0e:19:3d:dc:10:d1:fc:59:e6:fe:6c:fd:68:23:
                    e3:61:82:c5:c3:41:e3:bd:69:49:7f:fa:8b:88:0b:
                    ba:2d:30:45:9e:64:4a:c1:4f:25:51:fa:c4:02:91:
                    24:6f
                Exponent: 65537 (0x10001)
        X509v3 extensions:
            X509v3 Basic Constraints: 
                CA:FALSE
            X509v3 Subject Key Identifier: 
                A5:2F:D0:85:E6:E1:8E:80:21:E4:B0:9F:BC:E4:37:6C:9C:5E:12:03
            X509v3 Authority Key Identifier: 
                keyid:47:28:1C:95:A9:7C:42:EA:24:2F:A4:CA:1E:A2:A1:A9:82:EC:E7:D5
                DirName:/CN=team717-net
                serial:3C:CD:D7:D4:02:81:E7:41:4F:02:1E:29:4B:F0:07:7B:BF:17:F7:DF

            X509v3 Extended Key Usage: 
                TLS Web Client Authentication
            X509v3 Key Usage: 
                Digital Signature
    Signature Algorithm: sha256WithRSAEncryption
         b7:87:b1:de:21:77:53:07:83:bc:67:2e:f4:56:9e:1e:8d:43:
         b0:73:60:ab:ee:ec:12:44:18:4f:c4:6b:d6:57:37:44:18:7e:
         99:88:9e:e7:dc:f7:9a:d8:1f:fe:fb:21:9c:29:72:b5:c6:10:
         f1:51:a0:d7:db:63:ac:5c:ab:9d:27:78:c0:07:87:2d:9e:28:
         7d:65:20:fb:b4:33:16:d2:47:fa:ab:ee:d9:99:f4:65:a0:f2:
         b3:fa:72:35:77:45:57:b1:1a:ba:b6:06:44:4e:09:68:9e:a3:
         30:db:3f:73:b3:fe:6d:7a:5c:7e:fb:b8:85:d6:73:74:4f:e9:
         d5:d0:f7:8d:14:89:e1:15:be:a7:99:52:30:28:dd:1d:9e:d6:
         ff:f0:25:c2:f7:2c:15:24:5b:ab:a8:0a:97:8d:17:f9:9c:13:
         e8:c0:03:cd:b7:c4:f8:01:83:66:9b:f6:eb:19:db:7a:c8:ae:
         13:2e:b3:f6:1a:60:d0:d1:30:f1:93:ed:fd:a9:1e:8e:c3:db:
         1f:04:39:42:a4:2b:6f:90:7d:01:f9:b6:70:c5:fd:50:b2:a7:
         b1:36:1f:56:3d:80:a1:03:6b:3d:b2:6b:4b:0d:fc:ff:97:36:
         f0:aa:4b:9c:a6:08:bf:40:c4:0d:bd:ba:b4:e3:50:2a:e6:51:
         1d:27:5e:be
-----BEGIN CERTIFICATE-----
MIIDXDCCAkSgAwIBAgIQHEVloKn/JBYC4Zl7uzRfejANBgkqhkiG9w0BAQsFADAW
MRQwEgYDVQQDDAt0ZWFtNzE3LW5ldDAeFw0yMjA1MTgyMzQxMzRaFw0yNTA1MDIy
MzQxMzRaMBkxFzAVBgNVBAMMDnRlYW03MTctY2xpZW50MIIBIjANBgkqhkiG9w0B
AQEFAAOCAQ8AMIIBCgKCAQEAr4Xz2YxtucnzzvQ/1zygYU2Pp4Cdq6AmAJUfWSa+
0TPL27PtH5omU793KfVH0cJi/+PDCdSg6CMAuKzcwWwinMgfyzs0wwWD0JmdkZeB
VaqXl+Dd7goRtr/ktNuvZ0C9BRs0DGYfrMvQhwzDbDfp6bW/5+v5RZFXxG86rDH2
j5314h7DxjQdoQE01JHUEYgbNyEZ+F8A64hckj7cLjlEQL9aTnPPCyLbFlombPua
psHrpSgahiXPm+L3lMlkkW7R9SGDacxHCWxLQZE1iru3OpklDhk93BDR/Fnm/mz9
aCPjYYLFw0HjvWlJf/qLiAu6LTBFnmRKwU8lUfrEApEkbwIDAQABo4GiMIGfMAkG
A1UdEwQCMAAwHQYDVR0OBBYEFKUv0IXm4Y6AIeSwn7zkN2ycXhIDMFEGA1UdIwRK
MEiAFEcoHJWpfELqJC+kyh6ioamC7OfVoRqkGDAWMRQwEgYDVQQDDAt0ZWFtNzE3
LW5ldIIUPM3X1AKB50FPAh4pS/AHe78X998wEwYDVR0lBAwwCgYIKwYBBQUHAwIw
CwYDVR0PBAQDAgeAMA0GCSqGSIb3DQEBCwUAA4IBAQC3h7HeIXdTB4O8Zy70Vp4e
jUOwc2Cr7uwSRBhPxGvWVzdEGH6ZiJ7n3Pea2B/++yGcKXK1xhDxUaDX22OsXKud
J3jAB4ctnih9ZSD7tDMW0kf6q+7ZmfRloPKz+nI1d0VXsRq6tgZETglonqMw2z9z
s/5telx++7iF1nN0T+nV0PeNFInhFb6nmVIwKN0dntb/8CXC9ywVJFurqAqXjRf5
nBPowAPNt8T4AYNmm/brGdt6yK4TLrP2GmDQ0TDxk+39qR6Ow9sfBDlCpCtvkH0B
+bZwxf1QsqexNh9WPYChA2s9smtLDfz/lzbwqkucpgi/QMQNvbq041Aq5lEdJ16+
-----END CERTIFICATE-----
