Certificate:
    Data:
        Version: 3 (0x2)
        Serial Number:
            bb:52:fc:fe:27:f4:5f:bf:be:20:8d:8a:2f:06:df:9b
        Signature Algorithm: sha256WithRSAEncryption
        Issuer: CN=team196-net
        Validity
            Not Before: May 18 19:00:23 2022 GMT
            Not After : May  2 19:00:23 2025 GMT
        Subject: CN=team196-server
        Subject Public Key Info:
            Public Key Algorithm: rsaEncryption
                RSA Public-Key: (2048 bit)
                Modulus:
                    00:b6:22:44:36:5c:72:59:ef:8f:b3:46:cf:33:7f:
                    a9:49:c0:dc:0b:3d:71:d2:0e:73:92:5a:44:32:01:
                    c0:44:71:fe:ab:67:24:3b:00:10:96:49:c4:c6:3e:
                    1f:90:96:8b:05:d8:0c:77:6c:9b:c2:36:4a:75:f8:
                    20:9a:d0:47:81:02:e3:aa:38:51:a7:51:39:9b:1f:
                    f1:c2:85:cf:b4:9e:ad:9f:23:a1:0c:2c:62:7f:c3:
                    b0:ec:c9:9c:75:04:8d:ea:74:b4:d7:8a:58:6e:89:
                    cf:74:3b:c1:73:09:f8:b2:f9:3b:27:4b:c2:08:85:
                    66:05:f5:4a:56:63:03:54:07:77:09:ff:3e:fa:6d:
                    cd:e9:81:90:ec:5f:7b:63:27:20:da:1d:27:a7:fa:
                    2f:c9:97:8c:31:b9:d4:a4:f8:bd:48:57:73:1a:9e:
                    6d:a4:c3:be:25:d4:44:2c:b7:f7:19:d8:b8:ce:0e:
                    7e:bd:55:6d:ff:76:cb:77:15:9b:39:ed:21:05:2e:
                    b1:d7:60:0d:18:10:33:d5:b4:47:54:c5:62:9f:d4:
                    1f:fd:3b:b1:86:ed:72:60:a3:da:09:a6:55:ec:0d:
                    11:65:11:17:63:bc:38:18:6d:e0:f4:99:aa:12:e4:
                    01:ae:a4:86:ad:cc:25:36:30:a8:fa:1f:44:43:03:
                    4a:e1
                Exponent: 65537 (0x10001)
        X509v3 extensions:
            X509v3 Basic Constraints: 
                CA:FALSE
            X509v3 Subject Key Identifier: 
                63:D4:42:E2:14:0A:F2:C4:28:08:FE:3F:A0:03:43:DC:94:4E:B8:CC
            X509v3 Authority Key Identifier: 
                keyid:E2:BF:6C:F0:28:93:4A:B7:9F:4E:C2:0A:7E:4B:E4:68:EF:70:CC:4F
                DirName:/CN=team196-net
                serial:7D:1C:0A:8C:E9:26:BD:88:5D:D1:3C:B2:44:CC:0A:99:B8:61:EE:10

            X509v3 Extended Key Usage: 
                TLS Web Server Authentication
            X509v3 Key Usage: 
                Digital Signature, Key Encipherment
            X509v3 Subject Alternative Name: 
                DNS:team196-server
    Signature Algorithm: sha256WithRSAEncryption
         63:01:5d:6c:a7:86:cd:15:ee:aa:d3:7f:8e:34:9f:ee:fd:fe:
         6d:1e:da:1a:41:1d:af:fa:c7:ed:1e:2f:c7:50:67:53:35:c0:
         5a:53:02:e6:c0:fd:de:04:f1:6b:c9:f6:2d:be:f1:a8:e4:56:
         c0:91:c6:84:f6:62:22:cc:8f:51:99:50:2b:0f:b3:fb:c4:d5:
         77:7f:99:c6:a8:e1:b1:70:51:3a:db:2f:a5:d1:44:3f:31:d8:
         9d:39:3c:b7:ef:55:52:fe:39:9a:70:93:0a:72:c4:06:5a:4a:
         48:17:dd:20:bd:17:05:6a:d1:78:14:8b:b0:1f:b7:fe:d2:29:
         c5:90:05:08:27:12:2f:f3:d1:85:f8:ee:da:0b:db:51:4f:71:
         8d:4f:ba:b5:4f:8d:a2:57:0a:42:4e:09:ec:23:3a:35:69:1c:
         90:7a:f3:fe:c5:dd:51:3f:7a:fa:9e:44:5f:82:24:40:bd:7a:
         24:3d:0e:a7:34:a8:c9:da:5e:f4:b3:60:c8:d1:27:2f:f1:f7:
         44:7a:ca:8b:65:00:59:30:51:98:43:d8:ef:20:5c:d6:3d:9f:
         bf:4d:45:60:92:72:12:ab:8b:13:95:81:f2:b0:5e:3e:c3:d3:
         4f:84:d6:8e:32:02:51:30:a8:3d:45:8a:35:4b:da:3a:e5:6e:
         a4:a8:89:44
-----BEGIN CERTIFICATE-----
MIIDeDCCAmCgAwIBAgIRALtS/P4n9F+/viCNii8G35swDQYJKoZIhvcNAQELBQAw
FjEUMBIGA1UEAwwLdGVhbTE5Ni1uZXQwHhcNMjIwNTE4MTkwMDIzWhcNMjUwNTAy
MTkwMDIzWjAZMRcwFQYDVQQDDA50ZWFtMTk2LXNlcnZlcjCCASIwDQYJKoZIhvcN
AQEBBQADggEPADCCAQoCggEBALYiRDZcclnvj7NGzzN/qUnA3As9cdIOc5JaRDIB
wERx/qtnJDsAEJZJxMY+H5CWiwXYDHdsm8I2SnX4IJrQR4EC46o4UadROZsf8cKF
z7SerZ8joQwsYn/DsOzJnHUEjep0tNeKWG6Jz3Q7wXMJ+LL5OydLwgiFZgX1SlZj
A1QHdwn/PvptzemBkOxfe2MnINodJ6f6L8mXjDG51KT4vUhXcxqebaTDviXURCy3
9xnYuM4Ofr1Vbf92y3cVmzntIQUusddgDRgQM9W0R1TFYp/UH/07sYbtcmCj2gmm
VewNEWURF2O8OBht4PSZqhLkAa6khq3MJTYwqPofREMDSuECAwEAAaOBvTCBujAJ
BgNVHRMEAjAAMB0GA1UdDgQWBBRj1ELiFAryxCgI/j+gA0PclE64zDBRBgNVHSME
SjBIgBTiv2zwKJNKt59Owgp+S+Ro73DMT6EapBgwFjEUMBIGA1UEAwwLdGVhbTE5
Ni1uZXSCFH0cCozpJr2IXdE8skTMCpm4Ye4QMBMGA1UdJQQMMAoGCCsGAQUFBwMB
MAsGA1UdDwQEAwIFoDAZBgNVHREEEjAQgg50ZWFtMTk2LXNlcnZlcjANBgkqhkiG
9w0BAQsFAAOCAQEAYwFdbKeGzRXuqtN/jjSf7v3+bR7aGkEdr/rH7R4vx1BnUzXA
WlMC5sD93gTxa8n2Lb7xqORWwJHGhPZiIsyPUZlQKw+z+8TVd3+ZxqjhsXBROtsv
pdFEPzHYnTk8t+9VUv45mnCTCnLEBlpKSBfdIL0XBWrReBSLsB+3/tIpxZAFCCcS
L/PRhfju2gvbUU9xjU+6tU+NolcKQk4J7CM6NWkckHrz/sXdUT96+p5EX4IkQL16
JD0OpzSoydpe9LNgyNEnL/H3RHrKi2UAWTBRmEPY7yBc1j2fv01FYJJyEquLE5WB
8rBePsPTT4TWjjICUTCoPUWKNUvaOuVupKiJRA==
-----END CERTIFICATE-----
