Certificate:
    Data:
        Version: 3 (0x2)
        Serial Number:
            54:ac:9b:7b:8d:9c:e2:4f:5e:2c:cb:8f:d6:34:90:d0
        Signature Algorithm: sha256WithRSAEncryption
        Issuer: CN=team417-net
        Validity
            Not Before: May 18 20:59:27 2022 GMT
            Not After : May  2 20:59:27 2025 GMT
        Subject: CN=team417-server
        Subject Public Key Info:
            Public Key Algorithm: rsaEncryption
                RSA Public-Key: (2048 bit)
                Modulus:
                    00:cc:9a:cb:ef:c3:20:09:c7:24:09:c9:7e:b8:7d:
                    4b:71:b5:fd:b0:d0:37:02:eb:a3:d9:b8:88:9a:ca:
                    e7:55:34:34:a4:45:9a:5f:49:27:80:67:c5:61:63:
                    cd:ae:bb:fa:b1:df:fe:87:ef:53:91:74:dc:56:e0:
                    0a:66:23:d6:8f:99:9b:14:c2:d4:91:5c:5d:7c:ec:
                    2a:46:6b:d7:a2:ab:37:91:da:94:8f:67:a5:57:a9:
                    90:51:09:0e:f3:26:d1:86:02:a0:d4:4d:6a:5e:bd:
                    97:b9:ef:e4:44:11:5a:b6:b8:19:10:2b:c2:58:22:
                    a7:26:2f:ae:6b:89:d2:a2:90:26:db:04:37:53:89:
                    45:a8:58:f6:9b:da:a7:18:ca:28:9b:ad:a7:38:65:
                    48:6e:4f:9f:b0:9f:22:2a:63:75:68:49:22:2c:51:
                    52:1f:34:04:dd:90:77:9d:29:34:ff:2c:09:19:52:
                    d2:60:22:47:8a:60:d0:d6:3e:de:e8:30:7f:d5:f5:
                    8a:96:1a:e5:b0:d3:fe:8b:f2:bd:01:25:a9:7a:65:
                    57:3d:3f:be:14:6b:f3:a7:bc:38:40:e8:58:1c:67:
                    61:e2:99:d0:e5:06:de:ed:c8:93:6a:90:97:0f:6c:
                    f0:d8:4a:f8:26:0b:4d:8c:e7:1b:09:16:02:88:ed:
                    65:91
                Exponent: 65537 (0x10001)
        X509v3 extensions:
            X509v3 Basic Constraints: 
                CA:FALSE
            X509v3 Subject Key Identifier: 
                9C:08:02:7A:29:FC:79:32:80:D2:65:22:76:85:31:62:5B:C0:81:82
            X509v3 Authority Key Identifier: 
                keyid:F2:66:54:D3:4A:77:56:5D:71:D9:3D:3C:F2:10:A4:3E:49:28:D9:E4
                DirName:/CN=team417-net
                serial:17:88:71:58:5F:E2:35:DF:2B:5E:73:72:7B:8D:68:20:F4:60:29:FC

            X509v3 Extended Key Usage: 
                TLS Web Server Authentication
            X509v3 Key Usage: 
                Digital Signature, Key Encipherment
            X509v3 Subject Alternative Name: 
                DNS:team417-server
    Signature Algorithm: sha256WithRSAEncryption
         6d:13:c0:bd:a6:32:c1:08:3e:75:ae:78:1e:3e:9b:67:3a:90:
         32:83:43:2b:8f:0a:be:fc:ab:75:39:63:a4:97:83:83:d5:d7:
         47:75:a8:62:c2:20:ef:4c:b0:ac:1e:3c:b6:b6:91:38:3f:d2:
         3a:69:1b:94:70:ef:74:b5:1c:52:38:d4:9d:93:54:0e:6c:39:
         65:d3:df:9d:ef:c1:36:78:09:cb:24:21:51:51:48:85:e2:03:
         aa:ea:17:a2:13:ba:3c:b5:76:b9:15:2c:1b:5e:79:11:05:2f:
         85:cd:88:95:1a:9f:57:38:d1:63:72:c8:e1:66:88:eb:99:8a:
         ed:85:f2:dc:79:a6:cd:6d:d7:7e:4c:5b:03:70:ef:0f:30:28:
         1e:75:d0:f7:7a:1f:6f:e3:41:95:15:3a:77:22:28:c0:fb:12:
         8a:49:48:e2:80:00:51:16:51:00:54:6e:df:33:db:01:f9:86:
         20:52:fd:bf:e3:9f:31:0c:0c:52:a0:c7:9a:7d:4b:36:58:c7:
         92:c7:25:1e:74:3e:48:c0:02:8e:d0:7c:bd:3f:67:36:1e:43:
         8a:0b:a9:ba:4e:6c:27:b9:c8:11:ed:67:8b:0e:e7:d2:49:86:
         56:a4:d1:0c:3e:2e:24:2b:b5:25:59:97:11:b1:c4:ce:65:b6:
         81:87:ff:4c
-----BEGIN CERTIFICATE-----
MIIDdzCCAl+gAwIBAgIQVKybe42c4k9eLMuP1jSQ0DANBgkqhkiG9w0BAQsFADAW
MRQwEgYDVQQDDAt0ZWFtNDE3LW5ldDAeFw0yMjA1MTgyMDU5MjdaFw0yNTA1MDIy
MDU5MjdaMBkxFzAVBgNVBAMMDnRlYW00MTctc2VydmVyMIIBIjANBgkqhkiG9w0B
AQEFAAOCAQ8AMIIBCgKCAQEAzJrL78MgCcckCcl+uH1LcbX9sNA3Auuj2biImsrn
VTQ0pEWaX0kngGfFYWPNrrv6sd/+h+9TkXTcVuAKZiPWj5mbFMLUkVxdfOwqRmvX
oqs3kdqUj2elV6mQUQkO8ybRhgKg1E1qXr2Xue/kRBFatrgZECvCWCKnJi+ua4nS
opAm2wQ3U4lFqFj2m9qnGMoom62nOGVIbk+fsJ8iKmN1aEkiLFFSHzQE3ZB3nSk0
/ywJGVLSYCJHimDQ1j7e6DB/1fWKlhrlsNP+i/K9ASWpemVXPT++FGvzp7w4QOhY
HGdh4pnQ5Qbe7ciTapCXD2zw2Er4JgtNjOcbCRYCiO1lkQIDAQABo4G9MIG6MAkG
A1UdEwQCMAAwHQYDVR0OBBYEFJwIAnop/HkygNJlInaFMWJbwIGCMFEGA1UdIwRK
MEiAFPJmVNNKd1Zdcdk9PPIQpD5JKNnkoRqkGDAWMRQwEgYDVQQDDAt0ZWFtNDE3
LW5ldIIUF4hxWF/iNd8rXnNye41oIPRgKfwwEwYDVR0lBAwwCgYIKwYBBQUHAwEw
CwYDVR0PBAQDAgWgMBkGA1UdEQQSMBCCDnRlYW00MTctc2VydmVyMA0GCSqGSIb3
DQEBCwUAA4IBAQBtE8C9pjLBCD51rngePptnOpAyg0Mrjwq+/Kt1OWOkl4OD1ddH
dahiwiDvTLCsHjy2tpE4P9I6aRuUcO90tRxSONSdk1QObDll09+d78E2eAnLJCFR
UUiF4gOq6heiE7o8tXa5FSwbXnkRBS+FzYiVGp9XONFjcsjhZojrmYrthfLceabN
bdd+TFsDcO8PMCgeddD3eh9v40GVFTp3IijA+xKKSUjigABRFlEAVG7fM9sB+YYg
Uv2/458xDAxSoMeafUs2WMeSxyUedD5IwAKO0Hy9P2c2HkOKC6m6TmwnucgR7WeL
DufSSYZWpNEMPi4kK7UlWZcRscTOZbaBh/9M
-----END CERTIFICATE-----
