Certificate:
    Data:
        Version: 3 (0x2)
        Serial Number:
            61:d0:f5:48:b8:e3:46:45:b1:5d:d1:a2:34:04:80:7d
        Signature Algorithm: sha256WithRSAEncryption
        Issuer: CN=team575-net
        Validity
            Not Before: May 18 22:32:41 2022 GMT
            Not After : May  2 22:32:41 2025 GMT
        Subject: CN=team575-server
        Subject Public Key Info:
            Public Key Algorithm: rsaEncryption
                RSA Public-Key: (2048 bit)
                Modulus:
                    00:c0:c7:8a:56:c3:33:f6:72:83:e2:5c:b5:21:0f:
                    12:70:2c:f1:95:6b:0b:91:63:20:05:8b:c3:ff:29:
                    cf:c9:c6:ea:37:3c:85:d8:c7:59:ad:a5:69:63:6d:
                    97:3f:34:88:90:a0:52:3b:2f:ca:4a:6d:ba:88:ea:
                    d3:d2:0a:8c:ff:a8:7d:4d:d1:61:db:5f:6e:e3:14:
                    65:74:e8:10:d3:a3:60:b7:7f:a5:7a:23:f6:dd:5f:
                    2f:a0:9b:4c:e6:a2:c3:5c:e3:69:0c:59:c7:c1:3d:
                    7f:f4:a0:46:40:84:1d:42:64:31:4b:82:fa:8f:28:
                    85:3e:41:c7:e4:c3:13:9c:0c:9c:9d:50:a1:87:b4:
                    79:dd:12:ec:a3:71:b9:ef:ef:28:3e:72:4f:02:41:
                    c3:d4:d1:77:8d:a0:c6:6f:5a:f3:eb:fb:82:11:46:
                    b9:30:95:ab:46:69:8d:27:13:80:7f:57:a6:19:10:
                    05:65:3d:6a:64:53:87:29:0a:a2:5e:7b:ab:4f:8b:
                    dd:d3:a7:2e:1c:2e:32:48:e2:2e:44:d1:8e:7d:31:
                    28:c4:36:1c:4c:c6:02:3d:06:4d:44:44:30:68:02:
                    f5:a5:8e:8e:c3:1c:37:7d:16:8a:8b:36:92:de:8a:
                    b7:95:ce:95:63:cf:fb:79:ec:5a:5f:ed:04:88:f2:
                    93:33
                Exponent: 65537 (0x10001)
        X509v3 extensions:
            X509v3 Basic Constraints: 
                CA:FALSE
            X509v3 Subject Key Identifier: 
                ED:2C:7C:06:49:FD:79:7B:64:35:5B:39:C9:48:D7:94:D3:96:80:C4
            X509v3 Authority Key Identifier: 
                keyid:95:69:A0:42:29:1E:0E:1F:DE:F2:9A:F0:5D:56:CF:DA:0C:B3:0D:7A
                DirName:/CN=team575-net
                serial:3A:72:33:BC:B9:BF:7B:09:EC:A7:46:BF:D9:C9:12:2C:CB:F2:5E:EB

            X509v3 Extended Key Usage: 
                TLS Web Server Authentication
            X509v3 Key Usage: 
                Digital Signature, Key Encipherment
            X509v3 Subject Alternative Name: 
                DNS:team575-server
    Signature Algorithm: sha256WithRSAEncryption
         8c:77:a6:f0:8f:8e:5c:5e:d9:dd:4d:a4:33:d7:6f:d9:73:50:
         b5:f4:c6:7c:1b:99:31:1c:b5:39:3a:e4:17:d0:0f:b9:eb:89:
         52:0d:37:bc:40:fe:b0:e2:62:e0:57:d7:d2:ed:c0:d9:4a:93:
         31:3a:78:7f:b1:58:dc:f4:a1:3d:ac:af:55:99:a1:aa:1a:24:
         26:12:e4:fa:86:84:05:6a:22:14:f5:0d:ff:bc:69:a4:c6:95:
         8e:80:ac:be:4d:76:06:c2:c2:80:4e:d0:fa:4e:98:d7:fe:21:
         9e:ce:72:c4:56:27:65:c4:48:2c:de:97:b9:27:6a:99:5b:ba:
         c8:fc:68:5b:01:18:43:3d:17:94:ac:3a:19:19:28:19:f7:27:
         8f:6b:07:1b:79:e9:50:f1:4b:46:5d:c6:5d:83:89:d3:ee:d5:
         02:5f:74:05:90:7a:8c:80:47:31:0d:7e:d6:07:25:16:46:c3:
         fe:a5:94:5a:9d:94:d6:8b:5f:c2:48:73:41:67:89:d2:09:d0:
         ce:19:33:9d:d7:af:e0:7d:cd:f6:38:5a:f6:9f:71:7a:b6:cd:
         e3:c9:ab:35:b4:c8:a5:d3:bc:d3:53:97:38:21:10:10:21:05:
         86:2d:c9:6e:66:44:41:8f:13:75:a0:84:c6:93:45:25:b2:dc:
         fb:57:ea:ad
-----BEGIN CERTIFICATE-----
MIIDdzCCAl+gAwIBAgIQYdD1SLjjRkWxXdGiNASAfTANBgkqhkiG9w0BAQsFADAW
MRQwEgYDVQQDDAt0ZWFtNTc1LW5ldDAeFw0yMjA1MTgyMjMyNDFaFw0yNTA1MDIy
MjMyNDFaMBkxFzAVBgNVBAMMDnRlYW01NzUtc2VydmVyMIIBIjANBgkqhkiG9w0B
AQEFAAOCAQ8AMIIBCgKCAQEAwMeKVsMz9nKD4ly1IQ8ScCzxlWsLkWMgBYvD/ynP
ycbqNzyF2MdZraVpY22XPzSIkKBSOy/KSm26iOrT0gqM/6h9TdFh219u4xRldOgQ
06Ngt3+leiP23V8voJtM5qLDXONpDFnHwT1/9KBGQIQdQmQxS4L6jyiFPkHH5MMT
nAycnVChh7R53RLso3G57+8oPnJPAkHD1NF3jaDGb1rz6/uCEUa5MJWrRmmNJxOA
f1emGRAFZT1qZFOHKQqiXnurT4vd06cuHC4ySOIuRNGOfTEoxDYcTMYCPQZNREQw
aAL1pY6Owxw3fRaKizaS3oq3lc6VY8/7eexaX+0EiPKTMwIDAQABo4G9MIG6MAkG
A1UdEwQCMAAwHQYDVR0OBBYEFO0sfAZJ/Xl7ZDVbOclI15TTloDEMFEGA1UdIwRK
MEiAFJVpoEIpHg4f3vKa8F1Wz9oMsw16oRqkGDAWMRQwEgYDVQQDDAt0ZWFtNTc1
LW5ldIIUOnIzvLm/ewnsp0a/2ckSLMvyXuswEwYDVR0lBAwwCgYIKwYBBQUHAwEw
CwYDVR0PBAQDAgWgMBkGA1UdEQQSMBCCDnRlYW01NzUtc2VydmVyMA0GCSqGSIb3
DQEBCwUAA4IBAQCMd6bwj45cXtndTaQz12/Zc1C19MZ8G5kxHLU5OuQX0A+564lS
DTe8QP6w4mLgV9fS7cDZSpMxOnh/sVjc9KE9rK9VmaGqGiQmEuT6hoQFaiIU9Q3/
vGmkxpWOgKy+TXYGwsKATtD6TpjX/iGeznLEVidlxEgs3pe5J2qZW7rI/GhbARhD
PReUrDoZGSgZ9yePawcbeelQ8UtGXcZdg4nT7tUCX3QFkHqMgEcxDX7WByUWRsP+
pZRanZTWi1/CSHNBZ4nSCdDOGTOd16/gfc32OFr2n3F6ts3jyas1tMil07zTU5c4
IRAQIQWGLcluZkRBjxN1oITGk0Ulstz7V+qt
-----END CERTIFICATE-----
