Certificate:
    Data:
        Version: 3 (0x2)
        Serial Number:
            ca:43:32:e7:69:99:14:ed:7f:2d:7d:6e:fd:62:06:a6
        Signature Algorithm: sha256WithRSAEncryption
        Issuer: CN=team197-net
        Validity
            Not Before: May 18 19:00:34 2022 GMT
            Not After : May  2 19:00:34 2025 GMT
        Subject: CN=team197-client
        Subject Public Key Info:
            Public Key Algorithm: rsaEncryption
                RSA Public-Key: (2048 bit)
                Modulus:
                    00:c3:16:fd:39:1c:5f:4e:0e:cf:9c:cb:7f:28:be:
                    10:76:f6:cb:97:39:52:bd:a0:38:d9:c0:29:53:a3:
                    f8:8f:6e:16:e9:71:11:16:22:0c:b7:23:34:5d:a7:
                    e0:ec:d9:42:5f:39:63:25:a6:4b:ec:0b:7f:b5:f8:
                    3e:93:9e:22:7c:5b:b3:c5:10:7f:8f:5f:49:e8:4b:
                    4f:70:38:97:e7:01:67:d6:ec:87:c4:6e:26:be:b9:
                    b4:6e:6a:e2:ae:cf:8b:40:d0:f3:34:84:c7:18:ad:
                    76:a8:67:da:51:98:63:ec:97:81:8c:81:dc:da:66:
                    05:fe:ee:aa:44:ce:4a:62:da:d3:0b:b7:2d:b0:e3:
                    03:14:40:4d:83:22:99:17:b5:a0:cf:15:c7:06:ff:
                    1f:f0:5d:77:99:1e:d9:7f:83:2c:56:6d:58:61:e8:
                    1e:34:3e:68:06:c7:21:60:35:00:5a:7c:87:e4:c1:
                    24:e6:6c:82:69:d1:8f:b2:a3:1d:d8:da:61:7d:8d:
                    88:95:6a:79:75:c8:71:b2:e5:8b:16:a0:99:2c:ae:
                    19:18:69:4e:37:3d:2d:39:de:b1:c4:5c:9e:b1:b7:
                    a5:1b:dc:ce:e7:17:29:f7:80:fe:ff:f3:13:42:00:
                    7b:9f:a7:10:bb:b9:e6:82:7d:14:24:39:a8:5a:d6:
                    41:ed
                Exponent: 65537 (0x10001)
        X509v3 extensions:
            X509v3 Basic Constraints: 
                CA:FALSE
            X509v3 Subject Key Identifier: 
                32:34:EE:17:8E:24:B4:7E:9E:23:48:C4:81:61:49:E1:3E:09:E2:A9
            X509v3 Authority Key Identifier: 
                keyid:6C:22:09:18:79:DD:2C:A6:4F:44:74:7A:C7:25:2E:8E:3B:97:1C:57
                DirName:/CN=team197-net
                serial:39:0D:E4:D4:E5:0A:B1:D3:26:10:76:77:31:26:7E:D6:CC:DC:EB:95

            X509v3 Extended Key Usage: 
                TLS Web Client Authentication
            X509v3 Key Usage: 
                Digital Signature
    Signature Algorithm: sha256WithRSAEncryption
         1e:f1:62:3f:e6:d7:59:6c:37:5b:2c:6c:49:04:db:15:f1:f9:
         c7:01:07:96:2d:03:6b:4e:71:ab:8c:c9:39:b8:fa:3c:52:47:
         2c:bf:cd:e9:fd:74:4d:19:3c:82:60:db:e7:72:9f:02:12:97:
         2f:b1:6b:53:0b:05:4a:5a:88:cb:97:6a:0b:3a:83:42:ae:e5:
         27:68:9e:59:86:35:40:b3:83:0d:dc:ca:48:f1:04:05:36:90:
         ba:8c:f1:13:0a:62:26:ca:b2:8d:88:34:70:3c:17:04:ef:7c:
         53:0e:b9:93:e2:e8:6c:26:34:fd:56:97:59:69:06:eb:a1:a6:
         a0:e7:16:f5:a7:c9:86:6c:10:e5:cb:78:57:be:98:c5:23:7f:
         e4:28:fc:cb:f0:77:d1:58:fa:ff:a8:5e:ff:9d:c8:fd:94:f3:
         36:84:d8:97:4d:40:c4:53:9e:ca:80:56:c6:33:77:bc:35:9b:
         32:26:51:50:f8:85:2a:36:b1:59:2e:6a:81:95:40:62:2f:19:
         2d:b3:96:74:67:9a:4d:ce:af:9e:e0:62:77:f1:90:6b:48:27:
         9e:21:01:dc:65:80:6a:68:6d:84:f3:0e:fd:7c:72:8e:c2:80:
         7f:00:8b:ce:f4:55:ae:57:e0:48:98:36:f7:26:68:90:e3:20:
         d1:d4:c3:55
-----BEGIN CERTIFICATE-----
MIIDXTCCAkWgAwIBAgIRAMpDMudpmRTtfy19bv1iBqYwDQYJKoZIhvcNAQELBQAw
FjEUMBIGA1UEAwwLdGVhbTE5Ny1uZXQwHhcNMjIwNTE4MTkwMDM0WhcNMjUwNTAy
MTkwMDM0WjAZMRcwFQYDVQQDDA50ZWFtMTk3LWNsaWVudDCCASIwDQYJKoZIhvcN
AQEBBQADggEPADCCAQoCggEBAMMW/TkcX04Oz5zLfyi+EHb2y5c5Ur2gONnAKVOj
+I9uFulxERYiDLcjNF2n4OzZQl85YyWmS+wLf7X4PpOeInxbs8UQf49fSehLT3A4
l+cBZ9bsh8RuJr65tG5q4q7Pi0DQ8zSExxitdqhn2lGYY+yXgYyB3NpmBf7uqkTO
SmLa0wu3LbDjAxRATYMimRe1oM8Vxwb/H/Bdd5ke2X+DLFZtWGHoHjQ+aAbHIWA1
AFp8h+TBJOZsgmnRj7KjHdjaYX2NiJVqeXXIcbLlixagmSyuGRhpTjc9LTnescRc
nrG3pRvczucXKfeA/v/zE0IAe5+nELu55oJ9FCQ5qFrWQe0CAwEAAaOBojCBnzAJ
BgNVHRMEAjAAMB0GA1UdDgQWBBQyNO4XjiS0fp4jSMSBYUnhPgniqTBRBgNVHSME
SjBIgBRsIgkYed0spk9EdHrHJS6OO5ccV6EapBgwFjEUMBIGA1UEAwwLdGVhbTE5
Ny1uZXSCFDkN5NTlCrHTJhB2dzEmftbM3OuVMBMGA1UdJQQMMAoGCCsGAQUFBwMC
MAsGA1UdDwQEAwIHgDANBgkqhkiG9w0BAQsFAAOCAQEAHvFiP+bXWWw3WyxsSQTb
FfH5xwEHli0Da05xq4zJObj6PFJHLL/N6f10TRk8gmDb53KfAhKXL7FrUwsFSlqI
y5dqCzqDQq7lJ2ieWYY1QLODDdzKSPEEBTaQuozxEwpiJsqyjYg0cDwXBO98Uw65
k+LobCY0/VaXWWkG66GmoOcW9afJhmwQ5ct4V76YxSN/5Cj8y/B30Vj6/6he/53I
/ZTzNoTYl01AxFOeyoBWxjN3vDWbMiZRUPiFKjaxWS5qgZVAYi8ZLbOWdGeaTc6v
nuBid/GQa0gnniEB3GWAamhthPMO/XxyjsKAfwCLzvRVrlfgSJg29yZokOMg0dTD
VQ==
-----END CERTIFICATE-----
