Certificate:
    Data:
        Version: 3 (0x2)
        Serial Number:
            01:bf:ce:b2:cf:65:fe:8a:f6:07:54:c6:6e:93:cf:5b
        Signature Algorithm: sha256WithRSAEncryption
        Issuer: CN=team589-net
        Validity
            Not Before: May 18 22:36:28 2022 GMT
            Not After : May  2 22:36:28 2025 GMT
        Subject: CN=team589-client
        Subject Public Key Info:
            Public Key Algorithm: rsaEncryption
                RSA Public-Key: (2048 bit)
                Modulus:
                    00:d2:ea:3c:a5:63:da:b7:4c:df:e4:d4:f1:ed:72:
                    dc:a0:71:ab:f3:43:c6:4d:9e:13:2e:9b:43:9f:e9:
                    75:9c:db:ad:af:c9:c6:60:59:78:bc:64:b7:52:43:
                    8b:ff:86:7a:25:06:ac:73:7e:90:b8:c1:cf:79:6e:
                    bf:b9:b2:e7:cd:9b:4c:02:3b:96:9f:68:10:34:c9:
                    19:ac:07:3e:ac:e9:95:55:ae:fd:08:72:b6:82:25:
                    4c:67:04:49:c4:db:4c:6f:57:41:59:f4:fb:84:43:
                    82:39:05:f2:23:c1:18:92:7f:74:b4:74:0a:29:30:
                    31:e9:42:f3:55:c6:2d:1c:ba:9d:15:7d:ef:07:28:
                    a2:d4:d2:e3:86:bd:5a:e6:c1:8d:81:b2:0c:2a:c5:
                    c5:5d:26:4b:19:f0:68:60:ed:2e:6c:ae:1f:5e:fb:
                    80:e3:30:0e:df:e9:6a:1c:96:39:d0:af:2a:87:3e:
                    e8:b1:42:b8:d3:b0:d4:f7:dc:e2:11:b8:48:39:ed:
                    66:36:8f:d3:e2:2d:1f:f0:e5:d3:8d:8d:3a:da:7a:
                    4d:18:4a:4f:7e:6b:d9:1e:a1:9a:0f:83:09:43:a2:
                    6d:c1:fc:da:68:92:19:c3:a1:ce:0d:30:ac:a9:02:
                    1f:78:f7:9f:c8:ff:e2:13:0f:47:1d:b0:2b:3e:a1:
                    94:ab
                Exponent: 65537 (0x10001)
        X509v3 extensions:
            X509v3 Basic Constraints: 
                CA:FALSE
            X509v3 Subject Key Identifier: 
                8F:14:F2:E3:BE:59:1F:55:0A:40:21:0E:49:25:B7:58:FD:60:17:15
            X509v3 Authority Key Identifier: 
                keyid:14:98:34:84:DA:DA:08:50:BE:89:BA:0C:B4:42:C2:C5:E5:4B:99:B1
                DirName:/CN=team589-net
                serial:66:8F:FC:90:18:02:C3:56:DC:07:3E:C8:B7:BC:98:4F:5D:7E:EA:A2

            X509v3 Extended Key Usage: 
                TLS Web Client Authentication
            X509v3 Key Usage: 
                Digital Signature
    Signature Algorithm: sha256WithRSAEncryption
         a3:1e:f6:42:9f:13:e8:74:58:48:85:30:b3:ed:29:a1:54:1b:
         44:eb:32:40:84:dd:65:72:68:33:72:23:de:52:eb:89:0d:9c:
         8a:bc:35:98:f4:82:66:f4:95:89:e9:50:ff:e0:99:40:3e:c3:
         17:89:f9:78:46:8c:d0:be:2e:96:2c:f7:50:c9:3f:37:f0:35:
         97:f3:af:6f:27:7d:3d:04:35:10:aa:28:db:2c:63:a9:0c:23:
         a6:b5:9e:73:e1:99:96:40:ba:4e:04:c8:0d:ed:b7:48:79:d6:
         3a:a0:50:62:c8:16:f5:d4:60:93:1e:ea:4c:8a:85:11:ee:70:
         ab:af:a9:2f:a3:27:a7:e4:82:3a:cf:d0:48:14:8a:d4:0f:83:
         5a:a0:6c:4b:af:c3:a1:4f:bd:dd:cd:7c:3f:ec:9f:34:ae:d6:
         cb:25:9c:2b:52:7a:54:01:80:69:67:ff:a6:7a:a8:54:82:f5:
         4d:bc:18:d7:ce:e5:05:0c:c1:87:0a:bc:7f:89:f9:f8:f4:e2:
         6c:16:b9:ac:3a:1d:b3:57:4e:22:ce:f1:9a:c4:d9:94:8c:93:
         83:ab:2f:32:46:b4:40:94:58:f3:03:a5:82:e6:b3:e3:06:38:
         0a:2e:1f:97:18:fb:11:11:67:79:32:fc:70:13:e5:ad:9f:d6:
         bb:7b:cf:1a
-----BEGIN CERTIFICATE-----
MIIDXDCCAkSgAwIBAgIQAb/Oss9l/or2B1TGbpPPWzANBgkqhkiG9w0BAQsFADAW
MRQwEgYDVQQDDAt0ZWFtNTg5LW5ldDAeFw0yMjA1MTgyMjM2MjhaFw0yNTA1MDIy
MjM2MjhaMBkxFzAVBgNVBAMMDnRlYW01ODktY2xpZW50MIIBIjANBgkqhkiG9w0B
AQEFAAOCAQ8AMIIBCgKCAQEA0uo8pWPat0zf5NTx7XLcoHGr80PGTZ4TLptDn+l1
nNutr8nGYFl4vGS3UkOL/4Z6JQasc36QuMHPeW6/ubLnzZtMAjuWn2gQNMkZrAc+
rOmVVa79CHK2giVMZwRJxNtMb1dBWfT7hEOCOQXyI8EYkn90tHQKKTAx6ULzVcYt
HLqdFX3vByii1NLjhr1a5sGNgbIMKsXFXSZLGfBoYO0ubK4fXvuA4zAO3+lqHJY5
0K8qhz7osUK407DU99ziEbhIOe1mNo/T4i0f8OXTjY062npNGEpPfmvZHqGaD4MJ
Q6JtwfzaaJIZw6HODTCsqQIfePefyP/iEw9HHbArPqGUqwIDAQABo4GiMIGfMAkG
A1UdEwQCMAAwHQYDVR0OBBYEFI8U8uO+WR9VCkAhDkklt1j9YBcVMFEGA1UdIwRK
MEiAFBSYNITa2ghQvom6DLRCwsXlS5mxoRqkGDAWMRQwEgYDVQQDDAt0ZWFtNTg5
LW5ldIIUZo/8kBgCw1bcBz7It7yYT11+6qIwEwYDVR0lBAwwCgYIKwYBBQUHAwIw
CwYDVR0PBAQDAgeAMA0GCSqGSIb3DQEBCwUAA4IBAQCjHvZCnxPodFhIhTCz7Smh
VBtE6zJAhN1lcmgzciPeUuuJDZyKvDWY9IJm9JWJ6VD/4JlAPsMXifl4RozQvi6W
LPdQyT838DWX869vJ309BDUQqijbLGOpDCOmtZ5z4ZmWQLpOBMgN7bdIedY6oFBi
yBb11GCTHupMioUR7nCrr6kvoyen5II6z9BIFIrUD4NaoGxLr8OhT73dzXw/7J80
rtbLJZwrUnpUAYBpZ/+meqhUgvVNvBjXzuUFDMGHCrx/ifn49OJsFrmsOh2zV04i
zvGaxNmUjJODqy8yRrRAlFjzA6WC5rPjBjgKLh+XGPsREWd5MvxwE+Wtn9a7e88a
-----END CERTIFICATE-----
