Certificate:
    Data:
        Version: 3 (0x2)
        Serial Number:
            45:5f:42:0f:9c:0e:c1:df:97:9f:6e:a3:fa:57:12:7a
        Signature Algorithm: sha256WithRSAEncryption
        Issuer: CN=team693-net
        Validity
            Not Before: May 18 23:27:59 2022 GMT
            Not After : May  2 23:27:59 2025 GMT
        Subject: CN=team693-client
        Subject Public Key Info:
            Public Key Algorithm: rsaEncryption
                RSA Public-Key: (2048 bit)
                Modulus:
                    00:b9:0f:e4:f4:be:8e:37:57:62:0b:2a:b0:5d:67:
                    2a:70:d3:34:82:58:bb:ad:ec:8c:3b:65:c2:f9:46:
                    22:d9:4d:4d:21:f9:c6:c8:7e:0e:b2:bd:9a:e8:94:
                    34:86:27:f1:69:3e:cd:dc:c6:96:ea:cc:f6:cd:f3:
                    a7:4e:1e:75:34:16:3a:4f:54:13:59:f8:8e:62:ac:
                    15:68:4e:87:06:45:62:95:9d:c0:e1:ef:3a:5f:34:
                    21:76:98:0b:5e:a8:53:e5:c4:07:f9:a4:87:be:ba:
                    69:6e:ef:d8:59:40:8b:3e:14:b0:1b:a7:f5:5d:b2:
                    c2:0b:26:e0:e8:8d:10:a3:20:5e:ef:64:48:af:df:
                    5e:38:ac:69:fa:3d:26:d2:2f:13:eb:f7:cc:4b:3a:
                    fb:b7:b5:89:80:8d:3d:4f:ea:46:f8:0f:03:08:1b:
                    16:4d:e3:87:73:6e:19:15:5c:e1:ee:a9:1b:9e:76:
                    e5:00:20:b8:33:12:c8:9a:23:a0:a5:2f:c3:0c:78:
                    f4:d3:83:b3:68:ba:de:76:82:92:ca:b6:ec:30:cc:
                    a3:58:77:0c:58:29:75:b8:f8:f3:37:62:4f:f4:a6:
                    ec:42:71:b1:6c:9c:10:92:1d:b9:0d:77:7e:b2:ab:
                    e9:eb:76:82:2a:27:f8:79:8d:be:a6:fc:46:41:3a:
                    8f:59
                Exponent: 65537 (0x10001)
        X509v3 extensions:
            X509v3 Basic Constraints: 
                CA:FALSE
            X509v3 Subject Key Identifier: 
                4F:3A:85:A9:75:36:21:C2:7A:21:83:4E:5D:12:14:57:7B:33:74:28
            X509v3 Authority Key Identifier: 
                keyid:DB:D9:02:A8:71:DA:7E:6D:E6:AE:10:F6:45:F5:15:CE:91:B4:62:3F
                DirName:/CN=team693-net
                serial:6D:CA:02:8F:41:E0:40:26:E1:BA:10:CA:27:A6:5E:E5:EF:7A:98:E4

            X509v3 Extended Key Usage: 
                TLS Web Client Authentication
            X509v3 Key Usage: 
                Digital Signature
    Signature Algorithm: sha256WithRSAEncryption
         55:06:27:e8:94:02:70:b4:36:8f:7d:8b:82:7f:52:89:68:3d:
         9a:78:70:86:fc:0c:6c:67:62:b5:94:04:39:f9:2c:98:c0:0b:
         8b:e9:9b:7d:a4:f8:e7:08:e6:42:b0:7c:df:53:59:76:43:fc:
         83:a0:83:91:84:02:23:29:43:c2:88:30:bb:d4:e6:ca:79:6d:
         35:a7:e5:c6:9d:d3:d7:34:21:84:fb:df:1a:c1:a4:d1:3b:2d:
         77:40:c1:f1:5d:32:86:86:33:9c:7b:5a:6c:0c:68:f4:18:36:
         a5:21:08:30:c5:3a:f3:b9:c4:80:1a:39:8b:0c:e9:e0:98:22:
         53:7a:f7:28:d7:56:ee:7b:4e:79:f4:68:a0:54:1e:02:c9:b8:
         ab:20:39:a2:62:eb:c8:f6:bc:78:29:73:7c:ec:b4:64:c5:51:
         8b:94:77:db:3b:32:56:cc:f6:a9:f5:7c:e4:a9:af:6b:25:1c:
         7f:97:ad:04:45:ab:77:51:1c:fd:1b:bd:d9:c4:03:6c:27:e2:
         00:f0:87:f4:1b:46:b8:fe:2a:57:ad:c0:e7:f5:30:2a:28:5a:
         86:a1:92:bd:74:dd:36:ab:f4:ba:8a:d4:a5:f0:51:fb:6a:5f:
         db:51:b4:2a:07:fb:a7:1c:ee:2c:db:19:35:d8:82:7a:59:39:
         ac:86:31:e8
-----BEGIN CERTIFICATE-----
MIIDXDCCAkSgAwIBAgIQRV9CD5wOwd+Xn26j+lcSejANBgkqhkiG9w0BAQsFADAW
MRQwEgYDVQQDDAt0ZWFtNjkzLW5ldDAeFw0yMjA1MTgyMzI3NTlaFw0yNTA1MDIy
MzI3NTlaMBkxFzAVBgNVBAMMDnRlYW02OTMtY2xpZW50MIIBIjANBgkqhkiG9w0B
AQEFAAOCAQ8AMIIBCgKCAQEAuQ/k9L6ON1diCyqwXWcqcNM0gli7reyMO2XC+UYi
2U1NIfnGyH4Osr2a6JQ0hifxaT7N3MaW6sz2zfOnTh51NBY6T1QTWfiOYqwVaE6H
BkVilZ3A4e86XzQhdpgLXqhT5cQH+aSHvrppbu/YWUCLPhSwG6f1XbLCCybg6I0Q
oyBe72RIr99eOKxp+j0m0i8T6/fMSzr7t7WJgI09T+pG+A8DCBsWTeOHc24ZFVzh
7qkbnnblACC4MxLImiOgpS/DDHj004OzaLredoKSyrbsMMyjWHcMWCl1uPjzN2JP
9KbsQnGxbJwQkh25DXd+sqvp63aCKif4eY2+pvxGQTqPWQIDAQABo4GiMIGfMAkG
A1UdEwQCMAAwHQYDVR0OBBYEFE86hal1NiHCeiGDTl0SFFd7M3QoMFEGA1UdIwRK
MEiAFNvZAqhx2n5t5q4Q9kX1Fc6RtGI/oRqkGDAWMRQwEgYDVQQDDAt0ZWFtNjkz
LW5ldIIUbcoCj0HgQCbhuhDKJ6Ze5e96mOQwEwYDVR0lBAwwCgYIKwYBBQUHAwIw
CwYDVR0PBAQDAgeAMA0GCSqGSIb3DQEBCwUAA4IBAQBVBifolAJwtDaPfYuCf1KJ
aD2aeHCG/AxsZ2K1lAQ5+SyYwAuL6Zt9pPjnCOZCsHzfU1l2Q/yDoIORhAIjKUPC
iDC71ObKeW01p+XGndPXNCGE+98awaTROy13QMHxXTKGhjOce1psDGj0GDalIQgw
xTrzucSAGjmLDOngmCJTevco11bue0559GigVB4CybirIDmiYuvI9rx4KXN87LRk
xVGLlHfbOzJWzPap9Xzkqa9rJRx/l60ERat3URz9G73ZxANsJ+IA8If0G0a4/ipX
rcDn9TAqKFqGoZK9dN02q/S6itSl8FH7al/bUbQqB/unHO4s2xk12IJ6WTmshjHo
-----END CERTIFICATE-----
