Certificate:
    Data:
        Version: 3 (0x2)
        Serial Number:
            08:e5:21:a6:d9:1d:6b:d5:75:6a:be:8a:04:7c:aa:28
        Signature Algorithm: sha256WithRSAEncryption
        Issuer: CN=team406-net
        Validity
            Not Before: May 18 20:50:58 2022 GMT
            Not After : May  2 20:50:58 2025 GMT
        Subject: CN=team406-server
        Subject Public Key Info:
            Public Key Algorithm: rsaEncryption
                RSA Public-Key: (2048 bit)
                Modulus:
                    00:9f:42:54:e4:ea:9f:73:fe:ec:d5:d1:f0:1c:4b:
                    24:3e:89:02:e5:f8:d2:3d:54:f4:67:88:65:f4:68:
                    51:59:9a:bd:73:db:90:93:f4:bd:bc:b5:ec:7c:0d:
                    b3:00:a8:16:51:7d:99:a4:45:54:7f:98:f9:3f:55:
                    90:d2:52:46:c3:23:0d:39:0e:fb:3b:30:48:0b:bb:
                    22:db:79:3b:cf:1a:e3:fd:80:fe:12:91:62:1a:53:
                    c9:10:21:26:09:21:4f:66:9f:37:45:40:60:a5:c7:
                    b8:5b:5d:06:a1:45:0f:f5:b6:f9:53:85:29:dc:3a:
                    c7:43:e4:f6:12:43:b0:34:3f:e4:d3:dd:47:d3:8c:
                    e0:ef:85:b6:1c:a8:c4:02:51:7c:63:40:f9:5a:cb:
                    52:fc:fb:a7:d7:03:8b:de:23:0a:8d:a9:4a:e4:26:
                    59:9e:65:b3:55:0d:75:1e:67:ff:ed:a3:e8:16:22:
                    b4:80:3e:8c:aa:05:52:84:53:53:f6:97:5f:34:78:
                    e6:4f:a1:2b:dc:f1:7a:1b:42:db:d3:a0:c3:6b:91:
                    01:75:a6:78:53:8b:b0:a6:2c:43:b7:0b:53:07:6b:
                    8d:ba:f2:57:52:72:b2:3b:a1:95:22:17:26:06:a8:
                    2a:60:e0:83:d2:2c:de:18:2a:64:c7:4f:5a:20:42:
                    dd:d1
                Exponent: 65537 (0x10001)
        X509v3 extensions:
            X509v3 Basic Constraints: 
                CA:FALSE
            X509v3 Subject Key Identifier: 
                3A:3F:CC:98:63:65:A0:B8:4B:B2:31:31:EA:EA:8F:0C:CB:30:DB:41
            X509v3 Authority Key Identifier: 
                keyid:AD:EB:B4:4D:95:FA:F7:91:52:BF:69:BA:63:0B:AB:01:33:80:3F:60
                DirName:/CN=team406-net
                serial:69:5E:34:59:FB:76:79:4F:89:51:B3:25:9D:16:E6:10:75:7C:73:72

            X509v3 Extended Key Usage: 
                TLS Web Server Authentication
            X509v3 Key Usage: 
                Digital Signature, Key Encipherment
            X509v3 Subject Alternative Name: 
                DNS:team406-server
    Signature Algorithm: sha256WithRSAEncryption
         88:0c:1c:a0:fb:dc:ce:5c:bd:99:df:35:ee:1f:7c:ba:e7:64:
         81:c1:c7:b8:ae:5c:14:9c:9a:20:5b:1d:07:17:b3:40:59:30:
         a7:0a:68:66:be:0a:c9:ab:1a:39:84:2f:2e:68:58:3e:43:aa:
         a5:d6:14:ed:a3:10:d9:00:2d:74:db:54:99:34:4d:39:52:02:
         7d:ca:61:4f:41:f5:f2:3a:bd:80:56:fd:1d:ed:4a:a1:36:46:
         3f:d1:33:3b:50:f8:4f:17:b6:81:03:c3:cf:8e:63:52:12:75:
         31:46:d9:0b:bc:77:68:dd:d7:64:59:0a:52:71:7f:8a:1b:b1:
         2e:51:ee:60:74:96:b8:1c:5f:84:24:bd:97:f5:ba:fb:ee:99:
         58:12:eb:bc:cc:d0:8d:0d:83:c0:0a:93:af:41:16:fa:c4:b7:
         0c:d0:13:fb:cd:7f:ac:2d:1e:8b:3b:8f:2f:59:43:6a:6e:91:
         ee:88:df:74:6d:a3:e2:aa:f2:e0:70:bb:12:dc:df:96:28:2b:
         f1:60:cc:e7:9b:15:ec:00:76:12:b7:fa:0f:3f:c9:c8:f7:b6:
         95:85:31:57:ba:15:b3:54:a3:86:9d:bd:7a:b0:2c:35:07:a7:
         2f:ca:90:30:3f:74:0e:b9:de:62:fa:c8:e8:d0:47:9e:d6:ee:
         00:bf:54:39
-----BEGIN CERTIFICATE-----
MIIDdzCCAl+gAwIBAgIQCOUhptkda9V1ar6KBHyqKDANBgkqhkiG9w0BAQsFADAW
MRQwEgYDVQQDDAt0ZWFtNDA2LW5ldDAeFw0yMjA1MTgyMDUwNThaFw0yNTA1MDIy
MDUwNThaMBkxFzAVBgNVBAMMDnRlYW00MDYtc2VydmVyMIIBIjANBgkqhkiG9w0B
AQEFAAOCAQ8AMIIBCgKCAQEAn0JU5Oqfc/7s1dHwHEskPokC5fjSPVT0Z4hl9GhR
WZq9c9uQk/S9vLXsfA2zAKgWUX2ZpEVUf5j5P1WQ0lJGwyMNOQ77OzBIC7si23k7
zxrj/YD+EpFiGlPJECEmCSFPZp83RUBgpce4W10GoUUP9bb5U4Up3DrHQ+T2EkOw
ND/k091H04zg74W2HKjEAlF8Y0D5WstS/Pun1wOL3iMKjalK5CZZnmWzVQ11Hmf/
7aPoFiK0gD6MqgVShFNT9pdfNHjmT6Er3PF6G0Lb06DDa5EBdaZ4U4uwpixDtwtT
B2uNuvJXUnKyO6GVIhcmBqgqYOCD0izeGCpkx09aIELd0QIDAQABo4G9MIG6MAkG
A1UdEwQCMAAwHQYDVR0OBBYEFDo/zJhjZaC4S7IxMerqjwzLMNtBMFEGA1UdIwRK
MEiAFK3rtE2V+veRUr9pumMLqwEzgD9goRqkGDAWMRQwEgYDVQQDDAt0ZWFtNDA2
LW5ldIIUaV40Wft2eU+JUbMlnRbmEHV8c3IwEwYDVR0lBAwwCgYIKwYBBQUHAwEw
CwYDVR0PBAQDAgWgMBkGA1UdEQQSMBCCDnRlYW00MDYtc2VydmVyMA0GCSqGSIb3
DQEBCwUAA4IBAQCIDByg+9zOXL2Z3zXuH3y652SBwce4rlwUnJogWx0HF7NAWTCn
CmhmvgrJqxo5hC8uaFg+Q6ql1hTtoxDZAC1021SZNE05UgJ9ymFPQfXyOr2AVv0d
7UqhNkY/0TM7UPhPF7aBA8PPjmNSEnUxRtkLvHdo3ddkWQpScX+KG7EuUe5gdJa4
HF+EJL2X9br77plYEuu8zNCNDYPACpOvQRb6xLcM0BP7zX+sLR6LO48vWUNqbpHu
iN90baPiqvLgcLsS3N+WKCvxYMznmxXsAHYSt/oPP8nI97aVhTFXuhWzVKOGnb16
sCw1B6cvypAwP3QOud5i+sjo0Eee1u4Av1Q5
-----END CERTIFICATE-----
