Certificate:
    Data:
        Version: 3 (0x2)
        Serial Number:
            1a:ae:63:0f:92:52:0e:92:6e:fd:bc:6d:9b:85:41:47
        Signature Algorithm: sha256WithRSAEncryption
        Issuer: CN=team406-net
        Validity
            Not Before: May 18 20:50:58 2022 GMT
            Not After : May  2 20:50:58 2025 GMT
        Subject: CN=team406-client
        Subject Public Key Info:
            Public Key Algorithm: rsaEncryption
                RSA Public-Key: (2048 bit)
                Modulus:
                    00:c6:43:8a:ef:f0:07:26:f0:8e:bc:0e:29:33:b1:
                    b4:63:f6:03:5a:68:b6:f9:f2:c3:2c:c2:6b:4d:54:
                    ab:47:82:d5:13:f8:8f:be:f3:f6:c2:1d:5b:db:d4:
                    8b:ad:dc:fa:d4:ba:bd:02:99:40:fb:f9:a3:65:b8:
                    df:b9:6f:ae:29:08:99:aa:69:27:8a:01:7d:21:21:
                    c8:a9:3a:91:25:0e:8d:ac:6c:ea:ac:0b:89:95:c6:
                    6a:fd:06:23:ad:68:37:42:6b:d8:80:b7:1e:a1:b7:
                    cb:f2:4b:bc:34:d2:2d:be:70:a9:4b:02:fe:c7:f0:
                    a6:b7:27:11:b5:df:9c:b8:f7:14:bd:45:2b:f5:4f:
                    9f:a0:fa:55:f0:53:7e:e6:5c:3f:e8:d5:8a:13:8d:
                    d8:25:b0:31:13:73:23:06:5d:dc:a9:69:da:5e:22:
                    95:d5:ae:e8:88:c8:c4:fc:6f:bc:59:d7:c5:36:c5:
                    67:ba:4b:78:ce:cc:0c:4e:a3:80:87:23:20:56:97:
                    a5:9d:61:be:29:e8:93:45:bd:6a:7a:a0:94:2a:92:
                    8b:25:84:35:7d:70:f4:92:8c:b0:fe:da:2a:01:97:
                    43:b9:1b:ea:49:74:79:a5:97:63:7e:3e:ad:fa:d9:
                    c7:cc:64:2e:ba:fc:40:48:13:78:ee:74:1e:9b:c8:
                    aa:d9
                Exponent: 65537 (0x10001)
        X509v3 extensions:
            X509v3 Basic Constraints: 
                CA:FALSE
            X509v3 Subject Key Identifier: 
                4A:4E:26:BE:5B:2B:8C:1C:A7:18:93:F8:24:B8:58:45:07:75:C0:B6
            X509v3 Authority Key Identifier: 
                keyid:AD:EB:B4:4D:95:FA:F7:91:52:BF:69:BA:63:0B:AB:01:33:80:3F:60
                DirName:/CN=team406-net
                serial:69:5E:34:59:FB:76:79:4F:89:51:B3:25:9D:16:E6:10:75:7C:73:72

            X509v3 Extended Key Usage: 
                TLS Web Client Authentication
            X509v3 Key Usage: 
                Digital Signature
    Signature Algorithm: sha256WithRSAEncryption
         bc:b2:d3:35:d2:01:f9:23:5b:60:48:39:ba:3b:61:8a:96:ba:
         2d:0b:56:9b:8a:c7:75:9e:b0:69:82:3b:60:6e:23:d2:39:fe:
         c6:3f:6c:4e:6f:45:77:f5:82:4a:ea:a3:1a:15:38:66:21:fb:
         52:8c:d3:b3:15:39:83:b4:84:0b:5d:2d:20:11:40:29:6a:05:
         d3:5a:81:39:a6:81:25:79:48:8b:1b:d4:e0:7c:91:9c:4b:df:
         d1:74:79:97:bd:0c:96:84:0f:ff:5b:4d:12:a7:be:1c:be:ad:
         47:65:27:d3:ec:51:73:7c:cf:ab:9b:c9:ef:d6:1b:1b:32:48:
         dc:c4:4a:79:57:de:99:7c:63:7a:2f:eb:6a:04:ff:ee:1d:78:
         3e:fa:e4:b6:f3:07:38:0c:af:3c:64:d2:1e:1c:e0:df:f8:ec:
         7f:d2:2e:e2:51:20:43:05:1f:c8:2f:f3:8f:72:c1:86:89:ee:
         bd:60:e9:0b:e3:6e:6d:74:2e:de:ef:60:79:0a:6d:8f:4d:ee:
         5e:bc:37:2a:66:3b:1c:4e:55:32:f8:11:6b:f9:a0:db:a4:1a:
         36:27:6c:f8:a0:b1:0b:0e:1c:2b:1d:6c:df:5c:1a:14:e5:3b:
         d0:22:e4:64:42:c5:c7:95:73:89:3f:27:a7:ff:c1:ad:a9:da:
         de:45:4e:88
-----BEGIN CERTIFICATE-----
MIIDXDCCAkSgAwIBAgIQGq5jD5JSDpJu/bxtm4VBRzANBgkqhkiG9w0BAQsFADAW
MRQwEgYDVQQDDAt0ZWFtNDA2LW5ldDAeFw0yMjA1MTgyMDUwNThaFw0yNTA1MDIy
MDUwNThaMBkxFzAVBgNVBAMMDnRlYW00MDYtY2xpZW50MIIBIjANBgkqhkiG9w0B
AQEFAAOCAQ8AMIIBCgKCAQEAxkOK7/AHJvCOvA4pM7G0Y/YDWmi2+fLDLMJrTVSr
R4LVE/iPvvP2wh1b29SLrdz61Lq9AplA+/mjZbjfuW+uKQiZqmknigF9ISHIqTqR
JQ6NrGzqrAuJlcZq/QYjrWg3QmvYgLceobfL8ku8NNItvnCpSwL+x/CmtycRtd+c
uPcUvUUr9U+foPpV8FN+5lw/6NWKE43YJbAxE3MjBl3cqWnaXiKV1a7oiMjE/G+8
WdfFNsVnukt4zswMTqOAhyMgVpelnWG+KeiTRb1qeqCUKpKLJYQ1fXD0koyw/toq
AZdDuRvqSXR5pZdjfj6t+tnHzGQuuvxASBN47nQem8iq2QIDAQABo4GiMIGfMAkG
A1UdEwQCMAAwHQYDVR0OBBYEFEpOJr5bK4wcpxiT+CS4WEUHdcC2MFEGA1UdIwRK
MEiAFK3rtE2V+veRUr9pumMLqwEzgD9goRqkGDAWMRQwEgYDVQQDDAt0ZWFtNDA2
LW5ldIIUaV40Wft2eU+JUbMlnRbmEHV8c3IwEwYDVR0lBAwwCgYIKwYBBQUHAwIw
CwYDVR0PBAQDAgeAMA0GCSqGSIb3DQEBCwUAA4IBAQC8stM10gH5I1tgSDm6O2GK
lrotC1abisd1nrBpgjtgbiPSOf7GP2xOb0V39YJK6qMaFThmIftSjNOzFTmDtIQL
XS0gEUApagXTWoE5poEleUiLG9TgfJGcS9/RdHmXvQyWhA//W00Sp74cvq1HZSfT
7FFzfM+rm8nv1hsbMkjcxEp5V96ZfGN6L+tqBP/uHXg++uS28wc4DK88ZNIeHODf
+Ox/0i7iUSBDBR/IL/OPcsGGie69YOkL425tdC7e72B5Cm2PTe5evDcqZjscTlUy
+BFr+aDbpBo2J2z4oLELDhwrHWzfXBoU5TvQIuRkQsXHlXOJPyen/8GtqdreRU6I
-----END CERTIFICATE-----
