Certificate:
    Data:
        Version: 3 (0x2)
        Serial Number:
            ec:b7:5a:01:1c:cf:44:cc:ea:f3:a0:2e:31:74:9e:7a
        Signature Algorithm: sha256WithRSAEncryption
        Issuer: CN=team311-net
        Validity
            Not Before: May 18 20:02:13 2022 GMT
            Not After : May  2 20:02:13 2025 GMT
        Subject: CN=team311-server
        Subject Public Key Info:
            Public Key Algorithm: rsaEncryption
                RSA Public-Key: (2048 bit)
                Modulus:
                    00:ad:d9:c7:df:4f:d2:eb:02:84:32:c4:9f:ed:36:
                    d6:c1:61:b0:e1:d4:66:7f:9b:3e:8d:4a:ba:3a:a1:
                    f4:0c:72:0d:be:8a:b2:24:31:5a:cb:8f:bb:8b:d2:
                    6b:09:0e:b8:a3:0b:c6:93:d1:6c:1c:cf:b0:c9:b2:
                    1c:69:03:91:19:df:ad:d1:58:18:e0:91:f1:65:c3:
                    a7:38:00:cf:a4:9e:0b:af:ca:17:ad:2c:38:ac:9b:
                    41:50:95:a1:5b:01:84:e0:01:15:2c:fa:b4:1b:8a:
                    6f:41:54:fb:25:7b:16:29:eb:1c:db:36:69:48:45:
                    bc:d6:3e:91:65:88:09:95:89:64:42:d2:f3:f5:d4:
                    15:d5:6b:a5:26:41:a7:ab:67:de:31:49:cc:58:1d:
                    08:8d:35:bb:3b:a5:4f:40:bc:07:86:e0:28:b8:48:
                    8b:e1:ff:ed:d4:c1:5f:86:a8:3c:fd:aa:05:11:e0:
                    7e:40:af:fd:5a:19:56:db:61:fd:56:1c:d5:db:d5:
                    6a:ae:ca:e1:75:18:da:3f:0e:d9:a0:bc:96:88:1e:
                    e1:d1:42:8d:a9:c9:ba:c3:86:62:4f:91:5c:ec:db:
                    e8:77:b5:0f:eb:5b:73:7e:ff:18:0c:36:f2:15:8c:
                    be:03:27:e0:79:40:74:5c:71:74:09:33:f5:e7:c0:
                    0c:11
                Exponent: 65537 (0x10001)
        X509v3 extensions:
            X509v3 Basic Constraints: 
                CA:FALSE
            X509v3 Subject Key Identifier: 
                69:9E:75:48:AC:E1:9E:06:2F:A5:51:4A:FC:6A:A2:0F:B7:55:78:D5
            X509v3 Authority Key Identifier: 
                keyid:37:C7:33:88:81:18:ED:A2:90:7E:9B:5B:AB:1B:F8:CC:31:58:DF:5B
                DirName:/CN=team311-net
                serial:6B:F4:92:F4:0D:84:D3:7E:C1:4A:87:07:36:79:E6:58:9F:53:EF:D5

            X509v3 Extended Key Usage: 
                TLS Web Server Authentication
            X509v3 Key Usage: 
                Digital Signature, Key Encipherment
            X509v3 Subject Alternative Name: 
                DNS:team311-server
    Signature Algorithm: sha256WithRSAEncryption
         45:98:ca:06:16:2d:4f:0e:df:25:af:c6:29:45:76:64:8a:1e:
         57:0d:aa:dc:b2:08:3b:2f:e9:47:85:19:ce:24:7b:14:91:09:
         de:fc:ab:7e:a6:91:03:6a:ab:a1:98:96:14:7a:83:b9:ee:02:
         19:f0:36:d7:8d:26:79:bf:1d:73:a4:d7:ab:11:43:d7:97:2f:
         c9:38:1d:58:8c:ab:9c:d8:99:61:de:33:39:54:1a:02:00:6f:
         37:21:bd:af:71:c9:26:af:13:cd:fa:0f:eb:c8:5e:43:74:b2:
         29:1b:17:a8:1f:80:ad:72:14:c8:58:3c:6a:b4:c5:f0:0c:55:
         f3:07:f4:a5:7d:f9:43:2f:f5:34:a4:6b:e9:95:e5:b4:03:9f:
         3d:f0:f3:65:11:fe:f0:19:be:16:47:df:ca:1f:db:11:9c:ab:
         58:0a:90:d9:63:aa:f9:d0:9d:b8:b1:3b:b2:db:b8:10:cd:1a:
         fc:c6:a6:53:1b:9c:80:d1:41:05:f2:30:41:06:07:96:0b:34:
         16:96:f5:a5:df:7e:51:16:e1:e6:6b:60:32:15:b8:2f:ab:ce:
         d0:86:71:74:86:92:05:07:d0:22:90:ef:d2:b8:9d:e6:22:8f:
         f2:74:29:9c:33:c7:42:78:72:c4:15:f1:40:8f:50:ce:d1:ac:
         ca:42:26:06
-----BEGIN CERTIFICATE-----
MIIDeDCCAmCgAwIBAgIRAOy3WgEcz0TM6vOgLjF0nnowDQYJKoZIhvcNAQELBQAw
FjEUMBIGA1UEAwwLdGVhbTMxMS1uZXQwHhcNMjIwNTE4MjAwMjEzWhcNMjUwNTAy
MjAwMjEzWjAZMRcwFQYDVQQDDA50ZWFtMzExLXNlcnZlcjCCASIwDQYJKoZIhvcN
AQEBBQADggEPADCCAQoCggEBAK3Zx99P0usChDLEn+021sFhsOHUZn+bPo1Kujqh
9AxyDb6KsiQxWsuPu4vSawkOuKMLxpPRbBzPsMmyHGkDkRnfrdFYGOCR8WXDpzgA
z6SeC6/KF60sOKybQVCVoVsBhOABFSz6tBuKb0FU+yV7FinrHNs2aUhFvNY+kWWI
CZWJZELS8/XUFdVrpSZBp6tn3jFJzFgdCI01uzulT0C8B4bgKLhIi+H/7dTBX4ao
PP2qBRHgfkCv/VoZVtth/VYc1dvVaq7K4XUY2j8O2aC8loge4dFCjanJusOGYk+R
XOzb6He1D+tbc37/GAw28hWMvgMn4HlAdFxxdAkz9efADBECAwEAAaOBvTCBujAJ
BgNVHRMEAjAAMB0GA1UdDgQWBBRpnnVIrOGeBi+lUUr8aqIPt1V41TBRBgNVHSME
SjBIgBQ3xzOIgRjtopB+m1urG/jMMVjfW6EapBgwFjEUMBIGA1UEAwwLdGVhbTMx
MS1uZXSCFGv0kvQNhNN+wUqHBzZ55lifU+/VMBMGA1UdJQQMMAoGCCsGAQUFBwMB
MAsGA1UdDwQEAwIFoDAZBgNVHREEEjAQgg50ZWFtMzExLXNlcnZlcjANBgkqhkiG
9w0BAQsFAAOCAQEARZjKBhYtTw7fJa/GKUV2ZIoeVw2q3LIIOy/pR4UZziR7FJEJ
3vyrfqaRA2qroZiWFHqDue4CGfA2140meb8dc6TXqxFD15cvyTgdWIyrnNiZYd4z
OVQaAgBvNyG9r3HJJq8TzfoP68heQ3SyKRsXqB+ArXIUyFg8arTF8AxV8wf0pX35
Qy/1NKRr6ZXltAOfPfDzZRH+8Bm+Fkffyh/bEZyrWAqQ2WOq+dCduLE7stu4EM0a
/MamUxucgNFBBfIwQQYHlgs0Fpb1pd9+URbh5mtgMhW4L6vO0IZxdIaSBQfQIpDv
0rid5iKP8nQpnDPHQnhyxBXxQI9QztGsykImBg==
-----END CERTIFICATE-----
