Certificate:
    Data:
        Version: 3 (0x2)
        Serial Number:
            ca:5e:5e:8a:b9:2b:1d:a4:ac:4f:d2:a0:28:c8:54:dd
        Signature Algorithm: sha256WithRSAEncryption
        Issuer: CN=team159-net
        Validity
            Not Before: May 18 18:40:35 2022 GMT
            Not After : May  2 18:40:35 2025 GMT
        Subject: CN=team159-server
        Subject Public Key Info:
            Public Key Algorithm: rsaEncryption
                RSA Public-Key: (2048 bit)
                Modulus:
                    00:e7:68:f5:24:86:ea:0a:11:21:1b:ae:9b:34:40:
                    48:b1:07:e1:ff:f4:79:16:41:eb:f4:29:17:1c:33:
                    2f:37:42:3e:de:ce:fb:a4:a9:76:67:4b:6d:17:c6:
                    26:de:c0:65:27:9b:54:ab:41:6e:03:8a:93:60:c9:
                    5f:63:2f:41:a3:2c:61:fe:ab:53:73:d0:fe:47:a7:
                    f7:05:e0:9b:1d:5e:65:22:b8:a8:f5:e2:70:b0:bb:
                    8d:fc:dc:8e:10:7b:75:da:a4:af:db:db:e0:0e:b2:
                    95:71:f8:0f:d0:ed:3e:8f:b6:10:69:b1:50:89:ef:
                    c4:fa:68:d7:42:a3:89:01:74:98:4b:00:e1:1d:0c:
                    d8:84:66:74:27:c4:09:a9:9e:61:f4:ef:cd:1d:a7:
                    0d:66:77:99:22:5a:7a:68:a4:27:1d:ee:ae:32:1c:
                    b5:18:15:23:ea:51:26:49:99:66:b1:6b:43:03:90:
                    2e:a6:4d:23:9f:17:b4:8e:5d:c8:0b:f7:c8:5c:5a:
                    f0:2b:e2:4d:cb:51:1a:e0:c9:75:69:15:9a:ec:88:
                    44:e0:0c:ef:6c:08:2e:c0:9a:be:c2:c8:c5:76:dd:
                    42:f7:e4:7f:b3:c4:ac:fb:81:fe:f4:5a:c3:f3:de:
                    c6:41:51:54:e2:8b:a8:0e:47:99:20:63:fa:6d:76:
                    9c:3b
                Exponent: 65537 (0x10001)
        X509v3 extensions:
            X509v3 Basic Constraints: 
                CA:FALSE
            X509v3 Subject Key Identifier: 
                4F:1E:54:0C:38:37:61:3A:79:BF:1D:72:94:7B:C6:32:40:02:09:94
            X509v3 Authority Key Identifier: 
                keyid:8C:16:9A:39:13:3C:BF:EA:3F:9C:DE:22:A2:4A:B4:97:30:CC:12:F4
                DirName:/CN=team159-net
                serial:35:F0:27:7F:7F:A0:4D:54:E6:44:71:08:29:F9:EF:53:23:B2:24:A1

            X509v3 Extended Key Usage: 
                TLS Web Server Authentication
            X509v3 Key Usage: 
                Digital Signature, Key Encipherment
            X509v3 Subject Alternative Name: 
                DNS:team159-server
    Signature Algorithm: sha256WithRSAEncryption
         12:c1:b1:a1:29:d5:f7:34:e3:c7:f9:8c:5e:c7:07:55:2d:0b:
         ef:78:48:2c:cf:a5:69:40:dd:aa:dd:fa:25:20:90:a5:b8:56:
         15:85:32:79:f1:ec:e5:1d:95:0e:b5:76:02:ff:c6:de:06:ab:
         23:4f:e9:7f:15:25:29:6e:65:91:90:cd:ee:0a:41:dc:63:8d:
         32:55:cd:e2:3a:86:3d:d5:a7:01:e7:78:ff:04:21:27:47:e4:
         50:28:6b:8a:b8:fa:b4:c4:12:8f:84:82:cb:2c:6e:ba:0b:1c:
         c7:cf:14:bc:7c:46:33:81:f3:32:1c:4c:e9:24:b8:a7:35:34:
         b2:e4:db:e6:64:8a:11:9c:4f:16:2c:28:58:bb:6d:3c:bb:b1:
         96:97:03:5b:59:08:16:03:fc:64:2b:39:22:5b:58:ed:7e:84:
         b6:1e:9d:e3:06:b9:c9:9d:a3:1b:65:da:13:ee:c6:4a:d4:e4:
         90:fe:6f:62:53:be:27:74:8e:1a:8f:52:7f:28:74:b2:4e:f1:
         b8:29:a6:c3:62:d2:0d:8f:f2:f7:c7:40:53:22:97:3e:17:2d:
         69:ee:e9:3d:83:a4:3f:80:34:34:33:9c:f0:c0:7a:4e:71:e2:
         46:d3:1d:41:99:4d:34:02:28:59:cb:d3:51:90:f5:b1:a8:6d:
         21:86:5e:b2
-----BEGIN CERTIFICATE-----
MIIDeDCCAmCgAwIBAgIRAMpeXoq5Kx2krE/SoCjIVN0wDQYJKoZIhvcNAQELBQAw
FjEUMBIGA1UEAwwLdGVhbTE1OS1uZXQwHhcNMjIwNTE4MTg0MDM1WhcNMjUwNTAy
MTg0MDM1WjAZMRcwFQYDVQQDDA50ZWFtMTU5LXNlcnZlcjCCASIwDQYJKoZIhvcN
AQEBBQADggEPADCCAQoCggEBAOdo9SSG6goRIRuumzRASLEH4f/0eRZB6/QpFxwz
LzdCPt7O+6SpdmdLbRfGJt7AZSebVKtBbgOKk2DJX2MvQaMsYf6rU3PQ/ken9wXg
mx1eZSK4qPXicLC7jfzcjhB7ddqkr9vb4A6ylXH4D9DtPo+2EGmxUInvxPpo10Kj
iQF0mEsA4R0M2IRmdCfECameYfTvzR2nDWZ3mSJaemikJx3urjIctRgVI+pRJkmZ
ZrFrQwOQLqZNI58XtI5dyAv3yFxa8CviTctRGuDJdWkVmuyIROAM72wILsCavsLI
xXbdQvfkf7PErPuB/vRaw/PexkFRVOKLqA5HmSBj+m12nDsCAwEAAaOBvTCBujAJ
BgNVHRMEAjAAMB0GA1UdDgQWBBRPHlQMODdhOnm/HXKUe8YyQAIJlDBRBgNVHSME
SjBIgBSMFpo5Ezy/6j+c3iKiSrSXMMwS9KEapBgwFjEUMBIGA1UEAwwLdGVhbTE1
OS1uZXSCFDXwJ39/oE1U5kRxCCn571MjsiShMBMGA1UdJQQMMAoGCCsGAQUFBwMB
MAsGA1UdDwQEAwIFoDAZBgNVHREEEjAQgg50ZWFtMTU5LXNlcnZlcjANBgkqhkiG
9w0BAQsFAAOCAQEAEsGxoSnV9zTjx/mMXscHVS0L73hILM+laUDdqt36JSCQpbhW
FYUyefHs5R2VDrV2Av/G3garI0/pfxUlKW5lkZDN7gpB3GONMlXN4jqGPdWnAed4
/wQhJ0fkUChrirj6tMQSj4SCyyxuugscx88UvHxGM4HzMhxM6SS4pzU0suTb5mSK
EZxPFiwoWLttPLuxlpcDW1kIFgP8ZCs5IltY7X6Eth6d4wa5yZ2jG2XaE+7GStTk
kP5vYlO+J3SOGo9Sfyh0sk7xuCmmw2LSDY/y98dAUyKXPhctae7pPYOkP4A0NDOc
8MB6TnHiRtMdQZlNNAIoWcvTUZD1sahtIYZesg==
-----END CERTIFICATE-----
