Certificate:
    Data:
        Version: 3 (0x2)
        Serial Number:
            ca:bf:bd:54:77:44:86:4c:a4:1d:bb:a1:cd:6e:ad:0c
        Signature Algorithm: sha256WithRSAEncryption
        Issuer: CN=team159-net
        Validity
            Not Before: May 18 18:40:35 2022 GMT
            Not After : May  2 18:40:35 2025 GMT
        Subject: CN=team159-client
        Subject Public Key Info:
            Public Key Algorithm: rsaEncryption
                RSA Public-Key: (2048 bit)
                Modulus:
                    00:d1:b8:b5:93:6f:e1:8f:19:b5:e4:d2:75:41:2b:
                    d9:4a:dc:71:7c:7c:6e:2f:77:a7:6d:29:54:fe:51:
                    5a:ce:18:c4:47:be:49:24:33:29:00:9e:76:ce:b9:
                    20:ef:5d:a0:af:3a:cf:ba:9e:b8:13:08:c7:a0:cc:
                    87:39:53:d6:c7:e3:c8:65:e7:c9:57:75:f4:b4:60:
                    29:07:4d:6f:90:d8:0a:95:60:c4:b7:d6:3a:df:f6:
                    9b:54:34:29:40:ba:ad:38:63:bf:da:2d:e9:6f:8d:
                    c3:5c:e2:4a:01:52:54:09:4a:ec:4f:c6:69:be:df:
                    70:0d:b0:2e:62:7b:4c:f7:00:84:21:95:6a:e9:7c:
                    57:c3:60:5a:a2:22:54:29:f0:e7:24:2b:7d:e5:ba:
                    b5:88:79:3b:66:85:d2:3d:3e:3c:ad:ed:12:28:b6:
                    3e:1c:2c:22:b4:fd:de:41:9e:f6:1d:c4:b5:50:01:
                    c9:93:2d:d0:91:d9:ee:45:24:e2:93:7f:02:d4:78:
                    c4:d5:b6:66:6d:a8:01:b1:64:0c:ed:46:b9:fb:39:
                    da:3d:04:8f:22:57:a4:96:4b:d4:81:b7:91:1f:60:
                    eb:5e:cc:00:48:bf:fd:25:e5:cf:33:d7:8f:0e:e6:
                    b1:1f:93:be:9e:54:50:7f:c7:8c:3b:4c:28:a6:4e:
                    8a:ad
                Exponent: 65537 (0x10001)
        X509v3 extensions:
            X509v3 Basic Constraints: 
                CA:FALSE
            X509v3 Subject Key Identifier: 
                2B:B3:0D:B3:7E:54:8B:EF:68:0C:DA:66:01:05:AF:33:EF:C6:58:6E
            X509v3 Authority Key Identifier: 
                keyid:8C:16:9A:39:13:3C:BF:EA:3F:9C:DE:22:A2:4A:B4:97:30:CC:12:F4
                DirName:/CN=team159-net
                serial:35:F0:27:7F:7F:A0:4D:54:E6:44:71:08:29:F9:EF:53:23:B2:24:A1

            X509v3 Extended Key Usage: 
                TLS Web Client Authentication
            X509v3 Key Usage: 
                Digital Signature
    Signature Algorithm: sha256WithRSAEncryption
         30:7f:2b:44:58:7f:1e:28:cf:44:98:57:73:bc:08:d2:71:b5:
         fa:ac:f3:c4:d3:73:e9:d6:d3:8c:34:f3:b5:9a:79:ad:ea:1b:
         39:91:9f:58:3e:bc:90:46:0f:ea:52:f3:40:6b:df:24:32:03:
         ef:40:5a:b1:6d:6a:b1:46:59:0d:80:22:1a:f5:dd:3f:89:40:
         9c:76:59:e3:ef:b9:1a:81:f2:e7:09:96:c1:24:4f:2f:9b:86:
         a1:9c:0a:9f:35:26:d7:05:be:8a:f0:06:78:84:c5:6d:59:58:
         16:47:94:86:7c:45:47:96:4d:bd:2c:26:e7:f6:d3:8c:c2:fb:
         61:12:c6:c2:1c:31:45:6b:81:41:86:4d:75:45:fc:d3:cd:2d:
         37:30:7a:f4:20:60:39:4f:b4:99:dc:1c:0a:53:83:19:e2:0e:
         4b:a1:e8:10:e9:f5:1a:15:54:48:55:8d:6f:31:72:d6:5b:74:
         d1:5d:be:21:ea:e8:a4:90:6d:6b:7e:47:59:bd:7c:24:a1:eb:
         dc:b1:14:ca:f3:d2:97:d5:48:52:0e:01:08:8a:45:01:45:85:
         36:c3:88:92:70:ef:e1:f7:88:c0:f2:62:2a:4f:7b:a2:91:e6:
         30:e6:3b:bb:12:f1:b5:f6:08:b0:2f:2a:63:77:70:cd:98:1a:
         5c:6e:d3:ae
-----BEGIN CERTIFICATE-----
MIIDXTCCAkWgAwIBAgIRAMq/vVR3RIZMpB27oc1urQwwDQYJKoZIhvcNAQELBQAw
FjEUMBIGA1UEAwwLdGVhbTE1OS1uZXQwHhcNMjIwNTE4MTg0MDM1WhcNMjUwNTAy
MTg0MDM1WjAZMRcwFQYDVQQDDA50ZWFtMTU5LWNsaWVudDCCASIwDQYJKoZIhvcN
AQEBBQADggEPADCCAQoCggEBANG4tZNv4Y8ZteTSdUEr2UrccXx8bi93p20pVP5R
Ws4YxEe+SSQzKQCeds65IO9doK86z7qeuBMIx6DMhzlT1sfjyGXnyVd19LRgKQdN
b5DYCpVgxLfWOt/2m1Q0KUC6rThjv9ot6W+Nw1ziSgFSVAlK7E/Gab7fcA2wLmJ7
TPcAhCGVaul8V8NgWqIiVCnw5yQrfeW6tYh5O2aF0j0+PK3tEii2PhwsIrT93kGe
9h3EtVAByZMt0JHZ7kUk4pN/AtR4xNW2Zm2oAbFkDO1Gufs52j0EjyJXpJZL1IG3
kR9g617MAEi//SXlzzPXjw7msR+Tvp5UUH/HjDtMKKZOiq0CAwEAAaOBojCBnzAJ
BgNVHRMEAjAAMB0GA1UdDgQWBBQrsw2zflSL72gM2mYBBa8z78ZYbjBRBgNVHSME
SjBIgBSMFpo5Ezy/6j+c3iKiSrSXMMwS9KEapBgwFjEUMBIGA1UEAwwLdGVhbTE1
OS1uZXSCFDXwJ39/oE1U5kRxCCn571MjsiShMBMGA1UdJQQMMAoGCCsGAQUFBwMC
MAsGA1UdDwQEAwIHgDANBgkqhkiG9w0BAQsFAAOCAQEAMH8rRFh/HijPRJhXc7wI
0nG1+qzzxNNz6dbTjDTztZp5reobOZGfWD68kEYP6lLzQGvfJDID70BasW1qsUZZ
DYAiGvXdP4lAnHZZ4++5GoHy5wmWwSRPL5uGoZwKnzUm1wW+ivAGeITFbVlYFkeU
hnxFR5ZNvSwm5/bTjML7YRLGwhwxRWuBQYZNdUX8080tNzB69CBgOU+0mdwcClOD
GeIOS6HoEOn1GhVUSFWNbzFy1lt00V2+IeropJBta35HWb18JKHr3LEUyvPSl9VI
Ug4BCIpFAUWFNsOIknDv4feIwPJiKk97opHmMOY7uxLxtfYIsC8qY3dwzZgaXG7T
rg==
-----END CERTIFICATE-----
