Certificate:
    Data:
        Version: 3 (0x2)
        Serial Number:
            26:25:86:0d:24:f9:fe:06:6d:7d:1d:e1:7c:82:2e:f9
        Signature Algorithm: sha256WithRSAEncryption
        Issuer: CN=team181-net
        Validity
            Not Before: May 18 18:52:44 2022 GMT
            Not After : May  2 18:52:44 2025 GMT
        Subject: CN=team181-server
        Subject Public Key Info:
            Public Key Algorithm: rsaEncryption
                RSA Public-Key: (2048 bit)
                Modulus:
                    00:b9:b6:3c:92:f6:bc:48:2d:bb:a5:43:e7:8f:57:
                    08:3a:f0:01:ee:38:31:29:52:5b:75:8c:64:27:08:
                    94:cd:9d:87:11:bc:82:e5:33:9c:bd:5b:14:2d:93:
                    ef:64:97:d0:bf:08:6f:27:1c:67:bb:b5:fc:bb:ea:
                    88:cc:e0:97:c4:b8:03:1f:49:73:84:35:bf:35:41:
                    14:88:5e:6c:3b:d9:96:3e:fa:c9:ed:da:f4:e5:2e:
                    70:11:37:a9:a8:61:09:94:bd:ad:29:d7:9b:be:a7:
                    e4:cd:28:60:67:56:61:a0:bd:ee:d3:b3:0a:44:49:
                    e2:72:69:2b:b5:9a:0b:dd:cc:2a:7d:0e:95:b2:da:
                    2b:f7:5f:b7:ec:81:88:13:dd:00:5b:f8:32:2e:2d:
                    79:e8:49:a4:3b:d2:50:76:95:68:a9:a1:75:f3:33:
                    65:9c:f5:32:25:45:88:5d:6c:bd:4a:4b:3b:5c:1b:
                    75:df:c6:28:1b:7b:2c:d2:9b:8c:a3:b2:51:15:dd:
                    88:39:a7:1f:20:2e:fc:e7:72:2a:06:b2:19:1b:b1:
                    11:77:11:97:4e:1f:57:8c:f3:f5:f1:5b:01:89:f8:
                    26:9d:e9:26:ce:e0:3a:5c:b4:d9:de:07:90:54:24:
                    14:42:75:23:a4:5c:01:88:42:16:15:fd:22:cc:ef:
                    0a:31
                Exponent: 65537 (0x10001)
        X509v3 extensions:
            X509v3 Basic Constraints: 
                CA:FALSE
            X509v3 Subject Key Identifier: 
                C5:56:0F:DC:38:9D:A2:D4:16:A8:6A:36:0B:18:94:44:A9:34:C6:12
            X509v3 Authority Key Identifier: 
                keyid:BF:5A:68:08:5B:02:A4:74:BF:6C:03:4F:4E:29:65:39:15:FE:B8:30
                DirName:/CN=team181-net
                serial:3C:6C:73:A1:90:A8:93:64:88:CA:1C:39:63:A7:52:BC:58:7A:10:50

            X509v3 Extended Key Usage: 
                TLS Web Server Authentication
            X509v3 Key Usage: 
                Digital Signature, Key Encipherment
            X509v3 Subject Alternative Name: 
                DNS:team181-server
    Signature Algorithm: sha256WithRSAEncryption
         a8:ea:0f:df:46:a8:7f:90:16:53:4f:fe:1f:38:0c:e6:86:ff:
         e7:2d:f1:2b:0f:a6:f3:71:4c:d3:6e:58:f2:25:96:f1:d1:16:
         20:60:92:ba:d9:b6:8a:4b:72:6b:0f:86:e5:ab:99:2e:c4:33:
         9c:b6:fe:69:b8:29:5d:00:3e:71:27:f4:80:44:a7:71:3d:9b:
         fa:ca:11:66:62:80:2c:1b:44:31:18:90:c8:5d:61:90:c7:37:
         0a:ca:da:3c:14:11:8b:d3:6f:77:2f:f7:44:7f:a7:10:ed:e9:
         27:d0:f6:74:3b:5a:47:1a:13:ee:e0:4e:8e:2f:88:14:86:9d:
         ef:91:39:6a:d4:74:f7:9a:d8:06:aa:1e:65:20:5a:57:0e:61:
         2e:91:64:35:d5:e6:66:cf:35:9e:41:27:b0:99:1e:fe:51:67:
         c4:79:d9:55:c8:b9:59:c4:dd:46:ac:1f:ef:f3:0e:59:4e:4f:
         47:91:88:eb:05:67:c3:b7:6a:7b:c1:42:40:23:27:b3:6a:31:
         02:ad:7d:09:7b:11:37:9f:70:50:58:41:68:1e:e7:6a:6e:4f:
         8e:62:62:30:10:3e:0a:c9:43:65:0f:a4:c5:7b:a2:ce:3b:ca:
         35:02:b1:c0:d0:23:8e:bd:da:ed:7f:df:5e:52:2f:12:96:96:
         41:7f:a4:85
-----BEGIN CERTIFICATE-----
MIIDdzCCAl+gAwIBAgIQJiWGDST5/gZtfR3hfIIu+TANBgkqhkiG9w0BAQsFADAW
MRQwEgYDVQQDDAt0ZWFtMTgxLW5ldDAeFw0yMjA1MTgxODUyNDRaFw0yNTA1MDIx
ODUyNDRaMBkxFzAVBgNVBAMMDnRlYW0xODEtc2VydmVyMIIBIjANBgkqhkiG9w0B
AQEFAAOCAQ8AMIIBCgKCAQEAubY8kva8SC27pUPnj1cIOvAB7jgxKVJbdYxkJwiU
zZ2HEbyC5TOcvVsULZPvZJfQvwhvJxxnu7X8u+qIzOCXxLgDH0lzhDW/NUEUiF5s
O9mWPvrJ7dr05S5wETepqGEJlL2tKdebvqfkzShgZ1ZhoL3u07MKREnicmkrtZoL
3cwqfQ6Vstor91+37IGIE90AW/gyLi156EmkO9JQdpVoqaF18zNlnPUyJUWIXWy9
Sks7XBt138YoG3ss0puMo7JRFd2IOacfIC7853IqBrIZG7ERdxGXTh9XjPP18VsB
ifgmnekmzuA6XLTZ3geQVCQUQnUjpFwBiEIWFf0izO8KMQIDAQABo4G9MIG6MAkG
A1UdEwQCMAAwHQYDVR0OBBYEFMVWD9w4naLUFqhqNgsYlESpNMYSMFEGA1UdIwRK
MEiAFL9aaAhbAqR0v2wDT04pZTkV/rgwoRqkGDAWMRQwEgYDVQQDDAt0ZWFtMTgx
LW5ldIIUPGxzoZCok2SIyhw5Y6dSvFh6EFAwEwYDVR0lBAwwCgYIKwYBBQUHAwEw
CwYDVR0PBAQDAgWgMBkGA1UdEQQSMBCCDnRlYW0xODEtc2VydmVyMA0GCSqGSIb3
DQEBCwUAA4IBAQCo6g/fRqh/kBZTT/4fOAzmhv/nLfErD6bzcUzTbljyJZbx0RYg
YJK62baKS3JrD4blq5kuxDOctv5puCldAD5xJ/SARKdxPZv6yhFmYoAsG0QxGJDI
XWGQxzcKyto8FBGL0293L/dEf6cQ7ekn0PZ0O1pHGhPu4E6OL4gUhp3vkTlq1HT3
mtgGqh5lIFpXDmEukWQ11eZmzzWeQSewmR7+UWfEedlVyLlZxN1GrB/v8w5ZTk9H
kYjrBWfDt2p7wUJAIyezajECrX0JexE3n3BQWEFoHudqbk+OYmIwED4KyUNlD6TF
e6LOO8o1ArHA0COOvdrtf99eUi8SlpZBf6SF
-----END CERTIFICATE-----
