Certificate:
    Data:
        Version: 3 (0x2)
        Serial Number:
            ae:24:00:8c:a9:15:6e:a8:ea:78:f9:05:a6:d9:f8:10
        Signature Algorithm: sha256WithRSAEncryption
        Issuer: CN=team181-net
        Validity
            Not Before: May 18 18:52:43 2022 GMT
            Not After : May  2 18:52:43 2025 GMT
        Subject: CN=team181-client
        Subject Public Key Info:
            Public Key Algorithm: rsaEncryption
                RSA Public-Key: (2048 bit)
                Modulus:
                    00:de:bf:15:44:76:71:3c:40:82:8b:ec:19:4f:72:
                    8f:f2:ee:98:08:df:2d:7c:3b:c5:50:bf:0c:3e:b2:
                    50:0d:c8:ae:78:ba:ee:d3:48:c4:57:b6:f3:8a:86:
                    bb:d0:0c:fc:df:2c:58:2a:91:a0:91:0c:57:0f:ce:
                    11:e3:53:99:f2:ce:b6:a2:f0:df:f3:07:79:bd:a4:
                    a0:58:73:26:c5:ce:d9:a9:96:ef:20:64:04:c9:89:
                    e3:4f:c9:44:5a:ee:93:07:f5:28:96:92:4e:1d:ca:
                    01:f6:1b:fb:0a:5a:57:ec:e2:3d:26:21:a5:61:c0:
                    95:e6:0f:5c:49:08:02:01:09:dd:6f:0e:fb:d3:4d:
                    5f:48:f3:12:14:4c:f7:e4:9b:c6:6e:cd:b0:ae:e6:
                    2e:9c:63:44:ae:84:6d:d2:9b:ec:bc:4a:5a:e3:4f:
                    b0:43:1e:98:e4:68:c2:a1:4b:72:8d:af:4f:d0:8d:
                    22:11:98:f0:78:06:28:f8:08:42:83:02:c4:51:7d:
                    da:6c:58:d0:91:9f:d6:4b:c5:ef:a4:33:5d:4d:94:
                    19:c5:da:e9:50:f8:04:34:03:02:91:04:15:4e:b4:
                    2e:49:d4:99:8c:8e:3e:87:25:b1:f5:5b:37:7e:42:
                    36:ea:82:44:e5:0e:c5:3b:de:29:da:a5:46:97:10:
                    93:ff
                Exponent: 65537 (0x10001)
        X509v3 extensions:
            X509v3 Basic Constraints: 
                CA:FALSE
            X509v3 Subject Key Identifier: 
                68:D4:77:6F:50:28:ED:43:1D:26:E0:BA:B2:6F:FE:8D:77:08:BF:B2
            X509v3 Authority Key Identifier: 
                keyid:BF:5A:68:08:5B:02:A4:74:BF:6C:03:4F:4E:29:65:39:15:FE:B8:30
                DirName:/CN=team181-net
                serial:3C:6C:73:A1:90:A8:93:64:88:CA:1C:39:63:A7:52:BC:58:7A:10:50

            X509v3 Extended Key Usage: 
                TLS Web Client Authentication
            X509v3 Key Usage: 
                Digital Signature
    Signature Algorithm: sha256WithRSAEncryption
         9a:bc:87:a9:44:48:cc:36:b8:b4:ed:de:8e:da:5a:cb:03:0e:
         78:13:43:5c:0d:1e:73:c4:93:08:01:b6:bb:53:41:27:df:c2:
         5a:3e:16:cc:27:e8:36:42:56:bf:dd:22:1f:41:eb:a8:33:a6:
         08:41:c2:b5:18:28:19:ee:95:9a:d0:93:cf:bd:eb:39:e4:7d:
         17:ac:d0:62:4b:38:dc:03:42:f2:fa:9b:76:11:de:c4:83:98:
         df:a5:30:d5:1f:2a:84:35:c2:54:13:39:78:c7:81:1c:a5:e0:
         d0:42:d8:13:7b:f9:33:1c:42:4c:8d:00:5a:f4:d1:67:5c:fb:
         db:83:24:3f:ed:3c:8f:a2:f7:a9:2f:e0:d7:41:fb:ce:74:4f:
         49:bc:aa:22:4b:37:a5:53:13:ad:d4:24:18:d1:79:79:20:cb:
         d2:17:ac:01:e3:59:f5:24:0e:fe:06:6e:8f:67:ae:ff:d4:51:
         a8:9c:8e:8a:79:1a:05:a2:11:44:3b:f4:46:17:25:d4:85:95:
         63:2b:c5:51:4b:c7:e1:8c:95:8b:9d:ae:ef:db:93:93:cd:2c:
         37:14:b7:31:bf:79:f2:15:bf:f5:a9:8b:28:0c:4f:73:37:4b:
         18:47:fd:77:4c:62:cc:fa:2c:20:03:12:e1:55:82:ad:e6:48:
         23:c7:24:14
-----BEGIN CERTIFICATE-----
MIIDXTCCAkWgAwIBAgIRAK4kAIypFW6o6nj5BabZ+BAwDQYJKoZIhvcNAQELBQAw
FjEUMBIGA1UEAwwLdGVhbTE4MS1uZXQwHhcNMjIwNTE4MTg1MjQzWhcNMjUwNTAy
MTg1MjQzWjAZMRcwFQYDVQQDDA50ZWFtMTgxLWNsaWVudDCCASIwDQYJKoZIhvcN
AQEBBQADggEPADCCAQoCggEBAN6/FUR2cTxAgovsGU9yj/LumAjfLXw7xVC/DD6y
UA3Irni67tNIxFe284qGu9AM/N8sWCqRoJEMVw/OEeNTmfLOtqLw3/MHeb2koFhz
JsXO2amW7yBkBMmJ40/JRFrukwf1KJaSTh3KAfYb+wpaV+ziPSYhpWHAleYPXEkI
AgEJ3W8O+9NNX0jzEhRM9+Sbxm7NsK7mLpxjRK6EbdKb7LxKWuNPsEMemORowqFL
co2vT9CNIhGY8HgGKPgIQoMCxFF92mxY0JGf1kvF76QzXU2UGcXa6VD4BDQDApEE
FU60LknUmYyOPoclsfVbN35CNuqCROUOxTveKdqlRpcQk/8CAwEAAaOBojCBnzAJ
BgNVHRMEAjAAMB0GA1UdDgQWBBRo1HdvUCjtQx0m4Lqyb/6Ndwi/sjBRBgNVHSME
SjBIgBS/WmgIWwKkdL9sA09OKWU5Ff64MKEapBgwFjEUMBIGA1UEAwwLdGVhbTE4
MS1uZXSCFDxsc6GQqJNkiMocOWOnUrxYehBQMBMGA1UdJQQMMAoGCCsGAQUFBwMC
MAsGA1UdDwQEAwIHgDANBgkqhkiG9w0BAQsFAAOCAQEAmryHqURIzDa4tO3ejtpa
ywMOeBNDXA0ec8STCAG2u1NBJ9/CWj4WzCfoNkJWv90iH0HrqDOmCEHCtRgoGe6V
mtCTz73rOeR9F6zQYks43ANC8vqbdhHexIOY36Uw1R8qhDXCVBM5eMeBHKXg0ELY
E3v5MxxCTI0AWvTRZ1z724MkP+08j6L3qS/g10H7znRPSbyqIks3pVMTrdQkGNF5
eSDL0hesAeNZ9SQO/gZuj2eu/9RRqJyOinkaBaIRRDv0Rhcl1IWVYyvFUUvH4YyV
i52u79uTk80sNxS3Mb958hW/9amLKAxPczdLGEf9d0xizPosIAMS4VWCreZII8ck
FA==
-----END CERTIFICATE-----
