Certificate:
    Data:
        Version: 3 (0x2)
        Serial Number:
            1b:29:b2:7f:ce:66:33:9c:22:55:75:52:ef:ea:11:5d
        Signature Algorithm: sha256WithRSAEncryption
        Issuer: CN=team596-net
        Validity
            Not Before: May 18 22:38:30 2022 GMT
            Not After : May  2 22:38:30 2025 GMT
        Subject: CN=team596-server
        Subject Public Key Info:
            Public Key Algorithm: rsaEncryption
                RSA Public-Key: (2048 bit)
                Modulus:
                    00:d6:8f:27:8b:45:55:62:d8:73:03:52:bb:c3:4f:
                    55:e3:22:0b:40:7e:5a:13:28:a8:f7:fc:cd:69:ec:
                    70:c5:bc:2a:84:3b:5d:3a:d5:5d:93:0d:21:dd:cb:
                    8e:6a:c6:56:9d:c3:c3:f5:a1:87:d1:1e:ce:90:35:
                    a4:56:17:1d:0e:c9:0c:27:d4:b4:65:e7:04:ea:02:
                    db:30:c2:13:53:d4:8f:d7:0b:d5:33:d0:0f:38:99:
                    18:a7:07:d3:ec:31:b6:0a:b9:ee:14:21:ec:ae:56:
                    40:ff:16:fd:cd:f6:5b:3f:e2:33:24:be:d3:e1:7e:
                    2b:d5:07:cb:89:d8:64:58:7b:f1:c5:cc:26:2e:08:
                    2f:6c:1a:2d:2b:7c:c5:42:73:85:a2:88:bf:e1:6b:
                    8a:ae:b9:26:f1:9f:4b:2a:8e:08:21:c8:52:d1:66:
                    60:7b:be:4b:41:7a:20:5e:c0:e4:fc:f7:56:5a:26:
                    8a:c0:4b:24:2d:79:ec:54:64:10:ff:98:7b:da:44:
                    6d:f0:2c:93:b4:82:f3:fb:7b:91:cf:50:2c:76:f3:
                    e6:8f:8e:84:fb:b9:a6:9f:d2:7e:5f:8f:e2:70:a9:
                    ec:ff:41:d3:0f:90:ec:81:dc:c5:54:50:90:ad:58:
                    c8:68:9d:0b:94:4e:11:4f:18:18:0f:cc:62:66:1f:
                    4a:3b
                Exponent: 65537 (0x10001)
        X509v3 extensions:
            X509v3 Basic Constraints: 
                CA:FALSE
            X509v3 Subject Key Identifier: 
                86:3A:8B:1E:E8:0E:DB:67:B0:72:81:D3:68:75:2F:35:9C:AE:DD:DB
            X509v3 Authority Key Identifier: 
                keyid:28:66:78:F8:17:FF:15:A2:66:68:95:C9:62:AF:54:64:7D:4F:82:7B
                DirName:/CN=team596-net
                serial:11:4F:B6:75:81:53:81:73:D8:C3:CF:DE:04:27:38:02:E8:E0:3C:3B

            X509v3 Extended Key Usage: 
                TLS Web Server Authentication
            X509v3 Key Usage: 
                Digital Signature, Key Encipherment
            X509v3 Subject Alternative Name: 
                DNS:team596-server
    Signature Algorithm: sha256WithRSAEncryption
         ac:64:fe:7d:a1:73:ec:21:67:a4:2a:da:4d:d8:5e:34:60:98:
         89:bf:f3:89:4b:98:bf:2f:c8:c2:84:87:e3:b8:d8:7a:55:c0:
         e3:73:80:08:23:2c:81:63:ec:32:e4:34:63:7a:38:a6:e8:4b:
         f0:44:8c:35:70:74:21:70:6b:a4:80:81:57:03:16:25:42:31:
         a4:f6:e6:58:c4:eb:7a:32:1e:05:0e:ab:fa:4a:c9:44:4d:b8:
         19:24:c4:c2:84:92:4a:2e:b1:62:39:ee:5c:78:1c:bf:86:23:
         38:b2:7b:5a:d2:e3:f0:0f:37:75:04:f6:57:da:06:ed:30:9b:
         04:7f:bf:b7:aa:74:08:f8:46:37:23:17:28:f4:bd:83:0f:a1:
         9a:c6:28:4a:97:02:a0:37:a8:cf:7b:41:98:43:64:d8:c2:20:
         5a:c3:97:9c:b2:72:52:42:32:98:e2:47:48:38:df:a8:bb:d0:
         42:31:5b:cd:4e:e9:0f:e8:db:9a:c7:f8:f8:c3:30:7b:15:ea:
         81:7f:f2:fd:14:d1:1f:a3:61:0e:c5:d8:43:7a:1f:0c:e2:49:
         85:10:53:0b:43:30:b6:e1:6d:54:c9:cb:16:6a:d2:69:c5:da:
         61:78:40:b2:1c:79:e0:cc:a3:24:e0:e9:9a:46:60:d7:e0:1f:
         94:83:65:71
-----BEGIN CERTIFICATE-----
MIIDdzCCAl+gAwIBAgIQGymyf85mM5wiVXVS7+oRXTANBgkqhkiG9w0BAQsFADAW
MRQwEgYDVQQDDAt0ZWFtNTk2LW5ldDAeFw0yMjA1MTgyMjM4MzBaFw0yNTA1MDIy
MjM4MzBaMBkxFzAVBgNVBAMMDnRlYW01OTYtc2VydmVyMIIBIjANBgkqhkiG9w0B
AQEFAAOCAQ8AMIIBCgKCAQEA1o8ni0VVYthzA1K7w09V4yILQH5aEyio9/zNaexw
xbwqhDtdOtVdkw0h3cuOasZWncPD9aGH0R7OkDWkVhcdDskMJ9S0ZecE6gLbMMIT
U9SP1wvVM9APOJkYpwfT7DG2CrnuFCHsrlZA/xb9zfZbP+IzJL7T4X4r1QfLidhk
WHvxxcwmLggvbBotK3zFQnOFooi/4WuKrrkm8Z9LKo4IIchS0WZge75LQXogXsDk
/PdWWiaKwEskLXnsVGQQ/5h72kRt8CyTtILz+3uRz1AsdvPmj46E+7mmn9J+X4/i
cKns/0HTD5DsgdzFVFCQrVjIaJ0LlE4RTxgYD8xiZh9KOwIDAQABo4G9MIG6MAkG
A1UdEwQCMAAwHQYDVR0OBBYEFIY6ix7oDttnsHKB02h1LzWcrt3bMFEGA1UdIwRK
MEiAFChmePgX/xWiZmiVyWKvVGR9T4J7oRqkGDAWMRQwEgYDVQQDDAt0ZWFtNTk2
LW5ldIIUEU+2dYFTgXPYw8/eBCc4AujgPDswEwYDVR0lBAwwCgYIKwYBBQUHAwEw
CwYDVR0PBAQDAgWgMBkGA1UdEQQSMBCCDnRlYW01OTYtc2VydmVyMA0GCSqGSIb3
DQEBCwUAA4IBAQCsZP59oXPsIWekKtpN2F40YJiJv/OJS5i/L8jChIfjuNh6VcDj
c4AIIyyBY+wy5DRjejim6EvwRIw1cHQhcGukgIFXAxYlQjGk9uZYxOt6Mh4FDqv6
SslETbgZJMTChJJKLrFiOe5ceBy/hiM4snta0uPwDzd1BPZX2gbtMJsEf7+3qnQI
+EY3Ixco9L2DD6GaxihKlwKgN6jPe0GYQ2TYwiBaw5ecsnJSQjKY4kdION+ou9BC
MVvNTukP6Nuax/j4wzB7FeqBf/L9FNEfo2EOxdhDeh8M4kmFEFMLQzC24W1UycsW
atJpxdpheECyHHngzKMk4OmaRmDX4B+Ug2Vx
-----END CERTIFICATE-----
