Certificate:
    Data:
        Version: 3 (0x2)
        Serial Number:
            74:8c:f0:47:53:75:fd:4f:ac:34:3d:6a:f4:53:07:7c
        Signature Algorithm: sha256WithRSAEncryption
        Issuer: CN=team513-net
        Validity
            Not Before: May 18 21:52:07 2022 GMT
            Not After : May  2 21:52:07 2025 GMT
        Subject: CN=team513-server
        Subject Public Key Info:
            Public Key Algorithm: rsaEncryption
                RSA Public-Key: (2048 bit)
                Modulus:
                    00:ef:e7:20:5b:f4:25:4c:3c:af:ea:42:82:36:c4:
                    e6:e4:3f:58:7e:7f:69:25:7a:e5:43:76:d7:4c:72:
                    61:e5:b4:01:a5:11:f7:82:a6:e0:9b:1e:4d:a9:0a:
                    3a:8c:93:75:b2:69:42:c1:7e:c7:69:9f:23:8b:b9:
                    ea:16:93:7c:ee:35:78:a1:6d:db:41:d7:bf:6a:51:
                    98:38:28:e3:e1:96:26:28:e2:c8:1a:c9:b8:6b:4a:
                    79:a7:53:0c:d2:2d:9a:34:73:c1:66:9a:21:37:bc:
                    eb:20:6d:2f:d3:9e:65:2a:45:c8:e1:9b:50:89:b3:
                    d1:97:35:77:3d:be:54:4d:d8:02:34:8d:88:99:fa:
                    dd:e9:32:5f:74:25:de:89:d2:df:cd:32:20:aa:c5:
                    c1:5c:55:fd:bd:61:13:78:41:40:62:db:ca:7d:39:
                    2c:7e:46:8f:15:d8:be:84:17:5b:69:df:76:85:d2:
                    f0:f1:e4:1a:9e:8a:f5:cd:6c:bc:24:03:95:9e:47:
                    62:d4:fb:43:13:d6:fb:95:87:ad:3c:94:43:b0:24:
                    22:38:fa:1c:20:2f:35:5f:65:71:7e:33:f8:66:bc:
                    37:12:93:08:62:b5:6c:56:4a:bb:7c:e5:e4:37:d4:
                    11:14:ba:cf:70:dc:a3:c7:09:4a:1c:ce:1b:a0:9d:
                    bd:47
                Exponent: 65537 (0x10001)
        X509v3 extensions:
            X509v3 Basic Constraints: 
                CA:FALSE
            X509v3 Subject Key Identifier: 
                38:63:35:49:B2:29:2B:FC:CF:FB:39:D4:E3:B2:16:48:19:47:9D:64
            X509v3 Authority Key Identifier: 
                keyid:2C:D7:A7:FE:EB:86:D2:71:E3:BA:BD:70:5C:51:DB:0D:59:8C:73:D0
                DirName:/CN=team513-net
                serial:33:73:90:69:A1:62:C8:1A:45:F1:55:29:21:A4:D9:1F:E7:30:57:0B

            X509v3 Extended Key Usage: 
                TLS Web Server Authentication
            X509v3 Key Usage: 
                Digital Signature, Key Encipherment
            X509v3 Subject Alternative Name: 
                DNS:team513-server
    Signature Algorithm: sha256WithRSAEncryption
         39:26:e6:47:a7:1f:e1:0f:b2:6d:f2:77:ca:69:65:70:a3:3e:
         d2:2d:28:8e:2f:80:bc:51:78:f7:fd:0f:0b:93:8d:57:ad:38:
         d8:29:10:92:34:64:17:14:ee:56:16:02:dc:38:9a:89:6a:93:
         96:bd:ea:15:cb:82:20:be:5f:62:62:7c:05:3d:a6:86:6d:5f:
         db:ee:02:2d:e7:59:ca:46:17:85:8d:df:25:96:94:b1:99:14:
         08:e6:05:43:00:24:61:87:4f:b7:e5:6b:4f:6a:d3:44:92:7c:
         ed:54:9d:36:ff:90:76:6f:4b:85:cc:b7:24:d3:92:70:6b:2f:
         c1:52:a2:b1:4a:89:a3:bf:b7:13:15:db:a6:b8:d2:95:03:a4:
         bd:70:7d:e6:dd:15:5c:86:fc:7d:7d:38:70:5d:4e:08:be:79:
         f8:af:c2:0f:8d:0b:36:b4:55:40:05:15:e0:e5:97:1f:0e:23:
         85:18:8e:ef:02:f7:31:23:f7:27:80:c7:7f:d0:fe:56:6a:82:
         97:c2:8b:6c:12:7e:c8:2d:de:c8:b1:e5:06:54:d3:94:eb:a9:
         5e:97:a8:08:a9:e1:43:2f:bc:b1:7e:d9:e6:8c:ff:a7:33:f8:
         10:9f:7d:6e:0f:83:a7:47:8e:d6:f4:ec:30:e5:ff:fb:8d:4a:
         cf:61:af:77
-----BEGIN CERTIFICATE-----
MIIDdzCCAl+gAwIBAgIQdIzwR1N1/U+sND1q9FMHfDANBgkqhkiG9w0BAQsFADAW
MRQwEgYDVQQDDAt0ZWFtNTEzLW5ldDAeFw0yMjA1MTgyMTUyMDdaFw0yNTA1MDIy
MTUyMDdaMBkxFzAVBgNVBAMMDnRlYW01MTMtc2VydmVyMIIBIjANBgkqhkiG9w0B
AQEFAAOCAQ8AMIIBCgKCAQEA7+cgW/QlTDyv6kKCNsTm5D9Yfn9pJXrlQ3bXTHJh
5bQBpRH3gqbgmx5NqQo6jJN1smlCwX7HaZ8ji7nqFpN87jV4oW3bQde/alGYOCjj
4ZYmKOLIGsm4a0p5p1MM0i2aNHPBZpohN7zrIG0v055lKkXI4ZtQibPRlzV3Pb5U
TdgCNI2Imfrd6TJfdCXeidLfzTIgqsXBXFX9vWETeEFAYtvKfTksfkaPFdi+hBdb
ad92hdLw8eQanor1zWy8JAOVnkdi1PtDE9b7lYetPJRDsCQiOPocIC81X2VxfjP4
Zrw3EpMIYrVsVkq7fOXkN9QRFLrPcNyjxwlKHM4boJ29RwIDAQABo4G9MIG6MAkG
A1UdEwQCMAAwHQYDVR0OBBYEFDhjNUmyKSv8z/s51OOyFkgZR51kMFEGA1UdIwRK
MEiAFCzXp/7rhtJx47q9cFxR2w1ZjHPQoRqkGDAWMRQwEgYDVQQDDAt0ZWFtNTEz
LW5ldIIUM3OQaaFiyBpF8VUpIaTZH+cwVwswEwYDVR0lBAwwCgYIKwYBBQUHAwEw
CwYDVR0PBAQDAgWgMBkGA1UdEQQSMBCCDnRlYW01MTMtc2VydmVyMA0GCSqGSIb3
DQEBCwUAA4IBAQA5JuZHpx/hD7Jt8nfKaWVwoz7SLSiOL4C8UXj3/Q8Lk41XrTjY
KRCSNGQXFO5WFgLcOJqJapOWveoVy4Igvl9iYnwFPaaGbV/b7gIt51nKRheFjd8l
lpSxmRQI5gVDACRhh0+35WtPatNEknztVJ02/5B2b0uFzLck05Jway/BUqKxSomj
v7cTFdumuNKVA6S9cH3m3RVchvx9fThwXU4Ivnn4r8IPjQs2tFVABRXg5ZcfDiOF
GI7vAvcxI/cngMd/0P5WaoKXwotsEn7ILd7IseUGVNOU66lel6gIqeFDL7yxftnm
jP+nM/gQn31uD4OnR47W9Oww5f/7jUrPYa93
-----END CERTIFICATE-----
