Certificate:
    Data:
        Version: 3 (0x2)
        Serial Number:
            a9:a1:2b:fa:6e:89:e5:ac:91:c8:e2:8b:17:fe:5a:66
        Signature Algorithm: sha256WithRSAEncryption
        Issuer: CN=team513-net
        Validity
            Not Before: May 18 21:52:07 2022 GMT
            Not After : May  2 21:52:07 2025 GMT
        Subject: CN=team513-client
        Subject Public Key Info:
            Public Key Algorithm: rsaEncryption
                RSA Public-Key: (2048 bit)
                Modulus:
                    00:a1:e0:12:dc:c5:a9:fe:30:7e:a3:0c:70:0f:f4:
                    be:2a:dd:99:b0:f6:d7:65:6b:26:0e:9e:2c:97:d5:
                    fb:f6:37:04:2a:f8:06:13:3f:8c:4a:46:92:9e:fa:
                    09:1b:0e:0e:96:42:78:cd:a2:e6:38:5d:d8:68:8d:
                    01:86:4b:ee:ff:22:53:bb:76:4a:81:9c:f4:b0:60:
                    56:26:70:c4:88:78:27:c5:5f:a2:0c:67:46:81:19:
                    7e:f6:38:09:e1:49:52:0f:1b:49:f7:c8:67:71:68:
                    85:93:0d:d2:47:a3:c9:f1:e5:82:3c:75:b7:a8:1f:
                    b7:d7:48:20:1e:fc:3a:ad:ca:67:d0:e7:64:45:30:
                    67:83:8f:c9:38:ff:36:ac:68:32:ee:71:51:35:ff:
                    e3:4e:99:c5:ec:d2:90:cf:c1:6c:06:bc:77:81:a7:
                    a1:11:c9:67:80:71:6a:93:09:1c:ca:fb:2f:5a:5d:
                    3e:1c:ed:79:b1:42:91:6a:eb:e0:bd:33:c3:f7:d0:
                    21:18:02:f8:a2:9a:bd:ce:20:21:b2:af:ad:27:cc:
                    de:57:26:69:e3:4b:43:b7:89:e0:25:1c:b6:13:f6:
                    3d:a4:aa:be:79:8c:5d:56:e4:b3:ae:4e:d5:42:f9:
                    4f:e3:7b:05:63:da:ef:28:8e:4d:74:c1:b9:1b:c6:
                    88:1f
                Exponent: 65537 (0x10001)
        X509v3 extensions:
            X509v3 Basic Constraints: 
                CA:FALSE
            X509v3 Subject Key Identifier: 
                B2:EC:15:1F:04:88:AF:92:C0:68:A4:A9:03:E8:6A:C7:F5:52:14:CF
            X509v3 Authority Key Identifier: 
                keyid:2C:D7:A7:FE:EB:86:D2:71:E3:BA:BD:70:5C:51:DB:0D:59:8C:73:D0
                DirName:/CN=team513-net
                serial:33:73:90:69:A1:62:C8:1A:45:F1:55:29:21:A4:D9:1F:E7:30:57:0B

            X509v3 Extended Key Usage: 
                TLS Web Client Authentication
            X509v3 Key Usage: 
                Digital Signature
    Signature Algorithm: sha256WithRSAEncryption
         b1:c1:12:ce:26:4d:73:ba:5d:ef:e8:b0:8c:1c:7f:8c:48:83:
         38:70:a9:f8:5a:13:3d:ef:38:cd:3e:ee:bb:78:60:6f:e2:6f:
         61:5e:4b:b2:d6:11:88:d1:12:b6:ed:e1:9b:63:21:04:62:94:
         e3:ba:e1:54:24:00:44:0b:6f:e4:cc:8b:5b:d0:dd:73:b5:fc:
         37:b6:2c:2f:a4:6d:3d:21:a0:9b:a6:ee:47:85:05:aa:01:75:
         02:a3:86:0e:c9:11:71:74:70:13:ee:14:4c:62:6d:b9:ab:ae:
         9f:7a:60:9a:26:37:04:ad:c0:44:f3:e4:0f:3c:4b:05:e8:ca:
         48:9c:b0:98:7b:33:4f:5c:e7:1a:8a:74:7b:f2:31:fd:18:59:
         17:eb:17:11:1f:df:ea:51:1c:26:17:5d:6d:24:a3:1a:73:48:
         14:10:45:0a:63:00:ab:3a:1a:7d:b0:91:d8:58:18:7c:eb:f2:
         a6:a9:2a:03:75:0c:6f:bf:20:ee:13:ed:e6:f0:e2:98:12:fb:
         d0:a6:b8:44:d4:ae:a3:3e:51:72:18:f3:76:3d:64:df:16:20:
         29:22:7e:20:74:18:e9:45:c4:fb:75:9f:74:58:93:95:88:cf:
         f6:36:e0:cc:3c:dd:f5:d0:b3:89:02:b7:47:fd:7e:84:da:3f:
         04:4f:3f:d9
-----BEGIN CERTIFICATE-----
MIIDXTCCAkWgAwIBAgIRAKmhK/puieWskcjiixf+WmYwDQYJKoZIhvcNAQELBQAw
FjEUMBIGA1UEAwwLdGVhbTUxMy1uZXQwHhcNMjIwNTE4MjE1MjA3WhcNMjUwNTAy
MjE1MjA3WjAZMRcwFQYDVQQDDA50ZWFtNTEzLWNsaWVudDCCASIwDQYJKoZIhvcN
AQEBBQADggEPADCCAQoCggEBAKHgEtzFqf4wfqMMcA/0virdmbD212VrJg6eLJfV
+/Y3BCr4BhM/jEpGkp76CRsODpZCeM2i5jhd2GiNAYZL7v8iU7t2SoGc9LBgViZw
xIh4J8VfogxnRoEZfvY4CeFJUg8bSffIZ3FohZMN0kejyfHlgjx1t6gft9dIIB78
Oq3KZ9DnZEUwZ4OPyTj/NqxoMu5xUTX/406ZxezSkM/BbAa8d4GnoRHJZ4BxapMJ
HMr7L1pdPhztebFCkWrr4L0zw/fQIRgC+KKavc4gIbKvrSfM3lcmaeNLQ7eJ4CUc
thP2PaSqvnmMXVbks65O1UL5T+N7BWPa7yiOTXTBuRvGiB8CAwEAAaOBojCBnzAJ
BgNVHRMEAjAAMB0GA1UdDgQWBBSy7BUfBIivksBopKkD6GrH9VIUzzBRBgNVHSME
SjBIgBQs16f+64bSceO6vXBcUdsNWYxz0KEapBgwFjEUMBIGA1UEAwwLdGVhbTUx
My1uZXSCFDNzkGmhYsgaRfFVKSGk2R/nMFcLMBMGA1UdJQQMMAoGCCsGAQUFBwMC
MAsGA1UdDwQEAwIHgDANBgkqhkiG9w0BAQsFAAOCAQEAscESziZNc7pd7+iwjBx/
jEiDOHCp+FoTPe84zT7uu3hgb+JvYV5LstYRiNEStu3hm2MhBGKU47rhVCQARAtv
5MyLW9Ddc7X8N7YsL6RtPSGgm6buR4UFqgF1AqOGDskRcXRwE+4UTGJtuauun3pg
miY3BK3ARPPkDzxLBejKSJywmHszT1znGop0e/Ix/RhZF+sXER/f6lEcJhddbSSj
GnNIFBBFCmMAqzoafbCR2FgYfOvypqkqA3UMb78g7hPt5vDimBL70Ka4RNSuoz5R
chjzdj1k3xYgKSJ+IHQY6UXE+3WfdFiTlYjP9jbgzDzd9dCziQK3R/1+hNo/BE8/
2Q==
-----END CERTIFICATE-----
