Certificate:
    Data:
        Version: 3 (0x2)
        Serial Number:
            4c:40:83:fb:7d:12:ef:67:73:5b:56:a9:e5:e6:0b:6e
        Signature Algorithm: sha256WithRSAEncryption
        Issuer: CN=team480-net
        Validity
            Not Before: May 18 21:40:50 2022 GMT
            Not After : May  2 21:40:50 2025 GMT
        Subject: CN=team480-server
        Subject Public Key Info:
            Public Key Algorithm: rsaEncryption
                RSA Public-Key: (2048 bit)
                Modulus:
                    00:ae:94:d1:0e:51:41:05:b9:73:f2:3a:3c:3f:d5:
                    de:97:80:88:4b:50:db:d7:c5:ec:e1:c2:b3:21:25:
                    ae:f1:a5:31:6a:ca:9c:71:fc:c8:db:74:cf:55:84:
                    4b:49:5d:7a:6d:8a:9e:3d:3f:a9:95:ce:0e:e9:a2:
                    b2:5f:48:fa:76:81:e4:3f:75:b9:eb:c5:8c:d4:d2:
                    3c:90:d7:f3:f2:a3:36:94:9e:d8:bf:f4:27:c4:69:
                    88:66:83:73:e8:dd:48:e9:be:9b:4a:51:3a:27:bd:
                    c0:e5:60:ca:b5:47:f8:c3:0c:c0:51:7c:5e:c8:bc:
                    06:69:42:dc:25:6f:8e:33:bc:c3:bf:5e:19:50:98:
                    5b:37:24:ef:75:73:19:0a:9e:96:e6:1c:e5:89:bb:
                    c1:08:c7:06:c9:d0:b7:63:0a:86:bf:ba:8a:52:bb:
                    f8:38:b6:9c:29:76:33:3f:5f:b1:ba:3c:9a:ba:b1:
                    65:de:ea:46:dd:81:99:22:3d:78:19:c7:ef:2b:eb:
                    3d:4b:7c:f9:3f:14:8a:01:d8:c4:4f:28:f6:39:ef:
                    d0:d2:ea:49:82:4d:33:34:0e:25:04:6b:aa:08:6a:
                    d8:30:bc:e1:bd:db:f8:b5:85:07:1f:94:91:12:95:
                    e3:6d:50:c0:77:28:f1:8d:25:56:28:96:cb:32:02:
                    66:37
                Exponent: 65537 (0x10001)
        X509v3 extensions:
            X509v3 Basic Constraints: 
                CA:FALSE
            X509v3 Subject Key Identifier: 
                5C:49:A0:B3:36:39:77:CB:E1:D0:BB:6D:99:CA:26:58:77:CE:69:03
            X509v3 Authority Key Identifier: 
                keyid:48:63:2A:8E:02:9A:0C:C2:73:99:80:76:56:34:4E:3D:75:E6:37:72
                DirName:/CN=team480-net
                serial:52:F3:FD:22:67:7B:C9:22:26:86:98:BC:45:90:6A:00:DF:2B:07:7E

            X509v3 Extended Key Usage: 
                TLS Web Server Authentication
            X509v3 Key Usage: 
                Digital Signature, Key Encipherment
            X509v3 Subject Alternative Name: 
                DNS:team480-server
    Signature Algorithm: sha256WithRSAEncryption
         bc:1d:b5:e9:21:2b:8c:76:a7:88:2c:bc:a1:92:4e:b4:09:eb:
         c9:7b:c1:17:3b:ad:a5:92:fa:d8:3d:11:ea:79:13:1b:da:72:
         bd:bb:97:a0:6a:d2:e6:70:49:77:13:ae:cd:af:07:03:18:de:
         a9:1d:b1:08:34:61:bf:b3:ec:76:30:f5:ed:9a:52:50:bb:0d:
         4a:cf:ab:41:18:21:62:4e:eb:03:86:38:6d:28:ab:26:8e:c5:
         fd:e4:a0:0b:58:c0:a8:ec:49:78:a5:52:a7:66:e4:af:6f:55:
         21:22:75:db:fc:2c:72:c5:5f:06:a5:3c:d4:0f:92:12:45:a2:
         a8:c5:5b:33:4d:ec:0e:82:3a:e8:5d:2c:97:1c:0d:78:c1:03:
         4f:b6:1a:63:9e:aa:f0:92:b2:87:81:d1:44:f7:d4:f6:49:f2:
         9f:f5:3c:86:71:f3:a2:d3:5e:81:6f:72:2a:c2:36:b6:5c:b3:
         df:1d:b8:99:21:69:26:c5:e3:52:8b:40:89:14:69:98:16:29:
         b8:de:6f:a7:aa:9d:4a:9c:5a:08:7b:82:8d:0c:df:a5:6e:d6:
         82:49:bb:1c:d8:44:c4:0a:2e:cb:4e:1f:e8:a5:5b:69:51:37:
         dc:0a:03:be:f3:7a:1a:0b:7e:28:1d:a7:b0:db:ff:c0:20:ca:
         e0:ef:4d:54
-----BEGIN CERTIFICATE-----
MIIDdzCCAl+gAwIBAgIQTECD+30S72dzW1ap5eYLbjANBgkqhkiG9w0BAQsFADAW
MRQwEgYDVQQDDAt0ZWFtNDgwLW5ldDAeFw0yMjA1MTgyMTQwNTBaFw0yNTA1MDIy
MTQwNTBaMBkxFzAVBgNVBAMMDnRlYW00ODAtc2VydmVyMIIBIjANBgkqhkiG9w0B
AQEFAAOCAQ8AMIIBCgKCAQEArpTRDlFBBblz8jo8P9Xel4CIS1Db18Xs4cKzISWu
8aUxasqccfzI23TPVYRLSV16bYqePT+plc4O6aKyX0j6doHkP3W568WM1NI8kNfz
8qM2lJ7Yv/QnxGmIZoNz6N1I6b6bSlE6J73A5WDKtUf4wwzAUXxeyLwGaULcJW+O
M7zDv14ZUJhbNyTvdXMZCp6W5hzlibvBCMcGydC3YwqGv7qKUrv4OLacKXYzP1+x
ujyaurFl3upG3YGZIj14GcfvK+s9S3z5PxSKAdjETyj2Oe/Q0upJgk0zNA4lBGuq
CGrYMLzhvdv4tYUHH5SREpXjbVDAdyjxjSVWKJbLMgJmNwIDAQABo4G9MIG6MAkG
A1UdEwQCMAAwHQYDVR0OBBYEFFxJoLM2OXfL4dC7bZnKJlh3zmkDMFEGA1UdIwRK
MEiAFEhjKo4CmgzCc5mAdlY0Tj115jdyoRqkGDAWMRQwEgYDVQQDDAt0ZWFtNDgw
LW5ldIIUUvP9Imd7ySImhpi8RZBqAN8rB34wEwYDVR0lBAwwCgYIKwYBBQUHAwEw
CwYDVR0PBAQDAgWgMBkGA1UdEQQSMBCCDnRlYW00ODAtc2VydmVyMA0GCSqGSIb3
DQEBCwUAA4IBAQC8HbXpISuMdqeILLyhkk60CevJe8EXO62lkvrYPRHqeRMb2nK9
u5egatLmcEl3E67NrwcDGN6pHbEINGG/s+x2MPXtmlJQuw1Kz6tBGCFiTusDhjht
KKsmjsX95KALWMCo7El4pVKnZuSvb1UhInXb/CxyxV8GpTzUD5ISRaKoxVszTewO
gjroXSyXHA14wQNPthpjnqrwkrKHgdFE99T2SfKf9TyGcfOi016Bb3Iqwja2XLPf
HbiZIWkmxeNSi0CJFGmYFim43m+nqp1KnFoIe4KNDN+lbtaCSbsc2ETECi7LTh/o
pVtpUTfcCgO+83oaC34oHaew2//AIMrg701U
-----END CERTIFICATE-----
