Certificate:
    Data:
        Version: 3 (0x2)
        Serial Number:
            8c:3c:90:75:f3:b6:a7:41:4f:75:1b:f7:b1:d5:09:32
        Signature Algorithm: sha256WithRSAEncryption
        Issuer: CN=team75-net
        Validity
            Not Before: May 18 14:32:43 2022 GMT
            Not After : May  2 14:32:43 2025 GMT
        Subject: CN=team75-client
        Subject Public Key Info:
            Public Key Algorithm: rsaEncryption
                RSA Public-Key: (2048 bit)
                Modulus:
                    00:c2:92:fd:d8:53:6b:40:7a:6d:b5:6d:58:15:f3:
                    71:4b:c2:96:9e:da:a4:dc:b9:d6:73:32:b8:13:3f:
                    7b:ad:e9:95:c7:ed:a3:1d:2f:40:11:ac:76:e9:28:
                    33:41:c6:ed:95:b6:0e:9a:66:14:8b:d7:76:ee:9d:
                    1e:78:6e:4e:c2:ec:60:42:1d:4d:2d:94:93:ee:ff:
                    7f:62:56:d1:02:8e:4a:41:2e:29:55:35:a7:1c:95:
                    b2:62:93:b6:29:02:9e:c6:b5:ef:48:01:2b:76:43:
                    92:11:ab:7f:bd:2b:d3:06:90:ab:df:e0:2c:ae:58:
                    7e:29:e8:1f:8c:ee:81:d6:4c:01:c4:7f:a5:99:79:
                    64:96:07:c8:ab:6a:3e:30:5c:d3:46:b0:b4:16:1b:
                    c3:bf:83:4d:91:6b:99:f9:90:50:df:25:78:64:df:
                    90:14:a9:e4:80:ec:c2:c3:d8:12:07:8f:c0:25:5e:
                    8c:08:fc:da:6c:92:86:b3:45:33:07:11:d1:8c:21:
                    00:14:3c:2e:90:22:1a:ec:52:22:af:3c:75:4a:e3:
                    d2:32:40:9f:d1:b7:21:67:d4:71:36:08:d5:5b:be:
                    c6:0e:23:8f:51:4e:bb:e0:4f:fb:b0:e8:15:0d:6d:
                    3a:9b:b8:22:e6:e3:48:f7:42:82:48:49:f7:4f:00:
                    00:45
                Exponent: 65537 (0x10001)
        X509v3 extensions:
            X509v3 Basic Constraints: 
                CA:FALSE
            X509v3 Subject Key Identifier: 
                66:C0:A1:D5:EB:DA:27:21:65:3F:88:01:9A:2B:52:B6:AF:18:99:F0
            X509v3 Authority Key Identifier: 
                keyid:24:CC:DA:D6:6F:58:3D:FC:54:70:DD:3B:EF:31:E6:A3:06:E9:6F:27
                DirName:/CN=team75-net
                serial:6E:C0:16:D9:09:84:75:4D:03:BA:EC:94:96:8D:AB:FF:90:9A:46:DE

            X509v3 Extended Key Usage: 
                TLS Web Client Authentication
            X509v3 Key Usage: 
                Digital Signature
    Signature Algorithm: sha256WithRSAEncryption
         5c:f5:2f:67:74:d1:49:09:83:11:33:c4:14:10:ba:e5:40:0d:
         ac:57:8f:ed:9e:3a:91:7f:7b:f8:9f:6e:84:f8:f4:09:7f:f6:
         fd:b7:17:3c:f3:ed:a3:e8:8c:4f:33:51:10:1d:55:1b:6d:67:
         2c:71:29:33:54:b5:33:c7:51:d5:c7:81:c6:d3:d7:c6:ef:5d:
         45:50:a5:54:22:02:a1:8a:70:0f:36:50:a3:ad:15:8d:1b:d5:
         cd:83:f2:78:ab:bc:c2:5b:16:c5:ed:bd:b5:8c:e7:6e:08:31:
         0c:f0:6c:5c:50:9f:b7:fd:15:15:0c:40:e0:09:a5:1d:54:8f:
         53:84:43:28:aa:cc:d3:43:b9:c8:0b:d7:54:cc:d4:2f:58:a2:
         fd:d6:7d:9e:15:84:37:b7:5a:7a:1d:84:ce:5f:b5:e6:21:0a:
         5a:19:00:76:f6:5b:c5:9c:02:fe:49:98:b6:2c:36:52:34:d7:
         27:99:79:64:98:cf:ec:83:a2:ca:60:67:19:87:70:4f:13:64:
         6c:87:a3:81:d1:28:4f:77:42:e7:0b:97:52:3a:65:e1:65:ca:
         87:d7:b2:a4:fe:79:d1:69:89:20:b9:b7:8b:5c:70:3a:ce:fe:
         31:36:fc:46:24:8f:86:56:53:8c:39:99:55:c8:7e:f5:df:ae:
         2c:36:19:94
-----BEGIN CERTIFICATE-----
MIIDWjCCAkKgAwIBAgIRAIw8kHXztqdBT3Ub97HVCTIwDQYJKoZIhvcNAQELBQAw
FTETMBEGA1UEAwwKdGVhbTc1LW5ldDAeFw0yMjA1MTgxNDMyNDNaFw0yNTA1MDIx
NDMyNDNaMBgxFjAUBgNVBAMMDXRlYW03NS1jbGllbnQwggEiMA0GCSqGSIb3DQEB
AQUAA4IBDwAwggEKAoIBAQDCkv3YU2tAem21bVgV83FLwpae2qTcudZzMrgTP3ut
6ZXH7aMdL0ARrHbpKDNBxu2Vtg6aZhSL13bunR54bk7C7GBCHU0tlJPu/39iVtEC
jkpBLilVNacclbJik7YpAp7Gte9IASt2Q5IRq3+9K9MGkKvf4CyuWH4p6B+M7oHW
TAHEf6WZeWSWB8iraj4wXNNGsLQWG8O/g02Ra5n5kFDfJXhk35AUqeSA7MLD2BIH
j8AlXowI/NpskoazRTMHEdGMIQAUPC6QIhrsUiKvPHVK49IyQJ/RtyFn1HE2CNVb
vsYOI49RTrvgT/uw6BUNbTqbuCLm40j3QoJISfdPAABFAgMBAAGjgaEwgZ4wCQYD
VR0TBAIwADAdBgNVHQ4EFgQUZsCh1evaJyFlP4gBmitStq8YmfAwUAYDVR0jBEkw
R4AUJMza1m9YPfxUcN077zHmowbpbyehGaQXMBUxEzARBgNVBAMMCnRlYW03NS1u
ZXSCFG7AFtkJhHVNA7rslJaNq/+QmkbeMBMGA1UdJQQMMAoGCCsGAQUFBwMCMAsG
A1UdDwQEAwIHgDANBgkqhkiG9w0BAQsFAAOCAQEAXPUvZ3TRSQmDETPEFBC65UAN
rFeP7Z46kX97+J9uhPj0CX/2/bcXPPPto+iMTzNREB1VG21nLHEpM1S1M8dR1ceB
xtPXxu9dRVClVCICoYpwDzZQo60VjRvVzYPyeKu8wlsWxe29tYznbggxDPBsXFCf
t/0VFQxA4AmlHVSPU4RDKKrM00O5yAvXVMzUL1ii/dZ9nhWEN7daeh2Ezl+15iEK
WhkAdvZbxZwC/kmYtiw2UjTXJ5l5ZJjP7IOiymBnGYdwTxNkbIejgdEoT3dC5wuX
Ujpl4WXKh9eypP550WmJILm3i1xwOs7+MTb8RiSPhlZTjDmZVch+9d+uLDYZlA==
-----END CERTIFICATE-----
