Certificate:
    Data:
        Version: 3 (0x2)
        Serial Number:
            3d:fc:0a:35:68:ea:64:08:09:fe:e7:56:c2:0d:d5:e2
        Signature Algorithm: sha256WithRSAEncryption
        Issuer: CN=team418-net
        Validity
            Not Before: May 18 21:08:17 2022 GMT
            Not After : May  2 21:08:17 2025 GMT
        Subject: CN=team418-server
        Subject Public Key Info:
            Public Key Algorithm: rsaEncryption
                RSA Public-Key: (2048 bit)
                Modulus:
                    00:e6:87:08:95:7d:eb:f6:97:93:ea:71:29:48:a3:
                    4e:95:f8:a1:ce:58:47:f0:8c:61:c6:eb:ea:89:5f:
                    0a:5f:c2:57:be:ea:91:dd:f9:4d:3f:c7:98:75:76:
                    15:18:dd:3f:90:97:8a:99:ed:1b:23:55:7c:7c:f0:
                    f1:28:83:7c:16:ce:bf:97:51:49:36:d0:06:cc:8c:
                    88:6c:9c:81:b4:b0:bb:55:f7:73:43:5a:d4:de:b5:
                    13:89:c0:4d:1d:0c:cf:1a:11:70:08:b5:2f:3f:c9:
                    36:bb:8b:d0:8f:bf:9a:b5:d9:95:70:82:42:90:51:
                    13:88:bc:38:73:bb:cd:8f:75:2d:57:71:ca:d4:04:
                    38:e0:8c:91:43:b1:47:af:3c:4c:44:01:55:b4:93:
                    f1:db:41:d3:b3:31:55:8e:d1:a9:4b:e0:ca:b0:b7:
                    df:68:0c:fa:bc:03:60:0c:1b:06:88:6b:43:41:3c:
                    c8:7a:1c:8a:7f:34:2d:5b:e0:20:9a:96:44:d6:84:
                    30:3e:c6:3f:f7:68:8d:34:68:3a:02:a0:99:de:e5:
                    7d:25:1a:4d:ad:da:cf:bb:e9:3c:f2:bc:2e:24:ad:
                    11:35:0f:d4:a9:09:e0:9e:9c:52:aa:ec:cc:8b:98:
                    b8:09:2c:f9:19:72:3b:23:e0:31:bf:86:94:06:17:
                    fe:31
                Exponent: 65537 (0x10001)
        X509v3 extensions:
            X509v3 Basic Constraints: 
                CA:FALSE
            X509v3 Subject Key Identifier: 
                5C:E8:61:7F:16:C2:34:59:A7:75:5B:93:6C:C8:CB:56:4D:7E:54:C1
            X509v3 Authority Key Identifier: 
                keyid:CE:B5:C0:98:A9:20:95:41:BB:97:E0:D4:FA:09:3B:87:83:01:09:54
                DirName:/CN=team418-net
                serial:1F:05:20:C1:81:BE:4C:9A:52:BF:85:6B:73:F4:A4:7C:B0:77:3C:98

            X509v3 Extended Key Usage: 
                TLS Web Server Authentication
            X509v3 Key Usage: 
                Digital Signature, Key Encipherment
            X509v3 Subject Alternative Name: 
                DNS:team418-server
    Signature Algorithm: sha256WithRSAEncryption
         86:09:24:ad:ba:cd:31:4b:75:76:91:31:45:ea:e2:76:4e:41:
         ac:fc:46:de:36:10:d4:95:8c:51:a2:8d:fd:d2:84:02:b7:48:
         3c:ce:e3:45:3f:ba:67:1a:0e:c6:0d:80:80:ec:c9:8f:ca:1f:
         d4:df:78:7e:67:e9:6c:bb:d8:0e:88:f4:df:73:74:88:0e:a4:
         56:52:d9:57:29:de:1a:3d:36:45:98:f4:9d:50:40:31:aa:7b:
         d8:39:ef:3e:fc:f0:88:84:f2:90:88:97:11:f2:4d:8c:42:dd:
         b8:ba:88:2f:7d:cd:d8:23:af:5b:5b:7e:66:b9:0a:70:1a:f2:
         66:8c:ef:3a:1a:cb:51:35:6d:a6:e8:08:d1:04:f4:3d:1e:01:
         c3:76:01:0e:7f:ff:17:8b:cf:94:95:f0:20:8f:bf:78:ef:c4:
         7a:4b:4d:13:ea:09:40:be:34:d4:18:21:15:84:e6:e0:d0:57:
         56:20:6c:47:9d:32:25:1d:4b:51:4b:a0:c6:02:62:f4:dc:6b:
         3e:ef:cf:bd:22:44:b4:29:f3:14:0e:5b:79:73:74:f2:4b:d5:
         89:71:81:69:5c:82:0c:3d:f3:ac:65:23:c9:86:ac:df:32:99:
         7b:50:70:d9:74:b3:c1:8b:c7:80:7f:6c:96:98:74:f2:00:ed:
         eb:67:4f:00
-----BEGIN CERTIFICATE-----
MIIDdzCCAl+gAwIBAgIQPfwKNWjqZAgJ/udWwg3V4jANBgkqhkiG9w0BAQsFADAW
MRQwEgYDVQQDDAt0ZWFtNDE4LW5ldDAeFw0yMjA1MTgyMTA4MTdaFw0yNTA1MDIy
MTA4MTdaMBkxFzAVBgNVBAMMDnRlYW00MTgtc2VydmVyMIIBIjANBgkqhkiG9w0B
AQEFAAOCAQ8AMIIBCgKCAQEA5ocIlX3r9peT6nEpSKNOlfihzlhH8IxhxuvqiV8K
X8JXvuqR3flNP8eYdXYVGN0/kJeKme0bI1V8fPDxKIN8Fs6/l1FJNtAGzIyIbJyB
tLC7VfdzQ1rU3rUTicBNHQzPGhFwCLUvP8k2u4vQj7+atdmVcIJCkFETiLw4c7vN
j3UtV3HK1AQ44IyRQ7FHrzxMRAFVtJPx20HTszFVjtGpS+DKsLffaAz6vANgDBsG
iGtDQTzIehyKfzQtW+AgmpZE1oQwPsY/92iNNGg6AqCZ3uV9JRpNrdrPu+k88rwu
JK0RNQ/UqQngnpxSquzMi5i4CSz5GXI7I+Axv4aUBhf+MQIDAQABo4G9MIG6MAkG
A1UdEwQCMAAwHQYDVR0OBBYEFFzoYX8WwjRZp3Vbk2zIy1ZNflTBMFEGA1UdIwRK
MEiAFM61wJipIJVBu5fg1PoJO4eDAQlUoRqkGDAWMRQwEgYDVQQDDAt0ZWFtNDE4
LW5ldIIUHwUgwYG+TJpSv4Vrc/SkfLB3PJgwEwYDVR0lBAwwCgYIKwYBBQUHAwEw
CwYDVR0PBAQDAgWgMBkGA1UdEQQSMBCCDnRlYW00MTgtc2VydmVyMA0GCSqGSIb3
DQEBCwUAA4IBAQCGCSStus0xS3V2kTFF6uJ2TkGs/EbeNhDUlYxRoo390oQCt0g8
zuNFP7pnGg7GDYCA7MmPyh/U33h+Z+lsu9gOiPTfc3SIDqRWUtlXKd4aPTZFmPSd
UEAxqnvYOe8+/PCIhPKQiJcR8k2MQt24uogvfc3YI69bW35muQpwGvJmjO86GstR
NW2m6AjRBPQ9HgHDdgEOf/8Xi8+UlfAgj79478R6S00T6glAvjTUGCEVhObg0FdW
IGxHnTIlHUtRS6DGAmL03Gs+78+9IkS0KfMUDlt5c3TyS9WJcYFpXIIMPfOsZSPJ
hqzfMpl7UHDZdLPBi8eAf2yWmHTyAO3rZ08A
-----END CERTIFICATE-----
