Certificate:
    Data:
        Version: 3 (0x2)
        Serial Number:
            91:88:4e:ec:96:a1:65:3b:d4:f2:85:35:f3:d7:c3:62
        Signature Algorithm: sha256WithRSAEncryption
        Issuer: CN=team576-net
        Validity
            Not Before: May 18 22:30:13 2022 GMT
            Not After : May  2 22:30:13 2025 GMT
        Subject: CN=team576-server
        Subject Public Key Info:
            Public Key Algorithm: rsaEncryption
                RSA Public-Key: (2048 bit)
                Modulus:
                    00:aa:c1:5b:2e:80:7e:d6:da:82:63:99:f1:a5:99:
                    38:67:6f:e5:51:b5:0c:04:5a:fe:4a:7f:37:8b:cc:
                    27:4f:d3:86:1b:f0:ca:bf:d4:11:e1:fd:36:ec:05:
                    ca:40:d8:78:d3:5c:3e:d4:32:51:76:b9:81:ad:19:
                    62:61:53:ef:91:83:7c:21:1e:a6:29:cf:a7:15:22:
                    7b:c9:2e:58:70:af:a1:2d:02:8d:cb:c1:3a:a7:24:
                    5f:f6:02:d8:b8:01:c7:79:33:df:c9:e0:c7:9b:a8:
                    04:f0:8d:cc:79:94:fc:ba:a9:72:43:4b:e6:96:37:
                    a4:be:f0:04:b4:a0:86:e1:65:f3:56:78:aa:c0:cb:
                    64:ec:2f:1d:2f:8c:5b:c0:e2:67:01:e2:cd:64:ad:
                    72:2f:43:3a:fb:63:3a:a6:b7:db:bc:26:c0:2b:6f:
                    a9:43:45:16:6d:26:ed:ec:65:8d:10:98:3d:41:84:
                    39:b2:7e:7e:8a:f4:b5:f0:79:70:15:19:ef:fc:08:
                    74:ac:58:c2:e5:1e:79:c3:43:54:f5:20:59:9d:83:
                    7a:34:1d:f4:70:e8:30:1d:21:6c:a6:cb:a3:88:ba:
                    c7:6f:24:94:2f:44:02:65:e6:2f:97:5c:2d:1c:ba:
                    92:25:86:cb:52:bc:d0:3e:f0:d1:62:07:e5:17:66:
                    b7:3b
                Exponent: 65537 (0x10001)
        X509v3 extensions:
            X509v3 Basic Constraints: 
                CA:FALSE
            X509v3 Subject Key Identifier: 
                5F:71:5B:89:E4:F1:63:4A:75:0D:AC:CF:42:E1:D9:7C:2C:53:68:8C
            X509v3 Authority Key Identifier: 
                keyid:14:9E:94:C5:55:1E:0E:E0:94:24:14:BE:0B:37:BE:5A:A6:64:93:F1
                DirName:/CN=team576-net
                serial:13:9F:93:54:87:B3:90:D2:65:16:2B:2B:48:0A:88:53:0C:2F:2C:3F

            X509v3 Extended Key Usage: 
                TLS Web Server Authentication
            X509v3 Key Usage: 
                Digital Signature, Key Encipherment
            X509v3 Subject Alternative Name: 
                DNS:team576-server
    Signature Algorithm: sha256WithRSAEncryption
         02:55:13:9f:8f:cf:c1:59:0b:e6:01:cc:b5:df:9e:7f:a8:11:
         6e:14:b5:00:3a:88:2d:0a:7f:9a:f2:bb:db:eb:09:32:3f:9e:
         72:f9:91:cf:b2:d4:c8:1c:ca:7b:b7:4d:ee:10:58:e1:7c:c5:
         b7:35:59:fd:de:f5:db:f9:63:84:95:06:d4:95:e5:b2:d8:9b:
         d0:92:bd:13:0b:df:5f:84:51:88:04:c1:8f:b2:71:99:23:1e:
         ff:2f:f7:95:75:86:db:f9:2c:24:d7:12:b9:83:43:bc:d2:ec:
         8d:80:3f:a8:e5:15:c9:c6:e6:5b:66:26:51:c7:a2:8f:22:ae:
         82:36:89:e4:73:f6:32:b7:c9:25:71:f3:d4:8e:55:e7:04:84:
         6c:76:b4:22:c8:27:8a:5c:c1:16:f9:50:24:7d:6e:53:de:90:
         46:b0:cf:21:8c:4c:42:de:aa:de:c5:d7:08:f5:cf:29:06:51:
         dc:83:97:b3:77:ad:f5:2b:c3:ff:dc:0f:3f:7f:cb:0e:29:0e:
         22:11:d5:70:87:c6:d4:e2:31:16:12:be:0c:9e:cc:5e:4c:7b:
         b7:d3:60:38:28:ff:8c:d0:10:86:b0:09:e6:1f:f3:16:72:5f:
         91:2a:d5:24:84:11:88:a4:eb:4d:1d:e3:7e:fd:5f:ce:3e:71:
         e5:05:15:aa
-----BEGIN CERTIFICATE-----
MIIDeDCCAmCgAwIBAgIRAJGITuyWoWU71PKFNfPXw2IwDQYJKoZIhvcNAQELBQAw
FjEUMBIGA1UEAwwLdGVhbTU3Ni1uZXQwHhcNMjIwNTE4MjIzMDEzWhcNMjUwNTAy
MjIzMDEzWjAZMRcwFQYDVQQDDA50ZWFtNTc2LXNlcnZlcjCCASIwDQYJKoZIhvcN
AQEBBQADggEPADCCAQoCggEBAKrBWy6AftbagmOZ8aWZOGdv5VG1DARa/kp/N4vM
J0/Thhvwyr/UEeH9NuwFykDYeNNcPtQyUXa5ga0ZYmFT75GDfCEepinPpxUie8ku
WHCvoS0CjcvBOqckX/YC2LgBx3kz38ngx5uoBPCNzHmU/LqpckNL5pY3pL7wBLSg
huFl81Z4qsDLZOwvHS+MW8DiZwHizWStci9DOvtjOqa327wmwCtvqUNFFm0m7exl
jRCYPUGEObJ+for0tfB5cBUZ7/wIdKxYwuUeecNDVPUgWZ2DejQd9HDoMB0hbKbL
o4i6x28klC9EAmXmL5dcLRy6kiWGy1K80D7w0WIH5RdmtzsCAwEAAaOBvTCBujAJ
BgNVHRMEAjAAMB0GA1UdDgQWBBRfcVuJ5PFjSnUNrM9C4dl8LFNojDBRBgNVHSME
SjBIgBQUnpTFVR4O4JQkFL4LN75apmST8aEapBgwFjEUMBIGA1UEAwwLdGVhbTU3
Ni1uZXSCFBOfk1SHs5DSZRYrK0gKiFMMLyw/MBMGA1UdJQQMMAoGCCsGAQUFBwMB
MAsGA1UdDwQEAwIFoDAZBgNVHREEEjAQgg50ZWFtNTc2LXNlcnZlcjANBgkqhkiG
9w0BAQsFAAOCAQEAAlUTn4/PwVkL5gHMtd+ef6gRbhS1ADqILQp/mvK72+sJMj+e
cvmRz7LUyBzKe7dN7hBY4XzFtzVZ/d712/ljhJUG1JXlstib0JK9EwvfX4RRiATB
j7JxmSMe/y/3lXWG2/ksJNcSuYNDvNLsjYA/qOUVycbmW2YmUceijyKugjaJ5HP2
MrfJJXHz1I5V5wSEbHa0IsgnilzBFvlQJH1uU96QRrDPIYxMQt6q3sXXCPXPKQZR
3IOXs3et9SvD/9wPP3/LDikOIhHVcIfG1OIxFhK+DJ7MXkx7t9NgOCj/jNAQhrAJ
5h/zFnJfkSrVJIQRiKTrTR3jfv1fzj5x5QUVqg==
-----END CERTIFICATE-----
