Certificate:
    Data:
        Version: 3 (0x2)
        Serial Number:
            90:16:73:11:a0:4b:0a:b5:22:58:42:f4:b1:8a:24:d8
        Signature Algorithm: sha256WithRSAEncryption
        Issuer: CN=team199-net
        Validity
            Not Before: May 18 19:09:05 2022 GMT
            Not After : May  2 19:09:05 2025 GMT
        Subject: CN=team199-client
        Subject Public Key Info:
            Public Key Algorithm: rsaEncryption
                RSA Public-Key: (2048 bit)
                Modulus:
                    00:b6:b1:e5:45:bf:1b:b7:8f:27:08:cd:98:20:0e:
                    f8:68:eb:59:b8:74:16:f0:d3:1f:e4:b9:13:89:93:
                    82:d5:22:1e:d8:4e:48:2f:04:96:9c:cf:6d:bc:f4:
                    6e:d6:42:47:e1:37:3c:83:74:aa:3a:86:59:47:7f:
                    96:3e:8e:c9:44:c5:ca:9d:46:92:89:65:cf:7e:4e:
                    5f:fc:97:db:f5:4c:af:b1:86:53:61:c2:c8:f4:50:
                    d6:a0:76:99:fe:54:92:93:cc:5a:2a:1e:94:2d:8b:
                    a8:a8:5b:48:4d:34:2a:ac:15:5c:c3:ff:18:ef:a9:
                    a5:b2:90:a3:d1:1c:34:bf:5c:71:09:4f:9a:56:34:
                    1d:b5:0e:49:64:39:ab:24:27:0b:0b:4c:49:f9:8e:
                    94:7c:02:12:25:6f:4b:33:61:68:32:dc:3b:86:71:
                    45:0e:a5:77:e0:2d:9f:97:a1:4d:f6:f2:b4:64:9e:
                    c7:b4:50:68:39:19:0b:c0:bf:3a:19:dd:cc:09:94:
                    02:2c:6a:d9:0b:9b:66:2f:e8:d5:93:30:79:1b:b5:
                    ec:46:6e:bc:aa:30:26:94:0e:37:2c:17:75:a7:b4:
                    43:ee:90:8f:e9:d8:2f:7b:67:48:7d:10:fc:db:3a:
                    49:03:f6:5f:aa:56:c1:33:19:27:0e:95:73:fa:78:
                    ce:ed
                Exponent: 65537 (0x10001)
        X509v3 extensions:
            X509v3 Basic Constraints: 
                CA:FALSE
            X509v3 Subject Key Identifier: 
                94:6A:44:A5:B4:72:9B:93:EF:6A:C1:43:FF:8B:B5:80:72:4E:DC:EF
            X509v3 Authority Key Identifier: 
                keyid:1F:D2:4B:67:CF:76:7E:F1:71:33:54:A7:55:11:F5:21:0B:5B:9E:65
                DirName:/CN=team199-net
                serial:26:9E:4B:38:1B:52:2B:95:A0:16:BD:AF:16:55:01:0D:50:CA:AC:92

            X509v3 Extended Key Usage: 
                TLS Web Client Authentication
            X509v3 Key Usage: 
                Digital Signature
    Signature Algorithm: sha256WithRSAEncryption
         1f:b1:c7:fa:f3:1a:db:c4:ed:1b:c2:cd:cc:d8:62:fd:5c:1f:
         99:1e:98:a7:de:41:54:52:96:72:8e:33:c0:b3:6d:b3:db:17:
         37:b4:62:2d:11:b3:2c:09:a1:66:cc:0f:83:eb:6b:0a:0b:20:
         aa:5e:d4:3d:34:3d:cb:42:2f:b5:4e:15:43:b3:b2:74:07:af:
         93:ae:4a:7d:3f:9f:2d:2a:45:ce:fc:66:28:11:9c:73:cb:e4:
         fe:18:f8:34:08:85:d0:01:8b:d6:3b:67:89:a8:3c:9c:44:39:
         fb:42:66:25:80:57:c3:eb:b7:a5:b0:cd:3a:e4:5a:9e:09:33:
         e6:8b:fc:d1:19:da:12:31:4d:26:af:4e:ed:32:0b:6b:6a:65:
         2f:7e:8a:18:f3:3a:07:14:48:16:84:3f:4b:af:fa:bd:48:13:
         9b:07:4b:b7:9c:f8:24:da:0d:d1:6d:93:73:f7:ba:0a:b2:fb:
         35:b5:c0:ca:31:6a:76:ba:53:52:10:2f:0f:00:83:4e:ab:fa:
         5a:8c:cc:72:50:db:56:3d:74:f4:6e:a3:3a:ed:27:fc:e9:d6:
         ba:44:83:56:05:89:44:bc:5d:4e:f3:b3:02:3c:df:83:3f:ef:
         da:4e:ec:95:6d:89:46:e1:6a:67:b0:76:48:8a:af:cc:d2:37:
         cb:4a:d6:17
-----BEGIN CERTIFICATE-----
MIIDXTCCAkWgAwIBAgIRAJAWcxGgSwq1IlhC9LGKJNgwDQYJKoZIhvcNAQELBQAw
FjEUMBIGA1UEAwwLdGVhbTE5OS1uZXQwHhcNMjIwNTE4MTkwOTA1WhcNMjUwNTAy
MTkwOTA1WjAZMRcwFQYDVQQDDA50ZWFtMTk5LWNsaWVudDCCASIwDQYJKoZIhvcN
AQEBBQADggEPADCCAQoCggEBALax5UW/G7ePJwjNmCAO+GjrWbh0FvDTH+S5E4mT
gtUiHthOSC8ElpzPbbz0btZCR+E3PIN0qjqGWUd/lj6OyUTFyp1Gkollz35OX/yX
2/VMr7GGU2HCyPRQ1qB2mf5UkpPMWioelC2LqKhbSE00KqwVXMP/GO+ppbKQo9Ec
NL9ccQlPmlY0HbUOSWQ5qyQnCwtMSfmOlHwCEiVvSzNhaDLcO4ZxRQ6ld+Atn5eh
TfbytGSex7RQaDkZC8C/OhndzAmUAixq2QubZi/o1ZMweRu17EZuvKowJpQONywX
dae0Q+6Qj+nYL3tnSH0Q/Ns6SQP2X6pWwTMZJw6Vc/p4zu0CAwEAAaOBojCBnzAJ
BgNVHRMEAjAAMB0GA1UdDgQWBBSUakSltHKbk+9qwUP/i7WAck7c7zBRBgNVHSME
SjBIgBQf0ktnz3Z+8XEzVKdVEfUhC1ueZaEapBgwFjEUMBIGA1UEAwwLdGVhbTE5
OS1uZXSCFCaeSzgbUiuVoBa9rxZVAQ1QyqySMBMGA1UdJQQMMAoGCCsGAQUFBwMC
MAsGA1UdDwQEAwIHgDANBgkqhkiG9w0BAQsFAAOCAQEAH7HH+vMa28TtG8LNzNhi
/VwfmR6Yp95BVFKWco4zwLNts9sXN7RiLRGzLAmhZswPg+trCgsgql7UPTQ9y0Iv
tU4VQ7OydAevk65KfT+fLSpFzvxmKBGcc8vk/hj4NAiF0AGL1jtniag8nEQ5+0Jm
JYBXw+u3pbDNOuRangkz5ov80RnaEjFNJq9O7TILa2plL36KGPM6BxRIFoQ/S6/6
vUgTmwdLt5z4JNoN0W2Tc/e6CrL7NbXAyjFqdrpTUhAvDwCDTqv6WozMclDbVj10
9G6jOu0n/OnWukSDVgWJRLxdTvOzAjzfgz/v2k7slW2JRuFqZ7B2SIqvzNI3y0rW
Fw==
-----END CERTIFICATE-----
