Certificate:
    Data:
        Version: 3 (0x2)
        Serial Number:
            c5:4b:6d:3a:8c:2e:dd:f0:4a:24:ec:ad:a1:89:e5:89
        Signature Algorithm: sha256WithRSAEncryption
        Issuer: CN=team427-net
        Validity
            Not Before: May 18 21:12:34 2022 GMT
            Not After : May  2 21:12:34 2025 GMT
        Subject: CN=team427-client
        Subject Public Key Info:
            Public Key Algorithm: rsaEncryption
                RSA Public-Key: (2048 bit)
                Modulus:
                    00:9d:0b:a2:97:f1:6f:52:15:1a:c1:01:dc:6e:b2:
                    31:57:22:1d:ec:1a:06:01:52:4a:22:30:00:4f:63:
                    50:08:bd:42:ca:7d:29:86:91:6f:9d:74:94:b8:16:
                    55:3d:f5:b8:88:bc:3d:2f:3e:47:9c:56:4e:67:0c:
                    5d:7b:48:fd:a0:73:47:88:b8:50:7f:05:05:f4:0c:
                    65:ed:e9:8f:51:f7:e2:53:d3:fb:3d:98:c8:bf:5a:
                    e6:54:a7:b6:20:c3:04:13:05:93:6c:13:6c:92:83:
                    84:74:30:2c:cf:a1:bd:bc:97:57:ce:a2:a6:0d:83:
                    dd:b9:21:82:b8:1e:39:36:d4:16:d7:1b:35:80:48:
                    a2:74:bb:6a:eb:7c:07:a2:a5:9e:b8:37:91:3a:22:
                    f2:b3:91:e1:83:16:85:8b:96:35:39:ae:ef:2f:ca:
                    aa:6b:3c:1b:3b:bc:5f:4b:ae:08:94:08:21:6b:ff:
                    0f:be:73:5d:fe:8f:84:c2:07:08:1e:f5:e3:63:6b:
                    f8:32:10:d2:17:fd:b3:6f:1e:3e:c6:cb:d5:ee:9c:
                    f6:ea:44:e8:58:61:b8:d3:03:14:e3:5e:6c:e1:11:
                    51:32:51:96:f9:aa:4a:ac:3f:39:a5:ad:d5:92:d3:
                    10:82:48:1f:9a:bf:30:1b:50:5e:e5:62:f3:33:81:
                    ff:4f
                Exponent: 65537 (0x10001)
        X509v3 extensions:
            X509v3 Basic Constraints: 
                CA:FALSE
            X509v3 Subject Key Identifier: 
                F1:FC:5F:65:1A:BF:95:2C:0C:62:05:B4:D7:8A:BE:1C:6F:44:E8:1E
            X509v3 Authority Key Identifier: 
                keyid:7F:55:07:24:25:E1:E4:F3:4D:DD:CB:0E:E1:EA:F3:D2:A5:AA:08:03
                DirName:/CN=team427-net
                serial:4B:1C:C9:73:01:A1:7F:30:86:8C:B7:25:DF:A3:C8:D5:83:FD:11:54

            X509v3 Extended Key Usage: 
                TLS Web Client Authentication
            X509v3 Key Usage: 
                Digital Signature
    Signature Algorithm: sha256WithRSAEncryption
         8d:42:e9:52:38:97:2e:91:31:68:13:56:61:d8:f5:5f:98:04:
         52:fa:08:dc:09:53:20:81:31:5a:24:1e:fd:a9:a2:6e:2e:2e:
         09:b2:18:0f:58:1b:04:d6:a1:cb:d9:1f:71:49:2e:c7:4c:d4:
         09:ba:95:f9:4e:36:1f:c8:63:d4:37:26:23:2d:f6:00:48:5c:
         96:b3:44:93:ef:72:de:38:e0:2a:48:ff:fe:86:bd:7f:a5:c9:
         1d:c5:3f:4b:ed:27:51:56:66:00:b2:9b:b6:58:88:9e:1f:51:
         e3:75:4c:e7:ca:dc:65:01:5f:f4:89:ad:88:53:e9:9d:9a:1e:
         b0:dc:f9:c6:27:68:05:57:24:0d:92:5d:8b:ef:45:79:d5:29:
         a7:8d:eb:0a:81:71:09:af:3d:c1:28:da:ba:96:45:3b:20:06:
         1b:fd:da:e7:62:44:ee:86:dc:44:0d:95:76:a4:4b:91:ee:40:
         20:19:08:3e:ce:57:83:22:f5:5b:ee:e7:f9:e4:cc:88:4b:eb:
         db:f0:22:15:e2:9e:31:28:18:a0:44:9e:12:49:3a:f3:0e:e4:
         2d:f3:94:d9:c7:a9:6a:98:49:0e:f0:1c:a6:1b:12:2f:04:bd:
         1a:15:ca:f6:ef:19:2d:87:b8:68:5d:a5:a4:a2:fe:73:d2:63:
         8f:cb:ad:91
-----BEGIN CERTIFICATE-----
MIIDXTCCAkWgAwIBAgIRAMVLbTqMLt3wSiTsraGJ5YkwDQYJKoZIhvcNAQELBQAw
FjEUMBIGA1UEAwwLdGVhbTQyNy1uZXQwHhcNMjIwNTE4MjExMjM0WhcNMjUwNTAy
MjExMjM0WjAZMRcwFQYDVQQDDA50ZWFtNDI3LWNsaWVudDCCASIwDQYJKoZIhvcN
AQEBBQADggEPADCCAQoCggEBAJ0Lopfxb1IVGsEB3G6yMVciHewaBgFSSiIwAE9j
UAi9Qsp9KYaRb510lLgWVT31uIi8PS8+R5xWTmcMXXtI/aBzR4i4UH8FBfQMZe3p
j1H34lPT+z2YyL9a5lSntiDDBBMFk2wTbJKDhHQwLM+hvbyXV86ipg2D3bkhgrge
OTbUFtcbNYBIonS7aut8B6Klnrg3kToi8rOR4YMWhYuWNTmu7y/Kqms8Gzu8X0uu
CJQIIWv/D75zXf6PhMIHCB7142Nr+DIQ0hf9s28ePsbL1e6c9upE6FhhuNMDFONe
bOERUTJRlvmqSqw/OaWt1ZLTEIJIH5q/MBtQXuVi8zOB/08CAwEAAaOBojCBnzAJ
BgNVHRMEAjAAMB0GA1UdDgQWBBTx/F9lGr+VLAxiBbTXir4cb0ToHjBRBgNVHSME
SjBIgBR/VQckJeHk803dyw7h6vPSpaoIA6EapBgwFjEUMBIGA1UEAwwLdGVhbTQy
Ny1uZXSCFEscyXMBoX8whoy3Jd+jyNWD/RFUMBMGA1UdJQQMMAoGCCsGAQUFBwMC
MAsGA1UdDwQEAwIHgDANBgkqhkiG9w0BAQsFAAOCAQEAjULpUjiXLpExaBNWYdj1
X5gEUvoI3AlTIIExWiQe/amibi4uCbIYD1gbBNahy9kfcUkux0zUCbqV+U42H8hj
1DcmIy32AEhclrNEk+9y3jjgKkj//oa9f6XJHcU/S+0nUVZmALKbtliInh9R43VM
58rcZQFf9ImtiFPpnZoesNz5xidoBVckDZJdi+9FedUpp43rCoFxCa89wSjaupZF
OyAGG/3a52JE7obcRA2VdqRLke5AIBkIPs5XgyL1W+7n+eTMiEvr2/AiFeKeMSgY
oESeEkk68w7kLfOU2cepaphJDvAcphsSLwS9GhXK9u8ZLYe4aF2lpKL+c9Jjj8ut
kQ==
-----END CERTIFICATE-----
