Certificate:
    Data:
        Version: 3 (0x2)
        Serial Number:
            49:99:78:51:ad:c5:dd:33:6a:5f:2f:db:95:d8:3c:64
        Signature Algorithm: sha256WithRSAEncryption
        Issuer: CN=team56-net
        Validity
            Not Before: May 18 14:23:46 2022 GMT
            Not After : May  2 14:23:46 2025 GMT
        Subject: CN=team56-server
        Subject Public Key Info:
            Public Key Algorithm: rsaEncryption
                RSA Public-Key: (2048 bit)
                Modulus:
                    00:e5:cb:c0:21:4c:58:1d:f7:2f:c1:4a:67:f2:fa:
                    21:0d:7d:f1:53:93:9d:8b:e0:f7:e0:10:0b:f9:63:
                    73:06:58:1f:51:c1:2f:a8:dc:c5:6b:5e:96:eb:71:
                    82:62:1e:35:a7:1d:b3:45:1f:c7:de:94:5d:b4:06:
                    38:c8:a8:e3:18:2e:af:c2:3f:f2:c0:29:66:a3:15:
                    fc:2b:2b:b3:66:18:38:9a:32:fc:d7:bf:a3:cb:0f:
                    57:1b:67:8e:ef:ee:cf:c1:ea:f1:61:01:70:f8:73:
                    ae:9e:6c:ba:85:9a:d6:ae:e4:f9:9f:88:a8:49:06:
                    88:29:05:97:1e:2a:f9:f1:1a:25:f7:78:94:d9:93:
                    9e:66:36:42:82:5b:86:0b:e0:c4:40:67:47:3c:6e:
                    13:4a:7a:35:03:ed:93:97:ae:cb:81:16:88:64:2f:
                    87:a5:ca:dc:0b:18:8f:53:d9:74:38:b2:45:0a:ec:
                    6b:6a:5b:f0:8a:c0:3c:60:bf:c8:f1:cb:0f:88:bc:
                    36:c4:98:0a:a5:75:3e:71:00:fe:15:20:14:04:ae:
                    5a:58:d6:47:f6:3a:f5:61:f4:33:53:4d:8e:f7:8f:
                    de:b4:4d:83:fe:2e:38:d7:5c:db:2a:a4:a6:a7:89:
                    2a:13:1b:01:64:3d:02:02:58:2f:f7:91:a9:b0:5f:
                    f6:27
                Exponent: 65537 (0x10001)
        X509v3 extensions:
            X509v3 Basic Constraints: 
                CA:FALSE
            X509v3 Subject Key Identifier: 
                79:02:1D:56:B7:6A:8C:2E:A0:6A:9C:25:E6:53:A8:B9:51:98:86:82
            X509v3 Authority Key Identifier: 
                keyid:BD:2A:B4:25:E5:E3:8E:AB:17:F1:B8:02:61:77:E2:8C:47:C0:54:88
                DirName:/CN=team56-net
                serial:68:9A:8F:24:C1:34:BB:D2:D2:4A:F8:80:A7:19:C2:81:AC:99:E9:56

            X509v3 Extended Key Usage: 
                TLS Web Server Authentication
            X509v3 Key Usage: 
                Digital Signature, Key Encipherment
            X509v3 Subject Alternative Name: 
                DNS:team56-server
    Signature Algorithm: sha256WithRSAEncryption
         cd:64:1b:89:17:70:62:2c:92:8d:6e:53:9d:88:e4:79:df:3e:
         11:2d:d1:f4:54:2a:89:6e:da:02:36:6e:19:5c:2f:aa:e9:94:
         0c:8d:76:be:f6:7c:4e:38:95:67:06:fd:0c:ba:1f:f5:0a:b9:
         22:36:56:50:11:6f:2b:06:50:02:b0:1a:cc:1a:3d:1e:44:e9:
         66:e8:76:6e:0d:0b:c0:4c:c8:97:2b:c3:53:28:77:07:03:b4:
         57:c5:37:14:ff:d0:e9:82:8d:de:69:1a:7f:56:40:df:e7:87:
         02:0a:1a:1b:cf:07:7c:2a:a4:9f:f7:a0:33:dc:12:5a:3c:8c:
         87:5d:a5:d9:9e:a7:9a:22:8c:17:4f:aa:50:25:5d:a6:5e:44:
         7a:a2:57:04:18:8a:f3:f9:63:f5:7f:a5:18:3d:a2:44:3e:0d:
         8a:98:e7:57:8e:c1:6f:27:a9:a4:a5:88:d4:d0:72:ea:7d:93:
         44:f6:d6:b1:7d:1c:57:5a:9f:02:cf:21:8a:83:a1:89:f5:dd:
         21:80:0e:86:aa:b4:f7:77:f8:f1:39:98:6d:7e:9e:0e:b1:ed:
         3a:6d:22:e0:1c:73:0b:05:27:7a:fa:81:4f:56:f8:47:f6:37:
         e9:82:dd:a4:8a:17:ec:39:cc:70:72:df:5a:be:01:68:6d:58:
         8a:ee:01:a4
-----BEGIN CERTIFICATE-----
MIIDczCCAlugAwIBAgIQSZl4Ua3F3TNqXy/bldg8ZDANBgkqhkiG9w0BAQsFADAV
MRMwEQYDVQQDDAp0ZWFtNTYtbmV0MB4XDTIyMDUxODE0MjM0NloXDTI1MDUwMjE0
MjM0NlowGDEWMBQGA1UEAwwNdGVhbTU2LXNlcnZlcjCCASIwDQYJKoZIhvcNAQEB
BQADggEPADCCAQoCggEBAOXLwCFMWB33L8FKZ/L6IQ198VOTnYvg9+AQC/ljcwZY
H1HBL6jcxWtelutxgmIeNacds0Ufx96UXbQGOMio4xgur8I/8sApZqMV/Csrs2YY
OJoy/Ne/o8sPVxtnju/uz8Hq8WEBcPhzrp5suoWa1q7k+Z+IqEkGiCkFlx4q+fEa
Jfd4lNmTnmY2QoJbhgvgxEBnRzxuE0p6NQPtk5euy4EWiGQvh6XK3AsYj1PZdDiy
RQrsa2pb8IrAPGC/yPHLD4i8NsSYCqV1PnEA/hUgFASuWljWR/Y69WH0M1NNjveP
3rRNg/4uONdc2yqkpqeJKhMbAWQ9AgJYL/eRqbBf9icCAwEAAaOBuzCBuDAJBgNV
HRMEAjAAMB0GA1UdDgQWBBR5Ah1Wt2qMLqBqnCXmU6i5UZiGgjBQBgNVHSMESTBH
gBS9KrQl5eOOqxfxuAJhd+KMR8BUiKEZpBcwFTETMBEGA1UEAwwKdGVhbTU2LW5l
dIIUaJqPJME0u9LSSviApxnCgayZ6VYwEwYDVR0lBAwwCgYIKwYBBQUHAwEwCwYD
VR0PBAQDAgWgMBgGA1UdEQQRMA+CDXRlYW01Ni1zZXJ2ZXIwDQYJKoZIhvcNAQEL
BQADggEBAM1kG4kXcGIsko1uU52I5HnfPhEt0fRUKolu2gI2bhlcL6rplAyNdr72
fE44lWcG/Qy6H/UKuSI2VlARbysGUAKwGswaPR5E6Wbodm4NC8BMyJcrw1ModwcD
tFfFNxT/0OmCjd5pGn9WQN/nhwIKGhvPB3wqpJ/3oDPcElo8jIddpdmep5oijBdP
qlAlXaZeRHqiVwQYivP5Y/V/pRg9okQ+DYqY51eOwW8nqaSliNTQcup9k0T21rF9
HFdanwLPIYqDoYn13SGADoaqtPd3+PE5mG1+ng6x7TptIuAccwsFJ3r6gU9W+Ef2
N+mC3aSKF+w5zHBy31q+AWhtWIruAaQ=
-----END CERTIFICATE-----
