Certificate:
    Data:
        Version: 3 (0x2)
        Serial Number:
            ee:b2:bc:cd:d9:9b:c0:b4:dc:c4:df:55:09:3c:2c:15
        Signature Algorithm: sha256WithRSAEncryption
        Issuer: CN=team56-net
        Validity
            Not Before: May 18 14:23:46 2022 GMT
            Not After : May  2 14:23:46 2025 GMT
        Subject: CN=team56-client
        Subject Public Key Info:
            Public Key Algorithm: rsaEncryption
                RSA Public-Key: (2048 bit)
                Modulus:
                    00:c5:f8:ea:f9:20:9b:68:7b:e1:26:d7:b9:72:ce:
                    e0:5f:87:cc:6b:9d:3d:e6:62:1f:45:24:56:e6:24:
                    0c:9e:c3:90:39:64:52:68:51:de:68:e3:26:8c:f8:
                    c0:f7:3d:97:90:6c:fc:34:fc:43:70:07:8d:e4:d9:
                    95:5b:07:8d:10:89:3a:df:3f:27:21:97:7b:42:39:
                    a3:e5:46:b0:1d:bd:73:22:f1:f9:ce:e7:33:8e:ec:
                    29:3b:89:a8:1e:09:88:5c:90:9f:24:7d:7f:51:02:
                    fb:dc:5f:78:a3:b6:f0:5c:6d:ee:fb:3f:f7:a1:1a:
                    87:b0:36:bc:d0:65:32:9c:6e:93:51:11:bf:54:89:
                    19:ad:18:e0:72:00:77:a2:9e:02:a8:b3:5b:35:c9:
                    8b:35:d2:bf:35:73:43:20:0e:be:ea:a2:9c:9d:f0:
                    ec:ce:13:28:99:8c:21:ff:f0:cf:46:65:12:41:03:
                    fd:c0:31:e4:85:78:f6:fa:64:31:0d:ff:df:21:97:
                    dd:ed:19:42:a5:e0:a4:04:dc:10:98:bb:86:e0:50:
                    d1:bd:85:c3:ae:6a:cb:66:99:4b:f0:ec:69:46:2f:
                    34:74:de:ea:b7:49:7d:49:3d:6e:e4:08:eb:98:26:
                    d6:cd:02:89:29:11:4a:c6:67:a0:32:33:d2:21:42:
                    a6:39
                Exponent: 65537 (0x10001)
        X509v3 extensions:
            X509v3 Basic Constraints: 
                CA:FALSE
            X509v3 Subject Key Identifier: 
                2D:0C:CE:ED:02:69:5E:0E:FB:BE:CF:E2:FC:C2:17:5A:E7:B3:7B:7A
            X509v3 Authority Key Identifier: 
                keyid:BD:2A:B4:25:E5:E3:8E:AB:17:F1:B8:02:61:77:E2:8C:47:C0:54:88
                DirName:/CN=team56-net
                serial:68:9A:8F:24:C1:34:BB:D2:D2:4A:F8:80:A7:19:C2:81:AC:99:E9:56

            X509v3 Extended Key Usage: 
                TLS Web Client Authentication
            X509v3 Key Usage: 
                Digital Signature
    Signature Algorithm: sha256WithRSAEncryption
         0b:35:1e:e0:56:b2:bd:7b:a5:93:65:c8:c5:8a:21:9e:fd:da:
         a4:b8:a8:7b:60:7d:03:ac:87:b2:22:61:c5:c9:16:b8:be:a8:
         82:6f:ca:ec:d8:bd:d6:16:73:47:00:a0:48:4f:49:bc:06:37:
         97:eb:16:50:89:9d:dd:46:aa:62:fe:75:d8:fd:75:6e:d0:93:
         fb:ff:ac:38:50:f1:a4:23:1a:61:99:bf:73:c5:ff:f0:f7:d7:
         78:07:b2:a8:bd:39:9a:d5:c8:54:79:04:f7:62:b7:cc:1a:f9:
         72:69:e7:c9:e8:47:53:8e:bb:1b:9a:ba:8b:85:3b:70:f4:3b:
         14:af:31:72:59:a9:de:e0:1f:df:6f:0c:d8:c1:b1:1b:d5:df:
         86:a0:a9:81:6e:1e:51:1e:2e:78:08:b6:da:68:b8:9c:cb:93:
         bb:7d:5c:85:83:92:90:bf:f4:64:69:4c:8b:f2:a5:db:66:0e:
         49:81:cf:9f:54:81:c2:b5:ce:1a:27:a3:e5:92:79:7c:6b:b8:
         8c:67:38:84:fa:7c:95:d5:5f:62:04:a8:e0:07:e0:c1:7e:97:
         30:4b:44:ab:68:93:a9:eb:25:d1:53:c7:96:50:44:78:7e:8e:
         55:cb:ab:88:99:db:e7:25:c0:c7:71:92:23:cb:a7:e6:cb:56:
         3a:41:97:43
-----BEGIN CERTIFICATE-----
MIIDWjCCAkKgAwIBAgIRAO6yvM3Zm8C03MTfVQk8LBUwDQYJKoZIhvcNAQELBQAw
FTETMBEGA1UEAwwKdGVhbTU2LW5ldDAeFw0yMjA1MTgxNDIzNDZaFw0yNTA1MDIx
NDIzNDZaMBgxFjAUBgNVBAMMDXRlYW01Ni1jbGllbnQwggEiMA0GCSqGSIb3DQEB
AQUAA4IBDwAwggEKAoIBAQDF+Or5IJtoe+Em17lyzuBfh8xrnT3mYh9FJFbmJAye
w5A5ZFJoUd5o4yaM+MD3PZeQbPw0/ENwB43k2ZVbB40QiTrfPychl3tCOaPlRrAd
vXMi8fnO5zOO7Ck7iageCYhckJ8kfX9RAvvcX3ijtvBcbe77P/ehGoewNrzQZTKc
bpNREb9UiRmtGOByAHeingKos1s1yYs10r81c0MgDr7qopyd8OzOEyiZjCH/8M9G
ZRJBA/3AMeSFePb6ZDEN/98hl93tGUKl4KQE3BCYu4bgUNG9hcOuastmmUvw7GlG
LzR03uq3SX1JPW7kCOuYJtbNAokpEUrGZ6AyM9IhQqY5AgMBAAGjgaEwgZ4wCQYD
VR0TBAIwADAdBgNVHQ4EFgQULQzO7QJpXg77vs/i/MIXWueze3owUAYDVR0jBEkw
R4AUvSq0JeXjjqsX8bgCYXfijEfAVIihGaQXMBUxEzARBgNVBAMMCnRlYW01Ni1u
ZXSCFGiajyTBNLvS0kr4gKcZwoGsmelWMBMGA1UdJQQMMAoGCCsGAQUFBwMCMAsG
A1UdDwQEAwIHgDANBgkqhkiG9w0BAQsFAAOCAQEACzUe4FayvXulk2XIxYohnv3a
pLioe2B9A6yHsiJhxckWuL6ogm/K7Ni91hZzRwCgSE9JvAY3l+sWUImd3UaqYv51
2P11btCT+/+sOFDxpCMaYZm/c8X/8PfXeAeyqL05mtXIVHkE92K3zBr5cmnnyehH
U467G5q6i4U7cPQ7FK8xclmp3uAf328M2MGxG9XfhqCpgW4eUR4ueAi22mi4nMuT
u31chYOSkL/0ZGlMi/Kl22YOSYHPn1SBwrXOGiej5ZJ5fGu4jGc4hPp8ldVfYgSo
4AfgwX6XMEtEq2iTqesl0VPHllBEeH6OVcuriJnb5yXAx3GSI8un5stWOkGXQw==
-----END CERTIFICATE-----
