Certificate:
    Data:
        Version: 3 (0x2)
        Serial Number:
            9b:b5:44:bf:9d:6f:65:aa:f2:58:07:52:b7:80:e9:30
        Signature Algorithm: sha256WithRSAEncryption
        Issuer: CN=team540-net
        Validity
            Not Before: May 18 22:08:52 2022 GMT
            Not After : May  2 22:08:52 2025 GMT
        Subject: CN=team540-server
        Subject Public Key Info:
            Public Key Algorithm: rsaEncryption
                RSA Public-Key: (2048 bit)
                Modulus:
                    00:a7:fa:61:00:1e:d0:dc:2c:8d:2c:1b:97:5c:e2:
                    1f:d5:40:68:50:0b:79:df:f3:a1:27:a4:db:c5:e6:
                    d1:bc:6b:17:50:b4:7c:74:9a:67:0b:93:d9:4c:29:
                    7e:1a:cf:10:b8:35:2d:06:ea:0f:8b:1e:8b:9d:b1:
                    86:c3:ed:8d:fa:64:6f:15:88:2d:71:80:aa:dc:7c:
                    32:1a:58:f4:c8:af:f7:c9:83:00:bd:e7:e7:19:af:
                    a3:4c:a9:0c:46:75:5c:10:87:92:96:33:e1:84:e1:
                    32:93:6b:2d:2b:e7:4b:9d:d2:f1:8b:00:ed:8a:96:
                    5e:14:27:f8:7f:ed:91:d6:23:89:eb:e3:2b:95:24:
                    35:69:8c:4e:ca:a1:df:9f:32:99:10:30:2e:3e:ee:
                    cf:01:0c:70:dd:39:37:48:cf:5b:5b:fe:dd:21:93:
                    e9:01:39:7e:ba:e5:95:90:f9:1d:bc:53:68:a2:5a:
                    d2:44:17:ac:2c:53:7f:d4:c4:b6:9f:68:6c:3c:a0:
                    44:c9:c9:9d:d3:7d:84:ca:6b:51:73:1b:b6:62:fd:
                    08:9e:e0:3c:27:fb:97:b9:f4:ef:41:43:e9:25:e0:
                    1a:1d:62:5d:88:08:f0:1b:85:ab:84:74:9f:6d:ba:
                    dc:4e:e5:fe:0f:3b:e4:e7:10:e2:49:6b:6a:5f:99:
                    e2:f9
                Exponent: 65537 (0x10001)
        X509v3 extensions:
            X509v3 Basic Constraints: 
                CA:FALSE
            X509v3 Subject Key Identifier: 
                BF:D4:D8:D2:9C:1D:04:1D:5F:6E:0A:F5:A9:0F:3A:99:19:14:8B:36
            X509v3 Authority Key Identifier: 
                keyid:D7:95:8D:87:66:4A:F1:60:69:D4:E9:6A:2E:1F:00:3D:E3:8C:3A:F2
                DirName:/CN=team540-net
                serial:4E:B3:E7:22:4A:2B:4E:3E:A7:10:0C:7E:7A:29:A1:47:9F:1B:2F:D5

            X509v3 Extended Key Usage: 
                TLS Web Server Authentication
            X509v3 Key Usage: 
                Digital Signature, Key Encipherment
            X509v3 Subject Alternative Name: 
                DNS:team540-server
    Signature Algorithm: sha256WithRSAEncryption
         ba:7a:e0:44:52:d9:cd:d1:a1:95:2c:df:5a:90:16:8e:14:50:
         64:90:a0:e2:2e:4b:9b:ac:89:d5:5a:8f:64:6c:22:38:fa:3b:
         02:7e:bd:2a:2b:49:1e:ca:ea:65:30:f5:80:a0:8a:b6:59:a5:
         4f:c5:9f:ad:ca:76:d1:1d:aa:95:b0:bb:51:8d:d5:c4:2c:6c:
         cd:76:a2:3c:34:0c:9c:5c:52:7c:59:a0:49:00:f4:4a:e9:19:
         6b:fb:88:20:73:fd:68:9b:f8:82:32:f5:dc:ed:37:71:46:b9:
         49:44:01:be:ad:00:65:23:8e:6b:f1:d1:c5:69:36:97:ec:03:
         40:33:d0:70:53:aa:0c:ae:f9:7e:31:c8:cf:3c:a8:29:13:e2:
         7b:28:9c:e1:06:a3:b9:cf:ee:05:85:89:9d:a0:0d:59:65:1c:
         24:40:db:6a:60:03:18:e8:60:8c:4d:50:56:2c:d7:96:20:a7:
         51:a8:c5:79:78:6d:80:90:ce:a9:cc:ee:d5:57:34:ed:3d:4c:
         c5:8e:33:dc:e9:bf:a1:2b:93:20:97:50:ca:85:69:fb:db:f2:
         d5:a6:98:50:1b:9d:f7:57:84:40:0c:0d:38:24:5b:1b:d6:9e:
         44:b1:02:82:65:e1:41:7b:32:40:f8:47:14:90:d9:0f:95:80:
         ac:50:7b:3e
-----BEGIN CERTIFICATE-----
MIIDeDCCAmCgAwIBAgIRAJu1RL+db2Wq8lgHUreA6TAwDQYJKoZIhvcNAQELBQAw
FjEUMBIGA1UEAwwLdGVhbTU0MC1uZXQwHhcNMjIwNTE4MjIwODUyWhcNMjUwNTAy
MjIwODUyWjAZMRcwFQYDVQQDDA50ZWFtNTQwLXNlcnZlcjCCASIwDQYJKoZIhvcN
AQEBBQADggEPADCCAQoCggEBAKf6YQAe0NwsjSwbl1ziH9VAaFALed/zoSek28Xm
0bxrF1C0fHSaZwuT2UwpfhrPELg1LQbqD4sei52xhsPtjfpkbxWILXGAqtx8MhpY
9Miv98mDAL3n5xmvo0ypDEZ1XBCHkpYz4YThMpNrLSvnS53S8YsA7YqWXhQn+H/t
kdYjievjK5UkNWmMTsqh358ymRAwLj7uzwEMcN05N0jPW1v+3SGT6QE5frrllZD5
HbxTaKJa0kQXrCxTf9TEtp9obDygRMnJndN9hMprUXMbtmL9CJ7gPCf7l7n070FD
6SXgGh1iXYgI8BuFq4R0n2263E7l/g875OcQ4klral+Z4vkCAwEAAaOBvTCBujAJ
BgNVHRMEAjAAMB0GA1UdDgQWBBS/1NjSnB0EHV9uCvWpDzqZGRSLNjBRBgNVHSME
SjBIgBTXlY2HZkrxYGnU6WouHwA944w68qEapBgwFjEUMBIGA1UEAwwLdGVhbTU0
MC1uZXSCFE6z5yJKK04+pxAMfnopoUefGy/VMBMGA1UdJQQMMAoGCCsGAQUFBwMB
MAsGA1UdDwQEAwIFoDAZBgNVHREEEjAQgg50ZWFtNTQwLXNlcnZlcjANBgkqhkiG
9w0BAQsFAAOCAQEAunrgRFLZzdGhlSzfWpAWjhRQZJCg4i5Lm6yJ1VqPZGwiOPo7
An69KitJHsrqZTD1gKCKtlmlT8Wfrcp20R2qlbC7UY3VxCxszXaiPDQMnFxSfFmg
SQD0SukZa/uIIHP9aJv4gjL13O03cUa5SUQBvq0AZSOOa/HRxWk2l+wDQDPQcFOq
DK75fjHIzzyoKRPieyic4Qajuc/uBYWJnaANWWUcJEDbamADGOhgjE1QVizXliCn
UajFeXhtgJDOqczu1Vc07T1MxY4z3Om/oSuTIJdQyoVp+9vy1aaYUBud91eEQAwN
OCRbG9aeRLECgmXhQXsyQPhHFJDZD5WArFB7Pg==
-----END CERTIFICATE-----
