Certificate:
    Data:
        Version: 3 (0x2)
        Serial Number:
            c9:21:62:7e:05:0e:0e:d6:e4:4f:88:33:02:57:7d:6c
        Signature Algorithm: sha256WithRSAEncryption
        Issuer: CN=team370-net
        Validity
            Not Before: May 18 20:49:17 2022 GMT
            Not After : May  2 20:49:17 2025 GMT
        Subject: CN=team370-client
        Subject Public Key Info:
            Public Key Algorithm: rsaEncryption
                RSA Public-Key: (2048 bit)
                Modulus:
                    00:e6:dd:24:d3:1f:20:28:d5:e1:62:df:0c:68:a2:
                    83:b3:c8:f9:33:06:0e:00:3c:9b:9c:71:60:5f:9a:
                    3a:3c:15:d4:50:2c:88:ea:f1:7c:b4:f2:35:3b:bc:
                    90:a1:76:d1:70:29:c1:92:9f:d7:8d:cb:6a:13:94:
                    8d:58:8f:00:99:3c:e3:47:e5:cf:f4:d9:ca:44:0b:
                    75:65:f0:05:50:02:22:2a:5d:0b:5b:e6:e3:e1:5b:
                    c5:c0:21:d9:c7:c1:76:ba:3e:ec:2e:15:26:af:77:
                    4e:26:ae:0f:03:a0:25:2b:9f:4a:2b:40:05:09:8b:
                    30:39:af:b0:90:be:88:21:d3:6d:ef:fc:ce:39:ed:
                    09:6b:9f:b6:a7:34:5a:41:ce:2b:27:01:bc:9f:7e:
                    18:4c:c7:56:9d:82:e7:a7:d3:1b:43:ce:5a:41:bd:
                    7f:e9:c9:d7:70:18:4a:2c:34:57:7f:0b:a6:66:df:
                    92:4e:c2:4c:56:da:ee:04:62:7d:86:ce:50:f9:5d:
                    15:a4:25:45:6c:2c:d6:65:08:0e:ac:0a:47:c0:42:
                    17:bc:08:a4:ca:4b:0c:cd:02:84:c3:dc:d8:1c:4d:
                    43:5b:e4:fa:b4:d9:87:0d:2d:9c:b5:11:81:1b:01:
                    1e:c2:8f:2c:af:c5:97:26:e5:41:d5:15:aa:20:0d:
                    a9:19
                Exponent: 65537 (0x10001)
        X509v3 extensions:
            X509v3 Basic Constraints: 
                CA:FALSE
            X509v3 Subject Key Identifier: 
                D7:79:E9:5F:C4:37:41:C4:B2:B9:95:98:2B:6A:97:CD:22:51:12:82
            X509v3 Authority Key Identifier: 
                keyid:70:65:07:B3:65:0A:3C:DB:D6:46:F0:FC:CD:B8:74:73:69:C5:81:7B
                DirName:/CN=team370-net
                serial:4E:FD:87:6A:00:6D:D3:77:DB:CB:16:16:AE:49:57:0D:C2:D8:0E:55

            X509v3 Extended Key Usage: 
                TLS Web Client Authentication
            X509v3 Key Usage: 
                Digital Signature
    Signature Algorithm: sha256WithRSAEncryption
         9c:18:c0:8e:7d:98:57:bf:b4:b3:1c:95:4a:1c:c1:5d:d7:ae:
         d0:cf:64:fd:f4:43:68:18:11:9a:13:12:b1:f5:6c:98:f3:25:
         b8:76:85:81:77:18:58:be:55:8d:1f:57:93:38:70:54:d3:1c:
         2f:4c:9e:c2:7b:4c:bc:97:40:32:f2:c9:b8:5f:d3:69:ae:fd:
         8a:f4:22:fe:a3:71:72:ef:c3:e0:c8:fe:8b:f1:fc:72:55:1c:
         92:70:c4:4c:bf:9b:b4:5d:32:60:c9:9b:4e:2b:7e:98:43:aa:
         e2:e6:eb:c9:06:6c:1c:2d:f3:2e:f5:76:d0:10:09:d3:4a:4c:
         34:90:0e:e3:ed:ab:b5:03:d3:4c:40:af:54:2f:87:82:e2:e6:
         66:20:76:73:99:5a:35:36:e7:62:6f:45:19:29:fd:2b:c3:18:
         39:71:63:40:97:66:bb:18:70:c1:ca:09:b4:2f:30:12:c3:0b:
         cb:6c:e4:5d:03:12:ac:b6:39:3c:48:a9:8b:9b:3a:60:ad:78:
         61:91:0c:fd:95:df:e0:c5:5b:2a:64:f3:8b:aa:71:e4:ff:e0:
         2c:65:d9:71:30:bd:ef:da:a0:88:8e:7d:df:0e:f2:27:7d:ba:
         38:65:4e:75:ec:0d:32:83:a5:a9:7e:8c:0b:ec:e0:ea:fd:6f:
         90:68:4d:a2
-----BEGIN CERTIFICATE-----
MIIDXTCCAkWgAwIBAgIRAMkhYn4FDg7W5E+IMwJXfWwwDQYJKoZIhvcNAQELBQAw
FjEUMBIGA1UEAwwLdGVhbTM3MC1uZXQwHhcNMjIwNTE4MjA0OTE3WhcNMjUwNTAy
MjA0OTE3WjAZMRcwFQYDVQQDDA50ZWFtMzcwLWNsaWVudDCCASIwDQYJKoZIhvcN
AQEBBQADggEPADCCAQoCggEBAObdJNMfICjV4WLfDGiig7PI+TMGDgA8m5xxYF+a
OjwV1FAsiOrxfLTyNTu8kKF20XApwZKf143LahOUjViPAJk840flz/TZykQLdWXw
BVACIipdC1vm4+FbxcAh2cfBdro+7C4VJq93TiauDwOgJSufSitABQmLMDmvsJC+
iCHTbe/8zjntCWuftqc0WkHOKycBvJ9+GEzHVp2C56fTG0POWkG9f+nJ13AYSiw0
V38Lpmbfkk7CTFba7gRifYbOUPldFaQlRWws1mUIDqwKR8BCF7wIpMpLDM0ChMPc
2BxNQ1vk+rTZhw0tnLURgRsBHsKPLK/FlyblQdUVqiANqRkCAwEAAaOBojCBnzAJ
BgNVHRMEAjAAMB0GA1UdDgQWBBTXeelfxDdBxLK5lZgrapfNIlESgjBRBgNVHSME
SjBIgBRwZQezZQo829ZG8PzNuHRzacWBe6EapBgwFjEUMBIGA1UEAwwLdGVhbTM3
MC1uZXSCFE79h2oAbdN328sWFq5JVw3C2A5VMBMGA1UdJQQMMAoGCCsGAQUFBwMC
MAsGA1UdDwQEAwIHgDANBgkqhkiG9w0BAQsFAAOCAQEAnBjAjn2YV7+0sxyVShzB
Xdeu0M9k/fRDaBgRmhMSsfVsmPMluHaFgXcYWL5VjR9XkzhwVNMcL0yewntMvJdA
MvLJuF/Taa79ivQi/qNxcu/D4Mj+i/H8clUcknDETL+btF0yYMmbTit+mEOq4ubr
yQZsHC3zLvV20BAJ00pMNJAO4+2rtQPTTECvVC+HguLmZiB2c5laNTbnYm9FGSn9
K8MYOXFjQJdmuxhwwcoJtC8wEsMLy2zkXQMSrLY5PEipi5s6YK14YZEM/ZXf4MVb
KmTzi6px5P/gLGXZcTC979qgiI593w7yJ326OGVOdewNMoOlqX6MC+zg6v1vkGhN
og==
-----END CERTIFICATE-----
