Certificate:
    Data:
        Version: 3 (0x2)
        Serial Number:
            89:47:04:55:fe:c0:60:fe:f0:c1:98:4c:56:d5:76:1e
        Signature Algorithm: sha256WithRSAEncryption
        Issuer: CN=team29-net
        Validity
            Not Before: May 18 14:11:44 2022 GMT
            Not After : May  2 14:11:44 2025 GMT
        Subject: CN=team29-client
        Subject Public Key Info:
            Public Key Algorithm: rsaEncryption
                RSA Public-Key: (2048 bit)
                Modulus:
                    00:bc:c0:44:dd:97:b0:7c:e3:90:87:f4:fe:7f:e4:
                    cf:9f:16:70:1d:8f:56:e6:70:92:6c:96:12:7c:33:
                    f3:53:2f:88:74:da:c9:d7:65:62:d0:84:11:8f:b5:
                    e9:0a:75:16:a3:73:d8:26:70:81:f9:5a:d7:c6:b0:
                    75:94:2b:b8:43:d6:63:b1:87:b1:83:53:ec:e6:fa:
                    08:ff:b8:01:5e:1d:df:e1:50:87:21:40:50:68:3c:
                    c2:2c:f0:60:78:07:18:16:ef:19:1e:54:05:df:59:
                    e3:c6:14:54:bb:3b:10:c0:59:08:fb:9f:bb:ab:5a:
                    50:54:96:3e:24:73:b1:b6:7e:62:cb:e7:d3:16:73:
                    c7:5b:7d:c9:9c:6e:af:14:df:f0:ab:ae:68:95:4a:
                    2c:9a:8a:5d:40:cd:fd:88:c2:54:69:16:82:8d:3d:
                    4e:14:98:1b:d4:31:bf:ca:e3:ea:a9:8b:84:60:5c:
                    9a:a6:c9:07:09:a0:ec:16:eb:29:56:21:0f:f3:e4:
                    c3:aa:26:57:37:f8:b9:14:60:ea:f8:a5:5c:35:5d:
                    48:e9:8f:ff:db:be:a7:26:65:cd:62:0c:be:8a:67:
                    fb:0c:ff:18:45:74:2d:6e:da:13:0f:18:51:97:ea:
                    49:8b:7f:8e:60:dc:b1:8b:20:04:01:bd:3e:ab:cd:
                    f1:77
                Exponent: 65537 (0x10001)
        X509v3 extensions:
            X509v3 Basic Constraints: 
                CA:FALSE
            X509v3 Subject Key Identifier: 
                CD:51:8E:C5:88:FC:FD:8A:34:B7:9E:85:05:80:B7:05:A8:5A:64:6E
            X509v3 Authority Key Identifier: 
                keyid:28:0A:9F:31:B7:DC:97:0C:7A:0A:1C:08:55:BE:CE:82:86:84:F9:41
                DirName:/CN=team29-net
                serial:1D:10:04:7F:6B:AF:A0:B7:BC:13:54:84:9D:40:06:90:58:42:B1:51

            X509v3 Extended Key Usage: 
                TLS Web Client Authentication
            X509v3 Key Usage: 
                Digital Signature
    Signature Algorithm: sha256WithRSAEncryption
         8a:86:13:f4:31:e5:82:eb:6e:af:6c:c9:20:01:0a:3e:43:58:
         7f:45:a1:0c:1c:f1:db:b2:dd:a1:ec:8b:d3:92:e7:0e:69:a5:
         13:36:84:7d:19:22:df:88:8d:73:56:cc:2f:4e:5b:ff:ed:21:
         e2:c8:9f:11:4a:7c:eb:da:c5:a2:fa:08:9e:36:4d:6d:fe:53:
         91:a9:fc:57:ee:0e:b4:a0:b7:ff:3c:72:fb:8d:03:0f:50:0e:
         19:84:7e:47:5c:d1:ca:20:9a:7e:20:d3:02:16:f3:f2:26:74:
         0c:34:92:23:af:27:64:d0:0e:bc:68:e4:7c:4d:4e:9f:14:54:
         01:40:6f:98:4e:db:45:e5:a8:10:5a:40:fb:47:a3:1e:ec:09:
         c7:ba:8b:0e:cf:9b:99:a2:c7:b2:26:17:ef:87:75:40:67:fd:
         18:ff:ab:d0:ed:8c:21:2b:46:c0:88:2f:cd:32:c4:19:3c:2a:
         b8:4a:66:c7:d3:b3:5a:31:b7:9a:1a:13:9c:24:aa:eb:8c:86:
         3e:59:ce:41:1c:e8:4a:6b:6b:0c:2d:72:5b:15:69:48:9a:63:
         17:43:07:91:85:22:81:93:18:38:21:b4:e5:97:96:42:22:09:
         18:4c:15:9c:46:fa:1d:9c:e9:6a:7e:63:28:0e:a6:96:bc:96:
         60:61:18:ad
-----BEGIN CERTIFICATE-----
MIIDWjCCAkKgAwIBAgIRAIlHBFX+wGD+8MGYTFbVdh4wDQYJKoZIhvcNAQELBQAw
FTETMBEGA1UEAwwKdGVhbTI5LW5ldDAeFw0yMjA1MTgxNDExNDRaFw0yNTA1MDIx
NDExNDRaMBgxFjAUBgNVBAMMDXRlYW0yOS1jbGllbnQwggEiMA0GCSqGSIb3DQEB
AQUAA4IBDwAwggEKAoIBAQC8wETdl7B845CH9P5/5M+fFnAdj1bmcJJslhJ8M/NT
L4h02snXZWLQhBGPtekKdRajc9gmcIH5WtfGsHWUK7hD1mOxh7GDU+zm+gj/uAFe
Hd/hUIchQFBoPMIs8GB4BxgW7xkeVAXfWePGFFS7OxDAWQj7n7urWlBUlj4kc7G2
fmLL59MWc8dbfcmcbq8U3/CrrmiVSiyail1Azf2IwlRpFoKNPU4UmBvUMb/K4+qp
i4RgXJqmyQcJoOwW6ylWIQ/z5MOqJlc3+LkUYOr4pVw1XUjpj//bvqcmZc1iDL6K
Z/sM/xhFdC1u2hMPGFGX6kmLf45g3LGLIAQBvT6rzfF3AgMBAAGjgaEwgZ4wCQYD
VR0TBAIwADAdBgNVHQ4EFgQUzVGOxYj8/Yo0t56FBYC3BahaZG4wUAYDVR0jBEkw
R4AUKAqfMbfclwx6ChwIVb7OgoaE+UGhGaQXMBUxEzARBgNVBAMMCnRlYW0yOS1u
ZXSCFB0QBH9rr6C3vBNUhJ1ABpBYQrFRMBMGA1UdJQQMMAoGCCsGAQUFBwMCMAsG
A1UdDwQEAwIHgDANBgkqhkiG9w0BAQsFAAOCAQEAioYT9DHlgutur2zJIAEKPkNY
f0WhDBzx27LdoeyL05LnDmmlEzaEfRki34iNc1bML05b/+0h4sifEUp869rFovoI
njZNbf5Tkan8V+4OtKC3/zxy+40DD1AOGYR+R1zRyiCafiDTAhbz8iZ0DDSSI68n
ZNAOvGjkfE1OnxRUAUBvmE7bReWoEFpA+0ejHuwJx7qLDs+bmaLHsiYX74d1QGf9
GP+r0O2MIStGwIgvzTLEGTwquEpmx9OzWjG3mhoTnCSq64yGPlnOQRzoSmtrDC1y
WxVpSJpjF0MHkYUigZMYOCG05ZeWQiIJGEwVnEb6HZzpan5jKA6mlryWYGEYrQ==
-----END CERTIFICATE-----
