Certificate:
    Data:
        Version: 3 (0x2)
        Serial Number:
            35:7b:fd:68:32:24:d4:da:1a:c6:43:06:65:c6:f8:ad
        Signature Algorithm: sha256WithRSAEncryption
        Issuer: CN=team81-net
        Validity
            Not Before: May 18 14:37:47 2022 GMT
            Not After : May  2 14:37:47 2025 GMT
        Subject: CN=team81-server
        Subject Public Key Info:
            Public Key Algorithm: rsaEncryption
                RSA Public-Key: (2048 bit)
                Modulus:
                    00:c4:74:f5:93:33:4c:99:57:4a:17:77:96:c0:15:
                    01:b6:72:34:38:f3:cb:79:ab:e0:08:14:f5:e7:03:
                    71:12:6a:74:da:55:48:4a:32:5a:82:6f:8c:ea:b0:
                    b4:05:8f:44:22:95:5e:dd:9b:f2:ba:00:fc:e3:f1:
                    bb:7a:5c:c7:55:4a:6b:2e:51:19:44:b0:7c:35:9b:
                    f5:c0:c6:29:fc:52:6a:25:0d:ae:48:94:02:14:6d:
                    8d:b9:b2:2d:ba:f5:63:2a:48:81:e8:b3:49:eb:fc:
                    0e:c2:ca:d1:3f:a1:51:6e:4d:99:b3:c0:3e:cd:5e:
                    2a:da:57:24:07:30:d4:28:24:e5:57:f6:7e:82:21:
                    c4:c9:bf:46:94:fa:1e:e8:38:f1:f8:cc:ce:b9:13:
                    a5:e2:30:ef:65:31:7f:ca:af:08:7a:ba:2e:c7:18:
                    86:17:40:31:89:04:96:6b:24:7a:1f:49:bd:46:85:
                    71:31:44:f0:fb:c5:85:75:fe:02:fb:9a:ff:87:60:
                    0d:60:ed:a0:9c:a2:05:00:63:c8:af:da:de:47:27:
                    75:75:d6:68:8a:fb:5a:05:d0:8d:8c:fa:d9:8d:02:
                    16:32:68:73:57:4d:d9:17:41:f4:6c:72:02:bf:a7:
                    27:8e:cc:ce:ad:aa:a1:6a:72:62:20:62:20:03:ea:
                    80:d5
                Exponent: 65537 (0x10001)
        X509v3 extensions:
            X509v3 Basic Constraints: 
                CA:FALSE
            X509v3 Subject Key Identifier: 
                A2:C7:7E:06:65:DC:3F:69:18:9C:5C:AD:B3:70:84:98:44:E4:59:0C
            X509v3 Authority Key Identifier: 
                keyid:CF:A4:4B:10:ED:98:BE:F2:E3:76:1C:71:E5:FC:03:28:F6:FE:87:BC
                DirName:/CN=team81-net
                serial:31:F6:78:EC:1C:51:72:A6:C3:09:58:8F:08:BA:6E:F9:F5:FE:11:5C

            X509v3 Extended Key Usage: 
                TLS Web Server Authentication
            X509v3 Key Usage: 
                Digital Signature, Key Encipherment
            X509v3 Subject Alternative Name: 
                DNS:team81-server
    Signature Algorithm: sha256WithRSAEncryption
         06:4d:c2:c0:ac:7d:cb:10:0b:07:4f:9c:ab:8e:f7:4d:0a:10:
         7e:61:0c:03:d5:67:f1:dd:19:6f:74:ca:8b:b5:b0:20:50:e7:
         bb:d5:f6:cd:9d:7a:87:cc:fd:96:3d:38:da:9a:9a:78:ab:f7:
         c9:f2:fc:63:95:8e:34:fb:89:54:ee:15:89:9b:cf:0b:d7:12:
         98:d3:21:fa:a5:e7:95:14:c4:68:d5:54:17:da:da:32:52:ab:
         be:1f:bc:86:40:c2:f6:be:c5:59:f5:08:23:3d:3d:89:7a:f6:
         bb:82:eb:83:59:e9:f5:08:18:a0:c1:e2:51:34:29:47:75:db:
         72:5f:ad:86:89:6f:e2:f2:0c:1b:92:fc:8e:af:97:d7:87:32:
         87:11:6c:7d:ad:3b:11:68:56:26:43:f6:19:7c:3b:04:d7:ff:
         cf:f3:9c:40:69:73:b0:98:75:58:26:f9:7f:28:34:34:ef:82:
         ce:a1:f3:4a:0d:ea:73:45:79:9b:a1:94:a0:7d:6f:1c:f8:e6:
         c4:2d:79:ef:d5:f3:b3:bd:a4:0f:56:d9:8d:4a:d5:b0:ae:b8:
         c6:2b:24:9c:a4:8f:c7:99:5a:85:a9:03:a8:47:77:e5:f2:85:
         76:8c:f2:96:68:ea:ca:f1:3b:a8:a4:19:5d:38:38:7c:53:2b:
         57:08:c9:be
-----BEGIN CERTIFICATE-----
MIIDczCCAlugAwIBAgIQNXv9aDIk1NoaxkMGZcb4rTANBgkqhkiG9w0BAQsFADAV
MRMwEQYDVQQDDAp0ZWFtODEtbmV0MB4XDTIyMDUxODE0Mzc0N1oXDTI1MDUwMjE0
Mzc0N1owGDEWMBQGA1UEAwwNdGVhbTgxLXNlcnZlcjCCASIwDQYJKoZIhvcNAQEB
BQADggEPADCCAQoCggEBAMR09ZMzTJlXShd3lsAVAbZyNDjzy3mr4AgU9ecDcRJq
dNpVSEoyWoJvjOqwtAWPRCKVXt2b8roA/OPxu3pcx1VKay5RGUSwfDWb9cDGKfxS
aiUNrkiUAhRtjbmyLbr1YypIgeizSev8DsLK0T+hUW5NmbPAPs1eKtpXJAcw1Cgk
5Vf2foIhxMm/RpT6Hug48fjMzrkTpeIw72Uxf8qvCHq6LscYhhdAMYkElmskeh9J
vUaFcTFE8PvFhXX+Avua/4dgDWDtoJyiBQBjyK/a3kcndXXWaIr7WgXQjYz62Y0C
FjJoc1dN2RdB9GxyAr+nJ47Mzq2qoWpyYiBiIAPqgNUCAwEAAaOBuzCBuDAJBgNV
HRMEAjAAMB0GA1UdDgQWBBSix34GZdw/aRicXK2zcISYRORZDDBQBgNVHSMESTBH
gBTPpEsQ7Zi+8uN2HHHl/AMo9v6HvKEZpBcwFTETMBEGA1UEAwwKdGVhbTgxLW5l
dIIUMfZ47BxRcqbDCViPCLpu+fX+EVwwEwYDVR0lBAwwCgYIKwYBBQUHAwEwCwYD
VR0PBAQDAgWgMBgGA1UdEQQRMA+CDXRlYW04MS1zZXJ2ZXIwDQYJKoZIhvcNAQEL
BQADggEBAAZNwsCsfcsQCwdPnKuO900KEH5hDAPVZ/HdGW90you1sCBQ57vV9s2d
eofM/ZY9ONqamnir98ny/GOVjjT7iVTuFYmbzwvXEpjTIfql55UUxGjVVBfa2jJS
q74fvIZAwva+xVn1CCM9PYl69ruC64NZ6fUIGKDB4lE0KUd123JfrYaJb+LyDBuS
/I6vl9eHMocRbH2tOxFoViZD9hl8OwTX/8/znEBpc7CYdVgm+X8oNDTvgs6h80oN
6nNFeZuhlKB9bxz45sQtee/V87O9pA9W2Y1K1bCuuMYrJJykj8eZWoWpA6hHd+Xy
hXaM8pZo6srxO6ikGV04OHxTK1cIyb4=
-----END CERTIFICATE-----
