Certificate:
    Data:
        Version: 3 (0x2)
        Serial Number:
            91:50:f8:7d:28:df:86:1d:59:cd:d8:06:8c:00:ab:c2
        Signature Algorithm: sha256WithRSAEncryption
        Issuer: CN=team490-net
        Validity
            Not Before: May 18 21:37:46 2022 GMT
            Not After : May  2 21:37:46 2025 GMT
        Subject: CN=team490-client
        Subject Public Key Info:
            Public Key Algorithm: rsaEncryption
                RSA Public-Key: (2048 bit)
                Modulus:
                    00:f9:ce:90:e7:c3:55:0d:17:d2:03:a4:80:de:6e:
                    d7:4d:00:e2:8a:5c:fd:83:dd:b0:f1:7d:92:8b:47:
                    1a:47:83:3a:6a:b5:c6:dc:6b:82:aa:ee:c3:07:e9:
                    8e:4e:22:c2:af:bb:96:67:db:1e:28:8c:61:82:ae:
                    8c:f7:68:af:26:9f:22:67:3f:e8:ba:2a:d4:96:e1:
                    5d:40:e3:5d:68:67:cf:9c:29:35:e0:eb:6d:02:ad:
                    bc:b1:e2:d2:e1:99:d0:4c:c8:db:eb:4e:71:db:ed:
                    50:16:d1:11:24:a4:9c:57:0e:a3:0d:45:a0:8d:be:
                    1b:b6:9a:09:4b:32:ff:9b:4f:be:94:0e:f6:35:4e:
                    11:a3:d5:0d:7d:df:94:ab:c8:af:84:a0:0a:0e:02:
                    35:89:86:e0:55:8f:6d:c5:2d:05:6e:27:2f:43:73:
                    c5:f3:1e:a4:c4:03:c6:4c:08:b1:ff:c5:fb:50:fe:
                    2b:aa:9b:90:54:f0:d2:fa:ed:f0:22:5e:10:a5:78:
                    ea:11:5f:5b:83:e4:9f:2f:98:7d:26:4d:7b:4b:c8:
                    ff:fd:70:f1:fa:2c:3e:35:e9:87:8c:ff:e6:a0:e1:
                    4a:df:6a:80:e3:d2:ce:3f:73:7f:0e:91:dc:d1:44:
                    24:42:48:a4:f4:ec:20:ce:e5:00:9b:c4:75:0a:09:
                    c4:e5
                Exponent: 65537 (0x10001)
        X509v3 extensions:
            X509v3 Basic Constraints: 
                CA:FALSE
            X509v3 Subject Key Identifier: 
                3E:A2:CE:EF:0B:69:CC:AF:12:5B:EF:FC:E7:CF:CA:34:89:05:67:FA
            X509v3 Authority Key Identifier: 
                keyid:AF:44:20:DD:7B:96:44:01:39:E9:80:76:AA:02:F0:A3:24:2A:72:A2
                DirName:/CN=team490-net
                serial:75:46:3C:90:E1:9F:2C:65:95:A4:6E:2E:63:B8:9F:65:B2:EF:06:E1

            X509v3 Extended Key Usage: 
                TLS Web Client Authentication
            X509v3 Key Usage: 
                Digital Signature
    Signature Algorithm: sha256WithRSAEncryption
         28:0a:76:0f:86:12:aa:4d:0b:04:a2:ed:f1:3f:ec:eb:74:4a:
         ba:88:73:5e:12:aa:3b:78:2e:ad:30:d4:09:22:94:4b:e4:0f:
         03:f9:69:52:29:2a:f9:9a:c0:92:a8:b3:5a:8a:5b:4b:48:15:
         b5:e0:cd:32:cb:a0:7f:fc:16:01:92:75:3a:26:d9:37:69:a6:
         ff:80:e7:e1:aa:b2:d2:6e:9e:2b:8c:c2:6c:6a:fe:01:65:52:
         11:d6:c2:85:e4:27:29:0e:10:1f:5f:fc:af:0f:be:85:51:d9:
         8e:fe:b6:78:53:ce:1e:b1:92:5f:db:09:07:ed:24:ae:73:83:
         96:b4:00:9a:bb:2c:9b:ed:a4:5c:b0:19:21:42:7f:7d:36:03:
         84:64:24:91:cb:bf:f5:b8:43:87:7e:65:58:33:82:bd:ab:8f:
         5e:1e:da:37:93:3e:8e:c6:a2:37:be:fc:54:20:df:61:63:40:
         1f:2d:03:ec:8b:4d:1b:35:05:b7:83:29:e9:f4:de:40:d8:6c:
         fe:12:5c:ba:13:ff:99:73:82:45:45:f9:ba:42:25:1c:5e:a3:
         73:a6:f5:c8:c2:16:86:85:fd:3f:2e:3f:12:13:64:7d:42:df:
         d9:42:33:87:3f:f5:e7:9c:e2:c3:c5:35:50:4b:d6:35:6f:ad:
         f3:34:cb:9f
-----BEGIN CERTIFICATE-----
MIIDXTCCAkWgAwIBAgIRAJFQ+H0o34YdWc3YBowAq8IwDQYJKoZIhvcNAQELBQAw
FjEUMBIGA1UEAwwLdGVhbTQ5MC1uZXQwHhcNMjIwNTE4MjEzNzQ2WhcNMjUwNTAy
MjEzNzQ2WjAZMRcwFQYDVQQDDA50ZWFtNDkwLWNsaWVudDCCASIwDQYJKoZIhvcN
AQEBBQADggEPADCCAQoCggEBAPnOkOfDVQ0X0gOkgN5u100A4opc/YPdsPF9kotH
GkeDOmq1xtxrgqruwwfpjk4iwq+7lmfbHiiMYYKujPdoryafImc/6Loq1JbhXUDj
XWhnz5wpNeDrbQKtvLHi0uGZ0EzI2+tOcdvtUBbRESSknFcOow1FoI2+G7aaCUsy
/5tPvpQO9jVOEaPVDX3flKvIr4SgCg4CNYmG4FWPbcUtBW4nL0NzxfMepMQDxkwI
sf/F+1D+K6qbkFTw0vrt8CJeEKV46hFfW4Pkny+YfSZNe0vI//1w8fosPjXph4z/
5qDhSt9qgOPSzj9zfw6R3NFEJEJIpPTsIM7lAJvEdQoJxOUCAwEAAaOBojCBnzAJ
BgNVHRMEAjAAMB0GA1UdDgQWBBQ+os7vC2nMrxJb7/znz8o0iQVn+jBRBgNVHSME
SjBIgBSvRCDde5ZEATnpgHaqAvCjJCpyoqEapBgwFjEUMBIGA1UEAwwLdGVhbTQ5
MC1uZXSCFHVGPJDhnyxllaRuLmO4n2Wy7wbhMBMGA1UdJQQMMAoGCCsGAQUFBwMC
MAsGA1UdDwQEAwIHgDANBgkqhkiG9w0BAQsFAAOCAQEAKAp2D4YSqk0LBKLt8T/s
63RKuohzXhKqO3gurTDUCSKUS+QPA/lpUikq+ZrAkqizWopbS0gVteDNMsugf/wW
AZJ1OibZN2mm/4Dn4aqy0m6eK4zCbGr+AWVSEdbCheQnKQ4QH1/8rw++hVHZjv62
eFPOHrGSX9sJB+0krnODlrQAmrssm+2kXLAZIUJ/fTYDhGQkkcu/9bhDh35lWDOC
vauPXh7aN5M+jsaiN778VCDfYWNAHy0D7ItNGzUFt4Mp6fTeQNhs/hJcuhP/mXOC
RUX5ukIlHF6jc6b1yMIWhoX9Py4/EhNkfULf2UIzhz/155ziw8U1UEvWNW+t8zTL
nw==
-----END CERTIFICATE-----
