Certificate:
    Data:
        Version: 3 (0x2)
        Serial Number:
            16:4c:07:e3:e6:79:1f:d1:b1:09:b3:c0:57:77:53:cd
        Signature Algorithm: sha256WithRSAEncryption
        Issuer: CN=team646-net
        Validity
            Not Before: May 18 23:17:53 2022 GMT
            Not After : May  2 23:17:53 2025 GMT
        Subject: CN=team646-server
        Subject Public Key Info:
            Public Key Algorithm: rsaEncryption
                RSA Public-Key: (2048 bit)
                Modulus:
                    00:e6:6e:4b:bc:a3:c6:c8:12:40:ba:2b:de:69:10:
                    ba:63:64:0e:5d:1f:97:7b:cc:0f:6b:86:98:15:6b:
                    a9:34:2f:53:61:96:76:33:17:de:9f:21:3c:56:43:
                    fc:12:2d:ed:c0:b5:21:be:24:17:84:9b:48:e1:00:
                    da:3f:07:41:7a:37:ce:57:db:8f:8c:04:98:39:d6:
                    3b:cd:d0:c6:03:62:73:b9:8b:31:b0:9e:4f:37:3c:
                    b6:d5:f5:05:06:65:d8:51:3a:31:79:45:3c:34:34:
                    5a:ca:b7:cf:df:ac:34:ba:f5:ff:f4:e5:e3:0e:9d:
                    da:62:f5:c7:4a:90:33:15:d9:bc:1d:7a:fd:fd:88:
                    d8:e5:f9:2b:d7:3e:ef:06:5b:6c:cc:e6:7b:85:1a:
                    ad:d4:91:c4:a1:b0:c7:0c:d6:e1:c9:cc:ee:3e:68:
                    39:fa:46:88:10:1c:cb:b6:6b:65:bc:4e:46:f8:96:
                    5c:94:04:a8:81:cb:8e:29:0c:dd:32:97:cf:f3:1e:
                    11:b0:6a:29:5b:ef:e9:d3:98:15:a9:6c:45:a2:54:
                    f5:42:27:ab:e6:53:35:b5:c9:7e:31:97:ce:96:1a:
                    01:5e:83:13:2b:78:5d:25:ad:ba:67:25:a6:b7:83:
                    52:67:21:84:b5:fa:83:84:68:81:4c:ff:b0:ee:35:
                    fe:9b
                Exponent: 65537 (0x10001)
        X509v3 extensions:
            X509v3 Basic Constraints: 
                CA:FALSE
            X509v3 Subject Key Identifier: 
                0E:37:05:76:AB:AE:2B:F2:9E:26:D3:78:FC:78:EF:C4:67:E5:27:55
            X509v3 Authority Key Identifier: 
                keyid:51:FE:FC:CF:74:B3:71:35:66:66:36:05:61:E5:05:3A:25:31:40:9F
                DirName:/CN=team646-net
                serial:30:2B:B1:3F:62:EA:B6:F3:43:55:E2:E0:B9:49:3A:2F:DD:B3:58:6F

            X509v3 Extended Key Usage: 
                TLS Web Server Authentication
            X509v3 Key Usage: 
                Digital Signature, Key Encipherment
            X509v3 Subject Alternative Name: 
                DNS:team646-server
    Signature Algorithm: sha256WithRSAEncryption
         86:54:5f:98:c0:31:83:64:e8:14:e4:50:ae:6b:e7:c4:a7:2b:
         c8:86:8b:53:a6:a2:80:5b:fa:6c:ad:06:d7:eb:84:bf:29:c2:
         3e:f5:be:27:cf:c7:1c:f1:60:38:59:b9:5b:21:e4:7c:2e:31:
         01:d6:64:31:ba:fc:98:e5:21:56:cf:10:d1:ae:16:ef:1d:86:
         aa:4b:52:ff:c4:86:24:62:2a:a8:fa:4a:fe:ce:59:36:9d:05:
         6f:15:f6:96:7c:8f:b3:d8:5f:9f:a7:02:13:5d:df:3e:56:36:
         2c:6d:c1:2b:3e:e6:ef:7a:fc:37:34:b2:75:5d:f4:81:7c:79:
         f1:f5:af:b2:c6:57:02:22:17:55:97:ca:48:c3:12:ae:d3:94:
         de:60:ba:21:a0:7e:bf:97:d9:65:26:c6:f8:df:a7:1d:8a:4f:
         b9:de:d3:a6:38:f3:60:0a:0a:80:8c:69:c8:58:47:2f:37:7d:
         f8:05:17:d8:8c:fa:7c:e7:03:fc:ff:c7:26:b0:7f:46:f0:79:
         fa:0f:a1:e2:83:ab:6e:60:b8:21:17:b3:5e:e6:6c:f1:79:df:
         3e:59:8b:a1:ed:dc:51:3a:93:75:af:36:00:d0:d1:43:9b:db:
         85:e1:6c:1d:45:ec:a7:1e:02:5d:47:c0:9d:23:ad:da:bb:6f:
         8d:4b:64:f1
-----BEGIN CERTIFICATE-----
MIIDdzCCAl+gAwIBAgIQFkwH4+Z5H9GxCbPAV3dTzTANBgkqhkiG9w0BAQsFADAW
MRQwEgYDVQQDDAt0ZWFtNjQ2LW5ldDAeFw0yMjA1MTgyMzE3NTNaFw0yNTA1MDIy
MzE3NTNaMBkxFzAVBgNVBAMMDnRlYW02NDYtc2VydmVyMIIBIjANBgkqhkiG9w0B
AQEFAAOCAQ8AMIIBCgKCAQEA5m5LvKPGyBJAuiveaRC6Y2QOXR+Xe8wPa4aYFWup
NC9TYZZ2MxfenyE8VkP8Ei3twLUhviQXhJtI4QDaPwdBejfOV9uPjASYOdY7zdDG
A2JzuYsxsJ5PNzy21fUFBmXYUToxeUU8NDRayrfP36w0uvX/9OXjDp3aYvXHSpAz
Fdm8HXr9/YjY5fkr1z7vBltszOZ7hRqt1JHEobDHDNbhyczuPmg5+kaIEBzLtmtl
vE5G+JZclASogcuOKQzdMpfP8x4RsGopW+/p05gVqWxFolT1Qier5lM1tcl+MZfO
lhoBXoMTK3hdJa26ZyWmt4NSZyGEtfqDhGiBTP+w7jX+mwIDAQABo4G9MIG6MAkG
A1UdEwQCMAAwHQYDVR0OBBYEFA43BXarrivynibTePx478Rn5SdVMFEGA1UdIwRK
MEiAFFH+/M90s3E1ZmY2BWHlBTolMUCfoRqkGDAWMRQwEgYDVQQDDAt0ZWFtNjQ2
LW5ldIIUMCuxP2LqtvNDVeLguUk6L92zWG8wEwYDVR0lBAwwCgYIKwYBBQUHAwEw
CwYDVR0PBAQDAgWgMBkGA1UdEQQSMBCCDnRlYW02NDYtc2VydmVyMA0GCSqGSIb3
DQEBCwUAA4IBAQCGVF+YwDGDZOgU5FCua+fEpyvIhotTpqKAW/psrQbX64S/KcI+
9b4nz8cc8WA4WblbIeR8LjEB1mQxuvyY5SFWzxDRrhbvHYaqS1L/xIYkYiqo+kr+
zlk2nQVvFfaWfI+z2F+fpwITXd8+VjYsbcErPubvevw3NLJ1XfSBfHnx9a+yxlcC
IhdVl8pIwxKu05TeYLohoH6/l9llJsb436cdik+53tOmOPNgCgqAjGnIWEcvN334
BRfYjPp85wP8/8cmsH9G8Hn6D6Hig6tuYLghF7Ne5mzxed8+WYuh7dxROpN1rzYA
0NFDm9uF4WwdReynHgJdR8CdI63au2+NS2Tx
-----END CERTIFICATE-----
