Certificate:
    Data:
        Version: 3 (0x2)
        Serial Number:
            d3:6f:2f:6e:e7:a7:1d:0b:76:8a:be:89:8e:2a:c2:73
        Signature Algorithm: sha256WithRSAEncryption
        Issuer: CN=team525-net
        Validity
            Not Before: May 18 22:01:09 2022 GMT
            Not After : May  2 22:01:09 2025 GMT
        Subject: CN=team525-client
        Subject Public Key Info:
            Public Key Algorithm: rsaEncryption
                RSA Public-Key: (2048 bit)
                Modulus:
                    00:d5:82:7c:6b:3f:22:0e:8d:6e:17:74:d9:7f:77:
                    3c:19:4f:6e:05:15:84:bc:d4:bc:33:bc:97:00:3c:
                    12:e5:59:99:81:18:3d:fe:63:b4:8b:47:24:41:c8:
                    d4:1a:f1:27:b9:a5:32:1a:53:30:ce:23:71:9a:a7:
                    0a:2c:ad:33:c7:5f:45:0c:c0:6f:46:31:7b:b2:9a:
                    d7:68:46:bd:63:83:c5:01:7b:f1:87:f4:89:9f:50:
                    b5:d7:ab:b2:4d:0f:3f:3e:e7:14:bc:30:bb:4e:93:
                    40:b0:49:57:1a:87:2b:ef:1e:60:66:5a:86:50:cf:
                    c3:fc:2c:c2:fd:bf:23:85:25:d3:c3:08:8c:fd:ad:
                    dd:4c:43:65:f9:ed:15:3f:c5:6f:17:e8:e8:01:e8:
                    9a:d6:47:e1:7a:d0:eb:59:31:5c:0f:8a:04:dd:06:
                    e9:ee:67:20:96:2c:ae:c5:d4:0f:0c:cc:41:ed:8d:
                    34:13:79:55:b7:4f:0c:be:20:f5:65:32:78:00:61:
                    cc:f7:84:41:42:e7:3b:1b:8d:30:81:57:56:80:bc:
                    60:2a:58:97:05:0d:a6:6d:88:53:ab:74:58:d8:c6:
                    40:4c:ae:83:5a:38:17:bc:55:93:11:77:fd:0b:2c:
                    33:b3:46:62:4a:61:3b:7f:00:22:5e:0d:b6:bc:a9:
                    f4:8f
                Exponent: 65537 (0x10001)
        X509v3 extensions:
            X509v3 Basic Constraints: 
                CA:FALSE
            X509v3 Subject Key Identifier: 
                BA:75:CB:9C:F2:97:D8:47:7E:5D:D6:11:7B:00:61:1C:EE:DC:D0:27
            X509v3 Authority Key Identifier: 
                keyid:78:27:E6:EF:C6:C6:22:E7:49:60:23:3D:FF:37:0D:4D:70:22:6A:EB
                DirName:/CN=team525-net
                serial:1E:92:D4:49:56:C5:C7:30:D2:7B:45:BF:A6:2A:4D:2B:3E:CD:73:E7

            X509v3 Extended Key Usage: 
                TLS Web Client Authentication
            X509v3 Key Usage: 
                Digital Signature
    Signature Algorithm: sha256WithRSAEncryption
         a8:00:36:97:ad:21:d3:75:ff:f2:e2:65:13:c1:e6:b9:9b:69:
         38:ff:aa:3a:b0:5c:53:b5:16:8b:61:3d:34:74:12:f1:8a:b8:
         8e:b0:e3:d1:37:d8:db:0d:f5:63:d5:6b:19:a4:65:f3:cf:8e:
         33:5d:ac:cd:48:2d:46:af:ab:cf:ce:c7:89:e0:28:a8:d2:21:
         8e:aa:16:ad:b2:05:bd:20:53:16:44:2d:51:cd:bb:f0:a7:a0:
         34:37:13:47:7d:49:27:67:8d:f0:d4:88:e7:e3:c1:d7:1d:13:
         3f:e8:08:6c:0c:d2:16:1e:29:dd:12:59:97:2d:f3:b3:9c:fb:
         8d:8f:9e:f5:0e:fb:0f:a7:91:21:c4:25:ad:7a:78:e0:46:b2:
         12:e2:7f:07:26:9f:1f:4e:fa:3f:94:f0:69:25:f4:a4:be:96:
         1b:5b:49:02:60:a0:da:53:bc:1f:0c:9b:9d:61:ec:dc:ff:9e:
         68:ad:ac:94:2e:d8:70:d3:60:45:46:31:67:14:d1:1f:ec:97:
         51:2a:ef:4b:ea:b1:e2:e6:64:26:d4:f4:e1:3a:46:ce:17:e4:
         3a:99:da:1d:e5:1b:3f:01:e8:9c:b3:94:19:da:f2:61:48:eb:
         d5:a3:58:ad:7f:d6:56:cd:8e:cd:db:3d:5c:6e:bd:5a:72:c3:
         df:0b:d8:43
-----BEGIN CERTIFICATE-----
MIIDXTCCAkWgAwIBAgIRANNvL27npx0Ldoq+iY4qwnMwDQYJKoZIhvcNAQELBQAw
FjEUMBIGA1UEAwwLdGVhbTUyNS1uZXQwHhcNMjIwNTE4MjIwMTA5WhcNMjUwNTAy
MjIwMTA5WjAZMRcwFQYDVQQDDA50ZWFtNTI1LWNsaWVudDCCASIwDQYJKoZIhvcN
AQEBBQADggEPADCCAQoCggEBANWCfGs/Ig6Nbhd02X93PBlPbgUVhLzUvDO8lwA8
EuVZmYEYPf5jtItHJEHI1BrxJ7mlMhpTMM4jcZqnCiytM8dfRQzAb0Yxe7Ka12hG
vWODxQF78Yf0iZ9Qtdersk0PPz7nFLwwu06TQLBJVxqHK+8eYGZahlDPw/wswv2/
I4Ul08MIjP2t3UxDZfntFT/Fbxfo6AHomtZH4XrQ61kxXA+KBN0G6e5nIJYsrsXU
DwzMQe2NNBN5VbdPDL4g9WUyeABhzPeEQULnOxuNMIFXVoC8YCpYlwUNpm2IU6t0
WNjGQEyug1o4F7xVkxF3/QssM7NGYkphO38AIl4Ntryp9I8CAwEAAaOBojCBnzAJ
BgNVHRMEAjAAMB0GA1UdDgQWBBS6dcuc8pfYR35d1hF7AGEc7tzQJzBRBgNVHSME
SjBIgBR4J+bvxsYi50lgIz3/Nw1NcCJq66EapBgwFjEUMBIGA1UEAwwLdGVhbTUy
NS1uZXSCFB6S1ElWxccw0ntFv6YqTSs+zXPnMBMGA1UdJQQMMAoGCCsGAQUFBwMC
MAsGA1UdDwQEAwIHgDANBgkqhkiG9w0BAQsFAAOCAQEAqAA2l60h03X/8uJlE8Hm
uZtpOP+qOrBcU7UWi2E9NHQS8Yq4jrDj0TfY2w31Y9VrGaRl88+OM12szUgtRq+r
z87HieAoqNIhjqoWrbIFvSBTFkQtUc278KegNDcTR31JJ2eN8NSI5+PB1x0TP+gI
bAzSFh4p3RJZly3zs5z7jY+e9Q77D6eRIcQlrXp44EayEuJ/ByafH076P5TwaSX0
pL6WG1tJAmCg2lO8HwybnWHs3P+eaK2slC7YcNNgRUYxZxTRH+yXUSrvS+qx4uZk
JtT04TpGzhfkOpnaHeUbPwHonLOUGdryYUjr1aNYrX/WVs2Ozds9XG69WnLD3wvY
Qw==
-----END CERTIFICATE-----
