Certificate:
    Data:
        Version: 3 (0x2)
        Serial Number:
            bb:d5:29:6b:66:a5:2b:2d:41:82:77:6f:d3:b4:d9:5d
        Signature Algorithm: sha256WithRSAEncryption
        Issuer: CN=team147-net
        Validity
            Not Before: May 18 18:38:43 2022 GMT
            Not After : May  2 18:38:43 2025 GMT
        Subject: CN=team147-client
        Subject Public Key Info:
            Public Key Algorithm: rsaEncryption
                RSA Public-Key: (2048 bit)
                Modulus:
                    00:ac:e6:24:26:39:95:71:2e:a5:c6:42:32:27:0c:
                    71:5e:4e:85:7a:5e:e6:d3:8f:bf:d8:eb:5f:a3:a9:
                    1c:fe:21:0f:1c:cc:6a:ae:67:1c:31:f1:8c:ae:f7:
                    2e:c9:0d:66:c8:77:5f:d6:b0:57:0b:06:03:36:6d:
                    44:16:b8:5c:ed:0b:83:e3:fa:7f:95:1d:b0:d4:ae:
                    c5:01:31:ce:61:fc:d0:78:22:7e:b8:0a:7c:53:54:
                    39:0b:36:96:76:c4:a7:2f:be:50:03:9f:9b:bd:06:
                    91:f9:20:c5:0b:4d:8b:e7:13:6c:94:a5:c8:86:88:
                    9f:0b:c9:97:26:85:30:47:44:9d:00:5a:19:d2:00:
                    b8:d0:24:78:27:eb:a4:29:c8:6c:33:58:64:92:2b:
                    e7:9a:39:85:46:56:34:8a:5c:83:4f:22:f0:d1:16:
                    66:cd:d8:16:e4:02:71:03:ac:fd:47:b7:2f:67:1e:
                    2e:9b:b7:8e:3a:d1:13:60:31:94:d7:bd:91:28:64:
                    54:df:99:1b:9e:5b:49:ed:be:f3:1c:2a:f2:47:97:
                    1e:e9:8b:6c:6f:1b:b2:22:27:2f:cb:9f:fc:b4:0c:
                    30:e2:66:28:4e:71:1b:eb:bd:85:6b:91:eb:70:4b:
                    a0:f6:73:07:e5:8e:cf:f3:98:34:c9:eb:8b:18:90:
                    bb:e5
                Exponent: 65537 (0x10001)
        X509v3 extensions:
            X509v3 Basic Constraints: 
                CA:FALSE
            X509v3 Subject Key Identifier: 
                93:7E:6F:27:0D:86:B8:46:29:88:68:96:43:75:CF:96:36:41:68:9E
            X509v3 Authority Key Identifier: 
                keyid:A2:C8:25:E8:CD:50:82:05:89:5A:B3:2C:D9:9E:C3:DE:F7:C7:35:D1
                DirName:/CN=team147-net
                serial:0A:6D:73:F8:FD:B8:D3:59:F5:BC:54:06:D7:07:BB:F2:4E:33:E6:80

            X509v3 Extended Key Usage: 
                TLS Web Client Authentication
            X509v3 Key Usage: 
                Digital Signature
    Signature Algorithm: sha256WithRSAEncryption
         58:ea:cf:6d:60:aa:08:b7:2b:2f:e6:c7:c7:91:02:05:c1:a4:
         02:2b:e7:47:92:78:86:76:47:cc:2a:d3:95:9b:ef:80:d8:43:
         de:27:86:fc:95:f8:35:39:6e:90:37:4a:23:8d:38:af:e6:a9:
         62:aa:77:24:10:3b:80:d8:2f:46:47:a7:27:da:21:ca:8a:8b:
         fd:7b:6f:bd:4c:b8:08:dd:92:3f:d1:0e:60:e2:8a:7c:f2:e1:
         6d:50:ec:92:36:0a:95:d1:96:e6:1b:6c:fd:3f:90:f4:d2:22:
         83:21:5b:81:2b:77:e1:c3:eb:63:92:90:35:92:c6:10:70:37:
         3b:54:e1:15:06:63:3a:9a:44:d7:45:38:3f:25:74:39:4c:fa:
         d7:1a:5e:57:75:45:e4:1d:59:c2:ac:44:b4:ed:27:da:e7:68:
         b0:b0:0f:bc:e6:17:f6:fa:33:e7:f9:33:bb:37:86:99:8d:ec:
         8a:07:72:a8:75:0d:54:4b:a7:70:4f:60:f8:57:24:b4:fc:32:
         33:cc:fe:69:d8:67:11:c9:d1:5b:88:15:d5:e0:e9:ce:eb:cb:
         1f:01:7d:93:2a:28:f5:c3:ee:44:d9:2d:b2:e5:d8:c1:55:68:
         82:a5:30:28:67:b7:e9:d4:76:e0:8a:27:9d:5b:d8:38:a0:71:
         10:b7:51:a8
-----BEGIN CERTIFICATE-----
MIIDXTCCAkWgAwIBAgIRALvVKWtmpSstQYJ3b9O02V0wDQYJKoZIhvcNAQELBQAw
FjEUMBIGA1UEAwwLdGVhbTE0Ny1uZXQwHhcNMjIwNTE4MTgzODQzWhcNMjUwNTAy
MTgzODQzWjAZMRcwFQYDVQQDDA50ZWFtMTQ3LWNsaWVudDCCASIwDQYJKoZIhvcN
AQEBBQADggEPADCCAQoCggEBAKzmJCY5lXEupcZCMicMcV5OhXpe5tOPv9jrX6Op
HP4hDxzMaq5nHDHxjK73LskNZsh3X9awVwsGAzZtRBa4XO0Lg+P6f5UdsNSuxQEx
zmH80HgifrgKfFNUOQs2lnbEpy++UAOfm70GkfkgxQtNi+cTbJSlyIaInwvJlyaF
MEdEnQBaGdIAuNAkeCfrpCnIbDNYZJIr55o5hUZWNIpcg08i8NEWZs3YFuQCcQOs
/Ue3L2ceLpu3jjrRE2AxlNe9kShkVN+ZG55bSe2+8xwq8keXHumLbG8bsiInL8uf
/LQMMOJmKE5xG+u9hWuR63BLoPZzB+WOz/OYNMnrixiQu+UCAwEAAaOBojCBnzAJ
BgNVHRMEAjAAMB0GA1UdDgQWBBSTfm8nDYa4RimIaJZDdc+WNkFonjBRBgNVHSME
SjBIgBSiyCXozVCCBYlasyzZnsPe98c10aEapBgwFjEUMBIGA1UEAwwLdGVhbTE0
Ny1uZXSCFAptc/j9uNNZ9bxUBtcHu/JOM+aAMBMGA1UdJQQMMAoGCCsGAQUFBwMC
MAsGA1UdDwQEAwIHgDANBgkqhkiG9w0BAQsFAAOCAQEAWOrPbWCqCLcrL+bHx5EC
BcGkAivnR5J4hnZHzCrTlZvvgNhD3ieG/JX4NTlukDdKI404r+apYqp3JBA7gNgv
RkenJ9ohyoqL/XtvvUy4CN2SP9EOYOKKfPLhbVDskjYKldGW5hts/T+Q9NIigyFb
gSt34cPrY5KQNZLGEHA3O1ThFQZjOppE10U4PyV0OUz61xpeV3VF5B1ZwqxEtO0n
2udosLAPvOYX9voz5/kzuzeGmY3sigdyqHUNVEuncE9g+FcktPwyM8z+adhnEcnR
W4gV1eDpzuvLHwF9kyoo9cPuRNktsuXYwVVogqUwKGe36dR24IonnVvYOKBxELdR
qA==
-----END CERTIFICATE-----
