Certificate:
    Data:
        Version: 3 (0x2)
        Serial Number:
            98:ad:3f:2a:cd:0f:ff:a9:e5:01:34:24:3a:cb:da:77
        Signature Algorithm: sha256WithRSAEncryption
        Issuer: CN=team475-net
        Validity
            Not Before: May 18 21:37:26 2022 GMT
            Not After : May  2 21:37:26 2025 GMT
        Subject: CN=team475-client
        Subject Public Key Info:
            Public Key Algorithm: rsaEncryption
                RSA Public-Key: (2048 bit)
                Modulus:
                    00:92:6f:70:a5:38:42:76:a0:62:9d:39:25:7f:3b:
                    e6:4c:7c:0c:e5:15:de:ee:74:21:0e:7f:84:c1:24:
                    52:0a:ca:7f:cc:fe:1a:96:52:0a:fb:c5:bc:ce:b9:
                    ac:2b:b1:41:bf:39:c0:fb:22:72:94:23:d2:29:82:
                    95:a4:27:bc:7d:c8:1e:d4:4b:ed:14:a0:7d:d5:97:
                    b7:79:8f:db:17:6d:e1:27:12:92:00:18:a8:f6:7c:
                    6c:ed:09:89:74:06:77:9c:fa:7b:fd:09:86:42:3a:
                    2d:7b:34:27:e5:52:4c:a4:2a:2a:fe:f1:98:cd:33:
                    ad:58:47:04:e6:7f:6b:e6:26:d9:13:12:cb:72:f8:
                    3f:b9:57:9c:67:7a:c3:4c:ea:79:2b:10:14:c0:ae:
                    c9:35:60:dc:80:5d:50:3f:9a:39:ca:eb:a9:33:b0:
                    11:d0:72:84:8b:0f:1f:ab:d7:9a:34:dd:35:52:41:
                    06:60:c3:05:90:03:ab:fa:08:42:4f:f0:68:e2:01:
                    73:ba:e7:a0:98:fd:60:7e:75:82:f5:f6:05:04:78:
                    e1:6a:6f:e0:41:e0:7b:5f:73:09:85:e6:16:7c:c5:
                    bc:61:76:fd:03:90:59:35:14:d3:03:a6:2b:e4:be:
                    b5:54:01:4b:0c:d9:ce:21:d9:ce:50:30:86:cd:73:
                    f2:01
                Exponent: 65537 (0x10001)
        X509v3 extensions:
            X509v3 Basic Constraints: 
                CA:FALSE
            X509v3 Subject Key Identifier: 
                A4:EA:4F:B8:F7:6C:E8:0A:D9:0E:ED:DC:A7:3A:0E:81:1A:46:91:21
            X509v3 Authority Key Identifier: 
                keyid:D7:AE:EA:AB:CB:8A:71:96:1F:A2:EC:89:12:A9:E3:F2:2E:E6:8B:03
                DirName:/CN=team475-net
                serial:55:FF:5E:AC:E4:16:21:3F:DF:1A:E5:7F:69:4C:E7:7F:47:C2:8B:96

            X509v3 Extended Key Usage: 
                TLS Web Client Authentication
            X509v3 Key Usage: 
                Digital Signature
    Signature Algorithm: sha256WithRSAEncryption
         1a:89:ca:42:6f:2e:6f:4d:c5:74:cb:e8:dc:4a:c7:5f:fc:ec:
         3d:6d:e7:93:2d:1f:ea:ce:0a:88:e4:a6:45:ff:8c:2f:fd:4c:
         50:e2:09:53:c5:68:d4:07:5e:26:90:fe:0a:93:7c:c5:02:74:
         9c:9e:19:08:8c:d6:12:ee:8d:37:7a:2a:83:59:d1:ce:2b:d3:
         30:0a:ec:da:f3:9c:66:5a:aa:d4:4f:8b:d4:a4:f8:66:2e:c2:
         48:81:a9:47:ec:40:22:11:c7:82:bf:00:62:23:41:f5:84:14:
         25:8a:18:34:d0:8f:d6:34:a8:67:a6:ee:6d:df:eb:c9:bd:d0:
         44:75:49:ea:e5:26:ad:0d:07:3d:cf:9b:61:66:9d:67:94:fa:
         e8:59:be:23:d7:e9:1e:b2:dc:5f:3c:b3:a4:22:db:ac:77:e0:
         bb:20:26:4f:0f:d5:1e:6b:04:05:5e:0e:7d:30:3f:21:b2:04:
         4b:93:44:46:f9:29:68:13:75:c4:b9:0e:60:95:ca:88:1d:43:
         e1:d8:90:a3:b7:3f:a1:e5:1e:16:1c:84:2b:62:32:77:82:52:
         71:84:cf:d1:b8:66:37:dc:30:ce:ff:32:c3:39:2e:60:d7:59:
         45:48:e3:0e:8f:91:05:23:1f:23:9a:10:bb:ff:4b:fe:a7:90:
         d4:5e:85:8e
-----BEGIN CERTIFICATE-----
MIIDXTCCAkWgAwIBAgIRAJitPyrND/+p5QE0JDrL2ncwDQYJKoZIhvcNAQELBQAw
FjEUMBIGA1UEAwwLdGVhbTQ3NS1uZXQwHhcNMjIwNTE4MjEzNzI2WhcNMjUwNTAy
MjEzNzI2WjAZMRcwFQYDVQQDDA50ZWFtNDc1LWNsaWVudDCCASIwDQYJKoZIhvcN
AQEBBQADggEPADCCAQoCggEBAJJvcKU4QnagYp05JX875kx8DOUV3u50IQ5/hMEk
UgrKf8z+GpZSCvvFvM65rCuxQb85wPsicpQj0imClaQnvH3IHtRL7RSgfdWXt3mP
2xdt4ScSkgAYqPZ8bO0JiXQGd5z6e/0JhkI6LXs0J+VSTKQqKv7xmM0zrVhHBOZ/
a+Ym2RMSy3L4P7lXnGd6w0zqeSsQFMCuyTVg3IBdUD+aOcrrqTOwEdByhIsPH6vX
mjTdNVJBBmDDBZADq/oIQk/waOIBc7rnoJj9YH51gvX2BQR44Wpv4EHge19zCYXm
FnzFvGF2/QOQWTUU0wOmK+S+tVQBSwzZziHZzlAwhs1z8gECAwEAAaOBojCBnzAJ
BgNVHRMEAjAAMB0GA1UdDgQWBBSk6k+492zoCtkO7dynOg6BGkaRITBRBgNVHSME
SjBIgBTXruqry4pxlh+i7IkSqePyLuaLA6EapBgwFjEUMBIGA1UEAwwLdGVhbTQ3
NS1uZXSCFFX/XqzkFiE/3xrlf2lM539HwouWMBMGA1UdJQQMMAoGCCsGAQUFBwMC
MAsGA1UdDwQEAwIHgDANBgkqhkiG9w0BAQsFAAOCAQEAGonKQm8ub03FdMvo3ErH
X/zsPW3nky0f6s4KiOSmRf+ML/1MUOIJU8Vo1AdeJpD+CpN8xQJ0nJ4ZCIzWEu6N
N3oqg1nRzivTMArs2vOcZlqq1E+L1KT4Zi7CSIGpR+xAIhHHgr8AYiNB9YQUJYoY
NNCP1jSoZ6bubd/ryb3QRHVJ6uUmrQ0HPc+bYWadZ5T66Fm+I9fpHrLcXzyzpCLb
rHfguyAmTw/VHmsEBV4OfTA/IbIES5NERvkpaBN1xLkOYJXKiB1D4diQo7c/oeUe
FhyEK2Iyd4JScYTP0bhmN9wwzv8ywzkuYNdZRUjjDo+RBSMfI5oQu/9L/qeQ1F6F
jg==
-----END CERTIFICATE-----
