Certificate:
    Data:
        Version: 3 (0x2)
        Serial Number:
            b4:81:8e:5b:b5:3f:ec:f5:e1:cd:8b:07:0d:96:9f:6d
        Signature Algorithm: sha256WithRSAEncryption
        Issuer: CN=team475-net
        Validity
            Not Before: May 18 21:37:26 2022 GMT
            Not After : May  2 21:37:26 2025 GMT
        Subject: CN=team475-server
        Subject Public Key Info:
            Public Key Algorithm: rsaEncryption
                RSA Public-Key: (2048 bit)
                Modulus:
                    00:a9:cb:eb:9f:b3:4c:39:3e:38:7d:69:12:3c:f5:
                    4e:41:d2:df:3c:00:30:64:29:9f:1f:49:f3:e8:95:
                    a2:32:55:d6:88:4d:aa:b4:50:2d:f7:b9:11:d5:38:
                    b1:62:00:50:f6:8e:63:6a:56:57:22:d4:fb:a1:19:
                    7b:38:28:84:60:ba:ba:4b:f4:c7:59:b5:d5:49:99:
                    b3:c9:9f:c5:aa:d4:58:0b:1d:5c:20:54:f4:13:ef:
                    c0:81:1d:e5:85:02:9e:9a:ec:57:9e:76:0c:66:c5:
                    44:59:71:14:a8:2c:a0:45:f4:82:ca:a7:db:03:16:
                    38:b1:05:3a:77:44:94:78:8d:8f:d0:1c:80:57:d0:
                    c6:34:bb:82:5e:ef:e4:a9:03:12:4f:9d:50:df:84:
                    d9:b1:5a:ba:ab:d3:68:95:f5:90:c9:36:4b:4c:aa:
                    05:a9:6c:13:b4:96:a5:ec:6a:ea:89:ae:2a:ae:1a:
                    c9:ff:b2:5b:45:a4:f2:62:ba:70:20:23:ce:e5:c3:
                    09:97:88:d3:6a:e0:47:f2:0c:d1:0e:96:a8:65:6d:
                    c2:8f:f2:fb:08:ac:df:4b:e3:4e:01:24:fe:2a:2b:
                    78:af:ea:0f:10:9f:4d:17:98:f8:27:6a:f3:20:30:
                    80:97:f3:4b:a0:26:d0:8a:12:6d:d1:c6:a4:53:ad:
                    de:bf
                Exponent: 65537 (0x10001)
        X509v3 extensions:
            X509v3 Basic Constraints: 
                CA:FALSE
            X509v3 Subject Key Identifier: 
                96:5E:10:8E:C2:77:7F:E7:52:33:65:47:72:E3:64:7B:43:3D:55:F2
            X509v3 Authority Key Identifier: 
                keyid:D7:AE:EA:AB:CB:8A:71:96:1F:A2:EC:89:12:A9:E3:F2:2E:E6:8B:03
                DirName:/CN=team475-net
                serial:55:FF:5E:AC:E4:16:21:3F:DF:1A:E5:7F:69:4C:E7:7F:47:C2:8B:96

            X509v3 Extended Key Usage: 
                TLS Web Server Authentication
            X509v3 Key Usage: 
                Digital Signature, Key Encipherment
            X509v3 Subject Alternative Name: 
                DNS:team475-server
    Signature Algorithm: sha256WithRSAEncryption
         42:a2:ff:ad:98:d5:aa:02:36:51:85:44:bf:96:72:40:0f:bf:
         c4:1c:e3:ff:35:00:77:42:5c:6f:b7:e5:0a:af:2b:a5:4b:0e:
         c8:7a:a7:9a:19:8b:ad:13:0b:56:f3:44:ca:0b:e9:4c:92:83:
         1f:97:94:d2:b0:92:82:e1:5b:cd:06:b4:7c:32:8c:33:9b:fc:
         e5:54:70:42:47:6a:95:f2:cf:e1:d9:bf:d4:56:16:a4:9a:93:
         6b:4d:80:9d:7d:af:db:f1:08:dd:ba:08:7d:24:6b:68:9b:64:
         ba:3d:38:84:40:7c:a9:6a:9d:24:7f:15:7b:7a:be:22:48:0c:
         23:7d:07:e2:07:b4:68:77:27:31:59:32:7e:83:7b:a4:b3:10:
         09:9e:73:95:c2:6b:ad:4a:d7:f1:98:ff:58:31:5d:e8:58:d2:
         1e:31:6d:a8:18:64:46:7e:c5:34:e2:d7:0b:19:68:c3:38:1e:
         63:ca:32:1d:c1:99:a3:34:3c:f4:5e:5e:6a:68:d1:c3:b0:8d:
         94:fd:bb:e7:18:a5:25:e5:7f:81:42:e2:0b:c7:df:37:c0:38:
         3a:a1:31:47:a2:be:f5:66:b4:25:df:ad:3b:a6:54:0c:3b:80:
         12:2d:5d:62:00:bd:88:6f:85:93:b7:ac:68:7c:ab:00:fb:c2:
         c6:13:ad:12
-----BEGIN CERTIFICATE-----
MIIDeDCCAmCgAwIBAgIRALSBjlu1P+z14c2LBw2Wn20wDQYJKoZIhvcNAQELBQAw
FjEUMBIGA1UEAwwLdGVhbTQ3NS1uZXQwHhcNMjIwNTE4MjEzNzI2WhcNMjUwNTAy
MjEzNzI2WjAZMRcwFQYDVQQDDA50ZWFtNDc1LXNlcnZlcjCCASIwDQYJKoZIhvcN
AQEBBQADggEPADCCAQoCggEBAKnL65+zTDk+OH1pEjz1TkHS3zwAMGQpnx9J8+iV
ojJV1ohNqrRQLfe5EdU4sWIAUPaOY2pWVyLU+6EZezgohGC6ukv0x1m11UmZs8mf
xarUWAsdXCBU9BPvwIEd5YUCnprsV552DGbFRFlxFKgsoEX0gsqn2wMWOLEFOndE
lHiNj9AcgFfQxjS7gl7v5KkDEk+dUN+E2bFauqvTaJX1kMk2S0yqBalsE7SWpexq
6omuKq4ayf+yW0Wk8mK6cCAjzuXDCZeI02rgR/IM0Q6WqGVtwo/y+wis30vjTgEk
/ioreK/qDxCfTReY+Cdq8yAwgJfzS6Am0IoSbdHGpFOt3r8CAwEAAaOBvTCBujAJ
BgNVHRMEAjAAMB0GA1UdDgQWBBSWXhCOwnd/51IzZUdy42R7Qz1V8jBRBgNVHSME
SjBIgBTXruqry4pxlh+i7IkSqePyLuaLA6EapBgwFjEUMBIGA1UEAwwLdGVhbTQ3
NS1uZXSCFFX/XqzkFiE/3xrlf2lM539HwouWMBMGA1UdJQQMMAoGCCsGAQUFBwMB
MAsGA1UdDwQEAwIFoDAZBgNVHREEEjAQgg50ZWFtNDc1LXNlcnZlcjANBgkqhkiG
9w0BAQsFAAOCAQEAQqL/rZjVqgI2UYVEv5ZyQA+/xBzj/zUAd0Jcb7flCq8rpUsO
yHqnmhmLrRMLVvNEygvpTJKDH5eU0rCSguFbzQa0fDKMM5v85VRwQkdqlfLP4dm/
1FYWpJqTa02AnX2v2/EI3boIfSRraJtkuj04hEB8qWqdJH8Ve3q+IkgMI30H4ge0
aHcnMVkyfoN7pLMQCZ5zlcJrrUrX8Zj/WDFd6FjSHjFtqBhkRn7FNOLXCxlowzge
Y8oyHcGZozQ89F5eamjRw7CNlP275xilJeV/gULiC8ffN8A4OqExR6K+9Wa0Jd+t
O6ZUDDuAEi1dYgC9iG+Fk7esaHyrAPvCxhOtEg==
-----END CERTIFICATE-----
