Certificate:
    Data:
        Version: 3 (0x2)
        Serial Number:
            ce:c9:29:27:82:64:8a:f7:39:d9:8e:0f:25:97:90
        Signature Algorithm: sha256WithRSAEncryption
        Issuer: CN=team677-net
        Validity
            Not Before: May 18 23:34:40 2022 GMT
            Not After : May  2 23:34:40 2025 GMT
        Subject: CN=team677-server
        Subject Public Key Info:
            Public Key Algorithm: rsaEncryption
                RSA Public-Key: (2048 bit)
                Modulus:
                    00:bd:1f:3e:4b:ad:e5:0c:03:b9:7e:8d:bd:da:74:
                    f1:d0:fa:cf:b1:d7:70:20:43:c8:86:f8:cc:f3:dc:
                    03:5c:c2:03:31:d1:66:7b:93:5a:45:2b:c5:34:46:
                    76:d2:79:d8:b7:2a:35:51:49:d5:3c:29:3d:01:74:
                    6a:4c:2d:72:47:cf:6d:82:1e:37:24:72:e5:93:03:
                    fc:d6:93:ad:ef:0d:a6:da:8e:1e:a9:31:b5:eb:5a:
                    1f:89:6e:6c:14:8d:30:dd:21:fa:c9:0c:66:7f:65:
                    33:46:67:18:cf:23:ed:c7:00:96:ce:64:0d:dc:76:
                    7d:77:97:fb:7e:22:31:50:5d:0a:36:96:1d:f5:6f:
                    c0:86:7d:26:d7:9a:da:68:bf:85:35:03:a2:fd:c3:
                    cd:ef:e8:10:cb:fb:67:3d:a9:f5:8e:e2:17:2a:22:
                    3d:25:f9:d9:a1:7d:30:35:bc:59:5a:db:98:b3:cc:
                    5c:1e:dc:95:10:2a:6f:20:f4:10:4b:03:f8:87:53:
                    d5:65:26:45:54:72:7d:98:b8:67:65:58:fe:59:5d:
                    46:78:72:a9:e6:83:e9:c4:da:95:b8:54:5b:5c:65:
                    af:92:15:cf:8e:10:ae:ce:4d:b8:72:5d:05:cf:24:
                    4f:68:55:1e:6c:9b:7d:1f:6c:0b:89:73:c5:ef:a5:
                    f0:05
                Exponent: 65537 (0x10001)
        X509v3 extensions:
            X509v3 Basic Constraints: 
                CA:FALSE
            X509v3 Subject Key Identifier: 
                8B:E4:BA:C2:D1:69:92:2F:8A:BF:2B:B5:57:CD:8C:12:E6:C5:2B:70
            X509v3 Authority Key Identifier: 
                keyid:C4:F7:9E:16:A7:B2:2A:BD:18:4D:BB:F4:87:9F:1F:5B:1C:65:DC:AE
                DirName:/CN=team677-net
                serial:7C:8F:70:56:35:10:7E:8C:4E:0E:06:08:E8:55:AD:1D:70:F3:C2:62

            X509v3 Extended Key Usage: 
                TLS Web Server Authentication
            X509v3 Key Usage: 
                Digital Signature, Key Encipherment
            X509v3 Subject Alternative Name: 
                DNS:team677-server
    Signature Algorithm: sha256WithRSAEncryption
         54:83:a1:87:87:50:1a:a1:23:1b:8b:92:57:f1:5d:75:6d:0b:
         23:41:11:fd:47:40:0f:0b:d9:6e:e9:70:34:81:2d:89:15:58:
         d9:10:fb:e4:80:66:6a:24:68:3e:e1:53:3f:1f:55:00:b7:52:
         55:6a:cc:48:fe:2d:45:77:cb:a4:e3:e4:d6:fe:c2:7f:66:52:
         81:24:28:1d:ba:31:ac:5e:95:a5:98:b7:25:c0:99:00:11:a5:
         92:69:46:35:4a:90:27:b5:64:41:a1:d5:87:88:5c:bf:44:e4:
         6a:93:bf:6f:a2:8c:a6:61:2e:d3:57:df:c2:4f:02:70:f1:e8:
         fe:e5:71:78:50:81:c8:04:59:af:53:58:35:9d:8b:6a:91:3c:
         68:b7:67:48:a0:66:12:18:21:30:a6:96:98:a9:51:9d:ec:4e:
         61:bc:d4:d6:4b:22:30:86:e0:82:93:64:a3:be:0e:37:80:b8:
         e3:69:8a:a1:24:5c:c9:03:75:2c:37:77:fc:aa:c8:72:ce:c6:
         84:62:d9:1b:e2:e5:6d:4a:c8:e2:3f:3e:b3:75:46:41:67:88:
         12:ea:db:fe:bc:f7:c2:f3:70:96:04:cc:66:c2:b2:b3:1a:bb:
         68:53:b2:8d:43:c4:5d:87:db:52:27:bf:dd:f1:f5:25:89:b1:
         6f:87:e9:c0
-----BEGIN CERTIFICATE-----
MIIDdzCCAl+gAwIBAgIQAM7JKSeCZIr3OdmODyWXkDANBgkqhkiG9w0BAQsFADAW
MRQwEgYDVQQDDAt0ZWFtNjc3LW5ldDAeFw0yMjA1MTgyMzM0NDBaFw0yNTA1MDIy
MzM0NDBaMBkxFzAVBgNVBAMMDnRlYW02Nzctc2VydmVyMIIBIjANBgkqhkiG9w0B
AQEFAAOCAQ8AMIIBCgKCAQEAvR8+S63lDAO5fo292nTx0PrPsddwIEPIhvjM89wD
XMIDMdFme5NaRSvFNEZ20nnYtyo1UUnVPCk9AXRqTC1yR89tgh43JHLlkwP81pOt
7w2m2o4eqTG161ofiW5sFI0w3SH6yQxmf2UzRmcYzyPtxwCWzmQN3HZ9d5f7fiIx
UF0KNpYd9W/Ahn0m15raaL+FNQOi/cPN7+gQy/tnPan1juIXKiI9JfnZoX0wNbxZ
WtuYs8xcHtyVECpvIPQQSwP4h1PVZSZFVHJ9mLhnZVj+WV1GeHKp5oPpxNqVuFRb
XGWvkhXPjhCuzk24cl0FzyRPaFUebJt9H2wLiXPF76XwBQIDAQABo4G9MIG6MAkG
A1UdEwQCMAAwHQYDVR0OBBYEFIvkusLRaZIvir8rtVfNjBLmxStwMFEGA1UdIwRK
MEiAFMT3nhansiq9GE279IefH1scZdyuoRqkGDAWMRQwEgYDVQQDDAt0ZWFtNjc3
LW5ldIIUfI9wVjUQfoxODgYI6FWtHXDzwmIwEwYDVR0lBAwwCgYIKwYBBQUHAwEw
CwYDVR0PBAQDAgWgMBkGA1UdEQQSMBCCDnRlYW02Nzctc2VydmVyMA0GCSqGSIb3
DQEBCwUAA4IBAQBUg6GHh1AaoSMbi5JX8V11bQsjQRH9R0APC9lu6XA0gS2JFVjZ
EPvkgGZqJGg+4VM/H1UAt1JVasxI/i1Fd8uk4+TW/sJ/ZlKBJCgdujGsXpWlmLcl
wJkAEaWSaUY1SpAntWRBodWHiFy/RORqk79vooymYS7TV9/CTwJw8ej+5XF4UIHI
BFmvU1g1nYtqkTxot2dIoGYSGCEwppaYqVGd7E5hvNTWSyIwhuCCk2Sjvg43gLjj
aYqhJFzJA3UsN3f8qshyzsaEYtkb4uVtSsjiPz6zdUZBZ4gS6tv+vPfC83CWBMxm
wrKzGrtoU7KNQ8Rdh9tSJ7/d8fUlibFvh+nA
-----END CERTIFICATE-----
