Certificate:
    Data:
        Version: 3 (0x2)
        Serial Number:
            29:59:f2:1a:e7:dd:b9:f2:a6:3d:95:df:ec:cc:c3:ef
        Signature Algorithm: sha256WithRSAEncryption
        Issuer: CN=team6-net
        Validity
            Not Before: May 18 13:56:02 2022 GMT
            Not After : May  2 13:56:02 2025 GMT
        Subject: CN=team6-server
        Subject Public Key Info:
            Public Key Algorithm: rsaEncryption
                RSA Public-Key: (2048 bit)
                Modulus:
                    00:c3:35:d7:4e:9e:23:d2:f2:73:c4:c2:59:68:75:
                    06:26:19:b5:4e:c0:07:f2:b2:0e:12:af:d2:cf:3a:
                    7c:df:ea:3a:48:1a:cd:ec:5b:9f:6b:35:80:3b:fb:
                    fc:7b:7b:8c:b6:37:3a:f8:6c:ea:74:d9:fa:cb:3d:
                    1f:13:7e:13:a8:6a:da:7a:af:cb:9a:58:58:f6:58:
                    8b:dd:21:72:68:53:07:25:48:64:de:f2:ee:09:aa:
                    95:ee:2d:ce:6a:27:28:af:c7:f8:f1:b0:bb:eb:b0:
                    8e:4c:7c:59:fe:68:fb:15:dd:e5:23:b5:aa:79:fd:
                    40:5c:ca:13:6c:9d:a6:22:17:dd:37:78:7b:19:f8:
                    33:2b:3e:a8:08:24:7d:e5:8d:92:12:be:1c:fb:bb:
                    18:42:31:78:b3:19:7b:17:91:03:59:d4:58:c2:96:
                    f7:4b:c1:cd:ab:3c:95:aa:c5:b1:f8:e1:d4:79:b8:
                    fc:3f:3d:f3:c6:a5:16:a0:f3:1c:f5:a8:27:a0:b4:
                    25:8b:d0:25:12:7d:3a:43:e6:f1:5b:7b:42:ef:15:
                    32:ff:16:9f:da:9d:68:4a:bf:db:2f:54:78:80:3b:
                    20:8c:d3:33:be:a9:3f:9f:7f:45:3b:c3:f1:87:5a:
                    29:44:d4:07:c5:05:08:64:f9:f9:8a:24:6b:4c:07:
                    25:43
                Exponent: 65537 (0x10001)
        X509v3 extensions:
            X509v3 Basic Constraints: 
                CA:FALSE
            X509v3 Subject Key Identifier: 
                42:D0:DF:42:EF:92:10:D6:EF:72:BA:79:95:73:F7:3A:41:B6:E6:69
            X509v3 Authority Key Identifier: 
                keyid:6A:DB:1B:8C:66:0D:49:69:BC:F7:38:4D:A9:21:53:18:52:57:65:4B
                DirName:/CN=team6-net
                serial:52:B3:05:F6:90:95:AE:8C:5F:35:C7:2A:E6:11:40:23:95:D6:B1:5E

            X509v3 Extended Key Usage: 
                TLS Web Server Authentication
            X509v3 Key Usage: 
                Digital Signature, Key Encipherment
            X509v3 Subject Alternative Name: 
                DNS:team6-server
    Signature Algorithm: sha256WithRSAEncryption
         09:95:01:6b:42:54:84:16:8e:28:8f:13:90:af:b1:fc:6d:18:
         f8:c3:70:6d:df:10:f6:1e:39:e4:03:48:0c:c7:4c:01:25:30:
         c3:78:13:d2:72:2b:f0:77:bc:16:a6:8f:fd:c6:31:22:f3:eb:
         4a:df:21:dc:bd:4d:0e:37:3d:33:d5:6a:47:d3:5d:61:04:b5:
         db:c9:fb:89:94:03:54:cf:95:83:3e:d0:8e:39:e3:d5:b8:6c:
         23:db:23:79:d7:25:77:89:6e:4c:6a:ea:0d:bb:3f:a7:59:26:
         35:73:dc:38:d7:7b:84:4f:c9:9d:90:1d:b6:5c:be:a4:97:0c:
         fa:16:db:b7:1c:44:33:02:6b:a3:16:1a:95:ba:93:dd:2d:50:
         61:f9:86:87:db:28:dc:1a:5f:8e:ef:2e:63:44:7f:f4:59:94:
         0a:1b:d9:b7:b0:02:66:14:52:62:2d:2d:45:68:3a:79:36:17:
         70:29:ac:3e:66:6b:b7:99:88:df:e4:1a:78:0c:17:58:7a:31:
         e2:63:c5:7c:cc:1e:36:20:da:35:be:92:17:8a:18:44:e6:0d:
         5a:55:23:00:e7:81:91:a2:01:66:3d:91:35:fd:62:15:c1:de:
         67:7b:5e:f3:87:87:59:39:66:e5:a3:ef:4a:b1:59:34:b5:08:
         d6:26:6f:a2
-----BEGIN CERTIFICATE-----
MIIDbzCCAlegAwIBAgIQKVnyGufdufKmPZXf7MzD7zANBgkqhkiG9w0BAQsFADAU
MRIwEAYDVQQDDAl0ZWFtNi1uZXQwHhcNMjIwNTE4MTM1NjAyWhcNMjUwNTAyMTM1
NjAyWjAXMRUwEwYDVQQDDAx0ZWFtNi1zZXJ2ZXIwggEiMA0GCSqGSIb3DQEBAQUA
A4IBDwAwggEKAoIBAQDDNddOniPS8nPEwllodQYmGbVOwAfysg4Sr9LPOnzf6jpI
Gs3sW59rNYA7+/x7e4y2Nzr4bOp02frLPR8TfhOoatp6r8uaWFj2WIvdIXJoUwcl
SGTe8u4JqpXuLc5qJyivx/jxsLvrsI5MfFn+aPsV3eUjtap5/UBcyhNsnaYiF903
eHsZ+DMrPqgIJH3ljZISvhz7uxhCMXizGXsXkQNZ1FjClvdLwc2rPJWqxbH44dR5
uPw/PfPGpRag8xz1qCegtCWL0CUSfTpD5vFbe0LvFTL/Fp/anWhKv9svVHiAOyCM
0zO+qT+ff0U7w/GHWilE1AfFBQhk+fmKJGtMByVDAgMBAAGjgbkwgbYwCQYDVR0T
BAIwADAdBgNVHQ4EFgQUQtDfQu+SENbvcrp5lXP3OkG25mkwTwYDVR0jBEgwRoAU
atsbjGYNSWm89zhNqSFTGFJXZUuhGKQWMBQxEjAQBgNVBAMMCXRlYW02LW5ldIIU
UrMF9pCVroxfNccq5hFAI5XWsV4wEwYDVR0lBAwwCgYIKwYBBQUHAwEwCwYDVR0P
BAQDAgWgMBcGA1UdEQQQMA6CDHRlYW02LXNlcnZlcjANBgkqhkiG9w0BAQsFAAOC
AQEACZUBa0JUhBaOKI8TkK+x/G0Y+MNwbd8Q9h455ANIDMdMASUww3gT0nIr8He8
FqaP/cYxIvPrSt8h3L1NDjc9M9VqR9NdYQS128n7iZQDVM+Vgz7Qjjnj1bhsI9sj
edcld4luTGrqDbs/p1kmNXPcONd7hE/JnZAdtly+pJcM+hbbtxxEMwJroxYalbqT
3S1QYfmGh9so3Bpfju8uY0R/9FmUChvZt7ACZhRSYi0tRWg6eTYXcCmsPmZrt5mI
3+QaeAwXWHox4mPFfMweNiDaNb6SF4oYROYNWlUjAOeBkaIBZj2RNf1iFcHeZ3te
84eHWTlm5aPvSrFZNLUI1iZvog==
-----END CERTIFICATE-----
