Certificate:
    Data:
        Version: 3 (0x2)
        Serial Number:
            08:fc:32:a6:1d:77:85:3a:39:21:92:5e:0e:93:d3:63
        Signature Algorithm: sha256WithRSAEncryption
        Issuer: CN=team125-net
        Validity
            Not Before: May 18 15:06:56 2022 GMT
            Not After : May  2 15:06:56 2025 GMT
        Subject: CN=team125-client
        Subject Public Key Info:
            Public Key Algorithm: rsaEncryption
                RSA Public-Key: (2048 bit)
                Modulus:
                    00:d0:2d:da:cb:fd:9a:1e:e5:a1:73:06:bf:b1:49:
                    18:de:c1:60:45:f5:0f:fc:1c:25:c0:26:76:ad:48:
                    22:06:97:06:d9:c9:cf:74:e0:e6:43:0f:a5:a4:49:
                    61:e7:fb:9f:71:1f:08:0f:d3:ad:9d:5c:4a:5f:84:
                    d9:77:55:df:86:9b:87:65:81:ab:05:8e:48:6e:4a:
                    60:5c:34:97:58:21:3d:00:5b:7b:f0:c2:33:8b:a7:
                    75:ee:a2:db:ca:bb:ed:43:ff:5c:20:95:28:c2:c3:
                    5c:39:70:e8:47:1a:a5:a5:c6:92:04:81:53:d1:73:
                    91:59:92:7b:98:dd:61:f2:40:1e:60:66:f7:26:0e:
                    7a:99:6e:b5:12:0f:cc:76:b1:f4:f9:e6:bf:79:1c:
                    4e:e4:03:8c:59:76:e7:82:d1:cb:01:53:7e:3e:cf:
                    9b:83:e5:62:b3:44:3e:f4:0c:b2:a0:59:06:7a:51:
                    ab:4f:40:5d:ea:9d:30:1f:09:e2:f2:ba:45:77:d2:
                    06:cd:0e:17:c8:64:7f:de:7e:74:00:32:18:7a:40:
                    c8:c5:d6:6b:41:0e:0e:db:4a:45:24:82:38:66:98:
                    58:72:30:63:45:b1:67:b2:7e:7d:88:c0:e5:15:28:
                    91:82:f4:6b:a6:06:b1:31:da:ec:c3:83:af:d9:d5:
                    d4:33
                Exponent: 65537 (0x10001)
        X509v3 extensions:
            X509v3 Basic Constraints: 
                CA:FALSE
            X509v3 Subject Key Identifier: 
                A7:AC:7C:92:10:87:91:63:7F:60:53:8B:A1:A4:21:40:FE:7D:F7:49
            X509v3 Authority Key Identifier: 
                keyid:07:BF:A2:11:34:77:75:01:5C:D7:6B:D7:2D:8F:63:12:C9:DB:C6:7C
                DirName:/CN=team125-net
                serial:53:1E:38:3C:1D:F3:CA:9B:E5:5B:33:4C:F7:CD:FC:10:82:76:FA:F7

            X509v3 Extended Key Usage: 
                TLS Web Client Authentication
            X509v3 Key Usage: 
                Digital Signature
    Signature Algorithm: sha256WithRSAEncryption
         11:b2:8f:51:a5:14:d2:26:9b:ea:0b:ce:b9:6d:ef:b5:9c:5c:
         71:a3:7b:c1:cf:72:8f:1c:03:38:b2:2e:e7:e0:9d:f1:75:24:
         02:e2:77:1f:e9:77:fd:49:0c:ef:52:b4:a9:72:44:6c:6c:3e:
         bd:12:8a:d4:af:79:13:9c:68:9c:84:31:54:c0:98:d4:28:7b:
         b8:e2:ae:06:a7:1f:0e:2a:5f:d1:0d:20:ec:c6:41:64:0e:19:
         78:f5:84:fc:35:94:1a:4f:be:83:6f:8c:7e:e6:99:35:58:f1:
         c2:f2:ec:dd:0f:64:4a:5f:65:fc:7c:5f:e9:06:41:ad:e0:d4:
         d7:8c:b6:4a:60:de:7e:f1:25:a3:88:f3:9c:33:69:6f:f7:be:
         69:7f:2a:5d:ee:64:0e:ed:fc:d8:9f:c6:d8:26:52:8e:71:36:
         4d:15:11:d6:e6:95:d3:8f:22:53:71:ce:38:79:c5:19:0b:b0:
         3b:aa:23:bc:43:93:6b:cb:77:ad:3b:3d:45:a7:a1:e9:5f:0d:
         1f:12:15:ac:99:10:3c:83:56:8d:87:11:d0:22:17:a1:2d:a1:
         bb:3a:83:d4:8b:3a:18:8c:c9:ec:26:11:7b:f6:44:73:c4:2a:
         20:75:a4:c0:4f:aa:77:82:90:5b:f0:63:a4:d2:f1:fa:86:e6:
         f6:82:1a:68
-----BEGIN CERTIFICATE-----
MIIDXDCCAkSgAwIBAgIQCPwyph13hTo5IZJeDpPTYzANBgkqhkiG9w0BAQsFADAW
MRQwEgYDVQQDDAt0ZWFtMTI1LW5ldDAeFw0yMjA1MTgxNTA2NTZaFw0yNTA1MDIx
NTA2NTZaMBkxFzAVBgNVBAMMDnRlYW0xMjUtY2xpZW50MIIBIjANBgkqhkiG9w0B
AQEFAAOCAQ8AMIIBCgKCAQEA0C3ay/2aHuWhcwa/sUkY3sFgRfUP/BwlwCZ2rUgi
BpcG2cnPdODmQw+lpElh5/ufcR8ID9OtnVxKX4TZd1XfhpuHZYGrBY5IbkpgXDSX
WCE9AFt78MIzi6d17qLbyrvtQ/9cIJUowsNcOXDoRxqlpcaSBIFT0XORWZJ7mN1h
8kAeYGb3Jg56mW61Eg/MdrH0+ea/eRxO5AOMWXbngtHLAVN+Ps+bg+Vis0Q+9Ayy
oFkGelGrT0Bd6p0wHwni8rpFd9IGzQ4XyGR/3n50ADIYekDIxdZrQQ4O20pFJII4
ZphYcjBjRbFnsn59iMDlFSiRgvRrpgaxMdrsw4Ov2dXUMwIDAQABo4GiMIGfMAkG
A1UdEwQCMAAwHQYDVR0OBBYEFKesfJIQh5Fjf2BTi6GkIUD+ffdJMFEGA1UdIwRK
MEiAFAe/ohE0d3UBXNdr1y2PYxLJ28Z8oRqkGDAWMRQwEgYDVQQDDAt0ZWFtMTI1
LW5ldIIUUx44PB3zypvlWzNM9838EIJ2+vcwEwYDVR0lBAwwCgYIKwYBBQUHAwIw
CwYDVR0PBAQDAgeAMA0GCSqGSIb3DQEBCwUAA4IBAQARso9RpRTSJpvqC865be+1
nFxxo3vBz3KPHAM4si7n4J3xdSQC4ncf6Xf9SQzvUrSpckRsbD69EorUr3kTnGic
hDFUwJjUKHu44q4Gpx8OKl/RDSDsxkFkDhl49YT8NZQaT76Db4x+5pk1WPHC8uzd
D2RKX2X8fF/pBkGt4NTXjLZKYN5+8SWjiPOcM2lv975pfypd7mQO7fzYn8bYJlKO
cTZNFRHW5pXTjyJTcc44ecUZC7A7qiO8Q5Nry3etOz1Fp6HpXw0fEhWsmRA8g1aN
hxHQIhehLaG7OoPUizoYjMnsJhF79kRzxCogdaTAT6p3gpBb8GOk0vH6hub2ghpo
-----END CERTIFICATE-----
