Certificate:
    Data:
        Version: 3 (0x2)
        Serial Number:
            73:47:99:d5:b8:5c:c0:ca:c9:91:69:87:1c:80:d8:73
        Signature Algorithm: sha256WithRSAEncryption
        Issuer: CN=team125-net
        Validity
            Not Before: May 18 15:06:57 2022 GMT
            Not After : May  2 15:06:57 2025 GMT
        Subject: CN=team125-server
        Subject Public Key Info:
            Public Key Algorithm: rsaEncryption
                RSA Public-Key: (2048 bit)
                Modulus:
                    00:c3:3e:de:bc:11:7e:d0:d0:48:1e:fe:b5:90:57:
                    df:0e:06:01:b0:21:2d:a6:7e:26:88:34:a1:e2:e3:
                    4d:8c:6b:4d:52:ec:83:24:b7:8d:4d:2a:42:9f:6a:
                    27:1e:d9:fd:80:e4:fd:88:3f:db:fb:97:9f:72:05:
                    36:94:ca:bc:55:2b:05:c8:34:aa:54:ff:28:13:c8:
                    13:dc:d2:42:a8:f1:7f:29:9b:16:4e:36:e2:6a:a8:
                    06:13:56:d6:cf:45:45:e6:0e:db:cb:38:6f:bc:3a:
                    89:3d:d5:9b:e7:77:a7:0c:3e:4d:93:da:ad:53:38:
                    f5:e8:2f:09:dc:5a:9d:e2:55:e4:c7:e8:32:3c:6d:
                    67:8c:ec:07:bd:2b:f4:36:1a:f2:dc:8c:cc:e2:47:
                    c2:23:e9:f4:f8:a7:7c:bd:4a:c2:47:ed:52:7f:96:
                    b3:34:95:65:a3:68:79:cb:2b:3b:d6:0a:b2:9e:9a:
                    84:6c:e3:67:c6:ba:5b:ef:62:79:92:b7:af:7a:9b:
                    4c:36:a9:30:25:63:b9:ef:85:d3:e6:87:03:55:16:
                    51:73:44:ef:11:6b:09:c8:9e:fb:fd:dc:86:4a:00:
                    34:b5:25:c1:aa:10:88:be:2c:00:56:3e:91:48:a5:
                    3e:65:fb:c3:b1:97:4b:9a:c6:b2:67:df:cb:db:30:
                    cc:7b
                Exponent: 65537 (0x10001)
        X509v3 extensions:
            X509v3 Basic Constraints: 
                CA:FALSE
            X509v3 Subject Key Identifier: 
                6E:1D:21:E4:99:EC:C8:A0:6B:67:CA:2A:81:D5:EE:92:DE:75:EA:A0
            X509v3 Authority Key Identifier: 
                keyid:07:BF:A2:11:34:77:75:01:5C:D7:6B:D7:2D:8F:63:12:C9:DB:C6:7C
                DirName:/CN=team125-net
                serial:53:1E:38:3C:1D:F3:CA:9B:E5:5B:33:4C:F7:CD:FC:10:82:76:FA:F7

            X509v3 Extended Key Usage: 
                TLS Web Server Authentication
            X509v3 Key Usage: 
                Digital Signature, Key Encipherment
            X509v3 Subject Alternative Name: 
                DNS:team125-server
    Signature Algorithm: sha256WithRSAEncryption
         0d:88:f6:25:a0:f1:d3:64:c3:f2:b7:57:f4:ad:a9:59:f4:f9:
         45:37:44:21:33:bc:21:58:42:30:ab:eb:e1:b5:d0:5e:f1:49:
         c2:9b:56:65:a2:07:05:47:51:65:73:79:b5:69:8b:ed:1c:d3:
         30:2b:0c:c3:87:6b:73:d0:84:c8:b5:87:63:d6:b2:a1:62:54:
         41:2f:d9:bd:f7:de:af:54:7c:ce:40:68:dc:59:72:6b:61:6c:
         a4:ef:f1:e5:0b:8a:a2:37:0e:b2:1b:5c:1d:b5:70:e9:35:e4:
         cb:7b:15:4e:5e:da:f2:ab:73:2d:4d:00:d8:2a:2c:48:d7:39:
         15:2e:a4:5d:9b:4b:c1:07:1c:40:3e:1b:ab:c9:4f:ac:66:12:
         cc:17:9e:36:d3:70:0f:8a:56:b9:00:89:c9:ba:a2:9b:30:cb:
         f6:7c:0a:8a:83:c8:d2:41:52:6d:22:0f:b9:95:c7:6e:b6:84:
         63:05:6e:c6:94:9c:83:f3:51:37:3e:f0:5a:38:96:f7:08:4c:
         77:09:33:5a:00:ec:af:2c:29:0d:de:43:36:ca:5e:9b:78:8c:
         f5:7e:3a:5f:6c:af:4c:78:ec:5e:d2:b3:4e:70:1c:5b:3e:f3:
         ca:a7:bf:d7:a1:c0:b4:f3:c9:10:ae:c1:a9:ef:e9:4e:d7:ed:
         83:78:b4:f5
-----BEGIN CERTIFICATE-----
MIIDdzCCAl+gAwIBAgIQc0eZ1bhcwMrJkWmHHIDYczANBgkqhkiG9w0BAQsFADAW
MRQwEgYDVQQDDAt0ZWFtMTI1LW5ldDAeFw0yMjA1MTgxNTA2NTdaFw0yNTA1MDIx
NTA2NTdaMBkxFzAVBgNVBAMMDnRlYW0xMjUtc2VydmVyMIIBIjANBgkqhkiG9w0B
AQEFAAOCAQ8AMIIBCgKCAQEAwz7evBF+0NBIHv61kFffDgYBsCEtpn4miDSh4uNN
jGtNUuyDJLeNTSpCn2onHtn9gOT9iD/b+5efcgU2lMq8VSsFyDSqVP8oE8gT3NJC
qPF/KZsWTjbiaqgGE1bWz0VF5g7byzhvvDqJPdWb53enDD5Nk9qtUzj16C8J3Fqd
4lXkx+gyPG1njOwHvSv0Nhry3IzM4kfCI+n0+Kd8vUrCR+1Sf5azNJVlo2h5yys7
1gqynpqEbONnxrpb72J5kreveptMNqkwJWO574XT5ocDVRZRc0TvEWsJyJ77/dyG
SgA0tSXBqhCIviwAVj6RSKU+ZfvDsZdLmsayZ9/L2zDMewIDAQABo4G9MIG6MAkG
A1UdEwQCMAAwHQYDVR0OBBYEFG4dIeSZ7Miga2fKKoHV7pLedeqgMFEGA1UdIwRK
MEiAFAe/ohE0d3UBXNdr1y2PYxLJ28Z8oRqkGDAWMRQwEgYDVQQDDAt0ZWFtMTI1
LW5ldIIUUx44PB3zypvlWzNM9838EIJ2+vcwEwYDVR0lBAwwCgYIKwYBBQUHAwEw
CwYDVR0PBAQDAgWgMBkGA1UdEQQSMBCCDnRlYW0xMjUtc2VydmVyMA0GCSqGSIb3
DQEBCwUAA4IBAQANiPYloPHTZMPyt1f0ralZ9PlFN0QhM7whWEIwq+vhtdBe8UnC
m1ZlogcFR1Flc3m1aYvtHNMwKwzDh2tz0ITItYdj1rKhYlRBL9m9996vVHzOQGjc
WXJrYWyk7/HlC4qiNw6yG1wdtXDpNeTLexVOXtryq3MtTQDYKixI1zkVLqRdm0vB
BxxAPhuryU+sZhLMF54203APila5AInJuqKbMMv2fAqKg8jSQVJtIg+5lcdutoRj
BW7GlJyD81E3PvBaOJb3CEx3CTNaAOyvLCkN3kM2yl6beIz1fjpfbK9MeOxe0rNO
cBxbPvPKp7/XocC088kQrsGp7+lO1+2DeLT1
-----END CERTIFICATE-----
