Certificate:
    Data:
        Version: 3 (0x2)
        Serial Number:
            0c:1e:a1:32:ea:6a:7b:6a:16:de:e7:ea:38:e6:9b:03
        Signature Algorithm: sha256WithRSAEncryption
        Issuer: CN=team62-net
        Validity
            Not Before: May 18 14:26:28 2022 GMT
            Not After : May  2 14:26:28 2025 GMT
        Subject: CN=team62-server
        Subject Public Key Info:
            Public Key Algorithm: rsaEncryption
                RSA Public-Key: (2048 bit)
                Modulus:
                    00:c6:9b:da:4a:2e:01:29:31:8c:d5:1c:8d:f3:86:
                    7e:ba:22:cf:69:1c:2c:0e:91:13:d0:29:19:95:ef:
                    f9:5b:5e:84:58:9a:c4:ed:77:7b:5d:fb:f1:05:2e:
                    07:9b:f8:86:02:5a:0b:e9:8f:85:05:98:93:ab:f0:
                    fc:11:f0:06:c1:21:3b:cf:90:85:fb:9b:08:c4:26:
                    62:9b:e3:53:e2:e3:91:5b:96:83:9c:d4:08:bb:6e:
                    3c:83:51:ca:bb:9a:19:e1:a6:17:06:fb:80:c5:50:
                    8b:3b:e3:78:d8:98:9e:54:0c:2f:20:14:af:5b:11:
                    fa:cc:5e:a1:9e:ba:5f:86:1f:1a:a4:1f:6e:a4:52:
                    eb:f9:67:2b:fe:ab:10:52:6c:4f:41:10:ad:a7:19:
                    03:ec:24:42:67:ba:fa:06:61:ac:64:67:28:df:bf:
                    52:6a:4e:24:a0:c0:55:58:4e:fc:d7:d3:ef:c0:24:
                    dd:b2:fc:35:e8:92:0c:67:70:9a:85:f0:40:ac:b7:
                    0e:ac:0f:dd:b6:35:e0:11:d4:2d:49:cb:07:67:cb:
                    b7:ed:40:37:d2:fb:df:38:85:47:d7:f7:d2:56:42:
                    da:59:75:8a:8f:1e:f1:47:b1:87:c4:59:c4:29:e2:
                    0a:7a:6b:19:ab:a4:e1:15:08:d1:7a:04:c2:8c:fa:
                    c8:c7
                Exponent: 65537 (0x10001)
        X509v3 extensions:
            X509v3 Basic Constraints: 
                CA:FALSE
            X509v3 Subject Key Identifier: 
                33:7F:6A:A0:58:89:80:0C:D6:05:CE:54:64:98:0D:2D:04:1D:4B:25
            X509v3 Authority Key Identifier: 
                keyid:D2:61:22:A0:5C:61:79:47:0E:7B:18:1B:E6:2B:F6:F2:D0:7C:58:E4
                DirName:/CN=team62-net
                serial:7B:FE:6D:58:4F:B0:F0:B3:3E:35:E1:F8:CB:4A:0B:FF:10:54:9C:97

            X509v3 Extended Key Usage: 
                TLS Web Server Authentication
            X509v3 Key Usage: 
                Digital Signature, Key Encipherment
            X509v3 Subject Alternative Name: 
                DNS:team62-server
    Signature Algorithm: sha256WithRSAEncryption
         42:55:fb:a0:11:d1:b4:93:43:e2:d5:d7:6c:1c:23:28:ad:f7:
         ac:c5:db:05:9b:06:15:5f:4d:a7:72:5c:e0:3d:12:d4:d8:2d:
         49:36:b9:11:c4:11:9f:99:15:12:ff:03:c5:1e:0a:a8:ac:74:
         3f:92:14:3d:b2:55:6c:74:cc:8a:89:dd:44:83:6d:ca:7a:b7:
         48:8b:c7:f6:51:ba:0f:4e:9d:49:3f:15:be:be:68:cb:53:c2:
         06:18:dd:a4:cd:8d:2e:c2:bf:66:4d:c4:b2:33:73:cc:e7:40:
         81:e2:d4:61:6b:9f:9a:d2:42:43:95:58:e1:e8:94:a5:bd:79:
         0e:70:47:d4:86:e9:45:a7:c9:dd:c8:58:3e:aa:68:5a:7a:71:
         87:f3:38:0f:5d:b7:a7:44:a6:25:e3:97:43:01:1e:0c:92:db:
         a1:95:6e:29:ee:88:cf:25:73:60:56:8d:62:74:a0:92:30:2d:
         9e:cd:2c:cb:80:53:1f:a6:60:08:14:10:36:be:12:35:ca:ac:
         7f:cc:b1:a6:28:30:76:87:a5:b2:02:e6:cf:ad:33:1f:df:89:
         5f:24:ea:fc:f8:0f:7b:00:ce:73:8b:e5:ce:6b:da:d7:9d:db:
         7e:12:fa:63:59:f8:25:5b:ca:b3:3c:80:bc:7e:84:e4:ff:7d:
         c6:e0:2f:c1
-----BEGIN CERTIFICATE-----
MIIDczCCAlugAwIBAgIQDB6hMupqe2oW3ufqOOabAzANBgkqhkiG9w0BAQsFADAV
MRMwEQYDVQQDDAp0ZWFtNjItbmV0MB4XDTIyMDUxODE0MjYyOFoXDTI1MDUwMjE0
MjYyOFowGDEWMBQGA1UEAwwNdGVhbTYyLXNlcnZlcjCCASIwDQYJKoZIhvcNAQEB
BQADggEPADCCAQoCggEBAMab2kouASkxjNUcjfOGfroiz2kcLA6RE9ApGZXv+Vte
hFiaxO13e1378QUuB5v4hgJaC+mPhQWYk6vw/BHwBsEhO8+QhfubCMQmYpvjU+Lj
kVuWg5zUCLtuPINRyruaGeGmFwb7gMVQizvjeNiYnlQMLyAUr1sR+sxeoZ66X4Yf
GqQfbqRS6/lnK/6rEFJsT0EQracZA+wkQme6+gZhrGRnKN+/UmpOJKDAVVhO/NfT
78Ak3bL8NeiSDGdwmoXwQKy3DqwP3bY14BHULUnLB2fLt+1AN9L73ziFR9f30lZC
2ll1io8e8Uexh8RZxCniCnprGauk4RUI0XoEwoz6yMcCAwEAAaOBuzCBuDAJBgNV
HRMEAjAAMB0GA1UdDgQWBBQzf2qgWImADNYFzlRkmA0tBB1LJTBQBgNVHSMESTBH
gBTSYSKgXGF5Rw57GBvmK/by0HxY5KEZpBcwFTETMBEGA1UEAwwKdGVhbTYyLW5l
dIIUe/5tWE+w8LM+NeH4y0oL/xBUnJcwEwYDVR0lBAwwCgYIKwYBBQUHAwEwCwYD
VR0PBAQDAgWgMBgGA1UdEQQRMA+CDXRlYW02Mi1zZXJ2ZXIwDQYJKoZIhvcNAQEL
BQADggEBAEJV+6AR0bSTQ+LV12wcIyit96zF2wWbBhVfTadyXOA9EtTYLUk2uRHE
EZ+ZFRL/A8UeCqisdD+SFD2yVWx0zIqJ3USDbcp6t0iLx/ZRug9OnUk/Fb6+aMtT
wgYY3aTNjS7Cv2ZNxLIzc8znQIHi1GFrn5rSQkOVWOHolKW9eQ5wR9SG6UWnyd3I
WD6qaFp6cYfzOA9dt6dEpiXjl0MBHgyS26GVbinuiM8lc2BWjWJ0oJIwLZ7NLMuA
Ux+mYAgUEDa+EjXKrH/MsaYoMHaHpbIC5s+tMx/fiV8k6vz4D3sAznOL5c5r2ted
234S+mNZ+CVbyrM8gLx+hOT/fcbgL8E=
-----END CERTIFICATE-----
