Certificate:
    Data:
        Version: 3 (0x2)
        Serial Number:
            1f:52:fa:34:b7:09:df:1c:d8:32:57:c0:af:c4:78:71
        Signature Algorithm: sha256WithRSAEncryption
        Issuer: CN=team62-net
        Validity
            Not Before: May 18 14:26:28 2022 GMT
            Not After : May  2 14:26:28 2025 GMT
        Subject: CN=team62-client
        Subject Public Key Info:
            Public Key Algorithm: rsaEncryption
                RSA Public-Key: (2048 bit)
                Modulus:
                    00:bc:c3:7a:6a:19:4d:ac:c8:a7:0a:46:bc:83:67:
                    aa:7d:02:f7:e5:f5:96:7c:92:09:3b:07:03:86:c9:
                    47:7d:5f:54:69:ca:41:cf:b9:49:6e:48:bd:29:b3:
                    13:2c:3b:c7:32:94:04:16:10:51:ce:b9:3b:92:a5:
                    0c:7f:3d:77:39:01:8a:be:82:ee:45:a3:50:49:a5:
                    e2:62:7c:e3:c1:8d:a6:03:19:bc:b7:3b:48:39:53:
                    5d:43:3a:26:af:28:05:62:f9:d0:ee:1b:a4:1a:eb:
                    e2:7d:39:78:81:82:7f:ff:37:92:6f:d2:df:4a:66:
                    46:e5:a4:ff:c9:e8:4e:c7:a8:03:e7:e1:b6:6d:03:
                    ff:1b:01:30:8a:ae:d4:4a:08:e2:22:59:65:07:ae:
                    da:82:13:22:d1:6f:0d:ce:7a:23:8d:b4:56:0a:93:
                    8a:b1:81:e8:f0:f1:12:c5:ec:e1:02:6d:47:81:d7:
                    af:d6:bd:89:d7:f9:f7:a4:bc:64:8d:6a:75:d2:f3:
                    12:40:de:2f:c0:84:67:38:e9:6a:f6:f5:dd:1f:af:
                    d9:36:26:23:24:c9:71:dc:95:f4:c7:9c:c7:b1:ce:
                    3c:04:cd:9c:cd:09:87:29:3f:c6:90:31:b9:c0:c5:
                    f2:74:21:5b:af:5f:b0:89:d8:33:74:b8:d9:25:7c:
                    3a:6f
                Exponent: 65537 (0x10001)
        X509v3 extensions:
            X509v3 Basic Constraints: 
                CA:FALSE
            X509v3 Subject Key Identifier: 
                3B:0E:73:E8:A4:F8:5D:05:55:B8:86:F6:75:E0:E8:1C:B9:62:02:09
            X509v3 Authority Key Identifier: 
                keyid:D2:61:22:A0:5C:61:79:47:0E:7B:18:1B:E6:2B:F6:F2:D0:7C:58:E4
                DirName:/CN=team62-net
                serial:7B:FE:6D:58:4F:B0:F0:B3:3E:35:E1:F8:CB:4A:0B:FF:10:54:9C:97

            X509v3 Extended Key Usage: 
                TLS Web Client Authentication
            X509v3 Key Usage: 
                Digital Signature
    Signature Algorithm: sha256WithRSAEncryption
         0f:d5:16:ba:eb:2a:5e:13:89:ae:c0:49:67:d4:73:de:30:48:
         5a:10:6c:ca:22:a5:a2:54:fd:68:05:3e:5a:48:68:01:31:c9:
         f1:e8:1b:0f:c8:3b:df:f5:3b:2c:86:49:84:2a:b2:f3:cd:6e:
         bd:48:0e:26:90:9e:7f:c5:4e:4f:fd:16:b8:1f:ac:06:2a:16:
         ec:5d:a7:18:d3:6c:95:37:bc:e2:7e:90:3d:73:cf:96:92:91:
         56:91:13:90:33:75:ec:25:38:99:74:0b:3e:f8:a4:d4:76:e1:
         60:13:5f:4a:c2:a4:69:8d:90:a1:3a:e5:d5:6a:47:44:05:f0:
         5f:24:33:15:cb:59:24:65:ff:17:08:02:25:a9:84:3c:cd:ca:
         65:b1:1a:27:e2:0d:b4:b3:62:fa:31:5c:21:97:e0:f8:54:5b:
         ff:2c:de:6b:dd:06:bc:07:d4:2f:fc:c8:c3:b0:cb:34:0e:14:
         a3:e3:b3:eb:43:53:c4:38:05:33:04:ef:bf:e8:66:75:b4:61:
         46:0f:a0:fd:dd:09:91:73:92:e1:43:6d:b6:25:71:b7:bb:5b:
         c5:f8:8f:8b:42:a6:1c:0b:93:68:66:2b:63:3b:f0:28:ec:f5:
         f3:01:c7:a6:70:b2:43:a9:2c:97:11:8b:7b:e3:0c:56:75:22:
         be:39:9a:65
-----BEGIN CERTIFICATE-----
MIIDWTCCAkGgAwIBAgIQH1L6NLcJ3xzYMlfAr8R4cTANBgkqhkiG9w0BAQsFADAV
MRMwEQYDVQQDDAp0ZWFtNjItbmV0MB4XDTIyMDUxODE0MjYyOFoXDTI1MDUwMjE0
MjYyOFowGDEWMBQGA1UEAwwNdGVhbTYyLWNsaWVudDCCASIwDQYJKoZIhvcNAQEB
BQADggEPADCCAQoCggEBALzDemoZTazIpwpGvINnqn0C9+X1lnySCTsHA4bJR31f
VGnKQc+5SW5IvSmzEyw7xzKUBBYQUc65O5KlDH89dzkBir6C7kWjUEml4mJ848GN
pgMZvLc7SDlTXUM6Jq8oBWL50O4bpBrr4n05eIGCf/83km/S30pmRuWk/8noTseo
A+fhtm0D/xsBMIqu1EoI4iJZZQeu2oITItFvDc56I420VgqTirGB6PDxEsXs4QJt
R4HXr9a9idf596S8ZI1qddLzEkDeL8CEZzjpavb13R+v2TYmIyTJcdyV9Mecx7HO
PATNnM0Jhyk/xpAxucDF8nQhW69fsInYM3S42SV8Om8CAwEAAaOBoTCBnjAJBgNV
HRMEAjAAMB0GA1UdDgQWBBQ7DnPopPhdBVW4hvZ14OgcuWICCTBQBgNVHSMESTBH
gBTSYSKgXGF5Rw57GBvmK/by0HxY5KEZpBcwFTETMBEGA1UEAwwKdGVhbTYyLW5l
dIIUe/5tWE+w8LM+NeH4y0oL/xBUnJcwEwYDVR0lBAwwCgYIKwYBBQUHAwIwCwYD
VR0PBAQDAgeAMA0GCSqGSIb3DQEBCwUAA4IBAQAP1Ra66ypeE4muwEln1HPeMEha
EGzKIqWiVP1oBT5aSGgBMcnx6BsPyDvf9TsshkmEKrLzzW69SA4mkJ5/xU5P/Ra4
H6wGKhbsXacY02yVN7zifpA9c8+WkpFWkROQM3XsJTiZdAs++KTUduFgE19KwqRp
jZChOuXVakdEBfBfJDMVy1kkZf8XCAIlqYQ8zcplsRon4g20s2L6MVwhl+D4VFv/
LN5r3Qa8B9Qv/MjDsMs0DhSj47PrQ1PEOAUzBO+/6GZ1tGFGD6D93QmRc5LhQ222
JXG3u1vF+I+LQqYcC5NoZitjO/Ao7PXzAcemcLJDqSyXEYt74wxWdSK+OZpl
-----END CERTIFICATE-----
