Certificate:
    Data:
        Version: 3 (0x2)
        Serial Number:
            d7:c0:82:e8:cd:95:8c:75:b4:ec:08:78:a2:9f:b6:d7
        Signature Algorithm: sha256WithRSAEncryption
        Issuer: CN=team313-net
        Validity
            Not Before: May 18 20:14:51 2022 GMT
            Not After : May  2 20:14:51 2025 GMT
        Subject: CN=team313-server
        Subject Public Key Info:
            Public Key Algorithm: rsaEncryption
                RSA Public-Key: (2048 bit)
                Modulus:
                    00:dd:f8:9e:59:1d:c8:17:04:22:59:29:d1:c0:6a:
                    de:de:53:f4:7e:35:57:46:c9:3b:19:49:11:f7:49:
                    36:81:e0:5f:dd:5b:50:b6:24:f2:bd:10:7a:20:70:
                    df:3a:96:a0:4c:81:d6:57:62:2a:7e:f8:c2:fe:ca:
                    af:33:45:f9:67:c9:88:7d:62:76:04:67:29:80:85:
                    4f:c6:ad:6d:47:3d:30:7f:4c:81:e5:1d:a1:45:79:
                    23:cd:b5:50:df:31:19:23:4e:32:1c:db:06:7e:c2:
                    20:aa:83:7c:e6:b9:98:8b:bd:46:53:85:be:84:37:
                    96:84:f1:41:1a:0d:b6:f7:98:8f:5e:b1:97:ef:f4:
                    c5:55:8b:3f:3b:60:d9:4a:d6:2f:91:b0:9d:0c:61:
                    bf:58:a5:9e:fb:6e:a5:1d:0b:8b:a6:a4:b8:04:64:
                    49:93:fb:49:39:ac:0e:c0:15:b8:13:7e:67:9c:92:
                    38:20:3d:62:36:03:df:09:1e:81:2f:18:f3:da:a0:
                    3b:6a:1e:b9:f4:c5:ca:97:e3:25:65:08:ac:7d:c1:
                    7e:8e:a6:18:ec:6b:92:83:4d:ec:47:4d:2f:52:87:
                    9b:86:58:22:2f:8f:ba:50:47:4e:b6:7e:27:74:c7:
                    29:4e:e7:c6:6e:22:33:50:2c:fd:36:01:9a:62:d7:
                    a5:93
                Exponent: 65537 (0x10001)
        X509v3 extensions:
            X509v3 Basic Constraints: 
                CA:FALSE
            X509v3 Subject Key Identifier: 
                DE:49:7C:13:9B:C1:BC:5C:25:AF:F2:F8:60:EC:A2:F4:F7:2E:E4:F1
            X509v3 Authority Key Identifier: 
                keyid:EE:09:34:75:40:32:00:99:15:4E:45:E6:51:16:4A:98:B2:FC:47:E1
                DirName:/CN=team313-net
                serial:0A:03:4D:D6:76:3F:E5:4C:18:1E:26:F2:96:D9:84:CA:5F:B9:00:FE

            X509v3 Extended Key Usage: 
                TLS Web Server Authentication
            X509v3 Key Usage: 
                Digital Signature, Key Encipherment
            X509v3 Subject Alternative Name: 
                DNS:team313-server
    Signature Algorithm: sha256WithRSAEncryption
         6b:6b:ad:f7:06:04:17:83:44:8d:45:79:fa:ac:1b:9b:8b:60:
         07:84:a0:52:a5:07:43:16:9f:9c:4b:ae:af:0b:cf:61:0b:5e:
         05:61:78:81:8a:36:4a:8d:e6:ea:2b:ca:99:f2:2c:c2:fc:36:
         b5:08:b9:57:6e:3e:11:28:28:a4:47:3f:d1:21:4d:a5:42:87:
         1b:c8:09:57:e4:2e:24:ef:5d:1e:64:b8:43:2a:11:17:3c:09:
         bb:b2:57:82:4d:0e:69:18:18:44:a8:2f:bd:a4:c8:cf:f8:a4:
         e0:71:3d:33:d8:18:99:a4:36:29:6b:a1:be:13:42:6d:95:8c:
         0e:7a:cf:04:b6:f2:a3:9f:3f:fc:19:11:29:7d:15:a4:a2:ad:
         c2:b0:d0:17:38:a5:be:bb:7d:53:eb:af:64:1b:48:ca:4f:52:
         9f:c7:3b:ca:79:49:25:bf:d7:bc:c5:c0:6b:96:b7:75:60:6d:
         32:5d:45:93:6e:f7:ca:07:c3:1a:72:67:6a:60:a6:4e:46:60:
         32:ac:3a:8c:ab:5d:9e:0d:e5:a7:21:fc:c8:2d:1e:34:a8:fa:
         df:58:bf:a5:dc:8a:79:68:f4:88:4f:a7:66:cf:67:dc:57:5f:
         44:09:ac:7a:83:3d:2b:6f:b8:6b:5f:1e:70:60:b9:2e:31:e3:
         31:23:88:d9
-----BEGIN CERTIFICATE-----
MIIDeDCCAmCgAwIBAgIRANfAgujNlYx1tOwIeKKfttcwDQYJKoZIhvcNAQELBQAw
FjEUMBIGA1UEAwwLdGVhbTMxMy1uZXQwHhcNMjIwNTE4MjAxNDUxWhcNMjUwNTAy
MjAxNDUxWjAZMRcwFQYDVQQDDA50ZWFtMzEzLXNlcnZlcjCCASIwDQYJKoZIhvcN
AQEBBQADggEPADCCAQoCggEBAN34nlkdyBcEIlkp0cBq3t5T9H41V0bJOxlJEfdJ
NoHgX91bULYk8r0QeiBw3zqWoEyB1ldiKn74wv7KrzNF+WfJiH1idgRnKYCFT8at
bUc9MH9MgeUdoUV5I821UN8xGSNOMhzbBn7CIKqDfOa5mIu9RlOFvoQ3loTxQRoN
tveYj16xl+/0xVWLPztg2UrWL5GwnQxhv1ilnvtupR0Li6akuARkSZP7STmsDsAV
uBN+Z5ySOCA9YjYD3wkegS8Y89qgO2oeufTFypfjJWUIrH3Bfo6mGOxrkoNN7EdN
L1KHm4ZYIi+PulBHTrZ+J3THKU7nxm4iM1As/TYBmmLXpZMCAwEAAaOBvTCBujAJ
BgNVHRMEAjAAMB0GA1UdDgQWBBTeSXwTm8G8XCWv8vhg7KL09y7k8TBRBgNVHSME
SjBIgBTuCTR1QDIAmRVOReZRFkqYsvxH4aEapBgwFjEUMBIGA1UEAwwLdGVhbTMx
My1uZXSCFAoDTdZ2P+VMGB4m8pbZhMpfuQD+MBMGA1UdJQQMMAoGCCsGAQUFBwMB
MAsGA1UdDwQEAwIFoDAZBgNVHREEEjAQgg50ZWFtMzEzLXNlcnZlcjANBgkqhkiG
9w0BAQsFAAOCAQEAa2ut9wYEF4NEjUV5+qwbm4tgB4SgUqUHQxafnEuurwvPYQte
BWF4gYo2So3m6ivKmfIswvw2tQi5V24+ESgopEc/0SFNpUKHG8gJV+QuJO9dHmS4
QyoRFzwJu7JXgk0OaRgYRKgvvaTIz/ik4HE9M9gYmaQ2KWuhvhNCbZWMDnrPBLby
o58//BkRKX0VpKKtwrDQFzilvrt9U+uvZBtIyk9Sn8c7ynlJJb/XvMXAa5a3dWBt
Ml1Fk273ygfDGnJnamCmTkZgMqw6jKtdng3lpyH8yC0eNKj631i/pdyKeWj0iE+n
Zs9n3FdfRAmseoM9K2+4a18ecGC5LjHjMSOI2Q==
-----END CERTIFICATE-----
