Certificate:
    Data:
        Version: 3 (0x2)
        Serial Number:
            22:25:17:27:6e:81:76:3f:9b:d3:f2:b1:5e:ba:1d:66
        Signature Algorithm: sha256WithRSAEncryption
        Issuer: CN=team214-net
        Validity
            Not Before: May 18 19:17:40 2022 GMT
            Not After : May  2 19:17:40 2025 GMT
        Subject: CN=team214-server
        Subject Public Key Info:
            Public Key Algorithm: rsaEncryption
                RSA Public-Key: (2048 bit)
                Modulus:
                    00:c8:86:18:82:a3:ae:0f:37:33:14:ec:d2:fd:8a:
                    46:94:53:3f:90:9e:9f:0b:f7:39:2c:61:66:ea:d2:
                    79:4e:e7:b1:bf:bc:63:c2:d2:b0:d9:44:c8:f2:e2:
                    b8:42:b8:5e:d9:d2:63:83:a1:6c:e9:b5:43:c8:bc:
                    d7:37:34:3a:91:c5:bb:30:95:20:e5:25:82:76:ca:
                    e6:b3:29:b2:9f:c4:ab:07:4c:31:68:24:4a:7c:a3:
                    0a:ce:87:23:ba:c0:cc:52:5b:82:21:0f:fc:61:c5:
                    40:e4:64:7e:3c:33:5f:15:2c:28:38:22:e8:e6:d5:
                    97:01:1f:9d:c3:5f:f7:f5:2e:21:1b:b8:91:d4:4a:
                    a3:f6:65:83:d1:60:37:9f:ee:79:cc:f6:cb:b1:50:
                    49:d9:5c:dc:68:c5:f3:d5:c3:ef:3a:11:c6:d1:a1:
                    f8:9d:3c:1d:17:12:58:04:c7:05:4b:13:eb:7f:05:
                    2c:07:3f:b5:f2:28:38:3a:7f:8a:c6:40:63:af:9b:
                    e2:cb:b1:bf:55:86:72:c4:34:54:33:c9:89:b1:b8:
                    b0:8f:f5:e8:82:76:f1:94:a2:50:28:8f:b9:08:ee:
                    4a:ae:c5:7e:fe:d4:c9:fb:19:58:04:e6:40:36:6f:
                    5e:78:05:1b:78:67:0e:c1:02:f5:5a:da:94:40:06:
                    7f:1f
                Exponent: 65537 (0x10001)
        X509v3 extensions:
            X509v3 Basic Constraints: 
                CA:FALSE
            X509v3 Subject Key Identifier: 
                32:EB:C1:07:F2:E3:6C:90:B1:15:B1:CC:C7:0C:40:C6:62:70:09:F7
            X509v3 Authority Key Identifier: 
                keyid:64:49:BE:81:6F:ED:3B:B7:79:22:9C:F1:AA:D4:F8:A8:8A:E8:88:D1
                DirName:/CN=team214-net
                serial:7D:5D:08:AA:22:F4:E9:12:67:B6:69:A7:22:6D:EB:5A:1C:AA:AE:62

            X509v3 Extended Key Usage: 
                TLS Web Server Authentication
            X509v3 Key Usage: 
                Digital Signature, Key Encipherment
            X509v3 Subject Alternative Name: 
                DNS:team214-server
    Signature Algorithm: sha256WithRSAEncryption
         34:3d:67:79:87:6e:65:77:c8:e3:8a:0f:5b:45:1f:c4:08:5a:
         ca:60:ab:24:c7:11:a3:0f:16:eb:a7:c4:35:66:ac:85:27:33:
         8b:43:3e:65:56:1f:c9:a0:f2:31:4b:5e:35:f6:94:fe:ab:6d:
         17:69:6d:48:70:ec:4c:69:ff:b9:cf:f2:13:6d:b7:41:aa:3a:
         5a:c1:ff:e3:13:f9:c5:8e:1f:f5:09:fd:27:b7:60:6d:72:fa:
         4e:98:70:60:90:51:d8:d2:05:fa:79:1c:c1:72:98:99:49:42:
         3c:b0:91:be:38:06:6f:f8:97:2c:59:2d:f5:56:75:87:97:2c:
         68:fe:93:82:50:df:b6:ef:bd:26:73:8a:f9:a8:8b:9a:91:b7:
         ec:11:e5:2e:10:10:de:19:1d:a7:42:d9:f0:4f:8c:c2:d1:b5:
         e1:cb:09:35:c8:a3:2b:60:75:e2:00:f6:bb:69:b9:39:c6:72:
         75:7e:3f:2b:cc:fc:0e:ab:be:99:e3:ad:44:7b:80:8a:ea:6d:
         7a:17:8d:a7:96:58:8e:8f:e9:07:5c:58:31:58:de:fc:c1:e7:
         82:f8:7c:84:bf:55:83:f1:e6:75:64:7f:b7:d3:82:d9:1b:9e:
         b8:85:2b:4c:29:eb:9e:9d:93:df:77:0b:5a:a8:23:90:5f:03:
         0c:d0:a6:12
-----BEGIN CERTIFICATE-----
MIIDdzCCAl+gAwIBAgIQIiUXJ26Bdj+b0/KxXrodZjANBgkqhkiG9w0BAQsFADAW
MRQwEgYDVQQDDAt0ZWFtMjE0LW5ldDAeFw0yMjA1MTgxOTE3NDBaFw0yNTA1MDIx
OTE3NDBaMBkxFzAVBgNVBAMMDnRlYW0yMTQtc2VydmVyMIIBIjANBgkqhkiG9w0B
AQEFAAOCAQ8AMIIBCgKCAQEAyIYYgqOuDzczFOzS/YpGlFM/kJ6fC/c5LGFm6tJ5
Tuexv7xjwtKw2UTI8uK4Qrhe2dJjg6Fs6bVDyLzXNzQ6kcW7MJUg5SWCdsrmsymy
n8SrB0wxaCRKfKMKzocjusDMUluCIQ/8YcVA5GR+PDNfFSwoOCLo5tWXAR+dw1/3
9S4hG7iR1Eqj9mWD0WA3n+55zPbLsVBJ2VzcaMXz1cPvOhHG0aH4nTwdFxJYBMcF
SxPrfwUsBz+18ig4On+KxkBjr5viy7G/VYZyxDRUM8mJsbiwj/XognbxlKJQKI+5
CO5KrsV+/tTJ+xlYBOZANm9eeAUbeGcOwQL1WtqUQAZ/HwIDAQABo4G9MIG6MAkG
A1UdEwQCMAAwHQYDVR0OBBYEFDLrwQfy42yQsRWxzMcMQMZicAn3MFEGA1UdIwRK
MEiAFGRJvoFv7Tu3eSKc8arU+KiK6IjRoRqkGDAWMRQwEgYDVQQDDAt0ZWFtMjE0
LW5ldIIUfV0IqiL06RJntmmnIm3rWhyqrmIwEwYDVR0lBAwwCgYIKwYBBQUHAwEw
CwYDVR0PBAQDAgWgMBkGA1UdEQQSMBCCDnRlYW0yMTQtc2VydmVyMA0GCSqGSIb3
DQEBCwUAA4IBAQA0PWd5h25ld8jjig9bRR/ECFrKYKskxxGjDxbrp8Q1ZqyFJzOL
Qz5lVh/JoPIxS1419pT+q20XaW1IcOxMaf+5z/ITbbdBqjpawf/jE/nFjh/1Cf0n
t2BtcvpOmHBgkFHY0gX6eRzBcpiZSUI8sJG+OAZv+JcsWS31VnWHlyxo/pOCUN+2
770mc4r5qIuakbfsEeUuEBDeGR2nQtnwT4zC0bXhywk1yKMrYHXiAPa7abk5xnJ1
fj8rzPwOq76Z461Ee4CK6m16F42nlliOj+kHXFgxWN78weeC+HyEv1WD8eZ1ZH+3
04LZG564hStMKeuenZPfdwtaqCOQXwMM0KYS
-----END CERTIFICATE-----
