Certificate:
    Data:
        Version: 3 (0x2)
        Serial Number:
            7e:ee:56:d4:c9:52:d1:2d:09:d6:c8:c3:95:ec:c6:f2
        Signature Algorithm: sha256WithRSAEncryption
        Issuer: CN=team625-net
        Validity
            Not Before: May 18 23:04:26 2022 GMT
            Not After : May  2 23:04:26 2025 GMT
        Subject: CN=team625-client
        Subject Public Key Info:
            Public Key Algorithm: rsaEncryption
                RSA Public-Key: (2048 bit)
                Modulus:
                    00:d2:12:7e:e4:35:37:00:ca:3f:d0:4c:0e:90:b3:
                    9d:cf:38:9c:fe:2e:45:dd:5f:ae:74:e3:2c:f3:81:
                    f0:53:00:df:55:7d:9a:bf:26:26:69:5f:25:20:cb:
                    e6:8d:ae:47:9d:ba:8a:6c:4e:fa:4b:fa:c2:fc:b5:
                    e8:55:d5:23:f4:72:dc:b2:f6:22:09:28:9e:c8:d0:
                    1a:8a:f4:dc:52:9e:5a:7f:56:6d:73:3d:cd:1d:77:
                    6e:6e:e7:c4:3c:2a:f5:d6:ff:ab:f2:00:ad:54:20:
                    90:ff:bb:4a:6d:26:7e:9f:1f:50:f0:dc:df:83:a0:
                    1d:64:4a:9d:19:53:86:7f:13:0c:da:14:8d:ae:21:
                    24:de:5e:62:60:25:0f:34:87:5c:4b:4b:d6:b9:d8:
                    c0:d3:b9:63:5b:b9:5a:2d:46:bf:31:90:3b:f0:b1:
                    5a:22:41:31:d4:00:53:1d:a1:62:1c:fc:43:d2:45:
                    96:06:4d:72:4d:6e:02:c9:e7:ff:fa:ea:5c:0e:e7:
                    a2:d3:1d:cc:2b:76:0e:20:1e:4c:bc:4c:3f:96:93:
                    bc:a4:06:fd:61:e1:4b:b0:f8:57:8b:d6:41:b7:42:
                    23:13:f2:fe:d0:6f:f8:13:33:54:54:37:1e:d0:8c:
                    2b:96:25:8d:9a:c6:30:12:ee:f6:66:a4:ba:ad:9e:
                    c3:05
                Exponent: 65537 (0x10001)
        X509v3 extensions:
            X509v3 Basic Constraints: 
                CA:FALSE
            X509v3 Subject Key Identifier: 
                99:C5:44:9E:6C:65:E8:E2:A1:57:5F:9C:A6:D7:98:8A:27:AE:E5:20
            X509v3 Authority Key Identifier: 
                keyid:29:B7:62:BE:27:E1:6C:BD:0B:00:71:1B:AA:CC:E6:E4:6C:2D:6E:B5
                DirName:/CN=team625-net
                serial:13:74:65:2A:2C:F6:07:6D:44:0A:3A:D8:AC:03:45:1E:95:D3:A5:78

            X509v3 Extended Key Usage: 
                TLS Web Client Authentication
            X509v3 Key Usage: 
                Digital Signature
    Signature Algorithm: sha256WithRSAEncryption
         85:ba:b3:83:c1:03:9d:4c:e3:d7:9c:a3:55:2b:24:57:3b:1b:
         f8:8a:f6:f3:ff:f2:a8:83:52:1c:cd:db:e1:50:51:2b:fc:23:
         d3:1b:c1:b5:91:d9:49:f4:3f:c2:01:89:f9:d5:a8:a7:5b:38:
         1e:c2:56:b3:92:23:b2:26:33:c6:cd:30:1d:e5:b1:9b:f8:a6:
         01:01:d7:7e:80:1a:1d:0f:ff:ca:6d:cd:84:9f:b6:ce:84:e4:
         20:1b:ef:68:86:df:6c:b7:c9:8a:5a:eb:30:cf:67:4d:72:96:
         3a:fa:8d:b0:6d:97:bc:d7:b3:9a:95:4c:bb:b9:87:31:34:56:
         31:19:3b:67:58:86:14:c5:05:cb:3b:14:1d:16:6c:b5:dc:b3:
         59:8b:36:42:07:df:9a:a2:14:80:15:42:7a:7a:48:b6:0b:12:
         20:06:31:14:e7:31:a8:db:fa:15:4a:5c:2a:f9:f9:bb:91:ab:
         ae:f5:88:00:1e:84:92:21:73:94:cf:ca:38:d3:6e:61:b2:56:
         8f:ad:75:d7:ad:5c:7c:d3:67:80:a7:d7:3c:a1:cc:d9:de:4c:
         1a:7a:dd:50:d9:8c:e2:f2:21:64:f6:e7:f0:ee:75:a8:5b:8b:
         11:14:01:86:f1:d3:3e:1c:5b:32:f3:a1:3b:48:f2:96:68:88:
         23:75:49:7b
-----BEGIN CERTIFICATE-----
MIIDXDCCAkSgAwIBAgIQfu5W1MlS0S0J1sjDlezG8jANBgkqhkiG9w0BAQsFADAW
MRQwEgYDVQQDDAt0ZWFtNjI1LW5ldDAeFw0yMjA1MTgyMzA0MjZaFw0yNTA1MDIy
MzA0MjZaMBkxFzAVBgNVBAMMDnRlYW02MjUtY2xpZW50MIIBIjANBgkqhkiG9w0B
AQEFAAOCAQ8AMIIBCgKCAQEA0hJ+5DU3AMo/0EwOkLOdzzic/i5F3V+udOMs84Hw
UwDfVX2avyYmaV8lIMvmja5HnbqKbE76S/rC/LXoVdUj9HLcsvYiCSieyNAaivTc
Up5af1Ztcz3NHXdubufEPCr11v+r8gCtVCCQ/7tKbSZ+nx9Q8Nzfg6AdZEqdGVOG
fxMM2hSNriEk3l5iYCUPNIdcS0vWudjA07ljW7laLUa/MZA78LFaIkEx1ABTHaFi
HPxD0kWWBk1yTW4Cyef/+upcDuei0x3MK3YOIB5MvEw/lpO8pAb9YeFLsPhXi9ZB
t0IjE/L+0G/4EzNUVDce0IwrliWNmsYwEu72ZqS6rZ7DBQIDAQABo4GiMIGfMAkG
A1UdEwQCMAAwHQYDVR0OBBYEFJnFRJ5sZejioVdfnKbXmIonruUgMFEGA1UdIwRK
MEiAFCm3Yr4n4Wy9CwBxG6rM5uRsLW61oRqkGDAWMRQwEgYDVQQDDAt0ZWFtNjI1
LW5ldIIUE3RlKiz2B21ECjrYrANFHpXTpXgwEwYDVR0lBAwwCgYIKwYBBQUHAwIw
CwYDVR0PBAQDAgeAMA0GCSqGSIb3DQEBCwUAA4IBAQCFurODwQOdTOPXnKNVKyRX
Oxv4ivbz//Kog1IczdvhUFEr/CPTG8G1kdlJ9D/CAYn51ainWzgewlazkiOyJjPG
zTAd5bGb+KYBAdd+gBodD//Kbc2En7bOhOQgG+9oht9st8mKWuswz2dNcpY6+o2w
bZe817OalUy7uYcxNFYxGTtnWIYUxQXLOxQdFmy13LNZizZCB9+aohSAFUJ6eki2
CxIgBjEU5zGo2/oVSlwq+fm7kauu9YgAHoSSIXOUz8o4025hslaPrXXXrVx802eA
p9c8oczZ3kwaet1Q2Yzi8iFk9ufw7nWoW4sRFAGG8dM+HFsy86E7SPKWaIgjdUl7
-----END CERTIFICATE-----
