Certificate:
    Data:
        Version: 3 (0x2)
        Serial Number:
            a8:f1:e1:c8:d7:2f:3d:46:0d:e7:60:3c:63:e2:78:77
        Signature Algorithm: sha256WithRSAEncryption
        Issuer: CN=team113-net
        Validity
            Not Before: May 18 15:00:06 2022 GMT
            Not After : May  2 15:00:06 2025 GMT
        Subject: CN=team113-server
        Subject Public Key Info:
            Public Key Algorithm: rsaEncryption
                RSA Public-Key: (2048 bit)
                Modulus:
                    00:b7:20:48:06:d4:db:ba:3f:07:56:f4:04:09:c4:
                    3a:12:d8:0c:c9:60:97:57:88:53:e0:62:9c:65:41:
                    3a:b8:4a:d6:52:ec:e8:b0:41:af:06:9f:5b:e8:06:
                    20:07:2b:40:93:a9:de:f0:80:9c:20:1c:bc:77:ce:
                    7a:55:b0:e3:fe:2f:a8:39:f1:2b:14:b9:ef:03:bf:
                    74:21:1e:7e:3d:bc:af:35:88:90:11:2e:27:e8:e1:
                    74:32:5f:76:0d:93:cf:ab:8c:ff:6a:1a:3a:29:a9:
                    e2:0e:69:03:2d:af:14:06:5e:f0:79:ad:12:c8:d9:
                    5c:a4:fe:90:0b:db:28:46:60:a7:0f:8d:64:c6:8b:
                    43:a6:44:fd:67:1a:12:8d:3f:d2:62:08:bc:a9:74:
                    70:30:a0:c4:98:1a:67:f8:e7:5f:35:69:fb:2f:70:
                    36:cc:da:bd:52:8b:2b:e2:7b:a8:44:73:3e:43:0c:
                    59:d5:96:dc:7c:c2:d1:85:b6:bf:97:2f:05:fc:2a:
                    ad:13:af:a2:ac:4b:ea:aa:1c:d5:8a:bb:da:cc:25:
                    ec:3e:b8:45:8c:e4:45:7d:32:1c:cd:0f:8d:37:8c:
                    66:f8:f5:d8:48:4a:dc:c3:89:c9:16:e8:77:ce:54:
                    0d:37:23:7f:b0:f0:3d:73:86:c8:9c:07:52:f8:4f:
                    e4:67
                Exponent: 65537 (0x10001)
        X509v3 extensions:
            X509v3 Basic Constraints: 
                CA:FALSE
            X509v3 Subject Key Identifier: 
                E9:D2:3E:17:5F:32:5E:E9:1A:4B:BA:BD:32:2A:A0:C0:A1:FC:E8:7D
            X509v3 Authority Key Identifier: 
                keyid:76:FB:13:F7:15:CC:2F:65:4C:CF:54:42:E0:09:D9:FB:F5:3E:83:A1
                DirName:/CN=team113-net
                serial:62:87:DD:F0:76:B5:A4:ED:A0:D4:E3:88:CA:7A:5C:F9:DA:28:2E:12

            X509v3 Extended Key Usage: 
                TLS Web Server Authentication
            X509v3 Key Usage: 
                Digital Signature, Key Encipherment
            X509v3 Subject Alternative Name: 
                DNS:team113-server
    Signature Algorithm: sha256WithRSAEncryption
         e1:87:ce:f2:27:93:d1:dd:9a:e2:ce:20:52:10:fe:83:a6:4a:
         67:51:67:9c:b2:32:e8:bc:11:72:da:21:cb:79:fd:5e:6d:85:
         c2:21:f6:b2:b8:6f:08:cd:d9:a4:30:3b:e2:cc:82:ad:84:20:
         e6:a4:68:8e:8d:26:ca:17:79:8d:8b:da:b9:37:b3:ef:82:c0:
         98:8e:25:75:ce:df:1d:50:8f:be:e4:d9:29:b2:70:f4:13:f4:
         e9:48:33:9d:d0:df:2b:16:81:d4:0b:3a:50:95:92:e5:58:e2:
         14:cd:e1:16:79:61:10:d5:1e:03:b9:7e:8e:76:77:45:cb:7a:
         43:de:37:e5:e9:13:b4:66:bb:62:f6:16:29:ae:06:e3:20:ff:
         32:ee:ca:36:4a:d9:84:81:b2:f1:d6:32:6c:f3:7b:a0:25:3a:
         ca:30:46:d2:c6:3f:87:43:de:a1:09:f4:23:db:b6:24:9a:f9:
         d2:c0:c1:e3:a0:56:7c:c2:47:91:58:c2:bc:8c:70:97:1c:51:
         9a:9a:05:d6:5a:9e:21:95:fa:5d:d0:a8:a6:7e:54:6f:e0:05:
         e8:5a:83:03:50:7d:29:01:d2:a5:45:18:07:b5:fa:da:d5:64:
         f2:a1:e3:e6:3a:03:df:1e:df:48:e8:5d:6e:26:65:af:e4:b4:
         84:80:53:9a
-----BEGIN CERTIFICATE-----
MIIDeDCCAmCgAwIBAgIRAKjx4cjXLz1GDedgPGPieHcwDQYJKoZIhvcNAQELBQAw
FjEUMBIGA1UEAwwLdGVhbTExMy1uZXQwHhcNMjIwNTE4MTUwMDA2WhcNMjUwNTAy
MTUwMDA2WjAZMRcwFQYDVQQDDA50ZWFtMTEzLXNlcnZlcjCCASIwDQYJKoZIhvcN
AQEBBQADggEPADCCAQoCggEBALcgSAbU27o/B1b0BAnEOhLYDMlgl1eIU+BinGVB
OrhK1lLs6LBBrwafW+gGIAcrQJOp3vCAnCAcvHfOelWw4/4vqDnxKxS57wO/dCEe
fj28rzWIkBEuJ+jhdDJfdg2Tz6uM/2oaOimp4g5pAy2vFAZe8HmtEsjZXKT+kAvb
KEZgpw+NZMaLQ6ZE/WcaEo0/0mIIvKl0cDCgxJgaZ/jnXzVp+y9wNszavVKLK+J7
qERzPkMMWdWW3HzC0YW2v5cvBfwqrROvoqxL6qoc1Yq72swl7D64RYzkRX0yHM0P
jTeMZvj12EhK3MOJyRbod85UDTcjf7DwPXOGyJwHUvhP5GcCAwEAAaOBvTCBujAJ
BgNVHRMEAjAAMB0GA1UdDgQWBBTp0j4XXzJe6RpLur0yKqDAofzofTBRBgNVHSME
SjBIgBR2+xP3FcwvZUzPVELgCdn79T6DoaEapBgwFjEUMBIGA1UEAwwLdGVhbTEx
My1uZXSCFGKH3fB2taTtoNTjiMp6XPnaKC4SMBMGA1UdJQQMMAoGCCsGAQUFBwMB
MAsGA1UdDwQEAwIFoDAZBgNVHREEEjAQgg50ZWFtMTEzLXNlcnZlcjANBgkqhkiG
9w0BAQsFAAOCAQEA4YfO8ieT0d2a4s4gUhD+g6ZKZ1FnnLIy6LwRctohy3n9Xm2F
wiH2srhvCM3ZpDA74syCrYQg5qRojo0myhd5jYvauTez74LAmI4ldc7fHVCPvuTZ
KbJw9BP06UgzndDfKxaB1As6UJWS5VjiFM3hFnlhENUeA7l+jnZ3Rct6Q9435ekT
tGa7YvYWKa4G4yD/Mu7KNkrZhIGy8dYybPN7oCU6yjBG0sY/h0PeoQn0I9u2JJr5
0sDB46BWfMJHkVjCvIxwlxxRmpoF1lqeIZX6XdCopn5Ub+AF6FqDA1B9KQHSpUUY
B7X62tVk8qHj5joD3x7fSOhdbiZlr+S0hIBTmg==
-----END CERTIFICATE-----
