Certificate:
    Data:
        Version: 3 (0x2)
        Serial Number:
            f4:53:5d:a0:6a:8a:ed:e8:38:0b:9d:56:25:36:0a:1c
        Signature Algorithm: sha256WithRSAEncryption
        Issuer: CN=team58-net
        Validity
            Not Before: May 18 14:25:09 2022 GMT
            Not After : May  2 14:25:09 2025 GMT
        Subject: CN=team58-client
        Subject Public Key Info:
            Public Key Algorithm: rsaEncryption
                RSA Public-Key: (2048 bit)
                Modulus:
                    00:9b:13:4f:e6:ba:ab:3f:3d:98:2b:0d:fa:79:ef:
                    3d:09:64:32:5c:53:57:07:52:8e:e4:a3:a1:5e:4a:
                    5a:45:ce:8b:50:f4:ce:b2:11:dc:d8:02:33:93:6b:
                    86:ef:7e:ce:15:39:a8:20:96:07:29:cf:f0:4b:30:
                    bc:2b:6d:18:12:65:06:af:83:00:88:8d:95:a6:64:
                    23:ea:6c:fd:86:01:ae:9b:45:cb:42:2a:ca:37:5b:
                    2f:59:2e:b0:40:cc:69:1a:2f:e4:b0:bf:f4:57:eb:
                    9b:f9:b8:95:e9:d2:7a:fd:b6:8b:18:e4:85:da:55:
                    b7:21:3e:e4:d3:d4:3a:c2:ce:fb:2d:34:01:99:36:
                    c6:e2:ca:de:fc:af:50:da:b8:c8:bc:7c:3b:55:32:
                    50:d8:17:11:09:ea:0f:02:66:75:49:13:e3:df:8c:
                    4d:80:ac:7f:a1:08:10:e8:0c:3b:ff:ac:68:fa:5f:
                    1f:36:a0:23:21:22:18:0c:c8:5a:b0:21:25:5d:20:
                    b0:43:8c:a0:b8:d8:28:97:fb:79:42:d4:5e:d2:1d:
                    a6:db:57:1f:f5:fc:3d:40:f8:5f:7d:07:d8:16:cc:
                    40:da:15:7f:14:07:4f:8a:40:b3:b4:10:1d:98:43:
                    9b:3a:e0:6e:94:f5:14:f4:ba:0b:d0:0f:93:fb:ff:
                    42:53
                Exponent: 65537 (0x10001)
        X509v3 extensions:
            X509v3 Basic Constraints: 
                CA:FALSE
            X509v3 Subject Key Identifier: 
                7B:AC:66:83:5C:33:5A:10:7F:CB:7A:F2:D2:F3:74:57:FE:E3:90:72
            X509v3 Authority Key Identifier: 
                keyid:56:79:AD:02:66:92:7F:68:FB:EE:9A:60:F9:EB:C0:B3:78:AF:51:CC
                DirName:/CN=team58-net
                serial:4B:96:13:E1:10:F5:C9:32:AD:49:E8:DF:86:F8:0B:66:CB:68:B5:D1

            X509v3 Extended Key Usage: 
                TLS Web Client Authentication
            X509v3 Key Usage: 
                Digital Signature
    Signature Algorithm: sha256WithRSAEncryption
         52:17:8b:eb:70:f2:a6:de:d0:8b:6a:e7:97:ab:82:75:48:2c:
         02:77:74:79:b5:3f:30:1e:d8:59:7e:6e:6d:51:65:02:1a:32:
         36:53:5e:65:22:4e:f4:29:88:92:d7:ba:e0:1b:63:a2:f6:04:
         93:a1:59:5b:c2:65:f4:9a:ab:fd:1e:f6:78:95:9e:3e:30:2a:
         11:5e:e2:f7:97:a6:4b:ec:5a:cc:8c:8d:36:f3:d0:b0:fe:51:
         05:a8:27:1b:59:6c:f0:19:9c:25:a3:d9:44:3d:9f:9c:dd:18:
         ed:76:e6:1d:db:ff:87:db:7a:0d:33:cc:86:66:37:50:fc:23:
         8f:a4:ad:94:0a:20:6b:2b:a1:df:01:b4:97:b1:6c:99:b1:a8:
         0f:61:cc:3c:6c:a0:4b:bc:96:29:9c:99:40:64:14:7c:07:04:
         7b:1f:84:d4:0b:f0:0e:c8:a9:d9:f0:e7:6d:2f:e0:4f:a0:57:
         7e:8e:13:98:3e:aa:31:ab:fc:25:c2:57:7e:9b:d9:ac:51:50:
         45:e3:40:f6:a3:0f:36:dc:5f:a4:ae:cd:33:a7:7d:5c:01:f3:
         29:6a:18:63:8d:7d:c1:10:e5:03:3d:78:4d:69:9e:8d:7e:57:
         ba:8b:a6:0c:e1:f1:b0:49:8f:6c:5d:62:dc:40:d8:ab:5f:6c:
         3b:82:0c:b6
-----BEGIN CERTIFICATE-----
MIIDWjCCAkKgAwIBAgIRAPRTXaBqiu3oOAudViU2ChwwDQYJKoZIhvcNAQELBQAw
FTETMBEGA1UEAwwKdGVhbTU4LW5ldDAeFw0yMjA1MTgxNDI1MDlaFw0yNTA1MDIx
NDI1MDlaMBgxFjAUBgNVBAMMDXRlYW01OC1jbGllbnQwggEiMA0GCSqGSIb3DQEB
AQUAA4IBDwAwggEKAoIBAQCbE0/muqs/PZgrDfp57z0JZDJcU1cHUo7ko6FeSlpF
zotQ9M6yEdzYAjOTa4bvfs4VOagglgcpz/BLMLwrbRgSZQavgwCIjZWmZCPqbP2G
Aa6bRctCKso3Wy9ZLrBAzGkaL+Swv/RX65v5uJXp0nr9tosY5IXaVbchPuTT1DrC
zvstNAGZNsbiyt78r1DauMi8fDtVMlDYFxEJ6g8CZnVJE+PfjE2ArH+hCBDoDDv/
rGj6Xx82oCMhIhgMyFqwISVdILBDjKC42CiX+3lC1F7SHabbVx/1/D1A+F99B9gW
zEDaFX8UB0+KQLO0EB2YQ5s64G6U9RT0ugvQD5P7/0JTAgMBAAGjgaEwgZ4wCQYD
VR0TBAIwADAdBgNVHQ4EFgQUe6xmg1wzWhB/y3ry0vN0V/7jkHIwUAYDVR0jBEkw
R4AUVnmtAmaSf2j77ppg+evAs3ivUcyhGaQXMBUxEzARBgNVBAMMCnRlYW01OC1u
ZXSCFEuWE+EQ9ckyrUno34b4C2bLaLXRMBMGA1UdJQQMMAoGCCsGAQUFBwMCMAsG
A1UdDwQEAwIHgDANBgkqhkiG9w0BAQsFAAOCAQEAUheL63Dypt7Qi2rnl6uCdUgs
And0ebU/MB7YWX5ubVFlAhoyNlNeZSJO9CmIkte64BtjovYEk6FZW8Jl9Jqr/R72
eJWePjAqEV7i95emS+xazIyNNvPQsP5RBagnG1ls8BmcJaPZRD2fnN0Y7XbmHdv/
h9t6DTPMhmY3UPwjj6StlAogayuh3wG0l7FsmbGoD2HMPGygS7yWKZyZQGQUfAcE
ex+E1AvwDsip2fDnbS/gT6BXfo4TmD6qMav8JcJXfpvZrFFQReNA9qMPNtxfpK7N
M6d9XAHzKWoYY419wRDlAz14TWmejX5XuoumDOHxsEmPbF1i3EDYq19sO4IMtg==
-----END CERTIFICATE-----
