Certificate:
    Data:
        Version: 3 (0x2)
        Serial Number:
            5e:f8:9b:77:d8:14:1c:a0:19:b3:82:9a:f8:ee:eb:da
        Signature Algorithm: sha256WithRSAEncryption
        Issuer: CN=team228-net
        Validity
            Not Before: May 18 19:18:15 2022 GMT
            Not After : May  2 19:18:15 2025 GMT
        Subject: CN=team228-server
        Subject Public Key Info:
            Public Key Algorithm: rsaEncryption
                RSA Public-Key: (2048 bit)
                Modulus:
                    00:f4:79:69:7c:83:00:c4:67:a0:35:30:2c:82:b2:
                    3b:6f:d5:9d:7e:99:16:2b:07:dd:8d:59:2b:4b:fb:
                    22:aa:aa:31:0c:ad:f4:eb:ed:91:15:cf:70:fe:4d:
                    79:4d:2c:f7:28:f3:f5:6a:9e:93:e5:1e:ca:04:c0:
                    d0:84:f6:67:0e:e6:fc:37:58:63:5f:8d:c8:02:88:
                    cb:ec:b9:55:b4:3e:4e:cd:1e:83:2b:6f:ab:8b:ff:
                    65:10:c5:0e:70:32:86:45:e6:2b:aa:89:0a:cd:de:
                    f4:ba:85:d3:73:b3:86:21:17:ad:9b:15:8c:12:43:
                    88:df:09:33:33:6b:f5:1d:dc:19:57:3c:11:0b:dd:
                    dc:d1:f2:78:b5:44:ef:65:93:e5:a3:f4:90:bc:27:
                    61:a3:2e:70:96:5a:bb:1d:79:51:15:25:b9:77:c4:
                    88:f1:58:60:fe:6d:77:98:4b:d7:d2:7c:ea:dc:74:
                    80:68:ba:fc:87:21:32:57:74:ae:59:f9:35:70:f1:
                    a8:9c:04:12:27:0f:d5:4a:d8:2c:53:ab:e2:b5:71:
                    5e:1d:97:fa:fd:05:aa:21:ff:c5:88:3b:a0:f5:57:
                    98:4b:65:18:f1:30:75:d0:5d:86:eb:8a:51:50:f6:
                    48:07:ef:38:29:f8:be:e9:b0:79:40:0b:06:e9:65:
                    06:8b
                Exponent: 65537 (0x10001)
        X509v3 extensions:
            X509v3 Basic Constraints: 
                CA:FALSE
            X509v3 Subject Key Identifier: 
                A2:94:CA:85:BB:7A:6D:D4:C4:E6:90:D4:79:FF:54:A0:34:7F:75:DB
            X509v3 Authority Key Identifier: 
                keyid:4A:CC:EA:44:04:3D:75:11:27:85:D7:80:63:FE:2A:43:E2:EB:1E:E0
                DirName:/CN=team228-net
                serial:65:D7:FE:11:A1:04:18:E2:31:93:A1:3B:F9:D9:76:AD:41:60:C2:82

            X509v3 Extended Key Usage: 
                TLS Web Server Authentication
            X509v3 Key Usage: 
                Digital Signature, Key Encipherment
            X509v3 Subject Alternative Name: 
                DNS:team228-server
    Signature Algorithm: sha256WithRSAEncryption
         9d:43:15:76:05:1f:7f:7d:a4:c0:1f:24:0a:0e:36:83:7a:ad:
         b5:96:58:be:e5:92:7b:0b:5b:85:74:8e:a9:ea:95:21:fc:0b:
         21:e0:24:7d:b4:ab:8b:84:0b:7d:3b:8a:5d:a2:78:e6:d8:4e:
         c5:20:6c:65:4a:85:59:bf:43:94:b6:ff:87:f5:6a:8b:24:2a:
         bc:7b:58:18:d5:2d:6a:7d:67:d4:af:18:1e:1a:ab:61:37:76:
         59:d8:7f:d3:f5:e1:c8:d7:4f:c9:06:7e:6c:66:ec:c8:e5:56:
         ed:02:fd:1f:df:a8:4b:3b:e5:76:16:25:6b:7e:16:ce:14:2d:
         f3:3a:25:a5:c5:b2:b7:e8:52:b9:c5:82:71:ae:32:2a:e9:08:
         b5:6d:65:46:4d:c8:0a:05:f0:a1:a2:46:79:f6:52:e0:df:08:
         b8:7d:2b:d6:8a:e8:d1:6e:64:99:e5:7e:f2:93:50:de:e6:28:
         94:cb:82:2d:2a:b7:b4:41:5c:ba:30:4a:b3:a9:e2:c2:fe:ec:
         43:01:92:08:a1:58:0b:f0:fd:30:7b:b1:00:21:33:85:4c:4b:
         82:e5:20:32:c5:d0:ab:ea:2e:06:4f:e2:4a:6f:fd:f1:d5:97:
         4e:00:c5:82:4e:40:61:0a:45:26:93:0a:c3:ca:48:e4:00:ff:
         75:ce:a9:a8
-----BEGIN CERTIFICATE-----
MIIDdzCCAl+gAwIBAgIQXvibd9gUHKAZs4Ka+O7r2jANBgkqhkiG9w0BAQsFADAW
MRQwEgYDVQQDDAt0ZWFtMjI4LW5ldDAeFw0yMjA1MTgxOTE4MTVaFw0yNTA1MDIx
OTE4MTVaMBkxFzAVBgNVBAMMDnRlYW0yMjgtc2VydmVyMIIBIjANBgkqhkiG9w0B
AQEFAAOCAQ8AMIIBCgKCAQEA9HlpfIMAxGegNTAsgrI7b9WdfpkWKwfdjVkrS/si
qqoxDK306+2RFc9w/k15TSz3KPP1ap6T5R7KBMDQhPZnDub8N1hjX43IAojL7LlV
tD5OzR6DK2+ri/9lEMUOcDKGReYrqokKzd70uoXTc7OGIRetmxWMEkOI3wkzM2v1
HdwZVzwRC93c0fJ4tUTvZZPlo/SQvCdhoy5wllq7HXlRFSW5d8SI8Vhg/m13mEvX
0nzq3HSAaLr8hyEyV3SuWfk1cPGonAQSJw/VStgsU6vitXFeHZf6/QWqIf/FiDug
9VeYS2UY8TB10F2G64pRUPZIB+84Kfi+6bB5QAsG6WUGiwIDAQABo4G9MIG6MAkG
A1UdEwQCMAAwHQYDVR0OBBYEFKKUyoW7em3UxOaQ1Hn/VKA0f3XbMFEGA1UdIwRK
MEiAFErM6kQEPXURJ4XXgGP+KkPi6x7goRqkGDAWMRQwEgYDVQQDDAt0ZWFtMjI4
LW5ldIIUZdf+EaEEGOIxk6E7+dl2rUFgwoIwEwYDVR0lBAwwCgYIKwYBBQUHAwEw
CwYDVR0PBAQDAgWgMBkGA1UdEQQSMBCCDnRlYW0yMjgtc2VydmVyMA0GCSqGSIb3
DQEBCwUAA4IBAQCdQxV2BR9/faTAHyQKDjaDeq21lli+5ZJ7C1uFdI6p6pUh/Ash
4CR9tKuLhAt9O4pdonjm2E7FIGxlSoVZv0OUtv+H9WqLJCq8e1gY1S1qfWfUrxge
GqthN3ZZ2H/T9eHI10/JBn5sZuzI5VbtAv0f36hLO+V2FiVrfhbOFC3zOiWlxbK3
6FK5xYJxrjIq6Qi1bWVGTcgKBfChokZ59lLg3wi4fSvWiujRbmSZ5X7yk1De5iiU
y4ItKre0QVy6MEqzqeLC/uxDAZIIoVgL8P0we7EAITOFTEuC5SAyxdCr6i4GT+JK
b/3x1ZdOAMWCTkBhCkUmkwrDykjkAP91zqmo
-----END CERTIFICATE-----
