Certificate:
    Data:
        Version: 3 (0x2)
        Serial Number:
            b9:e7:b1:41:32:0c:c0:92:03:64:6c:63:73:44:a4:53
        Signature Algorithm: sha256WithRSAEncryption
        Issuer: CN=team133-net
        Validity
            Not Before: May 18 15:10:19 2022 GMT
            Not After : May  2 15:10:19 2025 GMT
        Subject: CN=team133-client
        Subject Public Key Info:
            Public Key Algorithm: rsaEncryption
                RSA Public-Key: (2048 bit)
                Modulus:
                    00:e5:fb:96:f0:fd:2f:16:db:00:eb:75:1b:58:08:
                    49:4a:39:94:b8:07:27:8b:2b:fc:8c:29:de:3e:a0:
                    d9:74:e6:fa:d6:9e:9d:f7:df:99:37:27:01:5e:15:
                    62:43:ad:8e:62:01:66:62:62:ec:3f:3f:7e:a8:12:
                    02:b4:05:5f:ca:11:79:45:12:3f:dd:e8:e5:c1:43:
                    32:39:81:46:ea:94:c1:51:d3:c9:4a:25:05:0d:a8:
                    ea:a4:48:8f:7c:69:7d:03:76:eb:f4:c4:eb:5c:1e:
                    7f:8d:64:b3:fb:50:a7:54:53:6f:c5:18:ba:7c:73:
                    8b:6d:1c:6e:60:24:5f:36:01:8d:c7:7a:bc:2e:61:
                    c0:54:67:76:97:0f:b5:1f:ce:08:42:96:d3:90:ff:
                    c4:4d:9c:3f:83:bc:98:13:93:e8:a6:ec:88:d8:a8:
                    32:37:d5:ca:a9:26:96:0e:22:96:33:aa:99:ec:bc:
                    1d:86:28:46:12:90:89:8f:ba:5a:1c:12:19:ed:1c:
                    9a:9f:78:5b:bd:1a:e1:c8:59:e3:f2:05:fd:10:3c:
                    c5:11:39:54:2a:0c:0e:7d:9e:da:08:7e:13:a5:f5:
                    2c:88:da:d8:e8:b2:f0:85:c3:04:9b:73:09:ec:f2:
                    ce:40:7c:a8:e8:61:f9:4c:0b:c6:46:6e:e9:aa:1a:
                    22:c5
                Exponent: 65537 (0x10001)
        X509v3 extensions:
            X509v3 Basic Constraints: 
                CA:FALSE
            X509v3 Subject Key Identifier: 
                22:04:E8:E9:D4:16:82:A3:7A:A4:AD:00:39:AC:64:EA:5A:81:C9:B9
            X509v3 Authority Key Identifier: 
                keyid:58:22:92:55:D9:A8:28:68:2C:02:13:44:F5:28:54:D5:54:90:B8:F3
                DirName:/CN=team133-net
                serial:65:C5:E0:5E:CA:8B:8D:8A:A2:89:0D:83:A3:BD:23:8F:6B:62:9B:03

            X509v3 Extended Key Usage: 
                TLS Web Client Authentication
            X509v3 Key Usage: 
                Digital Signature
    Signature Algorithm: sha256WithRSAEncryption
         79:c1:70:35:6c:e1:9f:a0:93:6e:82:75:43:ff:65:07:99:49:
         89:fe:57:aa:4a:72:e9:a4:40:85:36:35:3e:db:d3:d7:b3:85:
         b1:84:95:36:f0:d6:6e:b0:43:fc:6e:53:e3:5f:1f:3d:43:4e:
         15:9e:8d:53:7f:83:c2:3f:8e:4d:57:1b:25:a9:36:01:14:c0:
         0c:3e:bb:1c:f2:b1:75:30:7b:c6:d8:79:c0:49:04:4a:ab:cc:
         ff:4d:08:a8:4b:2f:ef:69:1c:83:5d:18:d5:b4:c8:df:03:8e:
         56:e8:fc:d2:a3:6c:72:92:24:f4:3b:15:de:f2:35:01:9f:33:
         be:80:f9:02:5d:2a:3c:5b:5e:16:b9:bb:9a:59:29:cd:7d:dc:
         c5:06:27:df:6d:f1:48:49:13:75:cc:a3:ff:f5:aa:e1:f1:25:
         15:19:5a:29:a0:65:89:9b:85:51:7f:a0:74:21:46:b0:bc:b7:
         c8:2b:26:41:98:e1:22:70:ff:42:ee:d0:b9:ca:d0:3f:7f:8d:
         13:32:28:c3:fa:01:a5:7a:ff:5c:7a:86:48:e5:ad:ef:12:69:
         85:62:0c:69:0c:40:60:d1:11:0d:00:87:18:69:3a:97:97:e6:
         f9:27:9d:33:d4:f1:d1:9a:4d:43:fc:3b:1a:2f:71:0c:ad:7a:
         f5:d5:a2:84
-----BEGIN CERTIFICATE-----
MIIDXTCCAkWgAwIBAgIRALnnsUEyDMCSA2RsY3NEpFMwDQYJKoZIhvcNAQELBQAw
FjEUMBIGA1UEAwwLdGVhbTEzMy1uZXQwHhcNMjIwNTE4MTUxMDE5WhcNMjUwNTAy
MTUxMDE5WjAZMRcwFQYDVQQDDA50ZWFtMTMzLWNsaWVudDCCASIwDQYJKoZIhvcN
AQEBBQADggEPADCCAQoCggEBAOX7lvD9LxbbAOt1G1gISUo5lLgHJ4sr/Iwp3j6g
2XTm+taenfffmTcnAV4VYkOtjmIBZmJi7D8/fqgSArQFX8oReUUSP93o5cFDMjmB
RuqUwVHTyUolBQ2o6qRIj3xpfQN26/TE61wef41ks/tQp1RTb8UYunxzi20cbmAk
XzYBjcd6vC5hwFRndpcPtR/OCEKW05D/xE2cP4O8mBOT6KbsiNioMjfVyqkmlg4i
ljOqmey8HYYoRhKQiY+6WhwSGe0cmp94W70a4chZ4/IF/RA8xRE5VCoMDn2e2gh+
E6X1LIja2Oiy8IXDBJtzCezyzkB8qOhh+UwLxkZu6aoaIsUCAwEAAaOBojCBnzAJ
BgNVHRMEAjAAMB0GA1UdDgQWBBQiBOjp1BaCo3qkrQA5rGTqWoHJuTBRBgNVHSME
SjBIgBRYIpJV2agoaCwCE0T1KFTVVJC486EapBgwFjEUMBIGA1UEAwwLdGVhbTEz
My1uZXSCFGXF4F7Ki42KookNg6O9I49rYpsDMBMGA1UdJQQMMAoGCCsGAQUFBwMC
MAsGA1UdDwQEAwIHgDANBgkqhkiG9w0BAQsFAAOCAQEAecFwNWzhn6CTboJ1Q/9l
B5lJif5Xqkpy6aRAhTY1PtvT17OFsYSVNvDWbrBD/G5T418fPUNOFZ6NU3+Dwj+O
TVcbJak2ARTADD67HPKxdTB7xth5wEkESqvM/00IqEsv72kcg10Y1bTI3wOOVuj8
0qNscpIk9DsV3vI1AZ8zvoD5Al0qPFteFrm7mlkpzX3cxQYn323xSEkTdcyj//Wq
4fElFRlaKaBliZuFUX+gdCFGsLy3yCsmQZjhInD/Qu7QucrQP3+NEzIow/oBpXr/
XHqGSOWt7xJphWIMaQxAYNERDQCHGGk6l5fm+SedM9Tx0ZpNQ/w7Gi9xDK169dWi
hA==
-----END CERTIFICATE-----
