Certificate:
    Data:
        Version: 3 (0x2)
        Serial Number:
            63:ff:78:32:ee:88:cc:c6:a3:5b:42:41:bc:33:0b:39
        Signature Algorithm: sha256WithRSAEncryption
        Issuer: CN=team612-net
        Validity
            Not Before: May 18 22:59:46 2022 GMT
            Not After : May  2 22:59:46 2025 GMT
        Subject: CN=team612-client
        Subject Public Key Info:
            Public Key Algorithm: rsaEncryption
                RSA Public-Key: (2048 bit)
                Modulus:
                    00:b8:27:c0:71:02:b3:9d:6d:be:53:7c:ba:7e:15:
                    c4:58:ec:89:d0:6b:d7:e4:ad:6b:43:c4:90:5f:73:
                    56:20:c6:30:cd:4b:12:66:16:f5:6d:8f:cd:a8:73:
                    cc:20:f7:97:09:02:5e:c7:0f:00:64:4b:fc:15:f9:
                    02:fb:79:71:b9:32:12:eb:ee:aa:bb:f4:46:7e:c1:
                    01:80:bc:fe:69:d9:a6:be:39:c4:27:1e:ef:a5:e4:
                    9a:fd:34:84:2d:18:71:aa:6d:78:e6:8b:0c:c0:d7:
                    00:16:a3:7a:95:c3:1d:59:b3:cc:f4:07:16:4f:8d:
                    84:66:59:fb:a2:83:2e:89:c7:35:2f:f7:14:1e:bf:
                    28:08:18:ae:97:dd:54:b1:d3:c8:4f:f4:28:dc:54:
                    89:3e:79:0c:87:a4:11:b7:ed:1a:94:ff:c3:3f:6a:
                    87:f3:d6:9e:ab:89:28:47:cf:83:48:bf:ee:0c:67:
                    34:1a:28:8b:56:58:76:4b:bf:f4:50:3d:69:4d:9c:
                    02:e1:de:4c:a5:06:05:ab:b9:23:66:71:72:e1:28:
                    58:a8:33:56:bf:8a:42:3d:b5:fa:6a:f1:06:d1:b0:
                    3d:04:bf:15:3b:59:27:24:7d:48:f6:1f:40:27:8d:
                    5b:e9:e6:ab:a1:35:8d:96:99:46:12:83:7f:4f:fe:
                    ac:15
                Exponent: 65537 (0x10001)
        X509v3 extensions:
            X509v3 Basic Constraints: 
                CA:FALSE
            X509v3 Subject Key Identifier: 
                A4:B9:F6:43:37:98:A3:4B:65:93:D2:5C:5C:B4:62:E1:63:42:C0:8A
            X509v3 Authority Key Identifier: 
                keyid:69:39:D3:26:99:81:A9:19:D5:1E:27:5D:8F:D5:D8:1C:62:82:42:AB
                DirName:/CN=team612-net
                serial:6E:26:AA:FB:02:13:48:2C:E5:DD:A1:CD:37:F1:EA:02:EA:1B:71:CA

            X509v3 Extended Key Usage: 
                TLS Web Client Authentication
            X509v3 Key Usage: 
                Digital Signature
    Signature Algorithm: sha256WithRSAEncryption
         8c:ad:ec:ca:7e:1c:1c:9c:06:7e:a8:f8:1c:02:d7:f8:ee:7f:
         01:15:66:b4:f6:60:56:07:23:9a:1d:40:3d:3b:15:8c:b3:e4:
         c3:bf:52:42:c4:de:d4:5d:50:dc:69:35:f4:6d:37:e5:6e:9e:
         3d:d5:2b:ad:cb:4d:7c:c3:54:77:69:be:8c:bc:d1:0b:6e:48:
         f4:d9:c1:93:a2:e8:2e:a7:c8:6e:a4:23:f7:00:f0:cc:c1:83:
         43:2a:e9:a6:6d:d5:40:15:dc:ba:9d:5b:f0:b2:ab:b9:2f:1b:
         ba:61:ce:00:3e:23:e4:56:bd:be:eb:4f:43:33:e4:1f:96:21:
         ee:ff:d5:2d:7f:18:9c:9a:b4:9e:3f:e4:50:65:d1:03:92:89:
         0f:42:17:c4:5a:58:a7:3a:b1:3e:1a:12:4c:7b:e9:b7:f2:9b:
         e9:9e:96:86:e2:f3:62:f8:a5:c3:02:51:5d:0d:37:5d:8c:70:
         b8:5a:ac:b5:39:7a:b1:4c:ab:cd:4f:6d:f0:a8:b4:ec:1e:a8:
         85:9d:4a:97:45:56:0c:36:d3:4e:fc:5a:5e:5f:db:f4:d2:10:
         59:5c:33:3a:b1:8b:a3:b5:d8:50:68:d9:f0:e7:24:3e:ba:c0:
         70:df:0e:39:89:6c:22:5b:b7:a5:fb:6c:83:66:60:b6:e9:12:
         6c:16:85:42
-----BEGIN CERTIFICATE-----
MIIDXDCCAkSgAwIBAgIQY/94Mu6IzMajW0JBvDMLOTANBgkqhkiG9w0BAQsFADAW
MRQwEgYDVQQDDAt0ZWFtNjEyLW5ldDAeFw0yMjA1MTgyMjU5NDZaFw0yNTA1MDIy
MjU5NDZaMBkxFzAVBgNVBAMMDnRlYW02MTItY2xpZW50MIIBIjANBgkqhkiG9w0B
AQEFAAOCAQ8AMIIBCgKCAQEAuCfAcQKznW2+U3y6fhXEWOyJ0GvX5K1rQ8SQX3NW
IMYwzUsSZhb1bY/NqHPMIPeXCQJexw8AZEv8FfkC+3lxuTIS6+6qu/RGfsEBgLz+
admmvjnEJx7vpeSa/TSELRhxqm145osMwNcAFqN6lcMdWbPM9AcWT42EZln7ooMu
icc1L/cUHr8oCBiul91UsdPIT/Qo3FSJPnkMh6QRt+0alP/DP2qH89aeq4koR8+D
SL/uDGc0GiiLVlh2S7/0UD1pTZwC4d5MpQYFq7kjZnFy4ShYqDNWv4pCPbX6avEG
0bA9BL8VO1knJH1I9h9AJ41b6earoTWNlplGEoN/T/6sFQIDAQABo4GiMIGfMAkG
A1UdEwQCMAAwHQYDVR0OBBYEFKS59kM3mKNLZZPSXFy0YuFjQsCKMFEGA1UdIwRK
MEiAFGk50yaZgakZ1R4nXY/V2BxigkKroRqkGDAWMRQwEgYDVQQDDAt0ZWFtNjEy
LW5ldIIUbiaq+wITSCzl3aHNN/HqAuobccowEwYDVR0lBAwwCgYIKwYBBQUHAwIw
CwYDVR0PBAQDAgeAMA0GCSqGSIb3DQEBCwUAA4IBAQCMrezKfhwcnAZ+qPgcAtf4
7n8BFWa09mBWByOaHUA9OxWMs+TDv1JCxN7UXVDcaTX0bTflbp491Suty018w1R3
ab6MvNELbkj02cGTougup8hupCP3APDMwYNDKummbdVAFdy6nVvwsqu5Lxu6Yc4A
PiPkVr2+609DM+QfliHu/9UtfxicmrSeP+RQZdEDkokPQhfEWlinOrE+GhJMe+m3
8pvpnpaG4vNi+KXDAlFdDTddjHC4Wqy1OXqxTKvNT23wqLTsHqiFnUqXRVYMNtNO
/FpeX9v00hBZXDM6sYujtdhQaNnw5yQ+usBw3w45iWwiW7el+2yDZmC26RJsFoVC
-----END CERTIFICATE-----
