Certificate:
    Data:
        Version: 3 (0x2)
        Serial Number:
            7b:5c:24:30:15:c9:de:27:9f:c3:46:e3:bb:d0:aa:d1
        Signature Algorithm: sha256WithRSAEncryption
        Issuer: CN=team589-net
        Validity
            Not Before: May 18 22:41:46 2022 GMT
            Not After : May  2 22:41:46 2025 GMT
        Subject: CN=team589-client
        Subject Public Key Info:
            Public Key Algorithm: rsaEncryption
                RSA Public-Key: (2048 bit)
                Modulus:
                    00:9a:b8:01:0d:2d:0f:6c:70:02:b5:86:0f:aa:05:
                    4a:d0:70:2d:22:79:5f:87:dc:e6:36:57:75:0e:4e:
                    99:14:1f:d6:da:c6:3b:01:2f:22:df:20:68:99:79:
                    7b:64:56:a9:f8:e9:70:65:68:84:85:bc:2c:e6:df:
                    55:d1:0d:d4:12:98:62:0e:40:7d:0e:89:cf:3f:25:
                    4c:21:01:9e:63:45:d0:cb:ec:d3:c1:95:44:50:87:
                    af:aa:70:0d:99:a3:a5:aa:cf:56:42:a0:67:1a:3e:
                    24:87:b8:35:cb:c5:9a:30:91:a0:21:46:da:9c:06:
                    12:09:16:8c:b4:6b:56:07:24:11:38:28:89:68:66:
                    34:44:bb:5d:1f:d9:38:4e:e0:b8:fb:f3:72:ee:b7:
                    03:a1:8c:ff:a1:c7:5e:e3:2b:93:9b:62:1f:c2:b0:
                    19:25:96:24:d8:36:10:31:fe:7c:c7:e0:9f:02:02:
                    be:aa:37:ae:df:24:e8:ba:40:f6:cb:bb:46:fc:9b:
                    2a:fd:f7:4c:0a:8c:90:6c:c4:71:72:a3:97:80:f8:
                    60:f9:ac:b9:4b:e5:fa:d9:9e:41:9c:aa:00:ff:98:
                    cb:cd:e7:6e:38:8d:8d:c0:80:d4:4c:be:1b:b3:48:
                    fa:8b:31:84:b8:2e:b3:5b:7b:00:fd:bc:f6:0c:68:
                    49:51
                Exponent: 65537 (0x10001)
        X509v3 extensions:
            X509v3 Basic Constraints: 
                CA:FALSE
            X509v3 Subject Key Identifier: 
                23:97:BC:AA:96:5E:47:75:32:16:1E:9A:6F:F9:E6:F5:10:E6:9C:13
            X509v3 Authority Key Identifier: 
                keyid:31:5B:7E:0E:F3:CF:86:D6:4D:8C:E6:65:E3:88:2F:A2:47:17:10:E1
                DirName:/CN=team589-net
                serial:4F:FF:C6:FB:AE:5E:FE:30:67:6D:6F:15:2D:5F:C5:FC:76:E5:2F:29

            X509v3 Extended Key Usage: 
                TLS Web Client Authentication
            X509v3 Key Usage: 
                Digital Signature
    Signature Algorithm: sha256WithRSAEncryption
         a7:fb:f3:83:72:f7:55:7c:0a:91:5d:e8:40:07:69:bb:c6:4d:
         43:52:f5:95:51:60:de:f7:3a:23:fc:ed:58:c1:41:0c:c9:68:
         65:12:76:e6:6b:5e:ac:c2:3c:92:40:66:6b:13:ef:41:22:fa:
         6c:72:c4:87:bc:ca:45:3c:03:10:06:ea:18:a6:b5:6e:1f:b5:
         8f:46:73:bd:17:58:07:eb:86:fd:58:ca:a1:0d:d8:c4:69:df:
         ad:11:47:86:d7:00:15:69:3d:5d:54:57:d4:fc:ba:be:eb:f1:
         22:ba:8b:34:b8:67:df:ec:26:eb:9c:97:57:0a:24:5c:35:d8:
         2a:df:81:27:60:48:1f:06:d1:2c:c1:14:85:95:9a:b3:ce:5e:
         67:d5:50:b8:92:84:fc:95:78:0c:67:4e:bc:28:92:61:fa:fa:
         6e:53:a0:dd:14:3a:0e:26:3c:16:23:99:91:f3:65:6b:47:8a:
         23:18:82:f8:41:50:6d:fd:b8:e4:c7:db:7a:70:13:90:08:77:
         d5:b0:cb:cb:24:21:bf:6c:5c:d5:8d:dc:31:e6:0f:70:ed:4b:
         f8:51:fc:82:e6:10:ea:7c:1d:af:90:ff:cb:ba:fe:90:d4:15:
         72:a8:0c:ec:e9:8d:81:aa:15:27:39:3e:4e:f9:28:21:63:e4:
         bb:c9:ec:09
-----BEGIN CERTIFICATE-----
MIIDXDCCAkSgAwIBAgIQe1wkMBXJ3iefw0bju9Cq0TANBgkqhkiG9w0BAQsFADAW
MRQwEgYDVQQDDAt0ZWFtNTg5LW5ldDAeFw0yMjA1MTgyMjQxNDZaFw0yNTA1MDIy
MjQxNDZaMBkxFzAVBgNVBAMMDnRlYW01ODktY2xpZW50MIIBIjANBgkqhkiG9w0B
AQEFAAOCAQ8AMIIBCgKCAQEAmrgBDS0PbHACtYYPqgVK0HAtInlfh9zmNld1Dk6Z
FB/W2sY7AS8i3yBomXl7ZFap+OlwZWiEhbws5t9V0Q3UEphiDkB9DonPPyVMIQGe
Y0XQy+zTwZVEUIevqnANmaOlqs9WQqBnGj4kh7g1y8WaMJGgIUbanAYSCRaMtGtW
ByQROCiJaGY0RLtdH9k4TuC4+/Ny7rcDoYz/ocde4yuTm2IfwrAZJZYk2DYQMf58
x+CfAgK+qjeu3yToukD2y7tG/Jsq/fdMCoyQbMRxcqOXgPhg+ay5S+X62Z5BnKoA
/5jLzeduOI2NwIDUTL4bs0j6izGEuC6zW3sA/bz2DGhJUQIDAQABo4GiMIGfMAkG
A1UdEwQCMAAwHQYDVR0OBBYEFCOXvKqWXkd1MhYemm/55vUQ5pwTMFEGA1UdIwRK
MEiAFDFbfg7zz4bWTYzmZeOIL6JHFxDhoRqkGDAWMRQwEgYDVQQDDAt0ZWFtNTg5
LW5ldIIUT//G+65e/jBnbW8VLV/F/HblLykwEwYDVR0lBAwwCgYIKwYBBQUHAwIw
CwYDVR0PBAQDAgeAMA0GCSqGSIb3DQEBCwUAA4IBAQCn+/ODcvdVfAqRXehAB2m7
xk1DUvWVUWDe9zoj/O1YwUEMyWhlEnbma16swjySQGZrE+9BIvpscsSHvMpFPAMQ
BuoYprVuH7WPRnO9F1gH64b9WMqhDdjEad+tEUeG1wAVaT1dVFfU/Lq+6/Eiuos0
uGff7CbrnJdXCiRcNdgq34EnYEgfBtEswRSFlZqzzl5n1VC4koT8lXgMZ068KJJh
+vpuU6DdFDoOJjwWI5mR82VrR4ojGIL4QVBt/bjkx9t6cBOQCHfVsMvLJCG/bFzV
jdwx5g9w7Uv4UfyC5hDqfB2vkP/Luv6Q1BVyqAzs6Y2BqhUnOT5O+SghY+S7yewJ
-----END CERTIFICATE-----
