Certificate:
    Data:
        Version: 3 (0x2)
        Serial Number:
            26:f7:dc:a5:27:bf:69:54:46:2d:97:6e:c9:d0:ac:3f
        Signature Algorithm: sha256WithRSAEncryption
        Issuer: CN=team205-net
        Validity
            Not Before: May 18 19:13:41 2022 GMT
            Not After : May  2 19:13:41 2025 GMT
        Subject: CN=team205-client
        Subject Public Key Info:
            Public Key Algorithm: rsaEncryption
                RSA Public-Key: (2048 bit)
                Modulus:
                    00:da:3c:35:02:9d:4c:b7:1b:35:8d:ff:87:49:3e:
                    e0:2b:ae:75:35:46:0e:6e:83:52:0b:90:e8:ec:2f:
                    54:6a:30:ae:db:73:97:1c:8f:89:cd:ac:70:0e:5a:
                    e6:c5:eb:0a:fb:6a:18:c3:5e:a8:05:fb:2c:fd:28:
                    12:68:af:9d:bc:ec:6f:84:88:83:a7:29:fa:31:1b:
                    62:19:aa:f1:01:f4:5b:c4:29:42:93:30:5b:1a:5b:
                    3c:4c:df:06:90:89:3c:35:9d:db:d1:3a:40:c9:00:
                    4d:f5:bb:a5:80:83:de:ad:ee:76:dc:33:a7:44:ba:
                    0d:de:22:5a:f8:dd:fd:35:4c:f1:b6:93:17:a9:b8:
                    5e:18:c2:b3:d3:5a:6f:f8:2b:c8:f8:22:45:db:73:
                    2d:93:3c:b1:a0:29:eb:de:f0:23:f6:22:c8:cf:85:
                    47:ef:ec:63:ec:3e:6b:73:37:04:cb:dc:81:9c:b8:
                    da:c9:bc:66:10:a9:b5:9d:48:9b:d8:38:44:4e:fe:
                    58:b0:ac:67:ae:2f:8f:df:d2:a6:99:7f:89:d7:71:
                    68:f9:21:2d:0f:d8:e4:bd:1e:2e:8d:0d:04:81:a2:
                    33:0c:f4:b7:f5:5e:4a:fb:62:ff:a0:8d:a9:d7:e9:
                    18:91:73:45:c0:63:3f:fc:f3:fb:3a:fc:00:26:9f:
                    14:33
                Exponent: 65537 (0x10001)
        X509v3 extensions:
            X509v3 Basic Constraints: 
                CA:FALSE
            X509v3 Subject Key Identifier: 
                48:16:97:2D:FE:02:4B:BE:48:DC:39:92:00:84:7C:55:B2:7E:44:33
            X509v3 Authority Key Identifier: 
                keyid:90:9B:C3:E1:6F:36:86:2F:F6:9C:DD:A3:DC:95:B0:C0:0E:41:52:F0
                DirName:/CN=team205-net
                serial:32:EE:E7:CD:8C:48:06:2E:CC:66:94:51:37:57:54:47:1A:42:48:70

            X509v3 Extended Key Usage: 
                TLS Web Client Authentication
            X509v3 Key Usage: 
                Digital Signature
    Signature Algorithm: sha256WithRSAEncryption
         68:c7:20:ff:95:e9:d2:7e:85:59:5a:1b:15:3f:8d:0d:ec:15:
         f4:2a:c6:b5:45:2e:60:c3:d9:55:43:a4:04:91:a8:9e:6e:04:
         5f:24:f7:a5:5a:68:cc:26:66:bb:cb:81:9e:e4:5d:7d:cf:3e:
         b1:bf:d1:8c:43:e3:07:53:98:ab:53:80:b8:bd:e8:67:17:8c:
         9a:30:7b:b7:05:56:2d:3a:ee:11:27:1e:09:00:88:64:6c:ed:
         be:91:6f:a2:46:a0:75:8b:f6:43:6e:3b:c5:63:2e:6f:d1:1b:
         14:73:dc:1f:a8:39:0d:f8:7d:9b:0c:9e:2f:94:0e:e4:ae:37:
         9d:d4:29:f0:24:05:8d:c0:1c:5d:26:78:15:16:4f:f2:f8:f4:
         04:54:3f:a6:9e:90:75:c0:98:9c:51:98:dd:2a:22:80:95:f9:
         c2:f8:29:cd:f7:c4:ba:4e:10:b5:f4:7a:2c:77:59:10:33:18:
         2a:b8:6a:1f:2f:80:fb:69:27:a2:7a:52:53:52:8a:28:32:d8:
         6b:d7:e8:40:a1:81:b5:bd:0f:45:48:11:ed:a1:1d:4d:c3:90:
         84:52:25:85:f9:8d:32:68:53:75:a6:9f:5e:3e:41:20:13:18:
         21:f3:b5:65:b6:57:3d:33:3b:90:a6:24:b4:01:59:89:42:ac:
         f7:83:ca:72
-----BEGIN CERTIFICATE-----
MIIDXDCCAkSgAwIBAgIQJvfcpSe/aVRGLZduydCsPzANBgkqhkiG9w0BAQsFADAW
MRQwEgYDVQQDDAt0ZWFtMjA1LW5ldDAeFw0yMjA1MTgxOTEzNDFaFw0yNTA1MDIx
OTEzNDFaMBkxFzAVBgNVBAMMDnRlYW0yMDUtY2xpZW50MIIBIjANBgkqhkiG9w0B
AQEFAAOCAQ8AMIIBCgKCAQEA2jw1Ap1Mtxs1jf+HST7gK651NUYOboNSC5Do7C9U
ajCu23OXHI+JzaxwDlrmxesK+2oYw16oBfss/SgSaK+dvOxvhIiDpyn6MRtiGarx
AfRbxClCkzBbGls8TN8GkIk8NZ3b0TpAyQBN9bulgIPere523DOnRLoN3iJa+N39
NUzxtpMXqbheGMKz01pv+CvI+CJF23MtkzyxoCnr3vAj9iLIz4VH7+xj7D5rczcE
y9yBnLjaybxmEKm1nUib2DhETv5YsKxnri+P39KmmX+J13Fo+SEtD9jkvR4ujQ0E
gaIzDPS39V5K+2L/oI2p1+kYkXNFwGM//PP7OvwAJp8UMwIDAQABo4GiMIGfMAkG
A1UdEwQCMAAwHQYDVR0OBBYEFEgWly3+Aku+SNw5kgCEfFWyfkQzMFEGA1UdIwRK
MEiAFJCbw+FvNoYv9pzdo9yVsMAOQVLwoRqkGDAWMRQwEgYDVQQDDAt0ZWFtMjA1
LW5ldIIUMu7nzYxIBi7MZpRRN1dURxpCSHAwEwYDVR0lBAwwCgYIKwYBBQUHAwIw
CwYDVR0PBAQDAgeAMA0GCSqGSIb3DQEBCwUAA4IBAQBoxyD/lenSfoVZWhsVP40N
7BX0Ksa1RS5gw9lVQ6QEkaiebgRfJPelWmjMJma7y4Ge5F19zz6xv9GMQ+MHU5ir
U4C4vehnF4yaMHu3BVYtOu4RJx4JAIhkbO2+kW+iRqB1i/ZDbjvFYy5v0RsUc9wf
qDkN+H2bDJ4vlA7krjed1CnwJAWNwBxdJngVFk/y+PQEVD+mnpB1wJicUZjdKiKA
lfnC+CnN98S6ThC19Hosd1kQMxgquGofL4D7aSeielJTUoooMthr1+hAoYG1vQ9F
SBHtoR1Nw5CEUiWF+Y0yaFN1pp9ePkEgExgh87Vltlc9MzuQpiS0AVmJQqz3g8py
-----END CERTIFICATE-----
