Certificate:
    Data:
        Version: 3 (0x2)
        Serial Number:
            35:03:3c:a2:3c:64:1a:60:bb:fc:1e:7e:cd:cc:e2:22
        Signature Algorithm: sha256WithRSAEncryption
        Issuer: CN=team92-net
        Validity
            Not Before: May 18 14:45:05 2022 GMT
            Not After : May  2 14:45:05 2025 GMT
        Subject: CN=team92-server
        Subject Public Key Info:
            Public Key Algorithm: rsaEncryption
                RSA Public-Key: (2048 bit)
                Modulus:
                    00:c1:fe:2b:f9:ec:b7:53:7d:a4:b2:94:e4:71:ad:
                    1b:31:7e:54:12:04:e9:00:7a:d0:d4:b8:09:3f:fc:
                    e7:c5:8a:8c:b1:46:ae:fd:d7:88:dc:f9:ea:07:bb:
                    30:d5:9f:52:66:36:57:fe:10:6a:40:3e:72:65:86:
                    ee:a6:01:d9:71:c0:a8:86:cb:1d:74:00:61:21:20:
                    0d:fb:fe:16:f3:ab:5a:02:f6:21:8a:72:77:a4:42:
                    fc:7b:c9:1a:96:ab:6a:d4:bc:15:2a:6b:c2:10:76:
                    ac:d8:58:0b:93:de:11:e3:cf:43:a4:49:3e:27:aa:
                    85:db:36:d9:6d:30:f9:a3:75:59:d5:a9:17:5e:22:
                    67:54:77:1f:32:75:83:d5:ab:99:6f:6f:ab:4f:37:
                    dd:92:87:fa:b6:9c:17:4b:e1:71:cf:03:35:ad:3c:
                    69:63:08:f6:48:5a:80:73:3e:c6:bb:9d:03:0b:d9:
                    4f:4a:63:d4:c1:15:69:69:d1:58:55:ca:6c:48:a8:
                    00:19:22:f5:8a:a7:93:d6:70:ba:2c:25:29:f0:25:
                    24:2e:ac:52:bb:a0:48:09:3d:28:8e:d8:11:61:95:
                    17:92:78:79:f8:19:a0:83:9f:8d:e7:1c:0a:00:02:
                    82:9f:f8:81:15:69:e4:bf:a5:42:9e:2d:57:cc:88:
                    21:1f
                Exponent: 65537 (0x10001)
        X509v3 extensions:
            X509v3 Basic Constraints: 
                CA:FALSE
            X509v3 Subject Key Identifier: 
                56:95:A4:40:CB:90:CE:57:60:ED:63:42:24:75:A6:49:2F:BD:A8:BE
            X509v3 Authority Key Identifier: 
                keyid:3E:FC:BA:5C:D7:53:CA:0B:4A:D5:FB:F6:BE:4E:B2:4C:2B:32:A4:4B
                DirName:/CN=team92-net
                serial:38:00:CE:E8:22:BA:10:70:4D:CA:6B:3B:7C:04:F7:E7:78:92:FC:5C

            X509v3 Extended Key Usage: 
                TLS Web Server Authentication
            X509v3 Key Usage: 
                Digital Signature, Key Encipherment
            X509v3 Subject Alternative Name: 
                DNS:team92-server
    Signature Algorithm: sha256WithRSAEncryption
         97:6e:d2:60:e1:e5:51:11:d0:1a:82:6c:63:d7:91:e7:7a:79:
         c7:30:64:a1:03:d5:64:a3:ca:e7:a3:18:bc:df:04:c8:bb:e9:
         cc:4d:18:bc:e7:12:60:e6:e2:72:41:58:1c:61:df:06:ef:3e:
         81:00:1a:ab:34:b1:63:67:85:fc:b5:e8:de:68:9f:40:c3:58:
         56:c9:2a:72:85:73:0e:77:01:49:83:bc:26:0d:f3:4f:41:7b:
         86:bf:22:d4:63:69:56:5e:e7:86:91:e0:42:ba:41:4b:38:11:
         7c:79:15:f7:12:6d:08:2f:cf:29:7e:91:25:46:ad:16:4d:b3:
         85:c4:e7:d6:58:60:bc:8a:59:e4:b9:b0:ff:cf:a0:30:15:18:
         5c:84:32:44:8d:dd:8d:5e:94:cb:a2:63:80:81:5c:40:03:03:
         05:a4:4c:70:5e:9f:8d:ea:fe:fc:c8:c2:c9:da:70:85:f2:cb:
         a7:82:f2:60:37:66:f8:17:10:64:dd:a2:d0:78:89:dc:e2:23:
         38:f8:2a:7b:8d:60:5f:37:e0:df:7b:2c:a7:c8:8b:92:cc:fc:
         09:7d:03:4a:a2:a4:1f:f3:17:09:69:cf:0b:5f:f1:b8:02:63:
         c8:cd:da:2e:85:90:a5:57:3c:6f:36:de:84:c1:24:77:5d:4e:
         58:8a:ea:db
-----BEGIN CERTIFICATE-----
MIIDczCCAlugAwIBAgIQNQM8ojxkGmC7/B5+zcziIjANBgkqhkiG9w0BAQsFADAV
MRMwEQYDVQQDDAp0ZWFtOTItbmV0MB4XDTIyMDUxODE0NDUwNVoXDTI1MDUwMjE0
NDUwNVowGDEWMBQGA1UEAwwNdGVhbTkyLXNlcnZlcjCCASIwDQYJKoZIhvcNAQEB
BQADggEPADCCAQoCggEBAMH+K/nst1N9pLKU5HGtGzF+VBIE6QB60NS4CT/858WK
jLFGrv3XiNz56ge7MNWfUmY2V/4QakA+cmWG7qYB2XHAqIbLHXQAYSEgDfv+FvOr
WgL2IYpyd6RC/HvJGparatS8FSprwhB2rNhYC5PeEePPQ6RJPieqhds22W0w+aN1
WdWpF14iZ1R3HzJ1g9WrmW9vq0833ZKH+racF0vhcc8DNa08aWMI9khagHM+xrud
AwvZT0pj1MEVaWnRWFXKbEioABki9Yqnk9ZwuiwlKfAlJC6sUrugSAk9KI7YEWGV
F5J4efgZoIOfjeccCgACgp/4gRVp5L+lQp4tV8yIIR8CAwEAAaOBuzCBuDAJBgNV
HRMEAjAAMB0GA1UdDgQWBBRWlaRAy5DOV2DtY0IkdaZJL72ovjBQBgNVHSMESTBH
gBQ+/Lpc11PKC0rV+/a+TrJMKzKkS6EZpBcwFTETMBEGA1UEAwwKdGVhbTkyLW5l
dIIUOADO6CK6EHBNyms7fAT353iS/FwwEwYDVR0lBAwwCgYIKwYBBQUHAwEwCwYD
VR0PBAQDAgWgMBgGA1UdEQQRMA+CDXRlYW05Mi1zZXJ2ZXIwDQYJKoZIhvcNAQEL
BQADggEBAJdu0mDh5VER0BqCbGPXked6eccwZKED1WSjyuejGLzfBMi76cxNGLzn
EmDm4nJBWBxh3wbvPoEAGqs0sWNnhfy16N5on0DDWFbJKnKFcw53AUmDvCYN809B
e4a/ItRjaVZe54aR4EK6QUs4EXx5FfcSbQgvzyl+kSVGrRZNs4XE59ZYYLyKWeS5
sP/PoDAVGFyEMkSN3Y1elMuiY4CBXEADAwWkTHBen43q/vzIwsnacIXyy6eC8mA3
ZvgXEGTdotB4idziIzj4KnuNYF834N97LKfIi5LM/Al9A0qipB/zFwlpzwtf8bgC
Y8jN2i6FkKVXPG823oTBJHddTliK6ts=
-----END CERTIFICATE-----
