Certificate:
    Data:
        Version: 3 (0x2)
        Serial Number:
            cd:5c:e8:b0:69:d9:0b:95:b6:e2:88:b1:92:69:cf:60
        Signature Algorithm: sha256WithRSAEncryption
        Issuer: CN=team281-net
        Validity
            Not Before: May 18 19:54:27 2022 GMT
            Not After : May  2 19:54:27 2025 GMT
        Subject: CN=team281-client
        Subject Public Key Info:
            Public Key Algorithm: rsaEncryption
                RSA Public-Key: (2048 bit)
                Modulus:
                    00:c0:46:7e:b1:14:48:2d:d8:4c:3b:d7:3a:7d:d9:
                    d1:85:94:ed:ad:88:43:05:bd:c6:71:31:6d:c2:39:
                    ec:ff:0e:5b:e4:1f:a1:75:16:68:c2:40:c1:0a:b9:
                    e0:ba:58:9f:ca:de:92:e7:0c:62:c2:31:31:0f:1a:
                    19:3c:79:31:01:9a:b6:71:3c:40:19:00:71:ac:57:
                    6c:c7:a5:b8:c7:bb:56:07:ab:ec:5c:85:9b:01:13:
                    ce:3d:a2:6a:31:34:8e:92:04:ef:56:4d:e7:eb:c0:
                    49:05:b5:3c:b3:5b:ab:27:83:15:10:a2:a4:3e:58:
                    82:29:c1:49:87:92:0b:3f:20:49:a7:52:04:e4:67:
                    bb:da:41:20:6c:2b:2e:34:73:4a:28:4f:e4:1d:d6:
                    b0:b7:0c:03:64:7c:33:e0:86:4f:5c:73:b0:77:56:
                    0b:7c:11:71:93:83:c4:1f:dc:7a:28:22:a8:8b:61:
                    9d:d2:28:07:dc:fc:27:6f:5c:ec:aa:22:4f:13:d8:
                    8f:54:bf:6f:82:9e:99:74:32:83:f1:ef:f4:70:85:
                    43:91:1c:ef:1c:95:2a:e0:d2:11:71:94:f1:76:a5:
                    8c:85:8e:22:38:6a:d2:0c:6f:19:0a:0d:4a:7c:49:
                    ce:4f:be:2f:b4:14:c0:a4:c6:73:da:b4:42:48:d2:
                    bb:df
                Exponent: 65537 (0x10001)
        X509v3 extensions:
            X509v3 Basic Constraints: 
                CA:FALSE
            X509v3 Subject Key Identifier: 
                09:16:F3:F4:4B:5D:CA:D8:DF:85:DB:B8:33:25:17:B7:38:DF:51:86
            X509v3 Authority Key Identifier: 
                keyid:6C:DA:02:63:EB:70:B4:87:FE:A8:F3:8A:74:76:E2:3A:4C:25:8A:46
                DirName:/CN=team281-net
                serial:7C:9C:BC:C9:E8:C3:B8:1F:21:99:B0:60:DC:D0:2E:38:77:22:7E:8E

            X509v3 Extended Key Usage: 
                TLS Web Client Authentication
            X509v3 Key Usage: 
                Digital Signature
    Signature Algorithm: sha256WithRSAEncryption
         96:06:6b:ce:d3:ba:74:d5:bd:db:50:c9:2a:56:aa:cf:d1:e6:
         82:73:cc:68:24:3f:b7:ce:ec:c9:3c:56:9a:42:4f:8a:e6:ca:
         da:ec:93:59:fe:8c:9a:7e:36:eb:d3:17:d3:06:1b:79:60:d1:
         96:df:e7:b4:6f:8c:f5:06:19:58:c2:bb:d8:ad:1d:d9:b2:e7:
         82:79:3a:8c:f3:a3:93:f5:a3:c3:18:97:36:f0:12:2f:d5:83:
         84:9e:b6:d8:eb:cb:91:5a:d4:1f:78:43:b1:3f:6f:b6:83:07:
         f4:43:2f:19:92:2f:71:96:32:7f:2b:10:1b:a3:4f:f3:f1:f1:
         14:aa:bb:27:8e:ae:44:5b:0b:30:ee:8a:26:09:a2:8c:18:7d:
         88:ba:0e:54:b5:fd:00:fa:71:f5:b6:b1:b9:74:c8:59:a5:1a:
         eb:74:9c:d8:15:43:02:33:52:5b:28:a7:60:e7:c9:f3:17:0b:
         b0:c6:b6:25:83:f5:20:bf:5a:cb:12:2e:36:d5:11:33:44:38:
         3b:70:e7:95:98:90:da:03:05:d7:8a:70:bf:89:31:d0:e3:d2:
         09:6f:65:61:0b:81:2a:c5:65:fa:72:e1:30:7c:e3:08:e5:6a:
         e5:04:1a:cb:30:6e:f8:cc:b9:e5:76:1a:ca:90:dc:83:4c:f5:
         1c:d4:d0:77
-----BEGIN CERTIFICATE-----
MIIDXTCCAkWgAwIBAgIRAM1c6LBp2QuVtuKIsZJpz2AwDQYJKoZIhvcNAQELBQAw
FjEUMBIGA1UEAwwLdGVhbTI4MS1uZXQwHhcNMjIwNTE4MTk1NDI3WhcNMjUwNTAy
MTk1NDI3WjAZMRcwFQYDVQQDDA50ZWFtMjgxLWNsaWVudDCCASIwDQYJKoZIhvcN
AQEBBQADggEPADCCAQoCggEBAMBGfrEUSC3YTDvXOn3Z0YWU7a2IQwW9xnExbcI5
7P8OW+QfoXUWaMJAwQq54LpYn8rekucMYsIxMQ8aGTx5MQGatnE8QBkAcaxXbMel
uMe7Vger7FyFmwETzj2iajE0jpIE71ZN5+vASQW1PLNbqyeDFRCipD5YginBSYeS
Cz8gSadSBORnu9pBIGwrLjRzSihP5B3WsLcMA2R8M+CGT1xzsHdWC3wRcZODxB/c
eigiqIthndIoB9z8J29c7KoiTxPYj1S/b4KemXQyg/Hv9HCFQ5Ec7xyVKuDSEXGU
8XaljIWOIjhq0gxvGQoNSnxJzk++L7QUwKTGc9q0QkjSu98CAwEAAaOBojCBnzAJ
BgNVHRMEAjAAMB0GA1UdDgQWBBQJFvP0S13K2N+F27gzJRe3ON9RhjBRBgNVHSME
SjBIgBRs2gJj63C0h/6o84p0duI6TCWKRqEapBgwFjEUMBIGA1UEAwwLdGVhbTI4
MS1uZXSCFHycvMnow7gfIZmwYNzQLjh3In6OMBMGA1UdJQQMMAoGCCsGAQUFBwMC
MAsGA1UdDwQEAwIHgDANBgkqhkiG9w0BAQsFAAOCAQEAlgZrztO6dNW921DJKlaq
z9HmgnPMaCQ/t87syTxWmkJPiubK2uyTWf6Mmn4269MX0wYbeWDRlt/ntG+M9QYZ
WMK72K0d2bLngnk6jPOjk/WjwxiXNvASL9WDhJ622OvLkVrUH3hDsT9vtoMH9EMv
GZIvcZYyfysQG6NP8/HxFKq7J46uRFsLMO6KJgmijBh9iLoOVLX9APpx9baxuXTI
WaUa63Sc2BVDAjNSWyinYOfJ8xcLsMa2JYP1IL9ayxIuNtURM0Q4O3DnlZiQ2gMF
14pwv4kx0OPSCW9lYQuBKsVl+nLhMHzjCOVq5QQayzBu+My55XYaypDcg0z1HNTQ
dw==
-----END CERTIFICATE-----
