Certificate:
    Data:
        Version: 3 (0x2)
        Serial Number:
            58:62:88:8e:04:25:fe:c5:68:83:b6:99:76:6a:71:0e
        Signature Algorithm: sha256WithRSAEncryption
        Issuer: CN=team365-net
        Validity
            Not Before: May 18 20:45:32 2022 GMT
            Not After : May  2 20:45:32 2025 GMT
        Subject: CN=team365-client
        Subject Public Key Info:
            Public Key Algorithm: rsaEncryption
                RSA Public-Key: (2048 bit)
                Modulus:
                    00:b0:d1:db:81:d9:8b:62:93:80:6b:06:18:8a:4f:
                    c4:83:7c:28:e6:83:aa:4a:17:f4:ca:01:23:c1:39:
                    0d:f7:26:2c:f1:5a:96:c1:6c:8f:9e:ec:57:6e:30:
                    79:72:53:eb:cb:ac:a5:cb:cd:05:a1:a6:30:6f:ee:
                    75:6d:76:cb:bd:82:d3:c5:a1:83:c7:9f:70:55:69:
                    07:8a:31:e3:72:d9:e3:4f:b0:d1:c6:9d:2b:d4:8a:
                    81:04:b9:e4:02:9a:11:fe:9e:28:1d:08:49:5f:94:
                    2c:44:ba:01:14:97:d0:d4:8f:f7:43:f2:73:69:63:
                    36:b2:a4:50:e5:cd:ec:ba:41:4a:3d:26:33:55:51:
                    05:cf:30:67:49:5c:7f:10:29:53:85:b1:bc:d2:52:
                    eb:46:62:6e:2a:55:3c:3a:4d:ab:82:46:5f:4e:07:
                    c7:a9:1b:b9:cd:2f:74:25:32:0f:2e:ee:b2:85:c9:
                    c8:f5:26:26:27:a0:d6:a1:33:42:fb:00:41:0b:23:
                    95:67:ef:4f:90:81:54:c5:4a:8e:ea:87:d8:d9:3c:
                    19:d3:7c:f1:a5:6d:2a:5b:be:6f:20:fd:f4:16:b8:
                    be:e3:ce:98:63:f8:ce:f2:78:de:b2:81:3a:89:9c:
                    28:f5:02:88:02:f1:95:c0:4e:cd:2c:46:39:72:ef:
                    2e:15
                Exponent: 65537 (0x10001)
        X509v3 extensions:
            X509v3 Basic Constraints: 
                CA:FALSE
            X509v3 Subject Key Identifier: 
                6B:A4:D9:D9:A7:0F:B3:27:97:45:34:F4:16:04:C1:0C:47:93:DD:20
            X509v3 Authority Key Identifier: 
                keyid:15:67:25:83:87:36:8B:7F:11:B0:B6:FC:9F:ED:46:20:BC:BD:84:00
                DirName:/CN=team365-net
                serial:60:55:4A:F9:F4:69:9E:FB:73:E7:EC:73:05:54:DE:81:60:2C:6F:B1

            X509v3 Extended Key Usage: 
                TLS Web Client Authentication
            X509v3 Key Usage: 
                Digital Signature
    Signature Algorithm: sha256WithRSAEncryption
         5a:91:a6:be:3f:4b:20:22:02:57:14:16:98:cb:36:ff:69:4f:
         ea:be:fc:9a:0e:ff:10:97:d0:9e:65:71:48:71:bf:db:76:3d:
         5b:b0:97:71:8b:e9:ab:ed:eb:e1:7d:94:20:a2:b1:be:ab:57:
         c9:05:0f:a0:4e:31:aa:e3:dd:f2:5d:72:d2:a1:b4:c8:fd:a2:
         26:79:5a:98:2b:af:43:b6:b4:2e:e4:5a:f7:3b:ba:f9:db:f2:
         ee:be:18:8e:24:ce:a9:e2:60:de:99:c4:58:ab:63:79:88:67:
         6d:8d:b0:64:6e:7e:64:df:18:93:6b:a9:77:d3:ec:8d:a8:c9:
         3e:77:44:bf:b7:a4:74:6e:30:54:6c:99:11:03:a4:dd:c6:76:
         2d:84:20:a6:ae:11:ff:c3:15:d9:e0:09:bb:cc:eb:1f:6a:44:
         5f:f4:f8:7c:24:1f:fc:4f:db:f6:87:85:60:f0:46:9c:4a:f5:
         fb:1e:b1:a2:e3:96:83:85:74:31:1e:86:bc:c9:55:84:7f:9c:
         62:3f:c1:0d:0d:92:67:7d:9f:98:da:5b:d5:be:08:9b:98:a4:
         a8:ba:d7:3d:89:ea:3e:58:78:28:ed:46:48:1e:8d:5d:59:46:
         7e:0a:b8:4d:02:fe:e6:3a:9a:de:25:36:ad:48:19:f8:8c:83:
         5d:c9:ad:42
-----BEGIN CERTIFICATE-----
MIIDXDCCAkSgAwIBAgIQWGKIjgQl/sVog7aZdmpxDjANBgkqhkiG9w0BAQsFADAW
MRQwEgYDVQQDDAt0ZWFtMzY1LW5ldDAeFw0yMjA1MTgyMDQ1MzJaFw0yNTA1MDIy
MDQ1MzJaMBkxFzAVBgNVBAMMDnRlYW0zNjUtY2xpZW50MIIBIjANBgkqhkiG9w0B
AQEFAAOCAQ8AMIIBCgKCAQEAsNHbgdmLYpOAawYYik/Eg3wo5oOqShf0ygEjwTkN
9yYs8VqWwWyPnuxXbjB5clPry6yly80FoaYwb+51bXbLvYLTxaGDx59wVWkHijHj
ctnjT7DRxp0r1IqBBLnkApoR/p4oHQhJX5QsRLoBFJfQ1I/3Q/JzaWM2sqRQ5c3s
ukFKPSYzVVEFzzBnSVx/EClThbG80lLrRmJuKlU8Ok2rgkZfTgfHqRu5zS90JTIP
Lu6yhcnI9SYmJ6DWoTNC+wBBCyOVZ+9PkIFUxUqO6ofY2TwZ03zxpW0qW75vIP30
Fri+486YY/jO8njesoE6iZwo9QKIAvGVwE7NLEY5cu8uFQIDAQABo4GiMIGfMAkG
A1UdEwQCMAAwHQYDVR0OBBYEFGuk2dmnD7Mnl0U09BYEwQxHk90gMFEGA1UdIwRK
MEiAFBVnJYOHNot/EbC2/J/tRiC8vYQAoRqkGDAWMRQwEgYDVQQDDAt0ZWFtMzY1
LW5ldIIUYFVK+fRpnvtz5+xzBVTegWAsb7EwEwYDVR0lBAwwCgYIKwYBBQUHAwIw
CwYDVR0PBAQDAgeAMA0GCSqGSIb3DQEBCwUAA4IBAQBakaa+P0sgIgJXFBaYyzb/
aU/qvvyaDv8Ql9CeZXFIcb/bdj1bsJdxi+mr7evhfZQgorG+q1fJBQ+gTjGq493y
XXLSobTI/aImeVqYK69DtrQu5Fr3O7r52/LuvhiOJM6p4mDemcRYq2N5iGdtjbBk
bn5k3xiTa6l30+yNqMk+d0S/t6R0bjBUbJkRA6TdxnYthCCmrhH/wxXZ4Am7zOsf
akRf9Ph8JB/8T9v2h4Vg8EacSvX7HrGi45aDhXQxHoa8yVWEf5xiP8ENDZJnfZ+Y
2lvVvgibmKSoutc9ieo+WHgo7UZIHo1dWUZ+CrhNAv7mOpreJTatSBn4jINdya1C
-----END CERTIFICATE-----
