Certificate:
    Data:
        Version: 3 (0x2)
        Serial Number:
            86:6a:e8:bf:cd:e7:ef:04:22:49:59:f5:2a:40:60:2c
        Signature Algorithm: sha256WithRSAEncryption
        Issuer: CN=team193-net
        Validity
            Not Before: May 18 18:58:12 2022 GMT
            Not After : May  2 18:58:12 2025 GMT
        Subject: CN=team193-client
        Subject Public Key Info:
            Public Key Algorithm: rsaEncryption
                RSA Public-Key: (2048 bit)
                Modulus:
                    00:c2:dd:a3:36:bb:2f:9e:23:7f:93:3f:e1:5d:00:
                    19:c4:25:d0:d3:d7:67:08:39:37:df:cf:4c:f4:b4:
                    fb:2e:09:ad:b4:85:5b:37:0f:54:8d:bc:2e:fb:f9:
                    82:97:6d:ab:3a:5e:35:54:0d:4e:7d:45:84:47:ab:
                    6f:00:5f:24:43:b9:d4:f3:f8:17:2c:ea:e3:a7:30:
                    5a:2a:ee:f9:af:c1:db:91:c3:19:28:74:3c:e4:b2:
                    8e:67:0e:9b:01:5e:f2:ca:c9:9c:07:ae:41:52:4f:
                    8f:80:b7:a0:dc:9b:3e:a6:41:ce:d0:2d:be:b5:8c:
                    9d:6c:27:c3:10:3c:ca:7d:d9:c9:65:38:85:a7:d1:
                    69:e5:16:2b:62:10:3b:ed:4c:b7:46:4d:33:3a:2e:
                    ee:7f:93:f6:c9:54:c3:6f:55:55:b7:fe:89:d5:3a:
                    06:85:a5:31:e5:70:df:6c:28:af:97:60:04:ef:a9:
                    77:d6:05:c7:f1:59:d1:1c:42:6d:a1:ec:e5:7f:ab:
                    f8:fd:a9:45:4a:14:5e:5e:4d:22:f3:73:6d:18:e9:
                    36:3f:c9:93:bd:e4:76:7d:8b:e0:79:9f:e7:b5:58:
                    d0:0d:79:e2:6a:be:de:32:de:57:09:2a:62:83:e1:
                    94:d3:26:1a:d0:b0:c5:6b:e5:95:f4:cf:16:21:67:
                    cc:11
                Exponent: 65537 (0x10001)
        X509v3 extensions:
            X509v3 Basic Constraints: 
                CA:FALSE
            X509v3 Subject Key Identifier: 
                6A:D2:D8:90:5A:7C:EA:FC:84:40:E7:B9:4C:38:CD:A0:A1:45:29:F8
            X509v3 Authority Key Identifier: 
                keyid:3F:A3:F5:12:D0:52:A7:5C:E8:47:89:51:87:BA:F1:48:B8:2A:9F:71
                DirName:/CN=team193-net
                serial:69:00:B7:8B:B7:83:0C:B0:F4:25:1E:40:A2:B8:C9:17:89:D0:BE:2F

            X509v3 Extended Key Usage: 
                TLS Web Client Authentication
            X509v3 Key Usage: 
                Digital Signature
    Signature Algorithm: sha256WithRSAEncryption
         45:ec:f9:79:8a:be:e7:b6:46:bb:25:f0:3c:ba:88:2f:a1:8c:
         d9:7c:79:1b:e8:f4:32:05:6d:8c:95:4e:ee:9d:1d:7e:a8:86:
         21:9e:7b:59:9a:15:4a:23:7d:69:8b:6d:0d:9a:b4:b7:78:7f:
         d2:91:55:49:73:a8:a5:db:2a:ff:95:f3:d4:c2:da:89:bf:8c:
         1b:53:bd:40:2d:c0:46:74:d3:9a:57:12:78:a9:45:c6:ca:f1:
         cc:45:60:bc:ff:54:ee:81:2a:8d:08:00:a6:b9:64:4b:e9:71:
         6f:69:cb:09:ea:27:f2:ec:76:92:ac:98:63:8a:72:61:6c:37:
         9a:83:39:f9:0a:88:ee:28:bf:f3:27:28:9e:e9:f2:db:ff:27:
         3f:5b:f6:66:73:aa:11:ff:95:fa:0b:4e:85:f0:96:07:d4:3f:
         cf:0a:84:df:90:bb:5e:bb:ae:27:17:a7:2b:59:52:d6:3f:9c:
         fa:bf:8a:01:2e:e5:1e:12:26:c6:3e:78:22:d9:11:3a:e4:68:
         02:8b:26:9f:57:61:6e:89:d1:47:c1:fa:ca:ff:50:7c:75:b0:
         94:e6:a7:0b:37:ef:c3:a0:2e:cc:c3:05:7e:f9:fd:9a:89:02:
         06:b7:4c:e9:2e:c2:34:4d:8a:80:49:00:b3:35:08:20:d9:f7:
         58:7a:31:d3
-----BEGIN CERTIFICATE-----
MIIDXTCCAkWgAwIBAgIRAIZq6L/N5+8EIklZ9SpAYCwwDQYJKoZIhvcNAQELBQAw
FjEUMBIGA1UEAwwLdGVhbTE5My1uZXQwHhcNMjIwNTE4MTg1ODEyWhcNMjUwNTAy
MTg1ODEyWjAZMRcwFQYDVQQDDA50ZWFtMTkzLWNsaWVudDCCASIwDQYJKoZIhvcN
AQEBBQADggEPADCCAQoCggEBAMLdoza7L54jf5M/4V0AGcQl0NPXZwg5N9/PTPS0
+y4JrbSFWzcPVI28Lvv5gpdtqzpeNVQNTn1FhEerbwBfJEO51PP4Fyzq46cwWiru
+a/B25HDGSh0POSyjmcOmwFe8srJnAeuQVJPj4C3oNybPqZBztAtvrWMnWwnwxA8
yn3ZyWU4hafRaeUWK2IQO+1Mt0ZNMzou7n+T9slUw29VVbf+idU6BoWlMeVw32wo
r5dgBO+pd9YFx/FZ0RxCbaHs5X+r+P2pRUoUXl5NIvNzbRjpNj/Jk73kdn2L4Hmf
57VY0A154mq+3jLeVwkqYoPhlNMmGtCwxWvllfTPFiFnzBECAwEAAaOBojCBnzAJ
BgNVHRMEAjAAMB0GA1UdDgQWBBRq0tiQWnzq/IRA57lMOM2goUUp+DBRBgNVHSME
SjBIgBQ/o/US0FKnXOhHiVGHuvFIuCqfcaEapBgwFjEUMBIGA1UEAwwLdGVhbTE5
My1uZXSCFGkAt4u3gwyw9CUeQKK4yReJ0L4vMBMGA1UdJQQMMAoGCCsGAQUFBwMC
MAsGA1UdDwQEAwIHgDANBgkqhkiG9w0BAQsFAAOCAQEARez5eYq+57ZGuyXwPLqI
L6GM2Xx5G+j0MgVtjJVO7p0dfqiGIZ57WZoVSiN9aYttDZq0t3h/0pFVSXOopdsq
/5Xz1MLaib+MG1O9QC3ARnTTmlcSeKlFxsrxzEVgvP9U7oEqjQgAprlkS+lxb2nL
Ceon8ux2kqyYY4pyYWw3moM5+QqI7ii/8yconuny2/8nP1v2ZnOqEf+V+gtOhfCW
B9Q/zwqE35C7XruuJxenK1lS1j+c+r+KAS7lHhImxj54ItkROuRoAosmn1dhbonR
R8H6yv9QfHWwlOanCzfvw6AuzMMFfvn9mokCBrdM6S7CNE2KgEkAszUIINn3WHox
0w==
-----END CERTIFICATE-----
