Certificate:
    Data:
        Version: 3 (0x2)
        Serial Number:
            80:4b:96:6f:05:d1:eb:53:cc:8f:91:fc:08:eb:c6:bd
        Signature Algorithm: sha256WithRSAEncryption
        Issuer: CN=team317-net
        Validity
            Not Before: May 18 20:04:38 2022 GMT
            Not After : May  2 20:04:38 2025 GMT
        Subject: CN=team317-client
        Subject Public Key Info:
            Public Key Algorithm: rsaEncryption
                RSA Public-Key: (2048 bit)
                Modulus:
                    00:d4:68:61:3a:e3:e9:96:de:e6:e3:6f:26:a8:71:
                    01:30:0d:a0:a6:dc:2e:66:7f:b4:18:a0:e4:13:2d:
                    1d:a4:78:f4:ba:50:de:4f:e7:d4:d9:c4:5d:1b:ed:
                    5f:f1:b2:7a:83:47:1b:c3:fc:33:78:8a:2f:16:42:
                    62:81:9d:8c:d2:ed:bb:f2:71:dc:41:d5:13:00:c5:
                    02:00:26:4b:2f:2c:cb:0f:fd:91:5e:b7:e7:9e:58:
                    57:92:a8:64:c3:ae:73:a0:f9:ab:ca:d7:04:5a:50:
                    5c:f4:7c:61:f7:50:2b:b0:0f:3a:f7:18:85:47:3a:
                    56:06:d2:63:c9:d4:be:f1:8d:88:96:04:68:1c:66:
                    bf:ce:aa:0a:36:95:47:ce:49:a9:9c:59:c7:45:dd:
                    a7:5a:dc:c7:bc:83:fb:1b:57:b3:72:3a:bb:ab:45:
                    42:99:f4:70:aa:c0:1e:df:05:a7:35:84:f1:e7:8d:
                    4e:ba:0e:dc:8c:54:c1:33:d3:41:be:51:ed:32:2d:
                    10:40:ea:2a:03:e0:3d:e2:e2:a7:27:f7:1f:64:e0:
                    01:cf:b8:b2:62:b0:17:70:3b:fc:09:a2:09:a1:3e:
                    e8:af:29:68:f6:c8:f8:1d:79:a3:82:30:4c:63:21:
                    99:0c:00:57:fd:53:b6:6a:ab:01:61:2f:52:92:bd:
                    d7:cf
                Exponent: 65537 (0x10001)
        X509v3 extensions:
            X509v3 Basic Constraints: 
                CA:FALSE
            X509v3 Subject Key Identifier: 
                28:C9:AE:CD:DF:F5:0C:45:B3:22:56:36:60:3E:00:BE:30:2E:10:8D
            X509v3 Authority Key Identifier: 
                keyid:36:69:D0:2A:A6:40:B4:D5:D4:FE:D1:24:F9:76:51:6C:15:E3:F2:ED
                DirName:/CN=team317-net
                serial:68:C8:1E:32:A4:31:A3:08:B0:18:0E:08:9D:7E:F5:00:AC:27:71:93

            X509v3 Extended Key Usage: 
                TLS Web Client Authentication
            X509v3 Key Usage: 
                Digital Signature
    Signature Algorithm: sha256WithRSAEncryption
         a6:17:cd:57:1f:05:3c:ab:98:67:b1:2b:5b:a9:d3:f1:07:c6:
         79:3f:42:2b:4c:13:4b:2c:a3:5c:b9:49:01:82:0e:40:37:08:
         2e:d3:12:e9:67:73:7e:cb:b5:4b:5d:6f:17:ed:e4:43:bb:85:
         3d:0a:54:32:d6:c3:71:b9:53:71:05:13:fd:33:f1:97:da:82:
         cc:d8:e9:b9:e3:3e:10:f7:c1:c0:ba:1e:61:4d:f1:2f:95:2e:
         6f:af:7c:49:a7:89:b3:59:e9:5a:69:ff:87:a4:ae:c2:12:7e:
         3d:95:85:6b:79:7a:85:02:0d:bb:35:14:ea:41:f8:9f:85:c8:
         2f:21:df:c2:59:93:8c:11:97:4d:ce:17:dd:f3:16:ba:21:a5:
         51:13:b4:21:59:2c:6a:35:4b:27:ea:49:aa:f3:b6:07:61:f8:
         32:c7:1e:e3:61:ff:34:c2:17:99:05:9e:dd:e4:05:71:0b:ae:
         52:72:85:fd:48:cc:f1:53:3d:39:c8:c4:4b:22:74:88:66:1b:
         87:e1:f3:cb:2b:50:6b:f0:22:65:7b:44:03:cc:6c:c5:54:65:
         ea:a7:d6:fc:7f:5a:c8:94:73:0e:b4:1c:99:0c:a3:6c:f4:88:
         ea:d5:0b:d8:4e:ca:2f:dd:db:20:48:52:5d:79:f0:1a:8b:8d:
         8d:9d:65:08
-----BEGIN CERTIFICATE-----
MIIDXTCCAkWgAwIBAgIRAIBLlm8F0etTzI+R/Ajrxr0wDQYJKoZIhvcNAQELBQAw
FjEUMBIGA1UEAwwLdGVhbTMxNy1uZXQwHhcNMjIwNTE4MjAwNDM4WhcNMjUwNTAy
MjAwNDM4WjAZMRcwFQYDVQQDDA50ZWFtMzE3LWNsaWVudDCCASIwDQYJKoZIhvcN
AQEBBQADggEPADCCAQoCggEBANRoYTrj6Zbe5uNvJqhxATANoKbcLmZ/tBig5BMt
HaR49LpQ3k/n1NnEXRvtX/GyeoNHG8P8M3iKLxZCYoGdjNLtu/Jx3EHVEwDFAgAm
Sy8syw/9kV63555YV5KoZMOuc6D5q8rXBFpQXPR8YfdQK7APOvcYhUc6VgbSY8nU
vvGNiJYEaBxmv86qCjaVR85JqZxZx0Xdp1rcx7yD+xtXs3I6u6tFQpn0cKrAHt8F
pzWE8eeNTroO3IxUwTPTQb5R7TItEEDqKgPgPeLipyf3H2TgAc+4smKwF3A7/Ami
CaE+6K8paPbI+B15o4IwTGMhmQwAV/1TtmqrAWEvUpK9188CAwEAAaOBojCBnzAJ
BgNVHRMEAjAAMB0GA1UdDgQWBBQoya7N3/UMRbMiVjZgPgC+MC4QjTBRBgNVHSME
SjBIgBQ2adAqpkC01dT+0ST5dlFsFePy7aEapBgwFjEUMBIGA1UEAwwLdGVhbTMx
Ny1uZXSCFGjIHjKkMaMIsBgOCJ1+9QCsJ3GTMBMGA1UdJQQMMAoGCCsGAQUFBwMC
MAsGA1UdDwQEAwIHgDANBgkqhkiG9w0BAQsFAAOCAQEAphfNVx8FPKuYZ7ErW6nT
8QfGeT9CK0wTSyyjXLlJAYIOQDcILtMS6Wdzfsu1S11vF+3kQ7uFPQpUMtbDcblT
cQUT/TPxl9qCzNjpueM+EPfBwLoeYU3xL5Uub698SaeJs1npWmn/h6SuwhJ+PZWF
a3l6hQINuzUU6kH4n4XILyHfwlmTjBGXTc4X3fMWuiGlURO0IVksajVLJ+pJqvO2
B2H4Msce42H/NMIXmQWe3eQFcQuuUnKF/UjM8VM9OcjESyJ0iGYbh+HzyytQa/Ai
ZXtEA8xsxVRl6qfW/H9ayJRzDrQcmQyjbPSI6tUL2E7KL93bIEhSXXnwGouNjZ1l
CA==
-----END CERTIFICATE-----
