Certificate:
    Data:
        Version: 3 (0x2)
        Serial Number:
            af:de:4b:10:a1:e9:75:2c:64:a9:d7:4a:e1:0d:3e:3d
        Signature Algorithm: sha256WithRSAEncryption
        Issuer: CN=team612-net
        Validity
            Not Before: May 18 22:45:12 2022 GMT
            Not After : May  2 22:45:12 2025 GMT
        Subject: CN=team612-client
        Subject Public Key Info:
            Public Key Algorithm: rsaEncryption
                RSA Public-Key: (2048 bit)
                Modulus:
                    00:9d:ec:0a:ad:78:9c:88:d8:c5:ad:1e:39:40:90:
                    42:36:7b:7a:05:26:ae:9f:e8:f6:74:4c:a6:30:00:
                    4e:c9:c2:d0:e3:05:7c:2a:b4:94:59:8c:27:45:f9:
                    2d:67:c7:c5:28:e8:05:88:07:35:d3:e4:63:9d:66:
                    65:4e:ca:b5:60:13:21:8e:b4:c7:33:d3:6e:37:5a:
                    f5:be:64:33:e6:03:e3:15:8b:ca:f4:f6:6c:7f:97:
                    4f:b2:10:e3:89:dc:35:9f:4e:85:21:e2:f5:21:16:
                    24:85:9f:e7:a2:34:8d:f3:0f:31:d8:d2:f1:50:b6:
                    28:2e:a4:3a:ab:8e:44:16:31:8b:3a:75:20:82:2c:
                    24:70:65:fb:ab:72:0d:47:39:7e:e4:1a:eb:96:68:
                    ed:d0:5a:73:20:c5:e8:d2:ad:5f:5c:c4:40:cb:d9:
                    e2:7b:6d:4f:a0:45:93:56:6c:84:97:00:10:4b:03:
                    9a:12:08:08:34:1a:29:71:7e:6f:ed:e5:12:90:ec:
                    ff:a3:7e:0a:ef:08:73:c4:c5:58:6b:d9:af:6b:e5:
                    ce:80:1f:83:c6:24:b4:8f:39:19:b8:88:68:c7:31:
                    1e:bd:3c:50:2b:1c:76:23:b8:4d:1e:04:e5:f6:0f:
                    61:8a:cf:67:d3:a4:66:cf:fc:d0:a0:eb:6e:83:26:
                    63:bf
                Exponent: 65537 (0x10001)
        X509v3 extensions:
            X509v3 Basic Constraints: 
                CA:FALSE
            X509v3 Subject Key Identifier: 
                EF:7B:1A:2C:EE:28:68:AF:93:AC:B8:1A:7B:D4:B7:64:6E:BC:ED:64
            X509v3 Authority Key Identifier: 
                keyid:0B:DE:D0:81:9B:68:23:CC:23:4A:C0:B8:2A:10:80:E1:28:8B:DB:A1
                DirName:/CN=team612-net
                serial:33:BE:88:8E:11:7C:D9:F4:23:41:E0:87:87:D8:6A:50:87:23:21:78

            X509v3 Extended Key Usage: 
                TLS Web Client Authentication
            X509v3 Key Usage: 
                Digital Signature
    Signature Algorithm: sha256WithRSAEncryption
         16:82:41:0a:f0:49:84:6b:9f:1c:3a:f2:3e:6d:0b:1c:7e:9a:
         ca:4f:d3:33:5d:99:0d:bf:4b:df:b5:d7:83:1b:cd:e4:f0:53:
         6f:0e:17:2f:90:e2:b2:3d:7f:ba:d7:aa:67:1e:ae:4b:10:69:
         8e:1e:91:ba:b6:11:72:6f:c1:9a:a7:5a:ee:34:f0:59:df:3d:
         15:c7:23:90:25:f3:cb:b1:db:ec:c1:71:d4:a1:cd:4b:a0:15:
         7d:ce:95:9f:72:e8:86:71:57:55:fe:63:e5:ec:6d:d5:87:0b:
         3e:0e:0b:75:0a:14:f6:46:ee:8e:c5:bb:ba:d9:45:7d:03:06:
         b0:fc:b9:3f:42:b1:32:d9:fa:4d:ff:50:8a:01:b4:55:e3:7d:
         0b:a0:17:f1:31:91:3a:e8:4f:88:20:86:f1:c6:ce:8d:a5:7e:
         4d:16:7f:92:5d:b2:a7:46:de:9e:c5:86:8f:be:be:47:f6:ba:
         67:6c:b2:a8:37:95:fd:83:27:e5:7c:6c:06:03:28:d5:fc:53:
         32:5c:f5:81:1d:bc:4b:20:44:12:e7:00:88:0c:16:ca:17:71:
         e6:6f:e3:91:a0:29:a3:f6:cb:0f:36:2a:74:50:5e:db:8b:82:
         4b:df:a1:43:5f:6c:87:2f:69:1d:61:6e:1e:60:21:23:51:52:
         6d:8d:02:f8
-----BEGIN CERTIFICATE-----
MIIDXTCCAkWgAwIBAgIRAK/eSxCh6XUsZKnXSuENPj0wDQYJKoZIhvcNAQELBQAw
FjEUMBIGA1UEAwwLdGVhbTYxMi1uZXQwHhcNMjIwNTE4MjI0NTEyWhcNMjUwNTAy
MjI0NTEyWjAZMRcwFQYDVQQDDA50ZWFtNjEyLWNsaWVudDCCASIwDQYJKoZIhvcN
AQEBBQADggEPADCCAQoCggEBAJ3sCq14nIjYxa0eOUCQQjZ7egUmrp/o9nRMpjAA
TsnC0OMFfCq0lFmMJ0X5LWfHxSjoBYgHNdPkY51mZU7KtWATIY60xzPTbjda9b5k
M+YD4xWLyvT2bH+XT7IQ44ncNZ9OhSHi9SEWJIWf56I0jfMPMdjS8VC2KC6kOquO
RBYxizp1IIIsJHBl+6tyDUc5fuQa65Zo7dBacyDF6NKtX1zEQMvZ4nttT6BFk1Zs
hJcAEEsDmhIICDQaKXF+b+3lEpDs/6N+Cu8Ic8TFWGvZr2vlzoAfg8YktI85GbiI
aMcxHr08UCscdiO4TR4E5fYPYYrPZ9OkZs/80KDrboMmY78CAwEAAaOBojCBnzAJ
BgNVHRMEAjAAMB0GA1UdDgQWBBTvexos7ihor5OsuBp71LdkbrztZDBRBgNVHSME
SjBIgBQL3tCBm2gjzCNKwLgqEIDhKIvboaEapBgwFjEUMBIGA1UEAwwLdGVhbTYx
Mi1uZXSCFDO+iI4RfNn0I0Hgh4fYalCHIyF4MBMGA1UdJQQMMAoGCCsGAQUFBwMC
MAsGA1UdDwQEAwIHgDANBgkqhkiG9w0BAQsFAAOCAQEAFoJBCvBJhGufHDryPm0L
HH6ayk/TM12ZDb9L37XXgxvN5PBTbw4XL5Disj1/uteqZx6uSxBpjh6RurYRcm/B
mqda7jTwWd89FccjkCXzy7Hb7MFx1KHNS6AVfc6Vn3LohnFXVf5j5ext1YcLPg4L
dQoU9kbujsW7utlFfQMGsPy5P0KxMtn6Tf9QigG0VeN9C6AX8TGROuhPiCCG8cbO
jaV+TRZ/kl2yp0bensWGj76+R/a6Z2yyqDeV/YMn5XxsBgMo1fxTMlz1gR28SyBE
EucAiAwWyhdx5m/jkaApo/bLDzYqdFBe24uCS9+hQ19shy9pHWFuHmAhI1FSbY0C
+A==
-----END CERTIFICATE-----
