Certificate:
    Data:
        Version: 3 (0x2)
        Serial Number:
            fe:fa:70:4f:01:94:46:a1:4c:e4:56:2e:ea:60:d7:f3
        Signature Algorithm: sha256WithRSAEncryption
        Issuer: CN=team612-net
        Validity
            Not Before: May 18 22:45:12 2022 GMT
            Not After : May  2 22:45:12 2025 GMT
        Subject: CN=team612-server
        Subject Public Key Info:
            Public Key Algorithm: rsaEncryption
                RSA Public-Key: (2048 bit)
                Modulus:
                    00:c2:f7:29:29:84:df:e2:d3:7d:8c:79:7c:af:48:
                    87:b4:6b:e0:98:01:ee:1f:ab:da:4c:33:81:21:c5:
                    c4:ca:0a:7f:8f:e1:09:ea:83:c8:28:9c:33:8a:21:
                    3b:bd:a6:bc:f8:cd:7a:e1:0d:26:30:ff:c8:a1:1b:
                    49:ac:ea:7d:94:b1:98:f0:bd:c7:79:a0:b4:a5:d3:
                    37:23:f5:30:01:02:2c:85:4b:91:58:83:60:2c:b5:
                    ad:ab:43:8e:b4:40:b1:05:40:62:6a:df:10:76:63:
                    5d:93:76:f2:3b:f8:42:f6:9f:59:da:1d:24:54:b7:
                    c7:97:fc:e9:36:f0:b6:6f:cf:d7:a8:d3:59:2a:19:
                    e9:06:d2:96:8f:28:fc:2b:7d:ed:07:5e:5f:86:32:
                    bb:36:e4:95:94:6b:8b:b7:1f:9e:47:f7:37:6a:ad:
                    f5:d7:cf:25:d8:0d:59:ee:bc:c0:ee:87:37:7e:5d:
                    54:17:f7:f4:02:84:64:84:d0:09:e4:01:c1:a6:90:
                    7c:8e:04:38:30:9b:bf:61:7d:26:9d:bb:d8:ad:d5:
                    91:6c:9e:26:6b:9c:2f:e6:8c:e6:b4:91:d6:cf:50:
                    d2:16:37:bc:bd:69:5c:98:18:2a:6f:af:ce:6b:92:
                    e0:7b:6d:db:18:25:17:3a:a6:7b:d1:ef:f6:a8:e5:
                    f2:d5
                Exponent: 65537 (0x10001)
        X509v3 extensions:
            X509v3 Basic Constraints: 
                CA:FALSE
            X509v3 Subject Key Identifier: 
                2C:67:BA:CB:E6:2E:CB:38:65:2B:AB:95:A2:F0:1D:89:F7:C5:92:F6
            X509v3 Authority Key Identifier: 
                keyid:0B:DE:D0:81:9B:68:23:CC:23:4A:C0:B8:2A:10:80:E1:28:8B:DB:A1
                DirName:/CN=team612-net
                serial:33:BE:88:8E:11:7C:D9:F4:23:41:E0:87:87:D8:6A:50:87:23:21:78

            X509v3 Extended Key Usage: 
                TLS Web Server Authentication
            X509v3 Key Usage: 
                Digital Signature, Key Encipherment
            X509v3 Subject Alternative Name: 
                DNS:team612-server
    Signature Algorithm: sha256WithRSAEncryption
         2f:61:a4:a7:79:c0:86:78:e9:ea:8c:d5:8d:19:58:26:12:fd:
         4e:ed:2e:95:f7:6e:5c:60:b0:5b:06:1a:79:2b:67:8f:d8:e2:
         57:70:c5:54:34:cd:99:a4:77:59:88:94:46:d9:3d:74:f4:7e:
         09:5c:29:e1:88:4d:5e:0d:41:ee:7d:8b:24:69:42:5b:1a:45:
         78:a0:86:ea:9d:7b:f5:f1:9b:c5:56:0d:af:c9:dd:0a:6c:35:
         7e:5a:b0:09:9b:a5:a1:e1:7a:7c:ea:ff:a3:e3:20:01:46:26:
         4f:5e:a3:c3:e2:5b:e7:8f:ba:be:c2:62:31:99:7a:62:4a:84:
         ef:74:37:f8:1c:19:ef:6f:af:a6:fa:29:7c:9f:5f:33:ef:cf:
         15:5a:26:cc:64:ba:6e:10:3b:4b:fc:67:e2:dd:4e:c8:2e:d2:
         ed:41:35:b6:f6:90:1a:15:10:58:dc:c9:11:db:c8:79:65:1f:
         eb:26:f2:b8:ac:42:c8:0a:c9:68:7b:52:7d:8c:ec:6e:b0:d5:
         1d:ff:a9:b9:f6:d8:72:c6:2f:18:77:12:41:9a:39:f0:23:ed:
         f6:7a:bd:f1:b4:7a:e6:f0:0f:10:cf:33:aa:4f:4d:4e:34:87:
         3d:b6:58:bb:be:2a:06:77:53:ba:d9:75:58:5a:07:25:b9:08:
         da:73:99:0e
-----BEGIN CERTIFICATE-----
MIIDeDCCAmCgAwIBAgIRAP76cE8BlEahTORWLupg1/MwDQYJKoZIhvcNAQELBQAw
FjEUMBIGA1UEAwwLdGVhbTYxMi1uZXQwHhcNMjIwNTE4MjI0NTEyWhcNMjUwNTAy
MjI0NTEyWjAZMRcwFQYDVQQDDA50ZWFtNjEyLXNlcnZlcjCCASIwDQYJKoZIhvcN
AQEBBQADggEPADCCAQoCggEBAML3KSmE3+LTfYx5fK9Ih7Rr4JgB7h+r2kwzgSHF
xMoKf4/hCeqDyCicM4ohO72mvPjNeuENJjD/yKEbSazqfZSxmPC9x3mgtKXTNyP1
MAECLIVLkViDYCy1ratDjrRAsQVAYmrfEHZjXZN28jv4QvafWdodJFS3x5f86Tbw
tm/P16jTWSoZ6QbSlo8o/Ct97QdeX4YyuzbklZRri7cfnkf3N2qt9dfPJdgNWe68
wO6HN35dVBf39AKEZITQCeQBwaaQfI4EODCbv2F9Jp272K3VkWyeJmucL+aM5rSR
1s9Q0hY3vL1pXJgYKm+vzmuS4Htt2xglFzqme9Hv9qjl8tUCAwEAAaOBvTCBujAJ
BgNVHRMEAjAAMB0GA1UdDgQWBBQsZ7rL5i7LOGUrq5Wi8B2J98WS9jBRBgNVHSME
SjBIgBQL3tCBm2gjzCNKwLgqEIDhKIvboaEapBgwFjEUMBIGA1UEAwwLdGVhbTYx
Mi1uZXSCFDO+iI4RfNn0I0Hgh4fYalCHIyF4MBMGA1UdJQQMMAoGCCsGAQUFBwMB
MAsGA1UdDwQEAwIFoDAZBgNVHREEEjAQgg50ZWFtNjEyLXNlcnZlcjANBgkqhkiG
9w0BAQsFAAOCAQEAL2Gkp3nAhnjp6ozVjRlYJhL9Tu0ulfduXGCwWwYaeStnj9ji
V3DFVDTNmaR3WYiURtk9dPR+CVwp4YhNXg1B7n2LJGlCWxpFeKCG6p179fGbxVYN
r8ndCmw1flqwCZuloeF6fOr/o+MgAUYmT16jw+Jb54+6vsJiMZl6YkqE73Q3+BwZ
72+vpvopfJ9fM+/PFVomzGS6bhA7S/xn4t1OyC7S7UE1tvaQGhUQWNzJEdvIeWUf
6ybyuKxCyArJaHtSfYzsbrDVHf+pufbYcsYvGHcSQZo58CPt9nq98bR65vAPEM8z
qk9NTjSHPbZYu74qBndTutl1WFoHJbkI2nOZDg==
-----END CERTIFICATE-----
