Certificate:
    Data:
        Version: 3 (0x2)
        Serial Number:
            30:dd:18:8b:8c:43:22:43:0b:89:ac:36:08:97:97:2d
        Signature Algorithm: sha256WithRSAEncryption
        Issuer: CN=team415-net
        Validity
            Not Before: May 18 21:07:43 2022 GMT
            Not After : May  2 21:07:43 2025 GMT
        Subject: CN=team415-client
        Subject Public Key Info:
            Public Key Algorithm: rsaEncryption
                RSA Public-Key: (2048 bit)
                Modulus:
                    00:f7:91:13:f5:31:02:f1:58:07:fe:42:2d:e7:f5:
                    9f:5e:8a:6c:ea:15:3d:57:2d:1a:51:da:8e:66:5c:
                    a1:df:af:53:ec:0f:c6:9c:c2:13:35:be:35:2c:e6:
                    0f:8c:e5:91:a3:a1:c7:e1:10:c7:9f:e7:ef:33:80:
                    5c:dd:ee:9a:65:d5:2c:77:f3:56:e6:4f:5d:66:34:
                    bf:34:8a:3b:e7:f3:55:ae:fb:fb:b9:db:3a:7c:a3:
                    8c:b4:93:9b:85:dd:79:7e:e0:fb:1c:bd:c5:da:31:
                    9e:f7:c1:c8:eb:4d:cf:b0:f7:16:ed:61:a4:3f:5a:
                    2e:6f:da:d7:f4:b5:89:da:e0:b8:e3:ca:dd:01:0f:
                    4e:33:eb:d7:2d:ff:81:89:d2:13:80:3c:23:9a:9c:
                    1b:b5:59:77:28:1a:20:46:15:ef:68:7e:09:ed:2a:
                    21:b9:05:e2:b6:99:3d:b5:0b:7a:3e:99:df:a0:50:
                    de:bf:40:55:38:78:13:af:4f:d7:75:03:84:e7:81:
                    e8:a9:dc:77:70:e2:9a:ba:fa:f2:ff:d5:26:f8:7c:
                    32:4b:af:eb:6a:2e:98:03:ed:64:b5:f3:bf:12:83:
                    80:1d:8b:5d:23:f8:50:65:81:ac:fd:07:06:af:10:
                    75:39:b6:50:cf:5a:6c:37:30:b4:8c:7c:51:18:09:
                    75:2d
                Exponent: 65537 (0x10001)
        X509v3 extensions:
            X509v3 Basic Constraints: 
                CA:FALSE
            X509v3 Subject Key Identifier: 
                F1:CB:0C:F3:53:08:EF:D2:5B:D6:F8:F0:AD:E0:98:D2:50:BF:DA:57
            X509v3 Authority Key Identifier: 
                keyid:37:C0:DE:72:07:18:23:67:41:F2:12:3F:FC:9D:BA:AF:DC:31:48:7C
                DirName:/CN=team415-net
                serial:42:F0:9C:B6:12:D9:40:19:7B:5E:82:73:CD:63:A1:93:25:57:74:ED

            X509v3 Extended Key Usage: 
                TLS Web Client Authentication
            X509v3 Key Usage: 
                Digital Signature
    Signature Algorithm: sha256WithRSAEncryption
         84:85:d1:51:24:b8:20:15:f9:3c:58:ef:b7:b5:2b:d9:f1:77:
         4c:15:b9:ff:9e:4d:cd:9b:f7:fc:01:d8:d0:c9:1f:8b:27:65:
         22:22:14:68:92:87:e0:66:e4:61:39:1f:de:4b:12:8a:07:11:
         16:3e:a9:4e:15:9f:7f:bc:12:e0:f6:64:2f:ed:06:59:57:03:
         06:6b:2f:08:c7:b2:42:ea:22:e4:2f:2b:15:06:fe:a8:21:74:
         e6:56:53:1c:8b:69:34:ad:aa:92:01:f4:5a:47:47:c7:0d:ce:
         04:ef:58:f7:a2:a4:1b:73:62:3d:eb:60:9f:c8:27:5f:cd:71:
         a2:31:2d:3d:a0:fd:6a:dd:46:cd:47:6c:62:6a:47:1f:04:f9:
         fe:2e:9f:65:4f:9e:1e:d3:90:5e:e3:ed:56:1e:1b:a4:dc:ca:
         8d:32:0b:d4:fb:45:46:e8:e4:32:3e:b2:93:32:3e:4c:e3:dd:
         46:c6:33:8e:f8:f1:4b:f9:23:3e:14:d1:7e:73:34:1e:5a:25:
         9f:53:bb:4f:44:ac:0e:bd:29:8e:6a:4b:ef:fb:9e:53:04:97:
         11:b8:95:49:1b:46:ec:cf:bc:3d:68:81:7a:a4:83:dc:55:25:
         75:b6:ff:8f:d9:f8:5c:51:7d:f6:84:e9:02:19:f9:ed:c1:6b:
         e6:3d:a1:a1
-----BEGIN CERTIFICATE-----
MIIDXDCCAkSgAwIBAgIQMN0Yi4xDIkMLiaw2CJeXLTANBgkqhkiG9w0BAQsFADAW
MRQwEgYDVQQDDAt0ZWFtNDE1LW5ldDAeFw0yMjA1MTgyMTA3NDNaFw0yNTA1MDIy
MTA3NDNaMBkxFzAVBgNVBAMMDnRlYW00MTUtY2xpZW50MIIBIjANBgkqhkiG9w0B
AQEFAAOCAQ8AMIIBCgKCAQEA95ET9TEC8VgH/kIt5/WfXops6hU9Vy0aUdqOZlyh
369T7A/GnMITNb41LOYPjOWRo6HH4RDHn+fvM4Bc3e6aZdUsd/NW5k9dZjS/NIo7
5/NVrvv7uds6fKOMtJObhd15fuD7HL3F2jGe98HI603PsPcW7WGkP1oub9rX9LWJ
2uC448rdAQ9OM+vXLf+BidITgDwjmpwbtVl3KBogRhXvaH4J7SohuQXitpk9tQt6
PpnfoFDev0BVOHgTr0/XdQOE54Hoqdx3cOKauvry/9Um+HwyS6/rai6YA+1ktfO/
EoOAHYtdI/hQZYGs/QcGrxB1ObZQz1psNzC0jHxRGAl1LQIDAQABo4GiMIGfMAkG
A1UdEwQCMAAwHQYDVR0OBBYEFPHLDPNTCO/SW9b48K3gmNJQv9pXMFEGA1UdIwRK
MEiAFDfA3nIHGCNnQfISP/yduq/cMUh8oRqkGDAWMRQwEgYDVQQDDAt0ZWFtNDE1
LW5ldIIUQvCcthLZQBl7XoJzzWOhkyVXdO0wEwYDVR0lBAwwCgYIKwYBBQUHAwIw
CwYDVR0PBAQDAgeAMA0GCSqGSIb3DQEBCwUAA4IBAQCEhdFRJLggFfk8WO+3tSvZ
8XdMFbn/nk3Nm/f8AdjQyR+LJ2UiIhRokofgZuRhOR/eSxKKBxEWPqlOFZ9/vBLg
9mQv7QZZVwMGay8Ix7JC6iLkLysVBv6oIXTmVlMci2k0raqSAfRaR0fHDc4E71j3
oqQbc2I962CfyCdfzXGiMS09oP1q3UbNR2xiakcfBPn+Lp9lT54e05Be4+1WHhuk
3MqNMgvU+0VG6OQyPrKTMj5M491GxjOO+PFL+SM+FNF+czQeWiWfU7tPRKwOvSmO
akvv+55TBJcRuJVJG0bsz7w9aIF6pIPcVSV1tv+P2fhcUX32hOkCGfntwWvmPaGh
-----END CERTIFICATE-----
