Certificate:
    Data:
        Version: 3 (0x2)
        Serial Number:
            37:5b:b2:93:d2:46:3d:4f:3f:dc:c3:94:5e:32:f0:ec
        Signature Algorithm: sha256WithRSAEncryption
        Issuer: CN=team264-net
        Validity
            Not Before: May 18 19:36:15 2022 GMT
            Not After : May  2 19:36:15 2025 GMT
        Subject: CN=team264-client
        Subject Public Key Info:
            Public Key Algorithm: rsaEncryption
                RSA Public-Key: (2048 bit)
                Modulus:
                    00:a3:99:cf:61:05:88:eb:4e:89:7e:63:75:88:d3:
                    92:97:80:0a:e9:eb:a8:7a:0d:12:7d:7e:e6:77:ee:
                    05:76:02:8f:74:0a:68:03:16:02:49:a0:a6:8e:58:
                    99:b3:73:57:af:1d:95:32:2e:19:bf:56:51:82:7a:
                    5b:fd:5c:36:23:fe:b5:34:64:92:22:e5:c8:55:4f:
                    4c:ef:bc:a8:5f:86:82:06:d2:73:0f:88:1c:96:44:
                    73:20:a8:c7:da:31:3b:f0:1d:fc:b4:b3:46:21:f5:
                    a6:73:14:fc:62:67:6b:4f:e1:30:9c:f9:bd:ef:1e:
                    71:fc:81:3e:25:cf:e0:a3:38:79:71:d8:e3:78:83:
                    ee:8e:45:07:83:d8:37:e4:cb:f6:25:54:8a:10:54:
                    e8:25:51:2b:5d:f9:6d:6a:44:4c:4b:d8:76:90:3b:
                    08:e5:cb:1c:fa:70:16:f2:44:9a:cc:83:fc:fa:0f:
                    7f:c8:e9:46:e4:be:c7:9c:40:e5:6b:6e:10:33:e3:
                    ad:30:5a:77:b8:32:ad:c7:05:9e:75:5b:8b:2a:31:
                    b8:4a:45:07:49:8a:39:2e:af:76:fd:f4:8f:8d:4d:
                    66:49:b1:98:ea:07:3d:f6:e3:9f:f8:5f:67:7c:bc:
                    54:0e:0f:33:d2:76:5a:58:e0:15:14:a2:bc:51:e6:
                    b6:e1
                Exponent: 65537 (0x10001)
        X509v3 extensions:
            X509v3 Basic Constraints: 
                CA:FALSE
            X509v3 Subject Key Identifier: 
                96:5B:E2:1D:06:9D:04:9B:FD:4F:A9:F4:00:41:11:A5:F7:74:7E:97
            X509v3 Authority Key Identifier: 
                keyid:6F:C5:51:15:20:27:A8:08:67:EA:1D:79:7C:79:E1:13:E7:03:4F:E8
                DirName:/CN=team264-net
                serial:59:78:06:29:18:5E:03:BC:21:CA:21:1D:ED:CF:A8:4F:CF:76:D9:40

            X509v3 Extended Key Usage: 
                TLS Web Client Authentication
            X509v3 Key Usage: 
                Digital Signature
    Signature Algorithm: sha256WithRSAEncryption
         6a:be:3c:01:4d:0b:87:d6:21:45:e8:4d:7f:0f:cc:db:74:59:
         3f:71:37:57:78:1e:5f:54:cb:fd:12:c9:34:f9:fc:cf:61:12:
         bd:d6:48:e8:cb:58:a6:55:46:92:92:71:e8:96:76:0f:ca:27:
         10:27:3a:54:57:8f:34:39:0c:d3:88:b7:65:22:85:6a:68:94:
         88:2e:84:fe:82:cb:29:41:6e:c1:0a:2e:74:7f:dd:24:cd:48:
         49:07:97:28:cd:6c:03:fd:7b:4e:19:80:ea:df:f0:f6:13:88:
         a9:96:76:39:15:56:86:03:fc:bb:2d:cb:1e:ac:91:bb:7f:8d:
         87:41:00:f8:40:ba:08:f5:9f:4e:6c:a6:be:ae:35:64:d3:d5:
         5c:6b:e1:7f:cc:5a:a5:1c:ee:80:c5:b2:41:b0:62:33:fd:4e:
         8d:27:d8:68:f0:8c:47:9d:09:f6:f2:80:1b:c8:58:5a:0c:38:
         2c:80:43:c5:7c:ee:1a:b1:f4:b8:36:fc:ea:0c:22:da:23:d2:
         8d:96:27:2d:94:4d:d2:c9:e8:e4:2a:fd:43:fe:51:bb:46:19:
         6e:de:c0:4c:a1:a2:b3:ca:29:4d:e3:cb:03:aa:ef:66:77:25:
         6d:33:90:23:10:46:3e:05:54:9a:f0:80:aa:d0:4a:d4:b2:b8:
         39:43:72:1d
-----BEGIN CERTIFICATE-----
MIIDXDCCAkSgAwIBAgIQN1uyk9JGPU8/3MOUXjLw7DANBgkqhkiG9w0BAQsFADAW
MRQwEgYDVQQDDAt0ZWFtMjY0LW5ldDAeFw0yMjA1MTgxOTM2MTVaFw0yNTA1MDIx
OTM2MTVaMBkxFzAVBgNVBAMMDnRlYW0yNjQtY2xpZW50MIIBIjANBgkqhkiG9w0B
AQEFAAOCAQ8AMIIBCgKCAQEAo5nPYQWI606JfmN1iNOSl4AK6euoeg0SfX7md+4F
dgKPdApoAxYCSaCmjliZs3NXrx2VMi4Zv1ZRgnpb/Vw2I/61NGSSIuXIVU9M77yo
X4aCBtJzD4gclkRzIKjH2jE78B38tLNGIfWmcxT8YmdrT+EwnPm97x5x/IE+Jc/g
ozh5cdjjeIPujkUHg9g35Mv2JVSKEFToJVErXfltakRMS9h2kDsI5csc+nAW8kSa
zIP8+g9/yOlG5L7HnEDla24QM+OtMFp3uDKtxwWedVuLKjG4SkUHSYo5Lq92/fSP
jU1mSbGY6gc99uOf+F9nfLxUDg8z0nZaWOAVFKK8Uea24QIDAQABo4GiMIGfMAkG
A1UdEwQCMAAwHQYDVR0OBBYEFJZb4h0GnQSb/U+p9ABBEaX3dH6XMFEGA1UdIwRK
MEiAFG/FURUgJ6gIZ+odeXx54RPnA0/ooRqkGDAWMRQwEgYDVQQDDAt0ZWFtMjY0
LW5ldIIUWXgGKRheA7whyiEd7c+oT8922UAwEwYDVR0lBAwwCgYIKwYBBQUHAwIw
CwYDVR0PBAQDAgeAMA0GCSqGSIb3DQEBCwUAA4IBAQBqvjwBTQuH1iFF6E1/D8zb
dFk/cTdXeB5fVMv9Esk0+fzPYRK91kjoy1imVUaSknHolnYPyicQJzpUV480OQzT
iLdlIoVqaJSILoT+gsspQW7BCi50f90kzUhJB5cozWwD/XtOGYDq3/D2E4iplnY5
FVaGA/y7LcserJG7f42HQQD4QLoI9Z9ObKa+rjVk09Vca+F/zFqlHO6AxbJBsGIz
/U6NJ9ho8IxHnQn28oAbyFhaDDgsgEPFfO4asfS4NvzqDCLaI9KNlictlE3Syejk
Kv1D/lG7Rhlu3sBMoaKzyilN48sDqu9mdyVtM5AjEEY+BVSa8ICq0ErUsrg5Q3Id
-----END CERTIFICATE-----
