Certificate:
    Data:
        Version: 3 (0x2)
        Serial Number:
            5c:bc:8a:05:f8:8d:ff:7a:48:17:4a:53:62:4b:76:62
        Signature Algorithm: sha256WithRSAEncryption
        Issuer: CN=team160-net
        Validity
            Not Before: May 18 18:46:08 2022 GMT
            Not After : May  2 18:46:08 2025 GMT
        Subject: CN=team160-client
        Subject Public Key Info:
            Public Key Algorithm: rsaEncryption
                RSA Public-Key: (2048 bit)
                Modulus:
                    00:c1:7c:1f:05:a2:60:d0:5a:2a:09:8e:c2:67:e2:
                    be:8a:77:39:2e:57:11:dc:6e:b8:c6:8f:83:42:7a:
                    f5:5d:21:c8:0d:3e:7d:72:12:08:01:00:10:25:4a:
                    ec:40:ab:d7:ee:db:fa:2f:52:c4:c4:fe:5f:a8:14:
                    36:96:9d:8a:fd:fb:66:d8:6e:dc:a5:5b:f0:1f:fc:
                    7c:f9:27:02:5b:28:23:fb:e0:f5:34:ef:9c:60:1f:
                    47:7d:a5:47:3f:2d:79:e7:70:3f:16:5f:a4:40:52:
                    a5:83:46:4d:ac:10:99:1d:1a:50:b8:1b:b5:f2:97:
                    58:22:24:64:59:05:fb:1f:b4:87:49:c2:a2:90:df:
                    dc:82:83:ef:70:38:cf:ca:b0:57:2a:f6:a2:56:c1:
                    d0:b6:eb:f2:6b:f3:fd:1b:ee:dc:3c:27:97:43:bd:
                    b0:65:82:ac:df:4c:4e:e4:55:b3:eb:32:a3:1c:b3:
                    cf:32:9c:3c:ca:b9:61:bf:52:08:4e:8b:29:50:07:
                    f5:13:42:d4:3c:ab:b7:78:a0:88:2c:ce:80:3c:cf:
                    c8:27:c0:bf:c3:34:77:70:60:aa:b6:5c:63:1e:c1:
                    9c:54:15:05:2b:66:46:5e:23:4e:56:1e:d0:b3:49:
                    27:46:c9:81:00:41:75:dc:77:03:88:e7:d3:f2:91:
                    c7:57
                Exponent: 65537 (0x10001)
        X509v3 extensions:
            X509v3 Basic Constraints: 
                CA:FALSE
            X509v3 Subject Key Identifier: 
                48:22:49:75:34:1A:64:6B:24:04:9B:AA:66:0F:A3:D8:8C:71:9D:D5
            X509v3 Authority Key Identifier: 
                keyid:6C:2A:84:A4:23:36:87:89:1C:25:B0:EF:00:45:48:7C:DA:A8:2C:E4
                DirName:/CN=team160-net
                serial:3C:D3:58:2B:63:69:85:CF:DD:B6:55:0D:3A:BD:98:EC:46:47:92:6B

            X509v3 Extended Key Usage: 
                TLS Web Client Authentication
            X509v3 Key Usage: 
                Digital Signature
    Signature Algorithm: sha256WithRSAEncryption
         52:a1:c0:ca:b4:97:8f:43:b8:26:2f:76:3c:1a:ea:1e:64:88:
         5a:6c:63:2d:2a:bf:8b:e6:32:72:0f:08:84:05:da:2a:d9:e7:
         5a:a6:f8:3b:8b:21:54:a1:40:53:6e:72:c0:c8:93:51:82:99:
         84:db:51:27:04:42:2c:fc:66:8d:4b:6f:20:31:7f:99:ae:b4:
         18:a5:3c:ae:41:3d:0d:fa:bd:32:9e:71:8f:13:7d:19:d2:88:
         e5:76:e0:9b:ac:a6:3c:46:e7:a8:3c:35:07:63:f5:0f:b1:e7:
         79:9a:f0:7a:7d:e4:3f:a7:c0:56:fd:14:b4:48:9b:bc:f2:6d:
         27:ef:e3:16:b2:8d:8b:3a:c8:47:37:a3:0d:2d:cf:48:6a:c5:
         b4:27:51:b3:bf:41:bb:01:0e:3e:75:79:1d:88:b1:a4:7d:98:
         1c:17:d8:db:05:40:46:33:e3:64:df:8b:db:31:b1:81:63:ec:
         b3:39:c5:9f:ac:80:a3:a2:8d:c6:6c:a0:53:8b:c5:ae:65:72:
         14:0a:6e:3f:00:d2:26:6b:41:f3:d0:bb:93:2e:75:8a:4a:fb:
         e8:d1:dc:b6:ff:24:4a:a9:a6:1f:d6:d9:42:04:d9:01:33:27:
         7d:87:54:32:2f:81:21:b2:35:20:4c:e6:3b:5a:0d:a2:db:3a:
         42:b7:38:1b
-----BEGIN CERTIFICATE-----
MIIDXDCCAkSgAwIBAgIQXLyKBfiN/3pIF0pTYkt2YjANBgkqhkiG9w0BAQsFADAW
MRQwEgYDVQQDDAt0ZWFtMTYwLW5ldDAeFw0yMjA1MTgxODQ2MDhaFw0yNTA1MDIx
ODQ2MDhaMBkxFzAVBgNVBAMMDnRlYW0xNjAtY2xpZW50MIIBIjANBgkqhkiG9w0B
AQEFAAOCAQ8AMIIBCgKCAQEAwXwfBaJg0FoqCY7CZ+K+inc5LlcR3G64xo+DQnr1
XSHIDT59chIIAQAQJUrsQKvX7tv6L1LExP5fqBQ2lp2K/ftm2G7cpVvwH/x8+ScC
Wygj++D1NO+cYB9HfaVHPy1553A/Fl+kQFKlg0ZNrBCZHRpQuBu18pdYIiRkWQX7
H7SHScKikN/cgoPvcDjPyrBXKvaiVsHQtuvya/P9G+7cPCeXQ72wZYKs30xO5FWz
6zKjHLPPMpw8yrlhv1IITospUAf1E0LUPKu3eKCILM6APM/IJ8C/wzR3cGCqtlxj
HsGcVBUFK2ZGXiNOVh7Qs0knRsmBAEF13HcDiOfT8pHHVwIDAQABo4GiMIGfMAkG
A1UdEwQCMAAwHQYDVR0OBBYEFEgiSXU0GmRrJASbqmYPo9iMcZ3VMFEGA1UdIwRK
MEiAFGwqhKQjNoeJHCWw7wBFSHzaqCzkoRqkGDAWMRQwEgYDVQQDDAt0ZWFtMTYw
LW5ldIIUPNNYK2Nphc/dtlUNOr2Y7EZHkmswEwYDVR0lBAwwCgYIKwYBBQUHAwIw
CwYDVR0PBAQDAgeAMA0GCSqGSIb3DQEBCwUAA4IBAQBSocDKtJePQ7gmL3Y8Guoe
ZIhabGMtKr+L5jJyDwiEBdoq2edapvg7iyFUoUBTbnLAyJNRgpmE21EnBEIs/GaN
S28gMX+ZrrQYpTyuQT0N+r0ynnGPE30Z0ojlduCbrKY8RueoPDUHY/UPsed5mvB6
feQ/p8BW/RS0SJu88m0n7+MWso2LOshHN6MNLc9IasW0J1Gzv0G7AQ4+dXkdiLGk
fZgcF9jbBUBGM+Nk34vbMbGBY+yzOcWfrICjoo3GbKBTi8WuZXIUCm4/ANIma0Hz
0LuTLnWKSvvo0dy2/yRKqaYf1tlCBNkBMyd9h1QyL4EhsjUgTOY7Wg2i2zpCtzgb
-----END CERTIFICATE-----
