Certificate:
    Data:
        Version: 3 (0x2)
        Serial Number:
            a2:d5:86:db:4d:f2:77:aa:2d:0e:23:f8:7e:d3:b6:99
        Signature Algorithm: sha256WithRSAEncryption
        Issuer: CN=team160-net
        Validity
            Not Before: May 18 18:46:08 2022 GMT
            Not After : May  2 18:46:08 2025 GMT
        Subject: CN=team160-server
        Subject Public Key Info:
            Public Key Algorithm: rsaEncryption
                RSA Public-Key: (2048 bit)
                Modulus:
                    00:e8:c8:fd:d6:2a:9d:85:f9:03:20:e4:fc:14:23:
                    b5:ab:9f:13:28:de:e5:f5:53:a5:df:f3:07:a2:33:
                    6d:52:05:64:ba:d1:ca:36:fb:7a:5e:b8:53:50:dc:
                    8f:51:f5:fa:f0:a3:4e:a8:c7:64:3f:3d:bb:90:6f:
                    67:fe:82:48:b1:95:5a:e3:90:1b:d6:65:10:9a:00:
                    5d:ae:7e:41:06:e8:c2:cc:17:be:2c:c3:4b:97:46:
                    5c:3c:1e:c0:f5:bc:32:32:98:a8:0e:b4:4c:9d:6a:
                    bc:ce:2a:ae:73:08:e1:7c:a9:39:80:c1:5f:8d:f6:
                    dd:14:48:bd:32:65:09:3f:dd:54:bb:86:64:9d:52:
                    35:bb:d0:c0:53:8c:b6:c0:5c:9f:fe:18:04:e7:dc:
                    54:cf:25:b6:8c:57:85:98:b0:e1:90:80:75:b8:0c:
                    b3:de:c9:ab:0e:21:5d:de:6f:91:5d:bc:52:40:e9:
                    d7:d9:ed:9b:5e:46:e5:53:6b:43:39:c2:69:df:21:
                    9b:4e:c6:e2:51:cd:19:d2:d3:3b:33:3a:56:ee:59:
                    64:b1:cb:5b:63:88:d9:f5:c3:bf:4a:ac:c0:c6:27:
                    b1:43:1b:50:96:63:ef:f2:e1:18:24:2c:3f:f3:aa:
                    a9:82:9f:ce:e5:91:11:54:59:88:dc:45:0e:52:40:
                    2b:63
                Exponent: 65537 (0x10001)
        X509v3 extensions:
            X509v3 Basic Constraints: 
                CA:FALSE
            X509v3 Subject Key Identifier: 
                5A:20:89:0F:8E:B5:20:77:2D:AC:D7:B1:4A:F2:5C:B7:BE:D8:9A:FB
            X509v3 Authority Key Identifier: 
                keyid:6C:2A:84:A4:23:36:87:89:1C:25:B0:EF:00:45:48:7C:DA:A8:2C:E4
                DirName:/CN=team160-net
                serial:3C:D3:58:2B:63:69:85:CF:DD:B6:55:0D:3A:BD:98:EC:46:47:92:6B

            X509v3 Extended Key Usage: 
                TLS Web Server Authentication
            X509v3 Key Usage: 
                Digital Signature, Key Encipherment
            X509v3 Subject Alternative Name: 
                DNS:team160-server
    Signature Algorithm: sha256WithRSAEncryption
         8e:8d:e9:d3:ad:11:6f:91:67:7b:5a:3d:b6:64:1b:53:de:0d:
         05:8b:51:08:18:78:17:9c:95:12:82:51:5d:6c:29:3f:18:7b:
         16:cc:ea:c9:74:76:c4:b6:d7:ae:5d:9d:66:73:c2:f0:83:27:
         b1:28:cb:61:2d:da:8e:1c:37:ff:2e:69:78:77:bb:52:33:91:
         8a:63:22:3b:a7:c7:81:4c:2e:66:9a:0a:34:3e:0b:03:3f:6a:
         be:9f:22:b0:34:f8:2b:8b:4a:42:c8:47:9e:45:9d:1d:dc:54:
         97:90:e9:3a:41:fe:d5:1a:30:8b:a6:01:12:09:72:55:ab:03:
         f7:7e:d1:0d:14:3c:6c:b7:23:44:f7:a7:3a:b7:50:68:f1:10:
         d8:82:73:f8:74:e5:30:9e:39:89:ce:64:78:a3:b4:3a:b7:be:
         95:41:ca:6b:cb:cd:e6:02:4b:46:97:f0:91:bf:02:ad:3b:1c:
         d2:1a:78:15:37:a3:6e:f4:bb:d6:fa:f7:8d:52:81:6b:2f:71:
         26:ae:e1:7b:1c:fd:be:3d:c1:fd:74:39:21:49:36:96:ec:c4:
         2b:31:91:3f:f0:c5:81:5f:15:10:c1:49:60:07:d4:f3:7a:22:
         05:42:8b:78:f2:d0:b7:75:44:ea:be:77:29:21:90:b9:ad:a1:
         c3:9f:e3:d7
-----BEGIN CERTIFICATE-----
MIIDeDCCAmCgAwIBAgIRAKLVhttN8neqLQ4j+H7TtpkwDQYJKoZIhvcNAQELBQAw
FjEUMBIGA1UEAwwLdGVhbTE2MC1uZXQwHhcNMjIwNTE4MTg0NjA4WhcNMjUwNTAy
MTg0NjA4WjAZMRcwFQYDVQQDDA50ZWFtMTYwLXNlcnZlcjCCASIwDQYJKoZIhvcN
AQEBBQADggEPADCCAQoCggEBAOjI/dYqnYX5AyDk/BQjtaufEyje5fVTpd/zB6Iz
bVIFZLrRyjb7el64U1Dcj1H1+vCjTqjHZD89u5BvZ/6CSLGVWuOQG9ZlEJoAXa5+
QQbowswXvizDS5dGXDwewPW8MjKYqA60TJ1qvM4qrnMI4XypOYDBX4323RRIvTJl
CT/dVLuGZJ1SNbvQwFOMtsBcn/4YBOfcVM8ltoxXhZiw4ZCAdbgMs97Jqw4hXd5v
kV28UkDp19ntm15G5VNrQznCad8hm07G4lHNGdLTOzM6Vu5ZZLHLW2OI2fXDv0qs
wMYnsUMbUJZj7/LhGCQsP/OqqYKfzuWREVRZiNxFDlJAK2MCAwEAAaOBvTCBujAJ
BgNVHRMEAjAAMB0GA1UdDgQWBBRaIIkPjrUgdy2s17FK8ly3vtia+zBRBgNVHSME
SjBIgBRsKoSkIzaHiRwlsO8ARUh82qgs5KEapBgwFjEUMBIGA1UEAwwLdGVhbTE2
MC1uZXSCFDzTWCtjaYXP3bZVDTq9mOxGR5JrMBMGA1UdJQQMMAoGCCsGAQUFBwMB
MAsGA1UdDwQEAwIFoDAZBgNVHREEEjAQgg50ZWFtMTYwLXNlcnZlcjANBgkqhkiG
9w0BAQsFAAOCAQEAjo3p060Rb5Fne1o9tmQbU94NBYtRCBh4F5yVEoJRXWwpPxh7
FszqyXR2xLbXrl2dZnPC8IMnsSjLYS3ajhw3/y5peHe7UjORimMiO6fHgUwuZpoK
ND4LAz9qvp8isDT4K4tKQshHnkWdHdxUl5DpOkH+1Rowi6YBEglyVasD937RDRQ8
bLcjRPenOrdQaPEQ2IJz+HTlMJ45ic5keKO0Ore+lUHKa8vN5gJLRpfwkb8CrTsc
0hp4FTejbvS71vr3jVKBay9xJq7hexz9vj3B/XQ5IUk2luzEKzGRP/DFgV8VEMFJ
YAfU83oiBUKLePLQt3VE6r53KSGQua2hw5/j1w==
-----END CERTIFICATE-----
