Certificate:
    Data:
        Version: 3 (0x2)
        Serial Number:
            15:10:78:4b:a8:d8:31:e9:9b:2c:b7:b2:05:11:c6:5d
        Signature Algorithm: sha256WithRSAEncryption
        Issuer: CN=team586-net
        Validity
            Not Before: May 18 22:35:41 2022 GMT
            Not After : May  2 22:35:41 2025 GMT
        Subject: CN=team586-server
        Subject Public Key Info:
            Public Key Algorithm: rsaEncryption
                RSA Public-Key: (2048 bit)
                Modulus:
                    00:cb:ab:7e:7b:8f:60:a6:fc:1e:c3:c8:56:31:23:
                    85:6b:45:f1:93:7d:df:1c:c4:6d:fd:94:8a:b6:7c:
                    3b:22:23:d1:1e:ad:f5:85:2b:54:62:1e:a7:60:b4:
                    01:8c:db:e3:00:a1:13:41:eb:61:40:30:d2:35:9e:
                    c0:58:6a:5b:5e:ab:09:b2:2e:1e:b2:b1:1b:86:67:
                    3d:24:fb:38:66:13:ed:2b:2c:6c:30:c9:86:69:37:
                    16:01:f2:9e:c5:97:13:89:57:ad:de:d7:26:f1:6e:
                    b4:22:01:29:39:2f:50:9c:80:37:ce:27:43:85:e3:
                    0d:34:14:a2:9f:f3:6f:7e:cf:9a:b8:87:4e:6e:39:
                    61:d6:a6:74:15:39:3b:11:04:33:f6:d7:2e:89:78:
                    e9:fa:63:5d:af:f5:e1:e4:16:67:43:a9:45:99:67:
                    4b:73:3e:ed:20:66:89:c1:7f:68:cd:9b:69:73:c5:
                    e7:6a:eb:87:91:82:ee:71:f4:d9:e2:f0:58:e4:06:
                    10:a4:db:76:70:f1:90:2e:80:ae:91:0b:43:2a:84:
                    b0:05:5b:97:95:e7:26:f3:6d:55:84:ae:cd:13:3c:
                    20:01:79:4e:5f:e7:14:82:59:5a:71:ac:f3:e7:48:
                    6b:80:92:ff:21:e2:b4:8a:17:50:7a:69:ac:16:f2:
                    91:f9
                Exponent: 65537 (0x10001)
        X509v3 extensions:
            X509v3 Basic Constraints: 
                CA:FALSE
            X509v3 Subject Key Identifier: 
                C9:BD:FD:21:0C:B3:E3:7E:E9:E4:1D:BD:B3:66:D8:DF:AC:A0:C9:29
            X509v3 Authority Key Identifier: 
                keyid:A2:73:6E:37:51:AD:8D:6C:A1:AA:42:0D:D5:2A:D7:15:EF:7B:1A:B8
                DirName:/CN=team586-net
                serial:2A:71:C6:94:59:8F:FA:A6:1A:AA:EA:E1:C3:95:BE:F1:67:C5:16:21

            X509v3 Extended Key Usage: 
                TLS Web Server Authentication
            X509v3 Key Usage: 
                Digital Signature, Key Encipherment
            X509v3 Subject Alternative Name: 
                DNS:team586-server
    Signature Algorithm: sha256WithRSAEncryption
         87:26:58:68:91:ee:f7:e0:08:63:69:f7:62:32:bf:0d:26:52:
         f5:ad:d8:cd:a9:2e:e2:1c:c0:87:59:1a:f5:e9:09:69:25:69:
         07:a1:e4:b4:1a:08:2e:56:aa:7b:c4:1a:e9:ff:ce:33:9e:fa:
         6b:d3:b3:5b:12:1f:09:3e:ec:26:8e:d8:76:e5:8e:99:f6:83:
         15:d6:ab:e9:bd:b2:fe:aa:fc:cd:c8:6b:d6:45:24:3f:83:b3:
         2b:e6:7f:d0:39:d5:74:34:4d:70:10:18:c2:bf:e6:e6:b8:04:
         91:44:5b:c3:8f:b8:a8:38:73:90:8f:52:75:cd:4a:af:d8:c4:
         7b:b6:c5:25:d9:16:95:6a:92:57:4f:a8:67:ce:0b:dc:43:55:
         38:91:87:08:37:52:c5:76:02:a1:59:e8:71:f9:d0:b4:1f:8d:
         d0:0e:19:a2:38:53:03:2d:9e:d7:5c:37:bd:c8:2c:0b:fc:e3:
         b5:0f:d1:a7:d6:4e:e7:0b:23:20:12:b4:ff:77:2d:1e:76:c3:
         c8:14:b4:cb:e1:23:ec:12:6f:ce:26:3c:ed:c4:9e:5c:e5:cc:
         ca:76:0b:c0:33:67:b0:30:bd:8c:22:f8:32:8a:f8:5e:d1:ad:
         72:78:10:11:7f:08:86:e0:eb:86:48:e0:26:a9:01:ed:6d:ec:
         7e:86:08:ec
-----BEGIN CERTIFICATE-----
MIIDdzCCAl+gAwIBAgIQFRB4S6jYMembLLeyBRHGXTANBgkqhkiG9w0BAQsFADAW
MRQwEgYDVQQDDAt0ZWFtNTg2LW5ldDAeFw0yMjA1MTgyMjM1NDFaFw0yNTA1MDIy
MjM1NDFaMBkxFzAVBgNVBAMMDnRlYW01ODYtc2VydmVyMIIBIjANBgkqhkiG9w0B
AQEFAAOCAQ8AMIIBCgKCAQEAy6t+e49gpvwew8hWMSOFa0Xxk33fHMRt/ZSKtnw7
IiPRHq31hStUYh6nYLQBjNvjAKETQethQDDSNZ7AWGpbXqsJsi4esrEbhmc9JPs4
ZhPtKyxsMMmGaTcWAfKexZcTiVet3tcm8W60IgEpOS9QnIA3zidDheMNNBSin/Nv
fs+auIdObjlh1qZ0FTk7EQQz9tcuiXjp+mNdr/Xh5BZnQ6lFmWdLcz7tIGaJwX9o
zZtpc8XnauuHkYLucfTZ4vBY5AYQpNt2cPGQLoCukQtDKoSwBVuXlecm821VhK7N
EzwgAXlOX+cUgllacazz50hrgJL/IeK0ihdQemmsFvKR+QIDAQABo4G9MIG6MAkG
A1UdEwQCMAAwHQYDVR0OBBYEFMm9/SEMs+N+6eQdvbNm2N+soMkpMFEGA1UdIwRK
MEiAFKJzbjdRrY1soapCDdUq1xXvexq4oRqkGDAWMRQwEgYDVQQDDAt0ZWFtNTg2
LW5ldIIUKnHGlFmP+qYaqurhw5W+8WfFFiEwEwYDVR0lBAwwCgYIKwYBBQUHAwEw
CwYDVR0PBAQDAgWgMBkGA1UdEQQSMBCCDnRlYW01ODYtc2VydmVyMA0GCSqGSIb3
DQEBCwUAA4IBAQCHJlhoke734AhjafdiMr8NJlL1rdjNqS7iHMCHWRr16QlpJWkH
oeS0GgguVqp7xBrp/84znvpr07NbEh8JPuwmjth25Y6Z9oMV1qvpvbL+qvzNyGvW
RSQ/g7Mr5n/QOdV0NE1wEBjCv+bmuASRRFvDj7ioOHOQj1J1zUqv2MR7tsUl2RaV
apJXT6hnzgvcQ1U4kYcIN1LFdgKhWehx+dC0H43QDhmiOFMDLZ7XXDe9yCwL/OO1
D9Gn1k7nCyMgErT/dy0edsPIFLTL4SPsEm/OJjztxJ5c5czKdgvAM2ewML2MIvgy
ivhe0a1yeBARfwiG4OuGSOAmqQHtbex+hgjs
-----END CERTIFICATE-----
