Certificate:
    Data:
        Version: 3 (0x2)
        Serial Number:
            c1:9b:0b:c1:82:44:c2:9f:48:b4:12:bb:79:8b:36:eb
        Signature Algorithm: sha256WithRSAEncryption
        Issuer: CN=team586-net
        Validity
            Not Before: May 18 22:35:41 2022 GMT
            Not After : May  2 22:35:41 2025 GMT
        Subject: CN=team586-client
        Subject Public Key Info:
            Public Key Algorithm: rsaEncryption
                RSA Public-Key: (2048 bit)
                Modulus:
                    00:a9:96:c0:76:3c:80:f5:20:e2:b4:da:35:6f:50:
                    b9:67:24:d4:10:21:78:23:f6:19:2f:b5:5d:14:3e:
                    1d:13:68:74:c2:a5:33:0a:e2:19:16:e0:df:de:6e:
                    d4:c4:aa:60:5b:65:d1:a6:4e:ce:a1:76:8d:0b:1d:
                    32:23:19:e2:86:c8:d6:09:0d:2e:1b:f5:f2:ed:9b:
                    fb:32:63:f0:50:12:de:f9:50:5d:45:d6:8a:41:48:
                    10:02:e0:4f:64:21:eb:c6:2f:b3:69:ef:7a:9a:64:
                    53:f8:1c:37:d7:94:d2:a7:49:e9:2b:a8:7a:79:9b:
                    a3:c1:3b:34:f8:20:65:60:3f:60:29:34:b5:20:1a:
                    3c:10:b1:76:0c:63:4b:a0:07:c2:c0:75:6a:dd:b5:
                    94:51:25:57:72:72:25:96:5a:63:47:91:93:66:12:
                    8f:83:7a:69:9d:0c:3b:d8:6e:85:95:97:ef:8b:bc:
                    0d:46:08:b0:17:27:52:d0:e3:42:73:8e:a1:6a:5b:
                    fb:cf:e9:9b:84:d8:96:34:f2:09:4c:10:7a:57:55:
                    18:4a:c3:b3:7e:6d:62:63:85:6c:94:d6:cc:0e:ab:
                    70:59:a9:82:e4:18:70:1f:08:81:29:6a:87:29:39:
                    59:2b:ce:ab:1c:49:be:a5:80:e0:ca:ff:b4:1d:1b:
                    f4:a7
                Exponent: 65537 (0x10001)
        X509v3 extensions:
            X509v3 Basic Constraints: 
                CA:FALSE
            X509v3 Subject Key Identifier: 
                4E:25:00:E7:1F:68:EC:7D:92:8A:74:EC:20:15:8D:90:9E:F7:E6:DC
            X509v3 Authority Key Identifier: 
                keyid:A2:73:6E:37:51:AD:8D:6C:A1:AA:42:0D:D5:2A:D7:15:EF:7B:1A:B8
                DirName:/CN=team586-net
                serial:2A:71:C6:94:59:8F:FA:A6:1A:AA:EA:E1:C3:95:BE:F1:67:C5:16:21

            X509v3 Extended Key Usage: 
                TLS Web Client Authentication
            X509v3 Key Usage: 
                Digital Signature
    Signature Algorithm: sha256WithRSAEncryption
         70:6b:57:98:56:73:01:ce:9c:c2:6f:a6:dd:51:90:1e:18:f9:
         53:ac:7d:df:af:f6:de:af:d2:c2:db:2d:02:19:f7:6f:bb:c9:
         e1:28:c6:b4:a2:55:cd:60:48:17:92:2b:63:53:68:bf:6b:87:
         09:4e:e9:87:d7:92:47:c7:54:94:55:d5:54:ad:86:a4:68:f3:
         4d:11:06:ae:37:03:38:67:0d:c5:bb:1b:7b:4c:22:26:f4:ae:
         bb:4e:e0:c4:38:17:33:00:95:01:81:bb:4d:cd:00:79:85:8b:
         45:1d:7f:dd:ff:13:d0:f6:bd:4c:e3:21:38:3e:32:95:9d:c6:
         43:c8:96:e0:6a:02:0f:51:0e:ce:d5:a7:06:48:23:a8:2f:ac:
         af:24:f1:09:1b:b1:71:e5:be:dd:21:15:8e:1d:ef:4e:d3:77:
         e8:dc:51:0f:58:7c:d8:04:90:3b:3f:93:b6:19:d7:d9:66:79:
         21:c9:8c:13:74:88:9b:e9:56:ad:e1:f5:d7:5a:f8:d5:1e:e3:
         ce:32:ce:29:fc:13:ef:d0:22:97:dc:28:a0:6c:de:b0:79:b8:
         57:89:ab:b0:44:5a:4d:db:0b:94:ed:79:af:b8:85:fd:0e:18:
         59:b5:3c:b1:8c:9a:f8:d2:55:77:fb:7c:f4:a3:0a:5f:5d:2e:
         88:cb:9b:0d
-----BEGIN CERTIFICATE-----
MIIDXTCCAkWgAwIBAgIRAMGbC8GCRMKfSLQSu3mLNuswDQYJKoZIhvcNAQELBQAw
FjEUMBIGA1UEAwwLdGVhbTU4Ni1uZXQwHhcNMjIwNTE4MjIzNTQxWhcNMjUwNTAy
MjIzNTQxWjAZMRcwFQYDVQQDDA50ZWFtNTg2LWNsaWVudDCCASIwDQYJKoZIhvcN
AQEBBQADggEPADCCAQoCggEBAKmWwHY8gPUg4rTaNW9QuWck1BAheCP2GS+1XRQ+
HRNodMKlMwriGRbg395u1MSqYFtl0aZOzqF2jQsdMiMZ4obI1gkNLhv18u2b+zJj
8FAS3vlQXUXWikFIEALgT2Qh68Yvs2nveppkU/gcN9eU0qdJ6Suoenmbo8E7NPgg
ZWA/YCk0tSAaPBCxdgxjS6AHwsB1at21lFElV3JyJZZaY0eRk2YSj4N6aZ0MO9hu
hZWX74u8DUYIsBcnUtDjQnOOoWpb+8/pm4TYljTyCUwQeldVGErDs35tYmOFbJTW
zA6rcFmpguQYcB8IgSlqhyk5WSvOqxxJvqWA4Mr/tB0b9KcCAwEAAaOBojCBnzAJ
BgNVHRMEAjAAMB0GA1UdDgQWBBROJQDnH2jsfZKKdOwgFY2Qnvfm3DBRBgNVHSME
SjBIgBSic243Ua2NbKGqQg3VKtcV73sauKEapBgwFjEUMBIGA1UEAwwLdGVhbTU4
Ni1uZXSCFCpxxpRZj/qmGqrq4cOVvvFnxRYhMBMGA1UdJQQMMAoGCCsGAQUFBwMC
MAsGA1UdDwQEAwIHgDANBgkqhkiG9w0BAQsFAAOCAQEAcGtXmFZzAc6cwm+m3VGQ
Hhj5U6x936/23q/SwtstAhn3b7vJ4SjGtKJVzWBIF5IrY1Nov2uHCU7ph9eSR8dU
lFXVVK2GpGjzTREGrjcDOGcNxbsbe0wiJvSuu07gxDgXMwCVAYG7Tc0AeYWLRR1/
3f8T0Pa9TOMhOD4ylZ3GQ8iW4GoCD1EOztWnBkgjqC+sryTxCRuxceW+3SEVjh3v
TtN36NxRD1h82ASQOz+TthnX2WZ5IcmME3SIm+lWreH111r41R7jzjLOKfwT79Ai
l9wooGzesHm4V4mrsERaTdsLlO15r7iF/Q4YWbU8sYya+NJVd/t89KMKX10uiMub
DQ==
-----END CERTIFICATE-----
