Certificate:
    Data:
        Version: 3 (0x2)
        Serial Number:
            c3:57:58:44:dd:01:f7:1c:b2:ff:e0:ee:2d:2f:5f:6a
        Signature Algorithm: sha256WithRSAEncryption
        Issuer: CN=team160-net
        Validity
            Not Before: May 18 18:40:53 2022 GMT
            Not After : May  2 18:40:53 2025 GMT
        Subject: CN=team160-client
        Subject Public Key Info:
            Public Key Algorithm: rsaEncryption
                RSA Public-Key: (2048 bit)
                Modulus:
                    00:cc:22:21:46:0e:fe:28:90:5f:df:47:7a:b5:a2:
                    50:bc:a1:0e:13:07:f7:62:ef:4a:dc:47:7e:57:6a:
                    8c:fa:f5:34:5f:cd:29:e4:7f:83:87:12:d4:9f:73:
                    2a:0f:bb:ea:59:8b:13:79:c7:fe:98:f4:15:d0:1c:
                    16:66:97:28:10:01:bc:e1:99:c9:2b:64:34:43:0e:
                    d1:b8:51:79:09:18:ba:7c:a6:27:c1:cc:f9:5a:a0:
                    ad:28:23:18:ec:d9:7e:36:bd:4f:33:82:56:66:b7:
                    2f:67:26:8c:02:fe:18:19:9f:25:d5:15:0b:83:ee:
                    97:e6:81:43:51:e5:b8:a8:19:2b:f2:93:fd:e0:b7:
                    f4:29:0b:15:9e:00:62:3f:ae:a1:f0:41:b2:a9:bc:
                    4f:7d:d7:1a:4c:4b:3a:93:c0:8b:63:3f:52:0a:a5:
                    7e:ca:b0:3c:70:5f:0c:fd:12:9e:ff:76:51:da:83:
                    28:e0:cf:f3:58:a3:26:4c:b3:2b:5e:1f:26:7e:d1:
                    98:5f:f8:81:3a:f3:e9:fa:8c:8f:78:7e:e7:9e:a2:
                    4c:6a:8b:62:d2:82:c2:6a:8e:df:9b:44:db:94:df:
                    46:9b:02:92:6d:91:8a:97:8c:f6:42:2c:a3:4e:b4:
                    6a:33:ba:5c:35:7e:10:e7:97:9d:9f:bd:c0:f3:56:
                    d7:69
                Exponent: 65537 (0x10001)
        X509v3 extensions:
            X509v3 Basic Constraints: 
                CA:FALSE
            X509v3 Subject Key Identifier: 
                F6:81:85:43:9E:07:0E:9F:BD:77:C5:40:37:2D:F3:24:E4:87:1D:22
            X509v3 Authority Key Identifier: 
                keyid:D1:2E:F9:C7:C9:01:49:2B:29:10:93:93:91:8C:CF:74:E5:ED:41:57
                DirName:/CN=team160-net
                serial:71:37:8A:04:8A:01:D5:E6:E3:D7:B0:D1:A8:D4:68:10:4A:4D:7F:47

            X509v3 Extended Key Usage: 
                TLS Web Client Authentication
            X509v3 Key Usage: 
                Digital Signature
    Signature Algorithm: sha256WithRSAEncryption
         97:89:61:b7:d5:22:75:62:10:be:41:c8:ec:a2:99:9b:48:2b:
         da:dd:35:07:d5:94:a3:49:06:bf:96:12:e2:1c:fe:b8:a8:48:
         dd:9e:49:11:38:85:c5:e2:e2:50:71:c9:8b:cb:0c:71:37:bc:
         88:ff:ec:71:bf:3b:da:7b:0c:33:2a:e8:78:09:dd:d3:52:cf:
         ae:1c:23:13:e6:5c:92:08:60:ac:96:97:a5:1b:ba:94:05:24:
         3c:60:0c:04:35:f3:5d:51:e0:ed:30:6d:a2:b4:90:f4:18:84:
         12:d4:ec:85:97:4f:af:36:ef:96:63:90:e2:29:c0:38:88:be:
         e8:6a:fe:59:04:e1:b4:9b:27:1c:86:79:62:5f:bd:24:70:a1:
         5e:59:60:87:2b:95:9b:22:ee:f4:c2:23:03:9a:45:86:b7:08:
         24:3f:81:ab:9e:24:b6:e6:38:a1:0f:f3:93:4e:60:57:41:d7:
         03:27:01:ab:0e:68:b4:73:ab:16:e4:ff:f7:ae:b1:b1:b8:9c:
         52:92:1c:8e:8b:9d:ca:5f:aa:86:c8:6a:72:3d:fd:df:66:35:
         e8:d5:9e:c2:8e:68:b7:d7:3b:b6:0d:d6:87:63:50:bc:c3:ec:
         ba:d9:26:2e:ed:d9:a3:d9:69:c6:66:29:30:a6:4d:13:83:97:
         bb:eb:1e:79
-----BEGIN CERTIFICATE-----
MIIDXTCCAkWgAwIBAgIRAMNXWETdAfccsv/g7i0vX2owDQYJKoZIhvcNAQELBQAw
FjEUMBIGA1UEAwwLdGVhbTE2MC1uZXQwHhcNMjIwNTE4MTg0MDUzWhcNMjUwNTAy
MTg0MDUzWjAZMRcwFQYDVQQDDA50ZWFtMTYwLWNsaWVudDCCASIwDQYJKoZIhvcN
AQEBBQADggEPADCCAQoCggEBAMwiIUYO/iiQX99HerWiULyhDhMH92LvStxHfldq
jPr1NF/NKeR/g4cS1J9zKg+76lmLE3nH/pj0FdAcFmaXKBABvOGZyStkNEMO0bhR
eQkYunymJ8HM+VqgrSgjGOzZfja9TzOCVma3L2cmjAL+GBmfJdUVC4Pul+aBQ1Hl
uKgZK/KT/eC39CkLFZ4AYj+uofBBsqm8T33XGkxLOpPAi2M/UgqlfsqwPHBfDP0S
nv92UdqDKODP81ijJkyzK14fJn7RmF/4gTrz6fqMj3h+556iTGqLYtKCwmqO35tE
25TfRpsCkm2RipeM9kIso060ajO6XDV+EOeXnZ+9wPNW12kCAwEAAaOBojCBnzAJ
BgNVHRMEAjAAMB0GA1UdDgQWBBT2gYVDngcOn713xUA3LfMk5IcdIjBRBgNVHSME
SjBIgBTRLvnHyQFJKykQk5ORjM905e1BV6EapBgwFjEUMBIGA1UEAwwLdGVhbTE2
MC1uZXSCFHE3igSKAdXm49ew0ajUaBBKTX9HMBMGA1UdJQQMMAoGCCsGAQUFBwMC
MAsGA1UdDwQEAwIHgDANBgkqhkiG9w0BAQsFAAOCAQEAl4lht9UidWIQvkHI7KKZ
m0gr2t01B9WUo0kGv5YS4hz+uKhI3Z5JETiFxeLiUHHJi8sMcTe8iP/scb872nsM
MyroeAnd01LPrhwjE+ZckghgrJaXpRu6lAUkPGAMBDXzXVHg7TBtorSQ9BiEEtTs
hZdPrzbvlmOQ4inAOIi+6Gr+WQThtJsnHIZ5Yl+9JHChXllghyuVmyLu9MIjA5pF
hrcIJD+Bq54ktuY4oQ/zk05gV0HXAycBqw5otHOrFuT/966xsbicUpIcjoudyl+q
hshqcj3932Y16NWewo5ot9c7tg3Wh2NQvMPsutkmLu3Zo9lpxmYpMKZNE4OXu+se
eQ==
-----END CERTIFICATE-----
