Certificate:
    Data:
        Version: 3 (0x2)
        Serial Number:
            5d:a9:eb:f1:4f:a6:2b:71:fe:41:1f:a4:b4:9a:ae:8d
        Signature Algorithm: sha256WithRSAEncryption
        Issuer: CN=team449-net
        Validity
            Not Before: May 18 21:14:33 2022 GMT
            Not After : May  2 21:14:33 2025 GMT
        Subject: CN=team449-client
        Subject Public Key Info:
            Public Key Algorithm: rsaEncryption
                RSA Public-Key: (2048 bit)
                Modulus:
                    00:bd:e9:a4:7f:34:b9:06:73:3e:66:55:a0:b5:9c:
                    81:84:0a:c5:a6:f8:a6:fa:5f:ca:13:8b:3c:a8:07:
                    bc:43:68:30:e4:97:b0:04:0b:5b:c7:d2:dd:13:32:
                    70:22:a4:4a:71:2c:72:d8:7b:ea:8f:cf:fe:9f:ba:
                    4d:b9:35:2d:36:9c:2a:f6:c7:bc:b0:51:a9:7d:99:
                    d7:3c:42:1e:e6:be:c9:a5:97:f7:18:02:4c:78:8c:
                    82:39:f3:21:eb:a4:42:7a:8d:2d:f6:01:98:3a:72:
                    f7:b9:d5:bf:0c:9c:cd:89:14:37:ed:4a:7a:a1:04:
                    21:e8:61:f0:3b:ee:e4:18:06:42:f4:45:0a:eb:fb:
                    39:57:62:f5:e0:af:ee:8f:ef:bf:b6:ef:c9:64:67:
                    cb:b6:41:17:67:5e:ba:f7:a1:1b:bf:83:96:34:a6:
                    b0:d2:11:dd:2a:68:67:e5:0d:e3:eb:13:9a:e4:17:
                    66:e9:41:41:8c:fb:4e:6e:51:3d:31:b7:75:65:85:
                    61:2a:38:7f:64:6e:b4:00:9c:93:c4:0b:72:2a:b3:
                    2d:7a:72:20:b0:98:61:d6:74:a0:e2:d8:80:66:7f:
                    91:2c:89:e0:01:e0:fa:bf:cb:5a:b8:7f:b2:57:04:
                    de:0b:ec:5a:f7:6e:d0:25:e3:22:16:cf:45:bc:c5:
                    1d:df
                Exponent: 65537 (0x10001)
        X509v3 extensions:
            X509v3 Basic Constraints: 
                CA:FALSE
            X509v3 Subject Key Identifier: 
                61:1C:03:63:BF:08:51:48:B4:C8:18:3B:45:58:8E:DF:B5:D0:87:A3
            X509v3 Authority Key Identifier: 
                keyid:27:08:F9:2E:A7:BB:85:DB:D9:CC:56:45:D0:3D:92:B5:70:A0:45:B2
                DirName:/CN=team449-net
                serial:23:16:28:6C:F2:8D:62:77:4F:C5:62:A5:13:9E:C0:3F:58:79:79:CF

            X509v3 Extended Key Usage: 
                TLS Web Client Authentication
            X509v3 Key Usage: 
                Digital Signature
    Signature Algorithm: sha256WithRSAEncryption
         48:6d:73:f1:dc:00:77:f4:0f:77:ac:53:21:c5:39:b1:bc:10:
         6a:f2:8e:79:30:60:74:eb:88:56:8a:1d:ee:ef:86:43:cc:99:
         b0:f4:ee:4d:ef:4f:0f:d5:cb:93:93:3f:16:ba:a7:37:8a:e7:
         f8:c3:d7:e6:34:d8:b5:e3:7f:41:de:08:a6:30:d3:40:ef:ef:
         be:35:1d:fa:fc:d5:72:d9:00:69:0d:d5:e9:43:d1:3b:71:b6:
         16:45:4a:58:42:e9:47:38:9a:f6:1a:8f:cb:71:fb:86:2a:aa:
         40:be:88:b4:8b:ae:47:bc:f2:4b:83:c3:d2:43:0b:ab:10:a6:
         b3:db:53:64:da:53:b9:ab:55:0b:6f:0b:89:be:f6:43:ca:ca:
         e4:53:94:23:1e:2e:09:f3:fc:64:a2:61:cb:a0:41:6c:89:ad:
         0a:8d:eb:a9:88:77:0e:16:fe:17:fe:66:11:bf:02:96:d9:6d:
         4c:19:91:15:40:79:b3:c4:d7:83:93:41:d6:98:73:38:41:a8:
         1f:fa:77:d7:b5:b5:45:1e:0b:a1:6f:15:f1:a3:9d:5c:88:1a:
         fe:e2:5a:d3:ae:5c:80:7b:5c:10:47:cf:b8:32:32:47:2a:0f:
         6e:74:45:4f:35:c8:cd:80:23:71:0e:6e:b1:04:01:89:67:fb:
         4e:11:59:bd
-----BEGIN CERTIFICATE-----
MIIDXDCCAkSgAwIBAgIQXanr8U+mK3H+QR+ktJqujTANBgkqhkiG9w0BAQsFADAW
MRQwEgYDVQQDDAt0ZWFtNDQ5LW5ldDAeFw0yMjA1MTgyMTE0MzNaFw0yNTA1MDIy
MTE0MzNaMBkxFzAVBgNVBAMMDnRlYW00NDktY2xpZW50MIIBIjANBgkqhkiG9w0B
AQEFAAOCAQ8AMIIBCgKCAQEAvemkfzS5BnM+ZlWgtZyBhArFpvim+l/KE4s8qAe8
Q2gw5JewBAtbx9LdEzJwIqRKcSxy2Hvqj8/+n7pNuTUtNpwq9se8sFGpfZnXPEIe
5r7JpZf3GAJMeIyCOfMh66RCeo0t9gGYOnL3udW/DJzNiRQ37Up6oQQh6GHwO+7k
GAZC9EUK6/s5V2L14K/uj++/tu/JZGfLtkEXZ16696Ebv4OWNKaw0hHdKmhn5Q3j
6xOa5Bdm6UFBjPtOblE9Mbd1ZYVhKjh/ZG60AJyTxAtyKrMtenIgsJhh1nSg4tiA
Zn+RLIngAeD6v8tauH+yVwTeC+xa927QJeMiFs9FvMUd3wIDAQABo4GiMIGfMAkG
A1UdEwQCMAAwHQYDVR0OBBYEFGEcA2O/CFFItMgYO0VYjt+10IejMFEGA1UdIwRK
MEiAFCcI+S6nu4Xb2cxWRdA9krVwoEWyoRqkGDAWMRQwEgYDVQQDDAt0ZWFtNDQ5
LW5ldIIUIxYobPKNYndPxWKlE57AP1h5ec8wEwYDVR0lBAwwCgYIKwYBBQUHAwIw
CwYDVR0PBAQDAgeAMA0GCSqGSIb3DQEBCwUAA4IBAQBIbXPx3AB39A93rFMhxTmx
vBBq8o55MGB064hWih3u74ZDzJmw9O5N708P1cuTkz8Wuqc3iuf4w9fmNNi1439B
3gimMNNA7+++NR36/NVy2QBpDdXpQ9E7cbYWRUpYQulHOJr2Go/LcfuGKqpAvoi0
i65HvPJLg8PSQwurEKaz21Nk2lO5q1ULbwuJvvZDysrkU5QjHi4J8/xkomHLoEFs
ia0KjeupiHcOFv4X/mYRvwKW2W1MGZEVQHmzxNeDk0HWmHM4Qagf+nfXtbVFHguh
bxXxo51ciBr+4lrTrlyAe1wQR8+4MjJHKg9udEVPNcjNgCNxDm6xBAGJZ/tOEVm9
-----END CERTIFICATE-----
