Certificate:
    Data:
        Version: 3 (0x2)
        Serial Number:
            5b:a2:ce:a7:09:4f:c7:cd:77:fc:cd:18:5e:0e:31:fb
        Signature Algorithm: sha256WithRSAEncryption
        Issuer: CN=team245-net
        Validity
            Not Before: May 18 19:25:51 2022 GMT
            Not After : May  2 19:25:51 2025 GMT
        Subject: CN=team245-server
        Subject Public Key Info:
            Public Key Algorithm: rsaEncryption
                RSA Public-Key: (2048 bit)
                Modulus:
                    00:e1:f6:a3:9d:ec:6f:2a:8b:be:14:59:fc:6b:39:
                    69:ac:96:7f:fd:d6:02:be:09:e4:b6:49:86:0d:22:
                    c7:63:40:0b:03:d6:b4:47:cb:aa:75:27:db:b2:ac:
                    5b:72:e8:3f:1d:29:49:b2:65:ff:9e:0a:6f:0d:32:
                    18:e7:6d:b1:9e:37:19:ef:d8:bb:f3:55:ac:34:da:
                    26:c5:a8:4c:a5:3b:99:5b:27:c0:1f:1d:cf:9d:22:
                    32:e7:d2:4f:48:2e:2d:e3:a3:92:ec:28:5e:77:f9:
                    e2:3c:8b:e6:e1:f0:65:f3:9a:d7:8c:03:1a:c4:07:
                    c8:c9:a5:1d:fc:61:1a:af:5d:eb:8b:90:28:73:d7:
                    ef:f9:94:c8:8a:f2:33:1c:e6:12:7d:bb:fe:0a:cd:
                    c0:71:60:0d:12:4b:a9:ea:b4:30:5e:11:03:77:52:
                    1c:f2:77:f0:11:9b:a7:a6:5c:36:20:37:d2:96:6a:
                    6c:25:60:78:6d:3b:38:b7:a2:0c:87:64:ed:ca:ef:
                    b4:c0:e4:d4:40:c1:1b:65:25:72:6e:18:99:e7:44:
                    4f:07:10:ac:0a:48:69:46:1e:d7:0f:dc:aa:3d:da:
                    a7:12:58:21:c4:37:fa:b1:c0:8d:b8:a9:a9:b3:a2:
                    aa:65:f9:44:c0:da:5b:fa:72:61:12:29:48:52:b4:
                    6c:c9
                Exponent: 65537 (0x10001)
        X509v3 extensions:
            X509v3 Basic Constraints: 
                CA:FALSE
            X509v3 Subject Key Identifier: 
                3E:A8:C4:99:FB:81:02:FE:3B:C8:5F:E9:DA:EF:9B:F5:40:73:69:0C
            X509v3 Authority Key Identifier: 
                keyid:66:62:8B:C5:6E:6D:30:03:A5:6B:18:86:5F:18:79:EA:04:37:49:ED
                DirName:/CN=team245-net
                serial:74:53:31:0E:1E:9F:5D:13:06:88:ED:5E:DB:06:4C:A9:80:33:49:4A

            X509v3 Extended Key Usage: 
                TLS Web Server Authentication
            X509v3 Key Usage: 
                Digital Signature, Key Encipherment
            X509v3 Subject Alternative Name: 
                DNS:team245-server
    Signature Algorithm: sha256WithRSAEncryption
         48:0a:d8:55:85:d3:29:16:7c:be:66:f2:42:8e:41:44:70:bc:
         63:e7:a2:cf:72:3a:25:c8:a3:f1:4b:43:6b:c9:03:62:1c:7b:
         65:ba:c5:a6:97:ca:32:ef:a4:2c:46:eb:5c:45:18:ce:44:29:
         d2:9b:fe:74:2d:69:46:9a:63:bd:a6:eb:49:35:da:66:10:4f:
         61:21:f6:0d:41:fb:04:aa:ff:20:c3:11:9e:e0:26:11:d3:4d:
         df:d8:05:82:be:c6:2c:e9:1d:de:e9:cb:24:7a:7d:ed:8f:e6:
         ee:4f:51:ba:8b:57:61:e8:b2:42:5d:b7:f2:41:b8:42:1b:ed:
         6f:95:de:63:d3:65:bc:b5:83:f3:8d:8a:59:14:3b:ba:5b:a7:
         f9:31:17:c3:31:47:f5:4b:cb:42:2c:18:d0:54:6e:73:7c:15:
         29:dd:09:a8:e5:d0:60:d0:0d:26:9d:b0:63:eb:03:3f:8d:53:
         86:02:45:c3:53:82:6f:59:cf:8b:49:c3:e3:2c:16:03:87:cb:
         5c:93:d3:2c:40:dd:54:99:bf:1d:9d:47:02:eb:29:b4:70:0a:
         00:6f:88:30:61:2c:16:c1:34:a8:2f:31:ab:ad:63:2f:e5:de:
         da:86:23:ff:78:92:94:a4:2f:a9:58:7c:1b:e3:8e:d0:07:13:
         50:85:02:8e
-----BEGIN CERTIFICATE-----
MIIDdzCCAl+gAwIBAgIQW6LOpwlPx813/M0YXg4x+zANBgkqhkiG9w0BAQsFADAW
MRQwEgYDVQQDDAt0ZWFtMjQ1LW5ldDAeFw0yMjA1MTgxOTI1NTFaFw0yNTA1MDIx
OTI1NTFaMBkxFzAVBgNVBAMMDnRlYW0yNDUtc2VydmVyMIIBIjANBgkqhkiG9w0B
AQEFAAOCAQ8AMIIBCgKCAQEA4fajnexvKou+FFn8azlprJZ//dYCvgnktkmGDSLH
Y0ALA9a0R8uqdSfbsqxbcug/HSlJsmX/ngpvDTIY522xnjcZ79i781WsNNomxahM
pTuZWyfAHx3PnSIy59JPSC4t46OS7Ched/niPIvm4fBl85rXjAMaxAfIyaUd/GEa
r13ri5Aoc9fv+ZTIivIzHOYSfbv+Cs3AcWANEkup6rQwXhEDd1Ic8nfwEZunplw2
IDfSlmpsJWB4bTs4t6IMh2Ttyu+0wOTUQMEbZSVybhiZ50RPBxCsCkhpRh7XD9yq
PdqnElghxDf6scCNuKmps6KqZflEwNpb+nJhEilIUrRsyQIDAQABo4G9MIG6MAkG
A1UdEwQCMAAwHQYDVR0OBBYEFD6oxJn7gQL+O8hf6drvm/VAc2kMMFEGA1UdIwRK
MEiAFGZii8VubTADpWsYhl8YeeoEN0ntoRqkGDAWMRQwEgYDVQQDDAt0ZWFtMjQ1
LW5ldIIUdFMxDh6fXRMGiO1e2wZMqYAzSUowEwYDVR0lBAwwCgYIKwYBBQUHAwEw
CwYDVR0PBAQDAgWgMBkGA1UdEQQSMBCCDnRlYW0yNDUtc2VydmVyMA0GCSqGSIb3
DQEBCwUAA4IBAQBICthVhdMpFny+ZvJCjkFEcLxj56LPcjolyKPxS0NryQNiHHtl
usWml8oy76QsRutcRRjORCnSm/50LWlGmmO9putJNdpmEE9hIfYNQfsEqv8gwxGe
4CYR003f2AWCvsYs6R3e6csken3tj+buT1G6i1dh6LJCXbfyQbhCG+1vld5j02W8
tYPzjYpZFDu6W6f5MRfDMUf1S8tCLBjQVG5zfBUp3Qmo5dBg0A0mnbBj6wM/jVOG
AkXDU4JvWc+LScPjLBYDh8tck9MsQN1Umb8dnUcC6ym0cAoAb4gwYSwWwTSoLzGr
rWMv5d7ahiP/eJKUpC+pWHwb447QBxNQhQKO
-----END CERTIFICATE-----
