Certificate:
    Data:
        Version: 3 (0x2)
        Serial Number:
            df:05:d6:53:66:2f:35:44:ad:ec:41:da:b2:af:d7:3b
        Signature Algorithm: sha256WithRSAEncryption
        Issuer: CN=team245-net
        Validity
            Not Before: May 18 19:25:51 2022 GMT
            Not After : May  2 19:25:51 2025 GMT
        Subject: CN=team245-client
        Subject Public Key Info:
            Public Key Algorithm: rsaEncryption
                RSA Public-Key: (2048 bit)
                Modulus:
                    00:ed:8f:8a:b0:77:b9:5a:68:fc:e2:a8:39:7b:39:
                    1e:df:fe:86:4d:22:b7:ce:a7:54:84:0f:35:be:84:
                    f4:ba:13:39:5e:f1:db:e5:cd:ff:33:3c:69:60:7d:
                    2f:3c:01:16:4c:fa:97:7a:35:ec:99:5d:34:22:f3:
                    e3:8e:33:a4:38:37:8e:a4:bf:dd:53:b6:b0:89:ce:
                    da:c2:b7:3a:3a:d9:4e:45:2a:e3:31:0c:1c:97:12:
                    3e:0f:a6:f3:88:fc:e2:02:da:76:88:59:10:13:fd:
                    ca:43:61:25:89:96:75:b2:c6:82:7c:3e:7b:7d:c2:
                    57:5a:cd:49:34:f5:99:6b:20:9c:e6:4b:9f:cb:2d:
                    c1:34:65:67:7c:a8:d2:9e:e4:a8:d7:41:ca:f9:c3:
                    c7:d3:69:3d:3f:ec:a3:0e:88:ec:63:cf:81:a1:9f:
                    ee:a1:d8:f6:f3:1c:64:f5:2a:4b:02:ea:0a:83:2e:
                    d4:d1:99:fb:c8:52:0d:41:d7:59:fa:7d:3c:1f:20:
                    82:6e:26:af:85:40:72:4f:d1:4a:f4:c1:5c:b0:19:
                    ee:20:50:a8:b4:b3:d7:5e:9b:8b:ee:2a:6d:8c:5b:
                    05:7f:28:7f:09:01:0a:f0:38:da:f7:7c:b2:63:71:
                    d1:1d:c2:b7:51:3a:26:90:fd:9c:19:26:17:30:38:
                    9b:e5
                Exponent: 65537 (0x10001)
        X509v3 extensions:
            X509v3 Basic Constraints: 
                CA:FALSE
            X509v3 Subject Key Identifier: 
                75:F5:24:2C:E1:83:25:35:68:CA:23:A7:29:5E:7C:C7:02:96:79:39
            X509v3 Authority Key Identifier: 
                keyid:66:62:8B:C5:6E:6D:30:03:A5:6B:18:86:5F:18:79:EA:04:37:49:ED
                DirName:/CN=team245-net
                serial:74:53:31:0E:1E:9F:5D:13:06:88:ED:5E:DB:06:4C:A9:80:33:49:4A

            X509v3 Extended Key Usage: 
                TLS Web Client Authentication
            X509v3 Key Usage: 
                Digital Signature
    Signature Algorithm: sha256WithRSAEncryption
         25:46:fe:a1:79:bd:34:27:a1:d8:bb:e5:21:97:59:9c:4e:a2:
         d2:00:33:c2:e1:ed:3c:ec:56:a4:ee:0a:d9:70:3f:d1:ab:30:
         c7:85:88:78:57:1f:9d:02:c1:ad:02:31:b2:40:55:f2:88:27:
         4e:16:aa:6c:4f:73:8b:03:74:7f:3d:7a:ca:62:4c:3a:4e:d7:
         44:02:50:ad:95:71:29:7e:b1:87:1f:ba:be:7e:f9:88:58:fc:
         67:29:b1:53:68:02:a8:ae:18:39:62:d5:3d:0d:fb:89:87:3f:
         77:8b:62:dc:be:cb:7e:a8:b8:e7:57:a9:77:b9:26:07:b4:f6:
         d6:fa:26:aa:f9:f0:9f:f5:c0:eb:98:5a:ca:fc:bf:3a:9a:08:
         5e:70:b9:77:6a:22:93:d6:54:60:bd:cb:cd:a8:cc:d1:e7:7a:
         1e:fa:38:2c:b0:30:ec:d7:9f:ae:14:a1:ae:00:2b:e9:43:29:
         b9:6c:b6:ce:93:91:73:44:6b:63:b0:80:d2:49:ac:af:bc:2a:
         be:2d:29:3e:93:57:ee:a8:05:0d:f5:c3:c0:f1:e7:f9:e2:59:
         98:53:05:15:fd:13:c6:2b:97:de:02:cc:1b:af:6b:1e:99:27:
         7a:86:ba:65:a3:de:57:a2:54:4d:e2:0f:ed:40:a5:03:ee:2f:
         08:22:b4:db
-----BEGIN CERTIFICATE-----
MIIDXTCCAkWgAwIBAgIRAN8F1lNmLzVErexB2rKv1zswDQYJKoZIhvcNAQELBQAw
FjEUMBIGA1UEAwwLdGVhbTI0NS1uZXQwHhcNMjIwNTE4MTkyNTUxWhcNMjUwNTAy
MTkyNTUxWjAZMRcwFQYDVQQDDA50ZWFtMjQ1LWNsaWVudDCCASIwDQYJKoZIhvcN
AQEBBQADggEPADCCAQoCggEBAO2PirB3uVpo/OKoOXs5Ht/+hk0it86nVIQPNb6E
9LoTOV7x2+XN/zM8aWB9LzwBFkz6l3o17JldNCLz444zpDg3jqS/3VO2sInO2sK3
OjrZTkUq4zEMHJcSPg+m84j84gLadohZEBP9ykNhJYmWdbLGgnw+e33CV1rNSTT1
mWsgnOZLn8stwTRlZ3yo0p7kqNdByvnDx9NpPT/sow6I7GPPgaGf7qHY9vMcZPUq
SwLqCoMu1NGZ+8hSDUHXWfp9PB8ggm4mr4VAck/RSvTBXLAZ7iBQqLSz116bi+4q
bYxbBX8ofwkBCvA42vd8smNx0R3Ct1E6JpD9nBkmFzA4m+UCAwEAAaOBojCBnzAJ
BgNVHRMEAjAAMB0GA1UdDgQWBBR19SQs4YMlNWjKI6cpXnzHApZ5OTBRBgNVHSME
SjBIgBRmYovFbm0wA6VrGIZfGHnqBDdJ7aEapBgwFjEUMBIGA1UEAwwLdGVhbTI0
NS1uZXSCFHRTMQ4en10TBojtXtsGTKmAM0lKMBMGA1UdJQQMMAoGCCsGAQUFBwMC
MAsGA1UdDwQEAwIHgDANBgkqhkiG9w0BAQsFAAOCAQEAJUb+oXm9NCeh2LvlIZdZ
nE6i0gAzwuHtPOxWpO4K2XA/0aswx4WIeFcfnQLBrQIxskBV8ognThaqbE9ziwN0
fz16ymJMOk7XRAJQrZVxKX6xhx+6vn75iFj8ZymxU2gCqK4YOWLVPQ37iYc/d4ti
3L7Lfqi451epd7kmB7T21vomqvnwn/XA65hayvy/OpoIXnC5d2oik9ZUYL3LzajM
0ed6Hvo4LLAw7NefrhShrgAr6UMpuWy2zpORc0RrY7CA0kmsr7wqvi0pPpNX7qgF
DfXDwPHn+eJZmFMFFf0TxiuX3gLMG69rHpkneoa6ZaPeV6JUTeIP7UClA+4vCCK0
2w==
-----END CERTIFICATE-----
