Certificate:
    Data:
        Version: 3 (0x2)
        Serial Number:
            36:dc:6b:e4:ab:0c:63:f4:a5:90:e0:60:c2:e2:9d:c7
        Signature Algorithm: sha256WithRSAEncryption
        Issuer: CN=team663-net
        Validity
            Not Before: May 18 23:11:14 2022 GMT
            Not After : May  2 23:11:14 2025 GMT
        Subject: CN=team663-server
        Subject Public Key Info:
            Public Key Algorithm: rsaEncryption
                RSA Public-Key: (2048 bit)
                Modulus:
                    00:b4:3a:5c:ab:da:44:3f:e9:2e:98:15:98:ff:a8:
                    73:55:60:0a:19:1e:89:22:72:a8:2b:87:c8:45:2e:
                    7d:36:b9:e8:bd:94:53:9f:b2:3f:2e:7b:77:fe:19:
                    3a:1a:54:94:98:25:d7:6e:d9:d0:94:4c:f6:c7:63:
                    a0:0d:2f:4d:5b:0a:b6:ac:b8:1e:6e:10:4d:e8:13:
                    35:fc:15:4f:af:74:0a:54:20:6f:9d:6e:c1:1f:a0:
                    69:fc:36:7b:7f:f6:ff:4b:d2:b1:ed:49:18:1b:cb:
                    4a:30:5c:72:2b:47:7d:97:9a:79:62:ae:22:38:01:
                    fb:e7:82:85:58:ee:5e:12:de:91:83:e7:7f:f6:6b:
                    b7:f8:be:54:ef:14:89:3d:c6:4b:06:7d:c4:6e:39:
                    24:02:38:46:6f:df:8f:08:2d:9c:64:12:1c:2a:90:
                    8e:67:e3:c7:c8:bb:97:a8:8b:0a:87:92:9d:c3:d8:
                    b7:82:66:fb:c2:a9:e4:5f:4f:d0:4a:32:88:cd:50:
                    2b:55:03:44:49:ec:8b:c3:79:ab:82:b8:52:8c:e2:
                    d7:4f:df:bf:f3:bd:f6:4d:df:f7:ad:1f:a4:4e:bd:
                    36:c2:7e:ad:04:aa:20:8d:b8:c6:f3:fc:dd:ee:1d:
                    cc:9a:ac:58:ba:76:7f:df:0f:bc:cc:f3:8d:d5:e8:
                    ab:d3
                Exponent: 65537 (0x10001)
        X509v3 extensions:
            X509v3 Basic Constraints: 
                CA:FALSE
            X509v3 Subject Key Identifier: 
                D5:3F:97:A6:FB:EC:B8:0F:3F:02:15:E8:A3:BD:E9:9C:87:92:10:4C
            X509v3 Authority Key Identifier: 
                keyid:9B:17:B2:0F:41:AA:32:53:46:7E:24:9B:FE:93:88:D2:BB:B6:BA:B0
                DirName:/CN=team663-net
                serial:1F:06:FF:C4:B2:57:49:03:F0:E3:AF:6A:27:96:C4:E6:6C:33:08:08

            X509v3 Extended Key Usage: 
                TLS Web Server Authentication
            X509v3 Key Usage: 
                Digital Signature, Key Encipherment
            X509v3 Subject Alternative Name: 
                DNS:team663-server
    Signature Algorithm: sha256WithRSAEncryption
         21:73:b2:77:ac:45:13:06:1a:04:63:fa:4c:19:00:6e:f1:e4:
         8b:33:80:06:12:82:28:0f:b9:78:a4:6d:b8:79:2b:57:6c:53:
         6a:d7:1e:bc:97:e5:be:d3:07:bb:f8:42:2f:30:35:d8:a9:74:
         54:98:7c:22:b8:6d:53:33:e5:a2:ae:0e:d8:a0:d2:a2:cd:f8:
         db:85:ee:c0:81:4e:33:fe:04:a2:35:50:2e:f3:05:2e:19:4e:
         0d:15:23:7a:98:be:5a:7c:c4:94:8e:74:a9:fd:ab:9d:f7:1e:
         f2:8d:98:c4:52:55:14:39:38:d1:d2:8f:da:72:50:29:4e:8e:
         45:9f:ec:d7:f7:2e:71:34:62:ef:be:31:37:12:c3:7c:a8:25:
         48:43:91:98:1f:c6:57:4a:37:67:f6:6d:dd:b6:78:ef:9a:89:
         79:00:da:f8:b4:1e:23:fb:d9:e0:a0:85:47:2c:f8:08:2e:ef:
         0d:bf:1e:47:ad:ac:3d:3a:2f:f3:ad:ce:49:3a:78:7f:fb:96:
         95:13:a5:2f:6d:13:a9:a1:93:0a:65:55:11:9e:78:10:f3:12:
         15:9f:1f:06:bf:40:94:7f:1c:03:8e:5d:fc:cc:28:33:af:4d:
         66:50:e2:81:84:02:ec:23:2d:ad:88:17:8c:4a:cf:45:a2:58:
         24:a4:40:b5
-----BEGIN CERTIFICATE-----
MIIDdzCCAl+gAwIBAgIQNtxr5KsMY/SlkOBgwuKdxzANBgkqhkiG9w0BAQsFADAW
MRQwEgYDVQQDDAt0ZWFtNjYzLW5ldDAeFw0yMjA1MTgyMzExMTRaFw0yNTA1MDIy
MzExMTRaMBkxFzAVBgNVBAMMDnRlYW02NjMtc2VydmVyMIIBIjANBgkqhkiG9w0B
AQEFAAOCAQ8AMIIBCgKCAQEAtDpcq9pEP+kumBWY/6hzVWAKGR6JInKoK4fIRS59
NrnovZRTn7I/Lnt3/hk6GlSUmCXXbtnQlEz2x2OgDS9NWwq2rLgebhBN6BM1/BVP
r3QKVCBvnW7BH6Bp/DZ7f/b/S9Kx7UkYG8tKMFxyK0d9l5p5Yq4iOAH754KFWO5e
Et6Rg+d/9mu3+L5U7xSJPcZLBn3EbjkkAjhGb9+PCC2cZBIcKpCOZ+PHyLuXqIsK
h5Kdw9i3gmb7wqnkX0/QSjKIzVArVQNESeyLw3mrgrhSjOLXT9+/8732Td/3rR+k
Tr02wn6tBKogjbjG8/zd7h3MmqxYunZ/3w+8zPON1eir0wIDAQABo4G9MIG6MAkG
A1UdEwQCMAAwHQYDVR0OBBYEFNU/l6b77LgPPwIV6KO96ZyHkhBMMFEGA1UdIwRK
MEiAFJsXsg9BqjJTRn4km/6TiNK7trqwoRqkGDAWMRQwEgYDVQQDDAt0ZWFtNjYz
LW5ldIIUHwb/xLJXSQPw469qJ5bE5mwzCAgwEwYDVR0lBAwwCgYIKwYBBQUHAwEw
CwYDVR0PBAQDAgWgMBkGA1UdEQQSMBCCDnRlYW02NjMtc2VydmVyMA0GCSqGSIb3
DQEBCwUAA4IBAQAhc7J3rEUTBhoEY/pMGQBu8eSLM4AGEoIoD7l4pG24eStXbFNq
1x68l+W+0we7+EIvMDXYqXRUmHwiuG1TM+Wirg7YoNKizfjbhe7AgU4z/gSiNVAu
8wUuGU4NFSN6mL5afMSUjnSp/aud9x7yjZjEUlUUOTjR0o/aclApTo5Fn+zX9y5x
NGLvvjE3EsN8qCVIQ5GYH8ZXSjdn9m3dtnjvmol5ANr4tB4j+9ngoIVHLPgILu8N
vx5Hraw9Oi/zrc5JOnh/+5aVE6UvbROpoZMKZVURnngQ8xIVnx8Gv0CUfxwDjl38
zCgzr01mUOKBhALsIy2tiBeMSs9FolgkpEC1
-----END CERTIFICATE-----
