Certificate:
    Data:
        Version: 3 (0x2)
        Serial Number:
            62:b3:3d:bf:b2:1e:66:60:90:41:5f:4f:ec:6f:c1:f2
        Signature Algorithm: sha256WithRSAEncryption
        Issuer: CN=team747-net
        Validity
            Not Before: May 19 00:12:04 2022 GMT
            Not After : May  3 00:12:04 2025 GMT
        Subject: CN=team747-server
        Subject Public Key Info:
            Public Key Algorithm: rsaEncryption
                RSA Public-Key: (2048 bit)
                Modulus:
                    00:d7:b4:3a:1c:90:bc:10:cb:5d:b0:b2:e5:e8:66:
                    26:cf:3e:0a:77:9d:fd:20:69:1c:fb:30:98:3e:7b:
                    74:6d:3c:08:42:38:61:90:c4:27:b7:24:42:b3:70:
                    15:48:4b:bf:7b:8b:8d:da:1f:77:55:b0:0d:cb:b6:
                    da:76:15:9c:9c:e6:ed:09:8e:b5:78:22:99:62:eb:
                    e0:15:03:82:cc:60:54:15:e5:65:c9:9c:57:f1:d1:
                    33:fc:35:0a:77:2c:c5:4e:d6:5b:74:22:18:ba:02:
                    81:6d:91:42:e4:f9:0a:b9:84:99:2d:f5:31:bd:bb:
                    0d:73:85:aa:43:d7:28:8b:12:a5:f7:8f:43:77:d9:
                    66:83:e0:c6:cb:0e:18:b7:b0:53:7c:28:8e:dd:af:
                    5e:d5:51:e4:01:68:98:eb:b9:2d:f6:70:0c:f3:5c:
                    23:d0:19:4e:b5:45:85:4a:dc:9a:0e:81:14:b9:6d:
                    a6:ad:96:db:22:f3:4b:86:39:b8:b5:fd:ff:b8:e1:
                    f8:3a:d8:53:18:7b:7e:51:5f:aa:25:af:10:3d:d2:
                    3b:6e:d4:77:74:fb:4c:58:c4:11:66:e6:1f:23:0b:
                    40:35:0e:dd:b6:15:98:83:14:ce:32:45:f1:85:ba:
                    f5:3c:f7:f4:46:c0:0a:14:ae:13:6e:f5:39:7e:83:
                    46:2b
                Exponent: 65537 (0x10001)
        X509v3 extensions:
            X509v3 Basic Constraints: 
                CA:FALSE
            X509v3 Subject Key Identifier: 
                04:94:D7:6A:CF:3E:8D:CE:31:33:90:89:92:09:25:90:C6:05:5F:F2
            X509v3 Authority Key Identifier: 
                keyid:66:34:DB:C8:24:13:8C:8B:5C:43:D6:10:DA:F6:60:B0:B1:38:EB:64
                DirName:/CN=team747-net
                serial:05:CE:7E:26:D0:16:91:4F:1E:EC:04:15:02:8D:84:98:31:87:A3:91

            X509v3 Extended Key Usage: 
                TLS Web Server Authentication
            X509v3 Key Usage: 
                Digital Signature, Key Encipherment
            X509v3 Subject Alternative Name: 
                DNS:team747-server
    Signature Algorithm: sha256WithRSAEncryption
         51:9a:86:ba:c4:2f:20:75:8c:cd:c0:bc:a6:a2:0d:b7:33:7d:
         d3:6c:b8:3e:2c:d2:75:37:35:56:50:fd:d7:46:f0:ca:f8:a8:
         0e:bc:d2:20:87:f9:fa:e4:6e:7d:e2:63:98:0e:de:e6:b4:4e:
         a5:aa:9d:a7:1f:91:fb:74:45:79:19:39:94:0b:7a:dc:d8:e6:
         a8:e5:ec:16:3b:42:6d:d3:0a:57:a1:45:08:8a:ad:a9:6d:3a:
         d7:2c:98:4b:97:03:94:89:29:80:a0:31:16:7c:9f:44:d5:f9:
         69:8b:21:e6:ee:4f:15:c3:12:05:a0:20:4d:2e:11:53:17:64:
         10:e7:96:99:df:40:ef:21:33:33:73:64:8b:bd:5a:a7:51:3c:
         3b:42:91:f3:f1:6a:c4:e9:f3:7f:b3:34:ec:0e:3f:e6:ed:5d:
         19:4d:4b:b4:85:25:0e:cc:c7:9d:0b:18:03:ac:30:01:52:51:
         47:a9:8b:75:d2:09:64:61:39:e3:79:d1:28:96:10:14:d6:11:
         79:96:49:aa:21:cd:f1:35:19:47:cf:ca:b1:5e:ee:c1:5a:cd:
         97:85:35:a8:bf:fb:e6:03:bc:ec:51:8b:1e:d3:01:9a:6d:f6:
         07:97:a8:83:6e:cd:63:d1:30:e9:96:9d:32:8a:a0:cc:e5:d5:
         0b:10:99:08
-----BEGIN CERTIFICATE-----
MIIDdzCCAl+gAwIBAgIQYrM9v7IeZmCQQV9P7G/B8jANBgkqhkiG9w0BAQsFADAW
MRQwEgYDVQQDDAt0ZWFtNzQ3LW5ldDAeFw0yMjA1MTkwMDEyMDRaFw0yNTA1MDMw
MDEyMDRaMBkxFzAVBgNVBAMMDnRlYW03NDctc2VydmVyMIIBIjANBgkqhkiG9w0B
AQEFAAOCAQ8AMIIBCgKCAQEA17Q6HJC8EMtdsLLl6GYmzz4Kd539IGkc+zCYPnt0
bTwIQjhhkMQntyRCs3AVSEu/e4uN2h93VbANy7badhWcnObtCY61eCKZYuvgFQOC
zGBUFeVlyZxX8dEz/DUKdyzFTtZbdCIYugKBbZFC5PkKuYSZLfUxvbsNc4WqQ9co
ixKl949Dd9lmg+DGyw4Yt7BTfCiO3a9e1VHkAWiY67kt9nAM81wj0BlOtUWFStya
DoEUuW2mrZbbIvNLhjm4tf3/uOH4OthTGHt+UV+qJa8QPdI7btR3dPtMWMQRZuYf
IwtANQ7dthWYgxTOMkXxhbr1PPf0RsAKFK4TbvU5foNGKwIDAQABo4G9MIG6MAkG
A1UdEwQCMAAwHQYDVR0OBBYEFASU12rPPo3OMTOQiZIJJZDGBV/yMFEGA1UdIwRK
MEiAFGY028gkE4yLXEPWENr2YLCxOOtkoRqkGDAWMRQwEgYDVQQDDAt0ZWFtNzQ3
LW5ldIIUBc5+JtAWkU8e7AQVAo2EmDGHo5EwEwYDVR0lBAwwCgYIKwYBBQUHAwEw
CwYDVR0PBAQDAgWgMBkGA1UdEQQSMBCCDnRlYW03NDctc2VydmVyMA0GCSqGSIb3
DQEBCwUAA4IBAQBRmoa6xC8gdYzNwLymog23M33TbLg+LNJ1NzVWUP3XRvDK+KgO
vNIgh/n65G594mOYDt7mtE6lqp2nH5H7dEV5GTmUC3rc2Oao5ewWO0Jt0wpXoUUI
iq2pbTrXLJhLlwOUiSmAoDEWfJ9E1flpiyHm7k8VwxIFoCBNLhFTF2QQ55aZ30Dv
ITMzc2SLvVqnUTw7QpHz8WrE6fN/szTsDj/m7V0ZTUu0hSUOzMedCxgDrDABUlFH
qYt10glkYTnjedEolhAU1hF5lkmqIc3xNRlHz8qxXu7BWs2XhTWov/vmA7zsUYse
0wGabfYHl6iDbs1j0TDplp0yiqDM5dULEJkI
-----END CERTIFICATE-----
