Certificate:
    Data:
        Version: 3 (0x2)
        Serial Number:
            f0:6d:c5:44:99:33:7d:77:01:b9:b9:8c:e5:9f:9a:ee
        Signature Algorithm: sha256WithRSAEncryption
        Issuer: CN=team747-net
        Validity
            Not Before: May 19 00:12:04 2022 GMT
            Not After : May  3 00:12:04 2025 GMT
        Subject: CN=team747-client
        Subject Public Key Info:
            Public Key Algorithm: rsaEncryption
                RSA Public-Key: (2048 bit)
                Modulus:
                    00:e7:2e:d2:cf:e3:9e:ff:41:d8:79:9e:e5:fe:66:
                    29:bd:99:85:22:a7:c4:de:fe:fc:68:c8:e6:3c:f4:
                    96:29:94:85:ce:30:eb:75:ce:e9:0a:c5:3f:aa:49:
                    55:a4:3f:93:fa:40:ac:88:76:38:f3:73:2c:7a:f3:
                    48:77:13:45:fd:ea:95:7f:8a:b0:dd:e9:b7:2c:55:
                    9c:1a:d8:37:8c:bd:9a:9b:e7:45:3f:c7:00:09:27:
                    2b:a7:cb:80:6b:bc:e3:44:6b:dc:a2:10:36:ad:d7:
                    e8:29:f8:7a:c1:c0:2b:93:c4:f0:a9:62:ae:bb:f0:
                    5d:eb:32:18:f9:92:ae:8f:69:fb:41:48:15:25:14:
                    2f:dd:5a:5e:c0:d4:a0:f8:3f:90:88:05:48:89:57:
                    40:d6:ae:44:a4:f1:88:4b:93:b5:93:cf:ed:33:cb:
                    70:a8:82:5a:9e:bd:46:ed:c0:c1:d0:dd:16:c8:13:
                    b5:ac:02:8c:3a:c4:33:44:51:9b:6f:55:da:15:a7:
                    0d:30:da:fc:d2:f3:d8:dc:ed:f7:d2:fd:35:ec:47:
                    9b:0d:fb:d8:4b:42:0f:48:20:71:1e:f5:65:a1:87:
                    89:ea:52:fc:30:2b:2a:c7:2e:cf:40:67:ee:d1:00:
                    46:7a:94:fe:fe:2f:b6:1b:71:0e:c0:6a:95:7c:ff:
                    6f:1b
                Exponent: 65537 (0x10001)
        X509v3 extensions:
            X509v3 Basic Constraints: 
                CA:FALSE
            X509v3 Subject Key Identifier: 
                FF:83:ED:0C:68:7C:E4:07:E7:B7:1E:D2:9D:BB:41:F4:00:C9:2E:42
            X509v3 Authority Key Identifier: 
                keyid:66:34:DB:C8:24:13:8C:8B:5C:43:D6:10:DA:F6:60:B0:B1:38:EB:64
                DirName:/CN=team747-net
                serial:05:CE:7E:26:D0:16:91:4F:1E:EC:04:15:02:8D:84:98:31:87:A3:91

            X509v3 Extended Key Usage: 
                TLS Web Client Authentication
            X509v3 Key Usage: 
                Digital Signature
    Signature Algorithm: sha256WithRSAEncryption
         67:a7:bd:16:2f:57:92:62:6a:35:b4:56:1d:f9:0b:71:46:f5:
         f4:cb:ba:1b:4c:99:38:58:24:e2:44:be:dc:8d:06:a1:78:9d:
         95:ca:0d:cb:57:eb:d5:1e:b1:ab:d4:fa:b4:9e:34:37:35:86:
         b2:26:bc:4b:3b:23:ff:d6:fa:bd:a0:f1:53:a5:8a:cb:7b:5c:
         c7:5a:cb:bc:81:fe:11:65:0c:00:0a:5d:91:e7:cc:9c:02:65:
         6d:b1:d8:e1:c3:57:41:7b:13:5a:e5:2f:de:73:16:7e:25:b5:
         54:6e:fe:48:e7:7d:53:5f:55:26:43:2b:a0:c3:34:16:4f:58:
         bf:ff:ee:e9:a0:56:40:35:4f:35:7c:80:4c:b5:4a:8c:2e:d5:
         8f:69:43:9c:00:98:9e:7f:46:1c:22:1b:2f:de:43:b0:73:46:
         34:2e:44:13:84:3a:83:a7:de:bf:ba:45:69:06:ab:5f:ed:72:
         b4:12:5c:15:89:76:d5:75:34:76:3e:93:01:ad:89:1d:42:13:
         7f:0f:21:1f:ea:8e:41:c7:4b:d5:27:99:49:ee:08:cb:bd:7a:
         d3:43:39:b5:3a:9c:d7:de:b7:43:cf:2f:c2:0d:61:da:77:7b:
         a5:d4:0a:51:27:5b:be:24:38:4d:cd:cf:99:af:57:a8:16:6e:
         6d:40:ed:1e
-----BEGIN CERTIFICATE-----
MIIDXTCCAkWgAwIBAgIRAPBtxUSZM313Abm5jOWfmu4wDQYJKoZIhvcNAQELBQAw
FjEUMBIGA1UEAwwLdGVhbTc0Ny1uZXQwHhcNMjIwNTE5MDAxMjA0WhcNMjUwNTAz
MDAxMjA0WjAZMRcwFQYDVQQDDA50ZWFtNzQ3LWNsaWVudDCCASIwDQYJKoZIhvcN
AQEBBQADggEPADCCAQoCggEBAOcu0s/jnv9B2Hme5f5mKb2ZhSKnxN7+/GjI5jz0
limUhc4w63XO6QrFP6pJVaQ/k/pArIh2OPNzLHrzSHcTRf3qlX+KsN3ptyxVnBrY
N4y9mpvnRT/HAAknK6fLgGu840Rr3KIQNq3X6Cn4esHAK5PE8KlirrvwXesyGPmS
ro9p+0FIFSUUL91aXsDUoPg/kIgFSIlXQNauRKTxiEuTtZPP7TPLcKiCWp69Ru3A
wdDdFsgTtawCjDrEM0RRm29V2hWnDTDa/NLz2Nzt99L9NexHmw372EtCD0ggcR71
ZaGHiepS/DArKscuz0Bn7tEARnqU/v4vthtxDsBqlXz/bxsCAwEAAaOBojCBnzAJ
BgNVHRMEAjAAMB0GA1UdDgQWBBT/g+0MaHzkB+e3HtKdu0H0AMkuQjBRBgNVHSME
SjBIgBRmNNvIJBOMi1xD1hDa9mCwsTjrZKEapBgwFjEUMBIGA1UEAwwLdGVhbTc0
Ny1uZXSCFAXOfibQFpFPHuwEFQKNhJgxh6ORMBMGA1UdJQQMMAoGCCsGAQUFBwMC
MAsGA1UdDwQEAwIHgDANBgkqhkiG9w0BAQsFAAOCAQEAZ6e9Fi9XkmJqNbRWHfkL
cUb19Mu6G0yZOFgk4kS+3I0GoXidlcoNy1fr1R6xq9T6tJ40NzWGsia8Szsj/9b6
vaDxU6WKy3tcx1rLvIH+EWUMAApdkefMnAJlbbHY4cNXQXsTWuUv3nMWfiW1VG7+
SOd9U19VJkMroMM0Fk9Yv//u6aBWQDVPNXyATLVKjC7Vj2lDnACYnn9GHCIbL95D
sHNGNC5EE4Q6g6fev7pFaQarX+1ytBJcFYl21XU0dj6TAa2JHUITfw8hH+qOQcdL
1SeZSe4Iy71600M5tTqc1963Q88vwg1h2nd7pdQKUSdbviQ4Tc3Pma9XqBZubUDt
Hg==
-----END CERTIFICATE-----
