Certificate:
    Data:
        Version: 3 (0x2)
        Serial Number:
            dd:32:8b:56:e9:bc:29:a0:75:b7:bf:00:f5:24:d5:3a
        Signature Algorithm: sha256WithRSAEncryption
        Issuer: CN=team595-net
        Validity
            Not Before: May 18 22:38:19 2022 GMT
            Not After : May  2 22:38:19 2025 GMT
        Subject: CN=team595-client
        Subject Public Key Info:
            Public Key Algorithm: rsaEncryption
                RSA Public-Key: (2048 bit)
                Modulus:
                    00:cd:df:d6:ac:a4:ea:83:54:42:20:8d:22:7b:c3:
                    30:44:89:07:58:2b:36:4a:36:76:da:ed:7a:95:43:
                    31:f5:dc:3b:04:60:96:d6:69:47:2d:f8:e1:b2:50:
                    7c:86:00:07:2b:74:99:eb:1e:4a:15:fc:2c:93:45:
                    9f:8d:2e:5d:2d:b0:c6:ff:bf:9a:b3:12:17:a8:dc:
                    2f:b3:44:2d:b5:be:ef:46:c0:f9:a5:a9:b5:dc:cd:
                    cb:71:d7:08:7b:f5:98:63:2f:2f:b7:1f:82:f2:76:
                    19:74:b0:bb:01:bc:67:30:1b:e8:7d:75:f0:9e:6c:
                    01:a2:70:e3:b0:fc:6f:bf:a6:3e:25:1a:b8:30:1a:
                    59:2d:2b:95:5e:b6:a2:05:15:7c:e3:6c:de:2e:cb:
                    3e:e9:ec:d9:3c:28:27:16:ab:0b:7b:d7:d5:d3:4a:
                    39:06:9b:8f:20:98:ca:11:8c:19:dd:29:91:2b:f8:
                    e6:68:ec:8a:4a:6b:99:f2:ea:f4:f4:93:cc:26:6e:
                    eb:b0:40:b7:4d:a5:9b:92:93:81:6b:c3:51:d6:bc:
                    d9:e1:d7:5e:d7:62:d3:8d:f0:c7:d1:53:3a:18:0c:
                    5b:7b:d0:48:c8:4f:ab:64:ba:ee:7f:00:ab:b4:81:
                    a9:0b:85:bc:4f:6a:69:75:85:fd:b1:a5:fe:43:40:
                    d2:f1
                Exponent: 65537 (0x10001)
        X509v3 extensions:
            X509v3 Basic Constraints: 
                CA:FALSE
            X509v3 Subject Key Identifier: 
                36:60:B5:98:93:56:29:A8:83:E5:BE:E0:84:9A:25:81:9E:4F:43:60
            X509v3 Authority Key Identifier: 
                keyid:6C:A5:55:E1:B9:10:BE:6D:F2:AE:49:A7:6F:17:92:66:50:36:9A:07
                DirName:/CN=team595-net
                serial:65:83:76:B0:6B:CD:02:6F:73:C2:68:85:8A:C5:E7:62:91:FB:F3:69

            X509v3 Extended Key Usage: 
                TLS Web Client Authentication
            X509v3 Key Usage: 
                Digital Signature
    Signature Algorithm: sha256WithRSAEncryption
         1e:4e:5d:23:6a:0f:d0:1a:51:5f:a8:f6:72:c1:ac:4d:28:ba:
         ac:ef:67:5a:6b:43:8a:c3:4d:c8:56:32:dc:00:a9:9d:86:23:
         8b:f6:cb:7e:d4:17:6f:e1:d5:4a:1c:3e:bc:3f:03:85:b2:5e:
         5b:37:91:47:38:d1:0c:fe:61:18:e9:6f:93:bc:ec:88:e9:db:
         2b:b8:ff:99:14:f7:c8:a2:35:17:2d:b1:d5:1f:2e:4f:77:ff:
         b3:60:b7:ba:03:91:1b:6d:b2:bc:19:3e:a4:a3:ab:70:47:64:
         93:84:cd:d5:17:8a:bf:d0:8f:f3:fe:d8:1c:a6:ef:d7:70:47:
         9b:fd:96:e2:97:91:e6:db:76:f5:02:4b:5d:e5:3d:c7:f1:ed:
         d9:a4:3e:a7:15:bd:5e:0e:4c:49:af:b7:57:bc:d2:1a:e9:a8:
         d1:40:75:b4:56:56:3b:5e:2d:2a:93:12:80:9d:92:0a:d5:67:
         ea:de:02:1e:18:df:da:10:40:29:47:e7:11:a7:93:12:df:fd:
         27:c3:26:f7:69:9a:c2:10:f1:22:32:f0:74:69:47:54:30:83:
         4f:be:f2:6d:19:3e:0f:e3:74:c0:da:10:1a:88:c0:63:37:96:
         2f:98:16:d3:4a:99:39:55:e4:66:ae:95:54:5a:65:47:a2:69:
         7b:0c:76:70
-----BEGIN CERTIFICATE-----
MIIDXTCCAkWgAwIBAgIRAN0yi1bpvCmgdbe/APUk1TowDQYJKoZIhvcNAQELBQAw
FjEUMBIGA1UEAwwLdGVhbTU5NS1uZXQwHhcNMjIwNTE4MjIzODE5WhcNMjUwNTAy
MjIzODE5WjAZMRcwFQYDVQQDDA50ZWFtNTk1LWNsaWVudDCCASIwDQYJKoZIhvcN
AQEBBQADggEPADCCAQoCggEBAM3f1qyk6oNUQiCNInvDMESJB1grNko2dtrtepVD
MfXcOwRgltZpRy344bJQfIYAByt0meseShX8LJNFn40uXS2wxv+/mrMSF6jcL7NE
LbW+70bA+aWptdzNy3HXCHv1mGMvL7cfgvJ2GXSwuwG8ZzAb6H118J5sAaJw47D8
b7+mPiUauDAaWS0rlV62ogUVfONs3i7LPuns2TwoJxarC3vX1dNKOQabjyCYyhGM
Gd0pkSv45mjsikprmfLq9PSTzCZu67BAt02lm5KTgWvDUda82eHXXtdi043wx9FT
OhgMW3vQSMhPq2S67n8Aq7SBqQuFvE9qaXWF/bGl/kNA0vECAwEAAaOBojCBnzAJ
BgNVHRMEAjAAMB0GA1UdDgQWBBQ2YLWYk1YpqIPlvuCEmiWBnk9DYDBRBgNVHSME
SjBIgBRspVXhuRC+bfKuSadvF5JmUDaaB6EapBgwFjEUMBIGA1UEAwwLdGVhbTU5
NS1uZXSCFGWDdrBrzQJvc8JohYrF52KR+/NpMBMGA1UdJQQMMAoGCCsGAQUFBwMC
MAsGA1UdDwQEAwIHgDANBgkqhkiG9w0BAQsFAAOCAQEAHk5dI2oP0BpRX6j2csGs
TSi6rO9nWmtDisNNyFYy3ACpnYYji/bLftQXb+HVShw+vD8DhbJeWzeRRzjRDP5h
GOlvk7zsiOnbK7j/mRT3yKI1Fy2x1R8uT3f/s2C3ugORG22yvBk+pKOrcEdkk4TN
1ReKv9CP8/7YHKbv13BHm/2W4peR5tt29QJLXeU9x/Ht2aQ+pxW9Xg5MSa+3V7zS
Gumo0UB1tFZWO14tKpMSgJ2SCtVn6t4CHhjf2hBAKUfnEaeTEt/9J8Mm92mawhDx
IjLwdGlHVDCDT77ybRk+D+N0wNoQGojAYzeWL5gW00qZOVXkZq6VVFplR6Jpewx2
cA==
-----END CERTIFICATE-----
