Certificate:
    Data:
        Version: 3 (0x2)
        Serial Number:
            5a:de:28:fd:f3:d9:7a:e7:e7:57:e9:ca:45:d4:26:4d
        Signature Algorithm: sha256WithRSAEncryption
        Issuer: CN=team678-net
        Validity
            Not Before: May 18 23:18:52 2022 GMT
            Not After : May  2 23:18:52 2025 GMT
        Subject: CN=team678-server
        Subject Public Key Info:
            Public Key Algorithm: rsaEncryption
                RSA Public-Key: (2048 bit)
                Modulus:
                    00:e7:76:ed:73:48:85:10:53:8e:8e:18:38:a0:06:
                    88:bc:26:f2:62:70:29:c0:ae:14:f7:dc:53:3b:04:
                    b2:fb:23:7a:a8:16:7c:a0:5e:5d:e3:26:a2:ae:85:
                    88:ee:ac:b8:88:a4:c1:25:e9:c1:03:6f:a2:ea:65:
                    28:51:13:f1:ed:17:2f:69:76:10:c3:75:60:93:60:
                    c9:df:67:d0:00:9e:4d:68:cd:9b:13:59:7c:da:e4:
                    f9:47:6b:21:e6:1c:b1:c2:2c:2f:49:c8:49:80:9d:
                    4e:7f:1c:e5:53:0d:fa:aa:93:97:93:fd:86:00:4e:
                    c4:a6:df:a4:ab:98:3f:63:f9:b7:1d:22:ab:75:a3:
                    a7:98:55:2a:82:ba:2a:45:1c:61:ed:43:b4:76:fa:
                    df:8f:c7:51:54:1f:39:29:87:fd:72:b6:6f:9e:ac:
                    97:9f:ec:b2:b0:75:fc:11:53:ac:f1:68:bd:f5:5a:
                    a2:09:f2:41:5c:61:ca:c2:50:3f:f0:59:46:c0:4d:
                    53:b7:41:06:a8:09:ca:8a:f2:fc:69:75:3e:8c:ae:
                    d0:3a:37:e5:de:ab:35:4f:df:24:c1:d9:7d:b9:ce:
                    09:46:73:d9:fc:46:c4:83:21:0c:aa:35:0f:2d:e6:
                    54:ff:12:6e:53:51:5d:4f:d8:bd:54:00:37:fc:3d:
                    73:99
                Exponent: 65537 (0x10001)
        X509v3 extensions:
            X509v3 Basic Constraints: 
                CA:FALSE
            X509v3 Subject Key Identifier: 
                6E:A3:62:45:25:A9:60:20:3B:51:39:94:A7:79:AE:AB:CD:BB:99:18
            X509v3 Authority Key Identifier: 
                keyid:2D:27:06:A5:19:73:E3:4F:61:B5:F3:94:D5:DD:CA:54:F9:87:3B:58
                DirName:/CN=team678-net
                serial:44:69:03:31:0E:BB:BB:F2:75:BB:3C:18:9A:37:B3:D5:FB:41:FC:5E

            X509v3 Extended Key Usage: 
                TLS Web Server Authentication
            X509v3 Key Usage: 
                Digital Signature, Key Encipherment
            X509v3 Subject Alternative Name: 
                DNS:team678-server
    Signature Algorithm: sha256WithRSAEncryption
         3b:58:b1:58:25:91:22:ec:ec:81:67:03:15:eb:f2:aa:9e:35:
         e6:47:79:f9:cd:e6:af:ea:2b:c2:4c:1f:49:91:3a:fa:54:2d:
         30:6d:57:a9:e1:f7:93:09:4a:1a:46:da:1f:d3:bf:df:d4:25:
         70:e1:6c:00:63:8e:00:e6:1f:5f:c5:3e:01:87:38:95:ad:f7:
         a2:f8:d6:0b:35:ea:39:4e:c6:39:4f:2b:86:73:d7:be:e8:3b:
         67:49:fe:53:e7:43:45:f1:90:b7:2a:fe:df:4b:da:42:ba:bd:
         19:5c:f5:75:6a:c0:be:3a:0e:00:de:d0:8b:f8:93:0b:4b:da:
         77:da:5d:bb:32:25:64:df:ab:84:3e:e7:b4:ad:3c:56:a1:54:
         cd:20:c1:0f:a6:70:f6:cd:b8:ed:3b:0c:2b:59:ca:de:4d:d7:
         82:8a:95:d3:8b:75:a8:8d:21:c5:64:87:27:0d:f9:5b:62:0d:
         cb:f6:98:13:07:66:f0:0f:e8:c3:fe:6c:ee:7c:77:50:76:06:
         18:73:1a:6a:51:9f:4e:34:82:ba:3d:0e:85:4f:41:e5:a5:a1:
         2c:14:46:98:cb:54:63:43:85:36:40:95:0c:17:02:d1:28:b1:
         cf:af:54:91:27:1f:a3:99:7f:f6:f7:a5:fe:bf:4e:4e:f7:d5:
         1d:e3:0a:8c
-----BEGIN CERTIFICATE-----
MIIDdzCCAl+gAwIBAgIQWt4o/fPZeufnV+nKRdQmTTANBgkqhkiG9w0BAQsFADAW
MRQwEgYDVQQDDAt0ZWFtNjc4LW5ldDAeFw0yMjA1MTgyMzE4NTJaFw0yNTA1MDIy
MzE4NTJaMBkxFzAVBgNVBAMMDnRlYW02Nzgtc2VydmVyMIIBIjANBgkqhkiG9w0B
AQEFAAOCAQ8AMIIBCgKCAQEA53btc0iFEFOOjhg4oAaIvCbyYnApwK4U99xTOwSy
+yN6qBZ8oF5d4yairoWI7qy4iKTBJenBA2+i6mUoURPx7RcvaXYQw3Vgk2DJ32fQ
AJ5NaM2bE1l82uT5R2sh5hyxwiwvSchJgJ1OfxzlUw36qpOXk/2GAE7Ept+kq5g/
Y/m3HSKrdaOnmFUqgroqRRxh7UO0dvrfj8dRVB85KYf9crZvnqyXn+yysHX8EVOs
8Wi99VqiCfJBXGHKwlA/8FlGwE1Tt0EGqAnKivL8aXU+jK7QOjfl3qs1T98kwdl9
uc4JRnPZ/EbEgyEMqjUPLeZU/xJuU1FdT9i9VAA3/D1zmQIDAQABo4G9MIG6MAkG
A1UdEwQCMAAwHQYDVR0OBBYEFG6jYkUlqWAgO1E5lKd5rqvNu5kYMFEGA1UdIwRK
MEiAFC0nBqUZc+NPYbXzlNXdylT5hztYoRqkGDAWMRQwEgYDVQQDDAt0ZWFtNjc4
LW5ldIIURGkDMQ67u/J1uzwYmjez1ftB/F4wEwYDVR0lBAwwCgYIKwYBBQUHAwEw
CwYDVR0PBAQDAgWgMBkGA1UdEQQSMBCCDnRlYW02Nzgtc2VydmVyMA0GCSqGSIb3
DQEBCwUAA4IBAQA7WLFYJZEi7OyBZwMV6/KqnjXmR3n5zeav6ivCTB9JkTr6VC0w
bVep4feTCUoaRtof07/f1CVw4WwAY44A5h9fxT4BhziVrfei+NYLNeo5TsY5TyuG
c9e+6DtnSf5T50NF8ZC3Kv7fS9pCur0ZXPV1asC+Og4A3tCL+JMLS9p32l27MiVk
36uEPue0rTxWoVTNIMEPpnD2zbjtOwwrWcreTdeCipXTi3WojSHFZIcnDflbYg3L
9pgTB2bwD+jD/mzufHdQdgYYcxpqUZ9ONIK6PQ6FT0HlpaEsFEaYy1RjQ4U2QJUM
FwLRKLHPr1SRJx+jmX/296X+v05O99Ud4wqM
-----END CERTIFICATE-----
