Certificate:
    Data:
        Version: 3 (0x2)
        Serial Number:
            87:ed:f6:ea:45:e5:30:75:cf:41:0c:2e:ed:19:6a:92
        Signature Algorithm: sha256WithRSAEncryption
        Issuer: CN=team55-net
        Validity
            Not Before: May 18 14:23:27 2022 GMT
            Not After : May  2 14:23:27 2025 GMT
        Subject: CN=team55-server
        Subject Public Key Info:
            Public Key Algorithm: rsaEncryption
                RSA Public-Key: (2048 bit)
                Modulus:
                    00:cf:14:b7:4e:6c:9a:1f:84:80:e4:52:0c:fa:a8:
                    39:21:13:de:1d:cd:4f:09:79:54:23:7d:e8:f1:bf:
                    b1:20:4e:7b:7f:66:b5:d1:c0:79:db:af:d0:3d:70:
                    75:ef:68:cb:c3:fe:41:1a:75:49:bd:77:77:81:91:
                    6a:2c:9a:93:47:bb:27:06:8e:49:1b:ee:77:55:d3:
                    9b:c5:f8:e6:b0:8c:0c:0a:54:f4:27:20:4d:39:d7:
                    e0:6d:1e:b8:ec:2a:90:06:5d:8a:55:57:ed:4a:48:
                    5b:7d:53:f2:50:29:f2:00:6f:11:6e:5b:35:c6:e9:
                    69:fb:60:49:b6:5c:ee:c4:4d:08:1d:03:a3:d8:25:
                    b1:c8:d5:a1:c3:22:3b:bf:f3:ee:3a:c7:16:e8:eb:
                    b4:06:2f:d5:49:36:28:52:d5:ed:59:b1:d4:35:91:
                    a7:c5:df:3e:ab:58:eb:c0:b4:06:4a:e7:64:56:22:
                    c0:4a:24:a4:99:d4:06:c7:52:26:8b:37:90:54:4a:
                    fa:46:df:c6:e8:6c:e6:3f:d0:c0:7b:dc:6a:7e:a3:
                    4d:e1:04:c5:8f:65:1a:d4:94:7a:6e:54:b0:41:5d:
                    9b:cc:7a:f8:48:82:f9:da:b4:b9:49:8e:5c:4a:e9:
                    97:30:0b:c8:c2:86:52:9c:dc:79:48:ed:92:92:5f:
                    47:81
                Exponent: 65537 (0x10001)
        X509v3 extensions:
            X509v3 Basic Constraints: 
                CA:FALSE
            X509v3 Subject Key Identifier: 
                71:E6:76:64:09:2E:28:63:AA:FD:C9:0D:D9:B7:6D:E1:43:70:29:A6
            X509v3 Authority Key Identifier: 
                keyid:6D:30:1C:04:A3:40:30:0C:63:6F:87:63:C1:B8:CB:4F:CF:0A:E3:2C
                DirName:/CN=team55-net
                serial:37:AF:32:D1:D9:2F:38:AE:42:61:2E:62:D9:8D:AE:EF:AD:6C:21:08

            X509v3 Extended Key Usage: 
                TLS Web Server Authentication
            X509v3 Key Usage: 
                Digital Signature, Key Encipherment
            X509v3 Subject Alternative Name: 
                DNS:team55-server
    Signature Algorithm: sha256WithRSAEncryption
         a6:0d:e3:b1:81:48:cb:d8:29:4d:04:e8:3c:cc:cd:94:e6:c3:
         19:cd:91:56:b7:e1:65:09:e9:68:c9:bf:59:c4:9d:ca:fa:61:
         04:2f:15:57:28:30:9b:c0:f6:41:f7:d5:6c:f6:1e:fd:16:1b:
         94:5a:bb:72:c9:aa:f5:1f:d8:3c:7e:e7:2e:4e:98:c5:b1:f3:
         ed:57:3e:66:86:43:ef:c3:1f:f0:32:cf:19:90:46:9e:bd:af:
         5a:d6:b4:83:17:d3:75:22:8a:8c:7f:ee:c8:ce:85:c1:2c:5c:
         b4:47:8c:06:6f:ed:0b:96:6c:8d:4f:70:82:2b:29:d3:8d:41:
         67:b6:7e:32:6c:36:dd:f6:45:a5:0c:df:c6:7e:11:d3:e1:39:
         69:24:bf:4c:b4:2e:65:55:72:1e:5b:49:bb:ce:5c:3d:31:09:
         d3:43:b5:9d:94:2f:b4:67:19:7f:3a:99:26:3e:af:b6:37:1b:
         90:33:e2:cf:65:12:bc:c8:f6:b3:88:59:63:69:a3:93:6f:6a:
         3e:fa:bf:10:6a:28:11:18:02:1f:a5:12:ef:42:cc:50:17:bd:
         d4:3f:ef:a3:8d:5f:de:be:8a:d3:cb:e3:37:28:35:94:12:2f:
         9c:9f:2e:bb:12:a7:b9:a0:2c:63:3d:f5:20:2a:f7:42:fc:6a:
         76:c6:96:38
-----BEGIN CERTIFICATE-----
MIIDdDCCAlygAwIBAgIRAIft9upF5TB1z0EMLu0ZapIwDQYJKoZIhvcNAQELBQAw
FTETMBEGA1UEAwwKdGVhbTU1LW5ldDAeFw0yMjA1MTgxNDIzMjdaFw0yNTA1MDIx
NDIzMjdaMBgxFjAUBgNVBAMMDXRlYW01NS1zZXJ2ZXIwggEiMA0GCSqGSIb3DQEB
AQUAA4IBDwAwggEKAoIBAQDPFLdObJofhIDkUgz6qDkhE94dzU8JeVQjfejxv7Eg
Tnt/ZrXRwHnbr9A9cHXvaMvD/kEadUm9d3eBkWosmpNHuycGjkkb7ndV05vF+Oaw
jAwKVPQnIE051+BtHrjsKpAGXYpVV+1KSFt9U/JQKfIAbxFuWzXG6Wn7YEm2XO7E
TQgdA6PYJbHI1aHDIju/8+46xxbo67QGL9VJNihS1e1ZsdQ1kafF3z6rWOvAtAZK
52RWIsBKJKSZ1AbHUiaLN5BUSvpG38bobOY/0MB73Gp+o03hBMWPZRrUlHpuVLBB
XZvMevhIgvnatLlJjlxK6ZcwC8jChlKc3HlI7ZKSX0eBAgMBAAGjgbswgbgwCQYD
VR0TBAIwADAdBgNVHQ4EFgQUceZ2ZAkuKGOq/ckN2bdt4UNwKaYwUAYDVR0jBEkw
R4AUbTAcBKNAMAxjb4djwbjLT88K4yyhGaQXMBUxEzARBgNVBAMMCnRlYW01NS1u
ZXSCFDevMtHZLziuQmEuYtmNru+tbCEIMBMGA1UdJQQMMAoGCCsGAQUFBwMBMAsG
A1UdDwQEAwIFoDAYBgNVHREEETAPgg10ZWFtNTUtc2VydmVyMA0GCSqGSIb3DQEB
CwUAA4IBAQCmDeOxgUjL2ClNBOg8zM2U5sMZzZFWt+FlCeloyb9ZxJ3K+mEELxVX
KDCbwPZB99Vs9h79FhuUWrtyyar1H9g8fucuTpjFsfPtVz5mhkPvwx/wMs8ZkEae
va9a1rSDF9N1IoqMf+7IzoXBLFy0R4wGb+0LlmyNT3CCKynTjUFntn4ybDbd9kWl
DN/GfhHT4TlpJL9MtC5lVXIeW0m7zlw9MQnTQ7WdlC+0Zxl/OpkmPq+2NxuQM+LP
ZRK8yPaziFljaaOTb2o++r8QaigRGAIfpRLvQsxQF73UP++jjV/evorTy+M3KDWU
Ei+cny67Eqe5oCxjPfUgKvdC/Gp2xpY4
-----END CERTIFICATE-----
