Certificate:
    Data:
        Version: 3 (0x2)
        Serial Number:
            03:ae:43:3b:ab:aa:e9:09:9a:4a:90:8e:66:d1:f3:e8
        Signature Algorithm: sha256WithRSAEncryption
        Issuer: CN=team653-net
        Validity
            Not Before: May 18 23:19:58 2022 GMT
            Not After : May  2 23:19:58 2025 GMT
        Subject: CN=team653-client
        Subject Public Key Info:
            Public Key Algorithm: rsaEncryption
                RSA Public-Key: (2048 bit)
                Modulus:
                    00:de:d3:2c:f0:86:3a:09:4f:ff:81:e9:85:63:f7:
                    06:e4:ab:46:61:58:65:fb:06:d9:f7:9b:d6:72:8f:
                    04:a3:cd:f0:15:8e:ab:62:37:13:00:5d:cf:a7:cf:
                    7d:77:61:96:e5:78:2b:8f:ef:90:fc:a7:d3:bf:b4:
                    19:3c:d9:d6:5b:82:b2:11:64:43:48:1f:f5:69:37:
                    af:db:4f:9b:45:29:9c:e7:5b:fb:e5:95:f0:b7:0a:
                    7b:3a:3a:ec:c0:89:4a:87:d7:b2:17:a3:47:c2:69:
                    62:50:6a:36:a7:03:1f:63:15:4e:cf:e9:58:66:11:
                    94:48:7d:e9:a9:33:b3:4e:fa:fa:ef:78:a9:5c:a4:
                    5c:93:6f:3e:9b:5a:93:d7:b2:b0:64:54:e8:54:de:
                    43:20:e0:ad:0a:62:46:fc:66:c3:d0:fe:37:e5:ac:
                    a8:21:2c:08:6e:2d:5f:83:3c:3e:99:44:f1:d7:f8:
                    4b:a5:c7:66:40:ae:5f:60:8e:6b:01:cf:55:ec:68:
                    d8:e1:00:8b:a4:e7:46:a0:56:f2:0c:62:fd:70:43:
                    45:e9:cb:40:24:ed:ce:63:5d:ec:2c:f4:09:f5:d7:
                    c8:dc:38:b4:3a:3a:47:12:a9:18:1b:f2:e4:0f:7c:
                    6b:58:e8:39:b3:da:ca:0c:59:5a:ad:62:79:53:ba:
                    a6:61
                Exponent: 65537 (0x10001)
        X509v3 extensions:
            X509v3 Basic Constraints: 
                CA:FALSE
            X509v3 Subject Key Identifier: 
                B9:01:30:CC:BD:4F:18:EC:08:EA:F9:CF:37:99:60:5F:A8:9B:0B:35
            X509v3 Authority Key Identifier: 
                keyid:2C:F9:C7:BB:B2:5C:E5:F8:C1:9C:FC:C2:73:5B:7E:11:B8:A9:6A:68
                DirName:/CN=team653-net
                serial:15:5F:CB:89:21:DE:6A:F9:C8:49:97:CB:83:B0:66:62:92:FC:C4:04

            X509v3 Extended Key Usage: 
                TLS Web Client Authentication
            X509v3 Key Usage: 
                Digital Signature
    Signature Algorithm: sha256WithRSAEncryption
         27:84:7f:58:8b:bb:18:17:4d:a7:a9:e2:d8:57:66:17:5e:93:
         87:de:ab:4c:ef:42:b3:1f:4a:bf:a0:ee:78:bf:32:2d:a1:64:
         01:91:fe:dc:a4:24:6d:92:47:4b:0c:5b:08:8c:a5:92:aa:5d:
         7d:2c:e9:5b:e0:dc:56:b4:1e:aa:f8:1c:c8:e9:e2:c3:07:dd:
         1b:e0:c5:33:c2:45:cc:08:b3:0a:22:55:d3:91:01:66:b5:30:
         01:04:7b:cb:98:40:61:f7:5f:47:e8:29:dc:54:54:6c:0c:aa:
         1c:69:f2:0e:ad:3a:98:3d:86:bd:04:a9:c3:d0:e6:49:f7:af:
         18:4d:c5:2e:d3:bc:e7:f0:a1:90:20:f5:f7:8a:1b:1b:28:a5:
         83:3a:9e:06:53:0d:41:d1:a1:70:a0:07:a9:52:ec:23:90:2c:
         9e:70:c0:03:ee:8c:da:cd:d4:4d:41:24:a2:99:d4:1e:8a:bc:
         82:d4:19:96:78:c5:4c:3b:ec:cc:93:64:b9:2f:3b:42:79:e8:
         97:63:eb:7f:5f:b0:73:85:5e:7b:b9:da:a5:9f:b2:15:3d:4b:
         1c:84:9c:60:14:db:52:98:ba:4d:73:60:b5:fe:95:0f:ca:f5:
         59:3a:55:a6:f6:35:a7:7d:48:0a:35:05:a9:d9:57:c0:aa:00:
         9d:2c:48:ce
-----BEGIN CERTIFICATE-----
MIIDXDCCAkSgAwIBAgIQA65DO6uq6QmaSpCOZtHz6DANBgkqhkiG9w0BAQsFADAW
MRQwEgYDVQQDDAt0ZWFtNjUzLW5ldDAeFw0yMjA1MTgyMzE5NThaFw0yNTA1MDIy
MzE5NThaMBkxFzAVBgNVBAMMDnRlYW02NTMtY2xpZW50MIIBIjANBgkqhkiG9w0B
AQEFAAOCAQ8AMIIBCgKCAQEA3tMs8IY6CU//gemFY/cG5KtGYVhl+wbZ95vWco8E
o83wFY6rYjcTAF3Pp899d2GW5Xgrj++Q/KfTv7QZPNnWW4KyEWRDSB/1aTev20+b
RSmc51v75ZXwtwp7OjrswIlKh9eyF6NHwmliUGo2pwMfYxVOz+lYZhGUSH3pqTOz
Tvr673ipXKRck28+m1qT17KwZFToVN5DIOCtCmJG/GbD0P435ayoISwIbi1fgzw+
mUTx1/hLpcdmQK5fYI5rAc9V7GjY4QCLpOdGoFbyDGL9cENF6ctAJO3OY13sLPQJ
9dfI3Di0OjpHEqkYG/LkD3xrWOg5s9rKDFlarWJ5U7qmYQIDAQABo4GiMIGfMAkG
A1UdEwQCMAAwHQYDVR0OBBYEFLkBMMy9TxjsCOr5zzeZYF+omws1MFEGA1UdIwRK
MEiAFCz5x7uyXOX4wZz8wnNbfhG4qWpooRqkGDAWMRQwEgYDVQQDDAt0ZWFtNjUz
LW5ldIIUFV/LiSHeavnISZfLg7BmYpL8xAQwEwYDVR0lBAwwCgYIKwYBBQUHAwIw
CwYDVR0PBAQDAgeAMA0GCSqGSIb3DQEBCwUAA4IBAQAnhH9Yi7sYF02nqeLYV2YX
XpOH3qtM70KzH0q/oO54vzItoWQBkf7cpCRtkkdLDFsIjKWSql19LOlb4NxWtB6q
+BzI6eLDB90b4MUzwkXMCLMKIlXTkQFmtTABBHvLmEBh919H6CncVFRsDKocafIO
rTqYPYa9BKnD0OZJ968YTcUu07zn8KGQIPX3ihsbKKWDOp4GUw1B0aFwoAepUuwj
kCyecMAD7ozazdRNQSSimdQeiryC1BmWeMVMO+zMk2S5LztCeeiXY+t/X7BzhV57
udqln7IVPUschJxgFNtSmLpNc2C1/pUPyvVZOlWm9jWnfUgKNQWp2VfAqgCdLEjO
-----END CERTIFICATE-----
