Certificate:
    Data:
        Version: 3 (0x2)
        Serial Number:
            4e:d8:f9:e2:78:88:19:7c:20:2f:81:76:f2:a3:e8:52
        Signature Algorithm: sha256WithRSAEncryption
        Issuer: CN=team600-net
        Validity
            Not Before: May 18 22:50:38 2022 GMT
            Not After : May  2 22:50:38 2025 GMT
        Subject: CN=team600-client
        Subject Public Key Info:
            Public Key Algorithm: rsaEncryption
                RSA Public-Key: (2048 bit)
                Modulus:
                    00:f6:3a:72:e5:a0:34:7c:4b:1f:34:ce:a1:49:49:
                    82:3f:d9:84:08:55:70:44:93:11:87:4e:d5:1c:70:
                    79:ab:0d:24:8c:ae:c2:22:97:bd:90:50:56:fa:c1:
                    d4:9d:d6:d5:76:44:f0:21:b6:11:f8:06:bb:48:59:
                    9b:8d:57:ac:1e:92:1c:23:98:61:4a:8a:21:e3:4e:
                    bf:18:1a:1f:f0:2f:45:42:83:df:15:64:f6:e2:3c:
                    2f:6d:fc:99:21:e2:48:c5:ac:3f:6f:55:7b:46:03:
                    f6:0d:ae:19:b2:42:16:3a:d1:6f:41:e8:c2:f4:c2:
                    dc:4a:3b:8a:9d:f0:58:b1:b3:5e:ac:e7:a7:63:b8:
                    bd:57:0b:9a:cd:92:90:05:d5:b9:21:b8:14:7d:55:
                    39:fb:44:a9:77:6c:f6:13:aa:39:7a:4c:b4:61:ea:
                    01:5e:07:bb:b1:da:8c:e6:8a:cf:67:58:e1:a0:28:
                    91:a6:a8:fa:9f:b1:5a:52:88:3b:b0:6c:df:f9:58:
                    49:43:21:e2:64:3f:e3:5d:df:29:f3:21:97:f3:01:
                    45:41:86:84:0b:49:1b:d5:06:da:c3:b8:12:8e:61:
                    21:33:9c:41:68:34:68:52:42:53:8c:c7:d2:6f:2a:
                    65:e7:1c:6d:1d:ba:b2:9f:0c:4c:f6:94:f3:b1:54:
                    bd:b7
                Exponent: 65537 (0x10001)
        X509v3 extensions:
            X509v3 Basic Constraints: 
                CA:FALSE
            X509v3 Subject Key Identifier: 
                FB:21:44:55:9F:11:43:78:A8:E0:9B:D5:C6:43:A8:B3:CB:65:E7:CC
            X509v3 Authority Key Identifier: 
                keyid:75:A1:78:15:DD:52:60:D5:18:80:6F:70:BA:DE:08:48:CA:06:DF:D5
                DirName:/CN=team600-net
                serial:3B:7F:0A:AE:16:ED:71:BE:F2:C1:73:8A:0D:E1:0B:C5:1B:A4:27:63

            X509v3 Extended Key Usage: 
                TLS Web Client Authentication
            X509v3 Key Usage: 
                Digital Signature
    Signature Algorithm: sha256WithRSAEncryption
         7d:55:a9:7a:71:7a:d4:ee:fd:4d:19:1f:a0:81:ce:e1:d9:06:
         d0:d7:4a:70:68:f0:64:dd:39:06:fd:3b:5e:75:a2:e3:6f:56:
         20:a3:a2:d0:bc:75:8b:e8:81:65:6c:00:27:4b:10:9f:cf:80:
         26:4e:68:ac:ef:18:b1:49:29:33:f3:d9:bb:af:29:8b:20:86:
         0e:77:b6:30:ce:e8:28:c0:bc:f4:d2:54:e9:03:77:c6:b8:9d:
         1d:f9:20:2e:a4:04:2b:45:70:38:28:11:87:c4:48:44:bc:af:
         77:fb:7a:a0:0b:3b:50:7d:9b:b9:13:83:96:af:5b:a9:46:8a:
         a9:0e:80:03:83:5a:2e:f7:66:20:7e:64:3c:61:0f:d7:28:c9:
         36:0d:cd:0b:92:1b:4c:db:90:51:d2:59:eb:eb:ef:d8:28:41:
         ba:6b:56:0e:7b:0e:83:db:40:72:d0:51:27:fc:f9:5e:0a:89:
         e7:e2:33:6e:e2:cf:44:c0:4f:b1:5f:85:b6:61:f1:dc:f3:9f:
         8c:6a:d2:40:4e:b8:60:dc:1b:dc:8a:25:e5:88:3f:23:f9:d5:
         12:20:3d:4b:17:77:f5:60:97:ad:82:2b:97:14:46:34:d9:49:
         1a:dc:12:51:3f:0c:4e:36:96:78:06:e5:e0:50:91:68:50:bc:
         c4:82:9c:11
-----BEGIN CERTIFICATE-----
MIIDXDCCAkSgAwIBAgIQTtj54niIGXwgL4F28qPoUjANBgkqhkiG9w0BAQsFADAW
MRQwEgYDVQQDDAt0ZWFtNjAwLW5ldDAeFw0yMjA1MTgyMjUwMzhaFw0yNTA1MDIy
MjUwMzhaMBkxFzAVBgNVBAMMDnRlYW02MDAtY2xpZW50MIIBIjANBgkqhkiG9w0B
AQEFAAOCAQ8AMIIBCgKCAQEA9jpy5aA0fEsfNM6hSUmCP9mECFVwRJMRh07VHHB5
qw0kjK7CIpe9kFBW+sHUndbVdkTwIbYR+Aa7SFmbjVesHpIcI5hhSooh406/GBof
8C9FQoPfFWT24jwvbfyZIeJIxaw/b1V7RgP2Da4ZskIWOtFvQejC9MLcSjuKnfBY
sbNerOenY7i9VwuazZKQBdW5IbgUfVU5+0Spd2z2E6o5eky0YeoBXge7sdqM5orP
Z1jhoCiRpqj6n7FaUog7sGzf+VhJQyHiZD/jXd8p8yGX8wFFQYaEC0kb1Qbaw7gS
jmEhM5xBaDRoUkJTjMfSbypl5xxtHbqynwxM9pTzsVS9twIDAQABo4GiMIGfMAkG
A1UdEwQCMAAwHQYDVR0OBBYEFPshRFWfEUN4qOCb1cZDqLPLZefMMFEGA1UdIwRK
MEiAFHWheBXdUmDVGIBvcLreCEjKBt/VoRqkGDAWMRQwEgYDVQQDDAt0ZWFtNjAw
LW5ldIIUO38Krhbtcb7ywXOKDeELxRukJ2MwEwYDVR0lBAwwCgYIKwYBBQUHAwIw
CwYDVR0PBAQDAgeAMA0GCSqGSIb3DQEBCwUAA4IBAQB9Val6cXrU7v1NGR+ggc7h
2QbQ10pwaPBk3TkG/TtedaLjb1Ygo6LQvHWL6IFlbAAnSxCfz4AmTmis7xixSSkz
89m7rymLIIYOd7YwzugowLz00lTpA3fGuJ0d+SAupAQrRXA4KBGHxEhEvK93+3qg
CztQfZu5E4OWr1upRoqpDoADg1ou92YgfmQ8YQ/XKMk2Dc0LkhtM25BR0lnr6+/Y
KEG6a1YOew6D20By0FEn/PleConn4jNu4s9EwE+xX4W2YfHc85+MatJATrhg3Bvc
iiXliD8j+dUSID1LF3f1YJetgiuXFEY02Uka3BJRPwxONpZ4BuXgUJFoULzEgpwR
-----END CERTIFICATE-----
