Certificate:
    Data:
        Version: 3 (0x2)
        Serial Number:
            42:40:57:cd:2e:21:96:8a:ba:d9:b8:7f:8b:84:ac:fd
        Signature Algorithm: sha256WithRSAEncryption
        Issuer: CN=team409-net
        Validity
            Not Before: May 18 20:52:50 2022 GMT
            Not After : May  2 20:52:50 2025 GMT
        Subject: CN=team409-client
        Subject Public Key Info:
            Public Key Algorithm: rsaEncryption
                RSA Public-Key: (2048 bit)
                Modulus:
                    00:e2:e2:20:e3:af:5f:53:91:30:ce:80:44:f4:df:
                    46:3f:41:e9:eb:c4:9c:fc:64:3f:04:a7:74:46:af:
                    ba:cf:c1:96:f2:8a:67:7b:53:54:5c:24:a5:52:97:
                    8d:f8:98:ff:2e:68:23:ec:97:e8:ae:16:88:b1:dc:
                    fb:6f:24:60:44:4a:7b:57:74:54:98:66:d0:31:0f:
                    99:be:58:9f:16:55:ea:96:fe:e2:89:70:3d:5c:a7:
                    a7:30:1f:19:ca:5a:c6:1e:2b:09:cb:10:fb:0a:90:
                    4d:a2:84:50:78:1c:30:71:27:8a:ac:28:02:c8:60:
                    ea:0e:1a:51:70:c1:40:ec:d9:b6:79:9a:13:7e:9c:
                    3a:da:23:2a:25:29:15:b0:a3:cd:14:1a:0c:4d:b0:
                    f8:14:26:da:09:18:ed:ff:d7:6e:df:24:a7:5f:87:
                    00:56:f4:8a:c7:03:fa:a3:00:98:b4:3a:20:eb:97:
                    c2:7c:7c:e2:af:79:fb:51:8d:73:09:5b:e1:ef:74:
                    33:f4:8e:a1:ee:5b:89:53:4b:fb:41:5f:cd:90:19:
                    e9:5b:13:17:db:e4:1b:9a:fd:3b:b6:d0:9f:82:27:
                    86:cf:4c:21:e1:62:b8:3d:c5:7e:57:28:d0:d0:d1:
                    21:c7:a8:a6:20:4e:36:62:3c:cf:ec:a1:31:12:13:
                    a1:37
                Exponent: 65537 (0x10001)
        X509v3 extensions:
            X509v3 Basic Constraints: 
                CA:FALSE
            X509v3 Subject Key Identifier: 
                E5:17:3D:9F:E6:26:19:53:DD:4E:AD:B5:3B:EF:C8:4C:C4:79:B4:A6
            X509v3 Authority Key Identifier: 
                keyid:35:DB:09:50:50:1E:70:F4:7D:C0:22:D7:C5:C7:02:B5:7E:B7:C2:C0
                DirName:/CN=team409-net
                serial:1A:5E:CD:2F:08:74:86:6E:11:92:76:90:F2:F4:9C:FF:0B:D7:D3:22

            X509v3 Extended Key Usage: 
                TLS Web Client Authentication
            X509v3 Key Usage: 
                Digital Signature
    Signature Algorithm: sha256WithRSAEncryption
         34:f4:73:8c:66:e8:76:59:bc:82:a2:88:fb:65:a8:c6:06:63:
         f9:96:0c:2d:82:03:ea:b0:12:70:52:cd:39:6d:ac:09:b2:c3:
         5e:0c:d7:1f:91:5e:d6:9f:a2:10:01:47:cb:08:01:9b:a1:75:
         50:ba:fb:3e:07:c4:75:02:55:4a:14:34:0a:75:81:3d:04:9a:
         07:58:6e:1a:35:46:7b:73:75:1a:57:1b:6a:33:3a:1b:f4:5b:
         33:76:ab:96:e2:01:f3:ef:01:a5:8f:7b:1b:78:1e:75:84:22:
         0c:45:21:53:0f:5e:7c:93:05:de:f4:69:4f:1c:7b:98:46:cc:
         6d:31:f3:9b:bb:58:69:b4:05:20:66:29:4c:9a:f2:54:97:3b:
         6c:a2:7a:e9:bc:65:8a:10:e3:f7:b6:42:c8:c1:f6:4c:5c:14:
         20:94:23:51:13:be:e8:ce:ce:d5:7c:ef:bb:c1:ae:7f:d8:f8:
         de:6b:f8:bb:68:d6:ba:5e:81:c1:a1:08:9b:85:0f:db:ba:69:
         94:10:94:12:9e:e6:a5:0e:0b:c0:a9:d4:d2:08:38:02:04:81:
         ea:b3:f5:4b:05:a9:48:0a:4b:dc:47:29:a9:21:91:4f:33:a7:
         a8:0c:cc:dc:ce:1e:c2:e8:8e:33:4f:13:45:34:5b:63:6f:e6:
         d2:84:54:d9
-----BEGIN CERTIFICATE-----
MIIDXDCCAkSgAwIBAgIQQkBXzS4hloq62bh/i4Ss/TANBgkqhkiG9w0BAQsFADAW
MRQwEgYDVQQDDAt0ZWFtNDA5LW5ldDAeFw0yMjA1MTgyMDUyNTBaFw0yNTA1MDIy
MDUyNTBaMBkxFzAVBgNVBAMMDnRlYW00MDktY2xpZW50MIIBIjANBgkqhkiG9w0B
AQEFAAOCAQ8AMIIBCgKCAQEA4uIg469fU5EwzoBE9N9GP0Hp68Sc/GQ/BKd0Rq+6
z8GW8opne1NUXCSlUpeN+Jj/Lmgj7JforhaIsdz7byRgREp7V3RUmGbQMQ+Zvlif
FlXqlv7iiXA9XKenMB8ZylrGHisJyxD7CpBNooRQeBwwcSeKrCgCyGDqDhpRcMFA
7Nm2eZoTfpw62iMqJSkVsKPNFBoMTbD4FCbaCRjt/9du3ySnX4cAVvSKxwP6owCY
tDog65fCfHzir3n7UY1zCVvh73Qz9I6h7luJU0v7QV/NkBnpWxMX2+Qbmv07ttCf
gieGz0wh4WK4PcV+VyjQ0NEhx6imIE42YjzP7KExEhOhNwIDAQABo4GiMIGfMAkG
A1UdEwQCMAAwHQYDVR0OBBYEFOUXPZ/mJhlT3U6ttTvvyEzEebSmMFEGA1UdIwRK
MEiAFDXbCVBQHnD0fcAi18XHArV+t8LAoRqkGDAWMRQwEgYDVQQDDAt0ZWFtNDA5
LW5ldIIUGl7NLwh0hm4RknaQ8vSc/wvX0yIwEwYDVR0lBAwwCgYIKwYBBQUHAwIw
CwYDVR0PBAQDAgeAMA0GCSqGSIb3DQEBCwUAA4IBAQA09HOMZuh2WbyCooj7ZajG
BmP5lgwtggPqsBJwUs05bawJssNeDNcfkV7Wn6IQAUfLCAGboXVQuvs+B8R1AlVK
FDQKdYE9BJoHWG4aNUZ7c3UaVxtqMzob9FszdquW4gHz7wGlj3sbeB51hCIMRSFT
D158kwXe9GlPHHuYRsxtMfObu1hptAUgZilMmvJUlztsonrpvGWKEOP3tkLIwfZM
XBQglCNRE77ozs7VfO+7wa5/2Pjea/i7aNa6XoHBoQibhQ/bummUEJQSnualDgvA
qdTSCDgCBIHqs/VLBalICkvcRympIZFPM6eoDMzczh7C6I4zTxNFNFtjb+bShFTZ
-----END CERTIFICATE-----
