Certificate:
    Data:
        Version: 3 (0x2)
        Serial Number:
            c6:bd:2e:b6:fe:b6:af:16:5a:a2:5d:24:19:73:15:f8
        Signature Algorithm: sha256WithRSAEncryption
        Issuer: CN=team409-net
        Validity
            Not Before: May 18 20:52:50 2022 GMT
            Not After : May  2 20:52:50 2025 GMT
        Subject: CN=team409-server
        Subject Public Key Info:
            Public Key Algorithm: rsaEncryption
                RSA Public-Key: (2048 bit)
                Modulus:
                    00:bf:be:22:24:2e:0a:49:e7:fc:25:ca:74:7a:1e:
                    33:71:3d:c1:4e:01:e9:0b:b7:43:74:e7:df:6d:9e:
                    ae:9f:b9:70:30:9a:87:6d:45:09:f4:b4:a6:72:b7:
                    4c:31:50:0b:70:3b:46:ba:85:b2:b4:1c:01:a8:a0:
                    e9:c0:71:f5:df:3c:c9:a4:54:7f:45:ee:d5:c6:d7:
                    80:e0:46:03:40:9b:a2:fb:12:2f:6d:e6:6f:8a:6b:
                    fa:ab:d3:01:81:63:a4:64:7e:83:f6:7c:25:67:87:
                    16:fd:b7:9e:e7:c5:bc:94:e8:9a:91:cb:0a:ed:5f:
                    c8:93:49:23:16:a5:c3:fb:e7:7b:02:a6:a3:35:0f:
                    b9:48:6e:e9:49:de:23:de:be:9a:7a:73:0b:1a:89:
                    0d:80:da:55:6e:0d:d6:27:21:19:39:90:11:65:0c:
                    fa:73:1a:1e:82:e9:bb:74:f0:2a:77:cd:08:d2:6e:
                    20:15:b0:ff:eb:9e:9c:8a:fc:69:6b:00:1a:1e:fc:
                    c1:49:a8:89:f7:81:66:24:02:28:59:36:ac:7b:79:
                    99:dc:ce:b3:5b:66:29:5d:61:4a:d6:61:c5:5a:09:
                    00:8a:b6:b8:99:ed:d8:57:f2:00:89:30:c0:0f:a9:
                    f1:0e:23:7b:d1:fe:14:28:dd:8e:31:5f:41:d2:b1:
                    1c:fb
                Exponent: 65537 (0x10001)
        X509v3 extensions:
            X509v3 Basic Constraints: 
                CA:FALSE
            X509v3 Subject Key Identifier: 
                1F:79:4D:13:C9:DB:E2:BF:5C:19:37:2E:91:ED:AC:0D:0A:A6:3E:9D
            X509v3 Authority Key Identifier: 
                keyid:35:DB:09:50:50:1E:70:F4:7D:C0:22:D7:C5:C7:02:B5:7E:B7:C2:C0
                DirName:/CN=team409-net
                serial:1A:5E:CD:2F:08:74:86:6E:11:92:76:90:F2:F4:9C:FF:0B:D7:D3:22

            X509v3 Extended Key Usage: 
                TLS Web Server Authentication
            X509v3 Key Usage: 
                Digital Signature, Key Encipherment
            X509v3 Subject Alternative Name: 
                DNS:team409-server
    Signature Algorithm: sha256WithRSAEncryption
         14:e2:db:74:c4:1e:af:43:69:15:f0:84:d8:d8:33:5d:e2:7b:
         bc:c7:8b:fb:f6:89:83:f5:32:67:ba:59:02:fb:c0:90:88:cc:
         69:06:57:9b:06:2f:a6:bb:a5:04:89:cf:d3:f4:61:6a:a5:e0:
         1e:22:5b:08:52:c8:2c:c1:50:4d:c3:79:b9:1f:be:56:10:59:
         14:e0:82:fc:9d:20:2c:14:1a:8b:5a:d2:b8:61:fb:ad:c1:be:
         39:4f:be:cb:d3:22:0c:3c:95:3d:20:5c:f7:dd:cd:4b:ae:7f:
         6f:f2:3a:f4:6d:8d:dc:26:41:94:ac:5c:84:dc:00:f0:fc:9e:
         59:1c:11:ef:16:e5:61:2f:4a:5d:82:00:a4:73:59:dc:fb:87:
         8e:80:e6:3c:40:d4:60:f1:1b:45:95:4c:2e:7f:df:36:6d:07:
         60:9f:c4:18:ec:89:98:b7:a6:34:a8:43:d7:b1:e6:6a:a2:1e:
         61:84:f2:cc:03:90:32:65:e9:b9:0d:8e:63:d9:03:42:dd:e2:
         10:1a:44:a0:f8:53:26:1f:8f:ee:fa:78:31:2a:d5:13:9e:74:
         8f:e3:f5:a8:2b:6e:18:e2:c7:d1:15:97:e0:ff:00:1c:c8:3b:
         bf:5e:22:ca:12:18:ad:7d:1a:29:d5:65:ed:25:80:68:56:c5:
         f2:6e:06:79
-----BEGIN CERTIFICATE-----
MIIDeDCCAmCgAwIBAgIRAMa9Lrb+tq8WWqJdJBlzFfgwDQYJKoZIhvcNAQELBQAw
FjEUMBIGA1UEAwwLdGVhbTQwOS1uZXQwHhcNMjIwNTE4MjA1MjUwWhcNMjUwNTAy
MjA1MjUwWjAZMRcwFQYDVQQDDA50ZWFtNDA5LXNlcnZlcjCCASIwDQYJKoZIhvcN
AQEBBQADggEPADCCAQoCggEBAL++IiQuCknn/CXKdHoeM3E9wU4B6Qu3Q3Tn322e
rp+5cDCah21FCfS0pnK3TDFQC3A7RrqFsrQcAaig6cBx9d88yaRUf0Xu1cbXgOBG
A0CbovsSL23mb4pr+qvTAYFjpGR+g/Z8JWeHFv23nufFvJTompHLCu1fyJNJIxal
w/vnewKmozUPuUhu6UneI96+mnpzCxqJDYDaVW4N1ichGTmQEWUM+nMaHoLpu3Tw
KnfNCNJuIBWw/+uenIr8aWsAGh78wUmoifeBZiQCKFk2rHt5mdzOs1tmKV1hStZh
xVoJAIq2uJnt2FfyAIkwwA+p8Q4je9H+FCjdjjFfQdKxHPsCAwEAAaOBvTCBujAJ
BgNVHRMEAjAAMB0GA1UdDgQWBBQfeU0Tydviv1wZNy6R7awNCqY+nTBRBgNVHSME
SjBIgBQ12wlQUB5w9H3AItfFxwK1frfCwKEapBgwFjEUMBIGA1UEAwwLdGVhbTQw
OS1uZXSCFBpezS8IdIZuEZJ2kPL0nP8L19MiMBMGA1UdJQQMMAoGCCsGAQUFBwMB
MAsGA1UdDwQEAwIFoDAZBgNVHREEEjAQgg50ZWFtNDA5LXNlcnZlcjANBgkqhkiG
9w0BAQsFAAOCAQEAFOLbdMQer0NpFfCE2NgzXeJ7vMeL+/aJg/UyZ7pZAvvAkIjM
aQZXmwYvprulBInP0/RhaqXgHiJbCFLILMFQTcN5uR++VhBZFOCC/J0gLBQai1rS
uGH7rcG+OU++y9MiDDyVPSBc993NS65/b/I69G2N3CZBlKxchNwA8PyeWRwR7xbl
YS9KXYIApHNZ3PuHjoDmPEDUYPEbRZVMLn/fNm0HYJ/EGOyJmLemNKhD17HmaqIe
YYTyzAOQMmXpuQ2OY9kDQt3iEBpEoPhTJh+P7vp4MSrVE550j+P1qCtuGOLH0RWX
4P8AHMg7v14iyhIYrX0aKdVl7SWAaFbF8m4GeQ==
-----END CERTIFICATE-----
