Certificate:
    Data:
        Version: 3 (0x2)
        Serial Number:
            47:21:b5:6a:fb:b2:70:10:e6:28:3b:95:35:43:35:50
        Signature Algorithm: sha256WithRSAEncryption
        Issuer: CN=team586-net
        Validity
            Not Before: May 18 22:38:55 2022 GMT
            Not After : May  2 22:38:55 2025 GMT
        Subject: CN=team586-server
        Subject Public Key Info:
            Public Key Algorithm: rsaEncryption
                RSA Public-Key: (2048 bit)
                Modulus:
                    00:c4:8e:5d:9f:b6:2b:29:37:d1:aa:cf:20:a8:95:
                    cc:5a:f2:70:49:ac:f3:ef:b3:0f:c6:9c:e1:ae:7f:
                    5c:b5:3d:08:14:8d:ac:ee:b1:0f:f3:f9:34:05:ac:
                    e0:46:67:95:7b:07:a1:46:29:96:34:32:c2:7d:71:
                    5f:4a:65:5b:a4:65:03:50:96:ea:c0:48:2f:4f:87:
                    49:b4:ce:13:30:59:ec:af:85:2a:46:39:a9:31:d7:
                    39:89:1d:97:37:8e:20:cd:e2:a3:87:be:58:6d:a3:
                    e8:18:7e:97:f8:03:46:55:68:73:04:4c:d5:54:99:
                    2f:21:45:99:78:af:78:bd:01:ee:15:02:3d:8b:d1:
                    a9:8d:a0:65:70:f9:b6:75:c7:ed:98:39:f4:f5:bf:
                    b8:d8:2c:f0:56:1e:1b:70:40:d5:e9:be:d2:ff:ad:
                    58:c3:f3:e3:a1:e8:44:21:76:28:38:3f:ff:12:9e:
                    8f:9a:e4:03:53:25:51:0d:bf:7b:24:ed:56:f8:f8:
                    f7:ec:d1:65:6a:db:bc:6f:4b:2a:06:2e:a0:49:93:
                    93:85:f3:ab:f6:52:70:2f:5e:bc:8a:8a:fe:d0:11:
                    85:fb:f2:e1:ee:0a:af:45:c4:4b:8b:0b:6d:82:07:
                    7b:5f:99:40:4b:6c:53:ac:e8:67:05:8c:8b:00:bc:
                    a0:25
                Exponent: 65537 (0x10001)
        X509v3 extensions:
            X509v3 Basic Constraints: 
                CA:FALSE
            X509v3 Subject Key Identifier: 
                5C:92:7A:19:53:90:A9:23:F0:FF:71:62:6F:00:22:03:F5:EC:F5:BE
            X509v3 Authority Key Identifier: 
                keyid:66:53:2F:5A:86:90:7D:5E:FD:24:F9:A9:70:42:90:82:2A:FE:41:67
                DirName:/CN=team586-net
                serial:33:99:1A:30:F8:93:52:33:1C:11:7F:D2:AB:B9:13:FD:AC:7D:F8:5C

            X509v3 Extended Key Usage: 
                TLS Web Server Authentication
            X509v3 Key Usage: 
                Digital Signature, Key Encipherment
            X509v3 Subject Alternative Name: 
                DNS:team586-server
    Signature Algorithm: sha256WithRSAEncryption
         b5:72:98:4f:c5:d1:da:e5:2c:10:22:d8:f9:df:72:07:a5:cb:
         c9:e0:1a:9e:e5:88:89:71:cf:d6:2b:c4:7a:fb:2f:3d:56:f7:
         3b:9c:48:27:d1:c4:b8:ec:e1:d3:ab:9f:3f:ce:25:55:bb:e4:
         b7:64:3e:9f:59:21:4b:28:ec:1c:e5:54:df:22:66:69:aa:31:
         22:12:de:2b:cd:eb:f7:97:d2:c4:1e:c8:f4:c7:94:09:59:f9:
         89:99:b4:54:39:24:20:28:f7:a9:39:27:a7:68:58:71:89:5f:
         c8:9a:ad:c7:7c:ea:a6:3e:16:38:42:c2:48:2b:6e:9a:b2:47:
         9e:83:8e:d6:1c:79:c9:75:99:97:a1:4e:40:ba:58:ce:ba:58:
         9c:91:11:fe:d6:c1:86:5f:b9:19:76:57:16:cd:86:4e:b9:85:
         8a:ff:a5:b6:85:d8:fb:9b:db:7f:cb:3c:8b:e9:94:c8:ae:40:
         00:82:b0:3b:6e:df:39:e1:c0:35:cf:23:ea:a7:cb:44:89:79:
         a1:84:ba:70:ae:23:d1:9e:0a:6f:9c:52:d0:57:76:27:76:66:
         48:81:0f:da:ab:87:e6:55:57:b7:0e:6f:9c:ab:21:5d:01:4a:
         07:ec:53:a8:89:67:df:34:14:62:37:be:4a:d1:71:6b:91:9e:
         a4:7f:3c:f9
-----BEGIN CERTIFICATE-----
MIIDdzCCAl+gAwIBAgIQRyG1avuycBDmKDuVNUM1UDANBgkqhkiG9w0BAQsFADAW
MRQwEgYDVQQDDAt0ZWFtNTg2LW5ldDAeFw0yMjA1MTgyMjM4NTVaFw0yNTA1MDIy
MjM4NTVaMBkxFzAVBgNVBAMMDnRlYW01ODYtc2VydmVyMIIBIjANBgkqhkiG9w0B
AQEFAAOCAQ8AMIIBCgKCAQEAxI5dn7YrKTfRqs8gqJXMWvJwSazz77MPxpzhrn9c
tT0IFI2s7rEP8/k0BazgRmeVewehRimWNDLCfXFfSmVbpGUDUJbqwEgvT4dJtM4T
MFnsr4UqRjmpMdc5iR2XN44gzeKjh75YbaPoGH6X+ANGVWhzBEzVVJkvIUWZeK94
vQHuFQI9i9GpjaBlcPm2dcftmDn09b+42CzwVh4bcEDV6b7S/61Yw/PjoehEIXYo
OD//Ep6PmuQDUyVRDb97JO1W+Pj37NFlatu8b0sqBi6gSZOThfOr9lJwL168ior+
0BGF+/Lh7gqvRcRLiwttggd7X5lAS2xTrOhnBYyLALygJQIDAQABo4G9MIG6MAkG
A1UdEwQCMAAwHQYDVR0OBBYEFFySehlTkKkj8P9xYm8AIgP17PW+MFEGA1UdIwRK
MEiAFGZTL1qGkH1e/ST5qXBCkIIq/kFnoRqkGDAWMRQwEgYDVQQDDAt0ZWFtNTg2
LW5ldIIUM5kaMPiTUjMcEX/Sq7kT/ax9+FwwEwYDVR0lBAwwCgYIKwYBBQUHAwEw
CwYDVR0PBAQDAgWgMBkGA1UdEQQSMBCCDnRlYW01ODYtc2VydmVyMA0GCSqGSIb3
DQEBCwUAA4IBAQC1cphPxdHa5SwQItj533IHpcvJ4Bqe5YiJcc/WK8R6+y89Vvc7
nEgn0cS47OHTq58/ziVVu+S3ZD6fWSFLKOwc5VTfImZpqjEiEt4rzev3l9LEHsj0
x5QJWfmJmbRUOSQgKPepOSenaFhxiV/Imq3HfOqmPhY4QsJIK26askeeg47WHHnJ
dZmXoU5AuljOulickRH+1sGGX7kZdlcWzYZOuYWK/6W2hdj7m9t/yzyL6ZTIrkAA
grA7bt854cA1zyPqp8tEiXmhhLpwriPRngpvnFLQV3YndmZIgQ/aq4fmVVe3Dm+c
qyFdAUoH7FOoiWffNBRiN75K0XFrkZ6kfzz5
-----END CERTIFICATE-----
