Certificate:
    Data:
        Version: 3 (0x2)
        Serial Number:
            d3:f0:8f:f6:c0:d3:7c:ad:dd:52:16:f5:44:ab:9f:d2
        Signature Algorithm: sha256WithRSAEncryption
        Issuer: CN=team107-net
        Validity
            Not Before: May 18 14:55:40 2022 GMT
            Not After : May  2 14:55:40 2025 GMT
        Subject: CN=team107-server
        Subject Public Key Info:
            Public Key Algorithm: rsaEncryption
                RSA Public-Key: (2048 bit)
                Modulus:
                    00:c6:2b:34:ff:ea:ce:e6:08:76:b8:2d:d9:5f:15:
                    2f:1a:8a:3b:36:49:f7:1d:4b:40:4c:d9:b6:dc:f5:
                    ba:c5:b4:6d:3d:7b:51:ec:3e:b9:5a:b8:8f:d4:50:
                    74:70:c4:c3:d5:9d:36:5c:7d:a1:cf:a4:fe:4f:59:
                    c3:a6:a6:d1:d1:06:ef:74:83:99:92:99:5b:9e:1c:
                    b4:e3:c8:fb:98:de:83:32:6c:a1:8d:da:53:76:8b:
                    6b:14:b5:8b:ab:df:29:28:05:27:f2:25:17:72:66:
                    20:dc:79:63:eb:24:e2:7d:a6:55:37:ec:3e:29:09:
                    4c:09:94:18:8c:c8:5f:46:ab:6f:b6:1b:30:01:3b:
                    70:7f:8e:0e:38:2a:87:78:79:f5:6e:a4:45:b8:7c:
                    16:80:4c:c3:9e:ce:ac:4c:99:df:51:d1:e0:be:f4:
                    20:91:88:f8:06:66:e0:b6:15:d5:bb:ca:30:4f:68:
                    d6:4d:c2:92:3c:b0:80:c7:ae:00:06:da:38:42:df:
                    9a:36:e5:7c:86:74:82:0f:1c:39:c4:1c:0e:dd:89:
                    f9:30:ca:35:47:f3:19:eb:3e:f4:90:a4:95:df:55:
                    86:f8:a8:d2:6d:8b:5e:73:63:79:ba:27:71:3b:df:
                    76:82:26:42:2e:87:9f:67:4f:b3:96:3f:4d:94:17:
                    ea:db
                Exponent: 65537 (0x10001)
        X509v3 extensions:
            X509v3 Basic Constraints: 
                CA:FALSE
            X509v3 Subject Key Identifier: 
                11:52:61:26:85:11:14:C4:13:AC:A6:02:CF:0B:D2:8D:E0:94:B3:48
            X509v3 Authority Key Identifier: 
                keyid:94:82:FA:C9:DB:CC:34:79:E9:B5:24:E3:0F:13:7B:E0:A7:93:3C:13
                DirName:/CN=team107-net
                serial:25:E7:19:8D:EA:19:6D:77:5A:31:30:EF:7F:8C:5D:23:BB:6B:8C:CA

            X509v3 Extended Key Usage: 
                TLS Web Server Authentication
            X509v3 Key Usage: 
                Digital Signature, Key Encipherment
            X509v3 Subject Alternative Name: 
                DNS:team107-server
    Signature Algorithm: sha256WithRSAEncryption
         15:aa:52:66:c7:16:4b:09:68:21:7c:59:67:ea:f5:26:a0:64:
         c2:d2:00:ab:ed:70:5d:f5:62:4d:9b:58:7f:14:2b:77:ae:9b:
         ef:1d:92:e7:ac:e4:14:c9:23:6c:88:5d:71:fa:72:a5:16:6a:
         8a:08:06:07:83:b8:79:a7:6c:da:1d:25:63:b8:25:dd:20:f2:
         34:56:cb:f1:b3:52:15:55:f9:17:46:2a:79:4e:bc:44:17:a2:
         fc:6d:8b:75:48:4b:5d:fb:a9:03:c0:f5:bc:fc:c6:ba:93:18:
         80:b3:bd:3b:61:44:63:bf:e1:3f:f8:0d:88:4e:c2:aa:32:44:
         ac:a8:30:ec:90:6e:46:03:df:3c:68:ff:7f:c1:27:5a:1d:29:
         af:43:d6:03:5b:44:b8:b1:4d:8c:1c:d7:81:70:17:5b:07:7d:
         47:2b:fa:70:79:02:b0:fc:f4:a0:10:66:9f:06:34:6f:f6:ce:
         80:92:4f:9d:06:ed:55:ba:10:ce:1c:eb:44:42:af:ab:f6:26:
         07:da:ab:98:17:12:b1:18:f0:2f:13:dd:3d:cf:f3:1f:80:a5:
         c7:b1:4d:b9:44:e2:e3:5b:90:ba:51:3e:3a:4b:56:c0:94:41:
         91:18:c3:3f:a4:80:14:76:35:7c:7e:0f:14:eb:d7:ad:2c:77:
         34:81:f3:e2
-----BEGIN CERTIFICATE-----
MIIDeDCCAmCgAwIBAgIRANPwj/bA03yt3VIW9USrn9IwDQYJKoZIhvcNAQELBQAw
FjEUMBIGA1UEAwwLdGVhbTEwNy1uZXQwHhcNMjIwNTE4MTQ1NTQwWhcNMjUwNTAy
MTQ1NTQwWjAZMRcwFQYDVQQDDA50ZWFtMTA3LXNlcnZlcjCCASIwDQYJKoZIhvcN
AQEBBQADggEPADCCAQoCggEBAMYrNP/qzuYIdrgt2V8VLxqKOzZJ9x1LQEzZttz1
usW0bT17Uew+uVq4j9RQdHDEw9WdNlx9oc+k/k9Zw6am0dEG73SDmZKZW54ctOPI
+5jegzJsoY3aU3aLaxS1i6vfKSgFJ/IlF3JmINx5Y+sk4n2mVTfsPikJTAmUGIzI
X0arb7YbMAE7cH+ODjgqh3h59W6kRbh8FoBMw57OrEyZ31HR4L70IJGI+AZm4LYV
1bvKME9o1k3CkjywgMeuAAbaOELfmjblfIZ0gg8cOcQcDt2J+TDKNUfzGes+9JCk
ld9Vhvio0m2LXnNjeboncTvfdoImQi6Hn2dPs5Y/TZQX6tsCAwEAAaOBvTCBujAJ
BgNVHRMEAjAAMB0GA1UdDgQWBBQRUmEmhREUxBOspgLPC9KN4JSzSDBRBgNVHSME
SjBIgBSUgvrJ28w0eem1JOMPE3vgp5M8E6EapBgwFjEUMBIGA1UEAwwLdGVhbTEw
Ny1uZXSCFCXnGY3qGW13WjEw73+MXSO7a4zKMBMGA1UdJQQMMAoGCCsGAQUFBwMB
MAsGA1UdDwQEAwIFoDAZBgNVHREEEjAQgg50ZWFtMTA3LXNlcnZlcjANBgkqhkiG
9w0BAQsFAAOCAQEAFapSZscWSwloIXxZZ+r1JqBkwtIAq+1wXfViTZtYfxQrd66b
7x2S56zkFMkjbIhdcfpypRZqiggGB4O4eads2h0lY7gl3SDyNFbL8bNSFVX5F0Yq
eU68RBei/G2LdUhLXfupA8D1vPzGupMYgLO9O2FEY7/hP/gNiE7CqjJErKgw7JBu
RgPfPGj/f8EnWh0pr0PWA1tEuLFNjBzXgXAXWwd9Ryv6cHkCsPz0oBBmnwY0b/bO
gJJPnQbtVboQzhzrREKvq/YmB9qrmBcSsRjwLxPdPc/zH4Clx7FNuUTi41uQulE+
OktWwJRBkRjDP6SAFHY1fH4PFOvXrSx3NIHz4g==
-----END CERTIFICATE-----
