Certificate:
    Data:
        Version: 3 (0x2)
        Serial Number:
            b2:ae:97:1a:65:7b:a0:9b:95:93:de:4a:cb:94:ba:4b
        Signature Algorithm: sha256WithRSAEncryption
        Issuer: CN=team316-net
        Validity
            Not Before: May 18 20:16:19 2022 GMT
            Not After : May  2 20:16:19 2025 GMT
        Subject: CN=team316-client
        Subject Public Key Info:
            Public Key Algorithm: rsaEncryption
                RSA Public-Key: (2048 bit)
                Modulus:
                    00:ce:0c:ae:1b:cd:e6:00:cc:90:32:3f:f5:bd:23:
                    57:71:b8:f3:30:40:46:3f:ee:9b:e7:27:9c:22:d2:
                    64:f7:02:58:9e:62:a9:95:bb:5f:8e:d2:13:be:37:
                    05:c4:9d:04:45:75:89:a5:cd:09:39:44:28:f0:c1:
                    4f:ac:bb:31:1f:33:35:98:c7:82:72:a0:d2:1f:ca:
                    2f:1b:e8:88:9e:ce:e9:59:4c:6e:3a:47:4c:3b:d7:
                    bc:f5:66:79:72:cd:e4:3d:ca:ed:1c:c7:22:08:5f:
                    6c:47:81:2a:9a:04:51:eb:49:99:17:cc:46:77:57:
                    ad:00:36:49:7b:bb:29:2b:5e:1b:99:b8:3b:c7:27:
                    d2:ff:f1:0e:8d:23:82:49:26:2a:81:08:63:91:23:
                    96:bd:0d:0d:b5:04:6a:59:fd:5b:37:43:57:74:75:
                    2a:42:a7:5f:54:88:2b:ef:07:bb:af:77:e1:59:85:
                    82:24:d0:9f:3d:07:37:72:48:f7:43:4d:33:d6:6c:
                    41:88:b9:ac:fb:01:9c:de:fb:1d:c0:88:9e:df:db:
                    f5:c0:c5:2f:af:30:bf:cf:b0:4f:ca:f0:7e:68:14:
                    b2:af:55:ae:8a:ac:c1:b4:43:45:7d:69:14:9f:5b:
                    74:bc:41:72:d9:72:ab:04:c3:fd:41:c8:f3:76:cf:
                    28:59
                Exponent: 65537 (0x10001)
        X509v3 extensions:
            X509v3 Basic Constraints: 
                CA:FALSE
            X509v3 Subject Key Identifier: 
                18:09:C4:62:6D:6B:45:6D:E8:BE:0C:16:23:24:96:AC:0C:6C:34:47
            X509v3 Authority Key Identifier: 
                keyid:3E:DC:CF:86:45:64:09:6C:58:A7:E7:3F:AD:D6:CB:20:6C:42:F7:43
                DirName:/CN=team316-net
                serial:43:B3:66:E1:44:05:40:00:82:D3:40:6A:C6:A4:D4:7A:02:58:27:D6

            X509v3 Extended Key Usage: 
                TLS Web Client Authentication
            X509v3 Key Usage: 
                Digital Signature
    Signature Algorithm: sha256WithRSAEncryption
         56:b1:09:a2:21:a4:82:9f:99:32:09:c7:94:82:ef:31:80:cb:
         1d:73:d4:84:28:b4:5c:c6:c8:38:5b:21:13:03:cf:ef:05:eb:
         05:06:07:57:8c:e7:57:33:8c:68:ea:27:59:8e:62:e4:98:ac:
         ee:e7:a6:f6:76:49:09:70:22:99:0a:b1:20:c3:6a:3c:09:08:
         fa:6a:eb:b3:28:52:5a:66:1c:8a:ee:ef:09:e7:b7:1d:f8:5a:
         10:1e:80:2b:16:5b:34:5d:33:22:d5:e6:7a:39:d1:36:2e:5f:
         fe:55:f9:d6:90:5b:b0:f1:bc:95:9e:af:1f:78:bc:6d:81:d9:
         43:fe:89:a8:b2:f3:12:4e:93:e8:94:2a:c6:99:87:58:a2:58:
         28:d7:a9:07:a3:c0:f8:e9:3e:6b:ca:fa:d7:f9:2a:14:3e:fc:
         ae:e9:57:7a:70:3c:ca:48:15:06:8f:57:92:1f:fa:b5:34:22:
         83:5f:25:9f:36:3b:5e:44:cb:80:52:96:30:c9:ee:dd:60:53:
         08:da:a3:9e:7c:cb:37:64:01:de:df:00:94:c9:d3:8a:d0:d8:
         8c:67:63:14:25:fb:dd:0e:ea:6b:7b:a8:31:03:8d:91:f9:82:
         f3:fb:8f:8d:75:0a:9b:56:f4:2a:94:86:b5:c9:ab:24:04:76:
         73:ab:c1:4e
-----BEGIN CERTIFICATE-----
MIIDXTCCAkWgAwIBAgIRALKulxple6CblZPeSsuUukswDQYJKoZIhvcNAQELBQAw
FjEUMBIGA1UEAwwLdGVhbTMxNi1uZXQwHhcNMjIwNTE4MjAxNjE5WhcNMjUwNTAy
MjAxNjE5WjAZMRcwFQYDVQQDDA50ZWFtMzE2LWNsaWVudDCCASIwDQYJKoZIhvcN
AQEBBQADggEPADCCAQoCggEBAM4MrhvN5gDMkDI/9b0jV3G48zBARj/um+cnnCLS
ZPcCWJ5iqZW7X47SE743BcSdBEV1iaXNCTlEKPDBT6y7MR8zNZjHgnKg0h/KLxvo
iJ7O6VlMbjpHTDvXvPVmeXLN5D3K7RzHIghfbEeBKpoEUetJmRfMRndXrQA2SXu7
KSteG5m4O8cn0v/xDo0jgkkmKoEIY5Ejlr0NDbUEaln9WzdDV3R1KkKnX1SIK+8H
u6934VmFgiTQnz0HN3JI90NNM9ZsQYi5rPsBnN77HcCInt/b9cDFL68wv8+wT8rw
fmgUsq9VroqswbRDRX1pFJ9bdLxBctlyqwTD/UHI83bPKFkCAwEAAaOBojCBnzAJ
BgNVHRMEAjAAMB0GA1UdDgQWBBQYCcRibWtFbei+DBYjJJasDGw0RzBRBgNVHSME
SjBIgBQ+3M+GRWQJbFin5z+t1ssgbEL3Q6EapBgwFjEUMBIGA1UEAwwLdGVhbTMx
Ni1uZXSCFEOzZuFEBUAAgtNAasak1HoCWCfWMBMGA1UdJQQMMAoGCCsGAQUFBwMC
MAsGA1UdDwQEAwIHgDANBgkqhkiG9w0BAQsFAAOCAQEAVrEJoiGkgp+ZMgnHlILv
MYDLHXPUhCi0XMbIOFshEwPP7wXrBQYHV4znVzOMaOonWY5i5Jis7uem9nZJCXAi
mQqxIMNqPAkI+mrrsyhSWmYciu7vCee3HfhaEB6AKxZbNF0zItXmejnRNi5f/lX5
1pBbsPG8lZ6vH3i8bYHZQ/6JqLLzEk6T6JQqxpmHWKJYKNepB6PA+Ok+a8r61/kq
FD78rulXenA8ykgVBo9Xkh/6tTQig18lnzY7XkTLgFKWMMnu3WBTCNqjnnzLN2QB
3t8AlMnTitDYjGdjFCX73Q7qa3uoMQONkfmC8/uPjXUKm1b0KpSGtcmrJAR2c6vB
Tg==
-----END CERTIFICATE-----
