Certificate:
    Data:
        Version: 3 (0x2)
        Serial Number:
            5d:b7:b3:9f:a5:f2:4b:16:05:27:bf:be:c5:f0:1c:9e
        Signature Algorithm: sha256WithRSAEncryption
        Issuer: CN=team320-net
        Validity
            Not Before: May 18 20:07:52 2022 GMT
            Not After : May  2 20:07:52 2025 GMT
        Subject: CN=team320-server
        Subject Public Key Info:
            Public Key Algorithm: rsaEncryption
                RSA Public-Key: (2048 bit)
                Modulus:
                    00:cc:e6:9f:06:17:04:70:4e:b0:76:27:88:a6:31:
                    38:b2:d4:ea:7c:e4:03:de:48:77:27:15:37:22:0b:
                    b8:85:b3:0f:07:c5:46:51:17:38:35:f1:5c:ee:12:
                    58:0f:fd:1c:df:d7:4a:b0:50:0c:6e:a1:5b:7f:43:
                    04:f3:8e:79:e2:bf:76:2f:7a:40:45:54:90:f1:b9:
                    da:ec:85:f9:71:f4:fd:0b:92:04:7f:b8:0d:01:11:
                    8e:a4:9c:88:40:f6:dc:9b:cd:25:e1:48:e2:b3:92:
                    fa:63:35:d1:e3:e0:62:20:ed:99:12:14:e2:3b:7f:
                    79:08:b5:17:a4:2a:9f:58:80:fe:30:b8:65:53:4e:
                    be:39:9f:d1:84:b5:ed:a1:8a:b0:b9:0b:48:c2:78:
                    f0:06:cb:48:c5:04:4e:32:10:e8:8b:93:12:8a:78:
                    19:b9:63:06:0f:b6:a5:0f:a8:b2:ac:93:4a:ec:b2:
                    cd:c0:f7:e9:4d:03:a1:aa:13:80:b8:4b:f0:c5:10:
                    b0:55:63:cd:0f:f0:f9:be:21:47:5c:0a:a6:0b:26:
                    21:3b:44:c3:d9:69:09:5c:11:a0:2b:36:68:a3:21:
                    3a:2b:4e:e8:c0:72:fa:5d:01:4e:ec:91:73:0f:c0:
                    11:47:d8:34:ac:42:16:88:59:8c:bb:eb:18:55:1d:
                    e4:7b
                Exponent: 65537 (0x10001)
        X509v3 extensions:
            X509v3 Basic Constraints: 
                CA:FALSE
            X509v3 Subject Key Identifier: 
                2D:DF:8C:91:EB:C3:3F:4B:9E:0E:AD:37:2A:F8:90:F1:7E:EC:5D:BE
            X509v3 Authority Key Identifier: 
                keyid:46:95:AF:BA:5E:6F:98:53:81:BE:AA:01:69:53:3A:DA:E4:E9:69:A0
                DirName:/CN=team320-net
                serial:1E:BC:04:81:FF:09:B8:88:E2:C4:91:EC:A0:71:21:95:D2:9A:F3:B6

            X509v3 Extended Key Usage: 
                TLS Web Server Authentication
            X509v3 Key Usage: 
                Digital Signature, Key Encipherment
            X509v3 Subject Alternative Name: 
                DNS:team320-server
    Signature Algorithm: sha256WithRSAEncryption
         59:13:fb:92:c4:f7:00:a4:8d:fe:99:1d:53:e1:3b:78:83:49:
         bb:8a:5c:0d:7e:68:d2:21:3e:c6:f1:dd:c6:72:36:63:e1:0a:
         5d:dd:cf:7d:06:32:76:23:3f:2c:99:6b:dc:32:47:b6:e5:1d:
         5b:f1:bd:68:d1:6a:f0:e4:70:60:9a:c6:1e:56:69:fe:e6:35:
         e5:a3:23:57:57:14:e3:c3:10:74:9a:fd:29:95:c5:2f:d0:0a:
         01:86:0b:c4:4c:02:7f:e7:04:fc:ec:58:99:a5:40:46:7d:d9:
         3c:54:1b:f5:b9:a9:83:67:4d:6b:9f:9f:d5:c6:83:ea:1f:a8:
         50:9c:71:b1:da:fd:55:c6:93:ce:1d:2b:73:bb:c8:d4:bc:5b:
         cf:56:54:c8:46:1a:d9:2a:b6:6d:1a:eb:f2:47:6e:4a:54:6a:
         65:27:03:43:d0:c1:d5:27:d3:ac:ac:88:f7:c3:e9:57:c4:c5:
         ed:c2:52:94:f6:7b:04:95:cc:ec:c5:68:47:2e:07:bc:89:7c:
         0a:09:cf:40:95:42:1d:fa:04:a6:a7:b8:46:bc:1c:b7:9c:cc:
         d9:64:07:69:a5:5e:d0:6f:59:99:40:85:8b:91:1e:28:15:02:
         0a:d2:89:ce:6c:b4:ba:83:91:4f:56:dc:bc:74:e8:f4:90:1c:
         e6:6d:9a:73
-----BEGIN CERTIFICATE-----
MIIDdzCCAl+gAwIBAgIQXbezn6XySxYFJ7++xfAcnjANBgkqhkiG9w0BAQsFADAW
MRQwEgYDVQQDDAt0ZWFtMzIwLW5ldDAeFw0yMjA1MTgyMDA3NTJaFw0yNTA1MDIy
MDA3NTJaMBkxFzAVBgNVBAMMDnRlYW0zMjAtc2VydmVyMIIBIjANBgkqhkiG9w0B
AQEFAAOCAQ8AMIIBCgKCAQEAzOafBhcEcE6wdieIpjE4stTqfOQD3kh3JxU3Igu4
hbMPB8VGURc4NfFc7hJYD/0c39dKsFAMbqFbf0ME84554r92L3pARVSQ8bna7IX5
cfT9C5IEf7gNARGOpJyIQPbcm80l4Ujis5L6YzXR4+BiIO2ZEhTiO395CLUXpCqf
WID+MLhlU06+OZ/RhLXtoYqwuQtIwnjwBstIxQROMhDoi5MSingZuWMGD7alD6iy
rJNK7LLNwPfpTQOhqhOAuEvwxRCwVWPND/D5viFHXAqmCyYhO0TD2WkJXBGgKzZo
oyE6K07owHL6XQFO7JFzD8ARR9g0rEIWiFmMu+sYVR3kewIDAQABo4G9MIG6MAkG
A1UdEwQCMAAwHQYDVR0OBBYEFC3fjJHrwz9Lng6tNyr4kPF+7F2+MFEGA1UdIwRK
MEiAFEaVr7peb5hTgb6qAWlTOtrk6WmgoRqkGDAWMRQwEgYDVQQDDAt0ZWFtMzIw
LW5ldIIUHrwEgf8JuIjixJHsoHEhldKa87YwEwYDVR0lBAwwCgYIKwYBBQUHAwEw
CwYDVR0PBAQDAgWgMBkGA1UdEQQSMBCCDnRlYW0zMjAtc2VydmVyMA0GCSqGSIb3
DQEBCwUAA4IBAQBZE/uSxPcApI3+mR1T4Tt4g0m7ilwNfmjSIT7G8d3GcjZj4Qpd
3c99BjJ2Iz8smWvcMke25R1b8b1o0Wrw5HBgmsYeVmn+5jXloyNXVxTjwxB0mv0p
lcUv0AoBhgvETAJ/5wT87FiZpUBGfdk8VBv1uamDZ01rn5/VxoPqH6hQnHGx2v1V
xpPOHStzu8jUvFvPVlTIRhrZKrZtGuvyR25KVGplJwND0MHVJ9OsrIj3w+lXxMXt
wlKU9nsElczsxWhHLge8iXwKCc9AlUId+gSmp7hGvBy3nMzZZAdppV7Qb1mZQIWL
kR4oFQIK0onObLS6g5FPVty8dOj0kBzmbZpz
-----END CERTIFICATE-----
