Certificate:
    Data:
        Version: 3 (0x2)
        Serial Number:
            4f:95:a7:95:b4:de:9c:c1:3d:00:8a:8d:09:b0:fe:aa
        Signature Algorithm: sha256WithRSAEncryption
        Issuer: CN=team665-net
        Validity
            Not Before: May 18 23:12:53 2022 GMT
            Not After : May  2 23:12:53 2025 GMT
        Subject: CN=team665-client
        Subject Public Key Info:
            Public Key Algorithm: rsaEncryption
                RSA Public-Key: (2048 bit)
                Modulus:
                    00:d5:1c:57:cb:ba:7f:f0:c3:0d:65:b6:71:04:a1:
                    69:00:2c:4e:ad:ee:c6:c1:6c:64:2f:43:12:7c:28:
                    a3:4c:e8:26:71:56:7b:35:4b:c9:6b:c9:15:7b:e7:
                    74:73:71:31:8b:18:6c:d3:8a:12:61:74:70:91:53:
                    f7:9b:57:e7:02:b7:6d:7d:76:f4:03:73:4a:74:11:
                    f2:ef:d3:c0:f0:1e:1b:17:31:e5:6b:56:9a:69:75:
                    05:93:ba:5b:03:e5:be:20:c5:31:9a:12:fd:f9:b4:
                    d5:b4:d5:f0:38:41:2f:f1:72:0e:32:7d:ad:04:8a:
                    9c:fe:57:7a:9b:14:19:d0:c9:af:ab:63:a3:49:4c:
                    a4:fc:64:e1:e0:d0:65:a4:ef:a5:b6:93:8b:1b:da:
                    60:e3:7f:4c:83:97:17:a9:3f:f1:13:42:69:03:3c:
                    ad:f7:86:06:a5:50:fd:5d:65:f4:c8:28:59:5b:8b:
                    20:ee:61:0e:cd:5c:f1:c7:22:d1:c7:a6:5c:6f:2e:
                    29:d0:dc:cc:fc:1b:92:88:61:8d:64:28:5b:6d:80:
                    eb:f5:3c:e5:99:05:d9:4c:b5:5c:d7:c8:cb:22:d8:
                    09:dd:dd:eb:06:ec:a4:18:8e:d0:08:d0:c6:fa:c7:
                    d1:d9:4d:31:b7:13:d7:90:c8:45:2c:a8:9a:6a:7b:
                    02:d9
                Exponent: 65537 (0x10001)
        X509v3 extensions:
            X509v3 Basic Constraints: 
                CA:FALSE
            X509v3 Subject Key Identifier: 
                17:52:7C:5E:EE:08:BC:46:91:4F:03:6D:61:AF:74:22:B6:A2:EC:AC
            X509v3 Authority Key Identifier: 
                keyid:03:AA:CC:9B:61:53:95:50:01:BF:55:A0:BE:5A:57:A3:18:1C:EF:35
                DirName:/CN=team665-net
                serial:20:E5:47:0A:5A:2C:B0:46:C1:A5:D7:83:FF:C1:50:E2:B4:47:47:C6

            X509v3 Extended Key Usage: 
                TLS Web Client Authentication
            X509v3 Key Usage: 
                Digital Signature
    Signature Algorithm: sha256WithRSAEncryption
         54:b6:5a:a7:81:ef:b1:a8:e4:61:c3:71:7d:cb:30:f2:20:e0:
         5d:2e:15:f6:68:b0:d8:26:3b:93:aa:52:f9:b9:17:41:2f:7d:
         29:fe:5b:34:26:ac:3b:69:9d:b7:34:91:e2:97:ee:b6:ac:74:
         8f:c9:c5:af:89:6c:7c:98:ac:25:02:da:6c:d8:27:0d:dd:d4:
         0c:72:6a:b8:4e:d6:f3:98:7c:02:8f:1d:e5:d4:e1:86:79:bd:
         72:11:53:83:c2:6c:cd:07:d6:83:c0:69:58:e5:b5:8b:3f:96:
         1d:30:32:7b:38:2e:3d:1a:a1:3f:11:a2:1e:fa:03:ab:ef:f4:
         33:e4:84:19:28:7a:a7:dd:ce:d6:32:61:97:c8:23:85:2c:c6:
         a1:22:0c:8b:bf:3f:f6:fa:07:11:28:dc:8b:70:d0:5e:71:81:
         c9:77:b4:49:3e:89:0e:3d:99:5a:f9:e4:3d:a9:33:9c:ed:01:
         fc:df:49:61:ad:7d:ca:ec:07:5a:fc:4e:89:70:74:b5:2e:fb:
         03:81:e2:45:95:dc:82:8e:75:11:39:05:21:11:ac:71:e1:8b:
         2c:b5:b5:e4:2b:22:00:18:ce:ea:6a:d8:db:52:28:27:de:77:
         ad:60:fb:9a:10:23:d9:46:11:8b:47:61:2e:4d:ba:c9:94:34:
         80:77:ae:86
-----BEGIN CERTIFICATE-----
MIIDXDCCAkSgAwIBAgIQT5WnlbTenME9AIqNCbD+qjANBgkqhkiG9w0BAQsFADAW
MRQwEgYDVQQDDAt0ZWFtNjY1LW5ldDAeFw0yMjA1MTgyMzEyNTNaFw0yNTA1MDIy
MzEyNTNaMBkxFzAVBgNVBAMMDnRlYW02NjUtY2xpZW50MIIBIjANBgkqhkiG9w0B
AQEFAAOCAQ8AMIIBCgKCAQEA1RxXy7p/8MMNZbZxBKFpACxOre7GwWxkL0MSfCij
TOgmcVZ7NUvJa8kVe+d0c3Exixhs04oSYXRwkVP3m1fnArdtfXb0A3NKdBHy79PA
8B4bFzHla1aaaXUFk7pbA+W+IMUxmhL9+bTVtNXwOEEv8XIOMn2tBIqc/ld6mxQZ
0Mmvq2OjSUyk/GTh4NBlpO+ltpOLG9pg439Mg5cXqT/xE0JpAzyt94YGpVD9XWX0
yChZW4sg7mEOzVzxxyLRx6Zcby4p0NzM/BuSiGGNZChbbYDr9TzlmQXZTLVc18jL
ItgJ3d3rBuykGI7QCNDG+sfR2U0xtxPXkMhFLKiaansC2QIDAQABo4GiMIGfMAkG
A1UdEwQCMAAwHQYDVR0OBBYEFBdSfF7uCLxGkU8DbWGvdCK2ouysMFEGA1UdIwRK
MEiAFAOqzJthU5VQAb9VoL5aV6MYHO81oRqkGDAWMRQwEgYDVQQDDAt0ZWFtNjY1
LW5ldIIUIOVHClossEbBpdeD/8FQ4rRHR8YwEwYDVR0lBAwwCgYIKwYBBQUHAwIw
CwYDVR0PBAQDAgeAMA0GCSqGSIb3DQEBCwUAA4IBAQBUtlqnge+xqORhw3F9yzDy
IOBdLhX2aLDYJjuTqlL5uRdBL30p/ls0Jqw7aZ23NJHil+62rHSPycWviWx8mKwl
Atps2CcN3dQMcmq4TtbzmHwCjx3l1OGGeb1yEVODwmzNB9aDwGlY5bWLP5YdMDJ7
OC49GqE/EaIe+gOr7/Qz5IQZKHqn3c7WMmGXyCOFLMahIgyLvz/2+gcRKNyLcNBe
cYHJd7RJPokOPZla+eQ9qTOc7QH830lhrX3K7Ada/E6JcHS1LvsDgeJFldyCjnUR
OQUhEaxx4YsstbXkKyIAGM7qatjbUign3netYPuaECPZRhGLR2EuTbrJlDSAd66G
-----END CERTIFICATE-----
