Certificate:
    Data:
        Version: 3 (0x2)
        Serial Number:
            46:cf:cf:ca:5d:7f:c2:25:42:74:6b:d4:f8:18:ae:5f
        Signature Algorithm: sha256WithRSAEncryption
        Issuer: CN=team467-net
        Validity
            Not Before: May 18 21:32:20 2022 GMT
            Not After : May  2 21:32:20 2025 GMT
        Subject: CN=team467-server
        Subject Public Key Info:
            Public Key Algorithm: rsaEncryption
                RSA Public-Key: (2048 bit)
                Modulus:
                    00:b1:7f:17:4e:93:97:e6:ca:29:1d:cd:7d:34:e7:
                    d2:1e:f9:41:c6:31:39:9c:1c:b1:66:40:c3:5d:53:
                    d9:64:f0:1f:e4:15:d1:b4:0d:e9:4c:de:46:49:c7:
                    f6:94:2a:c8:1d:a8:4f:a6:dc:bc:14:9f:fa:08:26:
                    86:24:69:6f:08:49:75:76:09:df:6d:82:84:a1:d9:
                    52:69:1f:f1:82:92:35:82:0a:3b:03:5b:ad:31:84:
                    ac:5f:4d:fa:59:27:29:ba:b3:25:5b:59:9a:c8:3b:
                    2e:13:f6:c6:77:81:20:5f:32:65:f3:1a:6d:2e:6b:
                    c4:2d:66:9a:c3:a9:68:bd:c7:81:89:86:8f:50:c0:
                    1a:68:c7:8c:83:d8:45:fe:b2:e6:b1:c8:ee:0a:3b:
                    30:fd:f3:11:c1:57:66:1f:fc:a0:18:db:f4:a7:ae:
                    6e:df:38:ed:4d:52:f8:db:9e:4a:52:bc:8d:b7:f2:
                    08:7a:d2:83:03:4d:6e:0d:74:ea:49:cd:c7:7e:a7:
                    e2:c3:bb:26:0e:f3:be:1e:b4:c2:ce:82:fb:0a:11:
                    7e:fb:26:93:04:ef:f5:16:3b:ee:75:d9:a8:bb:11:
                    72:63:ed:91:f6:16:d2:62:88:bd:a2:ac:e5:1a:e8:
                    5c:05:e0:d0:e6:82:65:62:9d:11:8f:7e:98:a0:5f:
                    40:b9
                Exponent: 65537 (0x10001)
        X509v3 extensions:
            X509v3 Basic Constraints: 
                CA:FALSE
            X509v3 Subject Key Identifier: 
                82:49:43:1A:F0:60:61:E7:88:D5:18:29:C5:58:E9:7D:64:B0:8A:94
            X509v3 Authority Key Identifier: 
                keyid:3B:91:4D:BE:3D:A0:8C:E0:B8:15:A7:C3:A1:04:A6:FB:15:17:63:4C
                DirName:/CN=team467-net
                serial:2C:D9:AA:21:55:EF:39:A1:FF:5D:A9:6C:A1:57:B2:07:E0:44:EC:4E

            X509v3 Extended Key Usage: 
                TLS Web Server Authentication
            X509v3 Key Usage: 
                Digital Signature, Key Encipherment
            X509v3 Subject Alternative Name: 
                DNS:team467-server
    Signature Algorithm: sha256WithRSAEncryption
         c4:99:ea:34:f6:62:1e:8f:ad:7b:53:a6:ba:e5:1a:09:8d:da:
         89:e8:a7:00:82:7c:31:8d:30:ff:60:8f:83:2b:22:68:48:52:
         0e:99:2f:10:6b:23:d9:d7:af:ff:66:4f:bb:37:08:65:d2:ff:
         ab:78:7d:cd:43:71:a6:75:94:27:b1:3c:31:64:e7:64:a6:16:
         51:ff:72:86:f4:54:b9:22:1f:52:52:f6:78:1d:2d:84:59:be:
         11:fb:82:c6:00:d8:7d:b9:45:31:d2:da:5e:45:d3:27:08:21:
         46:c7:a1:3e:27:57:e6:50:b7:74:cd:c7:8d:a9:f1:43:2a:88:
         2f:76:25:d5:1f:2f:25:11:3e:76:85:73:ab:75:a9:20:8d:79:
         bf:9f:a2:9b:a5:3b:1b:58:c0:3e:10:d7:77:d0:55:26:f0:0b:
         37:c6:c7:d5:d4:bc:17:35:c3:76:63:5b:88:33:99:53:5f:0e:
         ef:b2:8e:02:00:56:94:13:c3:39:a6:e1:ae:32:ba:b3:58:0e:
         93:12:87:2f:b2:73:53:3e:e7:25:15:7f:5a:99:b1:83:d8:a1:
         07:90:5c:09:d0:91:5b:10:f2:6a:ac:ad:50:9e:40:aa:f5:5f:
         b3:d0:c7:f7:6a:a1:ad:c9:d5:2c:a6:46:f1:29:c0:8e:34:ec:
         6a:36:11:e3
-----BEGIN CERTIFICATE-----
MIIDdzCCAl+gAwIBAgIQRs/Pyl1/wiVCdGvU+BiuXzANBgkqhkiG9w0BAQsFADAW
MRQwEgYDVQQDDAt0ZWFtNDY3LW5ldDAeFw0yMjA1MTgyMTMyMjBaFw0yNTA1MDIy
MTMyMjBaMBkxFzAVBgNVBAMMDnRlYW00Njctc2VydmVyMIIBIjANBgkqhkiG9w0B
AQEFAAOCAQ8AMIIBCgKCAQEAsX8XTpOX5sopHc19NOfSHvlBxjE5nByxZkDDXVPZ
ZPAf5BXRtA3pTN5GScf2lCrIHahPpty8FJ/6CCaGJGlvCEl1dgnfbYKEodlSaR/x
gpI1ggo7A1utMYSsX036WScpurMlW1mayDsuE/bGd4EgXzJl8xptLmvELWaaw6lo
vceBiYaPUMAaaMeMg9hF/rLmscjuCjsw/fMRwVdmH/ygGNv0p65u3zjtTVL4255K
UryNt/IIetKDA01uDXTqSc3Hfqfiw7smDvO+HrTCzoL7ChF++yaTBO/1Fjvuddmo
uxFyY+2R9hbSYoi9oqzlGuhcBeDQ5oJlYp0Rj36YoF9AuQIDAQABo4G9MIG6MAkG
A1UdEwQCMAAwHQYDVR0OBBYEFIJJQxrwYGHniNUYKcVY6X1ksIqUMFEGA1UdIwRK
MEiAFDuRTb49oIzguBWnw6EEpvsVF2NMoRqkGDAWMRQwEgYDVQQDDAt0ZWFtNDY3
LW5ldIIULNmqIVXvOaH/XalsoVeyB+BE7E4wEwYDVR0lBAwwCgYIKwYBBQUHAwEw
CwYDVR0PBAQDAgWgMBkGA1UdEQQSMBCCDnRlYW00Njctc2VydmVyMA0GCSqGSIb3
DQEBCwUAA4IBAQDEmeo09mIej617U6a65RoJjdqJ6KcAgnwxjTD/YI+DKyJoSFIO
mS8QayPZ16//Zk+7Nwhl0v+reH3NQ3GmdZQnsTwxZOdkphZR/3KG9FS5Ih9SUvZ4
HS2EWb4R+4LGANh9uUUx0tpeRdMnCCFGx6E+J1fmULd0zceNqfFDKogvdiXVHy8l
ET52hXOrdakgjXm/n6KbpTsbWMA+ENd30FUm8As3xsfV1LwXNcN2Y1uIM5lTXw7v
so4CAFaUE8M5puGuMrqzWA6TEocvsnNTPuclFX9ambGD2KEHkFwJ0JFbEPJqrK1Q
nkCq9V+z0Mf3aqGtydUspkbxKcCONOxqNhHj
-----END CERTIFICATE-----
