Certificate:
    Data:
        Version: 3 (0x2)
        Serial Number:
            52:22:26:43:f5:3a:26:0f:7a:29:43:58:b7:eb:9b:53
        Signature Algorithm: sha256WithRSAEncryption
        Issuer: CN=team467-net
        Validity
            Not Before: May 18 21:32:20 2022 GMT
            Not After : May  2 21:32:20 2025 GMT
        Subject: CN=team467-client
        Subject Public Key Info:
            Public Key Algorithm: rsaEncryption
                RSA Public-Key: (2048 bit)
                Modulus:
                    00:be:fa:14:5e:ac:82:b7:fe:e7:24:78:a4:24:b5:
                    82:c5:2a:2c:70:e0:da:70:99:ed:75:3d:6b:fa:28:
                    d8:9d:17:ac:b4:6c:1e:5a:14:21:9a:5d:5b:04:13:
                    71:69:b0:d4:e1:4c:3a:1b:c5:47:28:d1:a0:ea:11:
                    e9:c6:09:19:b9:b0:b2:1a:2e:aa:52:68:c7:36:e0:
                    86:25:7a:7f:32:3b:aa:41:be:33:cb:e1:c5:bf:00:
                    cb:ac:a5:9f:d5:c2:48:1c:ca:67:10:b9:d1:9d:f2:
                    62:f2:3f:1c:57:f8:fc:80:f4:e6:fa:8a:44:60:0d:
                    1e:dc:a4:64:ff:62:a3:fa:f7:42:84:9d:44:1d:a6:
                    b4:ec:f7:1a:c0:5d:7c:aa:9c:7f:4c:4a:c8:94:fd:
                    0f:6b:11:a2:36:bd:5e:de:23:9e:f5:e0:1a:de:ce:
                    e2:36:b7:a0:a9:e3:ed:0d:34:57:bf:fd:1a:33:33:
                    2c:a1:99:ae:6a:f6:2d:7d:f8:f0:c9:74:a9:c8:5c:
                    71:30:4a:d2:c3:b0:2a:f9:51:fd:5e:3c:13:a4:2a:
                    89:de:b6:2b:d2:ae:65:6d:cf:b2:a5:2d:7a:ae:32:
                    d0:33:72:ae:df:41:68:3b:b5:41:b4:6f:5b:43:83:
                    4c:d6:cc:25:aa:38:d5:3b:e7:81:b9:4a:83:62:2e:
                    7a:4d
                Exponent: 65537 (0x10001)
        X509v3 extensions:
            X509v3 Basic Constraints: 
                CA:FALSE
            X509v3 Subject Key Identifier: 
                E0:7C:41:51:7C:01:7F:91:69:8F:B8:67:66:E8:2B:93:5D:2E:07:46
            X509v3 Authority Key Identifier: 
                keyid:3B:91:4D:BE:3D:A0:8C:E0:B8:15:A7:C3:A1:04:A6:FB:15:17:63:4C
                DirName:/CN=team467-net
                serial:2C:D9:AA:21:55:EF:39:A1:FF:5D:A9:6C:A1:57:B2:07:E0:44:EC:4E

            X509v3 Extended Key Usage: 
                TLS Web Client Authentication
            X509v3 Key Usage: 
                Digital Signature
    Signature Algorithm: sha256WithRSAEncryption
         19:40:78:eb:03:14:52:28:cf:89:f4:25:c9:35:79:09:55:b5:
         57:6f:ff:36:f0:6f:25:b5:e5:d3:18:26:bc:e6:79:bf:f2:11:
         ca:9c:2a:77:27:f3:c7:26:42:4c:6b:70:46:ba:f2:cc:8d:a1:
         2f:47:61:70:bf:a8:8e:4f:65:fc:25:7e:d7:65:5a:ad:d0:e6:
         64:79:34:9a:b4:12:90:14:4e:cf:7d:6e:1f:58:1a:fa:ec:af:
         42:84:bb:39:96:61:f5:fe:fe:9f:d8:2b:97:bc:16:a5:a6:a7:
         15:0e:de:06:69:ab:7e:39:4f:f3:51:6e:30:f9:0c:0d:e2:c3:
         5c:1a:58:1a:d6:e7:7d:4d:b3:5c:57:a2:fb:04:b9:da:3b:7c:
         62:f5:e7:9a:3d:bc:01:19:99:c1:a0:b8:2b:c6:73:0d:c4:10:
         07:2b:7b:7f:fc:e6:9b:5f:28:65:68:46:4a:66:00:34:58:34:
         63:35:87:68:6b:82:2f:4f:32:55:e0:8f:8b:c9:78:fd:37:7a:
         db:62:56:f0:76:79:17:4b:a3:54:15:d1:e7:88:96:ee:0e:86:
         e1:6c:8f:31:af:92:cf:1c:2e:75:84:ea:60:95:eb:35:47:95:
         2d:19:e2:c8:e2:d5:97:4b:22:c8:6b:37:32:6f:c9:9e:cf:3c:
         27:64:48:69
-----BEGIN CERTIFICATE-----
MIIDXDCCAkSgAwIBAgIQUiImQ/U6Jg96KUNYt+ubUzANBgkqhkiG9w0BAQsFADAW
MRQwEgYDVQQDDAt0ZWFtNDY3LW5ldDAeFw0yMjA1MTgyMTMyMjBaFw0yNTA1MDIy
MTMyMjBaMBkxFzAVBgNVBAMMDnRlYW00NjctY2xpZW50MIIBIjANBgkqhkiG9w0B
AQEFAAOCAQ8AMIIBCgKCAQEAvvoUXqyCt/7nJHikJLWCxSoscODacJntdT1r+ijY
nRestGweWhQhml1bBBNxabDU4Uw6G8VHKNGg6hHpxgkZubCyGi6qUmjHNuCGJXp/
MjuqQb4zy+HFvwDLrKWf1cJIHMpnELnRnfJi8j8cV/j8gPTm+opEYA0e3KRk/2Kj
+vdChJ1EHaa07PcawF18qpx/TErIlP0PaxGiNr1e3iOe9eAa3s7iNregqePtDTRX
v/0aMzMsoZmuavYtffjwyXSpyFxxMErSw7Aq+VH9XjwTpCqJ3rYr0q5lbc+ypS16
rjLQM3Ku30FoO7VBtG9bQ4NM1swlqjjVO+eBuUqDYi56TQIDAQABo4GiMIGfMAkG
A1UdEwQCMAAwHQYDVR0OBBYEFOB8QVF8AX+RaY+4Z2boK5NdLgdGMFEGA1UdIwRK
MEiAFDuRTb49oIzguBWnw6EEpvsVF2NMoRqkGDAWMRQwEgYDVQQDDAt0ZWFtNDY3
LW5ldIIULNmqIVXvOaH/XalsoVeyB+BE7E4wEwYDVR0lBAwwCgYIKwYBBQUHAwIw
CwYDVR0PBAQDAgeAMA0GCSqGSIb3DQEBCwUAA4IBAQAZQHjrAxRSKM+J9CXJNXkJ
VbVXb/828G8lteXTGCa85nm/8hHKnCp3J/PHJkJMa3BGuvLMjaEvR2Fwv6iOT2X8
JX7XZVqt0OZkeTSatBKQFE7PfW4fWBr67K9ChLs5lmH1/v6f2CuXvBalpqcVDt4G
aat+OU/zUW4w+QwN4sNcGlga1ud9TbNcV6L7BLnaO3xi9eeaPbwBGZnBoLgrxnMN
xBAHK3t//OabXyhlaEZKZgA0WDRjNYdoa4IvTzJV4I+LyXj9N3rbYlbwdnkXS6NU
FdHniJbuDobhbI8xr5LPHC51hOpgles1R5UtGeLI4tWXSyLIazcyb8mezzwnZEhp
-----END CERTIFICATE-----
