Certificate:
    Data:
        Version: 3 (0x2)
        Serial Number:
            38:be:7b:ae:ba:f1:bb:a9:77:bf:03:36:0b:d3:93:dd
        Signature Algorithm: sha256WithRSAEncryption
        Issuer: CN=team304-net
        Validity
            Not Before: May 18 20:00:06 2022 GMT
            Not After : May  2 20:00:06 2025 GMT
        Subject: CN=team304-client
        Subject Public Key Info:
            Public Key Algorithm: rsaEncryption
                RSA Public-Key: (2048 bit)
                Modulus:
                    00:c8:7c:47:16:99:ab:05:76:68:1a:68:51:6d:12:
                    91:ac:ef:9f:28:3a:3e:86:a7:00:1c:18:88:47:4c:
                    1a:44:a2:99:63:43:a7:f8:cb:46:36:b9:9e:07:c0:
                    ff:89:c7:c7:1a:73:ac:2f:ff:e0:22:02:49:48:73:
                    59:94:13:8e:dc:4c:18:64:3f:ee:ba:6d:0f:44:88:
                    bd:c2:dd:fa:cb:17:10:69:ef:ee:9f:35:a7:93:9f:
                    24:b4:be:dd:99:31:08:eb:3a:f6:6e:65:b7:2f:00:
                    cb:4f:b1:aa:e2:2f:4f:c6:d2:df:12:84:a4:5f:13:
                    a8:85:1e:d8:a3:c4:4e:d3:26:c5:78:d3:06:24:4a:
                    87:7e:a3:a3:ea:66:59:61:97:96:1f:d5:60:32:a8:
                    7b:71:78:b2:9c:bd:1a:2e:df:6d:bd:c3:63:fd:e5:
                    d9:8b:da:d8:7a:af:90:fe:23:63:a6:36:fa:a0:22:
                    2d:b5:99:5b:8b:21:d3:18:82:94:40:5c:ac:03:14:
                    79:59:94:2b:a1:d4:0d:6b:ed:69:e0:16:e0:da:6c:
                    61:cb:82:38:49:23:6e:89:74:2f:0a:d9:67:38:fb:
                    14:1f:b5:d8:d2:03:ce:28:89:89:5a:db:29:27:06:
                    3c:81:77:62:4c:9a:de:49:3c:16:9d:2d:d4:0b:7a:
                    1e:75
                Exponent: 65537 (0x10001)
        X509v3 extensions:
            X509v3 Basic Constraints: 
                CA:FALSE
            X509v3 Subject Key Identifier: 
                B5:6E:4B:17:B3:3A:13:AC:90:A5:FE:64:EE:43:80:AC:73:6A:B8:43
            X509v3 Authority Key Identifier: 
                keyid:4C:AA:69:18:93:B6:DA:C9:AB:56:06:9D:A1:05:DA:0A:72:7E:E2:78
                DirName:/CN=team304-net
                serial:37:EA:C6:13:2E:F0:4E:1E:0A:3B:BA:7B:9D:56:64:B4:B5:85:EB:EB

            X509v3 Extended Key Usage: 
                TLS Web Client Authentication
            X509v3 Key Usage: 
                Digital Signature
    Signature Algorithm: sha256WithRSAEncryption
         42:0a:71:42:4f:9f:97:5b:0c:f8:77:e6:3a:0f:01:c5:a3:24:
         01:23:02:be:5c:b8:87:fe:6b:5b:16:0c:e8:78:e8:2c:92:de:
         e5:be:31:9e:89:26:c9:ec:6c:76:dc:e0:1c:55:3e:a1:3a:93:
         e1:3e:1f:17:1c:ca:73:16:2a:75:25:e4:4f:e5:79:a4:2f:a5:
         f7:3e:78:bf:75:de:b4:05:6c:50:93:dd:d1:b0:bb:65:7a:13:
         28:39:5d:00:73:87:3b:80:1d:e9:6a:14:2f:32:41:aa:8e:83:
         19:78:8e:0b:5c:b2:21:c4:c2:7b:47:df:06:c3:22:94:e6:01:
         a8:28:9e:43:9d:88:59:95:04:94:c9:a5:9e:38:6e:eb:92:04:
         59:3c:36:15:6e:cc:84:30:a4:6c:52:84:c5:e6:1f:57:96:84:
         9f:8b:6b:a3:60:d3:f9:ca:71:3c:42:e2:71:7c:10:39:6b:f6:
         c8:a1:16:43:5a:6c:07:31:3f:2d:08:8f:12:c3:96:b1:f2:4d:
         ad:21:31:59:c1:a8:28:e9:3d:25:2f:bc:2d:1b:25:b6:57:ad:
         93:81:ff:33:04:56:35:1a:0c:73:5d:33:5e:11:f2:ab:86:34:
         ee:fe:af:11:01:38:73:a8:07:88:46:6a:5c:90:dc:52:e8:72:
         9b:d0:c2:76
-----BEGIN CERTIFICATE-----
MIIDXDCCAkSgAwIBAgIQOL57rrrxu6l3vwM2C9OT3TANBgkqhkiG9w0BAQsFADAW
MRQwEgYDVQQDDAt0ZWFtMzA0LW5ldDAeFw0yMjA1MTgyMDAwMDZaFw0yNTA1MDIy
MDAwMDZaMBkxFzAVBgNVBAMMDnRlYW0zMDQtY2xpZW50MIIBIjANBgkqhkiG9w0B
AQEFAAOCAQ8AMIIBCgKCAQEAyHxHFpmrBXZoGmhRbRKRrO+fKDo+hqcAHBiIR0wa
RKKZY0On+MtGNrmeB8D/icfHGnOsL//gIgJJSHNZlBOO3EwYZD/uum0PRIi9wt36
yxcQae/unzWnk58ktL7dmTEI6zr2bmW3LwDLT7Gq4i9PxtLfEoSkXxOohR7Yo8RO
0ybFeNMGJEqHfqOj6mZZYZeWH9VgMqh7cXiynL0aLt9tvcNj/eXZi9rYeq+Q/iNj
pjb6oCIttZlbiyHTGIKUQFysAxR5WZQrodQNa+1p4Bbg2mxhy4I4SSNuiXQvCtln
OPsUH7XY0gPOKImJWtspJwY8gXdiTJreSTwWnS3UC3oedQIDAQABo4GiMIGfMAkG
A1UdEwQCMAAwHQYDVR0OBBYEFLVuSxezOhOskKX+ZO5DgKxzarhDMFEGA1UdIwRK
MEiAFEyqaRiTttrJq1YGnaEF2gpyfuJ4oRqkGDAWMRQwEgYDVQQDDAt0ZWFtMzA0
LW5ldIIUN+rGEy7wTh4KO7p7nVZktLWF6+swEwYDVR0lBAwwCgYIKwYBBQUHAwIw
CwYDVR0PBAQDAgeAMA0GCSqGSIb3DQEBCwUAA4IBAQBCCnFCT5+XWwz4d+Y6DwHF
oyQBIwK+XLiH/mtbFgzoeOgskt7lvjGeiSbJ7Gx23OAcVT6hOpPhPh8XHMpzFip1
JeRP5XmkL6X3Pni/dd60BWxQk93RsLtlehMoOV0Ac4c7gB3pahQvMkGqjoMZeI4L
XLIhxMJ7R98GwyKU5gGoKJ5DnYhZlQSUyaWeOG7rkgRZPDYVbsyEMKRsUoTF5h9X
loSfi2ujYNP5ynE8QuJxfBA5a/bIoRZDWmwHMT8tCI8Sw5ax8k2tITFZwago6T0l
L7wtGyW2V62Tgf8zBFY1GgxzXTNeEfKrhjTu/q8RAThzqAeIRmpckNxS6HKb0MJ2
-----END CERTIFICATE-----
