Certificate:
    Data:
        Version: 3 (0x2)
        Serial Number:
            20:c2:e3:c4:35:ff:a3:3e:15:85:96:e9:a2:72:58:ee
        Signature Algorithm: sha256WithRSAEncryption
        Issuer: CN=team636-net
        Validity
            Not Before: May 18 22:57:40 2022 GMT
            Not After : May  2 22:57:40 2025 GMT
        Subject: CN=team636-client
        Subject Public Key Info:
            Public Key Algorithm: rsaEncryption
                RSA Public-Key: (2048 bit)
                Modulus:
                    00:c1:7c:55:b2:e9:58:33:05:c9:ea:52:23:03:74:
                    76:f2:3f:27:c5:ed:c1:81:83:89:4b:2c:2e:77:1d:
                    89:fd:c1:87:de:67:a2:da:b3:67:a9:49:63:de:f8:
                    f6:6c:db:0e:a8:e4:f2:26:22:e7:f5:8a:60:31:1b:
                    51:f7:c2:cf:7a:6f:14:15:a3:89:a8:fb:0e:ca:e4:
                    bb:1c:65:0e:fe:3e:06:55:65:0f:e6:39:bf:23:0a:
                    a0:54:72:7a:d5:06:04:e1:f7:6c:a3:4e:82:08:ba:
                    3d:fe:94:ae:4b:eb:fd:f7:75:5a:40:d9:a1:25:84:
                    eb:f7:17:6e:fc:29:aa:d7:a5:5e:5d:23:03:b7:c9:
                    73:42:f0:2a:d2:c1:40:4a:f6:24:cc:b8:e2:81:0b:
                    62:c6:a4:60:f2:f2:aa:26:e9:ef:d5:1a:0b:a2:e4:
                    6a:10:ac:69:a8:26:4f:b4:03:c4:18:60:70:ab:90:
                    75:f3:5b:d2:cb:7f:e2:18:eb:f4:c3:bb:40:d2:f0:
                    5c:0d:44:83:2e:f8:b1:73:18:e5:99:0d:be:96:2e:
                    78:f3:44:cc:e5:9a:66:61:32:37:9d:33:ec:24:e5:
                    17:bb:a8:93:12:bb:68:ca:db:20:f7:f0:ef:a5:ca:
                    6a:38:ed:9f:22:9e:79:48:79:7d:d3:5a:d3:db:e7:
                    53:a9
                Exponent: 65537 (0x10001)
        X509v3 extensions:
            X509v3 Basic Constraints: 
                CA:FALSE
            X509v3 Subject Key Identifier: 
                D4:63:64:C5:F7:E6:2A:90:19:C4:86:57:25:97:0F:60:AE:A6:53:2A
            X509v3 Authority Key Identifier: 
                keyid:BE:25:04:98:2F:D1:00:C0:B1:BB:AE:5B:AB:4C:C3:85:C3:65:C6:8A
                DirName:/CN=team636-net
                serial:1B:B9:5E:70:8B:0E:24:BB:8C:EB:5F:56:F3:DC:FC:3A:B5:EC:6C:90

            X509v3 Extended Key Usage: 
                TLS Web Client Authentication
            X509v3 Key Usage: 
                Digital Signature
    Signature Algorithm: sha256WithRSAEncryption
         b0:80:67:21:7e:e6:c1:03:01:e6:69:d4:54:4d:d6:56:9c:28:
         0d:00:8c:5e:71:a4:1f:c9:fe:41:3d:92:d6:e5:f6:d4:cb:7b:
         32:b7:64:e9:b4:aa:1a:f0:0f:2d:ec:9f:f6:fa:e2:ce:af:78:
         7d:21:21:7c:95:dc:fb:80:b2:8b:4b:d6:28:51:ca:3a:71:99:
         69:71:b8:a3:81:0c:13:31:26:04:5b:34:5c:99:44:41:d7:51:
         23:69:75:1d:03:86:50:ba:cb:3b:39:5a:aa:c6:e4:e6:80:5b:
         3d:54:20:8c:bc:37:d7:6a:16:a7:dc:5d:e1:1f:4c:fb:70:40:
         2c:d1:31:23:4f:e4:95:be:6a:99:1b:72:82:3f:94:c6:59:ae:
         96:e2:6d:0e:2b:d7:fd:7e:be:3f:b0:b5:fa:1f:51:8f:c4:8f:
         13:63:19:d8:50:5b:49:cc:f1:8c:a5:1f:33:60:fc:be:83:a8:
         4d:0c:02:c7:ce:09:93:c8:d0:0f:22:99:9f:ac:f2:c5:b8:d1:
         89:a1:5b:03:5f:8e:a1:32:ef:52:83:d9:48:f2:a8:9a:67:02:
         cb:b5:d0:a9:14:3a:0d:88:60:92:3b:75:f1:a4:2c:2c:4f:92:
         af:84:50:35:2e:35:8b:35:5d:bb:a2:9d:c1:59:1a:cb:0c:9b:
         ab:4b:2c:a1
-----BEGIN CERTIFICATE-----
MIIDXDCCAkSgAwIBAgIQIMLjxDX/oz4VhZbponJY7jANBgkqhkiG9w0BAQsFADAW
MRQwEgYDVQQDDAt0ZWFtNjM2LW5ldDAeFw0yMjA1MTgyMjU3NDBaFw0yNTA1MDIy
MjU3NDBaMBkxFzAVBgNVBAMMDnRlYW02MzYtY2xpZW50MIIBIjANBgkqhkiG9w0B
AQEFAAOCAQ8AMIIBCgKCAQEAwXxVsulYMwXJ6lIjA3R28j8nxe3BgYOJSywudx2J
/cGH3mei2rNnqUlj3vj2bNsOqOTyJiLn9YpgMRtR98LPem8UFaOJqPsOyuS7HGUO
/j4GVWUP5jm/IwqgVHJ61QYE4fdso06CCLo9/pSuS+v993VaQNmhJYTr9xdu/Cmq
16VeXSMDt8lzQvAq0sFASvYkzLjigQtixqRg8vKqJunv1RoLouRqEKxpqCZPtAPE
GGBwq5B181vSy3/iGOv0w7tA0vBcDUSDLvixcxjlmQ2+li5480TM5ZpmYTI3nTPs
JOUXu6iTErtoytsg9/DvpcpqOO2fIp55SHl901rT2+dTqQIDAQABo4GiMIGfMAkG
A1UdEwQCMAAwHQYDVR0OBBYEFNRjZMX35iqQGcSGVyWXD2CuplMqMFEGA1UdIwRK
MEiAFL4lBJgv0QDAsbuuW6tMw4XDZcaKoRqkGDAWMRQwEgYDVQQDDAt0ZWFtNjM2
LW5ldIIUG7lecIsOJLuM619W89z8OrXsbJAwEwYDVR0lBAwwCgYIKwYBBQUHAwIw
CwYDVR0PBAQDAgeAMA0GCSqGSIb3DQEBCwUAA4IBAQCwgGchfubBAwHmadRUTdZW
nCgNAIxecaQfyf5BPZLW5fbUy3syt2TptKoa8A8t7J/2+uLOr3h9ISF8ldz7gLKL
S9YoUco6cZlpcbijgQwTMSYEWzRcmURB11EjaXUdA4ZQuss7OVqqxuTmgFs9VCCM
vDfXahan3F3hH0z7cEAs0TEjT+SVvmqZG3KCP5TGWa6W4m0OK9f9fr4/sLX6H1GP
xI8TYxnYUFtJzPGMpR8zYPy+g6hNDALHzgmTyNAPIpmfrPLFuNGJoVsDX46hMu9S
g9lI8qiaZwLLtdCpFDoNiGCSO3XxpCwsT5KvhFA1LjWLNV27op3BWRrLDJurSyyh
-----END CERTIFICATE-----
