Certificate:
    Data:
        Version: 3 (0x2)
        Serial Number:
            7a:8a:3a:e9:ef:02:4a:a9:00:c0:08:34:2c:fd:9a:2f
        Signature Algorithm: sha256WithRSAEncryption
        Issuer: CN=team315-net
        Validity
            Not Before: May 18 20:03:40 2022 GMT
            Not After : May  2 20:03:40 2025 GMT
        Subject: CN=team315-server
        Subject Public Key Info:
            Public Key Algorithm: rsaEncryption
                RSA Public-Key: (2048 bit)
                Modulus:
                    00:a2:cc:00:73:2e:f2:5d:d3:f9:2d:ec:56:1f:08:
                    44:e1:f4:7b:35:c8:d5:c0:df:94:8c:0e:c3:10:45:
                    67:1f:3f:85:4f:39:e3:01:0d:b1:dd:e8:40:7a:96:
                    ea:2c:74:06:0d:81:f6:d5:86:37:27:68:d9:61:a1:
                    52:ed:f5:a2:2a:80:74:cd:54:bb:fc:95:7e:13:a3:
                    70:d0:80:3b:46:d8:05:21:a4:4f:11:97:8a:57:cf:
                    55:46:c0:e4:0d:0f:72:ac:19:5a:5c:ff:38:69:2a:
                    75:34:c4:fc:89:89:61:9e:ce:fc:6b:f2:eb:ae:a8:
                    df:db:6e:c4:a6:b7:b9:37:63:d2:ed:b9:6e:92:ba:
                    9b:79:1c:20:e9:2d:31:fc:c3:e0:3b:c1:4f:29:77:
                    54:9a:ff:f6:5a:76:38:43:91:3e:c4:d3:20:8c:3e:
                    08:28:a7:99:5f:62:b6:18:42:37:2a:8d:a6:53:3c:
                    ae:e5:45:c2:55:2f:58:e0:f1:df:b2:65:75:e6:ab:
                    0a:f9:18:7c:cd:03:9d:3e:73:36:b4:a0:3e:f4:0c:
                    cf:e6:f2:f9:c1:ab:44:93:8e:5d:72:78:9b:99:59:
                    94:ba:f6:ce:e4:a4:e6:00:3c:e5:7a:32:3a:99:71:
                    a8:2d:0d:6f:22:7e:71:ae:a9:e5:d6:24:37:88:c9:
                    40:a3
                Exponent: 65537 (0x10001)
        X509v3 extensions:
            X509v3 Basic Constraints: 
                CA:FALSE
            X509v3 Subject Key Identifier: 
                DC:3B:D1:85:23:03:D9:29:75:66:51:BB:A6:F2:21:37:0B:D1:55:AB
            X509v3 Authority Key Identifier: 
                keyid:FA:26:D3:B5:8D:D5:18:26:90:41:2A:76:4C:32:FE:35:95:FA:D7:58
                DirName:/CN=team315-net
                serial:0E:D0:4F:B9:6F:9D:51:95:F4:F7:97:EF:42:3F:62:FD:49:0B:FB:2E

            X509v3 Extended Key Usage: 
                TLS Web Server Authentication
            X509v3 Key Usage: 
                Digital Signature, Key Encipherment
            X509v3 Subject Alternative Name: 
                DNS:team315-server
    Signature Algorithm: sha256WithRSAEncryption
         6c:39:da:73:49:7a:1d:7d:3f:a2:a4:08:18:d9:6c:14:df:92:
         74:11:dc:f5:a7:d6:62:06:dc:c8:bc:7a:51:01:77:8f:6f:91:
         6d:f5:1d:26:70:71:fb:68:01:5c:1f:bc:68:6a:29:c0:06:df:
         39:2a:f4:42:f5:af:d1:72:61:47:d8:84:91:f7:18:27:39:6c:
         71:58:b8:1b:57:63:31:32:fd:d1:c8:2c:f4:b9:f3:c7:9e:a4:
         7d:8c:0b:9b:a5:f3:d5:26:18:83:3f:8a:56:d7:e8:e1:0d:08:
         78:67:fb:b3:8a:24:7f:de:9c:2e:2d:5d:02:1e:1d:ce:d2:62:
         6f:8c:64:ab:db:36:f8:95:46:78:55:bd:9b:de:6b:a8:cf:d9:
         78:19:9d:90:cd:7b:b6:9b:10:10:96:14:28:c1:32:79:4d:bf:
         d0:ec:f1:57:5b:df:75:81:f7:63:a1:79:65:14:8e:40:8a:35:
         5c:77:c7:19:f5:97:e7:aa:72:00:66:30:35:4e:27:fb:5b:f7:
         d1:9f:1e:e8:a5:91:43:7f:ec:2b:f8:6e:55:cd:76:b7:d1:77:
         fd:47:35:62:1a:0f:f6:98:36:9e:13:c4:21:d2:6e:a9:aa:3b:
         fb:ac:07:d9:47:c6:91:a4:c3:fa:e6:44:11:6d:fe:d4:88:10:
         ad:9d:81:a9
-----BEGIN CERTIFICATE-----
MIIDdzCCAl+gAwIBAgIQeoo66e8CSqkAwAg0LP2aLzANBgkqhkiG9w0BAQsFADAW
MRQwEgYDVQQDDAt0ZWFtMzE1LW5ldDAeFw0yMjA1MTgyMDAzNDBaFw0yNTA1MDIy
MDAzNDBaMBkxFzAVBgNVBAMMDnRlYW0zMTUtc2VydmVyMIIBIjANBgkqhkiG9w0B
AQEFAAOCAQ8AMIIBCgKCAQEAoswAcy7yXdP5LexWHwhE4fR7NcjVwN+UjA7DEEVn
Hz+FTznjAQ2x3ehAepbqLHQGDYH21YY3J2jZYaFS7fWiKoB0zVS7/JV+E6Nw0IA7
RtgFIaRPEZeKV89VRsDkDQ9yrBlaXP84aSp1NMT8iYlhns78a/Lrrqjf227Epre5
N2PS7blukrqbeRwg6S0x/MPgO8FPKXdUmv/2WnY4Q5E+xNMgjD4IKKeZX2K2GEI3
Ko2mUzyu5UXCVS9Y4PHfsmV15qsK+Rh8zQOdPnM2tKA+9AzP5vL5watEk45dcnib
mVmUuvbO5KTmADzlejI6mXGoLQ1vIn5xrqnl1iQ3iMlAowIDAQABo4G9MIG6MAkG
A1UdEwQCMAAwHQYDVR0OBBYEFNw70YUjA9kpdWZRu6byITcL0VWrMFEGA1UdIwRK
MEiAFPom07WN1RgmkEEqdkwy/jWV+tdYoRqkGDAWMRQwEgYDVQQDDAt0ZWFtMzE1
LW5ldIIUDtBPuW+dUZX095fvQj9i/UkL+y4wEwYDVR0lBAwwCgYIKwYBBQUHAwEw
CwYDVR0PBAQDAgWgMBkGA1UdEQQSMBCCDnRlYW0zMTUtc2VydmVyMA0GCSqGSIb3
DQEBCwUAA4IBAQBsOdpzSXodfT+ipAgY2WwU35J0Edz1p9ZiBtzIvHpRAXePb5Ft
9R0mcHH7aAFcH7xoainABt85KvRC9a/RcmFH2ISR9xgnOWxxWLgbV2MxMv3RyCz0
ufPHnqR9jAubpfPVJhiDP4pW1+jhDQh4Z/uziiR/3pwuLV0CHh3O0mJvjGSr2zb4
lUZ4Vb2b3muoz9l4GZ2QzXu2mxAQlhQowTJ5Tb/Q7PFXW991gfdjoXllFI5AijVc
d8cZ9ZfnqnIAZjA1Tif7W/fRnx7opZFDf+wr+G5VzXa30Xf9RzViGg/2mDaeE8Qh
0m6pqjv7rAfZR8aRpMP65kQRbf7UiBCtnYGp
-----END CERTIFICATE-----
