Certificate:
    Data:
        Version: 3 (0x2)
        Serial Number:
            6a:9d:fa:d1:14:92:2e:c6:7e:a4:7e:b1:01:e5:a6:41
        Signature Algorithm: sha256WithRSAEncryption
        Issuer: CN=team16-net
        Validity
            Not Before: May 18 14:00:46 2022 GMT
            Not After : May  2 14:00:46 2025 GMT
        Subject: CN=team16-client
        Subject Public Key Info:
            Public Key Algorithm: rsaEncryption
                RSA Public-Key: (2048 bit)
                Modulus:
                    00:dd:40:06:fe:04:5d:f7:5a:75:3b:11:cb:5e:42:
                    f6:72:ae:bc:61:6d:41:c0:a0:4d:fd:e4:aa:c2:fa:
                    c4:16:bd:61:0c:75:ea:52:81:f7:6a:5d:b9:c4:9b:
                    b3:7e:37:95:4d:b8:09:e4:4b:45:c0:00:d5:e2:10:
                    4b:af:6d:06:8a:a2:f1:6f:4a:61:7c:a7:fd:92:f3:
                    89:bf:e9:37:b5:6c:29:5a:7d:d3:49:20:09:9b:e5:
                    e6:06:75:c9:b2:7a:8a:3e:9a:3b:22:4c:cb:3c:a7:
                    1c:46:a9:4c:89:30:e4:86:10:08:a0:1f:e8:dd:cb:
                    d4:43:af:19:6d:87:33:ea:8f:ca:f9:c4:60:26:47:
                    57:11:7f:6f:0d:7d:c6:63:86:70:cf:d2:9e:9a:db:
                    3e:1a:f8:41:ba:35:64:36:e9:dc:12:f2:1c:d2:59:
                    63:0d:3c:21:d9:3c:60:f4:41:1e:bc:03:bc:45:69:
                    b8:80:56:7f:3c:c1:2d:36:82:fe:53:ed:d9:42:4e:
                    64:6d:13:06:c0:69:83:9a:3b:e2:b3:0a:06:58:28:
                    63:27:b8:75:60:27:f9:11:09:5f:15:97:89:cb:be:
                    1e:58:48:90:3b:f4:c3:23:0b:21:9c:44:bf:3e:23:
                    43:8e:be:79:03:e8:74:7f:33:a4:58:9f:de:01:fb:
                    7d:cb
                Exponent: 65537 (0x10001)
        X509v3 extensions:
            X509v3 Basic Constraints: 
                CA:FALSE
            X509v3 Subject Key Identifier: 
                59:24:76:61:7C:BD:23:94:49:99:5A:7A:FB:17:E2:2A:11:4A:AF:37
            X509v3 Authority Key Identifier: 
                keyid:C7:F4:36:DE:EE:C4:7D:19:68:EA:F6:EB:EB:93:85:4A:76:63:ED:CF
                DirName:/CN=team16-net
                serial:1E:D8:CE:E1:C5:AF:30:BA:D2:CB:CC:91:B1:08:19:BF:32:A0:FC:24

            X509v3 Extended Key Usage: 
                TLS Web Client Authentication
            X509v3 Key Usage: 
                Digital Signature
    Signature Algorithm: sha256WithRSAEncryption
         99:dc:40:4d:10:35:c3:e3:1c:91:c0:53:c2:1f:5d:e3:c7:89:
         4a:31:ed:60:28:dc:26:a9:25:43:6c:aa:ec:db:50:bb:c1:a6:
         71:1d:1a:6a:e3:50:fa:52:7f:20:1d:38:46:dc:e1:d4:c1:24:
         0f:df:66:6b:6d:56:00:39:e9:72:0d:14:a3:70:d0:ef:5f:8a:
         0b:a2:c4:7e:69:39:df:05:26:73:9e:9d:3c:24:6f:d6:4a:fd:
         10:d1:32:03:27:1d:70:ff:2c:35:ca:df:49:a0:a2:9c:91:d9:
         6e:51:92:10:2a:96:a1:30:8d:c1:fd:ea:92:7f:80:4e:6d:85:
         2e:7c:4a:16:22:21:2e:02:a1:34:4e:ab:f5:e4:f6:26:73:25:
         17:b1:47:d9:90:8a:ea:6b:ff:e0:00:94:90:97:dc:c3:cd:93:
         2b:9b:eb:dc:19:a2:8b:2e:2b:37:a0:69:48:13:29:bb:ce:da:
         c4:4c:70:33:6e:a8:d3:4a:17:53:9f:da:4c:cc:49:0b:ff:0a:
         8b:3e:b3:b4:2e:89:1c:f6:1d:f0:82:df:27:5a:df:4f:90:94:
         2e:e4:18:6f:69:e6:db:86:7e:43:93:ad:53:5d:e3:b7:1e:75:
         08:5d:f3:60:14:2b:8a:49:14:33:5b:21:57:b6:b6:e8:73:4d:
         fa:af:29:be
-----BEGIN CERTIFICATE-----
MIIDWTCCAkGgAwIBAgIQap360RSSLsZ+pH6xAeWmQTANBgkqhkiG9w0BAQsFADAV
MRMwEQYDVQQDDAp0ZWFtMTYtbmV0MB4XDTIyMDUxODE0MDA0NloXDTI1MDUwMjE0
MDA0NlowGDEWMBQGA1UEAwwNdGVhbTE2LWNsaWVudDCCASIwDQYJKoZIhvcNAQEB
BQADggEPADCCAQoCggEBAN1ABv4EXfdadTsRy15C9nKuvGFtQcCgTf3kqsL6xBa9
YQx16lKB92pducSbs343lU24CeRLRcAA1eIQS69tBoqi8W9KYXyn/ZLzib/pN7Vs
KVp900kgCZvl5gZ1ybJ6ij6aOyJMyzynHEapTIkw5IYQCKAf6N3L1EOvGW2HM+qP
yvnEYCZHVxF/bw19xmOGcM/SnprbPhr4Qbo1ZDbp3BLyHNJZYw08Idk8YPRBHrwD
vEVpuIBWfzzBLTaC/lPt2UJOZG0TBsBpg5o74rMKBlgoYye4dWAn+REJXxWXicu+
HlhIkDv0wyMLIZxEvz4jQ46+eQPodH8zpFif3gH7fcsCAwEAAaOBoTCBnjAJBgNV
HRMEAjAAMB0GA1UdDgQWBBRZJHZhfL0jlEmZWnr7F+IqEUqvNzBQBgNVHSMESTBH
gBTH9Dbe7sR9GWjq9uvrk4VKdmPtz6EZpBcwFTETMBEGA1UEAwwKdGVhbTE2LW5l
dIIUHtjO4cWvMLrSy8yRsQgZvzKg/CQwEwYDVR0lBAwwCgYIKwYBBQUHAwIwCwYD
VR0PBAQDAgeAMA0GCSqGSIb3DQEBCwUAA4IBAQCZ3EBNEDXD4xyRwFPCH13jx4lK
Me1gKNwmqSVDbKrs21C7waZxHRpq41D6Un8gHThG3OHUwSQP32ZrbVYAOelyDRSj
cNDvX4oLosR+aTnfBSZznp08JG/WSv0Q0TIDJx1w/yw1yt9JoKKckdluUZIQKpah
MI3B/eqSf4BObYUufEoWIiEuAqE0Tqv15PYmcyUXsUfZkIrqa//gAJSQl9zDzZMr
m+vcGaKLLis3oGlIEym7ztrETHAzbqjTShdTn9pMzEkL/wqLPrO0Lokc9h3wgt8n
Wt9PkJQu5Bhvaebbhn5Dk61TXeO3HnUIXfNgFCuKSRQzWyFXtrboc036rym+
-----END CERTIFICATE-----
