Certificate:
    Data:
        Version: 3 (0x2)
        Serial Number:
            4f:41:4d:7a:20:3a:45:8c:96:c9:61:71:a8:8e:c7:c4
        Signature Algorithm: sha256WithRSAEncryption
        Issuer: CN=team271-net
        Validity
            Not Before: May 18 19:47:04 2022 GMT
            Not After : May  2 19:47:04 2025 GMT
        Subject: CN=team271-server
        Subject Public Key Info:
            Public Key Algorithm: rsaEncryption
                RSA Public-Key: (2048 bit)
                Modulus:
                    00:a7:11:13:59:cb:a0:4d:ef:ee:1f:b9:6d:37:95:
                    a4:42:6c:7c:06:83:01:b7:19:13:a9:55:bc:aa:46:
                    b6:5f:d6:fb:db:4c:f7:21:20:19:27:4d:bd:28:45:
                    f8:1a:db:c9:92:4e:61:1b:d5:12:24:3b:58:43:65:
                    4d:12:5b:62:37:c5:f1:c0:c3:7c:9a:bb:4b:65:1e:
                    59:de:fc:d4:54:95:89:98:f5:88:a2:d0:74:6a:46:
                    78:42:98:6b:dc:3b:c2:76:9b:be:32:fb:bb:c3:e3:
                    d8:52:56:e8:22:70:02:2b:4b:9b:91:1a:27:98:a1:
                    9f:b1:a7:25:c1:5c:b4:61:15:6b:92:74:13:8f:b7:
                    4c:7b:f9:e3:6b:70:80:a6:2b:43:ec:e7:c1:f8:61:
                    48:b7:b5:e6:bf:2e:43:5b:18:d3:d4:f4:98:8c:5d:
                    57:6b:8d:87:78:e0:2f:7b:8b:f7:a0:21:d2:96:fc:
                    80:d4:68:d8:30:2a:da:f0:7d:8e:95:a4:a6:35:ac:
                    90:6e:fe:06:0f:a6:e0:ef:48:47:96:92:54:49:05:
                    56:f3:9d:66:a2:33:53:59:cd:01:2c:a2:47:14:3d:
                    76:11:b1:ab:1d:a4:83:71:0d:1d:51:6d:38:b1:da:
                    3e:92:6b:fa:96:68:a9:97:2c:c1:28:8f:c4:91:50:
                    4e:c9
                Exponent: 65537 (0x10001)
        X509v3 extensions:
            X509v3 Basic Constraints: 
                CA:FALSE
            X509v3 Subject Key Identifier: 
                A3:FB:03:E7:9B:09:53:3E:01:EC:94:AE:CB:E3:88:05:F1:E7:25:5B
            X509v3 Authority Key Identifier: 
                keyid:1B:C5:7E:BF:D8:E4:EB:AF:DE:0B:75:38:7B:92:DE:57:76:E3:58:8F
                DirName:/CN=team271-net
                serial:28:68:12:B5:DF:FD:71:16:2D:95:F7:9F:24:08:B3:20:AE:0F:39:21

            X509v3 Extended Key Usage: 
                TLS Web Server Authentication
            X509v3 Key Usage: 
                Digital Signature, Key Encipherment
            X509v3 Subject Alternative Name: 
                DNS:team271-server
    Signature Algorithm: sha256WithRSAEncryption
         15:56:92:41:ff:e1:78:a1:cd:d1:97:70:48:f1:f6:8c:0b:89:
         25:0c:75:c5:1a:2f:87:34:a0:d3:01:ac:9d:ea:d0:3c:d2:b6:
         9e:b5:08:09:56:5b:32:71:5b:1a:d3:70:42:0d:1e:5f:46:77:
         47:e7:cb:45:66:52:b1:1c:ff:57:e2:d0:cf:2c:f5:9e:d0:4c:
         0d:27:09:d9:ec:2d:47:92:b6:7c:43:5e:8a:59:9d:04:10:42:
         dc:01:13:ff:e0:29:b3:3c:c8:ac:fb:83:f0:88:88:36:83:80:
         71:e9:76:ee:3c:42:e8:2e:eb:d7:30:f9:d4:0f:98:91:a7:e3:
         96:85:c6:dc:c3:5e:a6:88:aa:91:d0:b7:17:fb:97:12:d3:ad:
         30:4b:2f:3b:3c:a0:9e:89:33:e3:3d:30:f4:df:9f:ae:1d:32:
         f3:a2:91:ba:6f:f0:30:61:e2:b4:95:ed:04:33:3a:da:f1:19:
         5a:1b:fe:ca:9b:6a:f4:8d:58:8e:12:e8:7a:3a:41:81:c6:57:
         54:72:ba:a8:c6:91:e9:21:41:39:2b:81:4b:d1:f7:e2:a7:a6:
         77:84:21:c0:7c:58:5a:63:24:0e:08:17:68:9a:8c:9d:c0:ae:
         eb:32:5d:31:c1:49:dc:dd:da:ff:7e:a7:32:7b:8e:d9:e3:50:
         ec:f7:58:5c
-----BEGIN CERTIFICATE-----
MIIDdzCCAl+gAwIBAgIQT0FNeiA6RYyWyWFxqI7HxDANBgkqhkiG9w0BAQsFADAW
MRQwEgYDVQQDDAt0ZWFtMjcxLW5ldDAeFw0yMjA1MTgxOTQ3MDRaFw0yNTA1MDIx
OTQ3MDRaMBkxFzAVBgNVBAMMDnRlYW0yNzEtc2VydmVyMIIBIjANBgkqhkiG9w0B
AQEFAAOCAQ8AMIIBCgKCAQEApxETWcugTe/uH7ltN5WkQmx8BoMBtxkTqVW8qka2
X9b720z3ISAZJ029KEX4GtvJkk5hG9USJDtYQ2VNEltiN8XxwMN8mrtLZR5Z3vzU
VJWJmPWIotB0akZ4Qphr3DvCdpu+Mvu7w+PYUlboInACK0ubkRonmKGfsaclwVy0
YRVrknQTj7dMe/nja3CApitD7OfB+GFIt7Xmvy5DWxjT1PSYjF1Xa42HeOAve4v3
oCHSlvyA1GjYMCra8H2OlaSmNayQbv4GD6bg70hHlpJUSQVW851mojNTWc0BLKJH
FD12EbGrHaSDcQ0dUW04sdo+kmv6lmiplyzBKI/EkVBOyQIDAQABo4G9MIG6MAkG
A1UdEwQCMAAwHQYDVR0OBBYEFKP7A+ebCVM+AeyUrsvjiAXx5yVbMFEGA1UdIwRK
MEiAFBvFfr/Y5Ouv3gt1OHuS3ld241iPoRqkGDAWMRQwEgYDVQQDDAt0ZWFtMjcx
LW5ldIIUKGgStd/9cRYtlfefJAizIK4POSEwEwYDVR0lBAwwCgYIKwYBBQUHAwEw
CwYDVR0PBAQDAgWgMBkGA1UdEQQSMBCCDnRlYW0yNzEtc2VydmVyMA0GCSqGSIb3
DQEBCwUAA4IBAQAVVpJB/+F4oc3Rl3BI8faMC4klDHXFGi+HNKDTAayd6tA80rae
tQgJVlsycVsa03BCDR5fRndH58tFZlKxHP9X4tDPLPWe0EwNJwnZ7C1HkrZ8Q16K
WZ0EEELcARP/4CmzPMis+4PwiIg2g4Bx6XbuPELoLuvXMPnUD5iRp+OWhcbcw16m
iKqR0LcX+5cS060wSy87PKCeiTPjPTD035+uHTLzopG6b/AwYeK0le0EMzra8Rla
G/7Km2r0jViOEuh6OkGBxldUcrqoxpHpIUE5K4FL0ffip6Z3hCHAfFhaYyQOCBdo
moydwK7rMl0xwUnc3dr/fqcye47Z41Ds91hc
-----END CERTIFICATE-----
