Certificate:
    Data:
        Version: 3 (0x2)
        Serial Number:
            71:1a:b1:2e:e2:05:20:ae:f7:8e:e5:3f:2f:b5:75:64
        Signature Algorithm: sha256WithRSAEncryption
        Issuer: CN=team271-net
        Validity
            Not Before: May 18 19:47:04 2022 GMT
            Not After : May  2 19:47:04 2025 GMT
        Subject: CN=team271-client
        Subject Public Key Info:
            Public Key Algorithm: rsaEncryption
                RSA Public-Key: (2048 bit)
                Modulus:
                    00:d5:a1:0c:97:b1:76:62:1c:58:69:66:89:40:8c:
                    0f:00:43:b4:fd:2e:da:b3:7e:14:ea:ee:8d:f1:de:
                    e6:30:04:d2:23:11:81:46:1c:22:48:4c:9b:e6:4a:
                    69:b2:3a:d6:37:52:76:d0:3f:51:c9:86:88:94:ca:
                    0f:47:33:10:85:cb:0e:82:46:1a:15:13:f5:bb:41:
                    89:75:0c:bb:27:6b:59:ed:5d:e7:7f:46:1a:fe:4d:
                    e5:3d:1e:df:d4:2f:ef:9f:ec:99:95:62:06:9c:bf:
                    d0:e9:60:a6:5f:83:2c:aa:6e:32:5c:72:e8:08:04:
                    d6:b1:b9:a5:bd:e6:cf:7b:02:b4:b8:85:d4:b6:01:
                    70:23:f4:56:7d:e3:fd:6a:2c:b0:10:9e:a5:0b:8c:
                    d0:41:45:ae:b1:6c:e5:14:3a:f7:95:5a:ac:f1:38:
                    08:e5:d9:3f:d8:56:2d:b9:1e:01:8d:53:ba:8c:53:
                    79:55:5c:4b:af:e3:1f:57:49:d9:e4:0c:88:5a:a4:
                    ff:bd:9d:5e:70:ef:b1:a9:c2:36:67:b6:36:64:9a:
                    7f:96:52:5d:3e:8d:9d:02:aa:5a:26:6b:ce:91:4d:
                    8e:75:32:7d:d3:27:a3:98:ea:2d:33:83:0c:ef:88:
                    ce:b5:4f:84:d1:c1:fb:ff:29:c2:78:f0:a5:2b:a1:
                    ef:7d
                Exponent: 65537 (0x10001)
        X509v3 extensions:
            X509v3 Basic Constraints: 
                CA:FALSE
            X509v3 Subject Key Identifier: 
                A1:2D:1F:5C:89:24:91:A5:8A:4F:82:A9:DE:7D:16:84:5A:EA:21:A3
            X509v3 Authority Key Identifier: 
                keyid:1B:C5:7E:BF:D8:E4:EB:AF:DE:0B:75:38:7B:92:DE:57:76:E3:58:8F
                DirName:/CN=team271-net
                serial:28:68:12:B5:DF:FD:71:16:2D:95:F7:9F:24:08:B3:20:AE:0F:39:21

            X509v3 Extended Key Usage: 
                TLS Web Client Authentication
            X509v3 Key Usage: 
                Digital Signature
    Signature Algorithm: sha256WithRSAEncryption
         1b:6f:22:e5:2e:b9:a6:75:96:30:8e:cf:ac:05:e0:32:06:b3:
         12:8f:aa:be:31:36:7d:4f:cb:2e:fe:0e:41:c4:61:f4:01:0f:
         95:95:e9:d8:05:33:37:fe:56:c0:b5:5d:07:d4:6c:77:75:f3:
         f3:c5:75:d2:c5:62:88:29:0f:b2:55:a0:79:5f:07:3c:24:bb:
         ad:1b:91:2b:3b:8a:e9:d0:72:be:d6:23:1b:cb:3b:47:d3:25:
         f1:71:dc:21:1e:5f:9e:5d:54:4b:87:19:a2:5e:c8:bd:5f:28:
         4c:18:4f:a8:86:89:78:31:ef:f3:28:91:2a:91:a3:d9:c9:66:
         f9:c4:19:7b:46:f5:87:81:03:84:ae:47:c6:ba:cc:23:98:d1:
         36:89:d8:3b:12:ff:89:a4:47:ef:62:63:df:4a:6e:06:db:2c:
         0c:6b:4f:1b:a7:77:d3:d0:cb:05:c7:6d:cc:da:a1:a3:56:e3:
         45:14:6b:8a:58:7c:03:b6:72:5b:a4:c0:0d:64:62:45:a0:fe:
         f1:c1:3d:82:29:40:09:c4:17:8a:8a:03:fd:0f:95:e6:e2:88:
         29:6d:a4:b8:a1:f1:0c:56:0f:d6:1f:65:07:60:10:01:1c:03:
         25:e4:7d:6a:76:b1:a4:9d:ae:63:e0:c6:d5:3c:ed:0b:4e:32:
         0b:f4:4a:f1
-----BEGIN CERTIFICATE-----
MIIDXDCCAkSgAwIBAgIQcRqxLuIFIK73juU/L7V1ZDANBgkqhkiG9w0BAQsFADAW
MRQwEgYDVQQDDAt0ZWFtMjcxLW5ldDAeFw0yMjA1MTgxOTQ3MDRaFw0yNTA1MDIx
OTQ3MDRaMBkxFzAVBgNVBAMMDnRlYW0yNzEtY2xpZW50MIIBIjANBgkqhkiG9w0B
AQEFAAOCAQ8AMIIBCgKCAQEA1aEMl7F2YhxYaWaJQIwPAEO0/S7as34U6u6N8d7m
MATSIxGBRhwiSEyb5kppsjrWN1J20D9RyYaIlMoPRzMQhcsOgkYaFRP1u0GJdQy7
J2tZ7V3nf0Ya/k3lPR7f1C/vn+yZlWIGnL/Q6WCmX4Msqm4yXHLoCATWsbmlvebP
ewK0uIXUtgFwI/RWfeP9aiywEJ6lC4zQQUWusWzlFDr3lVqs8TgI5dk/2FYtuR4B
jVO6jFN5VVxLr+MfV0nZ5AyIWqT/vZ1ecO+xqcI2Z7Y2ZJp/llJdPo2dAqpaJmvO
kU2OdTJ90yejmOotM4MM74jOtU+E0cH7/ynCePClK6HvfQIDAQABo4GiMIGfMAkG
A1UdEwQCMAAwHQYDVR0OBBYEFKEtH1yJJJGlik+Cqd59FoRa6iGjMFEGA1UdIwRK
MEiAFBvFfr/Y5Ouv3gt1OHuS3ld241iPoRqkGDAWMRQwEgYDVQQDDAt0ZWFtMjcx
LW5ldIIUKGgStd/9cRYtlfefJAizIK4POSEwEwYDVR0lBAwwCgYIKwYBBQUHAwIw
CwYDVR0PBAQDAgeAMA0GCSqGSIb3DQEBCwUAA4IBAQAbbyLlLrmmdZYwjs+sBeAy
BrMSj6q+MTZ9T8su/g5BxGH0AQ+VlenYBTM3/lbAtV0H1Gx3dfPzxXXSxWKIKQ+y
VaB5Xwc8JLutG5ErO4rp0HK+1iMbyztH0yXxcdwhHl+eXVRLhxmiXsi9XyhMGE+o
hol4Me/zKJEqkaPZyWb5xBl7RvWHgQOErkfGuswjmNE2idg7Ev+JpEfvYmPfSm4G
2ywMa08bp3fT0MsFx23M2qGjVuNFFGuKWHwDtnJbpMANZGJFoP7xwT2CKUAJxBeK
igP9D5Xm4ogpbaS4ofEMVg/WH2UHYBABHAMl5H1qdrGkna5j4MbVPO0LTjIL9Erx
-----END CERTIFICATE-----
