Certificate:
    Data:
        Version: 3 (0x2)
        Serial Number:
            68:df:33:89:a8:2e:e6:71:42:97:08:04:24:17:fe:24
        Signature Algorithm: sha256WithRSAEncryption
        Issuer: CN=team699-net
        Validity
            Not Before: May 18 23:31:55 2022 GMT
            Not After : May  2 23:31:55 2025 GMT
        Subject: CN=team699-server
        Subject Public Key Info:
            Public Key Algorithm: rsaEncryption
                RSA Public-Key: (2048 bit)
                Modulus:
                    00:d3:10:99:8f:5e:83:39:49:4b:3c:cd:51:00:7b:
                    a1:c3:d7:bf:4b:89:e3:c9:3b:4a:4e:82:8a:58:d7:
                    aa:d6:95:01:91:0c:6c:63:12:1e:08:58:6e:d5:5a:
                    a5:fa:fd:b8:8d:42:04:c5:58:0b:1f:95:d2:34:41:
                    60:b8:80:26:21:a3:f0:e4:f5:85:ff:b0:5a:95:5f:
                    f1:35:f4:26:e5:8a:29:13:ea:c8:83:b0:b0:db:df:
                    3b:23:c2:cf:fd:43:77:d9:82:a2:1c:ae:06:5f:9a:
                    67:3d:71:49:4e:fa:05:20:de:1b:df:52:15:76:a6:
                    3f:55:63:e2:4d:54:04:f5:4b:2b:9e:70:48:bb:96:
                    c6:92:99:67:7c:02:31:31:45:50:f7:ae:da:d5:c2:
                    da:de:fd:22:f8:8a:d3:9d:00:9f:b4:51:2e:38:05:
                    cd:a1:53:9a:9a:bd:72:68:9c:7b:5f:d8:f4:cd:13:
                    60:bf:f8:a7:1d:92:bb:f3:0f:ed:a0:f1:8b:9d:66:
                    44:d7:39:b3:d9:e1:21:34:48:3f:3c:5a:78:e4:b6:
                    4d:d7:21:53:4f:e7:76:0f:b5:69:1a:cf:dd:c6:ae:
                    0f:51:a6:a4:37:39:36:24:98:10:4d:29:e3:af:ec:
                    08:09:c8:af:2a:8d:38:7f:6a:4b:11:b8:27:d7:70:
                    06:a5
                Exponent: 65537 (0x10001)
        X509v3 extensions:
            X509v3 Basic Constraints: 
                CA:FALSE
            X509v3 Subject Key Identifier: 
                EA:A0:1F:D6:90:59:F8:E6:63:43:85:BF:C5:AA:AA:9C:07:97:50:1A
            X509v3 Authority Key Identifier: 
                keyid:27:E4:51:5B:A4:E7:32:8C:88:59:29:7D:12:1B:64:17:20:90:4D:52
                DirName:/CN=team699-net
                serial:2D:9C:A1:CD:26:FC:10:21:A9:A4:B4:F9:EE:C5:37:DB:59:6F:34:35

            X509v3 Extended Key Usage: 
                TLS Web Server Authentication
            X509v3 Key Usage: 
                Digital Signature, Key Encipherment
            X509v3 Subject Alternative Name: 
                DNS:team699-server
    Signature Algorithm: sha256WithRSAEncryption
         9d:8d:a3:fa:3d:db:09:10:1c:e1:50:61:18:e0:94:16:6f:5b:
         84:d6:b1:3d:39:58:58:4b:09:c0:9d:ca:b1:92:38:aa:39:4c:
         62:6e:74:30:66:6a:dc:49:9a:59:45:be:e4:7b:71:42:d0:32:
         e8:00:f2:2b:1b:a4:b7:c8:06:f0:fa:e4:d3:cd:4b:9e:bc:4e:
         4f:2c:26:89:fa:e0:17:9b:a0:44:68:7e:5d:cd:c6:2b:4b:10:
         34:d1:9e:ee:d5:3c:fc:48:64:fa:04:d9:2b:37:dd:e2:90:7c:
         40:e8:48:52:60:51:07:80:16:d9:9f:49:4c:fd:64:87:e1:a5:
         18:99:8d:d4:bf:7b:7b:d9:40:b5:4c:34:54:5c:d7:cf:36:c1:
         af:84:62:89:f5:4f:2c:7a:95:eb:23:5b:85:1e:7e:d2:63:e2:
         f4:9b:0e:f2:ad:98:9d:f0:87:43:72:cf:d6:a7:f5:4d:cb:97:
         90:49:5e:4b:65:cc:73:64:e7:26:01:55:0d:36:c8:e3:2f:36:
         d2:95:bd:10:a2:21:33:20:6e:fa:67:a2:7d:e4:26:81:5c:52:
         14:e6:2f:44:94:8f:bd:7e:08:27:c1:8e:56:b9:a8:a0:10:a7:
         56:31:cc:b1:5f:5e:97:d7:6c:a9:05:1d:16:2e:72:38:71:b9:
         01:9d:02:d0
-----BEGIN CERTIFICATE-----
MIIDdzCCAl+gAwIBAgIQaN8ziagu5nFClwgEJBf+JDANBgkqhkiG9w0BAQsFADAW
MRQwEgYDVQQDDAt0ZWFtNjk5LW5ldDAeFw0yMjA1MTgyMzMxNTVaFw0yNTA1MDIy
MzMxNTVaMBkxFzAVBgNVBAMMDnRlYW02OTktc2VydmVyMIIBIjANBgkqhkiG9w0B
AQEFAAOCAQ8AMIIBCgKCAQEA0xCZj16DOUlLPM1RAHuhw9e/S4njyTtKToKKWNeq
1pUBkQxsYxIeCFhu1Vql+v24jUIExVgLH5XSNEFguIAmIaPw5PWF/7BalV/xNfQm
5YopE+rIg7Cw2987I8LP/UN32YKiHK4GX5pnPXFJTvoFIN4b31IVdqY/VWPiTVQE
9UsrnnBIu5bGkplnfAIxMUVQ967a1cLa3v0i+IrTnQCftFEuOAXNoVOamr1yaJx7
X9j0zRNgv/inHZK78w/toPGLnWZE1zmz2eEhNEg/PFp45LZN1yFTT+d2D7VpGs/d
xq4PUaakNzk2JJgQTSnjr+wICcivKo04f2pLEbgn13AGpQIDAQABo4G9MIG6MAkG
A1UdEwQCMAAwHQYDVR0OBBYEFOqgH9aQWfjmY0OFv8WqqpwHl1AaMFEGA1UdIwRK
MEiAFCfkUVuk5zKMiFkpfRIbZBcgkE1SoRqkGDAWMRQwEgYDVQQDDAt0ZWFtNjk5
LW5ldIIULZyhzSb8ECGppLT57sU321lvNDUwEwYDVR0lBAwwCgYIKwYBBQUHAwEw
CwYDVR0PBAQDAgWgMBkGA1UdEQQSMBCCDnRlYW02OTktc2VydmVyMA0GCSqGSIb3
DQEBCwUAA4IBAQCdjaP6PdsJEBzhUGEY4JQWb1uE1rE9OVhYSwnAncqxkjiqOUxi
bnQwZmrcSZpZRb7ke3FC0DLoAPIrG6S3yAbw+uTTzUuevE5PLCaJ+uAXm6BEaH5d
zcYrSxA00Z7u1Tz8SGT6BNkrN93ikHxA6EhSYFEHgBbZn0lM/WSH4aUYmY3Uv3t7
2UC1TDRUXNfPNsGvhGKJ9U8sepXrI1uFHn7SY+L0mw7yrZid8IdDcs/Wp/VNy5eQ
SV5LZcxzZOcmAVUNNsjjLzbSlb0QoiEzIG76Z6J95CaBXFIU5i9ElI+9fggnwY5W
uaigEKdWMcyxX16X12ypBR0WLnI4cbkBnQLQ
-----END CERTIFICATE-----
