Certificate:
    Data:
        Version: 3 (0x2)
        Serial Number:
            be:20:5b:55:17:80:c4:4e:d4:57:62:4f:a3:04:4e:19
        Signature Algorithm: sha256WithRSAEncryption
        Issuer: CN=team699-net
        Validity
            Not Before: May 18 23:31:55 2022 GMT
            Not After : May  2 23:31:55 2025 GMT
        Subject: CN=team699-client
        Subject Public Key Info:
            Public Key Algorithm: rsaEncryption
                RSA Public-Key: (2048 bit)
                Modulus:
                    00:dc:d3:f6:4d:72:be:f4:4c:3d:60:58:f9:d6:89:
                    dc:6a:bd:74:3e:7a:35:a1:fe:f4:6c:51:ba:44:11:
                    31:d6:ea:9c:42:6c:12:08:7f:7a:14:df:47:16:be:
                    9d:0b:2e:d3:62:12:26:7f:87:0f:d1:22:5c:29:31:
                    0c:53:a9:66:3d:6b:2d:60:9b:de:d0:e3:8d:3b:4a:
                    6a:d5:55:0c:81:20:40:04:f6:ce:97:03:8f:a4:c4:
                    27:cf:8d:98:98:16:8e:d1:4a:3d:4f:24:7b:84:5a:
                    f6:20:ac:5c:50:4f:f4:c0:2d:43:a8:a5:f9:2c:a7:
                    0e:77:c8:8c:2d:6f:93:1b:33:f1:a9:e8:47:db:08:
                    21:07:af:26:03:2c:4e:c7:ba:dc:8e:71:a5:d7:a4:
                    99:9a:af:34:17:8f:4a:ca:90:d0:1a:a5:d4:d0:9c:
                    36:dd:4b:8d:5c:50:35:88:c4:28:12:f1:d2:b5:ba:
                    86:fe:e7:e7:8f:c8:cc:46:12:f3:87:b8:5a:f8:8a:
                    47:c9:b4:0c:01:0f:b8:3a:69:cb:ea:2a:f3:41:f3:
                    90:6b:64:eb:a0:f3:33:11:ad:d5:ef:e3:18:5b:4a:
                    7d:e2:f0:01:5d:80:7e:ed:fe:7b:e8:b1:05:c6:56:
                    f9:a4:8b:c7:cb:0d:99:72:bb:f7:99:49:03:69:34:
                    24:cf
                Exponent: 65537 (0x10001)
        X509v3 extensions:
            X509v3 Basic Constraints: 
                CA:FALSE
            X509v3 Subject Key Identifier: 
                04:86:E4:3B:40:66:3E:6C:79:99:41:24:7C:B5:E5:A8:61:A2:A4:C8
            X509v3 Authority Key Identifier: 
                keyid:27:E4:51:5B:A4:E7:32:8C:88:59:29:7D:12:1B:64:17:20:90:4D:52
                DirName:/CN=team699-net
                serial:2D:9C:A1:CD:26:FC:10:21:A9:A4:B4:F9:EE:C5:37:DB:59:6F:34:35

            X509v3 Extended Key Usage: 
                TLS Web Client Authentication
            X509v3 Key Usage: 
                Digital Signature
    Signature Algorithm: sha256WithRSAEncryption
         2e:7e:73:a5:be:3d:bb:ea:e1:b9:9f:c6:a8:5d:3e:c9:ba:1e:
         f4:cf:fd:e7:8e:a6:de:90:13:5b:1c:14:6f:de:6c:eb:2f:6b:
         55:9a:fb:39:3b:af:b7:37:89:cc:d6:0e:fa:32:f0:61:e7:d2:
         d4:5d:07:45:0a:b0:33:1a:02:d6:dd:0f:aa:fa:6f:09:1f:70:
         2e:85:9a:fc:91:79:a9:bb:ec:51:7e:10:2a:e7:38:14:1d:75:
         1d:84:22:79:b5:a3:9d:4b:48:51:7a:29:0e:22:31:91:ea:fa:
         da:f5:4e:5d:8c:d2:87:31:0a:02:00:a3:55:25:07:9e:cf:d5:
         11:44:d9:16:20:0b:75:94:db:dd:a0:fc:3b:a9:36:d8:73:03:
         a0:a1:d2:ca:e3:e1:16:69:32:7c:c6:b3:a7:4c:51:d4:d5:7f:
         b5:e4:f5:36:e6:31:8a:1e:ff:76:04:80:86:b1:fa:d5:52:f2:
         ca:e2:f7:f0:8d:4d:86:c8:fa:f3:8a:9a:e7:f4:e9:e0:76:14:
         86:cc:7a:56:b9:75:d8:a3:a0:aa:5c:35:58:3f:58:36:3a:dc:
         f0:e4:f7:c4:69:99:a0:8d:fd:7a:26:6b:e1:59:4d:32:9f:19:
         01:17:79:8c:2e:43:ae:97:6b:15:21:42:b7:f3:c2:1d:3c:65:
         6c:04:92:b5
-----BEGIN CERTIFICATE-----
MIIDXTCCAkWgAwIBAgIRAL4gW1UXgMRO1FdiT6METhkwDQYJKoZIhvcNAQELBQAw
FjEUMBIGA1UEAwwLdGVhbTY5OS1uZXQwHhcNMjIwNTE4MjMzMTU1WhcNMjUwNTAy
MjMzMTU1WjAZMRcwFQYDVQQDDA50ZWFtNjk5LWNsaWVudDCCASIwDQYJKoZIhvcN
AQEBBQADggEPADCCAQoCggEBANzT9k1yvvRMPWBY+daJ3Gq9dD56NaH+9GxRukQR
MdbqnEJsEgh/ehTfRxa+nQsu02ISJn+HD9EiXCkxDFOpZj1rLWCb3tDjjTtKatVV
DIEgQAT2zpcDj6TEJ8+NmJgWjtFKPU8ke4Ra9iCsXFBP9MAtQ6il+SynDnfIjC1v
kxsz8anoR9sIIQevJgMsTse63I5xpdekmZqvNBePSsqQ0Bql1NCcNt1LjVxQNYjE
KBLx0rW6hv7n54/IzEYS84e4WviKR8m0DAEPuDppy+oq80HzkGtk66DzMxGt1e/j
GFtKfeLwAV2Afu3+e+ixBcZW+aSLx8sNmXK795lJA2k0JM8CAwEAAaOBojCBnzAJ
BgNVHRMEAjAAMB0GA1UdDgQWBBQEhuQ7QGY+bHmZQSR8teWoYaKkyDBRBgNVHSME
SjBIgBQn5FFbpOcyjIhZKX0SG2QXIJBNUqEapBgwFjEUMBIGA1UEAwwLdGVhbTY5
OS1uZXSCFC2coc0m/BAhqaS0+e7FN9tZbzQ1MBMGA1UdJQQMMAoGCCsGAQUFBwMC
MAsGA1UdDwQEAwIHgDANBgkqhkiG9w0BAQsFAAOCAQEALn5zpb49u+rhuZ/GqF0+
yboe9M/9546m3pATWxwUb95s6y9rVZr7OTuvtzeJzNYO+jLwYefS1F0HRQqwMxoC
1t0PqvpvCR9wLoWa/JF5qbvsUX4QKuc4FB11HYQiebWjnUtIUXopDiIxker62vVO
XYzShzEKAgCjVSUHns/VEUTZFiALdZTb3aD8O6k22HMDoKHSyuPhFmkyfMazp0xR
1NV/teT1NuYxih7/dgSAhrH61VLyyuL38I1Nhsj684qa5/Tp4HYUhsx6Vrl12KOg
qlw1WD9YNjrc8OT3xGmZoI39eiZr4VlNMp8ZARd5jC5DrpdrFSFCt/PCHTxlbASS
tQ==
-----END CERTIFICATE-----
