Certificate:
    Data:
        Version: 3 (0x2)
        Serial Number:
            03:34:f8:d8:ec:ca:b1:eb:e0:62:a4:ae:92:3c:11:1f
        Signature Algorithm: sha256WithRSAEncryption
        Issuer: CN=team325-net
        Validity
            Not Before: May 18 20:23:25 2022 GMT
            Not After : May  2 20:23:25 2025 GMT
        Subject: CN=team325-server
        Subject Public Key Info:
            Public Key Algorithm: rsaEncryption
                RSA Public-Key: (2048 bit)
                Modulus:
                    00:b6:54:3d:6a:94:38:19:8f:8c:cf:f4:e8:76:b6:
                    a4:69:67:6d:7c:ba:69:ee:27:07:54:6c:4c:4d:92:
                    43:90:f5:87:cc:66:2b:82:82:a8:69:76:71:fd:1f:
                    86:5b:ba:b5:61:6e:40:03:41:59:36:2d:6d:9e:42:
                    62:73:c6:fb:1a:0c:1c:bb:67:7a:59:a4:ce:28:08:
                    30:5c:2f:b6:bd:e4:01:e1:85:fc:86:ef:03:4b:b7:
                    3f:ea:2f:34:ca:fa:46:06:57:c0:7d:ac:c1:45:ec:
                    e5:e2:a1:fc:c7:c1:64:3a:57:b1:51:ff:69:e4:af:
                    bf:3c:6e:dc:7c:76:19:71:27:92:f5:23:19:67:f4:
                    ac:ea:7d:27:63:74:a3:ab:03:c3:81:fc:b0:c1:df:
                    28:bb:4b:c1:7c:d8:2b:de:a2:53:d1:95:67:9d:45:
                    a3:d3:67:9e:4d:33:b1:9f:c8:ef:1b:8e:ee:69:6a:
                    40:73:46:a2:8f:77:d0:03:22:bb:dd:ea:00:e2:87:
                    97:da:27:47:06:eb:eb:b4:1c:90:8e:5c:c9:3b:6d:
                    b5:65:68:6e:1a:98:ec:ae:27:56:23:bc:07:17:06:
                    c8:8a:d3:76:b6:07:a6:90:fc:82:96:06:3d:cb:f6:
                    39:98:0b:31:b4:97:42:02:5f:ac:4a:f7:24:d8:53:
                    a3:f5
                Exponent: 65537 (0x10001)
        X509v3 extensions:
            X509v3 Basic Constraints: 
                CA:FALSE
            X509v3 Subject Key Identifier: 
                C6:72:A7:7E:EE:F7:3C:9C:63:51:CD:84:4A:34:26:E2:00:0E:B0:61
            X509v3 Authority Key Identifier: 
                keyid:7B:A6:65:77:C8:B1:AA:56:41:18:AB:3B:BE:AC:D7:86:A2:C8:EB:2D
                DirName:/CN=team325-net
                serial:24:18:84:07:B2:B6:55:46:A5:92:1A:21:A4:A9:88:04:43:1E:17:E4

            X509v3 Extended Key Usage: 
                TLS Web Server Authentication
            X509v3 Key Usage: 
                Digital Signature, Key Encipherment
            X509v3 Subject Alternative Name: 
                DNS:team325-server
    Signature Algorithm: sha256WithRSAEncryption
         36:a0:23:10:a2:53:e0:87:67:f4:3b:41:41:06:84:1d:6f:a7:
         47:98:80:10:96:e4:e7:11:1d:f6:a4:a1:38:be:bb:5f:cf:e0:
         b8:2b:42:ef:ba:e0:f5:04:b0:8d:b3:8b:de:66:46:f7:f0:40:
         a8:d1:f1:58:d0:e9:91:26:ad:07:a2:84:d0:a4:6f:2a:bd:ab:
         d0:80:ed:0e:19:5e:4d:a7:74:7c:50:89:1c:43:74:44:cf:f9:
         4a:4d:57:43:df:e4:a5:21:78:70:1f:7b:7e:9d:d6:90:1b:44:
         a4:e2:da:ae:48:61:96:e9:95:bf:2d:17:45:35:fb:9a:72:5e:
         f0:da:c8:92:0b:ef:95:b7:a1:83:12:6a:a6:b7:c1:b5:cb:49:
         16:40:c0:c7:36:44:4f:cd:76:9f:c6:8a:68:9c:63:23:47:62:
         33:0c:34:fd:f3:35:9a:fa:7b:01:12:35:dd:e6:9c:e1:0f:3c:
         18:ba:cd:74:b8:6b:4f:5d:59:17:17:cc:45:0b:57:da:f8:25:
         77:39:92:b6:09:a8:39:fb:4a:8d:78:e4:84:46:69:23:38:9d:
         36:87:8e:9e:3d:5c:15:e1:6e:e0:2d:a9:1a:25:9a:0c:94:18:
         45:30:ea:37:5b:78:b4:b7:29:e2:db:7d:46:7b:46:5d:eb:6c:
         bf:6f:43:0c
-----BEGIN CERTIFICATE-----
MIIDdzCCAl+gAwIBAgIQAzT42OzKsevgYqSukjwRHzANBgkqhkiG9w0BAQsFADAW
MRQwEgYDVQQDDAt0ZWFtMzI1LW5ldDAeFw0yMjA1MTgyMDIzMjVaFw0yNTA1MDIy
MDIzMjVaMBkxFzAVBgNVBAMMDnRlYW0zMjUtc2VydmVyMIIBIjANBgkqhkiG9w0B
AQEFAAOCAQ8AMIIBCgKCAQEAtlQ9apQ4GY+Mz/TodrakaWdtfLpp7icHVGxMTZJD
kPWHzGYrgoKoaXZx/R+GW7q1YW5AA0FZNi1tnkJic8b7Ggwcu2d6WaTOKAgwXC+2
veQB4YX8hu8DS7c/6i80yvpGBlfAfazBRezl4qH8x8FkOlexUf9p5K+/PG7cfHYZ
cSeS9SMZZ/Ss6n0nY3SjqwPDgfywwd8ou0vBfNgr3qJT0ZVnnUWj02eeTTOxn8jv
G47uaWpAc0aij3fQAyK73eoA4oeX2idHBuvrtByQjlzJO221ZWhuGpjsridWI7wH
FwbIitN2tgemkPyClgY9y/Y5mAsxtJdCAl+sSvck2FOj9QIDAQABo4G9MIG6MAkG
A1UdEwQCMAAwHQYDVR0OBBYEFMZyp37u9zycY1HNhEo0JuIADrBhMFEGA1UdIwRK
MEiAFHumZXfIsapWQRirO76s14aiyOstoRqkGDAWMRQwEgYDVQQDDAt0ZWFtMzI1
LW5ldIIUJBiEB7K2VUalkhohpKmIBEMeF+QwEwYDVR0lBAwwCgYIKwYBBQUHAwEw
CwYDVR0PBAQDAgWgMBkGA1UdEQQSMBCCDnRlYW0zMjUtc2VydmVyMA0GCSqGSIb3
DQEBCwUAA4IBAQA2oCMQolPgh2f0O0FBBoQdb6dHmIAQluTnER32pKE4vrtfz+C4
K0LvuuD1BLCNs4veZkb38ECo0fFY0OmRJq0HooTQpG8qvavQgO0OGV5Np3R8UIkc
Q3REz/lKTVdD3+SlIXhwH3t+ndaQG0Sk4tquSGGW6ZW/LRdFNfuacl7w2siSC++V
t6GDEmqmt8G1y0kWQMDHNkRPzXafxoponGMjR2IzDDT98zWa+nsBEjXd5pzhDzwY
us10uGtPXVkXF8xFC1fa+CV3OZK2Cag5+0qNeOSERmkjOJ02h46ePVwV4W7gLaka
JZoMlBhFMOo3W3i0tyni231Ge0Zd62y/b0MM
-----END CERTIFICATE-----
