Certificate:
    Data:
        Version: 3 (0x2)
        Serial Number:
            d2:b5:83:c6:5f:5b:c0:09:1d:e7:52:6e:0d:70:aa:0b
        Signature Algorithm: sha256WithRSAEncryption
        Issuer: CN=team630-net
        Validity
            Not Before: May 18 22:54:27 2022 GMT
            Not After : May  2 22:54:27 2025 GMT
        Subject: CN=team630-client
        Subject Public Key Info:
            Public Key Algorithm: rsaEncryption
                RSA Public-Key: (2048 bit)
                Modulus:
                    00:f9:99:5b:46:9f:64:39:9e:9f:01:54:3b:46:c7:
                    58:04:bc:ee:e3:3a:2d:c4:5c:22:ef:ad:46:15:b9:
                    26:49:62:ce:aa:95:e7:20:1e:72:d6:69:28:fe:8d:
                    21:73:3a:74:c0:77:7c:e5:3b:37:47:4c:08:33:84:
                    b5:3e:f8:8e:15:d4:fe:58:54:c3:81:99:4e:b1:6a:
                    93:85:2e:06:f4:5b:bb:7b:19:f5:35:e6:27:91:30:
                    66:70:c4:55:96:11:80:57:40:7b:94:81:ac:58:5f:
                    f4:60:60:fa:0c:76:1d:7c:53:9a:a4:0b:4f:bc:72:
                    fe:1c:c1:9c:9b:b1:98:b6:21:20:74:24:d1:8f:75:
                    66:e2:7f:95:3a:6a:fa:19:17:32:d0:ed:9a:49:f0:
                    00:7c:f6:1e:bb:0e:00:fc:69:a2:aa:d8:93:29:3f:
                    ce:87:0f:b6:f7:67:2e:14:5c:59:d7:6d:de:cf:d8:
                    da:b6:44:34:12:72:42:26:22:d9:48:ea:67:72:29:
                    df:98:8d:cb:3b:6a:66:7c:d1:9a:92:ec:78:53:3d:
                    1f:b6:32:22:a6:61:75:e7:7a:4a:c4:be:ec:59:35:
                    98:31:92:9f:f3:34:d0:19:bf:cc:48:2c:b3:03:90:
                    b3:8d:33:47:01:62:64:fb:ca:e5:79:7b:33:b1:1d:
                    09:d1
                Exponent: 65537 (0x10001)
        X509v3 extensions:
            X509v3 Basic Constraints: 
                CA:FALSE
            X509v3 Subject Key Identifier: 
                1E:56:33:1A:D4:BA:D7:CA:77:8A:E5:32:AF:A9:1B:30:22:12:F1:4E
            X509v3 Authority Key Identifier: 
                keyid:41:E1:4F:2F:B5:B8:B8:9E:67:37:88:71:6E:E1:2C:5E:F2:09:E5:6A
                DirName:/CN=team630-net
                serial:44:C8:57:E9:D5:9A:BE:9D:1E:08:80:4F:7D:AD:1D:03:6F:E8:23:07

            X509v3 Extended Key Usage: 
                TLS Web Client Authentication
            X509v3 Key Usage: 
                Digital Signature
    Signature Algorithm: sha256WithRSAEncryption
         08:ce:eb:0b:80:cf:6c:25:dc:a4:ea:e7:c2:01:ee:7e:04:d1:
         99:7c:55:af:90:c7:56:7f:dd:34:3f:81:6c:bb:e0:d4:19:1c:
         35:a8:1e:cd:40:59:67:55:5c:bf:c2:f9:78:96:e6:48:bb:26:
         65:8e:15:74:64:d5:d3:27:64:e0:f0:f1:e2:71:c8:91:0f:d1:
         5b:a7:00:dc:91:2c:18:b6:0b:37:59:bb:56:6b:ad:1e:6b:40:
         b6:f3:1b:a9:ba:1d:3b:f1:04:46:ec:2f:a0:b3:a9:2c:8b:20:
         65:fe:ab:21:c1:42:3f:16:5e:da:a3:f7:3d:f9:0b:c2:c8:e4:
         9c:f6:d9:79:8f:5a:85:bc:11:8f:ec:14:2d:61:3e:ae:49:30:
         79:96:f5:b3:29:9c:78:d3:eb:9a:f3:cf:9d:bb:10:48:15:33:
         f0:d2:14:cf:fd:78:09:8f:28:e3:fd:b4:f5:da:85:ed:6c:a7:
         47:5e:3f:3a:2d:80:4d:74:12:db:cf:eb:7b:18:0c:6e:cd:6c:
         06:68:9e:a7:b3:a6:96:d1:f0:e3:ff:d5:a6:ef:80:01:4a:b2:
         4b:2c:b6:1a:bc:0e:81:68:74:42:dc:0f:a3:48:ae:37:ae:83:
         06:a3:ee:fa:14:cc:43:8c:05:48:1a:e9:12:d9:71:a4:46:5f:
         41:fb:e4:df
-----BEGIN CERTIFICATE-----
MIIDXTCCAkWgAwIBAgIRANK1g8ZfW8AJHedSbg1wqgswDQYJKoZIhvcNAQELBQAw
FjEUMBIGA1UEAwwLdGVhbTYzMC1uZXQwHhcNMjIwNTE4MjI1NDI3WhcNMjUwNTAy
MjI1NDI3WjAZMRcwFQYDVQQDDA50ZWFtNjMwLWNsaWVudDCCASIwDQYJKoZIhvcN
AQEBBQADggEPADCCAQoCggEBAPmZW0afZDmenwFUO0bHWAS87uM6LcRcIu+tRhW5
JklizqqV5yAectZpKP6NIXM6dMB3fOU7N0dMCDOEtT74jhXU/lhUw4GZTrFqk4Uu
BvRbu3sZ9TXmJ5EwZnDEVZYRgFdAe5SBrFhf9GBg+gx2HXxTmqQLT7xy/hzBnJux
mLYhIHQk0Y91ZuJ/lTpq+hkXMtDtmknwAHz2HrsOAPxpoqrYkyk/zocPtvdnLhRc
Wddt3s/Y2rZENBJyQiYi2UjqZ3Ip35iNyztqZnzRmpLseFM9H7YyIqZhded6SsS+
7Fk1mDGSn/M00Bm/zEgsswOQs40zRwFiZPvK5Xl7M7EdCdECAwEAAaOBojCBnzAJ
BgNVHRMEAjAAMB0GA1UdDgQWBBQeVjMa1LrXyneK5TKvqRswIhLxTjBRBgNVHSME
SjBIgBRB4U8vtbi4nmc3iHFu4Sxe8gnlaqEapBgwFjEUMBIGA1UEAwwLdGVhbTYz
MC1uZXSCFETIV+nVmr6dHgiAT32tHQNv6CMHMBMGA1UdJQQMMAoGCCsGAQUFBwMC
MAsGA1UdDwQEAwIHgDANBgkqhkiG9w0BAQsFAAOCAQEACM7rC4DPbCXcpOrnwgHu
fgTRmXxVr5DHVn/dND+BbLvg1BkcNagezUBZZ1Vcv8L5eJbmSLsmZY4VdGTV0ydk
4PDx4nHIkQ/RW6cA3JEsGLYLN1m7VmutHmtAtvMbqbodO/EERuwvoLOpLIsgZf6r
IcFCPxZe2qP3PfkLwsjknPbZeY9ahbwRj+wULWE+rkkweZb1symceNPrmvPPnbsQ
SBUz8NIUz/14CY8o4/209dqF7WynR14/Oi2ATXQS28/rexgMbs1sBmiep7OmltHw
4//Vpu+AAUqySyy2GrwOgWh0QtwPo0iuN66DBqPu+hTMQ4wFSBrpEtlxpEZfQfvk
3w==
-----END CERTIFICATE-----
