Certificate:
    Data:
        Version: 3 (0x2)
        Serial Number:
            e5:95:ea:20:18:d7:60:32:bb:fb:f1:0a:bb:16:3c:91
        Signature Algorithm: sha256WithRSAEncryption
        Issuer: CN=team397-net
        Validity
            Not Before: May 18 20:48:19 2022 GMT
            Not After : May  2 20:48:19 2025 GMT
        Subject: CN=team397-server
        Subject Public Key Info:
            Public Key Algorithm: rsaEncryption
                RSA Public-Key: (2048 bit)
                Modulus:
                    00:ac:8a:89:3b:83:55:86:a9:88:e9:c2:ab:97:a0:
                    17:19:48:74:71:c0:d1:13:8e:f3:1f:ad:3d:67:66:
                    41:a2:40:97:c9:11:78:ef:f6:a0:c8:0a:ba:31:29:
                    1d:90:b4:f0:b6:d2:44:9e:e4:f5:42:78:48:40:24:
                    fa:06:56:db:06:83:36:75:84:9b:bd:9f:c3:00:1b:
                    b9:b5:e9:4e:c1:f8:0f:ff:e6:26:3f:ce:a8:9d:cf:
                    74:64:05:b6:83:3e:e3:9a:cb:1e:cc:b0:37:fc:70:
                    89:00:2d:fd:26:15:ce:4d:36:06:54:1a:90:b3:57:
                    96:cb:dd:28:41:5a:c4:a6:75:5a:b2:73:c4:4a:ea:
                    58:64:8c:33:44:a3:38:4d:6d:96:c8:31:ba:f6:ac:
                    8c:e0:5a:0e:98:96:42:c5:28:fa:48:1b:c6:10:ed:
                    0d:5a:e4:00:dc:51:67:d8:d7:99:34:91:11:ef:18:
                    aa:f4:cb:b6:ed:51:d1:50:89:a1:74:20:20:ae:8a:
                    e9:79:82:25:24:41:b1:62:d6:9f:f0:98:48:4d:d1:
                    dd:95:4f:d8:2f:ab:fc:ea:ef:f5:d9:21:9e:12:a7:
                    fb:24:cb:0d:1c:44:3c:90:ed:ba:e1:22:48:17:58:
                    9a:9b:cf:0a:d5:8f:f2:28:2a:88:ca:1a:b0:56:c0:
                    b5:5b
                Exponent: 65537 (0x10001)
        X509v3 extensions:
            X509v3 Basic Constraints: 
                CA:FALSE
            X509v3 Subject Key Identifier: 
                B0:40:19:5C:85:40:3D:0B:1C:E0:82:6F:80:64:35:2D:A3:CE:92:86
            X509v3 Authority Key Identifier: 
                keyid:C1:46:4F:8B:C8:4E:C5:9E:CF:33:29:7C:B1:4C:4A:04:4F:6A:93:70
                DirName:/CN=team397-net
                serial:3D:13:A3:95:D2:D0:0C:73:DC:0A:83:CC:E1:0B:D3:DF:BD:8D:21:AF

            X509v3 Extended Key Usage: 
                TLS Web Server Authentication
            X509v3 Key Usage: 
                Digital Signature, Key Encipherment
            X509v3 Subject Alternative Name: 
                DNS:team397-server
    Signature Algorithm: sha256WithRSAEncryption
         60:a3:6a:be:00:9d:d0:b2:34:db:fe:d7:59:56:72:60:d4:17:
         f9:39:a5:3f:f4:5b:f0:0b:a3:65:b8:5c:4a:78:79:c6:43:c7:
         9d:de:fb:60:95:26:7d:08:12:59:40:48:0f:3d:d1:e3:8d:c3:
         87:3a:68:e6:39:1d:dd:cd:c9:65:2c:a5:eb:d4:59:d1:f0:c9:
         cc:36:0d:f6:c2:0c:61:91:b5:68:af:48:f7:17:e6:1c:11:c5:
         6e:48:8a:e7:b5:ca:0b:f3:88:21:87:4c:84:81:ab:5a:23:1a:
         9a:19:56:9d:03:68:7e:01:59:16:85:4e:02:36:03:68:a9:4f:
         b5:71:e3:b2:9e:2d:ad:15:ab:7e:0b:20:4e:f1:8d:f7:20:70:
         0c:dd:ef:72:55:53:86:6b:fd:b6:04:9c:e1:3f:d8:51:b1:49:
         e5:b4:15:8b:a8:fb:42:94:4e:44:ce:2e:49:35:4f:70:8a:a8:
         a7:db:b1:34:de:da:0e:22:68:5e:e8:6d:b8:6d:9a:aa:c1:1a:
         bc:54:ec:76:4b:50:b4:a5:15:2a:ca:06:5f:40:aa:bc:a0:8b:
         11:48:1f:94:3a:8a:cf:46:37:d5:7d:cc:92:c7:30:ee:a0:be:
         f6:39:af:45:41:66:e9:1a:93:d8:bc:4a:7d:fa:eb:7a:52:26:
         a9:ae:77:e4
-----BEGIN CERTIFICATE-----
MIIDeDCCAmCgAwIBAgIRAOWV6iAY12Ayu/vxCrsWPJEwDQYJKoZIhvcNAQELBQAw
FjEUMBIGA1UEAwwLdGVhbTM5Ny1uZXQwHhcNMjIwNTE4MjA0ODE5WhcNMjUwNTAy
MjA0ODE5WjAZMRcwFQYDVQQDDA50ZWFtMzk3LXNlcnZlcjCCASIwDQYJKoZIhvcN
AQEBBQADggEPADCCAQoCggEBAKyKiTuDVYapiOnCq5egFxlIdHHA0ROO8x+tPWdm
QaJAl8kReO/2oMgKujEpHZC08LbSRJ7k9UJ4SEAk+gZW2waDNnWEm72fwwAbubXp
TsH4D//mJj/OqJ3PdGQFtoM+45rLHsywN/xwiQAt/SYVzk02BlQakLNXlsvdKEFa
xKZ1WrJzxErqWGSMM0SjOE1tlsgxuvasjOBaDpiWQsUo+kgbxhDtDVrkANxRZ9jX
mTSREe8YqvTLtu1R0VCJoXQgIK6K6XmCJSRBsWLWn/CYSE3R3ZVP2C+r/Orv9dkh
nhKn+yTLDRxEPJDtuuEiSBdYmpvPCtWP8igqiMoasFbAtVsCAwEAAaOBvTCBujAJ
BgNVHRMEAjAAMB0GA1UdDgQWBBSwQBlchUA9Cxzggm+AZDUto86ShjBRBgNVHSME
SjBIgBTBRk+LyE7Fns8zKXyxTEoET2qTcKEapBgwFjEUMBIGA1UEAwwLdGVhbTM5
Ny1uZXSCFD0To5XS0Axz3AqDzOEL09+9jSGvMBMGA1UdJQQMMAoGCCsGAQUFBwMB
MAsGA1UdDwQEAwIFoDAZBgNVHREEEjAQgg50ZWFtMzk3LXNlcnZlcjANBgkqhkiG
9w0BAQsFAAOCAQEAYKNqvgCd0LI02/7XWVZyYNQX+TmlP/Rb8AujZbhcSnh5xkPH
nd77YJUmfQgSWUBIDz3R443Dhzpo5jkd3c3JZSyl69RZ0fDJzDYN9sIMYZG1aK9I
9xfmHBHFbkiK57XKC/OIIYdMhIGrWiMamhlWnQNofgFZFoVOAjYDaKlPtXHjsp4t
rRWrfgsgTvGN9yBwDN3vclVThmv9tgSc4T/YUbFJ5bQVi6j7QpRORM4uSTVPcIqo
p9uxNN7aDiJoXuhtuG2aqsEavFTsdktQtKUVKsoGX0CqvKCLEUgflDqKz0Y31X3M
kscw7qC+9jmvRUFm6RqT2LxKffrrelImqa535A==
-----END CERTIFICATE-----
