Certificate:
    Data:
        Version: 3 (0x2)
        Serial Number:
            1d:b0:9e:8b:51:ac:85:a9:26:4f:cc:4d:e4:d7:a2:84
        Signature Algorithm: sha256WithRSAEncryption
        Issuer: CN=team758-net
        Validity
            Not Before: May 19 00:18:27 2022 GMT
            Not After : May  3 00:18:27 2025 GMT
        Subject: CN=team758-client
        Subject Public Key Info:
            Public Key Algorithm: rsaEncryption
                RSA Public-Key: (2048 bit)
                Modulus:
                    00:b9:7a:c9:dd:d5:64:85:5f:17:51:5e:8e:0c:dd:
                    be:dc:00:f2:3c:c6:63:b1:1e:d3:5e:76:e9:37:83:
                    4b:1d:81:dd:70:16:da:b0:ed:4f:b6:c5:73:99:d9:
                    9e:d5:f8:0a:1f:46:36:29:e9:8d:f6:fd:91:be:79:
                    af:bb:54:ec:0d:52:c0:0f:89:3a:ad:8b:23:66:28:
                    f4:8e:64:a6:31:f6:c5:4d:02:69:67:31:b7:6c:63:
                    c9:06:11:59:a5:17:dd:ef:13:c7:c5:86:51:28:4f:
                    79:4c:bc:62:66:42:22:b7:dc:5f:dd:9b:5c:59:72:
                    ca:6b:1c:59:5e:a3:d0:6f:1c:81:a4:f6:df:02:46:
                    88:58:a8:a6:02:71:2e:7c:64:48:02:27:9b:4e:07:
                    66:d7:c6:69:50:57:cf:5d:29:f8:b3:c5:31:fc:e1:
                    94:d9:34:64:88:86:d3:17:74:e8:e8:ae:56:65:20:
                    de:cb:f2:a2:09:1d:d7:9b:ec:ea:85:ce:5c:ba:e6:
                    b1:55:60:5c:c6:64:de:4d:92:8a:21:45:3e:25:3e:
                    55:c4:de:0c:e8:29:86:61:ec:e8:ea:73:07:22:ad:
                    53:e6:82:71:88:f0:cc:58:3d:a0:ef:0c:90:c8:3b:
                    4a:ec:fc:4a:4f:14:ec:64:a7:3f:f2:d1:84:96:3b:
                    e5:fd
                Exponent: 65537 (0x10001)
        X509v3 extensions:
            X509v3 Basic Constraints: 
                CA:FALSE
            X509v3 Subject Key Identifier: 
                6C:B4:67:0D:1A:B5:FD:16:85:E1:06:BA:02:2C:03:AC:0C:7E:84:3B
            X509v3 Authority Key Identifier: 
                keyid:DE:03:A9:AD:59:99:06:B0:A6:0F:32:CE:3C:E3:32:FE:18:A6:C3:65
                DirName:/CN=team758-net
                serial:68:41:1B:58:51:AF:8E:24:F7:FC:C7:5E:AE:88:82:C8:60:B2:A1:B2

            X509v3 Extended Key Usage: 
                TLS Web Client Authentication
            X509v3 Key Usage: 
                Digital Signature
    Signature Algorithm: sha256WithRSAEncryption
         17:19:09:7e:24:e3:98:bd:28:c5:e4:2d:aa:8b:8d:0e:3c:2f:
         65:04:b7:4b:f0:6a:bc:40:f1:9b:54:a1:e9:04:0d:34:0e:16:
         03:d7:44:e6:51:55:f5:91:45:56:f5:81:8d:06:3e:eb:df:a1:
         0a:c1:5e:f9:6a:ac:6f:cb:a3:d1:e7:6c:36:90:f2:45:16:8c:
         ca:4b:a6:d1:fb:a5:6b:a1:f6:ed:c3:4f:97:b4:f6:e5:77:c3:
         cb:81:91:e3:82:f5:c0:b8:2f:7e:eb:b5:07:23:9a:82:e1:6c:
         9a:59:4d:b6:a7:ca:02:dc:28:5c:64:5e:17:a8:1f:0f:ab:45:
         00:15:81:b7:41:30:23:ab:4c:58:43:29:82:15:a1:44:37:cb:
         68:1f:44:5e:42:dc:a6:ee:99:55:55:51:4f:f0:ef:8d:3e:9c:
         77:70:78:c9:8a:bf:97:71:e5:7d:a4:88:db:d2:72:cb:5b:24:
         08:49:c7:11:0e:6f:07:ac:4f:69:9b:b7:85:4b:50:a8:1a:99:
         c9:0b:4a:3f:4e:e5:4a:aa:ec:ef:05:7c:df:57:ab:92:d0:6d:
         32:a0:d3:b1:64:0b:f4:25:ae:e7:f5:ca:e3:bd:c3:48:72:40:
         ab:ec:ab:4f:a6:d7:d9:40:36:6d:58:5d:7b:85:0d:c7:b7:2b:
         37:7d:dc:29
-----BEGIN CERTIFICATE-----
MIIDXDCCAkSgAwIBAgIQHbCei1GshakmT8xN5NeihDANBgkqhkiG9w0BAQsFADAW
MRQwEgYDVQQDDAt0ZWFtNzU4LW5ldDAeFw0yMjA1MTkwMDE4MjdaFw0yNTA1MDMw
MDE4MjdaMBkxFzAVBgNVBAMMDnRlYW03NTgtY2xpZW50MIIBIjANBgkqhkiG9w0B
AQEFAAOCAQ8AMIIBCgKCAQEAuXrJ3dVkhV8XUV6ODN2+3ADyPMZjsR7TXnbpN4NL
HYHdcBbasO1PtsVzmdme1fgKH0Y2KemN9v2Rvnmvu1TsDVLAD4k6rYsjZij0jmSm
MfbFTQJpZzG3bGPJBhFZpRfd7xPHxYZRKE95TLxiZkIit9xf3ZtcWXLKaxxZXqPQ
bxyBpPbfAkaIWKimAnEufGRIAiebTgdm18ZpUFfPXSn4s8Ux/OGU2TRkiIbTF3To
6K5WZSDey/KiCR3Xm+zqhc5cuuaxVWBcxmTeTZKKIUU+JT5VxN4M6CmGYezo6nMH
Iq1T5oJxiPDMWD2g7wyQyDtK7PxKTxTsZKc/8tGEljvl/QIDAQABo4GiMIGfMAkG
A1UdEwQCMAAwHQYDVR0OBBYEFGy0Zw0atf0WheEGugIsA6wMfoQ7MFEGA1UdIwRK
MEiAFN4Dqa1ZmQawpg8yzjzjMv4YpsNloRqkGDAWMRQwEgYDVQQDDAt0ZWFtNzU4
LW5ldIIUaEEbWFGvjiT3/MderoiCyGCyobIwEwYDVR0lBAwwCgYIKwYBBQUHAwIw
CwYDVR0PBAQDAgeAMA0GCSqGSIb3DQEBCwUAA4IBAQAXGQl+JOOYvSjF5C2qi40O
PC9lBLdL8Gq8QPGbVKHpBA00DhYD10TmUVX1kUVW9YGNBj7r36EKwV75aqxvy6PR
52w2kPJFFozKS6bR+6Vrofbtw0+XtPbld8PLgZHjgvXAuC9+67UHI5qC4WyaWU22
p8oC3ChcZF4XqB8Pq0UAFYG3QTAjq0xYQymCFaFEN8toH0ReQtym7plVVVFP8O+N
Ppx3cHjJir+XceV9pIjb0nLLWyQISccRDm8HrE9pm7eFS1CoGpnJC0o/TuVKquzv
BXzfV6uS0G0yoNOxZAv0Ja7n9crjvcNIckCr7KtPptfZQDZtWF17hQ3Htys3fdwp
-----END CERTIFICATE-----
