Certificate:
    Data:
        Version: 3 (0x2)
        Serial Number:
            35:a8:16:39:05:38:a4:fa:d2:d7:31:41:fd:3c:74:13
        Signature Algorithm: sha256WithRSAEncryption
        Issuer: CN=team758-net
        Validity
            Not Before: May 19 00:18:28 2022 GMT
            Not After : May  3 00:18:28 2025 GMT
        Subject: CN=team758-server
        Subject Public Key Info:
            Public Key Algorithm: rsaEncryption
                RSA Public-Key: (2048 bit)
                Modulus:
                    00:ce:86:54:5a:83:c4:21:05:1a:f6:d6:1c:6b:f3:
                    f4:9c:dd:7b:c9:30:93:9b:9e:3d:d3:b3:67:e6:d3:
                    b2:ca:2d:b9:5c:4b:d6:ec:f7:21:5b:10:05:67:02:
                    f3:89:83:43:e9:82:30:1f:ec:fc:7c:ec:f5:de:9c:
                    3d:1e:0e:a4:c9:a9:4b:21:9f:01:be:e3:a6:52:b1:
                    06:66:f6:c8:c1:8a:46:a4:b0:53:c9:eb:c1:bf:f5:
                    7e:27:16:62:57:40:6b:37:4b:83:92:5a:99:74:64:
                    70:ff:2b:bc:fa:1d:3c:b1:4c:83:ee:5f:46:cc:72:
                    30:4d:96:6c:d8:b9:bb:1e:e7:91:46:94:ad:fd:0c:
                    e4:3d:63:f7:58:ef:84:a3:fe:05:1b:96:86:c4:09:
                    f9:4c:85:07:7d:d7:d6:30:d1:d5:e6:87:04:d2:e0:
                    34:3a:af:9c:72:1e:87:57:9f:8b:77:a0:84:3c:98:
                    99:17:8d:2e:fd:9a:57:02:31:f9:fb:52:93:07:72:
                    75:ea:3c:9e:b5:83:c6:e6:a9:6a:b3:0c:bb:3d:16:
                    49:c0:a6:8c:09:ba:9f:5e:d7:9c:0b:04:88:5c:f2:
                    34:dc:4c:c8:33:34:d5:31:ad:33:b3:fb:24:8a:be:
                    43:ed:50:cc:a4:aa:df:f5:d8:1b:69:37:32:40:ce:
                    0f:0d
                Exponent: 65537 (0x10001)
        X509v3 extensions:
            X509v3 Basic Constraints: 
                CA:FALSE
            X509v3 Subject Key Identifier: 
                6D:37:1A:A5:F4:32:27:91:48:50:36:FE:9C:5E:44:8C:CD:77:B5:F9
            X509v3 Authority Key Identifier: 
                keyid:DE:03:A9:AD:59:99:06:B0:A6:0F:32:CE:3C:E3:32:FE:18:A6:C3:65
                DirName:/CN=team758-net
                serial:68:41:1B:58:51:AF:8E:24:F7:FC:C7:5E:AE:88:82:C8:60:B2:A1:B2

            X509v3 Extended Key Usage: 
                TLS Web Server Authentication
            X509v3 Key Usage: 
                Digital Signature, Key Encipherment
            X509v3 Subject Alternative Name: 
                DNS:team758-server
    Signature Algorithm: sha256WithRSAEncryption
         b6:02:3a:f5:d2:cd:cd:a9:17:19:24:21:a9:45:a5:6d:1d:b4:
         d7:d7:e2:83:06:17:06:f3:9b:3e:b7:da:e3:00:84:14:4d:be:
         bf:6a:f2:72:c4:49:ab:ea:0f:48:a6:b9:c4:d8:5f:0d:ea:4f:
         7d:59:4e:5c:ff:48:bf:0e:71:1d:ca:90:db:ea:74:b4:ea:14:
         d0:a6:df:f7:24:13:fa:36:9e:9f:74:d8:ed:ce:90:cb:d6:88:
         0a:0e:d8:6e:72:64:a2:62:d1:80:d3:44:88:f2:e8:9a:4e:17:
         5f:27:d3:8b:2b:37:87:69:48:b2:3e:26:2d:50:c7:72:89:aa:
         26:be:ef:ba:f5:19:86:80:75:0d:35:5d:0c:17:77:cd:83:be:
         3d:c1:da:bb:02:11:01:3d:f7:35:58:66:55:99:9c:1e:b0:86:
         57:76:49:64:21:f9:37:4c:06:3d:23:89:9f:18:ec:78:9f:c9:
         1a:d4:1a:1b:02:4b:b7:6e:2c:6f:4a:2f:f0:64:96:18:c9:36:
         ca:37:e4:93:2f:0a:9d:8c:7f:0d:fe:95:34:3d:7b:20:e8:cb:
         5b:a3:30:c3:93:e9:7e:8d:ec:cd:f9:3f:c1:12:d8:71:93:03:
         b1:62:a6:f1:a3:14:8f:9f:25:e5:bd:f6:31:91:7f:0f:3b:e2:
         2d:85:e7:73
-----BEGIN CERTIFICATE-----
MIIDdzCCAl+gAwIBAgIQNagWOQU4pPrS1zFB/Tx0EzANBgkqhkiG9w0BAQsFADAW
MRQwEgYDVQQDDAt0ZWFtNzU4LW5ldDAeFw0yMjA1MTkwMDE4MjhaFw0yNTA1MDMw
MDE4MjhaMBkxFzAVBgNVBAMMDnRlYW03NTgtc2VydmVyMIIBIjANBgkqhkiG9w0B
AQEFAAOCAQ8AMIIBCgKCAQEAzoZUWoPEIQUa9tYca/P0nN17yTCTm54907Nn5tOy
yi25XEvW7PchWxAFZwLziYND6YIwH+z8fOz13pw9Hg6kyalLIZ8BvuOmUrEGZvbI
wYpGpLBTyevBv/V+JxZiV0BrN0uDklqZdGRw/yu8+h08sUyD7l9GzHIwTZZs2Lm7
HueRRpSt/QzkPWP3WO+Eo/4FG5aGxAn5TIUHfdfWMNHV5ocE0uA0Oq+cch6HV5+L
d6CEPJiZF40u/ZpXAjH5+1KTB3J16jyetYPG5qlqswy7PRZJwKaMCbqfXtecCwSI
XPI03EzIMzTVMa0zs/skir5D7VDMpKrf9dgbaTcyQM4PDQIDAQABo4G9MIG6MAkG
A1UdEwQCMAAwHQYDVR0OBBYEFG03GqX0MieRSFA2/pxeRIzNd7X5MFEGA1UdIwRK
MEiAFN4Dqa1ZmQawpg8yzjzjMv4YpsNloRqkGDAWMRQwEgYDVQQDDAt0ZWFtNzU4
LW5ldIIUaEEbWFGvjiT3/MderoiCyGCyobIwEwYDVR0lBAwwCgYIKwYBBQUHAwEw
CwYDVR0PBAQDAgWgMBkGA1UdEQQSMBCCDnRlYW03NTgtc2VydmVyMA0GCSqGSIb3
DQEBCwUAA4IBAQC2Ajr10s3NqRcZJCGpRaVtHbTX1+KDBhcG85s+t9rjAIQUTb6/
avJyxEmr6g9IprnE2F8N6k99WU5c/0i/DnEdypDb6nS06hTQpt/3JBP6Np6fdNjt
zpDL1ogKDthucmSiYtGA00SI8uiaThdfJ9OLKzeHaUiyPiYtUMdyiaomvu+69RmG
gHUNNV0MF3fNg749wdq7AhEBPfc1WGZVmZwesIZXdklkIfk3TAY9I4mfGOx4n8ka
1BobAku3bixvSi/wZJYYyTbKN+STLwqdjH8N/pU0PXsg6MtbozDDk+l+jezN+T/B
EthxkwOxYqbxoxSPnyXlvfYxkX8PO+Ithedz
-----END CERTIFICATE-----
