Certificate:
    Data:
        Version: 3 (0x2)
        Serial Number:
            29:e0:91:d1:86:45:05:28:3d:be:96:62:fc:55:c4:11
        Signature Algorithm: sha256WithRSAEncryption
        Issuer: CN=team602-net
        Validity
            Not Before: May 18 22:41:45 2022 GMT
            Not After : May  2 22:41:45 2025 GMT
        Subject: CN=team602-client
        Subject Public Key Info:
            Public Key Algorithm: rsaEncryption
                RSA Public-Key: (2048 bit)
                Modulus:
                    00:b9:83:90:79:b2:a9:5c:93:cd:de:76:3a:6d:2c:
                    b7:cd:c9:3a:98:d8:e9:41:c2:b9:14:9c:f7:41:be:
                    c0:62:f7:fe:14:2e:0a:6b:f0:76:80:ff:2f:c7:1d:
                    1c:10:75:31:e1:3a:b8:bd:e7:5d:03:6c:d2:47:5f:
                    1a:d2:db:95:cf:ba:01:3c:72:e7:6e:63:6e:c6:78:
                    cf:05:1e:1c:e7:f4:d0:73:4c:1a:74:c9:ba:a1:2c:
                    03:2d:8a:42:2f:16:bc:30:59:dc:a2:1a:80:c2:c0:
                    a2:94:22:c2:35:d5:37:90:d0:51:a1:04:7f:de:58:
                    08:fc:97:08:c3:9c:42:00:d2:13:a8:bb:d6:3f:75:
                    48:99:36:4c:de:75:40:b0:e0:4a:51:4a:87:58:de:
                    e5:71:1a:e7:9e:23:12:55:67:2d:96:e9:30:bf:6d:
                    14:2f:0e:e3:53:4a:a2:d9:59:38:c1:be:d1:39:8d:
                    ca:a8:41:5e:fb:f2:3b:2b:27:5c:a6:d0:25:57:8f:
                    c9:b9:a5:cb:cd:00:7d:cc:41:62:01:23:51:6c:82:
                    41:af:9b:3f:df:a2:04:c9:75:41:f4:1b:39:ce:2b:
                    18:65:a2:67:af:78:57:cc:e5:c9:56:6f:c1:0f:8a:
                    ae:39:8d:08:9c:06:d5:19:77:76:49:1b:41:df:62:
                    84:ef
                Exponent: 65537 (0x10001)
        X509v3 extensions:
            X509v3 Basic Constraints: 
                CA:FALSE
            X509v3 Subject Key Identifier: 
                6D:01:F1:E7:33:05:EF:73:18:85:D5:FB:E1:F4:0F:27:80:C2:93:26
            X509v3 Authority Key Identifier: 
                keyid:32:81:A5:D2:6C:93:9F:CD:F0:F1:21:07:55:D3:F9:45:A3:8C:6E:9D
                DirName:/CN=team602-net
                serial:63:1E:11:C1:E7:6B:96:2F:13:01:53:37:C6:D0:CB:5B:48:7C:AE:74

            X509v3 Extended Key Usage: 
                TLS Web Client Authentication
            X509v3 Key Usage: 
                Digital Signature
    Signature Algorithm: sha256WithRSAEncryption
         7c:5e:70:bd:89:44:81:7e:f4:2c:ce:c1:2e:d2:46:5b:45:70:
         49:64:b5:66:50:f0:96:3f:f2:be:c0:8a:0b:dc:f3:f3:9a:bf:
         2d:59:35:e1:c4:33:77:d0:4c:65:4f:b9:a6:0e:ab:f8:b1:1c:
         94:c0:39:be:2b:b6:cc:ac:11:a3:54:1d:c7:e0:d8:d1:39:ac:
         f7:bb:74:8a:4c:09:92:3e:d6:5c:97:d8:59:b6:35:ed:ea:c4:
         dc:93:13:25:97:a3:6e:a5:bf:80:23:12:1e:ed:d6:8e:25:5f:
         a5:81:80:a0:8b:74:1c:9c:f7:60:a2:fb:41:47:58:b7:50:56:
         48:d3:14:2f:b8:59:e4:8d:5a:39:ac:2e:43:31:d7:b9:18:5b:
         6a:19:7a:61:07:50:7d:87:4e:1a:b9:f7:2b:94:42:aa:c4:b8:
         fc:81:55:fa:36:79:da:20:f3:24:28:26:fd:7c:27:a9:7e:d4:
         ff:61:8a:0d:9f:31:e8:f8:0f:3d:79:54:04:96:28:0f:96:6c:
         17:4b:f2:b8:4b:3b:fb:25:9f:fd:a8:23:cd:dd:fd:f3:84:0f:
         58:65:2f:b5:97:a2:5b:f0:83:f0:8c:b8:bc:b3:4e:bf:71:9a:
         18:04:a5:d8:9a:d8:7d:a3:17:14:0d:35:35:63:52:2f:e2:69:
         2c:d9:08:2b
-----BEGIN CERTIFICATE-----
MIIDXDCCAkSgAwIBAgIQKeCR0YZFBSg9vpZi/FXEETANBgkqhkiG9w0BAQsFADAW
MRQwEgYDVQQDDAt0ZWFtNjAyLW5ldDAeFw0yMjA1MTgyMjQxNDVaFw0yNTA1MDIy
MjQxNDVaMBkxFzAVBgNVBAMMDnRlYW02MDItY2xpZW50MIIBIjANBgkqhkiG9w0B
AQEFAAOCAQ8AMIIBCgKCAQEAuYOQebKpXJPN3nY6bSy3zck6mNjpQcK5FJz3Qb7A
Yvf+FC4Ka/B2gP8vxx0cEHUx4Tq4veddA2zSR18a0tuVz7oBPHLnbmNuxnjPBR4c
5/TQc0wadMm6oSwDLYpCLxa8MFncohqAwsCilCLCNdU3kNBRoQR/3lgI/JcIw5xC
ANITqLvWP3VImTZM3nVAsOBKUUqHWN7lcRrnniMSVWctlukwv20ULw7jU0qi2Vk4
wb7ROY3KqEFe+/I7KydcptAlV4/JuaXLzQB9zEFiASNRbIJBr5s/36IEyXVB9Bs5
zisYZaJnr3hXzOXJVm/BD4quOY0InAbVGXd2SRtB32KE7wIDAQABo4GiMIGfMAkG
A1UdEwQCMAAwHQYDVR0OBBYEFG0B8eczBe9zGIXV++H0DyeAwpMmMFEGA1UdIwRK
MEiAFDKBpdJsk5/N8PEhB1XT+UWjjG6doRqkGDAWMRQwEgYDVQQDDAt0ZWFtNjAy
LW5ldIIUYx4Rwedrli8TAVM3xtDLW0h8rnQwEwYDVR0lBAwwCgYIKwYBBQUHAwIw
CwYDVR0PBAQDAgeAMA0GCSqGSIb3DQEBCwUAA4IBAQB8XnC9iUSBfvQszsEu0kZb
RXBJZLVmUPCWP/K+wIoL3PPzmr8tWTXhxDN30ExlT7mmDqv4sRyUwDm+K7bMrBGj
VB3H4NjROaz3u3SKTAmSPtZcl9hZtjXt6sTckxMll6Nupb+AIxIe7daOJV+lgYCg
i3QcnPdgovtBR1i3UFZI0xQvuFnkjVo5rC5DMde5GFtqGXphB1B9h04aufcrlEKq
xLj8gVX6NnnaIPMkKCb9fCepftT/YYoNnzHo+A89eVQEligPlmwXS/K4Szv7JZ/9
qCPN3f3zhA9YZS+1l6Jb8IPwjLi8s06/cZoYBKXYmth9oxcUDTU1Y1Iv4mks2Qgr
-----END CERTIFICATE-----
