Certificate:
    Data:
        Version: 3 (0x2)
        Serial Number:
            93:ab:24:bd:bf:23:f1:49:3b:a0:54:44:3c:80:b0:26
        Signature Algorithm: sha256WithRSAEncryption
        Issuer: CN=team628-net
        Validity
            Not Before: May 18 22:53:45 2022 GMT
            Not After : May  2 22:53:45 2025 GMT
        Subject: CN=team628-server
        Subject Public Key Info:
            Public Key Algorithm: rsaEncryption
                RSA Public-Key: (2048 bit)
                Modulus:
                    00:9f:88:9b:20:90:0c:d9:9e:d7:1a:4a:b2:59:17:
                    45:71:16:23:7d:5c:57:1d:ff:47:28:b1:ed:88:4d:
                    f1:50:72:70:d5:e7:e8:8e:f0:66:a7:97:e3:e3:cf:
                    80:60:4c:03:35:55:0a:19:cd:c7:f2:2c:a9:ba:d8:
                    ec:e0:d2:0c:80:ae:2a:a0:37:a7:02:58:d8:b5:2e:
                    66:19:56:a2:4b:21:13:ee:c7:43:19:cc:fb:98:f1:
                    dc:a5:d2:8f:e1:cd:11:b6:13:65:9e:79:ab:a6:b9:
                    91:2c:d1:76:02:07:58:98:e2:c8:7b:2f:e3:c6:77:
                    ed:56:14:f3:55:4b:df:ca:b5:61:94:c2:65:51:62:
                    d6:15:39:ba:ff:d9:49:03:bc:f0:98:53:38:48:b3:
                    35:85:f0:86:a9:fa:da:b3:84:52:09:7d:44:d9:19:
                    17:6d:f6:a3:ce:73:e2:7a:1c:a8:d7:14:dc:9e:c3:
                    2b:66:4f:8a:a7:e1:e6:c0:16:f0:2a:79:1e:29:55:
                    4f:32:a8:35:4b:6a:66:79:50:eb:42:87:7a:f0:fe:
                    d2:39:26:38:3b:dc:fb:83:6a:da:f9:68:eb:b1:0e:
                    b7:04:6f:6c:67:18:8d:99:0e:38:96:93:29:ef:4a:
                    9c:ae:a1:ed:8f:82:f7:28:79:7b:62:1a:f3:75:01:
                    91:7f
                Exponent: 65537 (0x10001)
        X509v3 extensions:
            X509v3 Basic Constraints: 
                CA:FALSE
            X509v3 Subject Key Identifier: 
                B9:95:D2:97:A6:0F:35:80:53:1C:E6:79:53:93:F5:38:4C:0B:35:B9
            X509v3 Authority Key Identifier: 
                keyid:AE:0F:63:9D:90:C2:66:59:A5:A8:5B:00:7E:18:4F:E4:68:13:FB:36
                DirName:/CN=team628-net
                serial:28:21:E0:7A:4D:42:BA:AA:51:D9:1A:EE:EC:9A:08:57:15:F0:12:20

            X509v3 Extended Key Usage: 
                TLS Web Server Authentication
            X509v3 Key Usage: 
                Digital Signature, Key Encipherment
            X509v3 Subject Alternative Name: 
                DNS:team628-server
    Signature Algorithm: sha256WithRSAEncryption
         52:85:1b:c9:a3:1a:81:2f:67:1f:3f:45:41:ac:2a:f9:c2:dd:
         35:ed:d2:b5:5c:cb:fc:3b:3b:8b:7a:13:a3:f9:47:5b:b1:df:
         5f:d7:88:8c:77:59:fc:d4:1b:a4:58:5f:2c:0d:8e:fb:26:d5:
         41:3a:fc:cd:7c:1f:98:d8:1a:86:48:b0:93:a3:34:b1:2f:28:
         49:66:34:a4:56:f7:b2:49:4a:46:0b:10:06:68:a9:92:8d:15:
         e6:1b:8e:8b:db:56:39:55:d1:0f:80:55:3f:bd:fe:a6:7f:26:
         c7:b9:74:53:10:ba:0b:7e:f1:0c:0e:2c:a5:ea:26:63:09:bb:
         8b:13:d6:0b:cc:3c:8b:cc:c9:b7:f5:d0:be:54:1b:23:eb:5a:
         d6:0e:8d:bf:e0:ea:69:4a:52:44:96:ff:59:d6:c4:70:f4:8b:
         6b:45:28:f0:df:70:9d:a9:2e:b8:0a:23:5e:89:64:44:ab:25:
         1b:60:2f:35:82:05:ea:27:5e:26:31:2d:b9:cb:3b:03:39:68:
         f1:85:b7:6e:8c:08:eb:fe:ba:40:b5:f7:68:22:b0:1e:f5:d3:
         39:ff:c6:45:3e:ee:8b:00:17:37:a3:04:19:3f:c9:72:36:85:
         ac:04:44:2c:f8:aa:c0:2d:c7:c3:f3:1d:9e:e9:86:b5:52:04:
         1e:85:f0:9c
-----BEGIN CERTIFICATE-----
MIIDeDCCAmCgAwIBAgIRAJOrJL2/I/FJO6BURDyAsCYwDQYJKoZIhvcNAQELBQAw
FjEUMBIGA1UEAwwLdGVhbTYyOC1uZXQwHhcNMjIwNTE4MjI1MzQ1WhcNMjUwNTAy
MjI1MzQ1WjAZMRcwFQYDVQQDDA50ZWFtNjI4LXNlcnZlcjCCASIwDQYJKoZIhvcN
AQEBBQADggEPADCCAQoCggEBAJ+ImyCQDNme1xpKslkXRXEWI31cVx3/Ryix7YhN
8VBycNXn6I7wZqeX4+PPgGBMAzVVChnNx/IsqbrY7ODSDICuKqA3pwJY2LUuZhlW
okshE+7HQxnM+5jx3KXSj+HNEbYTZZ55q6a5kSzRdgIHWJjiyHsv48Z37VYU81VL
38q1YZTCZVFi1hU5uv/ZSQO88JhTOEizNYXwhqn62rOEUgl9RNkZF232o85z4noc
qNcU3J7DK2ZPiqfh5sAW8Cp5HilVTzKoNUtqZnlQ60KHevD+0jkmODvc+4Nq2vlo
67EOtwRvbGcYjZkOOJaTKe9KnK6h7Y+C9yh5e2Ia83UBkX8CAwEAAaOBvTCBujAJ
BgNVHRMEAjAAMB0GA1UdDgQWBBS5ldKXpg81gFMc5nlTk/U4TAs1uTBRBgNVHSME
SjBIgBSuD2OdkMJmWaWoWwB+GE/kaBP7NqEapBgwFjEUMBIGA1UEAwwLdGVhbTYy
OC1uZXSCFCgh4HpNQrqqUdka7uyaCFcV8BIgMBMGA1UdJQQMMAoGCCsGAQUFBwMB
MAsGA1UdDwQEAwIFoDAZBgNVHREEEjAQgg50ZWFtNjI4LXNlcnZlcjANBgkqhkiG
9w0BAQsFAAOCAQEAUoUbyaMagS9nHz9FQawq+cLdNe3StVzL/Ds7i3oTo/lHW7Hf
X9eIjHdZ/NQbpFhfLA2O+ybVQTr8zXwfmNgahkiwk6M0sS8oSWY0pFb3sklKRgsQ
Bmipko0V5huOi9tWOVXRD4BVP73+pn8mx7l0UxC6C37xDA4speomYwm7ixPWC8w8
i8zJt/XQvlQbI+ta1g6Nv+DqaUpSRJb/WdbEcPSLa0Uo8N9wnakuuAojXolkRKsl
G2AvNYIF6ideJjEtucs7Azlo8YW3bowI6/66QLX3aCKwHvXTOf/GRT7uiwAXN6ME
GT/JcjaFrARELPiqwC3Hw/MdnumGtVIEHoXwnA==
-----END CERTIFICATE-----
