Certificate:
    Data:
        Version: 3 (0x2)
        Serial Number:
            98:34:9a:3a:1b:c8:95:7b:e7:61:d3:55:b7:d4:1a:3e
        Signature Algorithm: sha256WithRSAEncryption
        Issuer: CN=team628-net
        Validity
            Not Before: May 18 22:53:44 2022 GMT
            Not After : May  2 22:53:44 2025 GMT
        Subject: CN=team628-client
        Subject Public Key Info:
            Public Key Algorithm: rsaEncryption
                RSA Public-Key: (2048 bit)
                Modulus:
                    00:c5:19:ec:90:a3:7e:f7:69:03:1c:98:fc:0a:99:
                    63:e3:89:3b:d6:e2:94:2a:8b:94:15:c2:9e:40:f0:
                    52:fe:02:db:21:7a:32:18:10:b5:54:9f:b3:9c:3c:
                    1b:cb:90:b7:36:aa:5a:96:66:31:e2:bb:a1:41:4b:
                    2a:c9:ef:83:bb:41:6e:00:c7:9c:bf:00:7a:a9:a4:
                    27:40:43:dd:fb:0e:a6:8d:3a:75:4a:df:4f:41:15:
                    98:35:f0:95:59:83:4b:d0:db:40:c5:d6:ea:22:ac:
                    bf:6c:2b:f2:fb:49:c2:29:d4:e3:0d:2b:69:35:15:
                    76:96:65:a1:ae:c9:0c:f3:cb:24:8e:be:5a:71:48:
                    1d:50:b7:7b:21:4f:19:11:aa:29:57:10:7a:36:5d:
                    28:1c:79:75:ef:ac:78:93:38:99:3d:da:94:cf:7f:
                    dd:a5:41:3d:b4:90:ba:8f:22:ed:8f:30:de:f4:49:
                    bd:4c:d4:12:93:35:d1:17:e5:73:46:64:dc:8e:2d:
                    99:a2:ad:a2:79:a2:af:a0:7a:54:03:2a:24:ab:20:
                    1e:78:70:63:f6:0b:54:24:91:b5:1f:ef:df:5a:10:
                    b9:5e:96:f9:77:30:7a:4f:55:c5:e8:b8:00:5c:b3:
                    e8:7f:9e:89:c0:7c:7d:f4:5d:9c:5c:73:5a:85:27:
                    b0:cb
                Exponent: 65537 (0x10001)
        X509v3 extensions:
            X509v3 Basic Constraints: 
                CA:FALSE
            X509v3 Subject Key Identifier: 
                27:B1:FE:F5:44:8D:C8:27:51:0B:59:F7:90:87:BE:7A:54:F0:AF:FA
            X509v3 Authority Key Identifier: 
                keyid:AE:0F:63:9D:90:C2:66:59:A5:A8:5B:00:7E:18:4F:E4:68:13:FB:36
                DirName:/CN=team628-net
                serial:28:21:E0:7A:4D:42:BA:AA:51:D9:1A:EE:EC:9A:08:57:15:F0:12:20

            X509v3 Extended Key Usage: 
                TLS Web Client Authentication
            X509v3 Key Usage: 
                Digital Signature
    Signature Algorithm: sha256WithRSAEncryption
         49:93:c0:05:92:81:15:c7:88:06:35:d0:3c:27:ac:03:1e:22:
         04:61:f1:7e:87:4b:6b:1c:3f:40:b4:e0:c2:06:d2:ef:c4:42:
         15:12:da:49:25:7a:cb:a2:5f:b2:33:17:25:d5:93:b4:00:ed:
         f7:78:2d:61:e7:f8:99:bd:6f:6b:95:8c:36:34:84:ae:8f:47:
         45:9f:07:10:64:9a:1a:91:67:f1:ba:f3:4a:17:fa:68:5e:c7:
         92:47:a1:14:11:be:96:70:3f:3e:00:fa:31:f0:ce:1d:0a:5b:
         7e:db:db:20:12:dc:23:25:d1:1d:71:45:c0:af:2e:7a:ae:a7:
         7a:3c:8f:77:b8:6b:ee:03:9e:6d:da:6d:9b:53:50:35:36:de:
         7a:3b:44:55:3c:e4:9a:42:f8:7a:2f:d5:f0:fa:2a:d2:b1:2b:
         95:8b:a0:5d:9e:5e:2c:93:e2:01:04:54:86:fe:8d:86:31:f8:
         da:2b:b8:cd:55:29:79:06:d0:39:b9:c8:1d:8a:39:ff:33:cc:
         f4:8e:76:e5:1f:73:29:d5:a6:40:e5:b4:25:2c:a5:9e:78:4a:
         96:ef:fa:1a:fa:90:c3:77:89:bf:5e:f1:7f:8b:b4:2d:9f:7b:
         24:93:5f:04:44:25:fa:2a:1b:5c:69:62:bd:e2:2d:fa:aa:a3:
         fe:a7:ed:68
-----BEGIN CERTIFICATE-----
MIIDXTCCAkWgAwIBAgIRAJg0mjobyJV752HTVbfUGj4wDQYJKoZIhvcNAQELBQAw
FjEUMBIGA1UEAwwLdGVhbTYyOC1uZXQwHhcNMjIwNTE4MjI1MzQ0WhcNMjUwNTAy
MjI1MzQ0WjAZMRcwFQYDVQQDDA50ZWFtNjI4LWNsaWVudDCCASIwDQYJKoZIhvcN
AQEBBQADggEPADCCAQoCggEBAMUZ7JCjfvdpAxyY/AqZY+OJO9bilCqLlBXCnkDw
Uv4C2yF6MhgQtVSfs5w8G8uQtzaqWpZmMeK7oUFLKsnvg7tBbgDHnL8AeqmkJ0BD
3fsOpo06dUrfT0EVmDXwlVmDS9DbQMXW6iKsv2wr8vtJwinU4w0raTUVdpZloa7J
DPPLJI6+WnFIHVC3eyFPGRGqKVcQejZdKBx5de+seJM4mT3alM9/3aVBPbSQuo8i
7Y8w3vRJvUzUEpM10Rflc0Zk3I4tmaKtonmir6B6VAMqJKsgHnhwY/YLVCSRtR/v
31oQuV6W+Xcwek9Vxei4AFyz6H+eicB8ffRdnFxzWoUnsMsCAwEAAaOBojCBnzAJ
BgNVHRMEAjAAMB0GA1UdDgQWBBQnsf71RI3IJ1ELWfeQh756VPCv+jBRBgNVHSME
SjBIgBSuD2OdkMJmWaWoWwB+GE/kaBP7NqEapBgwFjEUMBIGA1UEAwwLdGVhbTYy
OC1uZXSCFCgh4HpNQrqqUdka7uyaCFcV8BIgMBMGA1UdJQQMMAoGCCsGAQUFBwMC
MAsGA1UdDwQEAwIHgDANBgkqhkiG9w0BAQsFAAOCAQEASZPABZKBFceIBjXQPCes
Ax4iBGHxfodLaxw/QLTgwgbS78RCFRLaSSV6y6JfsjMXJdWTtADt93gtYef4mb1v
a5WMNjSEro9HRZ8HEGSaGpFn8brzShf6aF7HkkehFBG+lnA/PgD6MfDOHQpbftvb
IBLcIyXRHXFFwK8ueq6nejyPd7hr7gOebdptm1NQNTbeejtEVTzkmkL4ei/V8Poq
0rErlYugXZ5eLJPiAQRUhv6NhjH42iu4zVUpeQbQObnIHYo5/zPM9I525R9zKdWm
QOW0JSylnnhKlu/6GvqQw3eJv17xf4u0LZ97JJNfBEQl+iobXGliveIt+qqj/qft
aA==
-----END CERTIFICATE-----
