Certificate:
    Data:
        Version: 3 (0x2)
        Serial Number:
            2b:a3:c8:b0:c3:76:d2:0f:a2:32:5d:26:06:40:57:04
        Signature Algorithm: sha256WithRSAEncryption
        Issuer: CN=team518-net
        Validity
            Not Before: May 18 21:56:07 2022 GMT
            Not After : May  2 21:56:07 2025 GMT
        Subject: CN=team518-server
        Subject Public Key Info:
            Public Key Algorithm: rsaEncryption
                RSA Public-Key: (2048 bit)
                Modulus:
                    00:d0:30:79:24:47:d4:f2:5e:6b:97:85:df:34:dc:
                    3d:3a:f3:53:04:9a:f8:2e:e4:58:7c:fb:db:d6:0e:
                    28:84:8c:21:8b:ab:0f:d9:5c:d4:8e:33:e0:f1:cb:
                    01:ef:40:0a:fc:6b:ff:2e:df:7f:14:2c:a3:5a:1e:
                    66:52:67:24:ff:d1:7e:88:28:7c:31:0e:9a:7a:57:
                    ae:d6:9c:11:9b:f5:ae:ca:62:70:fa:52:14:f0:f1:
                    c5:7e:02:04:f1:e0:e5:b8:e2:13:80:14:b9:23:44:
                    57:db:b4:23:b9:f6:10:17:5b:c4:36:8f:49:8c:eb:
                    6e:87:2f:55:6f:eb:2f:b4:80:fb:df:e1:1c:af:9e:
                    a7:db:e4:2d:9e:6f:df:75:eb:4e:95:ea:cb:ba:55:
                    31:0f:a7:0c:a7:e0:61:3a:67:8f:56:14:83:db:bc:
                    cd:1c:c1:11:53:e0:2e:af:b5:59:b4:b7:ff:da:60:
                    19:34:dd:96:7e:9b:65:6b:91:01:dd:a6:07:2b:71:
                    59:db:ca:96:bc:b8:4f:51:a5:e1:63:76:70:12:4c:
                    2e:64:b7:2f:88:b0:42:aa:f5:03:e6:ce:4b:bc:eb:
                    08:fb:6b:ee:ea:ff:33:67:21:93:04:a2:38:54:84:
                    ba:90:f1:be:f6:e6:18:a9:76:9b:05:06:9d:cf:c2:
                    cc:71
                Exponent: 65537 (0x10001)
        X509v3 extensions:
            X509v3 Basic Constraints: 
                CA:FALSE
            X509v3 Subject Key Identifier: 
                B6:72:2F:6B:FA:2C:1D:C6:03:F8:05:AC:F4:84:6F:8F:6D:8D:2F:D9
            X509v3 Authority Key Identifier: 
                keyid:87:E6:B4:2B:92:57:14:15:55:4A:39:DF:21:AB:03:4A:92:68:07:52
                DirName:/CN=team518-net
                serial:64:9C:B4:E5:A7:4A:87:6D:BC:97:D0:D9:CD:7D:19:52:4F:DD:F7:38

            X509v3 Extended Key Usage: 
                TLS Web Server Authentication
            X509v3 Key Usage: 
                Digital Signature, Key Encipherment
            X509v3 Subject Alternative Name: 
                DNS:team518-server
    Signature Algorithm: sha256WithRSAEncryption
         98:9c:43:93:2a:00:2a:d2:cb:95:fb:16:dc:cc:65:33:99:76:
         69:09:6b:a0:c0:0b:ac:a4:8b:dc:3c:bc:03:fe:67:39:01:c8:
         7b:b1:1d:c6:12:2b:c8:0c:27:e6:f6:2c:1c:55:54:19:4c:b3:
         22:3d:2a:22:99:56:5d:f2:be:b1:ae:ed:f3:27:99:4a:fa:3f:
         6f:24:e8:bc:d8:5f:26:9c:75:2a:6e:25:6d:fe:4d:ed:0f:1c:
         a2:33:4f:ed:5b:61:b5:49:83:5a:f8:d5:d1:80:47:b4:6b:ce:
         10:8e:fb:51:6f:79:a2:65:17:cb:60:74:18:1a:24:fc:90:ed:
         ee:14:a7:90:87:1f:b9:41:16:7f:44:20:62:8d:db:68:12:c2:
         81:50:ae:6b:3d:14:79:35:e3:fa:95:92:0d:d9:32:b0:21:79:
         c3:64:dc:a9:7a:04:ef:61:78:03:53:b6:29:ee:55:f9:3a:7b:
         7a:f1:47:5a:37:42:b3:56:ca:d0:b5:e4:bf:53:6f:74:45:e7:
         d7:1a:29:93:b4:38:64:28:66:5a:43:82:c1:68:a0:9f:8c:14:
         69:23:80:2a:40:82:e8:ff:7b:9d:f9:e8:4a:fe:d7:23:22:58:
         a1:d6:5e:bd:96:f6:21:d4:4d:78:8b:ee:35:40:ae:06:bc:70:
         09:08:60:93
-----BEGIN CERTIFICATE-----
MIIDdzCCAl+gAwIBAgIQK6PIsMN20g+iMl0mBkBXBDANBgkqhkiG9w0BAQsFADAW
MRQwEgYDVQQDDAt0ZWFtNTE4LW5ldDAeFw0yMjA1MTgyMTU2MDdaFw0yNTA1MDIy
MTU2MDdaMBkxFzAVBgNVBAMMDnRlYW01MTgtc2VydmVyMIIBIjANBgkqhkiG9w0B
AQEFAAOCAQ8AMIIBCgKCAQEA0DB5JEfU8l5rl4XfNNw9OvNTBJr4LuRYfPvb1g4o
hIwhi6sP2VzUjjPg8csB70AK/Gv/Lt9/FCyjWh5mUmck/9F+iCh8MQ6aeleu1pwR
m/WuymJw+lIU8PHFfgIE8eDluOITgBS5I0RX27QjufYQF1vENo9JjOtuhy9Vb+sv
tID73+Ecr56n2+Qtnm/fdetOlerLulUxD6cMp+BhOmePVhSD27zNHMERU+Aur7VZ
tLf/2mAZNN2Wfptla5EB3aYHK3FZ28qWvLhPUaXhY3ZwEkwuZLcviLBCqvUD5s5L
vOsI+2vu6v8zZyGTBKI4VIS6kPG+9uYYqXabBQadz8LMcQIDAQABo4G9MIG6MAkG
A1UdEwQCMAAwHQYDVR0OBBYEFLZyL2v6LB3GA/gFrPSEb49tjS/ZMFEGA1UdIwRK
MEiAFIfmtCuSVxQVVUo53yGrA0qSaAdSoRqkGDAWMRQwEgYDVQQDDAt0ZWFtNTE4
LW5ldIIUZJy05adKh228l9DZzX0ZUk/d9zgwEwYDVR0lBAwwCgYIKwYBBQUHAwEw
CwYDVR0PBAQDAgWgMBkGA1UdEQQSMBCCDnRlYW01MTgtc2VydmVyMA0GCSqGSIb3
DQEBCwUAA4IBAQCYnEOTKgAq0suV+xbczGUzmXZpCWugwAuspIvcPLwD/mc5Ach7
sR3GEivIDCfm9iwcVVQZTLMiPSoimVZd8r6xru3zJ5lK+j9vJOi82F8mnHUqbiVt
/k3tDxyiM0/tW2G1SYNa+NXRgEe0a84QjvtRb3miZRfLYHQYGiT8kO3uFKeQhx+5
QRZ/RCBijdtoEsKBUK5rPRR5NeP6lZIN2TKwIXnDZNypegTvYXgDU7Yp7lX5Ont6
8UdaN0KzVsrQteS/U290RefXGimTtDhkKGZaQ4LBaKCfjBRpI4AqQILo/3ud+ehK
/tcjIlih1l69lvYh1E14i+41QK4GvHAJCGCT
-----END CERTIFICATE-----
