Certificate:
    Data:
        Version: 3 (0x2)
        Serial Number:
            c2:47:28:02:58:d2:a4:1b:46:14:55:7c:cf:42:4b:3e
        Signature Algorithm: sha256WithRSAEncryption
        Issuer: CN=team518-net
        Validity
            Not Before: May 18 21:56:07 2022 GMT
            Not After : May  2 21:56:07 2025 GMT
        Subject: CN=team518-client
        Subject Public Key Info:
            Public Key Algorithm: rsaEncryption
                RSA Public-Key: (2048 bit)
                Modulus:
                    00:a2:59:2d:d2:a5:00:4e:a9:ff:6e:a7:4f:f5:74:
                    df:c8:38:16:6c:6c:67:2c:5a:f4:52:22:ba:03:dc:
                    1e:64:06:d9:9f:15:8f:21:1e:9b:4b:4f:84:a3:53:
                    35:81:72:79:37:eb:54:3c:bb:21:15:5a:0c:1e:3a:
                    bb:b7:8b:c5:6f:73:50:54:e4:c9:1b:86:7a:ea:ca:
                    6d:71:57:d1:35:27:61:9d:3d:40:b1:f6:c1:79:ff:
                    59:08:77:34:0b:ef:97:13:77:22:4a:98:5d:83:eb:
                    30:c2:5d:74:a5:a0:2a:8f:ed:46:00:cc:ee:a9:73:
                    58:a4:cf:86:ef:34:98:c1:83:67:62:d3:cc:3d:23:
                    9f:8b:5f:cf:2a:b9:04:a5:b3:9f:7b:11:91:9d:1f:
                    9e:65:f9:dc:9c:9a:15:fe:4a:8c:ad:35:5f:e3:df:
                    e8:d2:4b:57:c4:af:a1:8f:40:44:26:6a:32:f1:b7:
                    7f:b4:5b:2a:6f:89:22:aa:e4:d2:37:65:08:1a:6c:
                    41:46:ef:c8:32:59:32:eb:45:23:19:1d:9b:d8:e7:
                    14:81:00:4d:1d:fd:03:e6:22:42:80:77:67:a9:45:
                    82:8d:34:3c:63:bb:b6:f8:2c:9f:a9:3e:19:80:85:
                    df:56:52:53:fd:bc:69:43:29:60:20:2d:fa:83:18:
                    a8:59
                Exponent: 65537 (0x10001)
        X509v3 extensions:
            X509v3 Basic Constraints: 
                CA:FALSE
            X509v3 Subject Key Identifier: 
                B2:08:E1:F8:E5:18:17:E0:B8:3E:CF:5A:C5:98:31:A9:4D:D6:FF:55
            X509v3 Authority Key Identifier: 
                keyid:87:E6:B4:2B:92:57:14:15:55:4A:39:DF:21:AB:03:4A:92:68:07:52
                DirName:/CN=team518-net
                serial:64:9C:B4:E5:A7:4A:87:6D:BC:97:D0:D9:CD:7D:19:52:4F:DD:F7:38

            X509v3 Extended Key Usage: 
                TLS Web Client Authentication
            X509v3 Key Usage: 
                Digital Signature
    Signature Algorithm: sha256WithRSAEncryption
         89:36:cc:3b:a0:3c:f9:24:18:cd:ea:58:04:d8:e9:67:3c:50:
         66:ac:50:82:91:3e:3e:6e:78:35:74:9e:e3:5e:2b:39:ca:14:
         b5:1f:52:bf:18:b0:33:d2:54:60:5a:f2:71:93:ed:e4:c6:c6:
         a0:ed:ba:4a:d9:4b:8c:cf:3a:c8:08:b9:c7:3a:c2:83:a6:a5:
         fc:3b:f6:8b:68:7c:be:65:73:2c:21:38:0b:a5:90:87:e0:0f:
         ae:80:4d:27:ac:b7:ef:87:d5:af:24:ab:fc:36:4c:e6:5b:c0:
         16:51:05:f2:c8:16:0b:62:b9:02:0a:da:ec:89:59:29:fe:40:
         d7:ae:95:09:9a:94:9c:f8:17:45:71:6a:4a:35:1c:fc:9c:86:
         69:65:c3:e7:10:e5:2c:96:ef:09:0b:d6:0a:12:f3:c3:cd:28:
         91:de:4c:48:32:88:30:f4:42:08:06:e6:c4:f3:77:ec:03:80:
         fb:95:00:41:b9:e8:37:56:1c:bf:d3:4a:4a:0c:4c:31:f5:21:
         55:97:0a:37:63:41:d8:28:3c:9e:85:6d:57:60:c4:7e:9d:7a:
         89:db:3c:e0:47:5c:b3:a5:d2:70:a8:f6:d7:1f:e8:d0:93:40:
         51:1c:d6:47:c5:4f:44:16:cd:90:c6:45:a7:67:ce:d8:95:dc:
         9b:5f:cd:95
-----BEGIN CERTIFICATE-----
MIIDXTCCAkWgAwIBAgIRAMJHKAJY0qQbRhRVfM9CSz4wDQYJKoZIhvcNAQELBQAw
FjEUMBIGA1UEAwwLdGVhbTUxOC1uZXQwHhcNMjIwNTE4MjE1NjA3WhcNMjUwNTAy
MjE1NjA3WjAZMRcwFQYDVQQDDA50ZWFtNTE4LWNsaWVudDCCASIwDQYJKoZIhvcN
AQEBBQADggEPADCCAQoCggEBAKJZLdKlAE6p/26nT/V038g4FmxsZyxa9FIiugPc
HmQG2Z8VjyEem0tPhKNTNYFyeTfrVDy7IRVaDB46u7eLxW9zUFTkyRuGeurKbXFX
0TUnYZ09QLH2wXn/WQh3NAvvlxN3IkqYXYPrMMJddKWgKo/tRgDM7qlzWKTPhu80
mMGDZ2LTzD0jn4tfzyq5BKWzn3sRkZ0fnmX53JyaFf5KjK01X+Pf6NJLV8SvoY9A
RCZqMvG3f7RbKm+JIqrk0jdlCBpsQUbvyDJZMutFIxkdm9jnFIEATR39A+YiQoB3
Z6lFgo00PGO7tvgsn6k+GYCF31ZSU/28aUMpYCAt+oMYqFkCAwEAAaOBojCBnzAJ
BgNVHRMEAjAAMB0GA1UdDgQWBBSyCOH45RgX4Lg+z1rFmDGpTdb/VTBRBgNVHSME
SjBIgBSH5rQrklcUFVVKOd8hqwNKkmgHUqEapBgwFjEUMBIGA1UEAwwLdGVhbTUx
OC1uZXSCFGSctOWnSodtvJfQ2c19GVJP3fc4MBMGA1UdJQQMMAoGCCsGAQUFBwMC
MAsGA1UdDwQEAwIHgDANBgkqhkiG9w0BAQsFAAOCAQEAiTbMO6A8+SQYzepYBNjp
ZzxQZqxQgpE+Pm54NXSe414rOcoUtR9SvxiwM9JUYFrycZPt5MbGoO26StlLjM86
yAi5xzrCg6al/Dv2i2h8vmVzLCE4C6WQh+AProBNJ6y374fVrySr/DZM5lvAFlEF
8sgWC2K5Agra7IlZKf5A166VCZqUnPgXRXFqSjUc/JyGaWXD5xDlLJbvCQvWChLz
w80okd5MSDKIMPRCCAbmxPN37AOA+5UAQbnoN1Ycv9NKSgxMMfUhVZcKN2NB2Cg8
noVtV2DEfp16ids84Edcs6XScKj21x/o0JNAURzWR8VPRBbNkMZFp2fO2JXcm1/N
lQ==
-----END CERTIFICATE-----
