Certificate:
    Data:
        Version: 3 (0x2)
        Serial Number:
            ee:74:6d:99:48:18:f1:2f:f8:a9:76:b7:ee:8f:c1:23
        Signature Algorithm: sha256WithRSAEncryption
        Issuer: CN=team754-net
        Validity
            Not Before: May 19 00:17:23 2022 GMT
            Not After : May  3 00:17:23 2025 GMT
        Subject: CN=team754-client
        Subject Public Key Info:
            Public Key Algorithm: rsaEncryption
                RSA Public-Key: (2048 bit)
                Modulus:
                    00:ae:fc:7e:19:51:8d:c4:c5:c7:e1:8e:5d:ad:3f:
                    35:56:e2:72:6c:91:30:3b:c8:93:28:d5:63:9b:50:
                    f4:4c:bc:d6:3c:e9:36:1a:91:66:d4:14:b6:00:3c:
                    1e:63:c7:d7:8e:93:47:2b:ad:66:f0:c5:8f:04:fb:
                    03:1f:5b:d3:08:b6:e3:58:7d:40:e9:32:ac:6e:37:
                    14:0d:9d:f7:4c:9e:54:62:52:c9:4c:b8:5c:ee:a6:
                    75:e8:ea:f8:44:da:27:82:35:9d:d0:9e:99:28:93:
                    5b:33:8e:23:f4:d6:3b:7e:b5:02:d6:19:39:c6:bf:
                    fc:3c:3f:fe:ec:64:1b:92:81:35:61:69:18:76:32:
                    9d:16:33:34:01:33:42:aa:47:33:61:2a:d3:cc:3f:
                    97:de:0f:95:c1:87:1b:21:24:f9:87:5f:43:2e:09:
                    92:43:d3:1e:be:21:40:d0:9f:94:2d:26:6c:1e:22:
                    7a:ed:54:48:f0:29:fd:e0:8a:81:07:d3:43:0d:f4:
                    b4:44:73:23:52:35:cb:2c:66:b3:38:99:76:a4:31:
                    30:76:d2:d9:1b:49:a8:d9:4b:d4:55:8c:a8:b4:ac:
                    c4:30:43:da:08:b9:6a:3c:74:b8:bd:e1:1a:9c:91:
                    a2:91:be:47:d6:c0:ff:d8:80:70:94:00:2d:eb:e0:
                    fd:4f
                Exponent: 65537 (0x10001)
        X509v3 extensions:
            X509v3 Basic Constraints: 
                CA:FALSE
            X509v3 Subject Key Identifier: 
                EE:6B:3F:2B:90:E7:13:81:71:D2:C8:7D:15:7B:BE:42:83:65:5C:CF
            X509v3 Authority Key Identifier: 
                keyid:2C:62:72:EF:C7:B0:39:48:35:31:E6:90:28:DE:00:D9:82:CB:9C:53
                DirName:/CN=team754-net
                serial:12:A5:19:CC:BE:E4:FE:0C:2A:90:10:73:F4:8F:57:DE:B7:D9:63:E0

            X509v3 Extended Key Usage: 
                TLS Web Client Authentication
            X509v3 Key Usage: 
                Digital Signature
    Signature Algorithm: sha256WithRSAEncryption
         0a:46:c0:06:58:cb:e0:e3:83:53:0e:66:9c:48:1d:40:13:ec:
         56:b4:3f:f5:92:54:d4:8b:70:2c:46:3e:34:75:b5:07:59:d3:
         ba:4b:e9:79:2a:2b:c9:21:fa:0c:e3:6a:46:06:83:e1:b2:d5:
         6c:06:09:12:80:23:4c:00:37:28:11:85:77:2d:85:1e:0c:ba:
         5c:35:49:ed:84:c5:b8:32:31:7c:5f:83:15:87:cc:cd:59:6c:
         d9:4f:cf:4d:be:68:af:a7:ea:e3:33:f9:ff:b4:77:17:fa:91:
         ae:ca:c6:3d:e8:3b:3c:36:61:36:45:7c:f2:ac:84:c0:86:08:
         e7:89:3d:8c:ee:4a:f2:1c:9a:d0:d9:c8:f7:fb:a1:c5:ac:13:
         4e:96:88:e6:2b:be:d8:18:57:4d:43:aa:75:af:79:f1:c9:aa:
         09:92:f9:17:23:c8:f7:1a:8a:8a:54:5c:16:53:2d:fd:ad:1b:
         62:28:ed:d6:7d:60:da:b9:2c:e3:b0:3e:c6:84:ed:99:fa:6d:
         1e:41:e3:e9:9a:36:12:e0:27:37:2c:4d:b6:46:eb:69:d7:5d:
         94:eb:e3:ea:fa:06:20:31:19:19:ee:83:51:a9:26:98:b7:6c:
         cd:11:64:94:0b:7a:fe:52:77:0c:76:01:1d:76:85:65:ba:d0:
         54:6d:8d:29
-----BEGIN CERTIFICATE-----
MIIDXTCCAkWgAwIBAgIRAO50bZlIGPEv+Kl2t+6PwSMwDQYJKoZIhvcNAQELBQAw
FjEUMBIGA1UEAwwLdGVhbTc1NC1uZXQwHhcNMjIwNTE5MDAxNzIzWhcNMjUwNTAz
MDAxNzIzWjAZMRcwFQYDVQQDDA50ZWFtNzU0LWNsaWVudDCCASIwDQYJKoZIhvcN
AQEBBQADggEPADCCAQoCggEBAK78fhlRjcTFx+GOXa0/NVbicmyRMDvIkyjVY5tQ
9Ey81jzpNhqRZtQUtgA8HmPH146TRyutZvDFjwT7Ax9b0wi241h9QOkyrG43FA2d
90yeVGJSyUy4XO6mdejq+ETaJ4I1ndCemSiTWzOOI/TWO361AtYZOca//Dw//uxk
G5KBNWFpGHYynRYzNAEzQqpHM2Eq08w/l94PlcGHGyEk+YdfQy4JkkPTHr4hQNCf
lC0mbB4ieu1USPAp/eCKgQfTQw30tERzI1I1yyxmsziZdqQxMHbS2RtJqNlL1FWM
qLSsxDBD2gi5ajx0uL3hGpyRopG+R9bA/9iAcJQALevg/U8CAwEAAaOBojCBnzAJ
BgNVHRMEAjAAMB0GA1UdDgQWBBTuaz8rkOcTgXHSyH0Ve75Cg2VczzBRBgNVHSME
SjBIgBQsYnLvx7A5SDUx5pAo3gDZgsucU6EapBgwFjEUMBIGA1UEAwwLdGVhbTc1
NC1uZXSCFBKlGcy+5P4MKpAQc/SPV9632WPgMBMGA1UdJQQMMAoGCCsGAQUFBwMC
MAsGA1UdDwQEAwIHgDANBgkqhkiG9w0BAQsFAAOCAQEACkbABljL4OODUw5mnEgd
QBPsVrQ/9ZJU1ItwLEY+NHW1B1nTukvpeSorySH6DONqRgaD4bLVbAYJEoAjTAA3
KBGFdy2FHgy6XDVJ7YTFuDIxfF+DFYfMzVls2U/PTb5or6fq4zP5/7R3F/qRrsrG
Peg7PDZhNkV88qyEwIYI54k9jO5K8hya0NnI9/uhxawTTpaI5iu+2BhXTUOqda95
8cmqCZL5FyPI9xqKilRcFlMt/a0bYijt1n1g2rks47A+xoTtmfptHkHj6Zo2EuAn
NyxNtkbradddlOvj6voGIDEZGe6DUakmmLdszRFklAt6/lJ3DHYBHXaFZbrQVG2N
KQ==
-----END CERTIFICATE-----
