Certificate:
    Data:
        Version: 3 (0x2)
        Serial Number:
            61:b2:69:5b:f0:b1:47:17:b3:da:89:01:02:9c:40:83
        Signature Algorithm: sha256WithRSAEncryption
        Issuer: CN=team642-net
        Validity
            Not Before: May 18 22:59:54 2022 GMT
            Not After : May  2 22:59:54 2025 GMT
        Subject: CN=team642-client
        Subject Public Key Info:
            Public Key Algorithm: rsaEncryption
                RSA Public-Key: (2048 bit)
                Modulus:
                    00:dc:ba:e6:36:ab:53:b8:49:b8:f2:96:7c:aa:ee:
                    f4:78:27:20:4d:ed:90:79:15:80:46:a3:75:b5:28:
                    81:10:ee:fa:b0:f4:b4:72:50:22:b6:7e:61:40:08:
                    8b:50:59:5f:f1:ba:eb:52:81:02:41:d4:07:95:22:
                    77:6d:96:54:23:bf:5a:e4:98:75:8c:ae:5c:c7:d7:
                    aa:c7:eb:05:88:ed:9b:ad:79:10:a4:1e:51:bb:16:
                    80:58:2d:64:21:e3:bf:62:ab:2f:3e:f3:7a:1b:24:
                    dd:00:3d:85:e2:79:0e:53:52:b2:26:fc:de:0c:0a:
                    3c:d2:74:7c:e9:7e:4d:bd:bf:0a:78:31:f1:ff:60:
                    e4:29:77:1f:48:5d:cf:d5:61:1d:1b:4c:3b:80:7c:
                    49:f0:1d:14:db:a3:ff:ee:42:58:79:4f:53:ca:c0:
                    54:d5:97:3c:37:6d:de:6a:36:36:3d:73:14:58:f9:
                    2d:cc:82:ce:65:6c:5d:59:b4:b4:c2:61:c5:11:11:
                    ab:ae:2d:6a:ff:af:04:e7:39:b6:ea:c0:f5:22:2b:
                    fb:48:3c:54:ac:e5:91:e9:4e:fc:76:28:90:1e:e8:
                    49:bd:8b:21:ea:60:d6:6f:74:f8:19:a1:4d:2d:38:
                    0f:1b:74:7b:25:d9:aa:13:e2:c9:94:db:14:2b:78:
                    66:e9
                Exponent: 65537 (0x10001)
        X509v3 extensions:
            X509v3 Basic Constraints: 
                CA:FALSE
            X509v3 Subject Key Identifier: 
                F7:30:E1:AF:69:4B:C6:AF:EF:04:50:7A:BE:C6:FE:43:64:20:9C:F7
            X509v3 Authority Key Identifier: 
                keyid:AF:DC:BB:F4:1A:9A:D4:74:B2:6A:EE:02:D7:40:9C:3D:42:5C:7D:B4
                DirName:/CN=team642-net
                serial:1B:E9:D8:F6:4C:35:E0:05:A9:40:DE:01:92:CF:31:08:26:8C:AF:C8

            X509v3 Extended Key Usage: 
                TLS Web Client Authentication
            X509v3 Key Usage: 
                Digital Signature
    Signature Algorithm: sha256WithRSAEncryption
         32:a7:bf:21:54:83:53:60:9d:66:ea:6e:91:20:62:8b:15:dc:
         df:2a:40:7a:24:83:39:43:d6:31:91:f5:e0:3d:1a:33:ca:b9:
         e0:56:25:d5:2c:39:47:3a:e5:2a:34:37:58:24:ef:f8:0e:58:
         9f:16:ac:ff:c9:24:27:59:ef:53:74:3c:ab:bd:6f:fc:f9:88:
         f6:fa:66:3a:e8:80:2e:5d:4d:68:e8:13:08:18:88:73:20:81:
         cc:4c:a0:25:05:dc:4b:96:d5:67:f0:f7:57:71:81:b2:fd:22:
         72:11:f8:69:a1:91:91:16:28:de:dc:d9:2b:a1:df:ff:3f:cc:
         21:23:f1:b0:1f:80:ed:c1:16:b2:ba:69:74:26:3e:87:97:b5:
         4e:8c:ad:ef:18:ea:f0:f6:60:aa:b6:6f:8a:aa:01:cd:58:04:
         96:8d:ab:6e:6c:12:12:6a:ad:00:bd:b8:00:db:a0:89:81:be:
         71:46:23:12:ba:fb:45:5b:af:77:6f:98:91:b2:cc:ce:d9:76:
         25:b4:69:95:7f:02:c1:03:0c:a5:c4:cf:cd:55:50:a7:6c:f1:
         c7:dc:1d:40:bf:a4:e9:86:42:bb:33:36:2a:49:eb:14:35:bd:
         50:76:c9:89:32:cb:d6:9d:f6:ea:97:4f:2f:11:f7:0f:cc:3a:
         d1:f2:a0:52
-----BEGIN CERTIFICATE-----
MIIDXDCCAkSgAwIBAgIQYbJpW/CxRxez2okBApxAgzANBgkqhkiG9w0BAQsFADAW
MRQwEgYDVQQDDAt0ZWFtNjQyLW5ldDAeFw0yMjA1MTgyMjU5NTRaFw0yNTA1MDIy
MjU5NTRaMBkxFzAVBgNVBAMMDnRlYW02NDItY2xpZW50MIIBIjANBgkqhkiG9w0B
AQEFAAOCAQ8AMIIBCgKCAQEA3LrmNqtTuEm48pZ8qu70eCcgTe2QeRWARqN1tSiB
EO76sPS0clAitn5hQAiLUFlf8brrUoECQdQHlSJ3bZZUI79a5Jh1jK5cx9eqx+sF
iO2brXkQpB5RuxaAWC1kIeO/YqsvPvN6GyTdAD2F4nkOU1KyJvzeDAo80nR86X5N
vb8KeDHx/2DkKXcfSF3P1WEdG0w7gHxJ8B0U26P/7kJYeU9TysBU1Zc8N23eajY2
PXMUWPktzILOZWxdWbS0wmHFERGrri1q/68E5zm26sD1Iiv7SDxUrOWR6U78diiQ
HuhJvYsh6mDWb3T4GaFNLTgPG3R7JdmqE+LJlNsUK3hm6QIDAQABo4GiMIGfMAkG
A1UdEwQCMAAwHQYDVR0OBBYEFPcw4a9pS8av7wRQer7G/kNkIJz3MFEGA1UdIwRK
MEiAFK/cu/QamtR0smruAtdAnD1CXH20oRqkGDAWMRQwEgYDVQQDDAt0ZWFtNjQy
LW5ldIIUG+nY9kw14AWpQN4Bks8xCCaMr8gwEwYDVR0lBAwwCgYIKwYBBQUHAwIw
CwYDVR0PBAQDAgeAMA0GCSqGSIb3DQEBCwUAA4IBAQAyp78hVINTYJ1m6m6RIGKL
FdzfKkB6JIM5Q9YxkfXgPRozyrngViXVLDlHOuUqNDdYJO/4DlifFqz/ySQnWe9T
dDyrvW/8+Yj2+mY66IAuXU1o6BMIGIhzIIHMTKAlBdxLltVn8PdXcYGy/SJyEfhp
oZGRFije3Nkrod//P8whI/GwH4DtwRayuml0Jj6Hl7VOjK3vGOrw9mCqtm+KqgHN
WASWjatubBISaq0AvbgA26CJgb5xRiMSuvtFW693b5iRsszO2XYltGmVfwLBAwyl
xM/NVVCnbPHH3B1Av6TphkK7MzYqSesUNb1QdsmJMsvWnfbql08vEfcPzDrR8qBS
-----END CERTIFICATE-----
