Certificate:
    Data:
        Version: 3 (0x2)
        Serial Number:
            a5:5a:89:d0:f9:0d:96:65:1e:3c:f7:20:c1:62:45:e7
        Signature Algorithm: sha256WithRSAEncryption
        Issuer: CN=team327-net
        Validity
            Not Before: May 18 20:13:57 2022 GMT
            Not After : May  2 20:13:57 2025 GMT
        Subject: CN=team327-client
        Subject Public Key Info:
            Public Key Algorithm: rsaEncryption
                RSA Public-Key: (2048 bit)
                Modulus:
                    00:de:a3:3a:98:e6:f7:88:1c:9b:8a:e7:bc:fa:23:
                    b1:34:b3:67:13:53:5c:93:58:a3:aa:88:ee:9d:7d:
                    25:11:6f:fc:b7:20:17:f5:9b:86:9a:a8:07:a6:03:
                    66:d9:b8:bf:d1:a2:55:45:55:21:9f:f3:90:c0:19:
                    35:7e:bf:db:2b:71:bd:7f:94:1c:53:cd:7a:a2:a4:
                    54:c4:c6:7f:ec:fc:b4:59:0f:d0:7f:40:8f:8a:e5:
                    96:7b:f5:ad:38:40:2c:4f:08:f7:64:fb:10:d9:49:
                    dd:94:76:2b:b8:a9:24:cb:72:c6:fa:25:a5:eb:11:
                    5b:a8:a5:57:6a:17:16:72:1e:69:59:b9:38:b0:43:
                    39:51:cb:c6:eb:e7:a7:a9:c0:c3:84:fc:bd:09:ee:
                    3b:87:80:14:8b:97:6d:41:75:3d:94:cf:4a:6d:5a:
                    9a:20:41:28:4c:60:5f:8e:ae:1c:d8:2a:30:0a:31:
                    98:08:79:7c:f8:53:9e:7e:d2:ee:3f:1a:f2:eb:e2:
                    3b:c3:6d:51:95:b3:c3:26:59:2f:84:75:cd:b5:14:
                    ef:dc:68:93:5e:74:e9:bf:bf:bd:ac:46:04:d6:16:
                    22:5a:ab:4e:0a:b6:40:be:0e:d9:3c:47:dc:6f:a5:
                    75:c7:13:e2:fd:fc:a7:4f:3a:84:02:61:d2:31:92:
                    6e:33
                Exponent: 65537 (0x10001)
        X509v3 extensions:
            X509v3 Basic Constraints: 
                CA:FALSE
            X509v3 Subject Key Identifier: 
                A9:42:10:BE:63:C4:AF:8F:ED:12:E0:A5:42:E3:25:23:70:C1:3A:C4
            X509v3 Authority Key Identifier: 
                keyid:83:4E:E2:0C:89:18:D1:53:A1:41:24:4D:FF:1E:2B:08:35:B9:7F:04
                DirName:/CN=team327-net
                serial:55:96:4B:B5:0A:D2:01:32:E6:8B:AD:B4:28:22:64:C2:09:8C:8C:AB

            X509v3 Extended Key Usage: 
                TLS Web Client Authentication
            X509v3 Key Usage: 
                Digital Signature
    Signature Algorithm: sha256WithRSAEncryption
         90:81:72:eb:bc:99:d3:f3:04:af:ec:68:00:6e:dc:46:54:f4:
         52:ff:da:ec:e7:47:6b:8c:f8:8d:0d:a5:c8:42:48:3a:eb:f5:
         da:fd:9c:4b:db:d0:2b:99:a5:92:21:ca:dc:2e:38:e6:e6:e9:
         0a:3b:db:d2:6d:51:60:65:ad:c7:24:f9:14:77:0e:0c:13:5a:
         ef:82:b3:b0:a3:c0:73:84:c3:26:f6:75:1e:c0:f4:1c:e8:dc:
         9f:7c:01:9a:13:88:7e:e3:86:58:9d:82:cc:da:5f:70:96:60:
         9b:a1:be:b1:3e:88:5c:d7:5b:5d:29:5a:27:ce:e2:15:41:fc:
         a7:b9:d9:f0:64:ad:67:32:3a:3e:a5:8f:75:c2:f2:29:bd:d3:
         dd:b8:19:be:be:b8:7e:4c:93:38:23:b8:13:57:6e:02:27:53:
         fc:9f:e1:a6:40:be:57:df:1d:d6:62:0a:f8:21:d6:b9:8a:4a:
         32:a6:72:1f:e5:68:63:58:8e:26:6b:74:0a:55:6d:57:81:0d:
         5d:7e:5c:9c:c0:08:62:56:d6:48:0c:15:d6:62:f7:ef:36:ba:
         23:6d:14:13:bc:5f:5b:54:ba:91:63:d8:d9:30:37:9b:d1:6c:
         3c:be:9c:b2:a8:18:54:8d:c3:a9:13:8b:17:d3:d3:c7:9a:4d:
         e4:c2:c0:56
-----BEGIN CERTIFICATE-----
MIIDXTCCAkWgAwIBAgIRAKVaidD5DZZlHjz3IMFiRecwDQYJKoZIhvcNAQELBQAw
FjEUMBIGA1UEAwwLdGVhbTMyNy1uZXQwHhcNMjIwNTE4MjAxMzU3WhcNMjUwNTAy
MjAxMzU3WjAZMRcwFQYDVQQDDA50ZWFtMzI3LWNsaWVudDCCASIwDQYJKoZIhvcN
AQEBBQADggEPADCCAQoCggEBAN6jOpjm94gcm4rnvPojsTSzZxNTXJNYo6qI7p19
JRFv/LcgF/WbhpqoB6YDZtm4v9GiVUVVIZ/zkMAZNX6/2ytxvX+UHFPNeqKkVMTG
f+z8tFkP0H9Aj4rllnv1rThALE8I92T7ENlJ3ZR2K7ipJMtyxvolpesRW6ilV2oX
FnIeaVm5OLBDOVHLxuvnp6nAw4T8vQnuO4eAFIuXbUF1PZTPSm1amiBBKExgX46u
HNgqMAoxmAh5fPhTnn7S7j8a8uviO8NtUZWzwyZZL4R1zbUU79xok1506b+/vaxG
BNYWIlqrTgq2QL4O2TxH3G+ldccT4v38p086hAJh0jGSbjMCAwEAAaOBojCBnzAJ
BgNVHRMEAjAAMB0GA1UdDgQWBBSpQhC+Y8Svj+0S4KVC4yUjcME6xDBRBgNVHSME
SjBIgBSDTuIMiRjRU6FBJE3/HisINbl/BKEapBgwFjEUMBIGA1UEAwwLdGVhbTMy
Ny1uZXSCFFWWS7UK0gEy5outtCgiZMIJjIyrMBMGA1UdJQQMMAoGCCsGAQUFBwMC
MAsGA1UdDwQEAwIHgDANBgkqhkiG9w0BAQsFAAOCAQEAkIFy67yZ0/MEr+xoAG7c
RlT0Uv/a7OdHa4z4jQ2lyEJIOuv12v2cS9vQK5mlkiHK3C445ubpCjvb0m1RYGWt
xyT5FHcODBNa74KzsKPAc4TDJvZ1HsD0HOjcn3wBmhOIfuOGWJ2CzNpfcJZgm6G+
sT6IXNdbXSlaJ87iFUH8p7nZ8GStZzI6PqWPdcLyKb3T3bgZvr64fkyTOCO4E1du
AidT/J/hpkC+V98d1mIK+CHWuYpKMqZyH+VoY1iOJmt0ClVtV4ENXX5cnMAIYlbW
SAwV1mL37za6I20UE7xfW1S6kWPY2TA3m9FsPL6csqgYVI3DqROLF9PTx5pN5MLA
Vg==
-----END CERTIFICATE-----
