Certificate:
    Data:
        Version: 3 (0x2)
        Serial Number:
            c1:29:d5:aa:75:1b:59:4e:3b:e4:dd:9e:58:56:28:0b
        Signature Algorithm: sha256WithRSAEncryption
        Issuer: CN=team183-net
        Validity
            Not Before: May 18 18:52:51 2022 GMT
            Not After : May  2 18:52:51 2025 GMT
        Subject: CN=team183-server
        Subject Public Key Info:
            Public Key Algorithm: rsaEncryption
                RSA Public-Key: (2048 bit)
                Modulus:
                    00:a8:21:96:a8:e7:c2:be:f6:b4:c6:c1:0d:69:6c:
                    b8:98:6f:60:a9:8d:5a:5f:93:e1:3d:f7:6d:75:76:
                    95:e8:2d:6b:c3:f7:f3:47:89:29:9b:35:4e:77:b0:
                    dc:9c:50:93:50:a7:d1:77:2e:06:88:cb:ef:92:42:
                    6d:6e:6a:56:3d:b9:29:b2:1e:e2:3a:b8:2b:5b:8b:
                    f8:4b:5e:f4:03:31:fa:00:5e:5b:ec:66:e4:21:6a:
                    18:2b:de:86:07:c5:ca:67:e2:57:fe:35:c9:23:c1:
                    3c:3a:20:4f:28:09:06:cf:72:7c:6c:55:df:f1:bf:
                    b1:05:b3:8a:ba:67:13:7e:8b:39:8b:b3:27:c3:51:
                    11:78:74:ea:2c:f8:a1:df:3c:36:01:00:38:36:9d:
                    f6:5e:62:1c:22:9b:6d:48:ef:fd:ae:b5:44:6d:b1:
                    e8:8e:0a:58:28:51:bd:0b:48:22:c8:c6:7c:24:11:
                    fc:68:2c:e2:7d:0f:f0:f6:1b:02:2c:9a:af:4f:cb:
                    a9:14:18:f7:73:26:ef:85:0b:a1:cf:b7:6a:42:e9:
                    d9:7b:5b:61:b6:65:cc:97:61:ad:8c:c8:59:9b:c3:
                    80:6b:47:28:ea:ab:b4:e1:2d:2e:6a:be:39:3b:12:
                    9a:0f:bc:29:f7:80:a7:f8:20:98:00:99:36:71:e2:
                    e9:f3
                Exponent: 65537 (0x10001)
        X509v3 extensions:
            X509v3 Basic Constraints: 
                CA:FALSE
            X509v3 Subject Key Identifier: 
                26:B5:B0:1A:D4:B5:71:9C:F9:BD:F4:42:91:93:59:07:62:9E:F8:09
            X509v3 Authority Key Identifier: 
                keyid:71:63:7A:11:4B:80:63:6C:BE:F3:1D:79:EF:3A:76:E8:7C:E1:A7:63
                DirName:/CN=team183-net
                serial:79:05:A6:58:E4:8F:93:E5:0F:8F:D1:FC:AA:92:08:17:3F:9B:EA:D4

            X509v3 Extended Key Usage: 
                TLS Web Server Authentication
            X509v3 Key Usage: 
                Digital Signature, Key Encipherment
            X509v3 Subject Alternative Name: 
                DNS:team183-server
    Signature Algorithm: sha256WithRSAEncryption
         a8:7d:d5:c4:66:38:4f:51:4a:85:1c:63:b2:f3:e5:e3:19:35:
         27:cd:ea:d6:cb:d4:47:ac:ce:fc:f4:0c:5c:12:3b:1e:84:42:
         73:80:b2:d1:66:4f:18:78:f8:c8:bf:a3:d5:e9:24:34:45:a1:
         54:39:27:95:0b:eb:c4:55:ce:c1:0d:3c:20:f1:59:71:f3:39:
         3b:1b:21:1d:4c:f9:5a:4e:71:5d:e9:01:58:75:fa:e0:33:03:
         21:cf:02:62:b9:b2:fa:d4:fb:0b:7a:61:e0:76:21:29:c2:df:
         ca:c2:e3:49:35:89:96:ea:f1:5f:07:42:69:91:b1:b0:c7:8e:
         2a:f8:c2:09:9f:1b:64:a0:c1:07:16:2a:0e:e6:12:d9:96:39:
         57:44:39:b2:11:02:02:6d:ea:ae:3d:b2:f8:40:58:a8:39:ce:
         4c:ec:77:81:8a:8e:b1:cd:5f:cb:7a:4a:40:83:20:3c:87:a9:
         4d:ce:61:6e:bd:4e:b3:a3:35:2c:67:72:f2:8e:4d:48:2f:35:
         f8:96:71:90:4e:3b:04:e3:1f:59:47:7f:37:44:29:c6:5a:0d:
         1a:2e:8a:a4:36:be:6f:95:95:35:3c:33:ec:00:68:6f:93:18:
         c8:06:98:1e:f5:b1:64:24:6c:48:cb:a7:cc:1c:db:6d:68:09:
         87:06:26:a4
-----BEGIN CERTIFICATE-----
MIIDeDCCAmCgAwIBAgIRAMEp1ap1G1lOO+TdnlhWKAswDQYJKoZIhvcNAQELBQAw
FjEUMBIGA1UEAwwLdGVhbTE4My1uZXQwHhcNMjIwNTE4MTg1MjUxWhcNMjUwNTAy
MTg1MjUxWjAZMRcwFQYDVQQDDA50ZWFtMTgzLXNlcnZlcjCCASIwDQYJKoZIhvcN
AQEBBQADggEPADCCAQoCggEBAKghlqjnwr72tMbBDWlsuJhvYKmNWl+T4T33bXV2
legta8P380eJKZs1Tnew3JxQk1Cn0XcuBojL75JCbW5qVj25KbIe4jq4K1uL+Ete
9AMx+gBeW+xm5CFqGCvehgfFymfiV/41ySPBPDogTygJBs9yfGxV3/G/sQWzirpn
E36LOYuzJ8NREXh06iz4od88NgEAODad9l5iHCKbbUjv/a61RG2x6I4KWChRvQtI
IsjGfCQR/Ggs4n0P8PYbAiyar0/LqRQY93Mm74ULoc+3akLp2XtbYbZlzJdhrYzI
WZvDgGtHKOqrtOEtLmq+OTsSmg+8KfeAp/ggmACZNnHi6fMCAwEAAaOBvTCBujAJ
BgNVHRMEAjAAMB0GA1UdDgQWBBQmtbAa1LVxnPm99EKRk1kHYp74CTBRBgNVHSME
SjBIgBRxY3oRS4BjbL7zHXnvOnbofOGnY6EapBgwFjEUMBIGA1UEAwwLdGVhbTE4
My1uZXSCFHkFpljkj5PlD4/R/KqSCBc/m+rUMBMGA1UdJQQMMAoGCCsGAQUFBwMB
MAsGA1UdDwQEAwIFoDAZBgNVHREEEjAQgg50ZWFtMTgzLXNlcnZlcjANBgkqhkiG
9w0BAQsFAAOCAQEAqH3VxGY4T1FKhRxjsvPl4xk1J83q1svUR6zO/PQMXBI7HoRC
c4Cy0WZPGHj4yL+j1ekkNEWhVDknlQvrxFXOwQ08IPFZcfM5OxshHUz5Wk5xXekB
WHX64DMDIc8CYrmy+tT7C3ph4HYhKcLfysLjSTWJlurxXwdCaZGxsMeOKvjCCZ8b
ZKDBBxYqDuYS2ZY5V0Q5shECAm3qrj2y+EBYqDnOTOx3gYqOsc1fy3pKQIMgPIep
Tc5hbr1Os6M1LGdy8o5NSC81+JZxkE47BOMfWUd/N0QpxloNGi6KpDa+b5WVNTwz
7ABob5MYyAaYHvWxZCRsSMunzBzbbWgJhwYmpA==
-----END CERTIFICATE-----
