Certificate:
    Data:
        Version: 3 (0x2)
        Serial Number:
            cc:d3:94:2e:33:b8:40:cf:d6:81:b1:79:f5:f4:83:97
        Signature Algorithm: sha256WithRSAEncryption
        Issuer: CN=team75-net
        Validity
            Not Before: May 18 14:32:12 2022 GMT
            Not After : May  2 14:32:12 2025 GMT
        Subject: CN=team75-server
        Subject Public Key Info:
            Public Key Algorithm: rsaEncryption
                RSA Public-Key: (2048 bit)
                Modulus:
                    00:be:44:e5:b5:94:c4:6a:69:55:d8:dc:49:ed:a0:
                    b6:45:41:13:ec:08:b9:c7:c1:ed:ed:0c:55:fb:b9:
                    6d:64:f8:e8:93:b0:5a:e5:8f:12:89:64:84:f8:b8:
                    ad:15:88:dd:89:99:8b:10:71:6e:ce:49:5f:ad:1f:
                    71:31:3a:16:f1:83:e9:ba:b7:5c:fd:0c:73:ab:88:
                    2f:c0:cd:76:34:64:2b:4e:fe:60:60:56:c0:3d:02:
                    d7:d1:9b:a1:68:3b:16:92:4a:f9:b9:cd:25:3f:3d:
                    2c:57:28:13:08:aa:62:eb:51:3c:27:bd:af:e7:9a:
                    27:fc:fe:55:e5:56:47:59:4f:13:fd:7d:02:5b:6c:
                    67:1a:7e:df:87:59:cf:81:2c:01:8e:f9:4b:d9:dd:
                    e3:16:38:d5:e4:10:c8:9e:27:93:af:e8:e4:3b:d2:
                    4b:ee:59:d7:3f:ab:e1:e7:a8:35:3c:35:7d:84:ed:
                    b7:ec:28:d8:dd:0a:4e:0b:51:40:76:06:73:04:11:
                    75:7f:8d:2a:7c:76:ed:0b:32:13:4c:17:5c:7a:4f:
                    af:6f:f6:f3:25:cd:1f:35:50:f5:a7:c3:21:c5:b6:
                    29:f2:5c:59:2d:eb:68:da:bf:28:0d:9b:27:ec:96:
                    eb:43:19:94:e0:c1:70:e0:17:8b:ec:f7:3d:4e:76:
                    33:bd
                Exponent: 65537 (0x10001)
        X509v3 extensions:
            X509v3 Basic Constraints: 
                CA:FALSE
            X509v3 Subject Key Identifier: 
                39:2B:2B:2A:6C:35:61:95:89:FC:DE:8E:CF:71:A2:FA:65:5D:CF:96
            X509v3 Authority Key Identifier: 
                keyid:BC:62:42:56:F3:88:38:AE:57:07:3C:48:88:F6:4D:BA:BC:28:93:93
                DirName:/CN=team75-net
                serial:13:4A:40:98:7E:BF:29:2C:B4:B5:10:66:81:92:57:75:DF:02:8D:C1

            X509v3 Extended Key Usage: 
                TLS Web Server Authentication
            X509v3 Key Usage: 
                Digital Signature, Key Encipherment
            X509v3 Subject Alternative Name: 
                DNS:team75-server
    Signature Algorithm: sha256WithRSAEncryption
         6a:6f:86:72:a1:3f:97:53:2a:47:0c:f6:13:22:6c:02:cd:75:
         53:35:b6:b2:b5:0a:fa:74:36:e6:74:c8:9a:44:95:76:b7:a4:
         64:2b:1b:5a:62:00:79:1f:94:59:e7:6c:d2:43:f9:a3:d5:8c:
         f4:aa:d7:ca:22:34:4d:9e:de:c6:88:53:5a:fe:92:8d:08:94:
         e0:cc:1c:c0:30:2d:8e:8e:6b:8e:a8:8c:cb:b8:ad:12:32:05:
         f9:77:41:62:c1:5a:44:89:cd:e9:6a:4b:6c:30:2c:bf:c1:70:
         d2:21:a7:4f:00:53:cc:e3:05:89:c1:a8:cb:e3:26:96:3e:02:
         38:37:83:a2:e8:2b:c6:b5:ee:c4:f9:fe:92:82:ee:83:f9:75:
         ae:3f:c6:61:39:1e:33:b4:f3:3d:85:94:e8:93:db:0b:60:b5:
         fc:4c:d4:78:d3:35:e6:1d:bd:37:62:2b:14:07:39:f2:77:04:
         52:2c:6f:53:8e:d9:5d:59:14:a3:d9:f9:90:e4:05:13:95:ba:
         87:9e:42:d3:28:58:e2:46:23:1a:36:14:b2:58:dc:5f:6f:d0:
         06:83:21:98:07:df:16:f9:a7:0a:a2:e7:93:ae:cd:65:cf:e1:
         2d:35:24:62:26:30:b9:1c:ae:a2:f4:d9:23:1c:3a:45:13:27:
         a0:46:f9:87
-----BEGIN CERTIFICATE-----
MIIDdDCCAlygAwIBAgIRAMzTlC4zuEDP1oGxefX0g5cwDQYJKoZIhvcNAQELBQAw
FTETMBEGA1UEAwwKdGVhbTc1LW5ldDAeFw0yMjA1MTgxNDMyMTJaFw0yNTA1MDIx
NDMyMTJaMBgxFjAUBgNVBAMMDXRlYW03NS1zZXJ2ZXIwggEiMA0GCSqGSIb3DQEB
AQUAA4IBDwAwggEKAoIBAQC+ROW1lMRqaVXY3EntoLZFQRPsCLnHwe3tDFX7uW1k
+OiTsFrljxKJZIT4uK0ViN2JmYsQcW7OSV+tH3ExOhbxg+m6t1z9DHOriC/AzXY0
ZCtO/mBgVsA9AtfRm6FoOxaSSvm5zSU/PSxXKBMIqmLrUTwnva/nmif8/lXlVkdZ
TxP9fQJbbGcaft+HWc+BLAGO+UvZ3eMWONXkEMieJ5Ov6OQ70kvuWdc/q+HnqDU8
NX2E7bfsKNjdCk4LUUB2BnMEEXV/jSp8du0LMhNMF1x6T69v9vMlzR81UPWnwyHF
tinyXFkt62javygNmyfslutDGZTgwXDgF4vs9z1OdjO9AgMBAAGjgbswgbgwCQYD
VR0TBAIwADAdBgNVHQ4EFgQUOSsrKmw1YZWJ/N6Oz3Gi+mVdz5YwUAYDVR0jBEkw
R4AUvGJCVvOIOK5XBzxIiPZNurwok5OhGaQXMBUxEzARBgNVBAMMCnRlYW03NS1u
ZXSCFBNKQJh+vykstLUQZoGSV3XfAo3BMBMGA1UdJQQMMAoGCCsGAQUFBwMBMAsG
A1UdDwQEAwIFoDAYBgNVHREEETAPgg10ZWFtNzUtc2VydmVyMA0GCSqGSIb3DQEB
CwUAA4IBAQBqb4ZyoT+XUypHDPYTImwCzXVTNbaytQr6dDbmdMiaRJV2t6RkKxta
YgB5H5RZ52zSQ/mj1Yz0qtfKIjRNnt7GiFNa/pKNCJTgzBzAMC2OjmuOqIzLuK0S
MgX5d0FiwVpEic3paktsMCy/wXDSIadPAFPM4wWJwajL4yaWPgI4N4Oi6CvGte7E
+f6Sgu6D+XWuP8ZhOR4ztPM9hZTok9sLYLX8TNR40zXmHb03YisUBznydwRSLG9T
jtldWRSj2fmQ5AUTlbqHnkLTKFjiRiMaNhSyWNxfb9AGgyGYB98W+acKoueTrs1l
z+EtNSRiJjC5HK6i9NkjHDpFEyegRvmH
-----END CERTIFICATE-----
