Certificate:
    Data:
        Version: 3 (0x2)
        Serial Number:
            cc:6b:5d:e0:6f:91:0c:c4:3c:92:02:fa:f3:78:97:10
        Signature Algorithm: sha256WithRSAEncryption
        Issuer: CN=team561-net
        Validity
            Not Before: May 18 22:19:12 2022 GMT
            Not After : May  2 22:19:12 2025 GMT
        Subject: CN=team561-client
        Subject Public Key Info:
            Public Key Algorithm: rsaEncryption
                RSA Public-Key: (2048 bit)
                Modulus:
                    00:e0:fa:ce:e9:a7:a6:72:a4:06:76:17:33:88:89:
                    0f:6d:a6:bf:49:d2:c3:a3:5b:e4:c3:e1:1b:64:15:
                    cf:3f:42:4e:7a:dd:04:b4:36:77:42:55:45:b7:92:
                    b4:51:7c:a3:d6:16:6d:f1:44:a1:9c:5d:32:7b:c9:
                    12:18:8f:0e:1d:8e:5b:26:fa:51:a4:9b:7c:3d:a7:
                    18:07:ae:6d:2d:11:c3:02:96:80:7c:31:fc:5a:23:
                    9e:26:33:71:6f:81:aa:43:b4:38:83:ac:32:83:7d:
                    9e:ec:04:c9:0a:32:cb:09:f0:c1:98:34:3e:26:7d:
                    2d:ad:68:5e:16:47:63:38:6b:14:2c:c3:01:e0:a2:
                    65:d4:c8:f0:f6:18:58:96:35:d0:4f:6c:3d:bd:04:
                    08:9c:1c:c4:bb:23:2c:aa:2e:57:16:0f:13:62:a2:
                    b7:3e:40:1c:4b:f3:74:39:b7:27:13:50:84:fc:5a:
                    1c:53:78:3d:5f:48:24:38:a2:11:32:cf:8d:08:7c:
                    df:f6:c6:f2:47:08:04:9f:cf:1f:37:98:61:3a:92:
                    d0:8d:1b:0d:3a:47:49:cc:18:f9:c7:8a:5b:4a:43:
                    a4:ee:58:04:94:68:ff:33:57:84:ca:22:db:d9:ee:
                    0d:aa:eb:3a:9a:52:3e:71:06:b5:6e:13:0d:72:9d:
                    4d:89
                Exponent: 65537 (0x10001)
        X509v3 extensions:
            X509v3 Basic Constraints: 
                CA:FALSE
            X509v3 Subject Key Identifier: 
                A5:46:3D:13:0D:74:14:F3:62:6E:78:7C:9C:ED:57:5E:6E:55:EC:6E
            X509v3 Authority Key Identifier: 
                keyid:48:21:7F:D7:71:B6:0B:9F:71:8C:B2:B0:A2:73:AC:FB:FF:74:87:0A
                DirName:/CN=team561-net
                serial:EA:2A:E3:00:17:0B:92:76:EF:3A:25:C6:35:46:4A:7C:51:86:67

            X509v3 Extended Key Usage: 
                TLS Web Client Authentication
            X509v3 Key Usage: 
                Digital Signature
    Signature Algorithm: sha256WithRSAEncryption
         55:94:76:b7:f2:b1:12:56:d3:50:43:1a:7c:ab:9d:2a:c6:6c:
         fc:28:f7:46:6d:1d:cf:e6:da:3c:dd:12:2d:73:2e:de:a0:c3:
         20:20:bc:3c:ca:59:b9:5a:6c:0d:14:5e:f4:c5:89:a0:06:e2:
         f0:95:93:4e:81:68:bf:ac:4f:b7:08:93:be:ce:c1:31:a1:15:
         5a:16:b2:ba:54:c4:f8:15:0c:c1:87:11:fc:9a:b7:67:9b:74:
         c1:d9:a5:a0:25:c6:90:fe:97:76:7a:dc:1d:d9:9a:51:24:c4:
         e8:98:62:50:fe:14:d0:dc:08:83:d5:a5:42:00:9e:76:08:eb:
         02:b6:af:80:1d:00:a3:5c:cc:36:7a:bc:59:ae:38:0c:5f:3a:
         cd:3f:ac:d6:15:23:f7:4c:d7:42:5f:0b:ea:9a:35:72:b1:ae:
         8a:bf:ab:b3:ad:48:45:44:cf:22:7d:83:25:0d:2c:ed:02:12:
         cd:b1:e0:fb:a9:e2:81:80:86:eb:9d:47:cb:d0:4d:ce:71:35:
         c9:bc:a1:88:d6:25:9f:6a:5a:eb:c1:49:1f:d7:e9:8c:ed:3f:
         89:75:77:0e:91:7e:35:be:9f:eb:6d:02:2a:b2:c6:aa:fb:df:
         60:4b:92:c4:f4:13:91:f4:a3:ca:21:ce:fc:32:d8:b6:6c:36:
         e3:d3:2e:04
-----BEGIN CERTIFICATE-----
MIIDXTCCAkWgAwIBAgIRAMxrXeBvkQzEPJIC+vN4lxAwDQYJKoZIhvcNAQELBQAw
FjEUMBIGA1UEAwwLdGVhbTU2MS1uZXQwHhcNMjIwNTE4MjIxOTEyWhcNMjUwNTAy
MjIxOTEyWjAZMRcwFQYDVQQDDA50ZWFtNTYxLWNsaWVudDCCASIwDQYJKoZIhvcN
AQEBBQADggEPADCCAQoCggEBAOD6zumnpnKkBnYXM4iJD22mv0nSw6Nb5MPhG2QV
zz9CTnrdBLQ2d0JVRbeStFF8o9YWbfFEoZxdMnvJEhiPDh2OWyb6UaSbfD2nGAeu
bS0RwwKWgHwx/FojniYzcW+BqkO0OIOsMoN9nuwEyQoyywnwwZg0PiZ9La1oXhZH
YzhrFCzDAeCiZdTI8PYYWJY10E9sPb0ECJwcxLsjLKouVxYPE2Kitz5AHEvzdDm3
JxNQhPxaHFN4PV9IJDiiETLPjQh83/bG8kcIBJ/PHzeYYTqS0I0bDTpHScwY+ceK
W0pDpO5YBJRo/zNXhMoi29nuDarrOppSPnEGtW4TDXKdTYkCAwEAAaOBojCBnzAJ
BgNVHRMEAjAAMB0GA1UdDgQWBBSlRj0TDXQU82JueHyc7VdeblXsbjBRBgNVHSME
SjBIgBRIIX/XcbYLn3GMsrCic6z7/3SHCqEapBgwFjEUMBIGA1UEAwwLdGVhbTU2
MS1uZXSCFADqKuMAFwuSdu86JcY1Rkp8UYZnMBMGA1UdJQQMMAoGCCsGAQUFBwMC
MAsGA1UdDwQEAwIHgDANBgkqhkiG9w0BAQsFAAOCAQEAVZR2t/KxElbTUEMafKud
KsZs/Cj3Rm0dz+baPN0SLXMu3qDDICC8PMpZuVpsDRRe9MWJoAbi8JWTToFov6xP
twiTvs7BMaEVWhayulTE+BUMwYcR/Jq3Z5t0wdmloCXGkP6XdnrcHdmaUSTE6Jhi
UP4U0NwIg9WlQgCedgjrAravgB0Ao1zMNnq8Wa44DF86zT+s1hUj90zXQl8L6po1
crGuir+rs61IRUTPIn2DJQ0s7QISzbHg+6nigYCG651Hy9BNznE1ybyhiNYln2pa
68FJH9fpjO0/iXV3DpF+Nb6f620CKrLGqvvfYEuSxPQTkfSjyiHO/DLYtmw249Mu
BA==
-----END CERTIFICATE-----
