Certificate:
    Data:
        Version: 3 (0x2)
        Serial Number:
            7e:e7:81:82:e3:19:76:d0:89:ec:53:d8:16:c4:56:52
        Signature Algorithm: sha256WithRSAEncryption
        Issuer: CN=team437-net
        Validity
            Not Before: May 18 21:15:31 2022 GMT
            Not After : May  2 21:15:31 2025 GMT
        Subject: CN=team437-client
        Subject Public Key Info:
            Public Key Algorithm: rsaEncryption
                RSA Public-Key: (2048 bit)
                Modulus:
                    00:c4:fc:ac:89:e2:cc:40:17:83:70:77:95:b1:69:
                    8a:91:52:a2:ad:24:41:22:0a:97:a7:79:eb:bd:c3:
                    f2:5e:8b:75:72:e5:ee:0a:5a:b7:d8:a0:5d:22:cb:
                    fc:b3:6c:31:c3:f4:4a:6c:2c:43:31:72:ea:b3:f8:
                    dc:1b:97:7d:43:5b:c6:3d:ae:bd:dc:f6:cc:f5:97:
                    09:5b:c4:21:64:b0:d2:6a:72:f1:2b:83:e6:fd:0a:
                    8e:95:45:17:34:eb:7e:1c:b5:9d:26:2e:13:3c:78:
                    5e:c5:0d:7a:db:ef:4a:ed:c0:79:d8:fa:f0:e9:00:
                    e7:ae:4b:90:9e:e0:3c:e9:d4:ed:c3:24:6f:8d:55:
                    47:a5:5b:18:a1:62:cc:01:62:6b:d9:1f:3c:36:72:
                    5c:78:74:f1:cf:9f:f1:f6:14:27:44:a6:08:7e:92:
                    3d:33:09:5c:27:af:07:80:83:be:2f:7a:61:64:56:
                    8d:80:63:bc:71:17:35:c3:c4:b0:6b:99:8d:28:06:
                    2e:6f:44:21:25:c6:6b:fd:b6:e1:cc:7a:09:31:f7:
                    2f:69:af:62:19:8c:b8:80:15:19:18:24:ff:da:96:
                    4c:06:4d:11:4a:d4:a2:cf:1a:2e:0b:73:8e:35:ae:
                    81:cd:51:ea:e3:f3:97:e0:c4:11:e1:46:07:b9:89:
                    63:51
                Exponent: 65537 (0x10001)
        X509v3 extensions:
            X509v3 Basic Constraints: 
                CA:FALSE
            X509v3 Subject Key Identifier: 
                BD:BD:FE:40:BD:BA:3E:32:A6:5F:AB:5C:9D:6D:00:C5:02:56:F9:B7
            X509v3 Authority Key Identifier: 
                keyid:57:55:D1:C2:B6:02:1C:C9:A6:29:3E:8A:6C:5C:F7:96:8D:BA:BB:E7
                DirName:/CN=team437-net
                serial:56:BF:AA:CC:04:CB:3D:21:F0:2C:4E:F1:7C:EE:54:80:26:26:DA:DF

            X509v3 Extended Key Usage: 
                TLS Web Client Authentication
            X509v3 Key Usage: 
                Digital Signature
    Signature Algorithm: sha256WithRSAEncryption
         b2:e2:f5:85:b1:44:5e:e6:67:cd:b0:d4:1f:30:dd:42:41:71:
         97:7a:1a:70:00:ac:83:c7:55:35:c4:f0:7e:6d:2a:2b:fe:79:
         73:f2:0f:29:10:fe:33:e1:30:cb:3e:be:50:13:a7:c1:d2:7a:
         70:d7:07:f9:6c:c1:02:39:f7:55:b0:7c:1e:a7:a6:d7:4b:01:
         00:2c:77:b1:a2:f3:c7:e4:17:76:ad:88:b2:7b:92:80:23:cc:
         22:96:88:33:e5:37:54:13:b7:71:b4:77:ab:d4:7c:00:90:8f:
         7b:13:cf:8a:d3:0d:1b:dc:7a:63:ef:00:82:3d:46:8d:cb:fc:
         88:fe:e8:4b:aa:2e:7b:91:12:de:af:a0:51:39:6b:b7:f4:6b:
         b6:6e:74:85:43:b7:f4:7e:cc:e1:59:f7:aa:60:cf:c4:30:19:
         96:31:47:26:cf:dd:2e:25:c6:0f:d5:03:89:fd:d0:76:b9:99:
         22:50:ec:d4:64:26:7d:eb:6b:71:4a:a9:10:10:c0:b8:67:67:
         cd:a6:c5:9e:ab:eb:6b:b4:98:52:cf:aa:f7:3c:82:e9:f6:dc:
         71:4f:43:74:11:dc:5b:ca:e9:0e:d8:9c:b0:1c:9e:52:ae:3f:
         4d:10:d1:70:66:b7:dc:40:9b:49:19:25:1e:03:18:3d:71:38:
         f0:93:9b:d6
-----BEGIN CERTIFICATE-----
MIIDXDCCAkSgAwIBAgIQfueBguMZdtCJ7FPYFsRWUjANBgkqhkiG9w0BAQsFADAW
MRQwEgYDVQQDDAt0ZWFtNDM3LW5ldDAeFw0yMjA1MTgyMTE1MzFaFw0yNTA1MDIy
MTE1MzFaMBkxFzAVBgNVBAMMDnRlYW00MzctY2xpZW50MIIBIjANBgkqhkiG9w0B
AQEFAAOCAQ8AMIIBCgKCAQEAxPysieLMQBeDcHeVsWmKkVKirSRBIgqXp3nrvcPy
Xot1cuXuClq32KBdIsv8s2wxw/RKbCxDMXLqs/jcG5d9Q1vGPa693PbM9ZcJW8Qh
ZLDSanLxK4Pm/QqOlUUXNOt+HLWdJi4TPHhexQ162+9K7cB52Prw6QDnrkuQnuA8
6dTtwyRvjVVHpVsYoWLMAWJr2R88NnJceHTxz5/x9hQnRKYIfpI9MwlcJ68HgIO+
L3phZFaNgGO8cRc1w8Swa5mNKAYub0QhJcZr/bbhzHoJMfcvaa9iGYy4gBUZGCT/
2pZMBk0RStSizxouC3OONa6BzVHq4/OX4MQR4UYHuYljUQIDAQABo4GiMIGfMAkG
A1UdEwQCMAAwHQYDVR0OBBYEFL29/kC9uj4ypl+rXJ1tAMUCVvm3MFEGA1UdIwRK
MEiAFFdV0cK2AhzJpik+imxc95aNurvnoRqkGDAWMRQwEgYDVQQDDAt0ZWFtNDM3
LW5ldIIUVr+qzATLPSHwLE7xfO5UgCYm2t8wEwYDVR0lBAwwCgYIKwYBBQUHAwIw
CwYDVR0PBAQDAgeAMA0GCSqGSIb3DQEBCwUAA4IBAQCy4vWFsURe5mfNsNQfMN1C
QXGXehpwAKyDx1U1xPB+bSor/nlz8g8pEP4z4TDLPr5QE6fB0npw1wf5bMECOfdV
sHwep6bXSwEALHexovPH5Bd2rYiye5KAI8wilogz5TdUE7dxtHer1HwAkI97E8+K
0w0b3Hpj7wCCPUaNy/yI/uhLqi57kRLer6BROWu39Gu2bnSFQ7f0fszhWfeqYM/E
MBmWMUcmz90uJcYP1QOJ/dB2uZkiUOzUZCZ962txSqkQEMC4Z2fNpsWeq+trtJhS
z6r3PILp9txxT0N0EdxbyukO2JywHJ5Srj9NENFwZrfcQJtJGSUeAxg9cTjwk5vW
-----END CERTIFICATE-----
