Certificate:
    Data:
        Version: 3 (0x2)
        Serial Number:
            c2:79:c1:e4:ab:5e:3d:d1:10:e5:64:12:82:7e:5a:19
        Signature Algorithm: sha256WithRSAEncryption
        Issuer: CN=team356-net
        Validity
            Not Before: May 18 20:33:02 2022 GMT
            Not After : May  2 20:33:02 2025 GMT
        Subject: CN=team356-client
        Subject Public Key Info:
            Public Key Algorithm: rsaEncryption
                RSA Public-Key: (2048 bit)
                Modulus:
                    00:d7:4a:87:22:fe:6f:99:dd:8a:86:f8:2a:af:cd:
                    4e:d9:b6:92:88:ef:59:5c:32:6b:2e:90:61:85:24:
                    be:3e:6b:0a:23:6b:de:99:7f:d1:7e:7e:ff:15:ac:
                    59:1d:bc:5e:aa:cd:24:ef:00:4c:b4:89:31:aa:c8:
                    c6:a7:81:db:e1:f2:d8:f5:51:5d:e1:4e:b6:f5:6c:
                    6e:8c:1e:14:e3:8d:5f:3d:9e:09:74:a3:07:35:a8:
                    b4:4d:6b:03:41:88:87:40:f4:a7:78:ab:00:47:8c:
                    8f:47:cc:23:33:c4:2e:4e:10:fd:3c:9a:89:73:d2:
                    e7:73:15:7d:5c:88:d9:68:f5:7f:d0:8d:5b:99:b3:
                    df:fd:f5:65:06:a1:07:c2:18:93:e5:0a:ea:c2:ca:
                    17:97:dd:a7:7c:1d:47:06:1b:5a:a5:67:56:ec:a8:
                    7b:54:8e:ba:b9:7f:08:05:2d:ba:ca:9b:d4:37:93:
                    aa:3d:bd:93:c8:7e:71:21:48:ff:ad:aa:64:e5:6b:
                    e0:42:56:12:05:bf:72:12:ed:b5:df:e1:8a:2b:52:
                    43:5d:b5:40:5d:d2:72:7a:cb:f9:45:ce:f3:a8:f9:
                    0f:67:07:49:c5:d3:6a:1e:9c:c1:00:ac:52:1f:d7:
                    60:5e:1a:e9:b2:e1:de:60:b4:e4:d3:9d:67:72:b5:
                    a3:4f
                Exponent: 65537 (0x10001)
        X509v3 extensions:
            X509v3 Basic Constraints: 
                CA:FALSE
            X509v3 Subject Key Identifier: 
                82:FB:0C:C0:EC:C1:EA:1C:AD:E3:67:BC:F8:5F:1F:0C:0C:6D:54:1E
            X509v3 Authority Key Identifier: 
                keyid:06:D0:4B:1E:7D:1C:7B:A0:42:66:81:0B:90:83:B6:C1:C4:BB:00:23
                DirName:/CN=team356-net
                serial:72:CC:8E:C8:F1:10:37:73:B4:26:7C:DE:B5:E0:09:78:A2:89:DC:18

            X509v3 Extended Key Usage: 
                TLS Web Client Authentication
            X509v3 Key Usage: 
                Digital Signature
    Signature Algorithm: sha256WithRSAEncryption
         40:dd:90:d2:ac:52:4f:72:e3:05:6a:bd:67:a4:65:82:d0:f5:
         56:01:ef:5f:c6:2f:c2:77:88:34:ac:be:44:da:8a:dc:88:dd:
         79:7d:d0:06:e1:4f:8b:dd:cb:47:05:04:f7:f7:32:f7:c0:99:
         6c:04:68:ef:91:7e:dc:8c:c3:88:d7:b5:8b:dd:f0:87:30:18:
         9f:d3:20:4e:91:20:7f:19:82:58:62:eb:22:1d:e9:9b:c1:9b:
         12:d1:d6:cc:2d:01:80:d7:51:8c:ba:ce:16:aa:07:75:a1:57:
         67:da:e7:b8:0a:57:d4:4e:f4:98:7b:99:06:bf:51:02:d7:9d:
         aa:b0:0d:91:80:4d:50:fa:15:0b:04:42:ef:ab:62:c3:ce:87:
         5e:58:cb:f6:78:90:ec:87:e8:0e:ed:2c:80:cc:a5:b0:91:4f:
         d9:94:15:ad:24:93:3b:61:15:7a:e2:23:5c:b5:5d:22:a6:62:
         c8:40:a4:5a:24:95:89:8f:b5:af:c9:d4:d2:bf:cc:a6:60:5a:
         44:1c:fb:a6:cb:98:ad:79:6e:bb:83:04:49:03:87:ea:f7:16:
         ae:6c:42:1e:64:96:c5:d6:76:b3:69:64:1e:91:23:16:80:11:
         81:f5:3b:b6:ff:3a:aa:9f:a3:47:c2:df:86:5f:aa:90:02:b5:
         e5:e2:4e:13
-----BEGIN CERTIFICATE-----
MIIDXTCCAkWgAwIBAgIRAMJ5weSrXj3REOVkEoJ+WhkwDQYJKoZIhvcNAQELBQAw
FjEUMBIGA1UEAwwLdGVhbTM1Ni1uZXQwHhcNMjIwNTE4MjAzMzAyWhcNMjUwNTAy
MjAzMzAyWjAZMRcwFQYDVQQDDA50ZWFtMzU2LWNsaWVudDCCASIwDQYJKoZIhvcN
AQEBBQADggEPADCCAQoCggEBANdKhyL+b5ndiob4Kq/NTtm2kojvWVwyay6QYYUk
vj5rCiNr3pl/0X5+/xWsWR28XqrNJO8ATLSJMarIxqeB2+Hy2PVRXeFOtvVsbowe
FOONXz2eCXSjBzWotE1rA0GIh0D0p3irAEeMj0fMIzPELk4Q/TyaiXPS53MVfVyI
2Wj1f9CNW5mz3/31ZQahB8IYk+UK6sLKF5fdp3wdRwYbWqVnVuyoe1SOurl/CAUt
usqb1DeTqj29k8h+cSFI/62qZOVr4EJWEgW/chLttd/hiitSQ121QF3ScnrL+UXO
86j5D2cHScXTah6cwQCsUh/XYF4a6bLh3mC05NOdZ3K1o08CAwEAAaOBojCBnzAJ
BgNVHRMEAjAAMB0GA1UdDgQWBBSC+wzA7MHqHK3jZ7z4Xx8MDG1UHjBRBgNVHSME
SjBIgBQG0EsefRx7oEJmgQuQg7bBxLsAI6EapBgwFjEUMBIGA1UEAwwLdGVhbTM1
Ni1uZXSCFHLMjsjxEDdztCZ83rXgCXiiidwYMBMGA1UdJQQMMAoGCCsGAQUFBwMC
MAsGA1UdDwQEAwIHgDANBgkqhkiG9w0BAQsFAAOCAQEAQN2Q0qxST3LjBWq9Z6Rl
gtD1VgHvX8YvwneINKy+RNqK3IjdeX3QBuFPi93LRwUE9/cy98CZbARo75F+3IzD
iNe1i93whzAYn9MgTpEgfxmCWGLrIh3pm8GbEtHWzC0BgNdRjLrOFqoHdaFXZ9rn
uApX1E70mHuZBr9RAtedqrANkYBNUPoVCwRC76tiw86HXljL9niQ7IfoDu0sgMyl
sJFP2ZQVrSSTO2EVeuIjXLVdIqZiyECkWiSViY+1r8nU0r/MpmBaRBz7psuYrXlu
u4MESQOH6vcWrmxCHmSWxdZ2s2lkHpEjFoARgfU7tv86qp+jR8Lfhl+qkAK15eJO
Ew==
-----END CERTIFICATE-----
