Certificate:
    Data:
        Version: 3 (0x2)
        Serial Number:
            1d:09:05:9e:fb:71:5e:a7:76:c9:ac:fc:76:72:14:af
        Signature Algorithm: sha256WithRSAEncryption
        Issuer: CN=team397-net
        Validity
            Not Before: May 18 21:00:10 2022 GMT
            Not After : May  2 21:00:10 2025 GMT
        Subject: CN=team397-server
        Subject Public Key Info:
            Public Key Algorithm: rsaEncryption
                RSA Public-Key: (2048 bit)
                Modulus:
                    00:b5:5c:54:82:7d:83:98:29:c9:51:31:55:7f:cf:
                    41:14:10:ab:93:de:28:e3:2e:2b:77:e3:2b:cf:52:
                    55:2e:a3:43:b7:0c:62:b5:6d:f6:dd:b3:51:7f:6a:
                    d0:33:de:39:64:06:4c:25:f0:12:d8:b5:0a:0c:c7:
                    fb:28:cb:53:d1:e2:c3:01:5f:75:88:12:a5:db:2a:
                    7f:52:08:41:13:f8:fe:40:b3:ee:43:ef:0c:d5:d2:
                    69:a1:22:81:12:31:8a:c3:3f:1b:4a:a4:54:02:5c:
                    f9:b6:73:c7:ee:1d:d5:d0:75:f3:99:21:00:84:38:
                    c9:ec:b6:32:53:72:04:99:04:62:e8:e6:7f:14:49:
                    7e:83:32:55:02:20:c0:ed:ab:9f:cb:b0:02:ed:a6:
                    6c:53:57:ce:38:ad:05:b8:72:aa:19:ea:a2:73:f6:
                    85:d0:cd:83:70:1a:3e:15:6e:a8:70:ab:ed:63:29:
                    8f:14:c3:2a:1d:b6:ae:af:b3:14:ab:b0:57:79:dd:
                    5d:70:2d:5c:04:d0:94:b8:e2:0a:e6:e0:c4:43:fa:
                    39:e6:58:85:eb:1d:e6:e6:31:ce:d0:dd:1e:a6:df:
                    bd:b8:3a:45:54:ac:e7:d6:00:26:87:e1:2e:28:f4:
                    5f:54:ce:3d:cf:c6:d4:a7:7b:31:d7:5f:68:73:72:
                    64:c9
                Exponent: 65537 (0x10001)
        X509v3 extensions:
            X509v3 Basic Constraints: 
                CA:FALSE
            X509v3 Subject Key Identifier: 
                B7:2B:CD:C5:80:04:86:15:31:14:B8:92:1E:56:F4:54:40:5C:0A:61
            X509v3 Authority Key Identifier: 
                keyid:3B:15:E8:9D:CB:EF:4D:C5:FE:C5:D0:5E:BB:CD:19:55:C9:F1:61:3D
                DirName:/CN=team397-net
                serial:58:09:85:81:45:60:53:72:7F:B4:52:E0:F8:B3:5A:1B:AB:88:B5:B6

            X509v3 Extended Key Usage: 
                TLS Web Server Authentication
            X509v3 Key Usage: 
                Digital Signature, Key Encipherment
            X509v3 Subject Alternative Name: 
                DNS:team397-server
    Signature Algorithm: sha256WithRSAEncryption
         af:6d:9e:04:dd:ea:bc:ad:18:ca:c4:ad:ef:aa:dc:b5:6b:e5:
         67:24:58:7f:f0:7f:2b:0c:84:fd:d8:d2:9c:8f:8d:27:e4:63:
         d9:4c:36:ad:4f:30:3f:23:ee:e6:7e:fc:b3:b1:2b:d4:e7:e1:
         65:58:c6:e3:d5:2e:75:8d:9a:2b:29:ef:26:14:9a:e4:fd:d9:
         e7:3f:42:dd:e5:6e:59:82:00:63:04:7d:c5:e9:6f:f3:8b:49:
         01:50:0f:45:1e:7a:1a:6f:bc:20:8f:ef:2a:84:3a:0e:f9:c9:
         ec:81:97:75:3c:50:ab:4c:22:94:35:b4:e0:ae:1f:a6:1d:e8:
         ff:4c:c7:b4:14:06:bb:fc:e4:f0:5b:15:25:b4:09:2a:5c:93:
         58:d1:29:fd:bb:37:1b:17:55:23:61:c2:c8:40:2d:94:74:3a:
         00:9c:d6:f1:ea:c7:72:9e:9d:f1:ec:ff:71:cd:39:b4:b3:84:
         aa:71:62:09:44:43:8d:a0:60:e7:d5:19:fe:b1:f0:ac:c5:2e:
         8f:46:f7:38:76:5a:a2:0c:ae:50:2e:92:48:8e:15:5b:75:09:
         66:06:ec:7a:83:e2:cb:35:04:c3:e1:4f:fc:4f:22:dc:cb:fc:
         8c:f3:c7:6e:23:7f:65:4c:23:ad:db:68:00:4a:2f:71:f5:89:
         15:0b:ef:b4
-----BEGIN CERTIFICATE-----
MIIDdzCCAl+gAwIBAgIQHQkFnvtxXqd2yaz8dnIUrzANBgkqhkiG9w0BAQsFADAW
MRQwEgYDVQQDDAt0ZWFtMzk3LW5ldDAeFw0yMjA1MTgyMTAwMTBaFw0yNTA1MDIy
MTAwMTBaMBkxFzAVBgNVBAMMDnRlYW0zOTctc2VydmVyMIIBIjANBgkqhkiG9w0B
AQEFAAOCAQ8AMIIBCgKCAQEAtVxUgn2DmCnJUTFVf89BFBCrk94o4y4rd+Mrz1JV
LqNDtwxitW323bNRf2rQM945ZAZMJfAS2LUKDMf7KMtT0eLDAV91iBKl2yp/UghB
E/j+QLPuQ+8M1dJpoSKBEjGKwz8bSqRUAlz5tnPH7h3V0HXzmSEAhDjJ7LYyU3IE
mQRi6OZ/FEl+gzJVAiDA7aufy7AC7aZsU1fOOK0FuHKqGeqic/aF0M2DcBo+FW6o
cKvtYymPFMMqHbaur7MUq7BXed1dcC1cBNCUuOIK5uDEQ/o55liF6x3m5jHO0N0e
pt+9uDpFVKzn1gAmh+EuKPRfVM49z8bUp3sx119oc3JkyQIDAQABo4G9MIG6MAkG
A1UdEwQCMAAwHQYDVR0OBBYEFLcrzcWABIYVMRS4kh5W9FRAXAphMFEGA1UdIwRK
MEiAFDsV6J3L703F/sXQXrvNGVXJ8WE9oRqkGDAWMRQwEgYDVQQDDAt0ZWFtMzk3
LW5ldIIUWAmFgUVgU3J/tFLg+LNaG6uItbYwEwYDVR0lBAwwCgYIKwYBBQUHAwEw
CwYDVR0PBAQDAgWgMBkGA1UdEQQSMBCCDnRlYW0zOTctc2VydmVyMA0GCSqGSIb3
DQEBCwUAA4IBAQCvbZ4E3eq8rRjKxK3vqty1a+VnJFh/8H8rDIT92NKcj40n5GPZ
TDatTzA/I+7mfvyzsSvU5+FlWMbj1S51jZorKe8mFJrk/dnnP0Ld5W5ZggBjBH3F
6W/zi0kBUA9FHnoab7wgj+8qhDoO+cnsgZd1PFCrTCKUNbTgrh+mHej/TMe0FAa7
/OTwWxUltAkqXJNY0Sn9uzcbF1UjYcLIQC2UdDoAnNbx6sdynp3x7P9xzTm0s4Sq
cWIJREONoGDn1Rn+sfCsxS6PRvc4dlqiDK5QLpJIjhVbdQlmBux6g+LLNQTD4U/8
TyLcy/yM88duI39lTCOt22gASi9x9YkVC++0
-----END CERTIFICATE-----
