Certificate:
    Data:
        Version: 3 (0x2)
        Serial Number:
            8c:b3:7d:52:ea:54:71:8d:23:d3:65:04:bd:f1:fc:b9
        Signature Algorithm: sha256WithRSAEncryption
        Issuer: CN=team436-net
        Validity
            Not Before: May 18 21:10:23 2022 GMT
            Not After : May  2 21:10:23 2025 GMT
        Subject: CN=team436-client
        Subject Public Key Info:
            Public Key Algorithm: rsaEncryption
                RSA Public-Key: (2048 bit)
                Modulus:
                    00:b7:11:db:e0:66:77:f8:f5:2b:37:59:bc:7b:1d:
                    10:04:e8:86:5b:91:48:76:97:50:95:08:b6:cb:0e:
                    0e:f5:b1:f0:71:1d:12:3e:a0:26:0c:7c:ab:89:25:
                    92:ba:83:73:f9:66:33:0e:7d:58:4b:bc:98:53:f3:
                    03:b4:07:33:97:e0:19:c9:b1:17:4e:f3:86:2e:5d:
                    76:2c:2e:3e:e5:03:de:b2:f0:31:a6:46:c9:00:f9:
                    f0:ce:a4:6d:74:55:2b:a8:ac:30:8f:28:9b:ee:8c:
                    7d:ce:22:02:e3:8e:bf:95:3d:42:3c:ff:7a:34:6c:
                    21:71:41:a8:2f:27:0c:f1:c6:0f:5c:db:f7:98:39:
                    17:98:15:e8:d8:40:b7:14:ce:e7:1d:d3:3d:31:dc:
                    02:15:54:3f:50:cf:a5:e5:ce:64:7e:0c:6c:9f:ae:
                    c6:28:72:3b:2b:8e:6f:fb:6b:34:ad:64:df:3a:b7:
                    db:b4:85:30:d6:49:b4:e9:f1:48:bc:41:bc:39:f9:
                    25:6c:75:ef:f9:f7:20:a7:3b:c6:20:95:53:54:08:
                    1f:b1:de:a1:5e:00:c0:b0:93:1b:cd:5e:88:18:61:
                    bb:f3:59:0e:95:0a:13:a7:16:91:cd:69:bd:6b:4f:
                    5b:ce:13:40:ba:7f:be:a6:34:c9:59:9e:39:e3:67:
                    e5:ad
                Exponent: 65537 (0x10001)
        X509v3 extensions:
            X509v3 Basic Constraints: 
                CA:FALSE
            X509v3 Subject Key Identifier: 
                56:D3:70:3A:F8:4B:CE:AB:69:60:F5:6B:0F:C8:98:DF:A6:33:A0:D6
            X509v3 Authority Key Identifier: 
                keyid:12:31:8E:63:73:9B:9E:C4:D4:4C:46:F2:CC:F3:51:63:E6:EC:22:9B
                DirName:/CN=team436-net
                serial:6F:1E:CC:99:5C:95:86:01:84:8D:83:96:BD:B2:43:AE:43:28:BC:06

            X509v3 Extended Key Usage: 
                TLS Web Client Authentication
            X509v3 Key Usage: 
                Digital Signature
    Signature Algorithm: sha256WithRSAEncryption
         7e:51:49:ca:4e:dc:5c:41:9c:3d:db:cf:b9:47:90:96:d2:58:
         3a:e0:67:a7:24:87:c3:89:56:c4:fa:d6:b9:a5:c2:a9:02:8b:
         db:a3:c7:98:b3:3a:c1:4a:df:23:9c:da:3f:ef:92:d5:3e:7a:
         dd:6d:31:b6:cf:ca:6f:4a:1d:22:e7:db:45:8d:70:cf:21:6f:
         d9:70:5c:93:51:94:ae:61:94:2d:ca:e6:ce:0b:cd:4c:bf:f4:
         74:9a:fa:50:6d:ff:3d:68:44:8b:39:1d:04:ed:27:4d:6f:44:
         12:4b:c9:a7:be:fc:0c:ec:44:c8:24:e2:10:5d:48:0e:c5:a7:
         81:20:a5:32:65:b0:86:97:13:1f:3b:37:08:62:04:31:04:cf:
         32:55:ec:19:17:07:9c:42:42:c2:87:90:03:14:3c:db:14:7c:
         7b:61:11:b5:94:b9:7d:cd:37:69:e7:db:4c:9c:40:27:f4:43:
         6e:f2:3b:0b:66:f9:b4:88:dd:9b:65:f2:16:97:ab:0a:d8:9e:
         43:80:e7:ba:79:72:eb:77:f9:76:9b:80:43:7e:4a:0c:60:ec:
         dd:62:56:6c:9c:f1:e3:e0:ec:1f:df:d9:df:de:a6:a9:4a:30:
         de:51:50:1d:e4:71:95:13:d6:14:fa:cc:fc:5e:35:a5:f6:b1:
         93:bc:2a:df
-----BEGIN CERTIFICATE-----
MIIDXTCCAkWgAwIBAgIRAIyzfVLqVHGNI9NlBL3x/LkwDQYJKoZIhvcNAQELBQAw
FjEUMBIGA1UEAwwLdGVhbTQzNi1uZXQwHhcNMjIwNTE4MjExMDIzWhcNMjUwNTAy
MjExMDIzWjAZMRcwFQYDVQQDDA50ZWFtNDM2LWNsaWVudDCCASIwDQYJKoZIhvcN
AQEBBQADggEPADCCAQoCggEBALcR2+Bmd/j1KzdZvHsdEATohluRSHaXUJUItssO
DvWx8HEdEj6gJgx8q4klkrqDc/lmMw59WEu8mFPzA7QHM5fgGcmxF07zhi5ddiwu
PuUD3rLwMaZGyQD58M6kbXRVK6isMI8om+6Mfc4iAuOOv5U9Qjz/ejRsIXFBqC8n
DPHGD1zb95g5F5gV6NhAtxTO5x3TPTHcAhVUP1DPpeXOZH4MbJ+uxihyOyuOb/tr
NK1k3zq327SFMNZJtOnxSLxBvDn5JWx17/n3IKc7xiCVU1QIH7HeoV4AwLCTG81e
iBhhu/NZDpUKE6cWkc1pvWtPW84TQLp/vqY0yVmeOeNn5a0CAwEAAaOBojCBnzAJ
BgNVHRMEAjAAMB0GA1UdDgQWBBRW03A6+EvOq2lg9WsPyJjfpjOg1jBRBgNVHSME
SjBIgBQSMY5jc5uexNRMRvLM81Fj5uwim6EapBgwFjEUMBIGA1UEAwwLdGVhbTQz
Ni1uZXSCFG8ezJlclYYBhI2Dlr2yQ65DKLwGMBMGA1UdJQQMMAoGCCsGAQUFBwMC
MAsGA1UdDwQEAwIHgDANBgkqhkiG9w0BAQsFAAOCAQEAflFJyk7cXEGcPdvPuUeQ
ltJYOuBnpySHw4lWxPrWuaXCqQKL26PHmLM6wUrfI5zaP++S1T563W0xts/Kb0od
IufbRY1wzyFv2XBck1GUrmGULcrmzgvNTL/0dJr6UG3/PWhEizkdBO0nTW9EEkvJ
p778DOxEyCTiEF1IDsWngSClMmWwhpcTHzs3CGIEMQTPMlXsGRcHnEJCwoeQAxQ8
2xR8e2ERtZS5fc03aefbTJxAJ/RDbvI7C2b5tIjdm2XyFperCtieQ4Dnunly63f5
dpuAQ35KDGDs3WJWbJzx4+DsH9/Z396mqUow3lFQHeRxlRPWFPrM/F41pfaxk7wq
3w==
-----END CERTIFICATE-----
