Certificate:
    Data:
        Version: 3 (0x2)
        Serial Number:
            77:34:49:3f:1d:e3:c3:81:16:e4:11:a1:f4:e6:79:49
        Signature Algorithm: sha256WithRSAEncryption
        Issuer: CN=team469-net
        Validity
            Not Before: May 18 21:34:21 2022 GMT
            Not After : May  2 21:34:21 2025 GMT
        Subject: CN=team469-server
        Subject Public Key Info:
            Public Key Algorithm: rsaEncryption
                RSA Public-Key: (2048 bit)
                Modulus:
                    00:b4:0b:43:7c:e7:da:0f:fb:2b:3c:82:53:3e:07:
                    60:44:de:7c:eb:49:82:81:eb:cf:b3:fd:43:c8:ba:
                    fe:67:f3:2b:a7:79:5e:7d:0b:0b:79:17:d7:e7:3e:
                    c4:06:08:2e:c5:b8:57:61:0d:1f:3e:ec:d5:f9:4d:
                    a2:5b:ea:e4:e4:3c:f5:bd:f6:e8:36:40:8f:46:f0:
                    39:91:1e:2d:07:6a:60:43:f3:3b:39:ad:ce:d4:b6:
                    be:aa:a7:1b:fc:ee:40:50:6b:95:df:53:08:e8:2a:
                    e1:97:4b:27:f6:f3:76:74:d6:f8:0d:44:6d:b2:4b:
                    49:ae:17:cc:64:c2:9e:c1:48:85:02:39:6c:5e:db:
                    e4:8a:72:9d:af:d2:28:87:20:0f:6f:84:68:bd:7c:
                    64:b3:fa:55:bc:75:b7:fb:eb:ab:a9:fe:ca:bb:18:
                    a9:27:5c:0b:4b:d0:50:08:10:41:02:67:ba:8b:b9:
                    4c:cd:7a:c2:b3:28:a1:42:50:ba:0b:a3:87:30:97:
                    9a:4e:ae:49:6e:09:16:1a:ec:e8:24:61:1f:14:07:
                    21:31:4d:8c:38:8b:3a:97:df:ca:95:aa:8f:36:8a:
                    8b:24:e1:a0:1f:cf:97:de:f2:e6:c2:4e:d9:74:1d:
                    c2:e3:c0:6d:54:c7:92:34:30:4c:65:0f:39:1f:cd:
                    58:07
                Exponent: 65537 (0x10001)
        X509v3 extensions:
            X509v3 Basic Constraints: 
                CA:FALSE
            X509v3 Subject Key Identifier: 
                4B:9E:37:E2:F5:81:29:A5:3B:9E:FC:06:BB:42:DE:04:FA:CA:D5:42
            X509v3 Authority Key Identifier: 
                keyid:77:92:E7:A5:CF:49:7F:46:2D:CD:D2:E6:87:45:DC:96:75:AE:0A:13
                DirName:/CN=team469-net
                serial:4A:3E:CE:88:80:DD:EF:4D:71:4A:20:DA:AD:B3:B6:A4:62:97:B5:3B

            X509v3 Extended Key Usage: 
                TLS Web Server Authentication
            X509v3 Key Usage: 
                Digital Signature, Key Encipherment
            X509v3 Subject Alternative Name: 
                DNS:team469-server
    Signature Algorithm: sha256WithRSAEncryption
         4f:fa:29:10:74:cc:a1:9d:40:f5:5f:31:ac:4c:5e:8c:96:4b:
         e7:fb:34:a2:0a:62:a2:1f:e9:77:a1:c5:58:90:63:65:98:60:
         84:5f:d3:eb:e1:71:47:9f:5b:65:7d:e6:63:d1:19:37:18:e1:
         cd:bf:73:fd:ee:69:68:71:53:f3:47:be:dd:6f:9e:42:3b:aa:
         98:f6:7a:b5:05:c8:9d:ee:76:ee:40:90:70:31:a8:8c:30:e5:
         a8:04:14:8a:6e:a8:8c:b1:1f:54:be:67:b0:ad:85:cd:c0:65:
         9e:b9:23:31:f4:e7:eb:20:e3:08:ba:6d:b4:50:8f:55:35:bb:
         e9:1f:9b:4b:08:d2:45:06:e4:38:05:82:eb:55:44:f4:e6:c8:
         03:8e:5c:e7:ad:20:bf:8a:52:7d:e8:a6:94:6d:5d:c8:43:2c:
         48:f3:b5:62:23:0c:6e:b6:fa:83:df:d2:7e:b1:44:fb:96:a9:
         c9:92:88:28:30:71:e7:4e:78:60:91:f0:ac:67:b1:fd:84:eb:
         b2:b5:04:09:05:67:b1:27:88:af:52:af:6a:8e:67:7b:f7:a1:
         5e:bb:f0:4f:61:6a:8c:9b:10:48:e2:62:47:ae:4a:9f:04:7d:
         0b:35:a7:df:80:70:f1:a8:52:74:dd:01:25:1d:de:5d:7c:71:
         04:59:75:cb
-----BEGIN CERTIFICATE-----
MIIDdzCCAl+gAwIBAgIQdzRJPx3jw4EW5BGh9OZ5STANBgkqhkiG9w0BAQsFADAW
MRQwEgYDVQQDDAt0ZWFtNDY5LW5ldDAeFw0yMjA1MTgyMTM0MjFaFw0yNTA1MDIy
MTM0MjFaMBkxFzAVBgNVBAMMDnRlYW00Njktc2VydmVyMIIBIjANBgkqhkiG9w0B
AQEFAAOCAQ8AMIIBCgKCAQEAtAtDfOfaD/srPIJTPgdgRN5860mCgevPs/1DyLr+
Z/Mrp3lefQsLeRfX5z7EBgguxbhXYQ0fPuzV+U2iW+rk5Dz1vfboNkCPRvA5kR4t
B2pgQ/M7Oa3O1La+qqcb/O5AUGuV31MI6Crhl0sn9vN2dNb4DURtsktJrhfMZMKe
wUiFAjlsXtvkinKdr9IohyAPb4RovXxks/pVvHW3++urqf7KuxipJ1wLS9BQCBBB
Ame6i7lMzXrCsyihQlC6C6OHMJeaTq5JbgkWGuzoJGEfFAchMU2MOIs6l9/KlaqP
NoqLJOGgH8+X3vLmwk7ZdB3C48BtVMeSNDBMZQ85H81YBwIDAQABo4G9MIG6MAkG
A1UdEwQCMAAwHQYDVR0OBBYEFEueN+L1gSmlO578BrtC3gT6ytVCMFEGA1UdIwRK
MEiAFHeS56XPSX9GLc3S5odF3JZ1rgoToRqkGDAWMRQwEgYDVQQDDAt0ZWFtNDY5
LW5ldIIUSj7OiIDd701xSiDarbO2pGKXtTswEwYDVR0lBAwwCgYIKwYBBQUHAwEw
CwYDVR0PBAQDAgWgMBkGA1UdEQQSMBCCDnRlYW00Njktc2VydmVyMA0GCSqGSIb3
DQEBCwUAA4IBAQBP+ikQdMyhnUD1XzGsTF6Mlkvn+zSiCmKiH+l3ocVYkGNlmGCE
X9Pr4XFHn1tlfeZj0Rk3GOHNv3P97mlocVPzR77db55CO6qY9nq1Bcid7nbuQJBw
MaiMMOWoBBSKbqiMsR9UvmewrYXNwGWeuSMx9OfrIOMIum20UI9VNbvpH5tLCNJF
BuQ4BYLrVUT05sgDjlznrSC/ilJ96KaUbV3IQyxI87ViIwxutvqD39J+sUT7lqnJ
kogoMHHnTnhgkfCsZ7H9hOuytQQJBWexJ4ivUq9qjmd796Feu/BPYWqMmxBI4mJH
rkqfBH0LNaffgHDxqFJ03QElHd5dfHEEWXXL
-----END CERTIFICATE-----
