Certificate:
    Data:
        Version: 3 (0x2)
        Serial Number:
            25:ef:72:ca:5b:ae:4a:1f:bb:f7:1a:52:ab:76:6a:5d
        Signature Algorithm: sha256WithRSAEncryption
        Issuer: CN=team157-net
        Validity
            Not Before: May 18 18:45:47 2022 GMT
            Not After : May  2 18:45:47 2025 GMT
        Subject: CN=team157-client
        Subject Public Key Info:
            Public Key Algorithm: rsaEncryption
                RSA Public-Key: (2048 bit)
                Modulus:
                    00:c7:03:fe:82:2d:c1:f1:cd:d9:b3:7f:e7:ad:0b:
                    38:70:ba:b8:d5:15:02:7c:8a:0c:5d:ab:c3:f2:6b:
                    ad:14:e7:04:6f:db:cc:cf:43:e9:3a:88:8d:80:ed:
                    71:78:7e:30:3c:70:54:6a:c7:06:d0:d1:b4:2e:f1:
                    ac:6d:6f:2c:d0:d1:cc:09:a3:a1:b6:b2:37:16:e9:
                    97:57:5e:6f:90:6e:ca:4e:1c:58:86:d6:36:4a:b8:
                    30:4f:1e:08:60:21:b1:19:52:cb:fe:7b:49:f1:19:
                    7c:95:a1:fd:96:b3:3e:5a:61:51:13:34:9c:a5:c6:
                    b6:94:6c:bd:14:d0:6a:8e:55:90:73:4a:d6:74:9b:
                    b5:cb:15:3f:26:12:86:a1:3e:25:fb:09:21:fd:ad:
                    96:3c:c8:d6:31:01:4e:06:b5:99:7a:59:1c:96:e0:
                    ee:4b:d2:43:4a:26:ec:b4:14:9b:7b:1f:18:fc:37:
                    80:1f:ef:b3:01:61:d0:2f:55:3b:04:77:cc:5b:cf:
                    a9:9b:1d:0b:72:86:ac:d0:c3:6e:8b:a9:7d:48:67:
                    97:45:e1:23:e9:05:45:7a:f7:51:31:c2:9e:3d:82:
                    7c:db:56:2e:e0:6e:9a:08:84:f9:b8:63:96:5a:5b:
                    53:8a:9c:3a:7a:3b:cc:3a:bf:d9:e2:3a:a6:05:1a:
                    07:75
                Exponent: 65537 (0x10001)
        X509v3 extensions:
            X509v3 Basic Constraints: 
                CA:FALSE
            X509v3 Subject Key Identifier: 
                95:1E:A5:7C:5B:EC:EF:7F:16:B7:F4:0E:00:15:94:89:7F:50:F7:65
            X509v3 Authority Key Identifier: 
                keyid:C3:41:3D:94:8A:C3:6D:18:7F:8E:A2:96:AE:23:8F:F7:61:01:CC:41
                DirName:/CN=team157-net
                serial:09:7D:39:6E:D5:4E:9C:90:19:7D:E4:32:AE:C7:EA:E8:12:02:6A:57

            X509v3 Extended Key Usage: 
                TLS Web Client Authentication
            X509v3 Key Usage: 
                Digital Signature
    Signature Algorithm: sha256WithRSAEncryption
         c9:f2:62:9c:79:b1:57:10:1f:57:28:96:1d:5e:1b:33:35:1c:
         d2:33:64:f4:c4:b3:92:5d:d5:7d:b6:c4:c2:2a:1d:4e:c5:ac:
         66:5d:15:f6:3a:d6:d5:fc:f9:45:09:ad:ff:ce:98:42:fa:a5:
         98:af:f7:80:a7:ac:26:3e:7c:32:26:74:d6:bf:83:a9:f8:44:
         06:ca:b9:9e:6f:68:0b:3e:58:6e:59:5b:56:72:7f:a8:02:5e:
         7e:d3:3a:62:e4:10:45:0f:84:67:54:ba:5d:ea:60:d8:29:4c:
         18:19:df:5f:5e:44:2e:56:dd:04:78:f6:07:24:47:df:3b:6d:
         fd:e9:52:5c:69:67:35:bf:ca:83:e4:2b:50:ce:63:14:7a:5f:
         4a:ce:ea:14:73:ec:e9:6c:41:43:60:8a:96:ed:dd:02:ba:dc:
         0d:89:56:e6:71:2f:80:5b:43:8d:14:4f:5c:3a:2e:c5:05:95:
         71:31:e9:c3:64:02:be:b7:f0:21:78:af:1f:15:57:0e:25:3a:
         89:3c:50:71:c1:e7:32:ea:60:c2:48:f2:54:73:2b:3b:e0:6a:
         7d:63:e9:7b:d1:fa:e7:3e:9f:a5:49:26:05:65:69:fb:2c:c2:
         eb:32:99:0c:48:da:7e:6e:ff:55:2b:ff:8c:41:01:98:f5:5d:
         16:3d:db:b7
-----BEGIN CERTIFICATE-----
MIIDXDCCAkSgAwIBAgIQJe9yyluuSh+79xpSq3ZqXTANBgkqhkiG9w0BAQsFADAW
MRQwEgYDVQQDDAt0ZWFtMTU3LW5ldDAeFw0yMjA1MTgxODQ1NDdaFw0yNTA1MDIx
ODQ1NDdaMBkxFzAVBgNVBAMMDnRlYW0xNTctY2xpZW50MIIBIjANBgkqhkiG9w0B
AQEFAAOCAQ8AMIIBCgKCAQEAxwP+gi3B8c3Zs3/nrQs4cLq41RUCfIoMXavD8mut
FOcEb9vMz0PpOoiNgO1xeH4wPHBUascG0NG0LvGsbW8s0NHMCaOhtrI3FumXV15v
kG7KThxYhtY2SrgwTx4IYCGxGVLL/ntJ8Rl8laH9lrM+WmFREzScpca2lGy9FNBq
jlWQc0rWdJu1yxU/JhKGoT4l+wkh/a2WPMjWMQFOBrWZelkcluDuS9JDSibstBSb
ex8Y/DeAH++zAWHQL1U7BHfMW8+pmx0Lcoas0MNui6l9SGeXReEj6QVFevdRMcKe
PYJ821Yu4G6aCIT5uGOWWltTipw6ejvMOr/Z4jqmBRoHdQIDAQABo4GiMIGfMAkG
A1UdEwQCMAAwHQYDVR0OBBYEFJUepXxb7O9/Frf0DgAVlIl/UPdlMFEGA1UdIwRK
MEiAFMNBPZSKw20Yf46ilq4jj/dhAcxBoRqkGDAWMRQwEgYDVQQDDAt0ZWFtMTU3
LW5ldIIUCX05btVOnJAZfeQyrsfq6BICalcwEwYDVR0lBAwwCgYIKwYBBQUHAwIw
CwYDVR0PBAQDAgeAMA0GCSqGSIb3DQEBCwUAA4IBAQDJ8mKcebFXEB9XKJYdXhsz
NRzSM2T0xLOSXdV9tsTCKh1OxaxmXRX2OtbV/PlFCa3/zphC+qWYr/eAp6wmPnwy
JnTWv4Op+EQGyrmeb2gLPlhuWVtWcn+oAl5+0zpi5BBFD4RnVLpd6mDYKUwYGd9f
XkQuVt0EePYHJEffO2396VJcaWc1v8qD5CtQzmMUel9KzuoUc+zpbEFDYIqW7d0C
utwNiVbmcS+AW0ONFE9cOi7FBZVxMenDZAK+t/AheK8fFVcOJTqJPFBxwecy6mDC
SPJUcys74Gp9Y+l70frnPp+lSSYFZWn7LMLrMpkMSNp+bv9VK/+MQQGY9V0WPdu3
-----END CERTIFICATE-----
