Certificate:
    Data:
        Version: 3 (0x2)
        Serial Number:
            63:10:d4:27:3c:c8:bb:55:68:59:55:77:1e:47:39:84
        Signature Algorithm: sha256WithRSAEncryption
        Issuer: CN=team548-net
        Validity
            Not Before: May 18 22:17:08 2022 GMT
            Not After : May  2 22:17:08 2025 GMT
        Subject: CN=team548-server
        Subject Public Key Info:
            Public Key Algorithm: rsaEncryption
                RSA Public-Key: (2048 bit)
                Modulus:
                    00:aa:94:46:53:d6:28:30:fc:8f:fe:4b:27:fa:1b:
                    05:29:fa:43:83:ff:71:27:88:48:2e:5b:40:c4:6b:
                    42:4e:07:5c:f0:a4:80:f3:8c:ec:9d:59:92:6f:30:
                    28:63:bc:b7:fd:94:3c:d8:97:ea:5e:67:9a:bb:c6:
                    0a:96:73:7a:90:3d:19:32:00:e9:09:d6:0f:21:48:
                    e9:b9:3c:89:4f:08:31:8e:55:07:6d:67:99:36:58:
                    57:59:01:9c:8b:ff:b0:07:14:3c:a3:48:b6:1c:1f:
                    59:eb:d4:f4:e5:5f:6b:f8:87:fe:dc:e6:3e:84:3a:
                    13:5b:32:26:78:0a:0e:14:cd:ae:86:82:9e:28:46:
                    5a:07:a1:a4:d4:ab:b0:5e:17:c7:a2:f1:06:41:a4:
                    aa:89:54:05:6a:72:e2:6c:75:b4:47:a2:72:31:79:
                    d6:21:e1:4f:32:e6:43:01:45:62:ca:40:41:e0:98:
                    1f:7e:ef:ef:fc:63:84:91:f1:d0:55:7e:f4:d2:27:
                    3c:4d:2c:3b:85:f8:6c:ec:2a:e4:30:f5:ac:b5:c8:
                    d3:b0:d6:69:c1:c5:cc:8f:9f:41:40:ca:f4:0d:11:
                    07:72:5a:28:2e:02:c1:87:9c:45:34:63:e9:d3:af:
                    73:8d:cd:a1:78:b3:5f:38:fd:82:43:2c:fb:2e:77:
                    55:dd
                Exponent: 65537 (0x10001)
        X509v3 extensions:
            X509v3 Basic Constraints: 
                CA:FALSE
            X509v3 Subject Key Identifier: 
                2B:D9:F6:5B:8D:C1:88:1A:9D:EA:70:68:FF:97:70:91:21:DD:E9:B3
            X509v3 Authority Key Identifier: 
                keyid:4A:56:A9:47:5D:C7:CC:AE:97:C5:EB:70:31:D2:EF:8B:D5:8F:4F:C4
                DirName:/CN=team548-net
                serial:3A:0E:7E:B8:C3:A3:8A:20:83:4E:5C:BA:A7:3A:BD:1E:1B:D3:FD:58

            X509v3 Extended Key Usage: 
                TLS Web Server Authentication
            X509v3 Key Usage: 
                Digital Signature, Key Encipherment
            X509v3 Subject Alternative Name: 
                DNS:team548-server
    Signature Algorithm: sha256WithRSAEncryption
         00:4c:80:1c:f0:e4:04:4e:38:54:8d:a2:60:29:b4:0d:e8:90:
         68:7d:d5:f8:8c:dc:fe:8b:c7:bc:77:5e:40:c0:77:0d:31:5d:
         eb:82:ab:d3:a1:27:35:a3:43:ab:de:4a:b3:ca:3f:29:eb:f7:
         5a:57:88:b9:63:73:2e:07:98:6d:2c:b4:21:5f:12:79:7c:76:
         e7:8c:d0:5d:f0:7f:1e:44:ca:b1:67:7b:f8:4c:bb:3b:4f:93:
         fd:48:47:f4:e1:e3:d8:b4:b4:5e:d1:d9:b8:88:44:8c:23:8b:
         cf:4f:dd:b2:ea:83:b0:ed:ce:43:1b:e4:6e:31:46:cf:13:a7:
         b5:39:45:9a:d3:ae:99:e7:11:4b:a6:2a:db:a2:3c:89:97:77:
         07:fb:3d:00:62:6e:3e:ff:08:e1:bb:7c:c7:93:57:16:3b:38:
         23:8b:b6:4d:2f:93:b9:93:a0:39:c0:37:b6:11:05:92:c4:59:
         7a:c4:8c:ef:14:f9:eb:53:b1:4c:14:38:97:5e:55:8e:6d:4e:
         93:f4:99:99:ae:86:2f:d3:2d:7e:e3:f5:0e:4f:39:09:44:12:
         c1:66:a5:73:3c:7b:4b:14:48:89:77:4f:b9:36:1b:27:d9:eb:
         d9:44:e9:31:b6:6b:a4:59:f2:d5:2a:28:f2:bd:5d:ff:b3:cb:
         a4:a6:dc:97
-----BEGIN CERTIFICATE-----
MIIDdzCCAl+gAwIBAgIQYxDUJzzIu1VoWVV3Hkc5hDANBgkqhkiG9w0BAQsFADAW
MRQwEgYDVQQDDAt0ZWFtNTQ4LW5ldDAeFw0yMjA1MTgyMjE3MDhaFw0yNTA1MDIy
MjE3MDhaMBkxFzAVBgNVBAMMDnRlYW01NDgtc2VydmVyMIIBIjANBgkqhkiG9w0B
AQEFAAOCAQ8AMIIBCgKCAQEAqpRGU9YoMPyP/ksn+hsFKfpDg/9xJ4hILltAxGtC
Tgdc8KSA84zsnVmSbzAoY7y3/ZQ82JfqXmeau8YKlnN6kD0ZMgDpCdYPIUjpuTyJ
TwgxjlUHbWeZNlhXWQGci/+wBxQ8o0i2HB9Z69T05V9r+If+3OY+hDoTWzImeAoO
FM2uhoKeKEZaB6Gk1KuwXhfHovEGQaSqiVQFanLibHW0R6JyMXnWIeFPMuZDAUVi
ykBB4Jgffu/v/GOEkfHQVX700ic8TSw7hfhs7CrkMPWstcjTsNZpwcXMj59BQMr0
DREHclooLgLBh5xFNGPp069zjc2heLNfOP2CQyz7LndV3QIDAQABo4G9MIG6MAkG
A1UdEwQCMAAwHQYDVR0OBBYEFCvZ9luNwYganepwaP+XcJEh3emzMFEGA1UdIwRK
MEiAFEpWqUddx8yul8XrcDHS74vVj0/EoRqkGDAWMRQwEgYDVQQDDAt0ZWFtNTQ4
LW5ldIIUOg5+uMOjiiCDTly6pzq9HhvT/VgwEwYDVR0lBAwwCgYIKwYBBQUHAwEw
CwYDVR0PBAQDAgWgMBkGA1UdEQQSMBCCDnRlYW01NDgtc2VydmVyMA0GCSqGSIb3
DQEBCwUAA4IBAQAATIAc8OQETjhUjaJgKbQN6JBofdX4jNz+i8e8d15AwHcNMV3r
gqvToSc1o0Or3kqzyj8p6/daV4i5Y3MuB5htLLQhXxJ5fHbnjNBd8H8eRMqxZ3v4
TLs7T5P9SEf04ePYtLRe0dm4iESMI4vPT92y6oOw7c5DG+RuMUbPE6e1OUWa066Z
5xFLpirbojyJl3cH+z0AYm4+/wjhu3zHk1cWOzgji7ZNL5O5k6A5wDe2EQWSxFl6
xIzvFPnrU7FMFDiXXlWObU6T9JmZroYv0y1+4/UOTzkJRBLBZqVzPHtLFEiJd0+5
Nhsn2evZROkxtmukWfLVKijyvV3/s8ukptyX
-----END CERTIFICATE-----
