Certificate:
    Data:
        Version: 3 (0x2)
        Serial Number:
            0a:01:9b:bd:ab:44:29:49:ee:03:a8:d3:e7:b2:97:94
        Signature Algorithm: sha256WithRSAEncryption
        Issuer: CN=team444-net
        Validity
            Not Before: May 18 21:13:16 2022 GMT
            Not After : May  2 21:13:16 2025 GMT
        Subject: CN=team444-client
        Subject Public Key Info:
            Public Key Algorithm: rsaEncryption
                RSA Public-Key: (2048 bit)
                Modulus:
                    00:ad:d0:1a:11:9b:49:1e:19:85:de:fe:a2:f8:dd:
                    49:27:26:27:7e:02:e1:b5:a1:2a:fa:6c:11:19:a8:
                    5f:03:34:bd:37:04:2e:a2:97:56:65:87:44:af:ce:
                    61:ac:0c:0a:eb:72:73:b3:64:26:04:a4:aa:a2:4a:
                    12:00:4a:60:d3:d1:31:33:df:ca:66:da:98:7c:f9:
                    3d:10:07:1b:68:b2:89:9c:da:d1:f0:fe:61:ec:53:
                    3d:ca:d4:98:8f:ed:c0:59:2e:f3:2a:6b:15:97:97:
                    6d:0e:55:f2:0e:8e:da:8e:03:6f:6f:af:41:be:b9:
                    c5:8c:e4:5d:66:58:9c:fb:35:02:77:93:52:16:8d:
                    8f:17:98:5b:d7:e9:67:cb:3b:d2:5e:ce:37:be:f5:
                    48:39:f4:ff:ad:a1:12:96:bd:98:dc:d1:3d:af:6d:
                    da:4d:89:0d:7d:1a:ef:12:4b:94:c5:f1:34:1e:7f:
                    1c:88:e1:66:80:f3:b2:db:74:69:10:bb:ef:22:42:
                    69:c1:bd:71:1e:12:fb:e5:c8:b4:aa:de:70:0d:ee:
                    35:2e:a1:62:46:08:19:9e:f4:cd:1d:a8:b3:34:3d:
                    b3:f9:d5:c4:8e:c3:15:ba:2e:48:de:3c:ac:5c:db:
                    82:95:4d:ba:ae:ff:61:31:59:a1:f4:c9:14:af:d8:
                    a1:6f
                Exponent: 65537 (0x10001)
        X509v3 extensions:
            X509v3 Basic Constraints: 
                CA:FALSE
            X509v3 Subject Key Identifier: 
                74:D6:21:4C:94:87:13:02:90:A3:FA:00:25:C0:81:59:D9:14:D0:E9
            X509v3 Authority Key Identifier: 
                keyid:6E:5A:FD:91:5D:DF:79:35:A7:D6:B6:42:6B:E1:AE:DA:7E:1F:72:FA
                DirName:/CN=team444-net
                serial:29:25:83:50:15:DD:0D:90:B1:96:E2:15:74:0B:CD:45:6B:34:0F:EE

            X509v3 Extended Key Usage: 
                TLS Web Client Authentication
            X509v3 Key Usage: 
                Digital Signature
    Signature Algorithm: sha256WithRSAEncryption
         5d:aa:a2:c3:3b:ba:78:ab:b0:e0:04:ce:5c:06:c9:17:52:fb:
         45:b2:2f:f0:4b:5c:75:3f:89:71:db:66:50:66:74:80:11:e1:
         f2:7b:be:8f:c5:86:15:80:e3:ce:80:22:80:2b:a1:fc:a9:6b:
         bb:9a:f8:b7:3a:6d:d3:4c:4c:09:98:0f:ba:2c:4e:74:19:7e:
         d7:6e:85:85:b8:ac:b8:fc:b8:e4:35:62:aa:59:f4:dd:43:f0:
         19:0e:81:8a:0d:e5:20:b8:0a:49:46:35:75:d0:9d:56:e6:d1:
         f2:91:08:7f:2b:f9:e3:be:b8:82:97:71:ac:3b:ba:6c:c9:72:
         76:be:03:71:5d:3d:43:c8:c4:13:9e:a3:20:56:45:08:d0:d6:
         78:84:83:9a:ae:22:ad:94:d5:64:55:c2:c3:3c:86:6f:92:37:
         42:03:18:24:d4:ee:17:f0:53:89:dc:30:45:67:b0:06:fb:90:
         fa:b1:4d:24:8d:12:cd:c9:36:f6:e7:e7:48:8c:59:dc:79:13:
         06:58:96:a4:81:b0:1a:8f:4c:3a:05:3e:c9:8c:14:75:64:65:
         6b:a8:83:d1:be:b0:10:cc:62:40:8c:ac:bb:1d:33:eb:bd:2f:
         8c:89:0c:cd:c7:14:9f:f2:ec:8c:59:bc:86:cb:ea:1d:6a:c5:
         9b:3f:eb:03
-----BEGIN CERTIFICATE-----
MIIDXDCCAkSgAwIBAgIQCgGbvatEKUnuA6jT57KXlDANBgkqhkiG9w0BAQsFADAW
MRQwEgYDVQQDDAt0ZWFtNDQ0LW5ldDAeFw0yMjA1MTgyMTEzMTZaFw0yNTA1MDIy
MTEzMTZaMBkxFzAVBgNVBAMMDnRlYW00NDQtY2xpZW50MIIBIjANBgkqhkiG9w0B
AQEFAAOCAQ8AMIIBCgKCAQEArdAaEZtJHhmF3v6i+N1JJyYnfgLhtaEq+mwRGahf
AzS9NwQuopdWZYdEr85hrAwK63Jzs2QmBKSqokoSAEpg09ExM9/KZtqYfPk9EAcb
aLKJnNrR8P5h7FM9ytSYj+3AWS7zKmsVl5dtDlXyDo7ajgNvb69BvrnFjORdZlic
+zUCd5NSFo2PF5hb1+lnyzvSXs43vvVIOfT/raESlr2Y3NE9r23aTYkNfRrvEkuU
xfE0Hn8ciOFmgPOy23RpELvvIkJpwb1xHhL75ci0qt5wDe41LqFiRggZnvTNHaiz
ND2z+dXEjsMVui5I3jysXNuClU26rv9hMVmh9MkUr9ihbwIDAQABo4GiMIGfMAkG
A1UdEwQCMAAwHQYDVR0OBBYEFHTWIUyUhxMCkKP6ACXAgVnZFNDpMFEGA1UdIwRK
MEiAFG5a/ZFd33k1p9a2Qmvhrtp+H3L6oRqkGDAWMRQwEgYDVQQDDAt0ZWFtNDQ0
LW5ldIIUKSWDUBXdDZCxluIVdAvNRWs0D+4wEwYDVR0lBAwwCgYIKwYBBQUHAwIw
CwYDVR0PBAQDAgeAMA0GCSqGSIb3DQEBCwUAA4IBAQBdqqLDO7p4q7DgBM5cBskX
UvtFsi/wS1x1P4lx22ZQZnSAEeHye76PxYYVgOPOgCKAK6H8qWu7mvi3Om3TTEwJ
mA+6LE50GX7XboWFuKy4/LjkNWKqWfTdQ/AZDoGKDeUguApJRjV10J1W5tHykQh/
K/njvriCl3GsO7psyXJ2vgNxXT1DyMQTnqMgVkUI0NZ4hIOariKtlNVkVcLDPIZv
kjdCAxgk1O4X8FOJ3DBFZ7AG+5D6sU0kjRLNyTb25+dIjFnceRMGWJakgbAaj0w6
BT7JjBR1ZGVrqIPRvrAQzGJAjKy7HTPrvS+MiQzNxxSf8uyMWbyGy+odasWbP+sD
-----END CERTIFICATE-----
