Certificate:
    Data:
        Version: 3 (0x2)
        Serial Number:
            96:65:8b:8f:5a:4d:67:4c:47:41:24:64:c7:e7:6c:8a
        Signature Algorithm: sha256WithRSAEncryption
        Issuer: CN=team52-net
        Validity
            Not Before: May 18 14:22:59 2022 GMT
            Not After : May  2 14:22:59 2025 GMT
        Subject: CN=team52-server
        Subject Public Key Info:
            Public Key Algorithm: rsaEncryption
                RSA Public-Key: (2048 bit)
                Modulus:
                    00:c1:e2:aa:43:cd:ee:35:a0:27:f1:98:f9:fb:c2:
                    65:c2:ff:ee:c1:8b:15:ab:21:17:eb:7f:ec:c5:dc:
                    68:54:8c:ce:fb:01:28:6c:17:c0:ae:ff:43:7f:7c:
                    7a:7a:cc:48:69:43:60:12:ff:f2:0d:e5:0a:9d:d0:
                    1d:93:6f:a3:60:7d:55:f0:9f:23:ed:8a:c7:9f:47:
                    42:c9:6a:a5:a0:42:90:ac:d5:8a:70:d0:ed:d0:5c:
                    cc:2a:b8:aa:d6:1c:9a:d8:e4:a0:29:13:ac:f7:40:
                    52:be:2b:53:fe:88:f2:6f:32:ec:00:43:2e:8f:ac:
                    fc:2a:3f:5d:61:43:67:fe:66:e8:50:0b:4f:ae:d6:
                    64:a4:81:8c:f1:6f:1d:a0:46:44:9a:c6:ea:b1:5a:
                    c7:22:de:e1:a6:36:9d:91:13:d9:aa:81:20:75:66:
                    9c:f7:1e:44:ad:b4:bc:41:f6:85:a0:f0:fd:91:6b:
                    e3:8e:69:63:2a:d9:c1:d2:e5:7a:d3:6f:4e:4a:c3:
                    ce:b9:ae:8c:3c:d5:f0:3e:7f:60:de:0a:79:3c:0d:
                    31:92:d2:20:14:30:6c:03:c1:cd:b9:09:7a:1e:56:
                    46:d5:73:6d:fb:99:f5:4c:f7:6a:16:20:11:e0:5d:
                    da:93:2e:a7:da:2b:b1:38:59:cb:db:38:e7:f8:3c:
                    78:0d
                Exponent: 65537 (0x10001)
        X509v3 extensions:
            X509v3 Basic Constraints: 
                CA:FALSE
            X509v3 Subject Key Identifier: 
                CB:59:80:86:30:11:DE:5F:1D:12:CF:8E:A7:CB:8F:DE:76:81:D8:73
            X509v3 Authority Key Identifier: 
                keyid:08:9C:C2:33:B5:49:08:77:43:00:AA:91:86:8C:E9:BC:F6:D4:FF:9E
                DirName:/CN=team52-net
                serial:01:B7:B6:D8:EA:0F:2E:B8:3B:6E:92:1D:16:A8:F4:8F:03:14:00:46

            X509v3 Extended Key Usage: 
                TLS Web Server Authentication
            X509v3 Key Usage: 
                Digital Signature, Key Encipherment
            X509v3 Subject Alternative Name: 
                DNS:team52-server
    Signature Algorithm: sha256WithRSAEncryption
         97:e7:c2:99:de:48:40:55:72:8e:d4:bc:2d:fb:cf:55:f3:d7:
         26:64:82:68:7e:a5:52:6e:92:17:5e:dd:57:52:70:da:be:cb:
         b5:45:19:bb:47:97:48:bd:ea:13:0b:01:2d:29:0b:85:91:86:
         f3:6b:66:79:06:c1:d5:7c:b0:6e:15:70:d3:26:89:c4:06:f7:
         89:8c:47:a7:86:f7:be:8a:bd:de:5a:a7:52:8f:9b:4b:43:a9:
         fd:ea:cd:d1:3c:a5:9b:13:e1:f0:be:8a:b9:d2:d7:52:c1:f5:
         5a:ac:f3:ab:00:52:1e:7d:5e:af:f2:36:09:aa:9a:57:77:fb:
         46:ad:d2:a4:a3:59:12:9d:60:f2:7b:c4:70:a8:7a:69:a9:91:
         d4:91:8f:14:81:38:63:06:f1:b9:a5:40:20:5f:74:fd:8a:77:
         19:b2:32:34:87:4d:38:1d:6c:85:00:34:9d:43:bf:08:a6:0c:
         ee:1e:ca:8c:8a:cb:7d:77:3e:b5:8a:53:0f:8b:2a:e8:15:f3:
         f6:73:e5:80:9f:97:2f:33:02:7a:89:a1:24:22:0e:72:eb:54:
         8a:79:72:6d:66:62:99:11:b1:b1:d7:b1:47:53:40:bc:67:6e:
         f7:5b:60:ef:9a:b3:64:ac:04:3a:f7:3a:2e:1a:57:f5:f5:34:
         d5:7a:32:a4
-----BEGIN CERTIFICATE-----
MIIDdDCCAlygAwIBAgIRAJZli49aTWdMR0EkZMfnbIowDQYJKoZIhvcNAQELBQAw
FTETMBEGA1UEAwwKdGVhbTUyLW5ldDAeFw0yMjA1MTgxNDIyNTlaFw0yNTA1MDIx
NDIyNTlaMBgxFjAUBgNVBAMMDXRlYW01Mi1zZXJ2ZXIwggEiMA0GCSqGSIb3DQEB
AQUAA4IBDwAwggEKAoIBAQDB4qpDze41oCfxmPn7wmXC/+7BixWrIRfrf+zF3GhU
jM77AShsF8Cu/0N/fHp6zEhpQ2AS//IN5Qqd0B2Tb6NgfVXwnyPtisefR0LJaqWg
QpCs1Ypw0O3QXMwquKrWHJrY5KApE6z3QFK+K1P+iPJvMuwAQy6PrPwqP11hQ2f+
ZuhQC0+u1mSkgYzxbx2gRkSaxuqxWsci3uGmNp2RE9mqgSB1Zpz3HkSttLxB9oWg
8P2Ra+OOaWMq2cHS5XrTb05Kw865row81fA+f2DeCnk8DTGS0iAUMGwDwc25CXoe
VkbVc237mfVM92oWIBHgXdqTLqfaK7E4WcvbOOf4PHgNAgMBAAGjgbswgbgwCQYD
VR0TBAIwADAdBgNVHQ4EFgQUy1mAhjAR3l8dEs+Op8uP3naB2HMwUAYDVR0jBEkw
R4AUCJzCM7VJCHdDAKqRhozpvPbU/56hGaQXMBUxEzARBgNVBAMMCnRlYW01Mi1u
ZXSCFAG3ttjqDy64O26SHRao9I8DFABGMBMGA1UdJQQMMAoGCCsGAQUFBwMBMAsG
A1UdDwQEAwIFoDAYBgNVHREEETAPgg10ZWFtNTItc2VydmVyMA0GCSqGSIb3DQEB
CwUAA4IBAQCX58KZ3khAVXKO1Lwt+89V89cmZIJofqVSbpIXXt1XUnDavsu1RRm7
R5dIveoTCwEtKQuFkYbza2Z5BsHVfLBuFXDTJonEBveJjEenhve+ir3eWqdSj5tL
Q6n96s3RPKWbE+Hwvoq50tdSwfVarPOrAFIefV6v8jYJqppXd/tGrdKko1kSnWDy
e8RwqHppqZHUkY8UgThjBvG5pUAgX3T9incZsjI0h004HWyFADSdQ78IpgzuHsqM
ist9dz61ilMPiyroFfP2c+WAn5cvMwJ6iaEkIg5y61SKeXJtZmKZEbGx17FHU0C8
Z273W2DvmrNkrAQ69zouGlf19TTVejKk
-----END CERTIFICATE-----
