Certificate:
    Data:
        Version: 3 (0x2)
        Serial Number:
            81:8f:cc:4b:ef:da:de:d4:99:66:ff:c9:26:1f:a2:3f
        Signature Algorithm: sha256WithRSAEncryption
        Issuer: CN=team163-net
        Validity
            Not Before: May 18 18:42:20 2022 GMT
            Not After : May  2 18:42:20 2025 GMT
        Subject: CN=team163-server
        Subject Public Key Info:
            Public Key Algorithm: rsaEncryption
                RSA Public-Key: (2048 bit)
                Modulus:
                    00:a2:78:41:27:3f:12:89:7f:2b:bf:fb:bd:9e:46:
                    49:7b:3e:11:95:34:f9:68:2e:da:d5:2c:66:6a:20:
                    49:a8:43:66:85:77:49:f9:c8:3d:7c:69:b8:fc:ae:
                    78:8f:97:67:0a:d2:b6:7f:99:27:6b:b7:96:15:3c:
                    81:2e:1b:a6:e2:30:fd:dc:64:c3:b6:23:2e:14:d6:
                    25:f5:c2:99:e5:a7:70:e2:c9:98:39:29:e3:eb:ea:
                    44:58:ac:06:cc:2e:eb:2f:98:ae:54:0c:1c:1d:0e:
                    f6:ec:d4:61:5c:3c:37:de:13:4e:6b:c8:cf:ca:52:
                    e2:e5:b3:1c:c2:db:b4:3e:93:63:9d:12:2c:cf:ac:
                    a7:cf:5d:80:e4:83:91:fd:67:84:71:72:8b:ca:20:
                    54:8d:6d:09:8f:59:d2:24:c0:6b:1a:df:cd:b6:03:
                    ee:e6:51:1c:af:a4:ee:b9:32:a6:af:b5:97:29:93:
                    7a:89:4f:c3:2c:fd:77:3f:99:ce:0e:cb:7f:24:ae:
                    c3:e6:24:63:4f:4b:1b:6f:1f:f7:f3:8b:a6:ea:94:
                    8e:36:fd:83:89:70:36:49:df:05:71:4b:84:9f:4f:
                    b7:48:bf:df:34:5e:3b:ac:92:13:c6:38:52:dc:2b:
                    ca:21:06:de:fa:73:e7:4a:7f:f0:69:74:fb:31:85:
                    0b:f1
                Exponent: 65537 (0x10001)
        X509v3 extensions:
            X509v3 Basic Constraints: 
                CA:FALSE
            X509v3 Subject Key Identifier: 
                3B:FD:83:88:88:E8:38:E0:D5:84:94:E7:1E:DA:A9:BC:E8:4C:7E:E6
            X509v3 Authority Key Identifier: 
                keyid:BD:11:9F:81:C3:BC:18:6B:21:02:C6:D0:D2:BF:86:F0:A7:7E:2A:DD
                DirName:/CN=team163-net
                serial:2C:C6:00:71:C6:A6:84:BF:89:83:23:1D:CB:60:93:0D:9E:7A:80:7B

            X509v3 Extended Key Usage: 
                TLS Web Server Authentication
            X509v3 Key Usage: 
                Digital Signature, Key Encipherment
            X509v3 Subject Alternative Name: 
                DNS:team163-server
    Signature Algorithm: sha256WithRSAEncryption
         7a:c6:50:fb:04:00:5d:f9:12:2e:f4:84:7a:02:c9:dc:a3:f0:
         79:5a:1d:ac:d9:58:9e:c4:6f:eb:eb:1c:e7:84:1c:ec:5a:09:
         94:be:dd:2c:31:ad:be:0e:cd:a3:8a:cd:69:0f:7a:36:1e:9f:
         ce:ad:c7:05:8e:1a:17:2c:5b:63:77:28:63:b9:c3:ce:68:94:
         75:ae:27:d7:8a:32:32:a3:b7:ec:32:ec:10:01:7c:89:3d:e6:
         e3:8c:49:b0:00:b2:7d:09:9d:aa:b8:13:5d:98:19:81:12:0f:
         f1:1c:e1:e6:cf:64:69:71:dd:39:43:a2:6b:60:63:86:47:75:
         d4:03:9b:85:1f:46:b2:7d:3b:be:ee:2b:1e:2f:33:fa:7d:82:
         a5:dd:be:e0:e5:83:b7:be:3d:8a:36:4f:22:09:f5:c9:e5:c4:
         d2:59:ff:e1:40:54:ff:ad:cf:18:d6:e5:e5:9e:ee:bd:cf:c6:
         02:cb:8b:9c:9e:9c:ff:79:a4:2b:b6:61:b4:72:6f:ed:a2:94:
         34:39:0a:ee:18:6d:20:fc:a0:d1:9c:9e:2e:1b:ac:41:d5:3a:
         08:ea:8a:c8:7c:74:b3:6f:7d:b1:82:d7:42:76:03:8c:00:56:
         9a:ed:e8:b5:49:55:60:30:74:5f:32:72:a3:ad:5d:bc:47:e2:
         9b:80:bb:1a
-----BEGIN CERTIFICATE-----
MIIDeDCCAmCgAwIBAgIRAIGPzEvv2t7UmWb/ySYfoj8wDQYJKoZIhvcNAQELBQAw
FjEUMBIGA1UEAwwLdGVhbTE2My1uZXQwHhcNMjIwNTE4MTg0MjIwWhcNMjUwNTAy
MTg0MjIwWjAZMRcwFQYDVQQDDA50ZWFtMTYzLXNlcnZlcjCCASIwDQYJKoZIhvcN
AQEBBQADggEPADCCAQoCggEBAKJ4QSc/Eol/K7/7vZ5GSXs+EZU0+Wgu2tUsZmog
SahDZoV3SfnIPXxpuPyueI+XZwrStn+ZJ2u3lhU8gS4bpuIw/dxkw7YjLhTWJfXC
meWncOLJmDkp4+vqRFisBswu6y+YrlQMHB0O9uzUYVw8N94TTmvIz8pS4uWzHMLb
tD6TY50SLM+sp89dgOSDkf1nhHFyi8ogVI1tCY9Z0iTAaxrfzbYD7uZRHK+k7rky
pq+1lymTeolPwyz9dz+Zzg7LfySuw+YkY09LG28f9/OLpuqUjjb9g4lwNknfBXFL
hJ9Pt0i/3zReO6ySE8Y4UtwryiEG3vpz50p/8Gl0+zGFC/ECAwEAAaOBvTCBujAJ
BgNVHRMEAjAAMB0GA1UdDgQWBBQ7/YOIiOg44NWElOce2qm86Ex+5jBRBgNVHSME
SjBIgBS9EZ+Bw7wYayECxtDSv4bwp34q3aEapBgwFjEUMBIGA1UEAwwLdGVhbTE2
My1uZXSCFCzGAHHGpoS/iYMjHctgkw2eeoB7MBMGA1UdJQQMMAoGCCsGAQUFBwMB
MAsGA1UdDwQEAwIFoDAZBgNVHREEEjAQgg50ZWFtMTYzLXNlcnZlcjANBgkqhkiG
9w0BAQsFAAOCAQEAesZQ+wQAXfkSLvSEegLJ3KPweVodrNlYnsRv6+sc54Qc7FoJ
lL7dLDGtvg7No4rNaQ96Nh6fzq3HBY4aFyxbY3coY7nDzmiUda4n14oyMqO37DLs
EAF8iT3m44xJsACyfQmdqrgTXZgZgRIP8Rzh5s9kaXHdOUOia2Bjhkd11AObhR9G
sn07vu4rHi8z+n2Cpd2+4OWDt749ijZPIgn1yeXE0ln/4UBU/63PGNbl5Z7uvc/G
AsuLnJ6c/3mkK7ZhtHJv7aKUNDkK7hhtIPyg0ZyeLhusQdU6COqKyHx0s299sYLX
QnYDjABWmu3otUlVYDB0XzJyo61dvEfim4C7Gg==
-----END CERTIFICATE-----
