Certificate:
    Data:
        Version: 3 (0x2)
        Serial Number:
            74:23:de:c6:4b:68:9e:79:bc:f1:55:22:9a:a3:87:f9
        Signature Algorithm: sha256WithRSAEncryption
        Issuer: CN=team500-net
        Validity
            Not Before: May 18 21:52:47 2022 GMT
            Not After : May  2 21:52:47 2025 GMT
        Subject: CN=team500-client
        Subject Public Key Info:
            Public Key Algorithm: rsaEncryption
                RSA Public-Key: (2048 bit)
                Modulus:
                    00:d6:07:75:fc:9e:42:e6:91:12:91:d8:2c:7e:a3:
                    a5:9e:3d:66:fa:0b:b5:92:ab:33:01:0d:7f:50:67:
                    60:8b:f9:b8:30:9f:3e:7d:3b:56:28:7a:48:6f:09:
                    10:b3:70:78:62:4e:23:2d:a0:f7:30:89:1f:66:83:
                    55:ff:d1:f3:61:7c:c1:b9:9a:e3:e7:6a:b0:eb:75:
                    f5:91:14:25:e0:a7:74:65:b1:fb:de:a7:2f:7c:cd:
                    55:dc:92:d1:52:a7:b1:13:76:b4:81:56:54:c4:d6:
                    4b:a6:cf:21:e3:61:ca:d5:74:a5:49:ee:33:be:b5:
                    54:8c:d2:f6:1c:20:ce:2d:44:a1:64:96:dd:32:80:
                    51:4c:f1:8d:c4:09:d3:63:43:d1:fa:ed:32:eb:14:
                    b7:b6:46:2e:9c:9b:91:94:04:48:fa:02:9f:5a:c6:
                    7e:8e:45:a0:60:75:e2:b3:c8:f2:5e:41:73:f2:ad:
                    dc:8d:49:85:4e:c4:28:15:a1:bd:4b:97:8f:d8:6a:
                    a6:b5:ab:7a:8e:31:0b:90:13:fb:1a:1f:85:af:fc:
                    60:43:72:4b:47:8f:3b:7c:31:c0:2e:c9:6f:6f:50:
                    99:f3:43:57:3c:cd:0f:b9:39:0c:a4:80:ea:f8:2e:
                    76:f4:6a:4d:09:43:45:03:a8:fe:90:9d:0d:9e:b1:
                    a1:85
                Exponent: 65537 (0x10001)
        X509v3 extensions:
            X509v3 Basic Constraints: 
                CA:FALSE
            X509v3 Subject Key Identifier: 
                B6:AC:04:2D:DA:D2:2C:B7:8A:0A:DE:9B:41:7C:87:72:3E:A5:F7:9B
            X509v3 Authority Key Identifier: 
                keyid:47:A9:B7:9B:41:FA:36:AE:04:CE:65:DF:E5:9D:4E:9A:10:64:FA:DA
                DirName:/CN=team500-net
                serial:6B:36:4A:D6:EC:07:45:50:05:4F:A3:2F:65:6F:2D:79:CF:B5:85:E5

            X509v3 Extended Key Usage: 
                TLS Web Client Authentication
            X509v3 Key Usage: 
                Digital Signature
    Signature Algorithm: sha256WithRSAEncryption
         d3:5d:a8:ee:ac:fc:56:d6:82:66:16:85:66:b0:bd:b9:75:84:
         bb:e1:d5:0d:67:9a:96:34:fc:b9:9a:8f:18:38:7b:ec:8d:d6:
         55:71:f7:47:40:05:1b:c4:ff:7e:95:58:0d:32:13:be:7e:c7:
         ce:c5:ab:fd:94:7b:36:c0:cf:39:24:93:21:7c:88:56:24:99:
         8e:c5:7f:db:11:32:52:49:5f:9a:20:87:5e:a4:df:58:da:83:
         27:f5:7e:db:06:ef:41:84:69:ec:8b:1a:34:16:3a:7f:54:43:
         54:1c:d0:48:7f:11:91:ef:ef:4b:b7:39:6c:c3:22:0f:87:12:
         14:5d:e4:60:17:3d:b5:47:bc:f9:e8:6d:e5:c7:e7:e3:a3:c3:
         38:b1:05:5a:f0:99:83:25:8f:42:30:2a:2d:91:3e:f8:02:d3:
         b6:09:09:b3:8e:87:24:12:31:8e:b8:ce:06:98:65:38:eb:ae:
         41:d0:84:2a:48:76:6c:12:fb:d6:50:a1:a5:7d:e7:2d:08:46:
         42:b6:f8:ec:93:cd:31:09:4b:d6:a5:59:f1:85:9d:1c:f6:f7:
         b8:1a:9a:0c:b0:b0:a5:ad:fc:92:74:37:48:ed:f1:d8:ff:6b:
         57:f0:72:e2:53:9d:d1:82:21:b8:77:af:b7:55:2a:ac:ed:26:
         c1:c8:e8:f3
-----BEGIN CERTIFICATE-----
MIIDXDCCAkSgAwIBAgIQdCPexktonnm88VUimqOH+TANBgkqhkiG9w0BAQsFADAW
MRQwEgYDVQQDDAt0ZWFtNTAwLW5ldDAeFw0yMjA1MTgyMTUyNDdaFw0yNTA1MDIy
MTUyNDdaMBkxFzAVBgNVBAMMDnRlYW01MDAtY2xpZW50MIIBIjANBgkqhkiG9w0B
AQEFAAOCAQ8AMIIBCgKCAQEA1gd1/J5C5pESkdgsfqOlnj1m+gu1kqszAQ1/UGdg
i/m4MJ8+fTtWKHpIbwkQs3B4Yk4jLaD3MIkfZoNV/9HzYXzBuZrj52qw63X1kRQl
4Kd0ZbH73qcvfM1V3JLRUqexE3a0gVZUxNZLps8h42HK1XSlSe4zvrVUjNL2HCDO
LUShZJbdMoBRTPGNxAnTY0PR+u0y6xS3tkYunJuRlARI+gKfWsZ+jkWgYHXis8jy
XkFz8q3cjUmFTsQoFaG9S5eP2Gqmtat6jjELkBP7Gh+Fr/xgQ3JLR487fDHALslv
b1CZ80NXPM0PuTkMpIDq+C529GpNCUNFA6j+kJ0NnrGhhQIDAQABo4GiMIGfMAkG
A1UdEwQCMAAwHQYDVR0OBBYEFLasBC3a0iy3igrem0F8h3I+pfebMFEGA1UdIwRK
MEiAFEept5tB+jauBM5l3+WdTpoQZPraoRqkGDAWMRQwEgYDVQQDDAt0ZWFtNTAw
LW5ldIIUazZK1uwHRVAFT6MvZW8tec+1heUwEwYDVR0lBAwwCgYIKwYBBQUHAwIw
CwYDVR0PBAQDAgeAMA0GCSqGSIb3DQEBCwUAA4IBAQDTXajurPxW1oJmFoVmsL25
dYS74dUNZ5qWNPy5mo8YOHvsjdZVcfdHQAUbxP9+lVgNMhO+fsfOxav9lHs2wM85
JJMhfIhWJJmOxX/bETJSSV+aIIdepN9Y2oMn9X7bBu9BhGnsixo0Fjp/VENUHNBI
fxGR7+9LtzlswyIPhxIUXeRgFz21R7z56G3lx+fjo8M4sQVa8JmDJY9CMCotkT74
AtO2CQmzjockEjGOuM4GmGU4665B0IQqSHZsEvvWUKGlfectCEZCtvjsk80xCUvW
pVnxhZ0c9ve4GpoMsLClrfySdDdI7fHY/2tX8HLiU53RgiG4d6+3VSqs7SbByOjz
-----END CERTIFICATE-----
