Certificate:
    Data:
        Version: 3 (0x2)
        Serial Number:
            a5:cc:fb:fb:71:b5:38:df:26:34:d6:c4:ef:2a:cc:86
        Signature Algorithm: sha256WithRSAEncryption
        Issuer: CN=team357-net
        Validity
            Not Before: May 18 20:33:28 2022 GMT
            Not After : May  2 20:33:28 2025 GMT
        Subject: CN=team357-client
        Subject Public Key Info:
            Public Key Algorithm: rsaEncryption
                RSA Public-Key: (2048 bit)
                Modulus:
                    00:d2:4d:da:3d:59:82:c2:16:3b:36:52:36:80:4e:
                    58:97:d1:23:0c:81:dc:63:a1:b4:a6:f7:85:af:d2:
                    de:b3:e2:37:3f:b5:97:1d:65:c2:a9:a6:96:e5:99:
                    4f:2b:69:59:8c:c9:b0:54:34:b7:80:df:68:af:9d:
                    8d:2f:26:8d:5b:61:91:4b:0c:c7:f1:1e:f3:64:90:
                    9b:03:81:08:30:1f:9d:ec:ca:54:c7:85:e4:ea:61:
                    fa:b9:74:2e:10:75:77:59:7e:87:6a:ba:8d:37:76:
                    03:07:73:e3:83:51:56:3b:8d:40:6a:06:1d:d8:f9:
                    6d:f1:ba:e6:b7:d3:0a:d9:2a:2a:8a:38:90:ae:86:
                    05:3b:ed:98:55:24:3d:9b:6a:e2:fc:a1:20:d8:4d:
                    6b:5d:23:d7:07:c3:08:33:4f:33:6a:c2:21:35:fe:
                    cc:46:92:bd:2d:90:d8:6c:a9:c3:ac:b6:cd:e5:41:
                    ac:e7:c3:08:ae:f4:e4:1d:c1:ff:06:79:04:be:57:
                    d7:69:6f:29:b0:ec:72:2e:1a:90:57:5c:53:ea:ac:
                    9f:79:cd:97:33:c7:22:52:ca:93:ff:eb:75:b4:23:
                    37:56:cc:76:31:98:f2:6c:f0:b4:58:73:d5:cd:c9:
                    6b:b5:97:74:d3:62:d6:5a:08:61:b6:d7:17:1c:d2:
                    9d:1d
                Exponent: 65537 (0x10001)
        X509v3 extensions:
            X509v3 Basic Constraints: 
                CA:FALSE
            X509v3 Subject Key Identifier: 
                DE:5B:B2:AB:5C:E6:60:D0:7D:50:12:D9:BC:EA:1F:AA:A7:A8:0A:6D
            X509v3 Authority Key Identifier: 
                keyid:7B:9B:68:24:9A:D7:24:66:5D:43:D8:39:8C:75:3E:71:4C:40:A0:49
                DirName:/CN=team357-net
                serial:71:5B:70:84:A5:F4:19:99:8A:D0:75:CC:D7:16:5F:A3:1E:2A:DF:28

            X509v3 Extended Key Usage: 
                TLS Web Client Authentication
            X509v3 Key Usage: 
                Digital Signature
    Signature Algorithm: sha256WithRSAEncryption
         12:5c:2b:1d:6b:32:26:d2:33:f8:fa:da:ce:87:03:8a:0f:e3:
         a2:0b:3a:5b:e0:09:ae:d6:cc:a6:d7:46:e6:39:4b:3f:75:a7:
         c6:25:87:7f:9b:66:6b:93:63:8f:7c:ca:01:dc:b3:8e:d9:7b:
         e1:ec:09:bb:ac:53:9f:cb:16:53:e1:25:ed:a9:46:c3:79:de:
         dc:67:4f:1f:1e:dc:b3:18:f8:fd:34:9e:3c:2e:24:ce:fc:08:
         5d:f5:87:bc:c8:16:50:77:77:4d:95:34:d5:89:e2:99:dd:b6:
         25:73:98:29:d8:71:be:05:4a:79:34:a7:85:42:bd:6a:0c:da:
         88:87:cb:27:83:e6:b7:78:58:a2:fb:6f:64:f4:db:0b:54:c9:
         d1:f4:9e:73:02:5e:26:b4:fa:a2:38:f5:6d:57:d6:a1:1f:5a:
         82:2c:5a:50:a8:08:88:97:0d:cb:2c:6c:fa:9d:43:46:b3:34:
         45:65:e8:4e:cf:dd:68:84:0a:9f:22:c6:0e:18:fd:35:ac:b2:
         8a:c8:9a:76:33:8b:26:b1:01:1e:86:f7:e5:50:29:b5:dc:8f:
         db:75:3c:e2:2b:9a:88:e6:66:c2:24:17:f2:9c:f5:44:8c:0d:
         dc:c2:28:11:df:73:72:ad:0a:da:fe:8f:98:0c:ba:8f:b0:8d:
         79:5d:27:94
-----BEGIN CERTIFICATE-----
MIIDXTCCAkWgAwIBAgIRAKXM+/txtTjfJjTWxO8qzIYwDQYJKoZIhvcNAQELBQAw
FjEUMBIGA1UEAwwLdGVhbTM1Ny1uZXQwHhcNMjIwNTE4MjAzMzI4WhcNMjUwNTAy
MjAzMzI4WjAZMRcwFQYDVQQDDA50ZWFtMzU3LWNsaWVudDCCASIwDQYJKoZIhvcN
AQEBBQADggEPADCCAQoCggEBANJN2j1ZgsIWOzZSNoBOWJfRIwyB3GOhtKb3ha/S
3rPiNz+1lx1lwqmmluWZTytpWYzJsFQ0t4DfaK+djS8mjVthkUsMx/Ee82SQmwOB
CDAfnezKVMeF5Oph+rl0LhB1d1l+h2q6jTd2Awdz44NRVjuNQGoGHdj5bfG65rfT
CtkqKoo4kK6GBTvtmFUkPZtq4vyhINhNa10j1wfDCDNPM2rCITX+zEaSvS2Q2Gyp
w6y2zeVBrOfDCK705B3B/wZ5BL5X12lvKbDsci4akFdcU+qsn3nNlzPHIlLKk//r
dbQjN1bMdjGY8mzwtFhz1c3Ja7WXdNNi1loIYbbXFxzSnR0CAwEAAaOBojCBnzAJ
BgNVHRMEAjAAMB0GA1UdDgQWBBTeW7KrXOZg0H1QEtm86h+qp6gKbTBRBgNVHSME
SjBIgBR7m2gkmtckZl1D2DmMdT5xTECgSaEapBgwFjEUMBIGA1UEAwwLdGVhbTM1
Ny1uZXSCFHFbcISl9BmZitB1zNcWX6MeKt8oMBMGA1UdJQQMMAoGCCsGAQUFBwMC
MAsGA1UdDwQEAwIHgDANBgkqhkiG9w0BAQsFAAOCAQEAElwrHWsyJtIz+PrazocD
ig/jogs6W+AJrtbMptdG5jlLP3WnxiWHf5tma5Njj3zKAdyzjtl74ewJu6xTn8sW
U+El7alGw3ne3GdPHx7csxj4/TSePC4kzvwIXfWHvMgWUHd3TZU01Ynimd22JXOY
KdhxvgVKeTSnhUK9agzaiIfLJ4Pmt3hYovtvZPTbC1TJ0fSecwJeJrT6ojj1bVfW
oR9agixaUKgIiJcNyyxs+p1DRrM0RWXoTs/daIQKnyLGDhj9NayyisiadjOLJrEB
Hob35VAptdyP23U84iuaiOZmwiQX8pz1RIwN3MIoEd9zcq0K2v6PmAy6j7CNeV0n
lA==
-----END CERTIFICATE-----
