Certificate:
    Data:
        Version: 3 (0x2)
        Serial Number:
            c9:1d:f1:fe:fa:82:df:46:72:50:df:1c:d4:b9:97:d3
        Signature Algorithm: sha256WithRSAEncryption
        Issuer: CN=team648-net
        Validity
            Not Before: May 18 23:18:12 2022 GMT
            Not After : May  2 23:18:12 2025 GMT
        Subject: CN=team648-server
        Subject Public Key Info:
            Public Key Algorithm: rsaEncryption
                RSA Public-Key: (2048 bit)
                Modulus:
                    00:f2:6e:7a:18:80:1b:ea:fc:32:f9:4d:10:42:13:
                    77:f9:8e:06:24:33:4e:70:5b:79:6e:44:54:ea:af:
                    10:8f:82:8f:32:68:37:73:f1:a8:ed:d9:ae:bb:05:
                    c4:b2:5f:c3:ec:51:a3:cb:79:fb:c4:8f:51:eb:48:
                    e3:d2:63:98:23:05:58:25:37:eb:d2:f3:dc:a2:6c:
                    e6:90:60:0c:52:54:46:ba:85:f3:03:5a:f1:c7:77:
                    c6:c6:19:d9:be:7c:a2:22:2f:bb:64:8a:e0:8a:0d:
                    e8:3d:90:78:d8:20:40:08:eb:c6:c7:72:42:ba:d0:
                    ab:9a:85:a4:7b:95:64:6d:cc:ec:05:3a:4d:d0:53:
                    34:c7:be:20:bc:2e:83:01:0b:f7:4d:c3:f8:97:ac:
                    67:eb:92:da:04:4b:ac:ff:26:e9:be:12:fe:86:42:
                    c0:97:13:cc:4a:19:b1:6a:e9:27:48:83:8f:d6:08:
                    73:d8:ed:e0:8f:c2:d5:30:08:b4:d4:c6:95:51:07:
                    02:e0:0a:85:71:c2:4b:41:7c:83:2f:a4:76:3d:4d:
                    7b:34:08:1a:db:3c:d9:bb:a7:37:b3:fd:2c:cc:f3:
                    6c:5f:64:c1:43:d6:1c:0f:39:c9:28:1a:f2:eb:4e:
                    e2:5e:2a:4e:d0:c7:1f:42:e6:67:44:2e:f8:4d:d7:
                    53:07
                Exponent: 65537 (0x10001)
        X509v3 extensions:
            X509v3 Basic Constraints: 
                CA:FALSE
            X509v3 Subject Key Identifier: 
                19:D6:7C:91:4E:C3:34:EC:A2:1D:9B:15:96:89:AC:AE:6F:18:7B:AE
            X509v3 Authority Key Identifier: 
                keyid:13:CD:21:79:66:E9:33:4B:E4:FB:D7:D4:41:D7:87:61:6E:97:DC:E0
                DirName:/CN=team648-net
                serial:65:56:2F:87:1D:DD:7B:71:40:2D:E0:B8:46:94:36:91:0C:39:8D:DE

            X509v3 Extended Key Usage: 
                TLS Web Server Authentication
            X509v3 Key Usage: 
                Digital Signature, Key Encipherment
            X509v3 Subject Alternative Name: 
                DNS:team648-server
    Signature Algorithm: sha256WithRSAEncryption
         e2:ae:3f:df:12:fb:74:08:fc:e7:10:bd:42:54:02:63:25:11:
         5d:24:87:e6:e6:5c:f5:d4:87:f2:5a:14:e0:00:ef:8b:9a:a5:
         e7:b3:4d:a1:31:a1:8f:44:02:40:e1:e2:c4:6c:9b:45:b6:6c:
         b6:d6:b5:b9:15:44:e3:99:10:73:7c:28:f2:9d:55:52:64:b6:
         f4:8f:59:f7:21:45:e9:be:3a:36:65:4c:eb:e4:6a:bf:52:11:
         06:92:2b:38:cd:1f:76:b2:e3:3f:ad:59:11:b3:bf:dc:e6:52:
         d5:01:27:60:47:e2:0f:1a:f8:b0:76:99:d3:9a:52:4a:58:ae:
         b4:0a:da:6a:32:31:d9:09:10:4a:99:86:78:7b:0a:7d:f2:64:
         4c:4f:8f:78:4e:f2:20:ad:c5:c5:c7:cd:62:64:76:0b:9c:dd:
         80:b4:bc:a5:13:42:03:aa:d7:94:f2:7c:15:05:2f:63:9f:2b:
         d1:eb:d9:3e:83:a6:d0:f8:8b:0b:72:bf:a9:3a:00:d1:0f:12:
         6c:9f:4d:4f:e1:ee:af:f3:ad:bc:fd:6b:d5:b8:75:bf:6f:f7:
         f3:5f:0e:ca:01:50:5a:2f:d8:5b:29:d1:1f:96:6b:76:f4:d2:
         ce:86:c3:43:de:94:d1:0c:19:b2:83:bf:91:f3:19:35:81:13:
         f9:86:f4:17
-----BEGIN CERTIFICATE-----
MIIDeDCCAmCgAwIBAgIRAMkd8f76gt9GclDfHNS5l9MwDQYJKoZIhvcNAQELBQAw
FjEUMBIGA1UEAwwLdGVhbTY0OC1uZXQwHhcNMjIwNTE4MjMxODEyWhcNMjUwNTAy
MjMxODEyWjAZMRcwFQYDVQQDDA50ZWFtNjQ4LXNlcnZlcjCCASIwDQYJKoZIhvcN
AQEBBQADggEPADCCAQoCggEBAPJuehiAG+r8MvlNEEITd/mOBiQzTnBbeW5EVOqv
EI+CjzJoN3PxqO3ZrrsFxLJfw+xRo8t5+8SPUetI49JjmCMFWCU369Lz3KJs5pBg
DFJURrqF8wNa8cd3xsYZ2b58oiIvu2SK4IoN6D2QeNggQAjrxsdyQrrQq5qFpHuV
ZG3M7AU6TdBTNMe+ILwugwEL903D+JesZ+uS2gRLrP8m6b4S/oZCwJcTzEoZsWrp
J0iDj9YIc9jt4I/C1TAItNTGlVEHAuAKhXHCS0F8gy+kdj1NezQIGts82bunN7P9
LMzzbF9kwUPWHA85ySga8utO4l4qTtDHH0LmZ0Qu+E3XUwcCAwEAAaOBvTCBujAJ
BgNVHRMEAjAAMB0GA1UdDgQWBBQZ1nyRTsM07KIdmxWWiayubxh7rjBRBgNVHSME
SjBIgBQTzSF5ZukzS+T719RB14dhbpfc4KEapBgwFjEUMBIGA1UEAwwLdGVhbTY0
OC1uZXSCFGVWL4cd3XtxQC3guEaUNpEMOY3eMBMGA1UdJQQMMAoGCCsGAQUFBwMB
MAsGA1UdDwQEAwIFoDAZBgNVHREEEjAQgg50ZWFtNjQ4LXNlcnZlcjANBgkqhkiG
9w0BAQsFAAOCAQEA4q4/3xL7dAj85xC9QlQCYyURXSSH5uZc9dSH8loU4ADvi5ql
57NNoTGhj0QCQOHixGybRbZstta1uRVE45kQc3wo8p1VUmS29I9Z9yFF6b46NmVM
6+Rqv1IRBpIrOM0fdrLjP61ZEbO/3OZS1QEnYEfiDxr4sHaZ05pSSliutAraajIx
2QkQSpmGeHsKffJkTE+PeE7yIK3FxcfNYmR2C5zdgLS8pRNCA6rXlPJ8FQUvY58r
0evZPoOm0PiLC3K/qToA0Q8SbJ9NT+Hur/OtvP1r1bh1v2/3818OygFQWi/YWynR
H5ZrdvTSzobDQ96U0QwZsoO/kfMZNYET+Yb0Fw==
-----END CERTIFICATE-----
