Certificate:
    Data:
        Version: 3 (0x2)
        Serial Number:
            87:b8:6c:93:0a:86:b9:02:82:56:46:c2:32:79:09:ea
        Signature Algorithm: sha256WithRSAEncryption
        Issuer: CN=team663-net
        Validity
            Not Before: May 18 23:25:54 2022 GMT
            Not After : May  2 23:25:54 2025 GMT
        Subject: CN=team663-client
        Subject Public Key Info:
            Public Key Algorithm: rsaEncryption
                RSA Public-Key: (2048 bit)
                Modulus:
                    00:a6:03:dd:d7:75:68:35:3b:0d:e7:17:5f:0f:a1:
                    d6:20:37:c0:e3:b9:15:d7:2e:83:74:e1:1e:dd:48:
                    da:dd:ec:e6:56:e6:bd:dd:0c:b0:a5:60:2b:6e:8e:
                    11:97:88:bb:e3:7f:fa:5b:ea:c7:44:d9:5e:fe:86:
                    f8:1e:ba:29:3d:53:d9:f8:6b:1d:39:5f:dc:20:cb:
                    17:31:21:c1:e7:1a:2b:bc:79:d9:dc:90:dd:5f:23:
                    b0:d6:e8:d9:b2:b1:9b:3e:5e:dc:81:8c:60:35:b2:
                    20:30:c6:d2:be:64:fc:d9:39:fa:8e:f7:78:7c:99:
                    f1:7c:5e:cd:a0:c1:7f:08:b6:1c:25:4f:72:88:1c:
                    1e:3a:d9:74:da:44:47:b8:bb:ed:48:04:34:64:93:
                    50:eb:75:9c:5d:e9:2d:7a:c1:2f:a4:48:20:b1:2e:
                    8e:8c:4a:a4:f4:a1:54:8a:e6:87:00:48:07:0e:61:
                    1e:51:b4:12:0c:ea:8c:43:30:86:30:66:b6:5e:17:
                    b0:15:99:ec:71:75:56:c0:1c:09:3a:8c:99:4c:55:
                    5a:c6:dc:6d:13:69:ff:e3:89:56:66:55:c6:48:ab:
                    6d:3f:ff:6d:25:0d:c6:68:fa:c4:a6:12:a7:7f:05:
                    d3:82:69:70:e5:4c:3d:eb:27:b9:25:b5:7c:56:45:
                    b6:0d
                Exponent: 65537 (0x10001)
        X509v3 extensions:
            X509v3 Basic Constraints: 
                CA:FALSE
            X509v3 Subject Key Identifier: 
                79:8A:90:66:D8:33:F9:86:12:33:DA:C5:5C:D0:70:BB:55:E4:DC:1E
            X509v3 Authority Key Identifier: 
                keyid:3F:44:8C:92:67:1F:D8:EF:F1:7B:F4:3E:7B:39:DF:44:DC:97:76:50
                DirName:/CN=team663-net
                serial:0D:5E:DB:28:0D:51:E7:40:27:25:F8:85:8A:A4:3F:64:F3:98:A5:19

            X509v3 Extended Key Usage: 
                TLS Web Client Authentication
            X509v3 Key Usage: 
                Digital Signature
    Signature Algorithm: sha256WithRSAEncryption
         6b:7c:3a:42:5b:e6:3a:e6:08:ff:bb:6f:84:ae:50:fd:d7:2a:
         43:2b:cc:96:b0:80:d3:19:dc:57:77:33:27:54:3f:8c:15:b9:
         12:07:ea:7b:41:12:db:c1:84:0e:17:be:c8:0f:c1:6a:91:54:
         5b:e9:ed:13:42:ca:eb:11:ba:1d:93:31:57:0f:13:7d:93:02:
         c7:6f:41:fd:c5:a3:88:62:27:5d:73:18:f4:c6:1d:4b:06:cd:
         d0:ba:1b:4c:13:7d:82:d1:b9:28:24:be:80:cc:9d:93:86:ec:
         6a:c8:c9:77:53:d4:6f:06:b2:3a:de:d9:eb:9c:f6:b0:45:47:
         19:e8:b5:80:0f:69:b4:a5:9f:d7:07:42:a4:f5:71:d4:e8:6b:
         19:bb:75:39:ae:6b:e6:2c:04:5d:a9:cd:b2:e3:00:cd:56:22:
         52:f8:03:b2:1c:f8:68:2e:3c:cf:d5:28:14:3b:d3:23:68:ff:
         71:2d:32:48:a9:5b:83:c5:55:f8:86:94:bc:61:59:10:76:6d:
         d5:c0:29:29:0f:11:38:f0:17:ce:99:8e:e1:86:58:5e:0b:86:
         ec:0b:2f:7e:76:06:75:2c:11:88:4c:2a:f4:0f:f8:0e:ab:df:
         55:85:ee:2c:53:ab:58:01:10:b4:5a:b3:d0:dc:5c:42:da:2a:
         9f:f8:a1:77
-----BEGIN CERTIFICATE-----
MIIDXTCCAkWgAwIBAgIRAIe4bJMKhrkCglZGwjJ5CeowDQYJKoZIhvcNAQELBQAw
FjEUMBIGA1UEAwwLdGVhbTY2My1uZXQwHhcNMjIwNTE4MjMyNTU0WhcNMjUwNTAy
MjMyNTU0WjAZMRcwFQYDVQQDDA50ZWFtNjYzLWNsaWVudDCCASIwDQYJKoZIhvcN
AQEBBQADggEPADCCAQoCggEBAKYD3dd1aDU7DecXXw+h1iA3wOO5Fdcug3ThHt1I
2t3s5lbmvd0MsKVgK26OEZeIu+N/+lvqx0TZXv6G+B66KT1T2fhrHTlf3CDLFzEh
wecaK7x52dyQ3V8jsNbo2bKxmz5e3IGMYDWyIDDG0r5k/Nk5+o73eHyZ8XxezaDB
fwi2HCVPcogcHjrZdNpER7i77UgENGSTUOt1nF3pLXrBL6RIILEujoxKpPShVIrm
hwBIBw5hHlG0EgzqjEMwhjBmtl4XsBWZ7HF1VsAcCTqMmUxVWsbcbRNp/+OJVmZV
xkirbT//bSUNxmj6xKYSp38F04JpcOVMPesnuSW1fFZFtg0CAwEAAaOBojCBnzAJ
BgNVHRMEAjAAMB0GA1UdDgQWBBR5ipBm2DP5hhIz2sVc0HC7VeTcHjBRBgNVHSME
SjBIgBQ/RIySZx/Y7/F79D57Od9E3Jd2UKEapBgwFjEUMBIGA1UEAwwLdGVhbTY2
My1uZXSCFA1e2ygNUedAJyX4hYqkP2TzmKUZMBMGA1UdJQQMMAoGCCsGAQUFBwMC
MAsGA1UdDwQEAwIHgDANBgkqhkiG9w0BAQsFAAOCAQEAa3w6QlvmOuYI/7tvhK5Q
/dcqQyvMlrCA0xncV3czJ1Q/jBW5Egfqe0ES28GEDhe+yA/BapFUW+ntE0LK6xG6
HZMxVw8TfZMCx29B/cWjiGInXXMY9MYdSwbN0LobTBN9gtG5KCS+gMydk4bsasjJ
d1PUbwayOt7Z65z2sEVHGei1gA9ptKWf1wdCpPVx1OhrGbt1Oa5r5iwEXanNsuMA
zVYiUvgDshz4aC48z9UoFDvTI2j/cS0ySKlbg8VV+IaUvGFZEHZt1cApKQ8ROPAX
zpmO4YZYXguG7AsvfnYGdSwRiEwq9A/4DqvfVYXuLFOrWAEQtFqz0NxcQtoqn/ih
dw==
-----END CERTIFICATE-----
