Certificate:
    Data:
        Version: 3 (0x2)
        Serial Number:
            ad:bd:03:0b:34:eb:57:51:20:68:a8:de:10:6c:3f:17
        Signature Algorithm: sha256WithRSAEncryption
        Issuer: CN=team663-net
        Validity
            Not Before: May 18 23:25:54 2022 GMT
            Not After : May  2 23:25:54 2025 GMT
        Subject: CN=team663-server
        Subject Public Key Info:
            Public Key Algorithm: rsaEncryption
                RSA Public-Key: (2048 bit)
                Modulus:
                    00:b1:34:21:51:c8:8e:a2:53:10:fd:1c:cf:dd:c0:
                    39:eb:6a:e7:d2:e8:bc:f3:1e:c4:3c:e0:52:51:d6:
                    78:b3:48:50:3b:6d:2f:a2:5d:06:2a:69:02:83:72:
                    9c:69:07:66:4c:8d:f1:83:2b:53:dd:de:bc:15:da:
                    a9:c2:61:c4:b9:e0:ce:17:ec:bd:ef:aa:a4:bf:6f:
                    fa:cc:10:f9:ce:61:3a:ef:40:50:c2:f3:2f:43:ac:
                    b1:de:a3:d9:2c:ee:3f:82:d1:6d:8e:57:b9:2c:bd:
                    db:a6:aa:12:74:c4:b9:6d:9d:d6:81:df:79:c1:7b:
                    f2:41:3b:32:8a:87:95:38:d0:9f:25:36:b3:98:a1:
                    5e:c8:cb:73:07:57:e1:de:51:50:42:f0:5b:4e:61:
                    31:52:b5:cf:ef:52:26:01:0b:38:84:35:4a:9f:25:
                    21:49:58:5b:91:28:4d:9b:55:1e:b0:3b:dd:f0:55:
                    ea:00:78:30:fd:ae:8c:35:d8:fc:e8:eb:f5:58:bb:
                    60:8f:45:c6:7d:e5:1e:33:99:54:19:ff:09:76:98:
                    da:bf:01:8c:de:79:db:aa:27:90:79:78:b5:60:a7:
                    36:ec:4f:cc:70:10:96:26:fe:9b:5f:21:c0:e2:47:
                    fc:73:83:2e:26:c3:48:70:81:f9:67:83:20:63:3f:
                    f8:cb
                Exponent: 65537 (0x10001)
        X509v3 extensions:
            X509v3 Basic Constraints: 
                CA:FALSE
            X509v3 Subject Key Identifier: 
                35:39:82:D2:D3:3D:FA:10:EA:00:8A:04:10:22:3F:1B:06:8A:83:05
            X509v3 Authority Key Identifier: 
                keyid:3F:44:8C:92:67:1F:D8:EF:F1:7B:F4:3E:7B:39:DF:44:DC:97:76:50
                DirName:/CN=team663-net
                serial:0D:5E:DB:28:0D:51:E7:40:27:25:F8:85:8A:A4:3F:64:F3:98:A5:19

            X509v3 Extended Key Usage: 
                TLS Web Server Authentication
            X509v3 Key Usage: 
                Digital Signature, Key Encipherment
            X509v3 Subject Alternative Name: 
                DNS:team663-server
    Signature Algorithm: sha256WithRSAEncryption
         40:38:91:8c:d3:45:a7:f7:d3:f8:8a:40:03:27:e7:1f:ae:a6:
         71:58:13:c6:82:58:22:c8:bf:ce:81:11:69:9e:f6:b4:ce:c5:
         c2:bb:a5:f7:97:dc:42:9a:e6:33:51:a1:f7:95:3f:fd:27:0f:
         a1:90:fd:c7:48:bc:27:8d:94:b0:41:55:ec:73:fa:66:80:27:
         ae:73:60:48:83:73:2f:6e:04:c9:b8:a2:71:ca:b3:4e:89:b5:
         cf:4a:6e:9b:a4:d4:fc:87:d7:66:0f:76:95:d7:6d:f7:08:c6:
         a4:3d:3e:12:f0:b6:dd:11:1a:61:7b:1a:a4:6c:d9:34:f9:12:
         88:81:63:56:85:b9:2d:72:0a:62:db:1c:00:47:61:32:24:09:
         d6:17:ce:56:13:de:52:e0:af:c1:59:ff:8e:63:2c:c4:13:02:
         56:74:28:6f:6f:48:ef:b3:49:dc:5f:64:b3:31:fa:e4:69:67:
         da:1b:5c:ce:04:78:ef:44:42:5f:35:c5:3a:f4:ce:e4:f3:5d:
         66:67:fb:ad:d0:c3:63:dc:cd:8d:25:d8:c4:f7:f1:6d:18:9f:
         c9:3e:79:4e:51:a0:44:b1:42:a0:05:2c:21:84:e7:79:30:5f:
         3c:36:ac:47:81:1b:02:25:88:aa:4a:bb:a7:c0:14:c4:37:65:
         54:17:8f:6f
-----BEGIN CERTIFICATE-----
MIIDeDCCAmCgAwIBAgIRAK29Aws061dRIGio3hBsPxcwDQYJKoZIhvcNAQELBQAw
FjEUMBIGA1UEAwwLdGVhbTY2My1uZXQwHhcNMjIwNTE4MjMyNTU0WhcNMjUwNTAy
MjMyNTU0WjAZMRcwFQYDVQQDDA50ZWFtNjYzLXNlcnZlcjCCASIwDQYJKoZIhvcN
AQEBBQADggEPADCCAQoCggEBALE0IVHIjqJTEP0cz93AOetq59LovPMexDzgUlHW
eLNIUDttL6JdBippAoNynGkHZkyN8YMrU93evBXaqcJhxLngzhfsve+qpL9v+swQ
+c5hOu9AUMLzL0Ossd6j2SzuP4LRbY5XuSy926aqEnTEuW2d1oHfecF78kE7MoqH
lTjQnyU2s5ihXsjLcwdX4d5RUELwW05hMVK1z+9SJgELOIQ1Sp8lIUlYW5EoTZtV
HrA73fBV6gB4MP2ujDXY/Ojr9Vi7YI9Fxn3lHjOZVBn/CXaY2r8BjN5526onkHl4
tWCnNuxPzHAQlib+m18hwOJH/HODLibDSHCB+WeDIGM/+MsCAwEAAaOBvTCBujAJ
BgNVHRMEAjAAMB0GA1UdDgQWBBQ1OYLS0z36EOoAigQQIj8bBoqDBTBRBgNVHSME
SjBIgBQ/RIySZx/Y7/F79D57Od9E3Jd2UKEapBgwFjEUMBIGA1UEAwwLdGVhbTY2
My1uZXSCFA1e2ygNUedAJyX4hYqkP2TzmKUZMBMGA1UdJQQMMAoGCCsGAQUFBwMB
MAsGA1UdDwQEAwIFoDAZBgNVHREEEjAQgg50ZWFtNjYzLXNlcnZlcjANBgkqhkiG
9w0BAQsFAAOCAQEAQDiRjNNFp/fT+IpAAyfnH66mcVgTxoJYIsi/zoERaZ72tM7F
wrul95fcQprmM1Gh95U//ScPoZD9x0i8J42UsEFV7HP6ZoAnrnNgSINzL24Eybii
ccqzTom1z0pum6TU/IfXZg92lddt9wjGpD0+EvC23REaYXsapGzZNPkSiIFjVoW5
LXIKYtscAEdhMiQJ1hfOVhPeUuCvwVn/jmMsxBMCVnQob29I77NJ3F9kszH65Gln
2htczgR470RCXzXFOvTO5PNdZmf7rdDDY9zNjSXYxPfxbRifyT55TlGgRLFCoAUs
IYTneTBfPDasR4EbAiWIqkq7p8AUxDdlVBePbw==
-----END CERTIFICATE-----
