Certificate:
    Data:
        Version: 3 (0x2)
        Serial Number:
            84:3d:39:e3:df:80:89:16:57:fb:64:42:33:aa:6c:ad
        Signature Algorithm: sha256WithRSAEncryption
        Issuer: CN=team552-net
        Validity
            Not Before: May 18 22:13:58 2022 GMT
            Not After : May  2 22:13:58 2025 GMT
        Subject: CN=team552-client
        Subject Public Key Info:
            Public Key Algorithm: rsaEncryption
                RSA Public-Key: (2048 bit)
                Modulus:
                    00:c6:7b:cf:03:68:da:c6:c6:0e:b1:0a:f1:7e:82:
                    cf:aa:64:74:35:0f:66:29:17:0d:d9:6e:71:b1:8b:
                    5c:48:c2:9d:bc:a4:93:78:2a:25:fa:04:6c:75:3a:
                    13:1e:9e:cd:5b:b2:96:03:43:93:bb:54:4e:68:d6:
                    7c:61:0d:1e:6d:b2:2a:e0:4a:9d:0c:30:db:dd:2b:
                    18:41:33:96:44:d8:48:8f:eb:da:1b:43:9a:f0:65:
                    70:a7:7b:60:e1:ea:02:2c:f0:62:05:c5:6b:0b:96:
                    16:36:e5:93:21:d3:43:07:0f:f9:a7:76:3f:93:b7:
                    4a:d7:e1:4a:71:01:15:6c:d8:ef:7d:b0:d5:b5:83:
                    ae:42:44:e6:05:33:55:ac:76:84:30:53:a0:c9:5f:
                    5c:24:00:fb:3d:0a:0d:95:c3:a9:7b:45:d0:27:42:
                    9b:6f:7c:19:7d:60:94:fc:b8:24:62:b6:58:fb:64:
                    2d:50:6a:ee:cd:40:b6:c0:b1:7c:73:9a:1c:bd:d2:
                    5c:f2:37:04:90:e8:61:82:43:d1:b5:b2:92:d1:a9:
                    7a:ac:2a:a5:7f:29:54:6e:b1:28:d5:c1:29:c3:1f:
                    4a:91:f1:a6:a6:78:4c:5d:b6:f0:c1:66:85:ea:95:
                    4f:5e:be:4a:43:11:21:18:0c:fa:38:3d:87:ea:0e:
                    c5:b9
                Exponent: 65537 (0x10001)
        X509v3 extensions:
            X509v3 Basic Constraints: 
                CA:FALSE
            X509v3 Subject Key Identifier: 
                F8:97:3E:F4:34:17:4B:C4:8B:0A:95:71:EE:7F:D8:C1:B8:EB:5E:82
            X509v3 Authority Key Identifier: 
                keyid:26:83:59:FD:AD:BB:1F:B4:D1:3E:35:F3:05:A5:87:92:B5:E0:36:07
                DirName:/CN=team552-net
                serial:30:40:5F:9C:80:2C:69:BF:59:A1:C2:81:F6:D0:7D:EF:12:82:BD:CA

            X509v3 Extended Key Usage: 
                TLS Web Client Authentication
            X509v3 Key Usage: 
                Digital Signature
    Signature Algorithm: sha256WithRSAEncryption
         1d:c6:6d:ea:12:d7:bd:95:a2:41:60:b6:60:94:99:67:52:78:
         87:2c:e2:2b:55:3b:64:dd:70:82:d0:58:80:dd:62:fd:b0:f4:
         32:f8:0e:12:7e:a3:f8:13:b2:f4:55:b1:e3:63:d8:81:e0:2f:
         6f:6b:87:e9:c4:b6:52:04:57:7f:d1:fd:cc:d6:a0:d9:eb:01:
         89:51:4d:2c:e2:44:21:6f:be:17:41:76:63:4d:52:3e:33:f3:
         8d:9c:8c:6c:27:0a:2f:15:fa:16:34:3c:09:c9:07:12:76:2f:
         0b:49:3a:89:d6:55:12:4f:64:f9:67:47:66:fd:5d:e5:f6:03:
         2a:7f:c9:f3:f0:9c:5d:39:d3:a2:3d:9a:6a:3d:cb:30:b9:5d:
         3e:b7:c8:96:01:9e:09:90:6d:79:14:af:00:cf:b5:39:5f:33:
         50:78:10:aa:d4:36:ad:ef:8b:93:d2:a9:78:e3:3e:f8:b5:9e:
         f3:9c:66:9b:e6:e2:2f:63:8d:42:6f:c2:27:51:27:9e:21:dc:
         20:10:9d:51:db:5d:95:e7:23:1e:87:9c:e7:d7:17:ed:c8:9a:
         2f:7c:f4:ac:c3:bb:5e:b7:b3:e6:4e:ea:5f:69:2d:48:cf:ef:
         cf:0f:37:9c:ae:29:b5:0d:7e:f1:da:1a:5a:fd:b7:ef:13:17:
         ee:11:c7:48
-----BEGIN CERTIFICATE-----
MIIDXTCCAkWgAwIBAgIRAIQ9OePfgIkWV/tkQjOqbK0wDQYJKoZIhvcNAQELBQAw
FjEUMBIGA1UEAwwLdGVhbTU1Mi1uZXQwHhcNMjIwNTE4MjIxMzU4WhcNMjUwNTAy
MjIxMzU4WjAZMRcwFQYDVQQDDA50ZWFtNTUyLWNsaWVudDCCASIwDQYJKoZIhvcN
AQEBBQADggEPADCCAQoCggEBAMZ7zwNo2sbGDrEK8X6Cz6pkdDUPZikXDdlucbGL
XEjCnbykk3gqJfoEbHU6Ex6ezVuylgNDk7tUTmjWfGENHm2yKuBKnQww290rGEEz
lkTYSI/r2htDmvBlcKd7YOHqAizwYgXFawuWFjblkyHTQwcP+ad2P5O3StfhSnEB
FWzY732w1bWDrkJE5gUzVax2hDBToMlfXCQA+z0KDZXDqXtF0CdCm298GX1glPy4
JGK2WPtkLVBq7s1AtsCxfHOaHL3SXPI3BJDoYYJD0bWyktGpeqwqpX8pVG6xKNXB
KcMfSpHxpqZ4TF228MFmheqVT16+SkMRIRgM+jg9h+oOxbkCAwEAAaOBojCBnzAJ
BgNVHRMEAjAAMB0GA1UdDgQWBBT4lz70NBdLxIsKlXHuf9jBuOtegjBRBgNVHSME
SjBIgBQmg1n9rbsftNE+NfMFpYeSteA2B6EapBgwFjEUMBIGA1UEAwwLdGVhbTU1
Mi1uZXSCFDBAX5yALGm/WaHCgfbQfe8Sgr3KMBMGA1UdJQQMMAoGCCsGAQUFBwMC
MAsGA1UdDwQEAwIHgDANBgkqhkiG9w0BAQsFAAOCAQEAHcZt6hLXvZWiQWC2YJSZ
Z1J4hyziK1U7ZN1wgtBYgN1i/bD0MvgOEn6j+BOy9FWx42PYgeAvb2uH6cS2UgRX
f9H9zNag2esBiVFNLOJEIW++F0F2Y01SPjPzjZyMbCcKLxX6FjQ8CckHEnYvC0k6
idZVEk9k+WdHZv1d5fYDKn/J8/CcXTnToj2aaj3LMLldPrfIlgGeCZBteRSvAM+1
OV8zUHgQqtQ2re+Lk9KpeOM++LWe85xmm+biL2ONQm/CJ1EnniHcIBCdUdtdlecj
Hoec59cX7ciaL3z0rMO7Xrez5k7qX2ktSM/vzw83nK4ptQ1+8doaWv237xMX7hHH
SA==
-----END CERTIFICATE-----
