Certificate:
    Data:
        Version: 3 (0x2)
        Serial Number:
            be:34:3f:ef:82:09:89:83:cd:98:a1:4d:6d:7c:57:38
        Signature Algorithm: sha256WithRSAEncryption
        Issuer: CN=team35-net
        Validity
            Not Before: May 18 14:13:31 2022 GMT
            Not After : May  2 14:13:31 2025 GMT
        Subject: CN=team35-server
        Subject Public Key Info:
            Public Key Algorithm: rsaEncryption
                RSA Public-Key: (2048 bit)
                Modulus:
                    00:cf:d0:42:1d:0d:bd:2f:69:50:cb:c2:79:1c:e1:
                    c2:b0:43:d4:3e:68:8d:dc:31:97:0c:e5:61:44:36:
                    51:a6:7d:21:97:9c:bf:1f:87:cd:3a:f9:5d:be:39:
                    2d:d8:59:82:22:4f:5c:23:8c:61:f5:e4:e9:70:f1:
                    9f:1a:20:de:1c:91:cb:12:d3:76:b1:15:c8:25:0e:
                    71:18:5d:e2:c4:18:d0:29:98:69:c1:94:ba:8a:ff:
                    93:41:6d:d9:58:1c:0e:f5:4a:cb:14:d8:ce:95:46:
                    71:65:b3:2e:8a:46:a6:aa:ac:1c:8b:e0:3e:15:89:
                    d9:84:18:08:e1:28:f7:62:9a:76:e8:4d:39:92:3c:
                    fa:d9:99:fb:4b:5c:f6:29:38:df:38:15:69:c0:1c:
                    36:c1:c5:16:45:4a:f7:90:e1:30:cf:c7:16:86:30:
                    8b:80:56:4c:4a:57:5a:f4:e3:b5:b9:cb:96:c7:25:
                    d5:de:55:09:aa:cf:d9:ff:ce:f2:29:e4:4f:5e:90:
                    8a:36:c2:66:8e:27:8b:16:f5:91:6f:e0:28:64:54:
                    e2:49:dd:6e:42:a4:4b:64:e4:e1:9f:5b:55:11:96:
                    3a:6e:fa:fd:f7:17:c2:60:09:3c:2b:82:92:d4:ff:
                    c4:20:c6:ff:8e:90:52:fb:f4:eb:24:96:dc:f5:e0:
                    2e:fb
                Exponent: 65537 (0x10001)
        X509v3 extensions:
            X509v3 Basic Constraints: 
                CA:FALSE
            X509v3 Subject Key Identifier: 
                D9:A1:FB:8F:70:FF:AB:6B:A2:41:11:07:C6:72:A4:66:66:50:62:5E
            X509v3 Authority Key Identifier: 
                keyid:5E:5A:33:49:64:A0:F7:7B:2E:85:5D:7E:32:94:AA:E3:F5:B5:3A:51
                DirName:/CN=team35-net
                serial:34:6D:4A:33:35:FD:A2:24:A3:5F:60:E6:C6:90:50:4A:F6:8D:53:AE

            X509v3 Extended Key Usage: 
                TLS Web Server Authentication
            X509v3 Key Usage: 
                Digital Signature, Key Encipherment
            X509v3 Subject Alternative Name: 
                DNS:team35-server
    Signature Algorithm: sha256WithRSAEncryption
         05:36:58:ac:41:40:d4:41:1e:2e:cb:c4:2e:a4:db:90:7a:81:
         cc:33:a2:ff:fe:d3:e6:91:1f:a4:5f:9b:3d:57:9b:c5:6b:36:
         40:68:a2:12:40:c8:cd:99:e2:df:0f:09:2c:27:c0:9f:37:d0:
         7c:00:af:e4:33:0d:95:03:86:18:45:8b:53:53:8b:35:c5:bc:
         be:58:2a:28:f5:ce:b2:de:ef:44:13:7f:13:fa:7a:3d:3d:e0:
         18:d6:91:7f:3d:76:5b:4f:4d:7e:87:62:3a:a0:a0:29:f7:cc:
         53:5a:63:71:ad:07:2c:cd:e4:37:8c:a0:6f:cc:f6:f9:4d:75:
         bc:23:fd:19:c2:03:12:76:a1:3c:1c:f5:94:43:14:20:f8:67:
         f8:9d:bc:86:48:26:7b:7b:fd:ab:5d:08:2a:e6:52:d6:bc:83:
         fa:26:93:af:31:a1:ca:12:0e:f3:ca:70:8c:e4:9f:8d:c5:a7:
         35:08:ca:0c:74:02:63:e8:58:25:f4:a6:e6:ed:6c:7e:db:87:
         7c:46:76:45:e6:cf:b9:b0:00:0d:1b:a3:e4:1a:a0:e1:d5:ee:
         5a:f4:66:5d:9d:07:f3:08:1a:4c:9d:70:b5:6b:5c:e6:be:61:
         c2:11:79:0e:6b:cd:9d:d0:82:05:06:ae:4f:29:a2:b9:52:4e:
         35:9a:f6:75
-----BEGIN CERTIFICATE-----
MIIDdDCCAlygAwIBAgIRAL40P++CCYmDzZihTW18VzgwDQYJKoZIhvcNAQELBQAw
FTETMBEGA1UEAwwKdGVhbTM1LW5ldDAeFw0yMjA1MTgxNDEzMzFaFw0yNTA1MDIx
NDEzMzFaMBgxFjAUBgNVBAMMDXRlYW0zNS1zZXJ2ZXIwggEiMA0GCSqGSIb3DQEB
AQUAA4IBDwAwggEKAoIBAQDP0EIdDb0vaVDLwnkc4cKwQ9Q+aI3cMZcM5WFENlGm
fSGXnL8fh806+V2+OS3YWYIiT1wjjGH15Olw8Z8aIN4ckcsS03axFcglDnEYXeLE
GNApmGnBlLqK/5NBbdlYHA71SssU2M6VRnFlsy6KRqaqrByL4D4VidmEGAjhKPdi
mnboTTmSPPrZmftLXPYpON84FWnAHDbBxRZFSveQ4TDPxxaGMIuAVkxKV1r047W5
y5bHJdXeVQmqz9n/zvIp5E9ekIo2wmaOJ4sW9ZFv4ChkVOJJ3W5CpEtk5OGfW1UR
ljpu+v33F8JgCTwrgpLU/8Qgxv+OkFL79Oskltz14C77AgMBAAGjgbswgbgwCQYD
VR0TBAIwADAdBgNVHQ4EFgQU2aH7j3D/q2uiQREHxnKkZmZQYl4wUAYDVR0jBEkw
R4AUXlozSWSg93suhV1+MpSq4/W1OlGhGaQXMBUxEzARBgNVBAMMCnRlYW0zNS1u
ZXSCFDRtSjM1/aIko19g5saQUEr2jVOuMBMGA1UdJQQMMAoGCCsGAQUFBwMBMAsG
A1UdDwQEAwIFoDAYBgNVHREEETAPgg10ZWFtMzUtc2VydmVyMA0GCSqGSIb3DQEB
CwUAA4IBAQAFNlisQUDUQR4uy8QupNuQeoHMM6L//tPmkR+kX5s9V5vFazZAaKIS
QMjNmeLfDwksJ8CfN9B8AK/kMw2VA4YYRYtTU4s1xby+WCoo9c6y3u9EE38T+no9
PeAY1pF/PXZbT01+h2I6oKAp98xTWmNxrQcszeQ3jKBvzPb5TXW8I/0ZwgMSdqE8
HPWUQxQg+Gf4nbyGSCZ7e/2rXQgq5lLWvIP6JpOvMaHKEg7zynCM5J+Nxac1CMoM
dAJj6Fgl9Kbm7Wx+24d8RnZF5s+5sAANG6PkGqDh1e5a9GZdnQfzCBpMnXC1a1zm
vmHCEXkOa82d0IIFBq5PKaK5Uk41mvZ1
-----END CERTIFICATE-----
