Certificate:
    Data:
        Version: 3 (0x2)
        Serial Number:
            90:c4:99:1b:09:c2:7a:92:d2:4b:8e:6c:0d:f4:77:ea
        Signature Algorithm: sha256WithRSAEncryption
        Issuer: CN=team307-net
        Validity
            Not Before: May 18 20:11:01 2022 GMT
            Not After : May  2 20:11:01 2025 GMT
        Subject: CN=team307-server
        Subject Public Key Info:
            Public Key Algorithm: rsaEncryption
                RSA Public-Key: (2048 bit)
                Modulus:
                    00:d9:e2:d9:56:a4:26:ca:2b:47:9f:f3:3b:66:10:
                    c8:94:03:e7:62:42:2e:74:26:c7:94:fb:47:2b:a3:
                    db:b3:13:da:1f:ce:63:a8:d5:08:9f:ea:76:bc:a8:
                    8f:85:2d:59:60:ce:0f:e8:ad:00:5d:b6:35:d7:72:
                    69:e8:a4:42:18:1c:7c:11:01:33:1a:c5:6a:58:14:
                    42:e9:39:17:ac:4c:92:84:e2:ba:71:3f:be:82:9a:
                    a2:d9:ea:09:2e:d6:32:c3:3c:a8:aa:8a:f0:31:89:
                    5a:67:b5:38:76:fc:2e:99:22:58:7c:31:af:6a:15:
                    5a:9a:53:ed:24:40:7a:cc:5f:c1:5e:19:5e:9b:32:
                    e0:98:37:d8:f8:ef:6d:ea:7f:20:35:49:45:19:6c:
                    db:7a:70:fb:2f:8a:7b:a3:7b:a9:cd:50:34:7e:c0:
                    dc:a4:df:20:62:14:ed:96:83:22:85:b2:c6:b2:2b:
                    a7:06:3b:2c:39:5a:f3:37:e5:db:fd:4d:f4:87:f4:
                    a4:4b:36:ad:69:ca:0a:0d:c5:42:ce:51:1f:99:46:
                    7f:a7:a9:5a:fb:4e:5a:fb:18:84:24:a9:a8:2c:a3:
                    8a:87:a0:d7:7e:4d:07:62:8a:42:e1:8b:9d:9a:17:
                    0f:87:7f:93:a5:e3:fd:8c:63:23:2f:d6:53:11:10:
                    05:01
                Exponent: 65537 (0x10001)
        X509v3 extensions:
            X509v3 Basic Constraints: 
                CA:FALSE
            X509v3 Subject Key Identifier: 
                9B:B9:89:CD:B2:BA:5A:3F:E1:9E:D1:6A:F2:58:E3:E7:83:6B:70:82
            X509v3 Authority Key Identifier: 
                keyid:E5:C4:06:E9:31:F9:FB:06:42:9C:35:50:20:3F:4A:2A:93:A6:26:D9
                DirName:/CN=team307-net
                serial:56:EC:B8:3C:66:8F:CC:B7:AA:16:3C:C1:F2:7B:DA:5C:10:30:EE:E0

            X509v3 Extended Key Usage: 
                TLS Web Server Authentication
            X509v3 Key Usage: 
                Digital Signature, Key Encipherment
            X509v3 Subject Alternative Name: 
                DNS:team307-server
    Signature Algorithm: sha256WithRSAEncryption
         47:3d:4c:6e:00:b4:73:e7:4a:45:ac:2a:46:a3:ee:4a:df:a5:
         be:c2:ca:bd:9e:f2:ef:82:48:a3:c5:e3:79:ad:a4:f5:dd:7d:
         bb:73:e3:fe:8c:f6:ed:4a:75:95:9f:de:88:d3:08:f2:b1:d4:
         44:65:a2:29:2e:b2:78:76:0a:ac:92:28:c4:dd:a1:56:d7:ea:
         12:0b:8b:b1:f8:bc:c9:52:85:51:24:d9:67:c8:39:ed:d6:8f:
         b0:cb:1e:16:32:df:a4:dc:c3:dc:7f:50:04:02:98:fa:29:8e:
         f6:4d:e1:eb:7f:19:bb:bb:c1:be:a8:02:30:22:fd:e1:61:7a:
         92:cb:bb:8e:c9:87:01:aa:55:0e:46:91:03:18:b7:c7:49:78:
         5c:b7:11:5d:06:12:d8:99:b3:a5:d2:4f:56:4f:cd:d5:b0:04:
         3c:e1:ba:e3:97:9a:26:f3:ca:a3:cb:ac:48:36:e4:e1:d9:45:
         f9:c5:d0:bc:21:1e:b1:83:9e:fc:66:f7:b0:38:6a:15:ba:e7:
         d9:ea:a7:4d:ed:d0:61:dd:0c:dd:af:1c:e6:a2:86:07:4c:97:
         cf:d1:e7:64:78:27:1e:b4:1c:ff:23:81:c7:94:12:84:4d:c1:
         be:b3:08:55:ce:2d:60:cd:7c:86:a0:9f:a1:46:0d:d3:fe:9f:
         54:7e:9c:c9
-----BEGIN CERTIFICATE-----
MIIDeDCCAmCgAwIBAgIRAJDEmRsJwnqS0kuObA30d+owDQYJKoZIhvcNAQELBQAw
FjEUMBIGA1UEAwwLdGVhbTMwNy1uZXQwHhcNMjIwNTE4MjAxMTAxWhcNMjUwNTAy
MjAxMTAxWjAZMRcwFQYDVQQDDA50ZWFtMzA3LXNlcnZlcjCCASIwDQYJKoZIhvcN
AQEBBQADggEPADCCAQoCggEBANni2VakJsorR5/zO2YQyJQD52JCLnQmx5T7Ryuj
27MT2h/OY6jVCJ/qdryoj4UtWWDOD+itAF22NddyaeikQhgcfBEBMxrFalgUQuk5
F6xMkoTiunE/voKaotnqCS7WMsM8qKqK8DGJWme1OHb8LpkiWHwxr2oVWppT7SRA
esxfwV4ZXpsy4Jg32Pjvbep/IDVJRRls23pw+y+Ke6N7qc1QNH7A3KTfIGIU7ZaD
IoWyxrIrpwY7LDla8zfl2/1N9If0pEs2rWnKCg3FQs5RH5lGf6epWvtOWvsYhCSp
qCyjioeg135NB2KKQuGLnZoXD4d/k6Xj/YxjIy/WUxEQBQECAwEAAaOBvTCBujAJ
BgNVHRMEAjAAMB0GA1UdDgQWBBSbuYnNsrpaP+Ge0WryWOPng2twgjBRBgNVHSME
SjBIgBTlxAbpMfn7BkKcNVAgP0oqk6Ym2aEapBgwFjEUMBIGA1UEAwwLdGVhbTMw
Ny1uZXSCFFbsuDxmj8y3qhY8wfJ72lwQMO7gMBMGA1UdJQQMMAoGCCsGAQUFBwMB
MAsGA1UdDwQEAwIFoDAZBgNVHREEEjAQgg50ZWFtMzA3LXNlcnZlcjANBgkqhkiG
9w0BAQsFAAOCAQEARz1MbgC0c+dKRawqRqPuSt+lvsLKvZ7y74JIo8Xjea2k9d19
u3Pj/oz27Up1lZ/eiNMI8rHURGWiKS6yeHYKrJIoxN2hVtfqEguLsfi8yVKFUSTZ
Z8g57daPsMseFjLfpNzD3H9QBAKY+imO9k3h638Zu7vBvqgCMCL94WF6ksu7jsmH
AapVDkaRAxi3x0l4XLcRXQYS2JmzpdJPVk/N1bAEPOG645eaJvPKo8usSDbk4dlF
+cXQvCEesYOe/Gb3sDhqFbrn2eqnTe3QYd0M3a8c5qKGB0yXz9HnZHgnHrQc/yOB
x5QShE3BvrMIVc4tYM18hqCfoUYN0/6fVH6cyQ==
-----END CERTIFICATE-----
