Certificate:
    Data:
        Version: 3 (0x2)
        Serial Number:
            78:5a:9e:79:38:9d:9f:10:9a:dd:24:41:49:2f:fa:c0
        Signature Algorithm: sha256WithRSAEncryption
        Issuer: CN=team39-net
        Validity
            Not Before: May 18 14:12:58 2022 GMT
            Not After : May  2 14:12:58 2025 GMT
        Subject: CN=team39-client
        Subject Public Key Info:
            Public Key Algorithm: rsaEncryption
                RSA Public-Key: (2048 bit)
                Modulus:
                    00:e6:0e:62:5b:d4:33:91:9f:b0:da:1e:0a:5f:be:
                    68:04:73:fc:1b:99:7c:51:b4:b8:14:55:d0:b6:00:
                    fe:28:aa:02:58:fa:8a:53:ad:fb:ce:49:83:10:a3:
                    ae:f6:de:a8:17:1a:47:6d:0d:92:50:f1:25:5f:a9:
                    5f:7e:de:92:29:23:fe:d1:fe:26:3b:50:da:cc:67:
                    0a:cc:ef:26:b3:83:2e:b0:a3:e4:dc:96:1a:5d:fb:
                    21:d4:d3:ff:b2:e9:ad:4b:f9:aa:65:0d:31:aa:c0:
                    27:58:6b:e8:38:c7:eb:ab:5c:b2:89:42:96:4b:f1:
                    10:96:b5:cd:74:70:99:12:52:fb:4e:90:9b:4c:91:
                    5f:6e:9c:4b:4e:9d:bb:b2:fe:c5:16:aa:e6:f3:5c:
                    80:12:e1:38:83:22:d2:0a:6d:82:5b:1b:9d:a4:c9:
                    d0:78:81:b5:6d:d3:51:05:67:41:de:54:1c:5f:58:
                    01:a6:ad:26:cd:2d:2c:12:34:8a:d1:67:bb:4b:e2:
                    ca:0d:20:6f:1f:78:2f:b9:45:f6:17:7f:06:ed:b9:
                    d0:ee:80:8d:3b:f0:63:8c:ec:de:f1:18:35:60:71:
                    41:bf:70:56:7d:9f:2d:73:70:26:76:6f:df:a4:a1:
                    71:95:85:aa:78:87:d6:dc:10:62:50:fa:85:4f:68:
                    19:1b
                Exponent: 65537 (0x10001)
        X509v3 extensions:
            X509v3 Basic Constraints: 
                CA:FALSE
            X509v3 Subject Key Identifier: 
                39:94:B3:55:C6:3D:50:C9:91:44:61:B7:25:46:51:24:8D:F4:FC:B2
            X509v3 Authority Key Identifier: 
                keyid:6F:C1:3A:B0:94:32:84:80:13:E7:7D:8E:E6:D7:B2:6B:AF:B0:C9:A1
                DirName:/CN=team39-net
                serial:78:D0:D2:84:B9:4A:9F:51:9C:0C:5F:95:9C:26:0F:EF:B2:25:94:98

            X509v3 Extended Key Usage: 
                TLS Web Client Authentication
            X509v3 Key Usage: 
                Digital Signature
    Signature Algorithm: sha256WithRSAEncryption
         01:00:8f:ae:b9:da:ff:f9:a6:a8:3e:20:ac:4e:b8:c5:79:85:
         8c:77:9d:c8:a9:38:80:80:1b:9c:f1:8e:a1:7f:5c:c2:52:b2:
         fb:4a:ae:89:d7:da:39:9f:4d:28:54:41:2a:5c:dd:93:25:c6:
         4f:f6:42:e7:8d:41:41:76:2e:71:84:04:80:0c:c6:6b:40:0c:
         b8:d6:de:0a:8e:71:6a:ac:51:42:c5:aa:6a:b8:67:e0:ff:b0:
         fc:78:cf:e6:25:eb:9f:f4:e8:7a:2b:ec:81:6d:18:3c:6d:2b:
         0c:83:8f:a3:24:e5:9c:bd:d5:dd:56:23:a1:74:e3:63:83:05:
         25:51:4c:a9:e7:79:42:78:df:8f:49:0f:8a:f9:9a:d4:ca:db:
         01:08:b9:4d:6c:16:9f:07:59:e7:b1:77:94:71:4f:77:46:a3:
         96:31:cc:6f:2c:85:fb:92:0b:02:47:17:07:8c:f8:c5:1b:69:
         ba:32:a0:36:85:bc:ad:01:29:38:5b:05:44:a9:8a:12:44:7c:
         b9:a3:c7:a4:6d:9e:91:df:b1:64:4e:1c:69:1f:2a:2d:da:01:
         bf:47:b3:62:dc:9e:11:c5:b4:41:a8:a0:a3:06:91:ca:6e:16:
         c7:86:75:17:f0:2e:bf:87:3a:a9:a4:6f:74:4b:82:d8:9b:3d:
         ea:0b:59:d8
-----BEGIN CERTIFICATE-----
MIIDWTCCAkGgAwIBAgIQeFqeeTidnxCa3SRBSS/6wDANBgkqhkiG9w0BAQsFADAV
MRMwEQYDVQQDDAp0ZWFtMzktbmV0MB4XDTIyMDUxODE0MTI1OFoXDTI1MDUwMjE0
MTI1OFowGDEWMBQGA1UEAwwNdGVhbTM5LWNsaWVudDCCASIwDQYJKoZIhvcNAQEB
BQADggEPADCCAQoCggEBAOYOYlvUM5GfsNoeCl++aARz/BuZfFG0uBRV0LYA/iiq
Alj6ilOt+85JgxCjrvbeqBcaR20NklDxJV+pX37ekikj/tH+JjtQ2sxnCszvJrOD
LrCj5NyWGl37IdTT/7LprUv5qmUNMarAJ1hr6DjH66tcsolClkvxEJa1zXRwmRJS
+06Qm0yRX26cS06du7L+xRaq5vNcgBLhOIMi0gptglsbnaTJ0HiBtW3TUQVnQd5U
HF9YAaatJs0tLBI0itFnu0viyg0gbx94L7lF9hd/Bu250O6AjTvwY4zs3vEYNWBx
Qb9wVn2fLXNwJnZv36ShcZWFqniH1twQYlD6hU9oGRsCAwEAAaOBoTCBnjAJBgNV
HRMEAjAAMB0GA1UdDgQWBBQ5lLNVxj1QyZFEYbclRlEkjfT8sjBQBgNVHSMESTBH
gBRvwTqwlDKEgBPnfY7m17Jrr7DJoaEZpBcwFTETMBEGA1UEAwwKdGVhbTM5LW5l
dIIUeNDShLlKn1GcDF+VnCYP77IllJgwEwYDVR0lBAwwCgYIKwYBBQUHAwIwCwYD
VR0PBAQDAgeAMA0GCSqGSIb3DQEBCwUAA4IBAQABAI+uudr/+aaoPiCsTrjFeYWM
d53IqTiAgBuc8Y6hf1zCUrL7Sq6J19o5n00oVEEqXN2TJcZP9kLnjUFBdi5xhASA
DMZrQAy41t4KjnFqrFFCxapquGfg/7D8eM/mJeuf9Oh6K+yBbRg8bSsMg4+jJOWc
vdXdViOhdONjgwUlUUyp53lCeN+PSQ+K+ZrUytsBCLlNbBafB1nnsXeUcU93RqOW
McxvLIX7kgsCRxcHjPjFG2m6MqA2hbytASk4WwVEqYoSRHy5o8ekbZ6R37FkThxp
Hyot2gG/R7Ni3J4RxbRBqKCjBpHKbhbHhnUX8C6/hzqppG90S4LYmz3qC1nY
-----END CERTIFICATE-----
