Certificate:
    Data:
        Version: 3 (0x2)
        Serial Number:
            4c:4a:8f:ca:97:f7:d3:d2:b3:09:17:e4:35:51:96:de
        Signature Algorithm: sha256WithRSAEncryption
        Issuer: CN=team731-net
        Validity
            Not Before: May 19 00:03:58 2022 GMT
            Not After : May  3 00:03:58 2025 GMT
        Subject: CN=team731-server
        Subject Public Key Info:
            Public Key Algorithm: rsaEncryption
                RSA Public-Key: (2048 bit)
                Modulus:
                    00:bc:d2:d8:5c:91:d7:7d:cc:6a:84:be:54:74:f9:
                    22:a0:2f:22:25:8e:9d:df:b1:1c:3a:6a:10:ae:48:
                    c1:84:87:42:51:b5:20:de:2d:e0:75:71:0c:23:ce:
                    e7:ae:29:02:c0:fd:04:56:c2:c8:a6:56:8d:e0:0d:
                    33:eb:9d:f7:b1:2d:8e:2b:3c:f8:dc:30:d4:ff:7a:
                    9f:f2:48:97:bd:57:d6:32:9e:4b:02:92:80:3f:37:
                    75:88:ba:39:de:76:9a:07:58:1a:bd:e4:36:21:e9:
                    39:8c:cb:cd:44:4a:04:2f:f9:bb:be:c6:8b:06:a2:
                    27:15:b9:4c:a5:fa:34:62:d7:4b:8b:30:17:74:4b:
                    80:b7:da:86:cc:9c:62:8a:83:4c:cc:3a:54:1d:6e:
                    0e:3a:a6:a7:d6:34:62:7b:9b:7b:30:47:45:d6:e0:
                    0f:18:1b:90:86:18:60:ca:54:26:ef:b2:2a:e1:90:
                    57:fb:df:32:2e:f9:74:89:6a:79:a7:9c:ad:12:2d:
                    92:31:a8:6e:52:08:f5:95:e8:e8:4f:4e:ad:37:ee:
                    5d:13:39:da:b6:22:81:69:2d:10:c7:31:2d:1c:f4:
                    c5:44:d6:f6:99:1f:ac:6e:91:3c:61:5d:22:f1:4c:
                    7a:97:6d:73:f0:a4:1f:be:fa:0a:74:96:ba:b8:12:
                    76:17
                Exponent: 65537 (0x10001)
        X509v3 extensions:
            X509v3 Basic Constraints: 
                CA:FALSE
            X509v3 Subject Key Identifier: 
                E6:37:87:A3:19:D4:4C:CB:1A:6C:CD:37:D7:E5:F1:BB:57:2B:6F:EF
            X509v3 Authority Key Identifier: 
                keyid:73:A2:45:F3:98:78:B6:82:8D:2A:68:C8:0C:8C:A1:B1:B1:91:41:4F
                DirName:/CN=team731-net
                serial:1D:00:D2:71:AE:FD:E8:CD:D1:B3:97:25:46:D4:C5:0F:7A:6D:B6:77

            X509v3 Extended Key Usage: 
                TLS Web Server Authentication
            X509v3 Key Usage: 
                Digital Signature, Key Encipherment
            X509v3 Subject Alternative Name: 
                DNS:team731-server
    Signature Algorithm: sha256WithRSAEncryption
         35:11:fd:84:53:cc:43:65:94:8e:81:c2:1e:cf:59:58:e2:49:
         60:48:01:ab:f7:7e:c5:54:89:8d:06:1d:98:b9:0b:ea:b1:54:
         9e:e4:55:a2:89:f9:1e:12:12:5d:d3:01:95:50:b4:cb:7d:63:
         f7:66:2d:c6:06:c7:41:ac:4c:0c:68:c1:87:2d:27:2d:30:e2:
         89:dd:be:ef:0d:28:df:12:57:c9:a8:2f:ce:4e:a3:a2:19:e0:
         e6:8e:a6:ae:5a:56:0f:3d:27:de:7f:34:9f:b2:82:e6:db:f1:
         87:78:46:72:fc:9b:9d:ab:72:70:fb:b3:ec:e9:ca:65:0a:ea:
         3f:2c:f9:1f:cd:5f:99:72:f4:40:45:3d:f7:83:88:71:d3:c8:
         ec:00:a1:54:5b:e3:c2:a4:12:49:5c:55:47:f6:97:22:0e:d8:
         23:da:e7:f6:6b:56:72:8e:6b:90:92:87:c5:8e:33:e8:55:7a:
         fe:28:fb:27:d7:f7:3b:a8:ae:ae:48:8e:05:6d:86:7a:fc:5e:
         a4:1c:bb:cb:e8:66:03:bd:a6:28:20:9a:0d:8e:ed:59:70:75:
         ec:f7:f6:c4:d8:b5:f9:3f:e5:fc:02:be:07:0e:ae:8f:ec:cf:
         4d:a8:b2:94:7a:bb:92:50:2d:ae:26:4a:71:cb:a2:ef:3e:51:
         a0:67:ba:b0
-----BEGIN CERTIFICATE-----
MIIDdzCCAl+gAwIBAgIQTEqPypf309KzCRfkNVGW3jANBgkqhkiG9w0BAQsFADAW
MRQwEgYDVQQDDAt0ZWFtNzMxLW5ldDAeFw0yMjA1MTkwMDAzNThaFw0yNTA1MDMw
MDAzNThaMBkxFzAVBgNVBAMMDnRlYW03MzEtc2VydmVyMIIBIjANBgkqhkiG9w0B
AQEFAAOCAQ8AMIIBCgKCAQEAvNLYXJHXfcxqhL5UdPkioC8iJY6d37EcOmoQrkjB
hIdCUbUg3i3gdXEMI87nrikCwP0EVsLIplaN4A0z6533sS2OKzz43DDU/3qf8kiX
vVfWMp5LApKAPzd1iLo53naaB1gaveQ2Iek5jMvNREoEL/m7vsaLBqInFblMpfo0
YtdLizAXdEuAt9qGzJxiioNMzDpUHW4OOqan1jRie5t7MEdF1uAPGBuQhhhgylQm
77Iq4ZBX+98yLvl0iWp5p5ytEi2SMahuUgj1lejoT06tN+5dEznatiKBaS0QxzEt
HPTFRNb2mR+sbpE8YV0i8Ux6l21z8KQfvvoKdJa6uBJ2FwIDAQABo4G9MIG6MAkG
A1UdEwQCMAAwHQYDVR0OBBYEFOY3h6MZ1EzLGmzNN9fl8btXK2/vMFEGA1UdIwRK
MEiAFHOiRfOYeLaCjSpoyAyMobGxkUFPoRqkGDAWMRQwEgYDVQQDDAt0ZWFtNzMx
LW5ldIIUHQDSca796M3Rs5clRtTFD3pttncwEwYDVR0lBAwwCgYIKwYBBQUHAwEw
CwYDVR0PBAQDAgWgMBkGA1UdEQQSMBCCDnRlYW03MzEtc2VydmVyMA0GCSqGSIb3
DQEBCwUAA4IBAQA1Ef2EU8xDZZSOgcIez1lY4klgSAGr937FVImNBh2YuQvqsVSe
5FWiifkeEhJd0wGVULTLfWP3Zi3GBsdBrEwMaMGHLSctMOKJ3b7vDSjfElfJqC/O
TqOiGeDmjqauWlYPPSfefzSfsoLm2/GHeEZy/Judq3Jw+7Ps6cplCuo/LPkfzV+Z
cvRART33g4hx08jsAKFUW+PCpBJJXFVH9pciDtgj2uf2a1ZyjmuQkofFjjPoVXr+
KPsn1/c7qK6uSI4FbYZ6/F6kHLvL6GYDvaYoIJoNju1ZcHXs9/bE2LX5P+X8Ar4H
Dq6P7M9NqLKUeruSUC2uJkpxy6LvPlGgZ7qw
-----END CERTIFICATE-----
