Certificate:
    Data:
        Version: 3 (0x2)
        Serial Number:
            34:1d:0e:bc:9c:e8:1e:11:d4:f9:a8:2e:eb:56:96:26
        Signature Algorithm: sha256WithRSAEncryption
        Issuer: CN=team28-net
        Validity
            Not Before: May 18 14:11:43 2022 GMT
            Not After : May  2 14:11:43 2025 GMT
        Subject: CN=team28-server
        Subject Public Key Info:
            Public Key Algorithm: rsaEncryption
                RSA Public-Key: (2048 bit)
                Modulus:
                    00:e6:e2:39:24:5f:54:64:79:1d:62:14:4a:d2:04:
                    35:95:60:87:21:95:f0:f9:29:30:d3:7b:ae:9c:10:
                    4d:16:36:f3:97:75:a9:e8:9c:c7:91:24:63:af:04:
                    cd:b9:e6:53:4c:dd:d7:1e:2d:bb:ff:11:7b:0a:22:
                    b1:ac:37:31:4e:38:57:69:f6:d9:ce:44:7f:2a:b9:
                    4c:12:24:39:a8:94:e1:71:f8:7c:39:53:c1:33:3f:
                    8a:82:14:2c:15:a2:bd:72:04:24:de:d0:b3:e2:e6:
                    fd:93:4c:98:a1:08:b5:c7:bb:98:ad:b5:1a:ec:7d:
                    46:55:0c:72:6e:b4:48:6b:0e:a1:ec:32:9e:02:94:
                    b9:51:e7:c3:36:73:65:aa:da:de:51:bc:57:9e:55:
                    4a:7d:8c:ce:00:0e:e8:b5:28:fd:13:c1:6c:26:60:
                    5a:a7:95:36:b7:b1:ba:c8:80:ec:03:37:2c:d4:c1:
                    47:26:14:52:75:d2:4c:02:56:2d:33:a3:dd:6d:03:
                    c9:37:61:eb:5e:ab:67:81:83:9f:53:fd:b4:5b:db:
                    93:f5:8e:8b:70:7e:c3:f8:84:55:31:ca:e4:53:c1:
                    58:68:77:d5:d5:05:2b:12:09:06:98:98:ca:93:94:
                    84:77:45:32:1c:c8:77:c1:e2:c2:78:9c:0c:3f:56:
                    47:f5
                Exponent: 65537 (0x10001)
        X509v3 extensions:
            X509v3 Basic Constraints: 
                CA:FALSE
            X509v3 Subject Key Identifier: 
                30:82:29:83:27:4D:F3:64:A0:D4:A1:D6:2D:09:C0:31:95:07:52:88
            X509v3 Authority Key Identifier: 
                keyid:4C:0B:31:A5:46:71:62:06:3D:F6:49:E8:C6:28:45:89:63:D9:86:D8
                DirName:/CN=team28-net
                serial:38:E6:80:82:C4:77:D1:65:4B:08:A1:46:90:87:D7:CF:F3:8C:08:CC

            X509v3 Extended Key Usage: 
                TLS Web Server Authentication
            X509v3 Key Usage: 
                Digital Signature, Key Encipherment
            X509v3 Subject Alternative Name: 
                DNS:team28-server
    Signature Algorithm: sha256WithRSAEncryption
         68:7e:54:40:20:54:da:4a:43:d0:dd:87:6f:b5:cd:2e:39:e3:
         5e:e6:c3:7f:02:d1:e2:10:f5:ef:c1:51:a4:62:58:1b:1c:57:
         d7:d5:d9:e5:21:0f:89:7f:8b:cf:a2:3b:03:6a:5a:3b:d2:2c:
         4d:e2:14:90:4c:ec:7c:aa:5d:c5:bb:31:e2:cf:19:13:a5:c9:
         fc:4b:d2:c4:ce:54:b6:36:b3:ae:4c:c2:59:ad:39:3d:17:20:
         b6:78:89:4e:cb:af:9a:cf:98:2f:ff:eb:5f:62:18:ee:d3:e0:
         48:53:a7:92:26:6e:e6:cd:d1:bd:37:1d:d3:55:3a:eb:b2:67:
         ad:7a:89:7c:04:4f:ca:82:79:75:20:99:d3:90:48:31:c2:f8:
         91:1a:96:3d:e7:86:5f:f9:53:e2:7f:73:33:ec:f3:fc:b4:c2:
         03:d3:38:44:bb:0f:fb:94:2b:e8:09:c0:5b:27:de:22:eb:55:
         c7:06:35:35:67:97:8a:3f:34:00:eb:2c:98:dc:40:be:68:d7:
         42:9a:b4:ba:f2:60:61:0f:10:52:bc:01:b0:91:1e:a7:c8:65:
         c5:25:01:66:36:7e:c8:67:9f:d2:d2:e2:55:ca:12:f2:ba:a2:
         3c:19:f3:3a:ef:2e:6f:c1:18:6e:ac:af:a2:2e:6a:87:5a:3e:
         e4:71:b9:45
-----BEGIN CERTIFICATE-----
MIIDczCCAlugAwIBAgIQNB0OvJzoHhHU+agu61aWJjANBgkqhkiG9w0BAQsFADAV
MRMwEQYDVQQDDAp0ZWFtMjgtbmV0MB4XDTIyMDUxODE0MTE0M1oXDTI1MDUwMjE0
MTE0M1owGDEWMBQGA1UEAwwNdGVhbTI4LXNlcnZlcjCCASIwDQYJKoZIhvcNAQEB
BQADggEPADCCAQoCggEBAObiOSRfVGR5HWIUStIENZVghyGV8PkpMNN7rpwQTRY2
85d1qeicx5EkY68EzbnmU0zd1x4tu/8Rewoisaw3MU44V2n22c5Efyq5TBIkOaiU
4XH4fDlTwTM/ioIULBWivXIEJN7Qs+Lm/ZNMmKEItce7mK21Gux9RlUMcm60SGsO
oewyngKUuVHnwzZzZara3lG8V55VSn2MzgAO6LUo/RPBbCZgWqeVNrexusiA7AM3
LNTBRyYUUnXSTAJWLTOj3W0DyTdh616rZ4GDn1P9tFvbk/WOi3B+w/iEVTHK5FPB
WGh31dUFKxIJBpiYypOUhHdFMhzId8HiwnicDD9WR/UCAwEAAaOBuzCBuDAJBgNV
HRMEAjAAMB0GA1UdDgQWBBQwgimDJ03zZKDUodYtCcAxlQdSiDBQBgNVHSMESTBH
gBRMCzGlRnFiBj32SejGKEWJY9mG2KEZpBcwFTETMBEGA1UEAwwKdGVhbTI4LW5l
dIIUOOaAgsR30WVLCKFGkIfXz/OMCMwwEwYDVR0lBAwwCgYIKwYBBQUHAwEwCwYD
VR0PBAQDAgWgMBgGA1UdEQQRMA+CDXRlYW0yOC1zZXJ2ZXIwDQYJKoZIhvcNAQEL
BQADggEBAGh+VEAgVNpKQ9Ddh2+1zS45417mw38C0eIQ9e/BUaRiWBscV9fV2eUh
D4l/i8+iOwNqWjvSLE3iFJBM7HyqXcW7MeLPGROlyfxL0sTOVLY2s65MwlmtOT0X
ILZ4iU7Lr5rPmC//619iGO7T4EhTp5ImbubN0b03HdNVOuuyZ616iXwET8qCeXUg
mdOQSDHC+JEalj3nhl/5U+J/czPs8/y0wgPTOES7D/uUK+gJwFsn3iLrVccGNTVn
l4o/NADrLJjcQL5o10KatLryYGEPEFK8AbCRHqfIZcUlAWY2fshnn9LS4lXKEvK6
ojwZ8zrvLm/BGG6sr6IuaodaPuRxuUU=
-----END CERTIFICATE-----
