Certificate:
    Data:
        Version: 3 (0x2)
        Serial Number:
            34:64:5b:4e:7e:81:87:67:ef:ac:6f:a8:5f:9b:5f:ae
        Signature Algorithm: sha256WithRSAEncryption
        Issuer: CN=team464-net
        Validity
            Not Before: May 18 21:31:47 2022 GMT
            Not After : May  2 21:31:47 2025 GMT
        Subject: CN=team464-client
        Subject Public Key Info:
            Public Key Algorithm: rsaEncryption
                RSA Public-Key: (2048 bit)
                Modulus:
                    00:c2:70:f9:cc:e9:f6:1a:c9:0c:30:6c:79:1a:cb:
                    92:6c:e3:8a:8f:a9:c7:23:dc:5e:5d:33:9c:b9:9d:
                    21:98:0d:55:42:a9:eb:8e:74:06:0e:22:08:73:e7:
                    72:51:41:59:65:5d:40:8f:65:c7:06:76:7d:c7:fe:
                    f6:ab:09:da:2e:96:05:a7:c2:91:5f:fd:8b:a8:37:
                    ca:5e:fd:ae:22:ad:28:ed:94:be:60:89:d4:ed:02:
                    7d:20:ee:1c:0b:c0:86:b2:bc:ad:2b:80:14:f9:69:
                    3a:80:55:91:80:b8:19:bb:6c:f0:e2:f8:c3:40:8d:
                    69:8f:94:5d:89:6e:55:a5:66:68:a0:f8:79:bb:dd:
                    fd:7c:ce:5f:af:4f:9b:52:a7:14:b1:dd:2c:52:7a:
                    04:dd:41:86:53:13:31:ad:da:08:6a:89:5f:9b:c4:
                    6a:9a:f4:71:52:e5:bf:e9:6d:97:c5:5f:7a:bd:15:
                    8d:b6:77:bc:b4:13:ab:e8:3d:f0:45:57:2f:f5:6d:
                    48:3b:01:76:b1:5d:6e:d0:06:86:ac:a1:b6:d1:12:
                    18:c3:ed:64:8b:51:cf:fc:7e:04:ae:96:ab:da:d2:
                    d1:c1:88:ff:87:fb:f4:1d:95:e7:73:44:fe:bf:e1:
                    d6:05:3c:83:84:10:7e:31:78:29:51:c6:24:50:0f:
                    82:87
                Exponent: 65537 (0x10001)
        X509v3 extensions:
            X509v3 Basic Constraints: 
                CA:FALSE
            X509v3 Subject Key Identifier: 
                FE:5B:93:B0:9F:F8:0E:9D:85:47:85:D2:2C:0C:98:B5:2B:6B:08:DC
            X509v3 Authority Key Identifier: 
                keyid:35:19:47:72:5C:7F:0C:6F:F4:C6:8B:81:D7:05:98:96:44:D0:E0:7B
                DirName:/CN=team464-net
                serial:6D:43:95:42:25:86:ED:B7:99:EB:6B:78:51:70:7A:CA:60:E8:72:6A

            X509v3 Extended Key Usage: 
                TLS Web Client Authentication
            X509v3 Key Usage: 
                Digital Signature
    Signature Algorithm: sha256WithRSAEncryption
         5b:91:83:a5:d7:71:8d:1f:0b:91:fb:73:eb:6b:14:3c:14:a4:
         a4:0a:0c:06:d1:93:c0:72:99:26:cc:9d:a1:3c:a5:56:0d:0b:
         ab:94:cf:ce:a0:b2:67:da:0d:86:03:40:3b:7c:35:80:a6:79:
         8a:f8:86:44:e9:87:fb:86:a5:b2:88:66:e7:5b:58:41:b0:2b:
         33:cf:ca:8c:d5:26:8d:36:e1:16:e8:43:1f:5b:36:d5:44:e7:
         09:09:ae:53:61:d4:0a:23:a5:ec:88:ea:b5:d2:b3:a2:f6:b1:
         ae:58:a5:c4:fa:5f:bc:15:b8:39:9f:5e:5b:76:be:ea:95:40:
         70:be:2c:2f:c2:8e:ea:58:8d:c5:b6:83:ff:d5:e6:1b:39:0e:
         07:20:38:12:4e:c0:15:49:55:94:73:bb:97:c5:fa:be:1c:fd:
         1b:b3:05:9f:4d:23:d4:a8:8e:2c:fe:01:b8:9c:75:2a:63:18:
         81:3a:84:92:8f:5a:33:b0:81:be:89:eb:7b:53:6e:3a:ab:79:
         28:bc:2e:f9:b9:8b:38:67:b0:f5:33:24:8b:07:c7:9a:42:2e:
         43:64:bc:bf:49:fa:33:9c:a2:a2:be:18:b0:40:0a:3d:d6:14:
         34:fe:44:95:bf:75:41:9a:bc:4c:33:45:51:d3:2d:7b:8d:a6:
         3a:b6:72:c4
-----BEGIN CERTIFICATE-----
MIIDXDCCAkSgAwIBAgIQNGRbTn6Bh2fvrG+oX5tfrjANBgkqhkiG9w0BAQsFADAW
MRQwEgYDVQQDDAt0ZWFtNDY0LW5ldDAeFw0yMjA1MTgyMTMxNDdaFw0yNTA1MDIy
MTMxNDdaMBkxFzAVBgNVBAMMDnRlYW00NjQtY2xpZW50MIIBIjANBgkqhkiG9w0B
AQEFAAOCAQ8AMIIBCgKCAQEAwnD5zOn2GskMMGx5GsuSbOOKj6nHI9xeXTOcuZ0h
mA1VQqnrjnQGDiIIc+dyUUFZZV1Aj2XHBnZ9x/72qwnaLpYFp8KRX/2LqDfKXv2u
Iq0o7ZS+YInU7QJ9IO4cC8CGsrytK4AU+Wk6gFWRgLgZu2zw4vjDQI1pj5RdiW5V
pWZooPh5u939fM5fr0+bUqcUsd0sUnoE3UGGUxMxrdoIaolfm8RqmvRxUuW/6W2X
xV96vRWNtne8tBOr6D3wRVcv9W1IOwF2sV1u0AaGrKG20RIYw+1ki1HP/H4Erpar
2tLRwYj/h/v0HZXnc0T+v+HWBTyDhBB+MXgpUcYkUA+ChwIDAQABo4GiMIGfMAkG
A1UdEwQCMAAwHQYDVR0OBBYEFP5bk7Cf+A6dhUeF0iwMmLUrawjcMFEGA1UdIwRK
MEiAFDUZR3Jcfwxv9MaLgdcFmJZE0OB7oRqkGDAWMRQwEgYDVQQDDAt0ZWFtNDY0
LW5ldIIUbUOVQiWG7beZ62t4UXB6ymDocmowEwYDVR0lBAwwCgYIKwYBBQUHAwIw
CwYDVR0PBAQDAgeAMA0GCSqGSIb3DQEBCwUAA4IBAQBbkYOl13GNHwuR+3PraxQ8
FKSkCgwG0ZPAcpkmzJ2hPKVWDQurlM/OoLJn2g2GA0A7fDWApnmK+IZE6Yf7hqWy
iGbnW1hBsCszz8qM1SaNNuEW6EMfWzbVROcJCa5TYdQKI6XsiOq10rOi9rGuWKXE
+l+8Fbg5n15bdr7qlUBwviwvwo7qWI3FtoP/1eYbOQ4HIDgSTsAVSVWUc7uXxfq+
HP0bswWfTSPUqI4s/gG4nHUqYxiBOoSSj1ozsIG+iet7U246q3kovC75uYs4Z7D1
MySLB8eaQi5DZLy/SfoznKKivhiwQAo91hQ0/kSVv3VBmrxMM0VR0y17jaY6tnLE
-----END CERTIFICATE-----
