Certificate:
    Data:
        Version: 3 (0x2)
        Serial Number:
            9e:30:22:32:2f:f6:3e:ff:53:af:dc:54:a7:70:1f:18
        Signature Algorithm: sha256WithRSAEncryption
        Issuer: CN=team645-net
        Validity
            Not Before: May 18 23:17:24 2022 GMT
            Not After : May  2 23:17:24 2025 GMT
        Subject: CN=team645-client
        Subject Public Key Info:
            Public Key Algorithm: rsaEncryption
                RSA Public-Key: (2048 bit)
                Modulus:
                    00:a1:9c:d6:5d:7b:13:5c:02:42:4c:23:1c:0b:ae:
                    98:7a:32:74:42:4b:38:75:17:54:94:bf:43:40:75:
                    7c:45:b6:18:57:2b:4d:66:a2:b0:99:8b:19:c9:79:
                    bc:b7:70:76:2a:52:ee:02:45:fd:72:36:ad:6e:54:
                    db:ac:36:90:35:c6:5c:84:5e:a9:83:2f:a8:12:74:
                    f6:fe:30:8c:57:06:4f:ec:f3:42:fd:fb:16:fb:fb:
                    20:26:37:85:4a:cc:6d:68:23:47:20:d4:aa:e5:f8:
                    a7:8c:48:87:bd:18:9f:49:c4:72:e8:dd:eb:4a:90:
                    db:ca:92:84:27:ca:57:78:a6:3e:a9:00:41:3f:5a:
                    a2:3f:26:37:5c:66:bc:d4:1a:fc:a2:06:42:a5:e7:
                    f7:2b:ae:96:da:fe:b5:1a:3f:52:19:06:f7:b1:87:
                    76:34:f8:73:60:fb:a7:02:64:c5:cd:25:02:5d:53:
                    8b:0e:1d:f6:0b:24:c0:3a:1a:91:9b:b2:12:2f:da:
                    da:e8:68:71:f8:79:64:3b:db:f5:5c:ae:12:46:cb:
                    b1:14:c6:85:de:a7:94:16:f4:40:98:3a:cd:dd:5b:
                    92:56:a1:2a:f2:b1:82:96:da:17:22:d1:ed:27:3f:
                    8c:f9:44:77:4c:d2:28:8b:dc:60:a8:61:45:ab:4f:
                    49:13
                Exponent: 65537 (0x10001)
        X509v3 extensions:
            X509v3 Basic Constraints: 
                CA:FALSE
            X509v3 Subject Key Identifier: 
                7F:EE:0C:42:0F:6D:90:20:1F:E6:2B:DD:26:9F:1B:5E:7C:79:FE:69
            X509v3 Authority Key Identifier: 
                keyid:CD:71:B2:E4:45:F5:BD:0B:CC:14:DF:E2:2C:3E:AB:54:21:1F:F3:A7
                DirName:/CN=team645-net
                serial:4F:16:E4:2E:4A:7C:97:DD:02:37:52:51:B2:DF:03:DF:04:57:45:48

            X509v3 Extended Key Usage: 
                TLS Web Client Authentication
            X509v3 Key Usage: 
                Digital Signature
    Signature Algorithm: sha256WithRSAEncryption
         69:62:2a:7d:0e:6e:9e:f9:eb:74:aa:6c:11:a8:5d:fd:b2:72:
         c7:8c:2c:bf:7f:7b:21:13:df:dd:6d:f3:02:37:50:6d:a0:65:
         3f:c5:31:d2:45:2d:f7:0e:44:03:6c:01:76:bf:ef:36:81:35:
         26:e6:7e:cb:80:c1:c4:7b:39:a2:85:8e:b5:99:c4:df:87:22:
         29:74:99:81:60:19:f3:0b:a2:24:6a:1f:74:f5:c9:2d:d9:88:
         ce:91:ca:e9:b0:eb:6f:a6:7b:a9:bc:72:c2:88:ef:2a:ed:c6:
         34:a0:4a:dd:5a:2d:77:56:97:ce:3d:bc:65:47:fa:6d:e9:07:
         90:fc:3c:78:b2:e6:ab:6c:5d:f5:42:9e:62:20:78:f8:ca:51:
         fb:df:4e:73:36:ea:90:12:f9:92:33:10:64:f6:56:a9:49:25:
         9f:1d:35:13:a4:63:ee:3d:09:90:20:e0:a6:17:6f:5b:83:3a:
         dd:51:94:65:2e:13:1f:46:69:3a:ce:73:df:a8:89:dc:4b:6c:
         49:39:cc:78:c0:c6:a5:25:1e:72:cf:2e:02:df:a7:b4:c8:61:
         bb:46:ba:21:4d:49:8a:4d:72:ba:e1:9d:88:a2:0d:74:e8:3a:
         c2:9b:bb:2a:86:12:89:64:98:58:c4:bf:73:0e:3a:7c:59:08:
         6e:e4:64:5c
-----BEGIN CERTIFICATE-----
MIIDXTCCAkWgAwIBAgIRAJ4wIjIv9j7/U6/cVKdwHxgwDQYJKoZIhvcNAQELBQAw
FjEUMBIGA1UEAwwLdGVhbTY0NS1uZXQwHhcNMjIwNTE4MjMxNzI0WhcNMjUwNTAy
MjMxNzI0WjAZMRcwFQYDVQQDDA50ZWFtNjQ1LWNsaWVudDCCASIwDQYJKoZIhvcN
AQEBBQADggEPADCCAQoCggEBAKGc1l17E1wCQkwjHAuumHoydEJLOHUXVJS/Q0B1
fEW2GFcrTWaisJmLGcl5vLdwdipS7gJF/XI2rW5U26w2kDXGXIReqYMvqBJ09v4w
jFcGT+zzQv37Fvv7ICY3hUrMbWgjRyDUquX4p4xIh70Yn0nEcujd60qQ28qShCfK
V3imPqkAQT9aoj8mN1xmvNQa/KIGQqXn9yuultr+tRo/UhkG97GHdjT4c2D7pwJk
xc0lAl1Tiw4d9gskwDoakZuyEi/a2uhocfh5ZDvb9VyuEkbLsRTGhd6nlBb0QJg6
zd1bklahKvKxgpbaFyLR7Sc/jPlEd0zSKIvcYKhhRatPSRMCAwEAAaOBojCBnzAJ
BgNVHRMEAjAAMB0GA1UdDgQWBBR/7gxCD22QIB/mK90mnxtefHn+aTBRBgNVHSME
SjBIgBTNcbLkRfW9C8wU3+IsPqtUIR/zp6EapBgwFjEUMBIGA1UEAwwLdGVhbTY0
NS1uZXSCFE8W5C5KfJfdAjdSUbLfA98EV0VIMBMGA1UdJQQMMAoGCCsGAQUFBwMC
MAsGA1UdDwQEAwIHgDANBgkqhkiG9w0BAQsFAAOCAQEAaWIqfQ5unvnrdKpsEahd
/bJyx4wsv397IRPf3W3zAjdQbaBlP8Ux0kUt9w5EA2wBdr/vNoE1JuZ+y4DBxHs5
ooWOtZnE34ciKXSZgWAZ8wuiJGofdPXJLdmIzpHK6bDrb6Z7qbxywojvKu3GNKBK
3Votd1aXzj28ZUf6bekHkPw8eLLmq2xd9UKeYiB4+MpR+99OczbqkBL5kjMQZPZW
qUklnx01E6Rj7j0JkCDgphdvW4M63VGUZS4TH0ZpOs5z36iJ3EtsSTnMeMDGpSUe
cs8uAt+ntMhhu0a6IU1Jik1yuuGdiKINdOg6wpu7KoYSiWSYWMS/cw46fFkIbuRk
XA==
-----END CERTIFICATE-----
