Certificate:
    Data:
        Version: 3 (0x2)
        Serial Number:
            14:fd:1f:78:10:bc:dd:f2:93:2b:57:30:a4:08:81:8c
        Signature Algorithm: sha256WithRSAEncryption
        Issuer: CN=team190-net
        Validity
            Not Before: May 18 18:55:06 2022 GMT
            Not After : May  2 18:55:06 2025 GMT
        Subject: CN=team190-client
        Subject Public Key Info:
            Public Key Algorithm: rsaEncryption
                RSA Public-Key: (2048 bit)
                Modulus:
                    00:df:ce:1e:05:7c:75:8f:f7:2c:44:f0:0d:c0:57:
                    dd:e5:a7:6a:4f:c9:27:d2:81:43:63:75:25:e0:14:
                    3a:56:67:14:8d:ff:35:51:00:10:0c:c5:a3:d4:97:
                    ff:22:8c:ff:94:a2:9b:0c:85:49:24:e7:12:c8:0e:
                    09:ab:85:55:5f:31:b1:e7:7e:00:28:e3:ed:06:fc:
                    7b:4e:33:dd:0d:5d:5c:36:c3:ff:fc:ca:f9:49:23:
                    70:96:6f:dc:d2:9f:57:0e:d5:a2:89:12:98:d5:fa:
                    29:59:10:0e:89:02:f4:50:f0:2b:de:1c:6e:83:26:
                    83:60:04:11:93:a6:27:3b:c2:33:70:b7:53:38:74:
                    34:ab:72:a6:70:ae:25:48:e2:4d:8d:ee:23:dd:84:
                    df:a9:7d:7e:89:58:51:cc:11:03:fe:ab:70:bc:3b:
                    ee:6c:38:40:42:b3:1e:b6:35:f3:ce:cb:93:c2:32:
                    f1:8d:fa:1b:9c:39:bd:40:ca:af:57:22:c3:99:59:
                    e4:30:a9:f9:ce:35:68:61:bf:a4:c9:72:97:87:3c:
                    b0:65:52:28:08:1b:ee:2f:52:28:90:26:81:c4:6a:
                    3d:19:33:b1:e6:35:57:da:67:f2:8d:fb:0b:dc:bd:
                    56:79:27:4f:5f:70:c6:b9:b7:86:b8:8d:4f:82:5f:
                    53:c1
                Exponent: 65537 (0x10001)
        X509v3 extensions:
            X509v3 Basic Constraints: 
                CA:FALSE
            X509v3 Subject Key Identifier: 
                0E:1F:42:97:3E:A1:98:34:F2:DD:FD:DB:D0:96:02:E7:B7:41:2B:7E
            X509v3 Authority Key Identifier: 
                keyid:93:83:3B:AA:F1:1C:FE:B9:6F:1D:74:7A:64:06:13:E3:A8:20:4C:6E
                DirName:/CN=team190-net
                serial:10:0B:51:18:70:16:18:B7:62:31:DB:D0:82:D8:71:D5:98:71:28:F0

            X509v3 Extended Key Usage: 
                TLS Web Client Authentication
            X509v3 Key Usage: 
                Digital Signature
    Signature Algorithm: sha256WithRSAEncryption
         06:0e:72:53:74:16:e6:1d:ef:20:27:8a:d8:39:1c:d0:2c:1e:
         f0:08:d0:47:02:72:22:0a:3e:4a:72:d7:3b:15:c4:d6:c4:10:
         ac:43:99:66:b6:10:8d:ba:b9:b8:28:5d:76:ad:e9:3d:b7:44:
         72:0a:db:c8:aa:fa:1a:6c:e9:d8:1c:b7:5a:e4:60:c5:6d:41:
         20:5c:23:b7:79:51:f9:c1:bb:b7:c4:d2:3a:35:96:13:5b:7a:
         28:1f:e2:a3:6b:8b:cc:38:f9:c4:a9:de:fa:3b:66:62:c0:58:
         7f:c1:53:6e:87:2a:d3:17:90:83:0d:f6:94:22:44:8d:65:49:
         ac:66:05:b7:8b:d2:1d:84:5e:39:dc:c6:7d:fb:64:88:e8:67:
         16:1c:7b:7c:20:ea:2f:60:8d:e7:83:66:62:3b:77:0e:4f:9e:
         f7:91:da:ea:e1:b1:47:9c:90:f5:b3:63:a6:1e:61:09:59:c2:
         d3:15:ad:93:1d:2a:b2:2a:6b:27:a7:38:22:cb:bb:c6:5f:22:
         a7:5d:ee:69:19:c2:33:08:af:e0:3d:75:90:fe:c9:1c:36:cd:
         01:fe:be:41:22:27:f7:86:fc:2a:b8:b4:3b:f5:12:a6:eb:70:
         ed:21:68:10:07:c4:3a:7f:9a:32:8e:1e:a5:04:7a:a1:f1:f7:
         2d:eb:95:20
-----BEGIN CERTIFICATE-----
MIIDXDCCAkSgAwIBAgIQFP0feBC83fKTK1cwpAiBjDANBgkqhkiG9w0BAQsFADAW
MRQwEgYDVQQDDAt0ZWFtMTkwLW5ldDAeFw0yMjA1MTgxODU1MDZaFw0yNTA1MDIx
ODU1MDZaMBkxFzAVBgNVBAMMDnRlYW0xOTAtY2xpZW50MIIBIjANBgkqhkiG9w0B
AQEFAAOCAQ8AMIIBCgKCAQEA384eBXx1j/csRPANwFfd5adqT8kn0oFDY3Ul4BQ6
VmcUjf81UQAQDMWj1Jf/Ioz/lKKbDIVJJOcSyA4Jq4VVXzGx534AKOPtBvx7TjPd
DV1cNsP//Mr5SSNwlm/c0p9XDtWiiRKY1fopWRAOiQL0UPAr3hxugyaDYAQRk6Yn
O8IzcLdTOHQ0q3KmcK4lSOJNje4j3YTfqX1+iVhRzBED/qtwvDvubDhAQrMetjXz
zsuTwjLxjfobnDm9QMqvVyLDmVnkMKn5zjVoYb+kyXKXhzywZVIoCBvuL1IokCaB
xGo9GTOx5jVX2mfyjfsL3L1WeSdPX3DGubeGuI1Pgl9TwQIDAQABo4GiMIGfMAkG
A1UdEwQCMAAwHQYDVR0OBBYEFA4fQpc+oZg08t3929CWAue3QSt+MFEGA1UdIwRK
MEiAFJODO6rxHP65bx10emQGE+OoIExuoRqkGDAWMRQwEgYDVQQDDAt0ZWFtMTkw
LW5ldIIUEAtRGHAWGLdiMdvQgthx1ZhxKPAwEwYDVR0lBAwwCgYIKwYBBQUHAwIw
CwYDVR0PBAQDAgeAMA0GCSqGSIb3DQEBCwUAA4IBAQAGDnJTdBbmHe8gJ4rYORzQ
LB7wCNBHAnIiCj5Kctc7FcTWxBCsQ5lmthCNurm4KF12rek9t0RyCtvIqvoabOnY
HLda5GDFbUEgXCO3eVH5wbu3xNI6NZYTW3ooH+Kja4vMOPnEqd76O2ZiwFh/wVNu
hyrTF5CDDfaUIkSNZUmsZgW3i9IdhF453MZ9+2SI6GcWHHt8IOovYI3ng2ZiO3cO
T573kdrq4bFHnJD1s2OmHmEJWcLTFa2THSqyKmsnpzgiy7vGXyKnXe5pGcIzCK/g
PXWQ/skcNs0B/r5BIif3hvwquLQ79RKm63DtIWgQB8Q6f5oyjh6lBHqh8fct65Ug
-----END CERTIFICATE-----
