Certificate:
    Data:
        Version: 3 (0x2)
        Serial Number:
            bb:65:30:ff:4a:9d:02:87:a9:4e:3c:19:d0:c2:33:fb
        Signature Algorithm: sha256WithRSAEncryption
        Issuer: CN=team645-net
        Validity
            Not Before: May 18 23:01:28 2022 GMT
            Not After : May  2 23:01:28 2025 GMT
        Subject: CN=team645-server
        Subject Public Key Info:
            Public Key Algorithm: rsaEncryption
                RSA Public-Key: (2048 bit)
                Modulus:
                    00:98:de:83:4b:3a:5c:5d:8d:e7:69:37:85:db:9e:
                    f3:3d:91:6e:0d:bf:e3:5b:33:0a:fd:18:1a:8d:4d:
                    ab:3e:28:41:85:15:84:b3:d2:c8:20:58:e1:07:cf:
                    b0:aa:35:bc:75:3d:68:b7:e0:8d:b6:dc:f2:5a:d6:
                    b1:9e:00:fb:ce:12:00:48:33:38:b5:0d:1d:9e:3b:
                    a0:ab:c7:18:38:d2:81:a6:6f:81:78:0e:ac:6b:7c:
                    83:54:1f:76:c7:90:e4:97:a0:c6:29:8b:2e:dd:2b:
                    bd:73:d4:90:ee:72:30:86:e1:e6:e9:2c:00:4c:2e:
                    1f:23:fb:a7:f0:62:18:48:d9:0d:32:51:4f:7b:6c:
                    63:44:48:60:96:e0:58:fc:e1:27:ea:33:4b:55:34:
                    f1:af:0b:da:f0:3a:8f:52:5e:3c:c2:9f:52:db:78:
                    0f:2a:15:d0:bb:3e:b7:41:b5:93:80:f4:9b:71:6b:
                    13:3b:bb:ec:f5:a0:ca:04:85:99:03:b4:01:84:a3:
                    f6:21:50:82:4e:89:21:e4:01:7f:df:36:19:75:0e:
                    a8:37:ab:9a:cb:3d:39:e3:16:43:ef:e0:cc:b3:34:
                    6e:a2:3f:02:51:e7:44:e5:2c:6d:0b:46:2e:4d:f3:
                    36:3d:e7:be:2c:0f:70:3b:40:ea:ad:e9:80:84:b6:
                    03:71
                Exponent: 65537 (0x10001)
        X509v3 extensions:
            X509v3 Basic Constraints: 
                CA:FALSE
            X509v3 Subject Key Identifier: 
                86:E2:08:09:D6:BB:F8:D1:60:BB:CF:92:0D:C2:E3:62:30:D6:E9:95
            X509v3 Authority Key Identifier: 
                keyid:94:5F:8A:F5:D1:99:83:EF:2B:A0:59:3F:DB:AE:61:2E:78:50:18:1B
                DirName:/CN=team645-net
                serial:4B:A5:FE:58:37:18:AC:60:37:AF:94:86:94:5C:44:47:13:1F:FA:01

            X509v3 Extended Key Usage: 
                TLS Web Server Authentication
            X509v3 Key Usage: 
                Digital Signature, Key Encipherment
            X509v3 Subject Alternative Name: 
                DNS:team645-server
    Signature Algorithm: sha256WithRSAEncryption
         2a:68:c6:61:7b:f3:07:5d:81:77:5c:3d:66:84:b8:40:3d:9a:
         96:74:e8:2c:b4:3f:8f:7d:96:3e:56:eb:bc:ee:c4:0a:78:95:
         a0:0a:30:04:7c:b9:2d:3a:e7:4f:ae:e3:62:0c:da:da:17:72:
         9d:e3:ff:4e:af:d8:49:d6:5d:0d:47:af:83:80:fb:a9:bf:27:
         04:a9:cc:10:0e:a5:e8:59:74:9c:2e:cd:7d:05:bd:7c:42:d5:
         6b:ac:6d:8f:18:29:af:b4:87:d9:8c:25:47:b6:06:cb:74:dc:
         b6:20:60:3e:c3:79:22:26:c1:1d:42:c3:69:02:af:6c:5e:37:
         1d:a1:ef:21:ca:a1:b5:3c:d3:65:bd:82:31:0d:af:17:52:bf:
         2e:f0:fa:58:9d:62:6d:d4:2d:80:dd:c4:32:c7:97:b1:dd:bb:
         07:e8:5b:ce:87:37:35:b7:05:2f:60:a2:a6:91:ff:14:7e:93:
         9a:dd:1c:4a:f9:63:7d:e4:37:52:8f:c4:f8:7f:ee:9b:97:03:
         d3:0a:51:d2:bb:16:f0:fc:de:b7:66:5d:4d:fc:66:e6:3b:76:
         ee:8c:da:45:a8:9f:21:04:c7:be:95:27:7a:55:12:44:2c:7b:
         ff:c3:b7:cd:b3:83:ec:2b:8b:9d:bd:b1:67:f5:0b:2c:50:74:
         e3:0c:8a:f4
-----BEGIN CERTIFICATE-----
MIIDeDCCAmCgAwIBAgIRALtlMP9KnQKHqU48GdDCM/swDQYJKoZIhvcNAQELBQAw
FjEUMBIGA1UEAwwLdGVhbTY0NS1uZXQwHhcNMjIwNTE4MjMwMTI4WhcNMjUwNTAy
MjMwMTI4WjAZMRcwFQYDVQQDDA50ZWFtNjQ1LXNlcnZlcjCCASIwDQYJKoZIhvcN
AQEBBQADggEPADCCAQoCggEBAJjeg0s6XF2N52k3hdue8z2Rbg2/41szCv0YGo1N
qz4oQYUVhLPSyCBY4QfPsKo1vHU9aLfgjbbc8lrWsZ4A+84SAEgzOLUNHZ47oKvH
GDjSgaZvgXgOrGt8g1QfdseQ5JegximLLt0rvXPUkO5yMIbh5uksAEwuHyP7p/Bi
GEjZDTJRT3tsY0RIYJbgWPzhJ+ozS1U08a8L2vA6j1JePMKfUtt4DyoV0Ls+t0G1
k4D0m3FrEzu77PWgygSFmQO0AYSj9iFQgk6JIeQBf982GXUOqDermss9OeMWQ+/g
zLM0bqI/AlHnROUsbQtGLk3zNj3nviwPcDtA6q3pgIS2A3ECAwEAAaOBvTCBujAJ
BgNVHRMEAjAAMB0GA1UdDgQWBBSG4ggJ1rv40WC7z5INwuNiMNbplTBRBgNVHSME
SjBIgBSUX4r10ZmD7yugWT/brmEueFAYG6EapBgwFjEUMBIGA1UEAwwLdGVhbTY0
NS1uZXSCFEul/lg3GKxgN6+UhpRcREcTH/oBMBMGA1UdJQQMMAoGCCsGAQUFBwMB
MAsGA1UdDwQEAwIFoDAZBgNVHREEEjAQgg50ZWFtNjQ1LXNlcnZlcjANBgkqhkiG
9w0BAQsFAAOCAQEAKmjGYXvzB12Bd1w9ZoS4QD2alnToLLQ/j32WPlbrvO7ECniV
oAowBHy5LTrnT67jYgza2hdyneP/Tq/YSdZdDUevg4D7qb8nBKnMEA6l6Fl0nC7N
fQW9fELVa6xtjxgpr7SH2YwlR7YGy3TctiBgPsN5IibBHULDaQKvbF43HaHvIcqh
tTzTZb2CMQ2vF1K/LvD6WJ1ibdQtgN3EMseXsd27B+hbzoc3NbcFL2CippH/FH6T
mt0cSvljfeQ3Uo/E+H/um5cD0wpR0rsW8Pzet2ZdTfxm5jt27ozaRaifIQTHvpUn
elUSRCx7/8O3zbOD7CuLnb2xZ/ULLFB04wyK9A==
-----END CERTIFICATE-----
