Certificate:
    Data:
        Version: 3 (0x2)
        Serial Number:
            0c:24:25:c4:48:6b:49:6e:b2:11:81:0f:d9:bc:0b:c4
        Signature Algorithm: sha256WithRSAEncryption
        Issuer: CN=team131-net
        Validity
            Not Before: May 18 15:07:32 2022 GMT
            Not After : May  2 15:07:32 2025 GMT
        Subject: CN=team131-server
        Subject Public Key Info:
            Public Key Algorithm: rsaEncryption
                RSA Public-Key: (2048 bit)
                Modulus:
                    00:b6:72:ee:b0:42:b5:be:44:65:f1:c0:28:d1:be:
                    ae:03:a5:7d:73:c2:e7:a5:8a:44:54:63:09:35:82:
                    dd:21:81:5d:dd:01:d3:4c:77:80:8b:83:ae:42:23:
                    e1:92:2f:36:3b:24:fe:50:60:10:3a:98:0d:5f:3d:
                    15:47:2a:b8:9f:6a:7f:84:04:ce:fa:fa:fb:cc:85:
                    13:5a:b9:68:39:15:77:02:2c:b2:1a:7f:6a:2e:25:
                    29:06:87:39:54:aa:b1:15:76:9d:d0:c0:2d:cd:f9:
                    b3:a4:de:c3:88:44:cf:71:dc:b8:2b:1e:a3:f9:19:
                    eb:ee:e1:83:70:31:3e:e3:c4:b4:82:2f:5b:b0:4e:
                    bd:59:7d:3e:c1:89:bd:4a:f4:19:03:8b:e8:65:24:
                    65:a2:df:cb:31:f5:b2:56:9a:30:b1:ec:46:6d:50:
                    68:0f:16:05:34:6a:3d:04:9a:83:eb:da:9a:1e:a3:
                    43:78:32:df:22:b6:80:d3:6c:b3:33:70:3a:56:c7:
                    4f:ba:b0:29:e3:54:d2:26:8d:10:8c:d2:92:ef:6e:
                    8a:cb:a8:8b:7c:42:ee:ac:d6:39:88:37:b8:8f:22:
                    cc:f2:c3:90:1f:1a:1e:b5:7d:8e:02:12:23:d1:ad:
                    ae:71:28:6f:ac:3c:44:b7:52:03:45:04:6d:1a:bf:
                    9f:57
                Exponent: 65537 (0x10001)
        X509v3 extensions:
            X509v3 Basic Constraints: 
                CA:FALSE
            X509v3 Subject Key Identifier: 
                03:24:95:BF:52:CB:89:2D:6A:9B:54:CC:E1:D3:8D:0F:E7:A9:4D:27
            X509v3 Authority Key Identifier: 
                keyid:5A:2C:1B:20:1C:C7:5E:05:1B:E2:58:3C:BF:3F:E7:AF:EC:02:A2:B6
                DirName:/CN=team131-net
                serial:72:AB:B9:3A:B1:AC:D3:C4:19:7C:D9:E6:69:2A:67:B5:FD:10:02:DF

            X509v3 Extended Key Usage: 
                TLS Web Server Authentication
            X509v3 Key Usage: 
                Digital Signature, Key Encipherment
            X509v3 Subject Alternative Name: 
                DNS:team131-server
    Signature Algorithm: sha256WithRSAEncryption
         c4:13:1c:9e:16:ba:e3:79:1a:c9:b6:01:45:ee:49:df:08:da:
         80:51:db:15:15:95:72:6f:40:a4:58:dd:ad:55:6f:26:ff:f2:
         5d:e2:9c:f4:31:b2:05:dd:c8:52:79:1d:4e:db:b8:7a:79:56:
         bf:5b:69:d6:33:dc:2f:a5:01:9c:5d:60:67:32:d9:4f:de:96:
         1f:c4:85:63:b0:df:0d:d3:73:9a:e0:2c:70:ed:ad:5d:4e:1f:
         7f:7a:b2:cf:56:4d:65:a3:05:91:51:c1:5d:ad:49:12:6e:ad:
         e6:d8:2c:09:69:c6:fe:8a:63:23:6f:a5:b8:6e:0a:e7:5b:5d:
         91:4e:0d:53:3a:67:76:3b:99:f9:de:83:f9:5d:35:3a:fe:6a:
         54:2d:2e:22:df:7f:2e:a9:f0:12:70:9c:c6:17:23:7a:2e:49:
         27:4b:b1:e4:57:bd:5d:67:7b:61:32:51:7f:bd:e2:12:a1:86:
         af:e0:bc:6f:87:83:be:af:c9:1a:3b:23:12:31:1f:3f:78:fc:
         14:91:4d:8e:fd:55:80:7b:6b:e0:6b:18:6c:42:c1:24:bb:90:
         26:67:d8:51:4a:62:0a:9e:6d:5d:25:6b:29:f0:61:1a:81:f1:
         6e:4d:bf:30:99:e3:da:97:f1:ce:b1:6c:36:d0:05:00:5d:d1:
         15:f4:7c:68
-----BEGIN CERTIFICATE-----
MIIDdzCCAl+gAwIBAgIQDCQlxEhrSW6yEYEP2bwLxDANBgkqhkiG9w0BAQsFADAW
MRQwEgYDVQQDDAt0ZWFtMTMxLW5ldDAeFw0yMjA1MTgxNTA3MzJaFw0yNTA1MDIx
NTA3MzJaMBkxFzAVBgNVBAMMDnRlYW0xMzEtc2VydmVyMIIBIjANBgkqhkiG9w0B
AQEFAAOCAQ8AMIIBCgKCAQEAtnLusEK1vkRl8cAo0b6uA6V9c8LnpYpEVGMJNYLd
IYFd3QHTTHeAi4OuQiPhki82OyT+UGAQOpgNXz0VRyq4n2p/hATO+vr7zIUTWrlo
ORV3AiyyGn9qLiUpBoc5VKqxFXad0MAtzfmzpN7DiETPcdy4Kx6j+Rnr7uGDcDE+
48S0gi9bsE69WX0+wYm9SvQZA4voZSRlot/LMfWyVpowsexGbVBoDxYFNGo9BJqD
69qaHqNDeDLfIraA02yzM3A6VsdPurAp41TSJo0QjNKS726Ky6iLfELurNY5iDe4
jyLM8sOQHxoetX2OAhIj0a2ucShvrDxEt1IDRQRtGr+fVwIDAQABo4G9MIG6MAkG
A1UdEwQCMAAwHQYDVR0OBBYEFAMklb9Sy4ktaptUzOHTjQ/nqU0nMFEGA1UdIwRK
MEiAFFosGyAcx14FG+JYPL8/56/sAqK2oRqkGDAWMRQwEgYDVQQDDAt0ZWFtMTMx
LW5ldIIUcqu5OrGs08QZfNnmaSpntf0QAt8wEwYDVR0lBAwwCgYIKwYBBQUHAwEw
CwYDVR0PBAQDAgWgMBkGA1UdEQQSMBCCDnRlYW0xMzEtc2VydmVyMA0GCSqGSIb3
DQEBCwUAA4IBAQDEExyeFrrjeRrJtgFF7knfCNqAUdsVFZVyb0CkWN2tVW8m//Jd
4pz0MbIF3chSeR1O27h6eVa/W2nWM9wvpQGcXWBnMtlP3pYfxIVjsN8N03Oa4Cxw
7a1dTh9/erLPVk1lowWRUcFdrUkSbq3m2CwJacb+imMjb6W4bgrnW12RTg1TOmd2
O5n53oP5XTU6/mpULS4i338uqfAScJzGFyN6LkknS7HkV71dZ3thMlF/veISoYav
4Lxvh4O+r8kaOyMSMR8/ePwUkU2O/VWAe2vgaxhsQsEku5AmZ9hRSmIKnm1dJWsp
8GEagfFuTb8wmePal/HOsWw20AUAXdEV9Hxo
-----END CERTIFICATE-----
