Certificate:
    Data:
        Version: 3 (0x2)
        Serial Number:
            17:5e:97:a6:d1:4e:06:7b:74:a5:0a:bd:fa:70:24:29
        Signature Algorithm: sha256WithRSAEncryption
        Issuer: CN=team718-net
        Validity
            Not Before: May 18 23:41:43 2022 GMT
            Not After : May  2 23:41:43 2025 GMT
        Subject: CN=team718-client
        Subject Public Key Info:
            Public Key Algorithm: rsaEncryption
                RSA Public-Key: (2048 bit)
                Modulus:
                    00:d5:5e:c7:fa:a7:94:89:2d:ab:84:7d:1c:46:da:
                    59:76:c6:a3:82:fc:13:68:64:21:9f:f1:9a:c6:68:
                    92:d5:9f:a5:97:3a:42:96:79:e5:7e:8f:73:43:7f:
                    0e:be:14:27:8b:4a:ef:5e:3f:f1:91:9a:e5:a0:ba:
                    01:b8:24:46:57:4a:b8:46:34:20:82:d3:4e:ba:08:
                    e2:88:00:69:71:78:ab:c3:65:68:38:89:a6:f2:b7:
                    f8:5d:2a:84:14:25:d5:2d:22:14:b6:2c:8e:10:42:
                    8f:7e:2a:79:23:8d:3f:d2:1c:86:dc:82:e0:b0:f5:
                    10:87:fd:ef:c6:6b:9e:a9:1b:c9:20:f6:03:3e:2a:
                    f7:43:67:53:c4:7f:8e:39:cb:c2:ff:1f:a5:fe:c0:
                    a1:5c:92:f8:3c:44:20:33:96:09:78:9c:76:e7:f3:
                    b3:cb:91:04:a3:72:29:d4:f0:12:bf:bb:59:56:f1:
                    a4:76:02:30:7f:51:2d:ef:4b:fa:47:5e:3d:62:a6:
                    18:dd:92:6f:a6:4c:80:9e:10:e2:40:18:72:a0:1e:
                    e8:a0:c9:53:47:3b:4e:49:1a:d0:3c:64:38:98:be:
                    68:bd:ea:5b:1f:da:37:5c:d9:0e:c2:9c:3e:97:62:
                    9d:3d:e5:aa:58:ef:3a:4a:8d:d3:ca:5b:e6:cf:ba:
                    8f:53
                Exponent: 65537 (0x10001)
        X509v3 extensions:
            X509v3 Basic Constraints: 
                CA:FALSE
            X509v3 Subject Key Identifier: 
                C0:59:AD:28:5A:F1:BE:C1:4B:EA:5E:64:B0:15:B0:E0:61:1C:AF:42
            X509v3 Authority Key Identifier: 
                keyid:28:B5:A3:19:53:69:EE:FB:12:92:DC:55:6E:F9:21:B1:1B:21:3B:E6
                DirName:/CN=team718-net
                serial:60:E8:E2:C6:1E:A8:BA:4A:8F:BF:00:95:23:21:D6:74:C8:DF:05:1A

            X509v3 Extended Key Usage: 
                TLS Web Client Authentication
            X509v3 Key Usage: 
                Digital Signature
    Signature Algorithm: sha256WithRSAEncryption
         81:de:77:74:3f:2e:1e:26:43:b7:cf:7d:01:6d:eb:8c:fd:d0:
         f8:50:21:ec:1d:b7:7e:b8:17:de:e7:09:fe:0e:9f:51:bd:3f:
         f7:b2:7b:f6:f0:8d:53:3d:57:b5:2d:97:97:42:94:1e:6a:0d:
         7a:26:a9:ed:6e:6a:39:b6:17:58:9c:4a:b5:0a:4e:38:31:dd:
         55:40:f9:d7:1b:95:46:b8:fe:e6:5c:32:b4:45:f8:f5:e8:7a:
         fa:b3:88:d8:0b:e7:4f:90:b6:e0:17:37:73:d7:08:5b:e9:a7:
         ef:de:1d:1a:6c:d0:51:8c:48:dc:98:74:89:14:6b:2a:b0:ae:
         16:ff:a3:24:9d:fd:57:5f:c7:fd:d3:b6:ee:3d:6e:af:5c:8b:
         a0:18:9c:29:dc:f9:d4:99:9e:2f:1c:75:5d:87:dc:48:22:48:
         31:e3:97:f4:cf:4d:de:d2:22:05:59:0f:ff:96:0c:f6:53:68:
         ee:7a:e6:ec:a7:1d:55:3a:5b:0b:8f:93:63:fc:b4:33:81:98:
         09:4f:3d:8f:18:0f:3e:2f:59:07:65:4e:21:51:9f:13:87:97:
         50:c0:f2:7e:fe:39:0e:e0:80:0c:a6:52:61:42:9a:8c:57:00:
         3e:14:58:3c:87:cc:10:a9:4f:50:dc:f9:26:0a:74:30:77:29:
         c3:37:3a:28
-----BEGIN CERTIFICATE-----
MIIDXDCCAkSgAwIBAgIQF16XptFOBnt0pQq9+nAkKTANBgkqhkiG9w0BAQsFADAW
MRQwEgYDVQQDDAt0ZWFtNzE4LW5ldDAeFw0yMjA1MTgyMzQxNDNaFw0yNTA1MDIy
MzQxNDNaMBkxFzAVBgNVBAMMDnRlYW03MTgtY2xpZW50MIIBIjANBgkqhkiG9w0B
AQEFAAOCAQ8AMIIBCgKCAQEA1V7H+qeUiS2rhH0cRtpZdsajgvwTaGQhn/GaxmiS
1Z+llzpClnnlfo9zQ38OvhQni0rvXj/xkZrloLoBuCRGV0q4RjQggtNOugjiiABp
cXirw2VoOImm8rf4XSqEFCXVLSIUtiyOEEKPfip5I40/0hyG3ILgsPUQh/3vxmue
qRvJIPYDPir3Q2dTxH+OOcvC/x+l/sChXJL4PEQgM5YJeJx25/Ozy5EEo3Ip1PAS
v7tZVvGkdgIwf1Et70v6R149YqYY3ZJvpkyAnhDiQBhyoB7ooMlTRztOSRrQPGQ4
mL5ovepbH9o3XNkOwpw+l2KdPeWqWO86So3Tylvmz7qPUwIDAQABo4GiMIGfMAkG
A1UdEwQCMAAwHQYDVR0OBBYEFMBZrSha8b7BS+peZLAVsOBhHK9CMFEGA1UdIwRK
MEiAFCi1oxlTae77EpLcVW75IbEbITvmoRqkGDAWMRQwEgYDVQQDDAt0ZWFtNzE4
LW5ldIIUYOjixh6oukqPvwCVIyHWdMjfBRowEwYDVR0lBAwwCgYIKwYBBQUHAwIw
CwYDVR0PBAQDAgeAMA0GCSqGSIb3DQEBCwUAA4IBAQCB3nd0Py4eJkO3z30BbeuM
/dD4UCHsHbd+uBfe5wn+Dp9RvT/3snv28I1TPVe1LZeXQpQeag16Jqntbmo5thdY
nEq1Ck44Md1VQPnXG5VGuP7mXDK0Rfj16Hr6s4jYC+dPkLbgFzdz1whb6afv3h0a
bNBRjEjcmHSJFGsqsK4W/6Mknf1XX8f907buPW6vXIugGJwp3PnUmZ4vHHVdh9xI
Ikgx45f0z03e0iIFWQ//lgz2U2jueubspx1VOlsLj5Nj/LQzgZgJTz2PGA8+L1kH
ZU4hUZ8Th5dQwPJ+/jkO4IAMplJhQpqMVwA+FFg8h8wQqU9Q3PkmCnQwdynDNzoo
-----END CERTIFICATE-----
