Certificate:
    Data:
        Version: 3 (0x2)
        Serial Number:
            69:9f:14:68:e9:4b:79:6b:8a:14:de:43:5c:86:83:3b
        Signature Algorithm: sha256WithRSAEncryption
        Issuer: CN=team718-net
        Validity
            Not Before: May 18 23:41:44 2022 GMT
            Not After : May  2 23:41:44 2025 GMT
        Subject: CN=team718-server
        Subject Public Key Info:
            Public Key Algorithm: rsaEncryption
                RSA Public-Key: (2048 bit)
                Modulus:
                    00:b0:a2:82:8e:cb:c2:ae:34:d5:7f:c7:f3:3b:7c:
                    6b:a1:e5:14:d1:0b:e1:b5:31:51:37:44:85:44:57:
                    47:6f:1d:5f:b1:02:bc:ae:42:c7:02:3a:0d:6b:d3:
                    5b:30:f6:af:8b:1f:f8:67:61:62:b3:da:2b:56:3e:
                    58:7f:97:3e:65:46:7e:a3:53:c7:0e:2f:7a:9d:e6:
                    81:a4:37:4f:be:1e:79:03:ee:0e:50:7b:21:70:4b:
                    67:af:3e:26:a3:a2:2a:9e:81:f7:db:e8:e9:23:0c:
                    53:4c:cf:7b:fc:e3:f4:28:ee:e5:73:0b:06:ab:b0:
                    eb:d0:13:38:36:1a:9b:e1:cb:67:46:39:66:64:6d:
                    c9:c8:9a:80:0e:ad:b5:87:2e:34:6e:a5:a1:e5:97:
                    6e:b6:0c:28:31:71:98:a1:b2:d6:52:11:06:84:48:
                    3a:53:3b:b7:d3:54:8e:15:53:34:b3:1d:66:f2:25:
                    51:ee:2a:28:54:71:37:99:49:1a:34:e8:46:73:94:
                    47:2e:4e:b8:d6:5b:3f:97:e7:b5:db:7d:b9:6f:1f:
                    9e:9f:c0:be:e9:81:3e:e4:d3:75:fd:f8:ba:c8:57:
                    c6:32:99:00:98:b3:0a:c3:59:e2:36:75:d4:1d:01:
                    ea:ef:6f:e1:44:f2:e5:0e:35:bd:af:51:9f:5f:fd:
                    7f:45
                Exponent: 65537 (0x10001)
        X509v3 extensions:
            X509v3 Basic Constraints: 
                CA:FALSE
            X509v3 Subject Key Identifier: 
                31:0E:9C:48:3E:96:EF:8B:93:33:0D:73:FE:C8:EB:72:DA:BF:DA:11
            X509v3 Authority Key Identifier: 
                keyid:28:B5:A3:19:53:69:EE:FB:12:92:DC:55:6E:F9:21:B1:1B:21:3B:E6
                DirName:/CN=team718-net
                serial:60:E8:E2:C6:1E:A8:BA:4A:8F:BF:00:95:23:21:D6:74:C8:DF:05:1A

            X509v3 Extended Key Usage: 
                TLS Web Server Authentication
            X509v3 Key Usage: 
                Digital Signature, Key Encipherment
            X509v3 Subject Alternative Name: 
                DNS:team718-server
    Signature Algorithm: sha256WithRSAEncryption
         a9:a6:00:dc:00:a6:37:cb:52:bc:e0:9d:81:10:99:a7:ff:d5:
         3d:ba:64:18:b9:b4:53:65:fc:45:63:23:06:44:57:39:7c:b7:
         3e:fa:9a:59:e6:2c:9e:0c:51:ff:5e:ee:22:c6:00:6f:3f:70:
         f2:01:a5:59:3b:cb:c7:ae:bf:81:62:81:01:66:11:f0:71:b1:
         7f:70:c0:7d:79:4d:48:96:4d:40:eb:a6:24:d0:11:df:af:68:
         73:1a:e0:bc:4e:b2:27:67:3c:af:19:84:42:f3:26:49:6a:c1:
         4e:dd:20:f9:b9:65:9d:9a:f8:14:23:0e:cd:3a:5e:d5:b7:82:
         e1:4e:a1:63:ea:e6:b1:99:fa:c7:4f:d5:93:b4:7c:fd:0b:51:
         88:c4:e9:be:00:db:9c:8e:b5:92:39:4b:b4:21:09:c8:49:5c:
         fb:59:a4:57:00:50:d2:83:3c:ea:2d:ae:29:20:17:f9:cd:d0:
         b5:32:f8:f2:db:7e:3f:28:4f:02:84:36:6b:25:6d:cf:7e:33:
         e0:4a:72:83:81:ea:a8:b7:94:b7:86:25:a9:05:2a:b4:ba:0f:
         75:45:9c:00:4a:bb:97:54:84:32:bc:15:2e:6e:9b:37:9d:17:
         76:64:6c:4f:2d:d5:6f:51:c9:f1:e2:73:5a:f4:26:14:5a:75:
         52:95:8d:74
-----BEGIN CERTIFICATE-----
MIIDdzCCAl+gAwIBAgIQaZ8UaOlLeWuKFN5DXIaDOzANBgkqhkiG9w0BAQsFADAW
MRQwEgYDVQQDDAt0ZWFtNzE4LW5ldDAeFw0yMjA1MTgyMzQxNDRaFw0yNTA1MDIy
MzQxNDRaMBkxFzAVBgNVBAMMDnRlYW03MTgtc2VydmVyMIIBIjANBgkqhkiG9w0B
AQEFAAOCAQ8AMIIBCgKCAQEAsKKCjsvCrjTVf8fzO3xroeUU0QvhtTFRN0SFRFdH
bx1fsQK8rkLHAjoNa9NbMPavix/4Z2Fis9orVj5Yf5c+ZUZ+o1PHDi96neaBpDdP
vh55A+4OUHshcEtnrz4mo6IqnoH32+jpIwxTTM97/OP0KO7lcwsGq7Dr0BM4Nhqb
4ctnRjlmZG3JyJqADq21hy40bqWh5ZdutgwoMXGYobLWUhEGhEg6Uzu301SOFVM0
sx1m8iVR7iooVHE3mUkaNOhGc5RHLk641ls/l+e12325bx+en8C+6YE+5NN1/fi6
yFfGMpkAmLMKw1niNnXUHQHq72/hRPLlDjW9r1GfX/1/RQIDAQABo4G9MIG6MAkG
A1UdEwQCMAAwHQYDVR0OBBYEFDEOnEg+lu+LkzMNc/7I63Lav9oRMFEGA1UdIwRK
MEiAFCi1oxlTae77EpLcVW75IbEbITvmoRqkGDAWMRQwEgYDVQQDDAt0ZWFtNzE4
LW5ldIIUYOjixh6oukqPvwCVIyHWdMjfBRowEwYDVR0lBAwwCgYIKwYBBQUHAwEw
CwYDVR0PBAQDAgWgMBkGA1UdEQQSMBCCDnRlYW03MTgtc2VydmVyMA0GCSqGSIb3
DQEBCwUAA4IBAQCppgDcAKY3y1K84J2BEJmn/9U9umQYubRTZfxFYyMGRFc5fLc+
+ppZ5iyeDFH/Xu4ixgBvP3DyAaVZO8vHrr+BYoEBZhHwcbF/cMB9eU1Ilk1A66Yk
0BHfr2hzGuC8TrInZzyvGYRC8yZJasFO3SD5uWWdmvgUIw7NOl7Vt4LhTqFj6uax
mfrHT9WTtHz9C1GIxOm+ANucjrWSOUu0IQnISVz7WaRXAFDSgzzqLa4pIBf5zdC1
Mvjy234/KE8ChDZrJW3PfjPgSnKDgeqot5S3hiWpBSq0ug91RZwASruXVIQyvBUu
bps3nRd2ZGxPLdVvUcnx4nNa9CYUWnVSlY10
-----END CERTIFICATE-----
