Certificate:
    Data:
        Version: 3 (0x2)
        Serial Number:
            3e:4a:c3:a8:84:8e:94:90:50:ea:31:9d:de:78:6b:96
        Signature Algorithm: sha256WithRSAEncryption
        Issuer: CN=team631-net
        Validity
            Not Before: May 18 23:07:08 2022 GMT
            Not After : May  2 23:07:08 2025 GMT
        Subject: CN=team631-client
        Subject Public Key Info:
            Public Key Algorithm: rsaEncryption
                RSA Public-Key: (2048 bit)
                Modulus:
                    00:e0:87:5f:f5:7c:b0:e1:7c:e9:dc:bd:26:01:73:
                    3c:cd:90:f5:32:ae:62:36:be:fa:83:96:29:0a:24:
                    d5:02:50:fc:96:84:c1:e3:a2:d7:90:b7:ea:3d:3a:
                    05:27:c3:16:5f:43:20:c6:ab:72:48:22:8d:e2:52:
                    bb:ba:06:ad:b1:14:52:54:35:06:4d:16:55:18:02:
                    78:14:6b:5a:81:ff:a7:76:3e:1f:d3:25:b8:ef:3b:
                    0d:bc:6d:63:4f:f3:22:50:29:46:7d:04:21:c8:1b:
                    91:0c:c7:7d:86:6f:51:d2:f0:e4:b6:d5:4c:11:13:
                    41:c1:54:97:9e:d6:d4:da:a7:95:db:f5:c8:a1:68:
                    bd:9c:e6:c9:c1:58:e1:bc:86:e0:05:52:a8:9a:c6:
                    27:40:68:0a:0b:98:b3:3d:3b:93:48:d6:0d:f0:ab:
                    aa:a5:0a:81:91:e7:eb:09:15:37:e2:53:02:29:74:
                    34:1a:18:15:da:2f:93:7e:80:af:b0:7c:7f:c0:63:
                    7c:05:22:a2:92:39:4c:79:0d:ae:85:f4:0d:f1:1c:
                    d4:4d:a9:e8:d5:23:a0:01:68:ba:16:2d:8e:be:0e:
                    4f:2f:c9:55:07:1d:c1:46:ef:66:f3:56:a3:5e:33:
                    a7:25:9e:25:6a:bb:be:c6:47:5c:fe:6b:67:15:00:
                    c4:79
                Exponent: 65537 (0x10001)
        X509v3 extensions:
            X509v3 Basic Constraints: 
                CA:FALSE
            X509v3 Subject Key Identifier: 
                7E:9D:5B:95:30:4A:64:EE:E9:09:62:82:A6:B9:22:F2:76:46:DA:6D
            X509v3 Authority Key Identifier: 
                keyid:B6:51:76:8D:53:C6:6D:DF:98:60:B3:4D:6E:85:C7:CF:C7:B5:FA:7E
                DirName:/CN=team631-net
                serial:23:93:44:AB:7A:1C:FD:6E:FF:F3:9B:CD:2C:45:28:0C:72:1E:32:09

            X509v3 Extended Key Usage: 
                TLS Web Client Authentication
            X509v3 Key Usage: 
                Digital Signature
    Signature Algorithm: sha256WithRSAEncryption
         19:6b:3f:d2:87:70:dc:9f:20:ac:94:d4:7a:fa:48:ed:09:ee:
         10:00:b6:16:bf:91:6a:73:81:ad:a3:2b:30:44:94:91:73:b7:
         e4:f5:fa:1b:03:82:bd:6c:a2:05:6c:08:39:5f:b0:1d:9e:6d:
         51:50:31:d0:a4:1e:0e:2b:8f:45:34:39:ad:ea:8c:84:0e:f2:
         b0:26:f6:0e:d3:0b:7e:d0:ef:be:06:31:4a:08:f6:c9:9d:5c:
         85:41:c7:6a:62:80:05:64:cc:4d:20:fe:e1:8d:48:0d:cb:54:
         81:3d:3c:82:c8:6e:18:eb:41:67:53:5f:c4:8c:3b:5e:e9:5d:
         b9:1d:49:96:22:81:b3:7a:a3:ac:aa:67:72:03:57:c8:16:a7:
         96:68:93:7a:c0:be:13:aa:cf:48:66:54:ba:dd:6e:e3:f5:79:
         1c:85:88:59:f0:09:16:df:36:01:cf:2c:c5:dd:30:ce:a9:35:
         86:62:48:03:5e:46:19:37:28:25:4e:33:0b:a6:ca:3e:7b:43:
         25:ea:8b:59:0b:4a:c1:bf:b6:77:8b:5d:2b:d8:3f:81:46:8a:
         0a:58:ff:4f:5a:9a:29:34:8b:03:61:0b:6b:6c:1f:df:ef:f0:
         c1:32:dd:3b:a1:fb:c4:13:6e:f7:f4:91:b3:2f:92:09:29:d3:
         d1:00:8b:cb
-----BEGIN CERTIFICATE-----
MIIDXDCCAkSgAwIBAgIQPkrDqISOlJBQ6jGd3nhrljANBgkqhkiG9w0BAQsFADAW
MRQwEgYDVQQDDAt0ZWFtNjMxLW5ldDAeFw0yMjA1MTgyMzA3MDhaFw0yNTA1MDIy
MzA3MDhaMBkxFzAVBgNVBAMMDnRlYW02MzEtY2xpZW50MIIBIjANBgkqhkiG9w0B
AQEFAAOCAQ8AMIIBCgKCAQEA4Idf9Xyw4Xzp3L0mAXM8zZD1Mq5iNr76g5YpCiTV
AlD8loTB46LXkLfqPToFJ8MWX0MgxqtySCKN4lK7ugatsRRSVDUGTRZVGAJ4FGta
gf+ndj4f0yW47zsNvG1jT/MiUClGfQQhyBuRDMd9hm9R0vDkttVMERNBwVSXntbU
2qeV2/XIoWi9nObJwVjhvIbgBVKomsYnQGgKC5izPTuTSNYN8KuqpQqBkefrCRU3
4lMCKXQ0GhgV2i+TfoCvsHx/wGN8BSKikjlMeQ2uhfQN8RzUTano1SOgAWi6Fi2O
vg5PL8lVBx3BRu9m81ajXjOnJZ4laru+xkdc/mtnFQDEeQIDAQABo4GiMIGfMAkG
A1UdEwQCMAAwHQYDVR0OBBYEFH6dW5UwSmTu6Qligqa5IvJ2RtptMFEGA1UdIwRK
MEiAFLZRdo1Txm3fmGCzTW6Fx8/Htfp+oRqkGDAWMRQwEgYDVQQDDAt0ZWFtNjMx
LW5ldIIUI5NEq3oc/W7/85vNLEUoDHIeMgkwEwYDVR0lBAwwCgYIKwYBBQUHAwIw
CwYDVR0PBAQDAgeAMA0GCSqGSIb3DQEBCwUAA4IBAQAZaz/Sh3DcnyCslNR6+kjt
Ce4QALYWv5Fqc4GtoyswRJSRc7fk9fobA4K9bKIFbAg5X7Adnm1RUDHQpB4OK49F
NDmt6oyEDvKwJvYO0wt+0O++BjFKCPbJnVyFQcdqYoAFZMxNIP7hjUgNy1SBPTyC
yG4Y60FnU1/EjDte6V25HUmWIoGzeqOsqmdyA1fIFqeWaJN6wL4Tqs9IZlS63W7j
9XkchYhZ8AkW3zYBzyzF3TDOqTWGYkgDXkYZNyglTjMLpso+e0Ml6otZC0rBv7Z3
i10r2D+BRooKWP9PWpopNIsDYQtrbB/f7/DBMt07ofvEE2739JGzL5IJKdPRAIvL
-----END CERTIFICATE-----
