Certificate:
    Data:
        Version: 3 (0x2)
        Serial Number:
            29:d5:1b:0b:7f:60:9c:12:db:e6:bd:ca:0e:93:66:8b
        Signature Algorithm: sha256WithRSAEncryption
        Issuer: CN=team601-net
        Validity
            Not Before: May 18 22:41:13 2022 GMT
            Not After : May  2 22:41:13 2025 GMT
        Subject: CN=team601-client
        Subject Public Key Info:
            Public Key Algorithm: rsaEncryption
                RSA Public-Key: (2048 bit)
                Modulus:
                    00:c9:35:16:29:e0:00:3c:0e:31:42:30:bb:b2:cb:
                    63:85:09:18:d6:2c:1f:e3:21:23:7b:20:91:fb:3f:
                    c5:92:bf:85:6d:71:71:b9:9d:5c:8c:03:08:5a:11:
                    68:89:77:90:1a:cf:5b:12:59:4e:c8:ba:0c:0a:13:
                    61:7d:18:b6:94:b5:a8:3a:6f:d9:dc:85:e7:e1:d1:
                    08:d4:9d:dc:16:31:db:d9:e0:b3:77:b0:10:ac:5e:
                    8a:1c:e8:fc:c0:3c:55:a9:41:00:2a:79:8c:7f:d7:
                    75:f4:8b:e5:36:c9:9c:ef:cf:7a:fc:fd:b4:8a:7f:
                    7b:34:89:dd:56:9d:37:83:c2:ec:3c:92:15:5d:1e:
                    ad:94:06:06:e6:54:7e:5a:b4:7b:db:6f:88:00:eb:
                    b0:7c:86:1f:e0:13:0c:9a:39:7f:73:d0:88:8f:76:
                    2f:35:46:c9:0a:f1:57:6c:35:d1:9b:63:2c:f1:85:
                    4a:a8:85:0c:ce:dd:c3:60:51:d0:8f:85:d1:4b:f2:
                    ed:d5:cd:ee:39:b2:ae:38:5a:ca:b1:52:e4:11:d6:
                    48:22:c0:fd:da:d1:ff:6b:d6:51:b8:2d:ed:d8:0e:
                    80:89:6b:a1:73:52:e3:c2:7b:7a:81:6b:4c:81:d5:
                    57:46:0f:13:09:d3:b6:b9:98:0d:00:bf:cd:1d:f5:
                    52:67
                Exponent: 65537 (0x10001)
        X509v3 extensions:
            X509v3 Basic Constraints: 
                CA:FALSE
            X509v3 Subject Key Identifier: 
                43:9A:FD:2E:E9:92:24:09:54:25:E3:77:6C:BF:31:FA:6C:7B:DF:30
            X509v3 Authority Key Identifier: 
                keyid:1C:46:76:D2:40:2A:CD:57:53:42:2A:B6:B0:C2:D3:F8:AE:ED:76:EC
                DirName:/CN=team601-net
                serial:7D:23:60:56:46:33:1C:1D:96:A0:D9:52:55:F9:8F:49:C1:8E:D7:87

            X509v3 Extended Key Usage: 
                TLS Web Client Authentication
            X509v3 Key Usage: 
                Digital Signature
    Signature Algorithm: sha256WithRSAEncryption
         0a:3c:39:b2:e9:04:58:c1:4e:5b:b0:24:0b:ea:14:ed:7f:05:
         59:8b:01:a7:c1:e7:5f:85:3a:e0:16:23:85:b3:43:26:ae:1f:
         8a:67:ec:8d:ea:dd:bc:9a:3b:3c:55:7f:87:b9:1a:d6:93:85:
         02:c1:d6:f6:ae:56:28:46:e0:9a:84:9b:1c:72:cc:63:6a:4e:
         6f:d1:89:01:9d:8d:5d:fc:a5:08:f2:c7:69:87:80:f3:a7:7f:
         b8:1d:c2:29:92:1b:c3:b9:88:6c:62:7c:14:ed:0c:ed:06:32:
         8f:2c:01:42:67:8f:ef:20:8c:fd:3c:63:bd:0f:b3:57:29:33:
         59:c0:ee:ae:02:4c:79:ce:8b:be:63:43:3a:0f:cb:0d:e6:21:
         fa:d0:49:a8:18:45:f3:2b:b4:40:61:0b:90:62:95:a8:10:1d:
         1d:f4:da:52:e4:19:4a:ef:57:37:0a:c8:af:9c:de:4d:5e:8b:
         40:d9:ab:dd:af:0a:c9:c4:cd:28:f2:8c:f2:b0:ad:19:95:c6:
         09:d3:8e:f0:48:2a:10:a0:36:66:d3:ac:80:49:dd:a7:50:29:
         2a:0a:a7:69:82:c2:03:da:8d:39:c1:48:fb:29:85:e5:2d:6b:
         49:2f:50:33:c4:c4:1b:8d:8f:9b:06:f8:b2:a5:85:2f:fd:23:
         18:1a:ad:81
-----BEGIN CERTIFICATE-----
MIIDXDCCAkSgAwIBAgIQKdUbC39gnBLb5r3KDpNmizANBgkqhkiG9w0BAQsFADAW
MRQwEgYDVQQDDAt0ZWFtNjAxLW5ldDAeFw0yMjA1MTgyMjQxMTNaFw0yNTA1MDIy
MjQxMTNaMBkxFzAVBgNVBAMMDnRlYW02MDEtY2xpZW50MIIBIjANBgkqhkiG9w0B
AQEFAAOCAQ8AMIIBCgKCAQEAyTUWKeAAPA4xQjC7sstjhQkY1iwf4yEjeyCR+z/F
kr+FbXFxuZ1cjAMIWhFoiXeQGs9bEllOyLoMChNhfRi2lLWoOm/Z3IXn4dEI1J3c
FjHb2eCzd7AQrF6KHOj8wDxVqUEAKnmMf9d19IvlNsmc7896/P20in97NIndVp03
g8LsPJIVXR6tlAYG5lR+WrR722+IAOuwfIYf4BMMmjl/c9CIj3YvNUbJCvFXbDXR
m2Ms8YVKqIUMzt3DYFHQj4XRS/Lt1c3uObKuOFrKsVLkEdZIIsD92tH/a9ZRuC3t
2A6AiWuhc1Ljwnt6gWtMgdVXRg8TCdO2uZgNAL/NHfVSZwIDAQABo4GiMIGfMAkG
A1UdEwQCMAAwHQYDVR0OBBYEFEOa/S7pkiQJVCXjd2y/Mfpse98wMFEGA1UdIwRK
MEiAFBxGdtJAKs1XU0IqtrDC0/iu7XbsoRqkGDAWMRQwEgYDVQQDDAt0ZWFtNjAx
LW5ldIIUfSNgVkYzHB2WoNlSVfmPScGO14cwEwYDVR0lBAwwCgYIKwYBBQUHAwIw
CwYDVR0PBAQDAgeAMA0GCSqGSIb3DQEBCwUAA4IBAQAKPDmy6QRYwU5bsCQL6hTt
fwVZiwGnwedfhTrgFiOFs0Mmrh+KZ+yN6t28mjs8VX+HuRrWk4UCwdb2rlYoRuCa
hJsccsxjak5v0YkBnY1d/KUI8sdph4Dzp3+4HcIpkhvDuYhsYnwU7QztBjKPLAFC
Z4/vIIz9PGO9D7NXKTNZwO6uAkx5zou+Y0M6D8sN5iH60EmoGEXzK7RAYQuQYpWo
EB0d9NpS5BlK71c3CsivnN5NXotA2avdrwrJxM0o8ozysK0ZlcYJ047wSCoQoDZm
06yASd2nUCkqCqdpgsID2o05wUj7KYXlLWtJL1AzxMQbjY+bBviypYUv/SMYGq2B
-----END CERTIFICATE-----
