Certificate:
    Data:
        Version: 3 (0x2)
        Serial Number:
            9c:f8:5e:a4:4d:7b:a2:65:c2:de:eb:3c:6b:d1:72:3e
        Signature Algorithm: sha256WithRSAEncryption
        Issuer: CN=team102-net
        Validity
            Not Before: May 18 14:51:49 2022 GMT
            Not After : May  2 14:51:49 2025 GMT
        Subject: CN=team102-server
        Subject Public Key Info:
            Public Key Algorithm: rsaEncryption
                RSA Public-Key: (2048 bit)
                Modulus:
                    00:9d:89:11:f2:7c:d8:6b:6d:1c:0b:53:24:5b:c0:
                    bb:db:d8:5e:68:a8:eb:82:78:11:96:7d:f6:8d:18:
                    9c:49:8e:68:e1:d8:61:cb:fd:a0:e8:51:22:23:49:
                    02:70:83:8d:16:ef:6e:f5:e9:37:86:b3:f5:78:6b:
                    40:f5:63:69:5f:04:29:53:b4:e0:e6:ca:ae:fb:8f:
                    fb:cd:e9:c4:60:d7:fc:a1:a7:90:37:07:96:33:e9:
                    31:4f:3e:0e:1e:b2:f7:3a:3d:c6:90:af:d3:48:fe:
                    ad:5a:1e:24:52:14:c4:17:2c:62:c5:f3:82:d7:ec:
                    f1:0a:24:42:21:46:16:87:4a:1b:32:04:66:e9:e6:
                    15:3b:9e:0b:c4:7b:3b:bc:9c:6f:3e:af:bb:55:02:
                    63:f8:cc:76:5e:97:dd:b7:34:4f:68:3e:79:b7:12:
                    0d:66:9f:32:81:3f:75:52:22:0d:c2:3c:f0:6b:7d:
                    60:0d:ef:70:79:f7:cf:d9:3f:9c:16:26:d8:38:d3:
                    50:b4:3a:7c:99:d1:20:00:d1:84:27:bd:57:34:9a:
                    f6:97:2a:77:5e:e3:17:45:31:ab:e2:3d:48:43:71:
                    2f:49:a2:91:13:55:77:75:14:38:0c:d7:46:77:ec:
                    01:ef:16:f2:a0:66:7a:e2:95:dc:46:56:85:48:c0:
                    47:8f
                Exponent: 65537 (0x10001)
        X509v3 extensions:
            X509v3 Basic Constraints: 
                CA:FALSE
            X509v3 Subject Key Identifier: 
                E7:2F:8F:56:43:13:6A:C1:DF:74:6D:1C:07:5A:ED:5C:54:91:E7:87
            X509v3 Authority Key Identifier: 
                keyid:9F:2A:BD:77:4B:E2:06:45:B6:8F:D8:BD:04:3F:95:E2:8B:32:55:D0
                DirName:/CN=team102-net
                serial:07:0D:67:97:23:58:EC:A0:1A:BF:FC:8F:6B:E0:96:35:D6:9A:24:E6

            X509v3 Extended Key Usage: 
                TLS Web Server Authentication
            X509v3 Key Usage: 
                Digital Signature, Key Encipherment
            X509v3 Subject Alternative Name: 
                DNS:team102-server
    Signature Algorithm: sha256WithRSAEncryption
         a8:b8:0c:12:58:ce:26:b8:23:fb:f4:80:51:ae:ff:a1:51:ce:
         bc:c9:bb:45:5c:c5:86:d9:f2:3c:19:d2:eb:93:3d:56:58:7e:
         51:1e:ec:6e:ae:fa:f7:97:1f:12:a1:7e:b8:4c:7e:11:7b:f6:
         88:ad:df:a8:5b:f4:7e:20:db:64:cc:d4:be:26:ac:f8:ad:95:
         1a:19:1e:cf:c9:4d:2c:61:e3:05:94:3c:38:37:75:8b:05:de:
         7f:06:a8:a1:7c:43:76:87:01:13:75:6a:da:fd:55:f3:42:55:
         56:be:bc:66:ff:0c:4d:57:3a:10:a2:12:f7:58:a6:20:90:e4:
         c1:43:80:3b:2d:9f:32:fc:2f:55:a5:8c:cd:0d:4e:93:1f:ed:
         da:ff:87:11:b3:77:16:eb:04:91:dc:2b:b8:b7:05:4d:ea:e2:
         b7:e9:9e:d0:5e:7c:6c:29:a7:0a:c9:d9:fe:19:e6:fd:c3:02:
         09:4a:de:96:63:e5:12:e6:01:f2:d2:c1:d7:74:79:a0:53:72:
         6f:05:d0:1a:ed:60:55:56:6f:b4:44:8b:8f:4b:df:d1:0a:da:
         b9:c2:51:d8:7a:4b:7c:e0:e7:5d:23:3d:13:93:7a:75:e2:68:
         87:97:3e:c2:88:e9:41:33:db:2c:18:fb:d8:8f:4b:b1:ad:a3:
         44:15:7f:b2
-----BEGIN CERTIFICATE-----
MIIDeDCCAmCgAwIBAgIRAJz4XqRNe6Jlwt7rPGvRcj4wDQYJKoZIhvcNAQELBQAw
FjEUMBIGA1UEAwwLdGVhbTEwMi1uZXQwHhcNMjIwNTE4MTQ1MTQ5WhcNMjUwNTAy
MTQ1MTQ5WjAZMRcwFQYDVQQDDA50ZWFtMTAyLXNlcnZlcjCCASIwDQYJKoZIhvcN
AQEBBQADggEPADCCAQoCggEBAJ2JEfJ82GttHAtTJFvAu9vYXmio64J4EZZ99o0Y
nEmOaOHYYcv9oOhRIiNJAnCDjRbvbvXpN4az9XhrQPVjaV8EKVO04ObKrvuP+83p
xGDX/KGnkDcHljPpMU8+Dh6y9zo9xpCv00j+rVoeJFIUxBcsYsXzgtfs8QokQiFG
FodKGzIEZunmFTueC8R7O7ycbz6vu1UCY/jMdl6X3bc0T2g+ebcSDWafMoE/dVIi
DcI88Gt9YA3vcHn3z9k/nBYm2DjTULQ6fJnRIADRhCe9VzSa9pcqd17jF0Uxq+I9
SENxL0mikRNVd3UUOAzXRnfsAe8W8qBmeuKV3EZWhUjAR48CAwEAAaOBvTCBujAJ
BgNVHRMEAjAAMB0GA1UdDgQWBBTnL49WQxNqwd90bRwHWu1cVJHnhzBRBgNVHSME
SjBIgBSfKr13S+IGRbaP2L0EP5XiizJV0KEapBgwFjEUMBIGA1UEAwwLdGVhbTEw
Mi1uZXSCFAcNZ5cjWOygGr/8j2vgljXWmiTmMBMGA1UdJQQMMAoGCCsGAQUFBwMB
MAsGA1UdDwQEAwIFoDAZBgNVHREEEjAQgg50ZWFtMTAyLXNlcnZlcjANBgkqhkiG
9w0BAQsFAAOCAQEAqLgMEljOJrgj+/SAUa7/oVHOvMm7RVzFhtnyPBnS65M9Vlh+
UR7sbq7695cfEqF+uEx+EXv2iK3fqFv0fiDbZMzUvias+K2VGhkez8lNLGHjBZQ8
ODd1iwXefwaooXxDdocBE3Vq2v1V80JVVr68Zv8MTVc6EKIS91imIJDkwUOAOy2f
MvwvVaWMzQ1Okx/t2v+HEbN3FusEkdwruLcFTerit+me0F58bCmnCsnZ/hnm/cMC
CUrelmPlEuYB8tLB13R5oFNybwXQGu1gVVZvtESLj0vf0QraucJR2HpLfODnXSM9
E5N6deJoh5c+wojpQTPbLBj72I9Lsa2jRBV/sg==
-----END CERTIFICATE-----
