Certificate:
    Data:
        Version: 3 (0x2)
        Serial Number:
            70:b5:33:d8:98:27:64:3f:09:1d:e3:c9:25:d6:f0:e2
        Signature Algorithm: sha256WithRSAEncryption
        Issuer: CN=team402-net
        Validity
            Not Before: May 18 20:49:46 2022 GMT
            Not After : May  2 20:49:46 2025 GMT
        Subject: CN=team402-server
        Subject Public Key Info:
            Public Key Algorithm: rsaEncryption
                RSA Public-Key: (2048 bit)
                Modulus:
                    00:bc:00:f8:86:f7:ad:71:a2:e3:48:31:9e:f4:b6:
                    4e:46:c1:1a:56:97:fa:6e:42:3a:ee:ad:e9:d5:f1:
                    44:e2:0e:13:89:d7:1f:63:25:e0:cf:22:ca:50:6e:
                    30:71:af:ac:44:45:f9:dc:25:e8:8e:5e:0e:dc:e0:
                    21:41:98:c2:a0:00:2b:98:e7:40:27:97:a0:27:83:
                    a1:bb:09:70:2c:53:da:18:ca:80:b5:f3:96:4d:5d:
                    67:56:82:1a:ba:14:22:76:5e:44:4d:4a:67:fa:bc:
                    7f:a3:84:94:6b:bc:ce:84:2f:29:5d:1e:89:54:9a:
                    1f:ea:a6:d5:f6:1d:2e:c6:45:68:fe:d8:cb:3f:0b:
                    51:87:a4:15:9b:24:36:c2:c5:56:57:b2:bd:65:79:
                    d8:77:5c:f2:d6:e4:2a:90:49:f8:e1:de:a2:76:32:
                    67:52:e4:f8:6c:89:46:b7:f1:70:35:32:9e:46:ba:
                    84:f4:3b:13:79:d9:c5:39:0f:87:8f:b7:20:4e:36:
                    ab:96:8a:6e:47:f1:4d:27:9f:21:dc:2a:7b:32:c7:
                    cd:e0:f4:af:a7:69:00:f1:af:74:6a:3c:df:fe:a1:
                    8b:4f:08:fb:16:6b:55:59:72:bd:92:03:9c:bf:5a:
                    24:ca:c9:3b:c7:33:81:2a:62:88:f3:fc:2e:8e:59:
                    5b:7f
                Exponent: 65537 (0x10001)
        X509v3 extensions:
            X509v3 Basic Constraints: 
                CA:FALSE
            X509v3 Subject Key Identifier: 
                16:DC:B5:CD:24:DD:59:A4:4B:20:62:82:69:71:E1:C9:80:2B:94:DA
            X509v3 Authority Key Identifier: 
                keyid:D2:1A:47:02:A0:F8:DA:63:D7:30:DA:C4:69:DA:08:AE:0A:A3:49:75
                DirName:/CN=team402-net
                serial:4F:6A:56:31:E1:F8:6D:55:E3:67:FE:F2:2D:AA:96:06:BE:5E:47:D7

            X509v3 Extended Key Usage: 
                TLS Web Server Authentication
            X509v3 Key Usage: 
                Digital Signature, Key Encipherment
            X509v3 Subject Alternative Name: 
                DNS:team402-server
    Signature Algorithm: sha256WithRSAEncryption
         4f:79:ce:8b:9b:ea:80:17:0e:85:5f:0a:67:35:9b:84:91:bb:
         bb:a7:d6:a6:da:5f:ce:3a:02:37:e3:51:c6:6d:bd:e6:1e:73:
         03:ce:01:37:69:93:39:d7:cc:71:f0:fc:e9:2d:d3:1c:e2:68:
         fa:10:b0:48:5e:33:2c:68:1b:67:24:14:89:cb:7e:a9:ab:85:
         a3:77:f4:c4:0f:7f:bd:29:bb:46:9a:93:3b:0f:10:03:02:51:
         0f:34:6a:9c:4c:a8:d3:9b:67:bd:73:04:d2:fd:a6:40:06:65:
         a9:a5:c6:f5:a5:f1:ca:93:27:20:b3:25:3a:57:e9:d6:c4:93:
         07:6e:5f:94:0b:c4:70:98:2f:3d:20:86:b0:c2:3d:a4:da:ac:
         df:82:ab:62:6e:6a:66:2b:d6:64:a6:67:05:83:dd:5e:1a:cd:
         71:1e:bb:c7:bb:57:9a:49:93:ca:47:2a:95:3f:aa:b3:58:0c:
         a4:68:3c:b5:c2:99:0b:6f:c4:d2:f9:b5:5f:02:1f:9e:b8:06:
         01:1f:26:ec:60:e0:23:59:bc:3c:1d:71:f6:fb:1d:9e:83:87:
         a3:c6:2c:60:00:72:80:78:9a:c7:a1:1c:dd:08:e7:fe:12:5b:
         19:d9:b4:cc:a7:a5:ca:e1:24:48:71:e7:1f:00:63:f3:5b:da:
         9b:a3:c6:38
-----BEGIN CERTIFICATE-----
MIIDdzCCAl+gAwIBAgIQcLUz2JgnZD8JHePJJdbw4jANBgkqhkiG9w0BAQsFADAW
MRQwEgYDVQQDDAt0ZWFtNDAyLW5ldDAeFw0yMjA1MTgyMDQ5NDZaFw0yNTA1MDIy
MDQ5NDZaMBkxFzAVBgNVBAMMDnRlYW00MDItc2VydmVyMIIBIjANBgkqhkiG9w0B
AQEFAAOCAQ8AMIIBCgKCAQEAvAD4hvetcaLjSDGe9LZORsEaVpf6bkI67q3p1fFE
4g4TidcfYyXgzyLKUG4wca+sREX53CXojl4O3OAhQZjCoAArmOdAJ5egJ4Ohuwlw
LFPaGMqAtfOWTV1nVoIauhQidl5ETUpn+rx/o4SUa7zOhC8pXR6JVJof6qbV9h0u
xkVo/tjLPwtRh6QVmyQ2wsVWV7K9ZXnYd1zy1uQqkEn44d6idjJnUuT4bIlGt/Fw
NTKeRrqE9DsTednFOQ+Hj7cgTjarlopuR/FNJ58h3Cp7MsfN4PSvp2kA8a90ajzf
/qGLTwj7FmtVWXK9kgOcv1okysk7xzOBKmKI8/wujllbfwIDAQABo4G9MIG6MAkG
A1UdEwQCMAAwHQYDVR0OBBYEFBbctc0k3VmkSyBigmlx4cmAK5TaMFEGA1UdIwRK
MEiAFNIaRwKg+Npj1zDaxGnaCK4Ko0l1oRqkGDAWMRQwEgYDVQQDDAt0ZWFtNDAy
LW5ldIIUT2pWMeH4bVXjZ/7yLaqWBr5eR9cwEwYDVR0lBAwwCgYIKwYBBQUHAwEw
CwYDVR0PBAQDAgWgMBkGA1UdEQQSMBCCDnRlYW00MDItc2VydmVyMA0GCSqGSIb3
DQEBCwUAA4IBAQBPec6Lm+qAFw6FXwpnNZuEkbu7p9am2l/OOgI341HGbb3mHnMD
zgE3aZM518xx8PzpLdMc4mj6ELBIXjMsaBtnJBSJy36pq4Wjd/TED3+9KbtGmpM7
DxADAlEPNGqcTKjTm2e9cwTS/aZABmWppcb1pfHKkycgsyU6V+nWxJMHbl+UC8Rw
mC89IIawwj2k2qzfgqtibmpmK9ZkpmcFg91eGs1xHrvHu1eaSZPKRyqVP6qzWAyk
aDy1wpkLb8TS+bVfAh+euAYBHybsYOAjWbw8HXH2+x2eg4ejxixgAHKAeJrHoRzd
COf+ElsZ2bTMp6XK4SRIcecfAGPzW9qbo8Y4
-----END CERTIFICATE-----
