Certificate:
    Data:
        Version: 3 (0x2)
        Serial Number:
            90:7c:6f:6b:55:4a:f0:c8:8a:c4:89:10:a8:d4:2e:00
        Signature Algorithm: sha256WithRSAEncryption
        Issuer: CN=team65-net
        Validity
            Not Before: May 18 14:30:54 2022 GMT
            Not After : May  2 14:30:54 2025 GMT
        Subject: CN=team65-client
        Subject Public Key Info:
            Public Key Algorithm: rsaEncryption
                RSA Public-Key: (2048 bit)
                Modulus:
                    00:b9:aa:89:a3:cc:3c:41:69:3a:f8:ea:3f:56:fd:
                    78:e0:1d:0c:12:81:0c:bf:13:8b:71:54:77:98:2b:
                    a9:4a:99:6a:c4:50:ac:3f:20:f5:38:1d:15:f4:b9:
                    be:82:eb:20:7d:45:33:a9:9d:0e:5c:7a:a9:6e:d5:
                    a4:d5:69:fe:54:28:d1:0b:08:a0:9c:c6:05:7a:45:
                    9e:f6:76:5f:04:07:49:34:0d:7a:8c:26:61:f5:ff:
                    9e:14:53:8a:d8:90:d1:38:b4:e5:35:62:05:b9:74:
                    4a:ce:88:a8:b6:eb:4c:fb:c7:5c:7a:9c:40:68:cc:
                    5c:a8:9b:2c:56:d1:c7:f1:78:4c:38:42:80:0c:fa:
                    d5:d8:ca:04:05:10:3b:c2:e0:85:6b:61:0f:79:1e:
                    76:67:35:63:5a:eb:cc:57:cd:f8:b1:ac:65:b8:e4:
                    2f:14:35:bb:92:09:0f:14:ec:33:1b:a1:12:9b:9c:
                    9b:25:f2:53:2b:d2:a4:7c:13:19:66:31:91:08:ca:
                    6b:8f:55:04:8b:1d:b2:dd:13:54:6b:44:ff:24:bf:
                    7a:f2:6a:38:1d:9a:4f:3d:0e:68:e1:00:c4:f5:f0:
                    a6:0e:49:02:5d:7d:47:06:46:67:a9:72:41:d0:db:
                    b1:a5:81:b4:e9:3c:dd:64:76:75:ab:94:2e:b4:d2:
                    2f:5d
                Exponent: 65537 (0x10001)
        X509v3 extensions:
            X509v3 Basic Constraints: 
                CA:FALSE
            X509v3 Subject Key Identifier: 
                09:4F:17:45:59:9B:87:DA:2D:D9:F0:3F:63:7B:07:91:A7:65:40:6C
            X509v3 Authority Key Identifier: 
                keyid:12:3F:E0:52:B2:57:BD:4D:98:AC:18:35:BE:79:AF:8D:63:CA:5D:FD
                DirName:/CN=team65-net
                serial:56:FD:C4:73:49:0D:36:D9:9F:A7:BC:02:01:6B:F7:59:DD:92:15:F5

            X509v3 Extended Key Usage: 
                TLS Web Client Authentication
            X509v3 Key Usage: 
                Digital Signature
    Signature Algorithm: sha256WithRSAEncryption
         98:f6:ff:0c:02:01:83:ee:9d:ce:60:7e:bc:39:79:a5:e1:8e:
         26:3f:8d:12:07:64:0d:ca:4c:06:88:85:90:90:d2:7d:3a:cc:
         a4:c2:51:2f:59:03:de:8f:c3:52:81:29:9e:ff:00:70:cf:d8:
         ca:ae:17:06:54:6e:dd:0c:8f:f6:8b:ef:79:2a:b2:d8:e9:49:
         4d:9f:03:dc:40:cb:59:5e:ef:ca:f5:47:61:85:01:78:5f:1c:
         69:d5:ed:94:0b:9a:60:87:12:5e:5c:36:21:46:53:2e:a7:92:
         7b:51:c1:88:bb:4b:56:8a:c4:94:98:ac:2e:09:ab:1e:4f:09:
         0f:cc:96:80:48:88:84:81:15:99:ce:99:e8:54:57:78:25:8b:
         9a:3b:31:da:a1:6d:d2:f5:21:d0:6c:0e:00:02:e5:a9:04:ff:
         c8:fd:c5:71:c7:ba:21:ba:10:09:e1:f6:c0:44:68:a6:ef:8e:
         cc:08:ec:1c:a9:2e:85:75:6f:1b:cb:80:b0:9a:09:87:86:f9:
         aa:28:63:93:bc:b0:d9:fd:26:40:7c:e1:14:4b:96:7f:ed:2a:
         d8:11:23:52:57:95:27:e2:3a:f5:b1:27:d0:5f:4d:e4:44:13:
         62:af:eb:56:b9:0c:ea:fe:c5:d2:c1:5f:23:89:6c:6d:05:ce:
         ff:4c:ff:70
-----BEGIN CERTIFICATE-----
MIIDWjCCAkKgAwIBAgIRAJB8b2tVSvDIisSJEKjULgAwDQYJKoZIhvcNAQELBQAw
FTETMBEGA1UEAwwKdGVhbTY1LW5ldDAeFw0yMjA1MTgxNDMwNTRaFw0yNTA1MDIx
NDMwNTRaMBgxFjAUBgNVBAMMDXRlYW02NS1jbGllbnQwggEiMA0GCSqGSIb3DQEB
AQUAA4IBDwAwggEKAoIBAQC5qomjzDxBaTr46j9W/XjgHQwSgQy/E4txVHeYK6lK
mWrEUKw/IPU4HRX0ub6C6yB9RTOpnQ5ceqlu1aTVaf5UKNELCKCcxgV6RZ72dl8E
B0k0DXqMJmH1/54UU4rYkNE4tOU1YgW5dErOiKi260z7x1x6nEBozFyomyxW0cfx
eEw4QoAM+tXYygQFEDvC4IVrYQ95HnZnNWNa68xXzfixrGW45C8UNbuSCQ8U7DMb
oRKbnJsl8lMr0qR8ExlmMZEIymuPVQSLHbLdE1RrRP8kv3ryajgdmk89DmjhAMT1
8KYOSQJdfUcGRmepckHQ27GlgbTpPN1kdnWrlC600i9dAgMBAAGjgaEwgZ4wCQYD
VR0TBAIwADAdBgNVHQ4EFgQUCU8XRVmbh9ot2fA/Y3sHkadlQGwwUAYDVR0jBEkw
R4AUEj/gUrJXvU2YrBg1vnmvjWPKXf2hGaQXMBUxEzARBgNVBAMMCnRlYW02NS1u
ZXSCFFb9xHNJDTbZn6e8AgFr91ndkhX1MBMGA1UdJQQMMAoGCCsGAQUFBwMCMAsG
A1UdDwQEAwIHgDANBgkqhkiG9w0BAQsFAAOCAQEAmPb/DAIBg+6dzmB+vDl5peGO
Jj+NEgdkDcpMBoiFkJDSfTrMpMJRL1kD3o/DUoEpnv8AcM/Yyq4XBlRu3QyP9ovv
eSqy2OlJTZ8D3EDLWV7vyvVHYYUBeF8cadXtlAuaYIcSXlw2IUZTLqeSe1HBiLtL
VorElJisLgmrHk8JD8yWgEiIhIEVmc6Z6FRXeCWLmjsx2qFt0vUh0GwOAALlqQT/
yP3Fcce6IboQCeH2wERopu+OzAjsHKkuhXVvG8uAsJoJh4b5qihjk7yw2f0mQHzh
FEuWf+0q2BEjUleVJ+I69bEn0F9N5EQTYq/rVrkM6v7F0sFfI4lsbQXO/0z/cA==
-----END CERTIFICATE-----
