Certificate:
    Data:
        Version: 3 (0x2)
        Serial Number:
            41:8b:10:9a:7b:66:d4:03:ea:57:9a:9f:83:c8:b2:38
        Signature Algorithm: sha256WithRSAEncryption
        Issuer: CN=team742-net
        Validity
            Not Before: May 19 00:07:57 2022 GMT
            Not After : May  3 00:07:57 2025 GMT
        Subject: CN=team742-server
        Subject Public Key Info:
            Public Key Algorithm: rsaEncryption
                RSA Public-Key: (2048 bit)
                Modulus:
                    00:b3:55:87:3c:54:e4:6e:0d:28:2e:d4:9f:fc:7f:
                    dd:53:25:6b:e1:12:dc:b1:84:8f:40:a7:8b:ee:f1:
                    a2:6f:09:a6:b2:3e:f4:19:de:92:21:64:c3:a1:fa:
                    09:02:83:b1:52:f4:04:e9:bd:6e:56:54:65:ad:6c:
                    6a:fc:99:45:c0:1b:d2:d6:a5:49:4f:14:78:1a:2b:
                    6a:e1:ed:00:f5:fc:e4:f5:e8:c5:a1:7e:fd:3b:78:
                    c1:53:8a:90:0f:1a:2e:de:93:b7:d9:12:d6:13:2a:
                    50:be:e1:66:e4:2f:b8:54:60:70:ae:9a:3a:01:34:
                    69:18:ce:77:9b:07:69:13:f6:68:b6:c2:33:4f:a8:
                    66:51:76:a0:a5:8c:f0:a7:cc:9a:21:dc:07:e7:43:
                    e0:1d:bc:36:74:4d:53:37:7c:0a:b6:88:e3:4d:08:
                    a4:b5:49:28:a7:ed:1f:f5:56:81:7c:35:93:74:18:
                    1b:ee:60:8c:08:11:bb:8f:7a:c2:47:6f:dd:77:ff:
                    9b:64:e9:39:68:36:ff:66:5c:da:06:69:b0:f5:a6:
                    dd:65:e9:57:d5:cc:2e:77:94:7b:1b:bd:c6:3c:03:
                    7e:ce:37:98:96:54:ac:ef:c4:77:5a:fe:f7:14:ef:
                    8d:9d:bf:a1:37:6e:6c:74:d2:97:d7:d6:83:95:96:
                    14:ed
                Exponent: 65537 (0x10001)
        X509v3 extensions:
            X509v3 Basic Constraints: 
                CA:FALSE
            X509v3 Subject Key Identifier: 
                71:84:96:31:E4:37:CD:66:09:15:6C:66:DF:A1:CA:1E:4E:D7:86:E8
            X509v3 Authority Key Identifier: 
                keyid:11:70:76:4E:FB:CB:C2:B8:D3:3C:A2:05:B1:33:5C:D0:94:BD:C6:CE
                DirName:/CN=team742-net
                serial:2A:A8:B6:E8:03:65:8D:C8:3E:68:A9:AE:D1:B1:32:FB:6F:F4:C6:68

            X509v3 Extended Key Usage: 
                TLS Web Server Authentication
            X509v3 Key Usage: 
                Digital Signature, Key Encipherment
            X509v3 Subject Alternative Name: 
                DNS:team742-server
    Signature Algorithm: sha256WithRSAEncryption
         04:1c:ac:5a:d2:99:28:89:6c:51:c7:da:8f:96:d0:0f:21:5d:
         ce:64:80:02:08:ea:68:bf:dd:9d:94:ff:09:93:cd:32:5a:1e:
         48:2b:7a:dc:9b:7e:89:39:bb:36:ca:d4:8e:53:63:fb:bb:0d:
         10:5b:4d:92:09:21:67:8b:9c:d0:f4:e5:b9:41:ed:3e:9a:86:
         86:86:3d:d4:72:c0:07:05:5c:1f:99:36:c3:49:94:e9:23:5c:
         48:60:65:65:5d:9a:bd:8c:82:8b:84:93:70:7a:cd:99:17:fe:
         10:9a:da:87:d2:ab:9a:c9:af:90:8f:57:31:7c:4f:00:d2:60:
         33:9d:5a:fe:0d:b8:ee:7e:53:0e:45:ed:e2:11:bd:d9:dd:9f:
         70:4b:23:22:20:57:59:bd:ff:bc:8b:80:2b:9f:e4:6f:06:17:
         ca:1b:8a:1b:0a:9c:d2:37:a2:74:03:d7:ab:bf:0e:1e:7b:da:
         5e:46:f4:b3:b8:78:ce:80:b9:9b:c8:e6:c9:30:e7:05:84:41:
         65:f6:47:9c:0f:4f:3b:bf:c5:c7:8b:b6:92:3e:74:9c:64:e3:
         45:91:af:60:f7:24:ae:20:d5:17:dd:0b:be:1b:ab:01:06:19:
         98:74:aa:fa:97:32:fd:33:e7:7e:72:2d:23:9a:32:96:b5:b4:
         d9:f0:92:88
-----BEGIN CERTIFICATE-----
MIIDdzCCAl+gAwIBAgIQQYsQmntm1APqV5qfg8iyODANBgkqhkiG9w0BAQsFADAW
MRQwEgYDVQQDDAt0ZWFtNzQyLW5ldDAeFw0yMjA1MTkwMDA3NTdaFw0yNTA1MDMw
MDA3NTdaMBkxFzAVBgNVBAMMDnRlYW03NDItc2VydmVyMIIBIjANBgkqhkiG9w0B
AQEFAAOCAQ8AMIIBCgKCAQEAs1WHPFTkbg0oLtSf/H/dUyVr4RLcsYSPQKeL7vGi
bwmmsj70Gd6SIWTDofoJAoOxUvQE6b1uVlRlrWxq/JlFwBvS1qVJTxR4Gitq4e0A
9fzk9ejFoX79O3jBU4qQDxou3pO32RLWEypQvuFm5C+4VGBwrpo6ATRpGM53mwdp
E/ZotsIzT6hmUXagpYzwp8yaIdwH50PgHbw2dE1TN3wKtojjTQiktUkop+0f9VaB
fDWTdBgb7mCMCBG7j3rCR2/dd/+bZOk5aDb/ZlzaBmmw9abdZelX1cwud5R7G73G
PAN+zjeYllSs78R3Wv73FO+Nnb+hN25sdNKX19aDlZYU7QIDAQABo4G9MIG6MAkG
A1UdEwQCMAAwHQYDVR0OBBYEFHGEljHkN81mCRVsZt+hyh5O14boMFEGA1UdIwRK
MEiAFBFwdk77y8K40zyiBbEzXNCUvcbOoRqkGDAWMRQwEgYDVQQDDAt0ZWFtNzQy
LW5ldIIUKqi26ANljcg+aKmu0bEy+2/0xmgwEwYDVR0lBAwwCgYIKwYBBQUHAwEw
CwYDVR0PBAQDAgWgMBkGA1UdEQQSMBCCDnRlYW03NDItc2VydmVyMA0GCSqGSIb3
DQEBCwUAA4IBAQAEHKxa0pkoiWxRx9qPltAPIV3OZIACCOpov92dlP8Jk80yWh5I
K3rcm36JObs2ytSOU2P7uw0QW02SCSFni5zQ9OW5Qe0+moaGhj3UcsAHBVwfmTbD
SZTpI1xIYGVlXZq9jIKLhJNwes2ZF/4QmtqH0quaya+Qj1cxfE8A0mAznVr+Dbju
flMORe3iEb3Z3Z9wSyMiIFdZvf+8i4Arn+RvBhfKG4obCpzSN6J0A9ervw4ee9pe
RvSzuHjOgLmbyObJMOcFhEFl9kecD087v8XHi7aSPnScZONFka9g9ySuINUX3Qu+
G6sBBhmYdKr6lzL9M+d+ci0jmjKWtbTZ8JKI
-----END CERTIFICATE-----
