Certificate:
    Data:
        Version: 3 (0x2)
        Serial Number:
            a8:ea:6d:bf:ed:58:57:5a:3a:1e:22:22:53:a9:af:a0
        Signature Algorithm: sha256WithRSAEncryption
        Issuer: CN=team42-net
        Validity
            Not Before: May 18 14:17:33 2022 GMT
            Not After : May  2 14:17:33 2025 GMT
        Subject: CN=team42-client
        Subject Public Key Info:
            Public Key Algorithm: rsaEncryption
                RSA Public-Key: (2048 bit)
                Modulus:
                    00:e5:a2:d8:55:37:53:cc:66:0d:8a:76:79:5b:fb:
                    06:a9:69:87:0a:5e:75:7c:09:bd:09:66:22:60:97:
                    41:f2:94:23:e6:ee:5c:6c:43:a2:b5:ab:79:1b:72:
                    e3:9b:0c:36:46:c7:15:8c:33:4c:1f:c9:04:ea:a8:
                    53:76:14:a0:ef:18:3b:ea:c4:4b:ae:39:d3:33:e7:
                    4b:3e:34:8e:20:41:60:b5:92:a4:c8:1e:65:9e:e5:
                    4c:32:75:7d:8f:e0:f4:ab:b4:1b:4d:f1:e1:58:8a:
                    42:6d:b0:b5:a0:ad:7e:20:58:e6:d1:fc:b5:02:6f:
                    bc:71:5f:35:9e:fa:d8:47:63:23:39:8c:fd:4b:17:
                    6e:be:bf:f1:7e:51:b6:fa:0a:64:b9:c3:54:c9:ed:
                    48:d4:f1:3d:1a:f1:75:32:47:d7:3b:66:47:8c:a9:
                    97:98:71:4e:ac:d9:99:96:6e:3b:09:2c:d9:fd:10:
                    ee:24:46:12:89:05:61:97:b9:c2:1f:a5:b2:f1:70:
                    9a:47:4e:be:a2:68:60:a9:16:61:60:c2:ff:1e:f1:
                    0a:a6:b3:38:fd:01:29:2e:9d:14:30:70:e6:48:de:
                    5f:f7:d4:62:1f:9e:b9:dc:8e:06:8e:59:37:d7:a3:
                    4e:8d:e8:c9:13:52:b5:88:5e:45:7d:1f:40:dd:ef:
                    8c:5d
                Exponent: 65537 (0x10001)
        X509v3 extensions:
            X509v3 Basic Constraints: 
                CA:FALSE
            X509v3 Subject Key Identifier: 
                BF:9A:F2:1F:F4:8F:1B:75:66:F2:95:E5:61:24:2E:70:74:75:23:0A
            X509v3 Authority Key Identifier: 
                keyid:C0:96:58:80:AD:17:2F:70:0E:61:07:9D:91:DC:46:0B:C4:41:F1:91
                DirName:/CN=team42-net
                serial:03:DD:E8:37:9E:CD:61:66:18:56:E8:B4:D8:04:FD:01:71:D2:27:A5

            X509v3 Extended Key Usage: 
                TLS Web Client Authentication
            X509v3 Key Usage: 
                Digital Signature
    Signature Algorithm: sha256WithRSAEncryption
         80:e0:74:58:f2:3f:b1:1e:bc:37:57:4e:c5:50:ad:d8:9e:45:
         be:fe:dc:6d:39:3b:e4:89:50:19:e5:ef:10:db:1a:a1:c7:de:
         5c:39:f8:97:f2:dc:2c:41:45:b2:23:a8:86:a9:87:bb:b7:81:
         d5:50:c6:b9:8e:7c:1e:ab:8d:c6:3f:bc:f9:4d:16:8c:2c:bd:
         e9:ee:08:62:f6:d9:6d:69:f1:39:c2:fc:85:e4:3b:8e:cf:49:
         e8:7a:da:02:7b:2b:5d:d5:70:a1:98:63:01:dc:b2:ee:01:6c:
         16:8b:ff:35:81:be:08:cb:a5:1e:ad:58:0b:33:e6:e2:3a:30:
         83:1b:54:6d:50:39:36:0b:6c:87:ab:91:46:23:1c:82:02:11:
         22:5b:11:3e:27:eb:0d:33:9a:8e:16:66:c5:ba:1f:00:91:5c:
         82:a1:be:b6:4f:ec:ac:63:59:36:a4:0b:93:83:52:45:fb:67:
         47:b1:45:3d:98:72:cb:07:84:3d:94:e2:49:b7:20:13:05:05:
         6d:a9:a6:71:57:24:5d:a7:09:97:28:45:47:ba:18:25:09:72:
         e3:27:76:c6:84:c7:e5:9d:65:ac:9c:06:29:cf:3d:bd:09:a4:
         f0:02:7d:39:1a:fb:a4:22:f7:de:33:9f:d6:12:4e:e1:c7:93:
         49:bc:e9:9e
-----BEGIN CERTIFICATE-----
MIIDWjCCAkKgAwIBAgIRAKjqbb/tWFdaOh4iIlOpr6AwDQYJKoZIhvcNAQELBQAw
FTETMBEGA1UEAwwKdGVhbTQyLW5ldDAeFw0yMjA1MTgxNDE3MzNaFw0yNTA1MDIx
NDE3MzNaMBgxFjAUBgNVBAMMDXRlYW00Mi1jbGllbnQwggEiMA0GCSqGSIb3DQEB
AQUAA4IBDwAwggEKAoIBAQDlothVN1PMZg2Kdnlb+wapaYcKXnV8Cb0JZiJgl0Hy
lCPm7lxsQ6K1q3kbcuObDDZGxxWMM0wfyQTqqFN2FKDvGDvqxEuuOdMz50s+NI4g
QWC1kqTIHmWe5UwydX2P4PSrtBtN8eFYikJtsLWgrX4gWObR/LUCb7xxXzWe+thH
YyM5jP1LF26+v/F+Ubb6CmS5w1TJ7UjU8T0a8XUyR9c7ZkeMqZeYcU6s2ZmWbjsJ
LNn9EO4kRhKJBWGXucIfpbLxcJpHTr6iaGCpFmFgwv8e8Qqmszj9ASkunRQwcOZI
3l/31GIfnrncjgaOWTfXo06N6MkTUrWIXkV9H0Dd74xdAgMBAAGjgaEwgZ4wCQYD
VR0TBAIwADAdBgNVHQ4EFgQUv5ryH/SPG3Vm8pXlYSQucHR1IwowUAYDVR0jBEkw
R4AUwJZYgK0XL3AOYQedkdxGC8RB8ZGhGaQXMBUxEzARBgNVBAMMCnRlYW00Mi1u
ZXSCFAPd6DeezWFmGFbotNgE/QFx0ielMBMGA1UdJQQMMAoGCCsGAQUFBwMCMAsG
A1UdDwQEAwIHgDANBgkqhkiG9w0BAQsFAAOCAQEAgOB0WPI/sR68N1dOxVCt2J5F
vv7cbTk75IlQGeXvENsaocfeXDn4l/LcLEFFsiOohqmHu7eB1VDGuY58HquNxj+8
+U0WjCy96e4IYvbZbWnxOcL8heQ7js9J6HraAnsrXdVwoZhjAdyy7gFsFov/NYG+
CMulHq1YCzPm4jowgxtUbVA5Ngtsh6uRRiMcggIRIlsRPifrDTOajhZmxbofAJFc
gqG+tk/srGNZNqQLk4NSRftnR7FFPZhyyweEPZTiSbcgEwUFbammcVckXacJlyhF
R7oYJQly4yd2xoTH5Z1lrJwGKc89vQmk8AJ9ORr7pCL33jOf1hJO4ceTSbzpng==
-----END CERTIFICATE-----
