Certificate:
    Data:
        Version: 3 (0x2)
        Serial Number:
            f7:a4:86:19:96:ed:cd:7f:b8:a5:04:73:15:01:b0:82
        Signature Algorithm: sha256WithRSAEncryption
        Issuer: CN=team427-net
        Validity
            Not Before: May 18 21:12:34 2022 GMT
            Not After : May  2 21:12:34 2025 GMT
        Subject: CN=team427-server
        Subject Public Key Info:
            Public Key Algorithm: rsaEncryption
                RSA Public-Key: (2048 bit)
                Modulus:
                    00:dc:89:b0:48:82:3e:d1:c6:16:64:43:2b:bc:56:
                    b8:7f:0b:20:eb:dd:8d:37:ba:08:55:31:31:5e:d8:
                    0b:4b:75:ac:86:51:3b:0b:63:76:bd:db:e8:f1:1e:
                    bd:a7:3a:f8:ab:5e:75:ff:47:c2:b6:f3:29:dc:79:
                    41:be:42:2d:4f:d1:75:b0:8e:0f:4b:f1:84:b2:b8:
                    61:c2:08:43:04:c3:14:c9:04:f5:7f:f4:f9:b0:5f:
                    29:aa:67:1f:05:44:cd:05:ea:41:79:74:be:ed:57:
                    10:53:20:14:ef:b6:ff:a3:18:83:89:f1:95:ad:1e:
                    cb:6c:1d:bf:ae:3f:9f:f7:f6:7e:37:8d:26:b6:d3:
                    62:2a:a0:e1:9e:b5:b8:9f:94:cf:31:b0:e9:68:fa:
                    19:4b:22:68:a0:66:32:bf:b1:39:4f:a1:3c:69:8f:
                    6d:35:e7:2a:88:91:e3:25:61:90:92:9c:41:8d:58:
                    fe:90:c1:0d:7b:0f:09:48:86:20:69:e7:8e:0b:e7:
                    fc:82:fb:af:77:1a:2e:df:ea:5a:03:e9:a1:ca:b7:
                    a0:29:95:13:d8:44:a3:cd:ff:44:9d:a1:f9:85:5a:
                    cd:84:5e:fd:ef:2c:ec:ef:60:2e:73:3c:02:51:35:
                    73:ce:1c:6a:7f:3f:b5:77:3a:d8:37:1d:a1:cb:21:
                    ec:9b
                Exponent: 65537 (0x10001)
        X509v3 extensions:
            X509v3 Basic Constraints: 
                CA:FALSE
            X509v3 Subject Key Identifier: 
                45:1E:12:C9:3D:53:E3:A8:0F:36:E7:60:37:4F:D3:7E:1C:EA:60:A7
            X509v3 Authority Key Identifier: 
                keyid:7F:55:07:24:25:E1:E4:F3:4D:DD:CB:0E:E1:EA:F3:D2:A5:AA:08:03
                DirName:/CN=team427-net
                serial:4B:1C:C9:73:01:A1:7F:30:86:8C:B7:25:DF:A3:C8:D5:83:FD:11:54

            X509v3 Extended Key Usage: 
                TLS Web Server Authentication
            X509v3 Key Usage: 
                Digital Signature, Key Encipherment
            X509v3 Subject Alternative Name: 
                DNS:team427-server
    Signature Algorithm: sha256WithRSAEncryption
         81:0b:47:bf:ac:35:04:d4:38:61:df:9a:07:6a:a5:f6:1d:f7:
         38:87:21:b0:73:97:98:a1:40:30:ed:39:d2:80:2a:7f:3e:8d:
         fd:20:66:90:5c:55:6f:87:41:fc:70:d5:f3:7b:5c:0c:38:ec:
         18:c6:c1:cb:0a:f6:a3:14:ca:65:4b:1c:5a:6b:2e:69:38:d0:
         5b:ac:1a:c4:f4:20:e8:68:21:e0:7d:34:54:46:03:f4:72:29:
         e6:05:32:82:d8:fa:ba:6c:57:d4:93:34:d7:1b:8c:e3:89:63:
         ae:99:78:6e:66:db:f3:60:4c:52:8a:82:c4:ea:61:1a:05:32:
         6e:86:6a:c9:f9:46:99:27:ee:b0:69:4c:cf:11:51:98:e4:01:
         6c:1e:09:5b:95:33:a4:7c:74:ee:99:a0:17:4e:bf:84:d9:9e:
         dd:86:f5:2a:67:f7:fe:99:5b:fa:cb:6d:c5:3e:7f:f4:f3:a8:
         1a:35:12:3c:08:9c:2f:94:64:e3:9d:f5:cf:a5:34:d2:b4:d4:
         7b:9d:fe:9a:36:c9:61:59:2d:4a:15:e2:93:08:95:4e:3e:6d:
         00:03:10:b0:72:6d:52:63:7b:80:ff:1c:64:fb:ab:57:83:42:
         1b:f2:1b:ed:fa:be:06:4e:e1:4d:3c:60:39:03:c8:98:51:24:
         51:a6:9a:ad
-----BEGIN CERTIFICATE-----
MIIDeDCCAmCgAwIBAgIRAPekhhmW7c1/uKUEcxUBsIIwDQYJKoZIhvcNAQELBQAw
FjEUMBIGA1UEAwwLdGVhbTQyNy1uZXQwHhcNMjIwNTE4MjExMjM0WhcNMjUwNTAy
MjExMjM0WjAZMRcwFQYDVQQDDA50ZWFtNDI3LXNlcnZlcjCCASIwDQYJKoZIhvcN
AQEBBQADggEPADCCAQoCggEBANyJsEiCPtHGFmRDK7xWuH8LIOvdjTe6CFUxMV7Y
C0t1rIZROwtjdr3b6PEevac6+Ktedf9HwrbzKdx5Qb5CLU/RdbCOD0vxhLK4YcII
QwTDFMkE9X/0+bBfKapnHwVEzQXqQXl0vu1XEFMgFO+2/6MYg4nxla0ey2wdv64/
n/f2fjeNJrbTYiqg4Z61uJ+UzzGw6Wj6GUsiaKBmMr+xOU+hPGmPbTXnKoiR4yVh
kJKcQY1Y/pDBDXsPCUiGIGnnjgvn/IL7r3caLt/qWgPpocq3oCmVE9hEo83/RJ2h
+YVazYRe/e8s7O9gLnM8AlE1c84can8/tXc62Dcdocsh7JsCAwEAAaOBvTCBujAJ
BgNVHRMEAjAAMB0GA1UdDgQWBBRFHhLJPVPjqA8252A3T9N+HOpgpzBRBgNVHSME
SjBIgBR/VQckJeHk803dyw7h6vPSpaoIA6EapBgwFjEUMBIGA1UEAwwLdGVhbTQy
Ny1uZXSCFEscyXMBoX8whoy3Jd+jyNWD/RFUMBMGA1UdJQQMMAoGCCsGAQUFBwMB
MAsGA1UdDwQEAwIFoDAZBgNVHREEEjAQgg50ZWFtNDI3LXNlcnZlcjANBgkqhkiG
9w0BAQsFAAOCAQEAgQtHv6w1BNQ4Yd+aB2ql9h33OIchsHOXmKFAMO050oAqfz6N
/SBmkFxVb4dB/HDV83tcDDjsGMbBywr2oxTKZUscWmsuaTjQW6waxPQg6Ggh4H00
VEYD9HIp5gUygtj6umxX1JM01xuM44ljrpl4bmbb82BMUoqCxOphGgUyboZqyflG
mSfusGlMzxFRmOQBbB4JW5UzpHx07pmgF06/hNme3Yb1Kmf3/plb+sttxT5/9POo
GjUSPAicL5Rk4531z6U00rTUe53+mjbJYVktShXikwiVTj5tAAMQsHJtUmN7gP8c
ZPurV4NCG/Ib7fq+Bk7hTTxgOQPImFEkUaaarQ==
-----END CERTIFICATE-----
