Certificate:
    Data:
        Version: 3 (0x2)
        Serial Number:
            9c:64:69:2f:f5:dc:67:6d:48:f9:28:dd:e7:35:c3:a9
        Signature Algorithm: sha256WithRSAEncryption
        Issuer: CN=team454-net
        Validity
            Not Before: May 18 21:16:37 2022 GMT
            Not After : May  2 21:16:37 2025 GMT
        Subject: CN=team454-client
        Subject Public Key Info:
            Public Key Algorithm: rsaEncryption
                RSA Public-Key: (2048 bit)
                Modulus:
                    00:c3:c2:af:53:06:a9:59:d3:ff:cd:fc:48:e9:e3:
                    22:77:73:a0:c2:00:8a:d4:dc:60:15:45:c3:58:f2:
                    79:59:97:a5:43:b6:72:c7:97:51:6f:62:d2:a2:55:
                    43:55:36:77:4f:dc:e1:a3:82:c2:2f:99:4b:f5:f6:
                    35:cf:cd:8a:c2:16:84:81:4c:63:ce:0c:31:75:c5:
                    28:e3:0f:9b:40:08:79:c5:f8:ce:80:70:6f:f3:5b:
                    25:2e:f1:8b:22:2d:c2:6d:0d:1f:ac:83:d8:21:a6:
                    5e:e6:a2:6c:fe:65:e8:ac:95:8b:5f:47:1f:4f:5f:
                    f1:f7:90:fb:91:bc:a0:4a:0b:29:ef:a7:f4:48:ea:
                    0f:4f:c9:53:a5:e6:23:6e:ea:bc:ec:e7:22:00:6b:
                    d0:de:f2:d4:39:1c:d9:d6:e0:f3:c8:11:9c:cd:c3:
                    a5:da:4f:b8:9b:2b:b0:2b:4d:3d:8b:41:b1:bd:78:
                    98:df:80:cc:d8:a2:d7:a3:e4:6e:e8:26:39:24:3f:
                    ce:c2:f4:8e:b1:4e:13:9d:cc:d1:03:93:5b:88:ee:
                    e8:e6:c8:4e:02:52:4e:df:ec:a9:b6:be:2b:19:aa:
                    02:6f:5b:61:a5:a2:79:6c:26:a2:7f:2a:46:64:06:
                    2a:17:6d:d4:bd:2b:44:5a:19:c1:70:ee:2f:84:e8:
                    06:bf
                Exponent: 65537 (0x10001)
        X509v3 extensions:
            X509v3 Basic Constraints: 
                CA:FALSE
            X509v3 Subject Key Identifier: 
                24:22:28:6F:88:A0:A8:BA:0D:5E:62:2D:5E:0E:FA:2B:5B:E3:A6:75
            X509v3 Authority Key Identifier: 
                keyid:24:6F:07:7B:40:50:C6:C1:24:C4:AB:E4:A3:B4:50:67:CF:88:B2:B9
                DirName:/CN=team454-net
                serial:78:3F:11:43:37:4B:6B:65:11:54:66:D1:31:5B:00:3C:11:0F:98:D5

            X509v3 Extended Key Usage: 
                TLS Web Client Authentication
            X509v3 Key Usage: 
                Digital Signature
    Signature Algorithm: sha256WithRSAEncryption
         45:64:14:9c:c7:2e:98:17:d8:20:de:b6:94:d2:42:23:c8:6d:
         7f:9d:12:b8:81:2e:7d:3e:c1:ed:8c:6e:67:6e:0d:ce:1c:f1:
         8e:e8:05:7f:e2:4e:7c:f9:ac:e8:4c:a1:1e:72:68:c7:40:64:
         fc:ad:24:bd:44:e4:50:d1:3e:54:28:5f:a5:1c:27:fc:3e:34:
         db:aa:00:62:dd:9a:5c:9c:e0:7e:6b:82:89:8b:30:38:4b:c3:
         b8:f3:0e:e2:cd:b6:38:15:0c:72:0a:20:cd:60:7a:36:7c:12:
         b7:1a:fc:4e:b0:82:97:51:6e:b9:cd:63:33:b2:e3:43:a5:f3:
         2f:b6:5b:7a:30:a6:f5:5e:c4:5c:10:62:76:f5:44:4a:7f:62:
         55:f5:d2:14:f3:33:ed:12:93:6f:08:99:c0:20:cf:20:bc:e5:
         81:32:20:33:a4:c3:e3:e2:e6:fa:db:3f:69:86:55:b6:c4:d6:
         b9:c1:1d:2c:39:38:da:76:3c:73:2d:e2:f8:12:ba:9a:01:6a:
         fe:bb:1a:8c:93:9d:6f:10:db:63:f2:45:61:49:14:69:3f:da:
         38:2b:6b:02:1f:1d:c2:43:2a:3c:d2:81:b2:7e:ea:6c:56:58:
         7e:82:f0:d3:71:49:de:0a:1f:cb:73:60:76:62:08:9d:e3:b8:
         9e:2f:da:ea
-----BEGIN CERTIFICATE-----
MIIDXTCCAkWgAwIBAgIRAJxkaS/13GdtSPko3ec1w6kwDQYJKoZIhvcNAQELBQAw
FjEUMBIGA1UEAwwLdGVhbTQ1NC1uZXQwHhcNMjIwNTE4MjExNjM3WhcNMjUwNTAy
MjExNjM3WjAZMRcwFQYDVQQDDA50ZWFtNDU0LWNsaWVudDCCASIwDQYJKoZIhvcN
AQEBBQADggEPADCCAQoCggEBAMPCr1MGqVnT/838SOnjIndzoMIAitTcYBVFw1jy
eVmXpUO2cseXUW9i0qJVQ1U2d0/c4aOCwi+ZS/X2Nc/NisIWhIFMY84MMXXFKOMP
m0AIecX4zoBwb/NbJS7xiyItwm0NH6yD2CGmXuaibP5l6KyVi19HH09f8feQ+5G8
oEoLKe+n9EjqD0/JU6XmI27qvOznIgBr0N7y1Dkc2dbg88gRnM3DpdpPuJsrsCtN
PYtBsb14mN+AzNii16PkbugmOSQ/zsL0jrFOE53M0QOTW4ju6ObITgJSTt/sqba+
KxmqAm9bYaWieWwmon8qRmQGKhdt1L0rRFoZwXDuL4ToBr8CAwEAAaOBojCBnzAJ
BgNVHRMEAjAAMB0GA1UdDgQWBBQkIihviKCoug1eYi1eDvorW+OmdTBRBgNVHSME
SjBIgBQkbwd7QFDGwSTEq+SjtFBnz4iyuaEapBgwFjEUMBIGA1UEAwwLdGVhbTQ1
NC1uZXSCFHg/EUM3S2tlEVRm0TFbADwRD5jVMBMGA1UdJQQMMAoGCCsGAQUFBwMC
MAsGA1UdDwQEAwIHgDANBgkqhkiG9w0BAQsFAAOCAQEARWQUnMcumBfYIN62lNJC
I8htf50SuIEufT7B7YxuZ24NzhzxjugFf+JOfPms6EyhHnJox0Bk/K0kvUTkUNE+
VChfpRwn/D4026oAYt2aXJzgfmuCiYswOEvDuPMO4s22OBUMcgogzWB6NnwStxr8
TrCCl1Fuuc1jM7LjQ6XzL7ZbejCm9V7EXBBidvVESn9iVfXSFPMz7RKTbwiZwCDP
ILzlgTIgM6TD4+Lm+ts/aYZVtsTWucEdLDk42nY8cy3i+BK6mgFq/rsajJOdbxDb
Y/JFYUkUaT/aOCtrAh8dwkMqPNKBsn7qbFZYfoLw03FJ3gofy3NgdmIIneO4ni/a
6g==
-----END CERTIFICATE-----
