Certificate:
    Data:
        Version: 3 (0x2)
        Serial Number:
            54:65:bb:cd:b3:f0:99:e5:d3:41:9c:00:0b:8b:eb:33
        Signature Algorithm: sha256WithRSAEncryption
        Issuer: CN=team656-net
        Validity
            Not Before: May 18 23:07:46 2022 GMT
            Not After : May  2 23:07:46 2025 GMT
        Subject: CN=team656-client
        Subject Public Key Info:
            Public Key Algorithm: rsaEncryption
                RSA Public-Key: (2048 bit)
                Modulus:
                    00:f7:11:e0:38:9c:52:8c:4a:4c:9e:5d:19:9b:f7:
                    89:8e:08:77:da:ba:7a:81:8a:c0:c1:ed:c7:88:13:
                    f9:9a:a5:8b:0b:9f:9e:18:07:48:92:45:a4:b1:ee:
                    dc:29:31:4d:d8:f4:cf:4e:f9:15:8b:3d:d4:69:f8:
                    ce:a9:f4:20:1c:73:33:5d:2e:56:37:7a:24:00:01:
                    52:b3:f0:88:50:17:a3:99:1a:63:e4:ea:0f:fd:e0:
                    92:ef:a8:2f:52:bc:10:cf:0b:81:e2:12:36:43:72:
                    23:bc:6e:27:aa:7d:e7:88:88:ac:76:28:ea:62:21:
                    60:46:84:8e:62:0c:fc:45:8d:78:53:ed:a6:ad:64:
                    a7:03:65:11:02:de:42:5f:b2:7a:7c:a1:b1:83:39:
                    71:cd:34:e1:e4:b6:93:53:0e:4e:9d:13:a3:67:1c:
                    7e:18:3f:64:35:78:17:3d:5d:70:0d:5b:3e:40:c2:
                    5c:e7:90:9d:91:15:e8:60:26:8a:64:da:43:c4:02:
                    83:df:c4:62:20:ca:08:12:bc:75:44:31:81:10:48:
                    55:f5:a6:06:2c:b8:0b:8c:46:95:24:3e:de:c5:15:
                    b0:0d:c3:53:de:66:ea:32:33:ea:85:48:1b:e1:d6:
                    7f:ea:36:f7:5a:99:39:93:e3:e9:16:47:b2:10:3b:
                    c4:09
                Exponent: 65537 (0x10001)
        X509v3 extensions:
            X509v3 Basic Constraints: 
                CA:FALSE
            X509v3 Subject Key Identifier: 
                97:FA:42:3C:A6:99:E7:AC:18:95:7D:70:F0:4C:93:2F:81:3E:53:42
            X509v3 Authority Key Identifier: 
                keyid:34:2A:9C:DD:E5:8F:B1:F1:CE:A7:CB:4F:1C:98:99:29:EC:ED:F8:D6
                DirName:/CN=team656-net
                serial:34:D3:73:D1:F6:02:5A:D3:03:1F:92:90:F9:1D:67:7C:8F:4A:D8:5C

            X509v3 Extended Key Usage: 
                TLS Web Client Authentication
            X509v3 Key Usage: 
                Digital Signature
    Signature Algorithm: sha256WithRSAEncryption
         60:e2:63:47:f8:88:29:97:f7:7d:f8:79:14:73:2a:c9:84:cb:
         ba:23:19:db:d5:11:3b:be:87:89:86:a2:09:6d:85:e4:31:30:
         77:3e:09:31:c8:86:4b:80:ee:69:a4:af:b9:e8:74:f7:12:e8:
         0d:be:2f:7b:65:08:4e:a4:1c:05:82:39:ca:af:91:79:35:4e:
         40:15:28:70:56:17:20:1d:1b:12:ee:3e:9e:7c:55:6a:5b:c7:
         70:c0:3d:f2:c1:38:69:d6:58:31:0b:ee:60:16:85:f9:7d:1e:
         65:c5:cf:4d:b3:38:0f:8d:11:cb:c6:3a:9d:39:20:76:0d:9f:
         e2:d8:89:65:05:42:b3:fc:58:e8:f9:5a:aa:3f:3c:95:56:dd:
         73:49:eb:2b:6e:08:ad:fc:0a:7e:b2:06:ad:a8:16:b9:81:2b:
         78:57:a0:14:6a:a5:60:3f:6d:57:00:1b:fe:c7:a5:5f:3e:2c:
         a1:60:76:5b:18:32:e3:05:32:59:18:41:e3:14:a4:11:3a:58:
         b5:12:0f:5b:ad:98:cb:1c:5f:13:17:9a:75:52:f4:c8:3e:72:
         bf:74:cf:e2:fc:8e:00:0a:5d:75:55:6d:c8:ba:49:25:98:e7:
         cc:b5:dc:6c:20:74:ae:5a:43:12:b0:56:3f:5a:14:c8:2c:db:
         79:7d:f6:11
-----BEGIN CERTIFICATE-----
MIIDXDCCAkSgAwIBAgIQVGW7zbPwmeXTQZwAC4vrMzANBgkqhkiG9w0BAQsFADAW
MRQwEgYDVQQDDAt0ZWFtNjU2LW5ldDAeFw0yMjA1MTgyMzA3NDZaFw0yNTA1MDIy
MzA3NDZaMBkxFzAVBgNVBAMMDnRlYW02NTYtY2xpZW50MIIBIjANBgkqhkiG9w0B
AQEFAAOCAQ8AMIIBCgKCAQEA9xHgOJxSjEpMnl0Zm/eJjgh32rp6gYrAwe3HiBP5
mqWLC5+eGAdIkkWkse7cKTFN2PTPTvkViz3UafjOqfQgHHMzXS5WN3okAAFSs/CI
UBejmRpj5OoP/eCS76gvUrwQzwuB4hI2Q3IjvG4nqn3niIisdijqYiFgRoSOYgz8
RY14U+2mrWSnA2URAt5CX7J6fKGxgzlxzTTh5LaTUw5OnROjZxx+GD9kNXgXPV1w
DVs+QMJc55CdkRXoYCaKZNpDxAKD38RiIMoIErx1RDGBEEhV9aYGLLgLjEaVJD7e
xRWwDcNT3mbqMjPqhUgb4dZ/6jb3Wpk5k+PpFkeyEDvECQIDAQABo4GiMIGfMAkG
A1UdEwQCMAAwHQYDVR0OBBYEFJf6QjymmeesGJV9cPBMky+BPlNCMFEGA1UdIwRK
MEiAFDQqnN3lj7HxzqfLTxyYmSns7fjWoRqkGDAWMRQwEgYDVQQDDAt0ZWFtNjU2
LW5ldIIUNNNz0fYCWtMDH5KQ+R1nfI9K2FwwEwYDVR0lBAwwCgYIKwYBBQUHAwIw
CwYDVR0PBAQDAgeAMA0GCSqGSIb3DQEBCwUAA4IBAQBg4mNH+Igpl/d9+HkUcyrJ
hMu6Ixnb1RE7voeJhqIJbYXkMTB3PgkxyIZLgO5ppK+56HT3EugNvi97ZQhOpBwF
gjnKr5F5NU5AFShwVhcgHRsS7j6efFVqW8dwwD3ywThp1lgxC+5gFoX5fR5lxc9N
szgPjRHLxjqdOSB2DZ/i2IllBUKz/Fjo+VqqPzyVVt1zSesrbgit/Ap+sgatqBa5
gSt4V6AUaqVgP21XABv+x6VfPiyhYHZbGDLjBTJZGEHjFKQROli1Eg9brZjLHF8T
F5p1UvTIPnK/dM/i/I4ACl11VW3IukklmOfMtdxsIHSuWkMSsFY/WhTILNt5ffYR
-----END CERTIFICATE-----
