Certificate:
    Data:
        Version: 3 (0x2)
        Serial Number:
            2e:66:ce:ba:4e:27:6d:34:f7:12:8e:c7:49:8a:f3:76
        Signature Algorithm: sha256WithRSAEncryption
        Issuer: CN=team683-net
        Validity
            Not Before: May 18 23:38:34 2022 GMT
            Not After : May  2 23:38:34 2025 GMT
        Subject: CN=team683-server
        Subject Public Key Info:
            Public Key Algorithm: rsaEncryption
                RSA Public-Key: (2048 bit)
                Modulus:
                    00:dc:da:43:d9:47:a4:14:59:16:4b:d0:bd:21:1e:
                    25:80:a9:5a:05:f8:68:98:c2:d5:1a:71:3b:e1:d4:
                    17:2f:0c:b1:fb:db:2d:1e:fc:38:d0:0d:68:fe:48:
                    81:b8:51:83:2f:e2:15:36:62:3b:03:df:f9:ef:7f:
                    b2:c2:b7:7b:2b:a7:a4:e1:3e:db:cb:68:bd:46:a1:
                    e4:75:43:ce:56:2e:8c:72:a2:29:dc:9e:c2:58:ac:
                    f2:2c:d0:92:bf:6c:76:3f:9c:06:79:5c:f6:a1:33:
                    b9:3f:17:70:2d:68:8b:e2:8c:d4:6a:b3:48:5b:46:
                    f2:68:4b:65:d6:20:08:89:f3:54:5d:2c:d4:e5:de:
                    70:9d:ed:55:89:54:9e:c0:7d:f6:47:cd:ca:c7:7a:
                    3c:90:7a:04:8f:80:82:f1:30:76:76:08:d5:d5:ac:
                    47:28:e3:c8:d8:0e:49:0d:05:ae:e5:56:e3:e0:5c:
                    13:b0:ba:c8:6f:7b:f0:bb:1d:d7:7e:ce:07:42:f5:
                    a1:68:d3:02:a8:54:c4:01:1f:42:cb:1c:84:98:ec:
                    e3:8d:27:f6:1d:ad:ad:72:2d:50:da:36:51:c1:70:
                    98:e9:a4:56:50:cd:3d:90:34:7a:56:47:ab:7b:fe:
                    b0:05:b6:a0:08:17:93:5d:b8:f6:c8:03:e3:a2:3e:
                    b2:65
                Exponent: 65537 (0x10001)
        X509v3 extensions:
            X509v3 Basic Constraints: 
                CA:FALSE
            X509v3 Subject Key Identifier: 
                30:E7:1F:1C:8D:51:CC:82:9D:FB:F1:C2:B1:E4:F4:2B:FF:55:D8:66
            X509v3 Authority Key Identifier: 
                keyid:A6:D3:FF:17:E6:50:40:72:99:63:10:30:CE:1E:C6:F3:C2:3A:FB:33
                DirName:/CN=team683-net
                serial:0A:E7:28:F3:BF:95:6F:F7:06:00:73:F6:07:C6:1C:67:E7:7B:F2:F9

            X509v3 Extended Key Usage: 
                TLS Web Server Authentication
            X509v3 Key Usage: 
                Digital Signature, Key Encipherment
            X509v3 Subject Alternative Name: 
                DNS:team683-server
    Signature Algorithm: sha256WithRSAEncryption
         64:c8:0f:0d:4e:a3:9b:96:de:17:22:b2:8e:68:ef:c0:e1:ee:
         27:d4:7f:eb:e5:d4:98:b3:de:0e:78:06:65:52:8e:f0:43:f5:
         27:e8:79:2c:7d:12:05:ff:a3:72:b2:3e:ed:8d:70:04:d6:9d:
         e9:8a:76:39:dd:3b:dd:5d:31:6f:95:d6:08:52:9f:4a:29:a6:
         64:63:03:89:69:90:3a:83:20:76:23:a1:2b:12:de:18:43:81:
         bd:7c:ad:ef:35:19:14:da:ad:59:0b:93:b4:70:5f:ee:c2:a1:
         40:98:1c:d2:a2:12:66:de:8d:75:52:cd:ca:c3:42:44:e6:ad:
         66:61:a1:ac:55:5c:2e:03:f0:be:6e:b6:d7:06:98:2b:25:77:
         6d:be:53:69:08:b9:be:83:0d:44:93:d6:82:16:df:13:5f:b8:
         92:48:8b:7c:fb:39:57:86:60:ee:68:16:35:e7:7e:b1:01:38:
         61:c0:3d:8a:0b:9d:8e:99:27:ee:47:ee:96:f4:41:00:e5:38:
         a4:3a:e5:5d:8f:c8:20:0c:41:b2:d9:d0:0a:ee:f7:d4:5a:fb:
         41:36:49:6c:ba:d5:db:a1:3e:54:71:97:a3:bf:e2:5c:c1:16:
         3c:a4:af:98:1b:6a:2d:82:6a:d9:eb:90:d7:3c:99:4f:d2:94:
         c7:0c:8c:2a
-----BEGIN CERTIFICATE-----
MIIDdzCCAl+gAwIBAgIQLmbOuk4nbTT3Eo7HSYrzdjANBgkqhkiG9w0BAQsFADAW
MRQwEgYDVQQDDAt0ZWFtNjgzLW5ldDAeFw0yMjA1MTgyMzM4MzRaFw0yNTA1MDIy
MzM4MzRaMBkxFzAVBgNVBAMMDnRlYW02ODMtc2VydmVyMIIBIjANBgkqhkiG9w0B
AQEFAAOCAQ8AMIIBCgKCAQEA3NpD2UekFFkWS9C9IR4lgKlaBfhomMLVGnE74dQX
Lwyx+9stHvw40A1o/kiBuFGDL+IVNmI7A9/573+ywrd7K6ek4T7by2i9RqHkdUPO
Vi6McqIp3J7CWKzyLNCSv2x2P5wGeVz2oTO5PxdwLWiL4ozUarNIW0byaEtl1iAI
ifNUXSzU5d5wne1ViVSewH32R83Kx3o8kHoEj4CC8TB2dgjV1axHKOPI2A5JDQWu
5Vbj4FwTsLrIb3vwux3Xfs4HQvWhaNMCqFTEAR9CyxyEmOzjjSf2Ha2tci1Q2jZR
wXCY6aRWUM09kDR6Vkere/6wBbagCBeTXbj2yAPjoj6yZQIDAQABo4G9MIG6MAkG
A1UdEwQCMAAwHQYDVR0OBBYEFDDnHxyNUcyCnfvxwrHk9Cv/VdhmMFEGA1UdIwRK
MEiAFKbT/xfmUEBymWMQMM4exvPCOvszoRqkGDAWMRQwEgYDVQQDDAt0ZWFtNjgz
LW5ldIIUCuco87+Vb/cGAHP2B8YcZ+d78vkwEwYDVR0lBAwwCgYIKwYBBQUHAwEw
CwYDVR0PBAQDAgWgMBkGA1UdEQQSMBCCDnRlYW02ODMtc2VydmVyMA0GCSqGSIb3
DQEBCwUAA4IBAQBkyA8NTqOblt4XIrKOaO/A4e4n1H/r5dSYs94OeAZlUo7wQ/Un
6HksfRIF/6Nysj7tjXAE1p3pinY53TvdXTFvldYIUp9KKaZkYwOJaZA6gyB2I6Er
Et4YQ4G9fK3vNRkU2q1ZC5O0cF/uwqFAmBzSohJm3o11Us3Kw0JE5q1mYaGsVVwu
A/C+brbXBpgrJXdtvlNpCLm+gw1Ek9aCFt8TX7iSSIt8+zlXhmDuaBY1536xAThh
wD2KC52OmSfuR+6W9EEA5TikOuVdj8ggDEGy2dAK7vfUWvtBNklsutXboT5UcZej
v+JcwRY8pK+YG2otgmrZ65DXPJlP0pTHDIwq
-----END CERTIFICATE-----
