Certificate:
    Data:
        Version: 3 (0x2)
        Serial Number:
            66:51:c5:71:3f:a6:0c:fd:53:16:db:ce:86:72:29:85
        Signature Algorithm: sha256WithRSAEncryption
        Issuer: CN=team617-net
        Validity
            Not Before: May 18 23:00:24 2022 GMT
            Not After : May  2 23:00:24 2025 GMT
        Subject: CN=team617-client
        Subject Public Key Info:
            Public Key Algorithm: rsaEncryption
                RSA Public-Key: (2048 bit)
                Modulus:
                    00:c0:76:52:3a:51:88:8f:25:38:20:65:73:65:8b:
                    9e:e8:82:9b:f1:cf:a5:8b:4e:ea:89:36:14:dd:9d:
                    81:51:d7:34:69:cf:d5:3c:b3:53:7b:84:1d:46:24:
                    1c:3b:fd:ac:c4:b5:ca:68:13:53:76:18:17:72:a3:
                    96:8f:59:59:58:d1:4d:73:b2:06:eb:1d:75:8d:5e:
                    3a:0a:e6:86:5d:07:c7:e4:b8:a2:fc:4c:41:16:28:
                    5a:9f:c5:0c:13:f0:dc:c3:d5:49:65:8c:6b:f7:f0:
                    54:14:3f:9b:e8:0d:9e:68:30:97:fb:d6:a4:42:fe:
                    b4:8f:a9:d9:2f:89:9d:8a:b7:25:98:af:15:ec:67:
                    a9:47:ff:40:85:84:80:e8:3a:06:29:a9:99:8f:b0:
                    80:03:09:00:9e:66:c5:d4:b2:0e:c6:0e:09:eb:99:
                    67:83:15:b8:a1:65:43:d8:6b:f7:f3:60:63:0c:74:
                    f2:20:16:74:29:46:42:f3:81:7c:6c:1a:b7:b3:db:
                    4e:df:f7:85:d0:70:92:26:53:36:3b:58:b3:59:2f:
                    00:a1:25:bf:44:5d:ad:80:67:08:b0:1e:3a:42:00:
                    c4:87:66:d0:76:59:83:f7:8c:2f:3b:04:5c:41:31:
                    ce:82:29:a1:92:ed:1c:a1:15:8c:1b:2b:1c:55:f4:
                    a1:8d
                Exponent: 65537 (0x10001)
        X509v3 extensions:
            X509v3 Basic Constraints: 
                CA:FALSE
            X509v3 Subject Key Identifier: 
                9F:25:B2:AD:66:DF:33:0A:6A:ED:83:82:E9:C1:31:26:75:27:48:DE
            X509v3 Authority Key Identifier: 
                keyid:ED:C3:E9:22:42:5B:AE:76:8F:0C:0A:64:80:54:9C:1F:4D:9B:AC:11
                DirName:/CN=team617-net
                serial:07:CA:CE:35:F5:D9:A4:BD:7F:6C:A2:89:B5:71:38:FC:99:56:B7:AD

            X509v3 Extended Key Usage: 
                TLS Web Client Authentication
            X509v3 Key Usage: 
                Digital Signature
    Signature Algorithm: sha256WithRSAEncryption
         0e:32:95:b8:82:f4:86:19:71:a9:e8:7f:cc:32:e2:ca:f7:25:
         57:f4:90:94:a0:fa:e6:89:51:0b:ff:25:6b:56:b4:76:d1:da:
         01:c5:9f:1e:8a:e8:82:77:67:2d:7c:34:ed:c5:36:7d:17:17:
         24:72:94:d9:d2:12:42:27:f2:a0:89:3c:75:3c:1d:3a:c7:3c:
         81:96:30:24:a4:06:d0:c4:d8:e3:12:a7:7d:68:f3:a4:eb:79:
         0b:1a:b6:15:52:e8:48:c3:cb:71:9f:96:66:5b:25:b2:3c:2f:
         69:2d:da:c9:78:2b:3e:df:48:37:ed:aa:f7:74:86:1c:c1:3f:
         5c:9d:04:fa:f9:53:cf:64:64:f4:99:79:20:6f:3c:12:b1:01:
         9b:e4:c6:c4:7e:92:22:f2:3b:53:4e:71:a1:cf:c6:bd:1d:90:
         7a:8e:c6:95:2c:46:46:a8:98:9a:9b:04:f0:69:0a:5c:f5:92:
         58:72:a7:ee:08:4d:6e:a3:7a:93:50:bc:81:d3:f0:e0:2d:52:
         f9:81:98:ca:10:4f:22:b1:81:7b:72:bf:97:14:a4:fb:ce:21:
         07:89:36:93:51:6e:20:32:36:c3:73:52:5e:16:d8:e0:e6:7b:
         90:4c:c4:21:ff:21:9c:ec:0e:75:b1:a1:b4:b0:37:4c:b9:8f:
         5b:e9:60:a8
-----BEGIN CERTIFICATE-----
MIIDXDCCAkSgAwIBAgIQZlHFcT+mDP1TFtvOhnIphTANBgkqhkiG9w0BAQsFADAW
MRQwEgYDVQQDDAt0ZWFtNjE3LW5ldDAeFw0yMjA1MTgyMzAwMjRaFw0yNTA1MDIy
MzAwMjRaMBkxFzAVBgNVBAMMDnRlYW02MTctY2xpZW50MIIBIjANBgkqhkiG9w0B
AQEFAAOCAQ8AMIIBCgKCAQEAwHZSOlGIjyU4IGVzZYue6IKb8c+li07qiTYU3Z2B
Udc0ac/VPLNTe4QdRiQcO/2sxLXKaBNTdhgXcqOWj1lZWNFNc7IG6x11jV46CuaG
XQfH5Lii/ExBFihan8UME/Dcw9VJZYxr9/BUFD+b6A2eaDCX+9akQv60j6nZL4md
irclmK8V7GepR/9AhYSA6DoGKamZj7CAAwkAnmbF1LIOxg4J65lngxW4oWVD2Gv3
82BjDHTyIBZ0KUZC84F8bBq3s9tO3/eF0HCSJlM2O1izWS8AoSW/RF2tgGcIsB46
QgDEh2bQdlmD94wvOwRcQTHOgimhku0coRWMGyscVfShjQIDAQABo4GiMIGfMAkG
A1UdEwQCMAAwHQYDVR0OBBYEFJ8lsq1m3zMKau2DgunBMSZ1J0jeMFEGA1UdIwRK
MEiAFO3D6SJCW652jwwKZIBUnB9Nm6wRoRqkGDAWMRQwEgYDVQQDDAt0ZWFtNjE3
LW5ldIIUB8rONfXZpL1/bKKJtXE4/JlWt60wEwYDVR0lBAwwCgYIKwYBBQUHAwIw
CwYDVR0PBAQDAgeAMA0GCSqGSIb3DQEBCwUAA4IBAQAOMpW4gvSGGXGp6H/MMuLK
9yVX9JCUoPrmiVEL/yVrVrR20doBxZ8eiuiCd2ctfDTtxTZ9FxckcpTZ0hJCJ/Kg
iTx1PB06xzyBljAkpAbQxNjjEqd9aPOk63kLGrYVUuhIw8txn5ZmWyWyPC9pLdrJ
eCs+30g37ar3dIYcwT9cnQT6+VPPZGT0mXkgbzwSsQGb5MbEfpIi8jtTTnGhz8a9
HZB6jsaVLEZGqJiamwTwaQpc9ZJYcqfuCE1uo3qTULyB0/DgLVL5gZjKEE8isYF7
cr+XFKT7ziEHiTaTUW4gMjbDc1JeFtjg5nuQTMQh/yGc7A51saG0sDdMuY9b6WCo
-----END CERTIFICATE-----
