Certificate:
    Data:
        Version: 3 (0x2)
        Serial Number:
            23:c6:19:3d:55:68:fb:62:46:c2:f5:1b:7c:56:b2:25
        Signature Algorithm: sha256WithRSAEncryption
        Issuer: CN=team95-net
        Validity
            Not Before: May 18 14:47:24 2022 GMT
            Not After : May  2 14:47:24 2025 GMT
        Subject: CN=team95-server
        Subject Public Key Info:
            Public Key Algorithm: rsaEncryption
                RSA Public-Key: (2048 bit)
                Modulus:
                    00:b9:ba:6a:8a:d2:62:c0:a7:3e:47:b5:e1:2d:50:
                    a3:06:28:6c:c4:56:c4:a9:7a:1b:75:d0:27:9f:d5:
                    1d:df:0b:a0:75:35:78:a6:5e:5c:8b:42:7a:ad:85:
                    83:07:1c:aa:e1:a5:85:8d:dc:78:70:21:02:06:8c:
                    a7:01:2b:2f:02:7d:c8:4b:a1:92:ff:28:35:ab:bf:
                    52:4a:61:f9:c8:ca:3b:3b:19:b1:22:84:62:44:b6:
                    9b:05:a8:d2:28:c6:b4:e4:1e:c5:ec:07:d2:0b:15:
                    dd:a8:84:79:39:79:cf:4a:5d:4d:05:35:40:15:c3:
                    a8:96:1e:62:fa:05:d1:a2:f5:70:0b:43:b0:46:d5:
                    cf:c1:b8:c3:03:9b:84:5c:d2:73:19:ad:29:8b:d0:
                    5a:87:32:ac:a5:2a:27:56:e3:49:9f:de:95:0b:53:
                    94:87:33:f1:9d:56:ca:3a:01:e7:6b:37:81:53:e3:
                    dd:64:6c:b6:2a:ee:56:c6:84:c1:7f:74:9f:32:8b:
                    ce:99:72:ed:49:72:d6:d6:40:f3:68:71:52:96:03:
                    a1:7d:9c:fe:8f:3f:c3:70:e1:17:e1:19:e8:d3:8e:
                    10:34:d6:ff:33:f0:7c:6f:61:bc:b3:e6:5c:5d:1c:
                    9f:7f:0c:10:8b:1e:60:99:67:47:82:13:c5:53:c8:
                    7d:6f
                Exponent: 65537 (0x10001)
        X509v3 extensions:
            X509v3 Basic Constraints: 
                CA:FALSE
            X509v3 Subject Key Identifier: 
                E7:F0:9C:EA:DD:35:4A:FC:18:F6:CC:B0:A3:7B:25:E9:07:D5:42:C8
            X509v3 Authority Key Identifier: 
                keyid:FA:25:B6:2A:47:D4:12:11:C8:43:0E:5D:41:64:6E:59:CF:F2:E0:14
                DirName:/CN=team95-net
                serial:76:E1:32:8C:FC:9C:5F:30:B0:75:8B:86:91:28:D0:5F:CC:FA:87:CF

            X509v3 Extended Key Usage: 
                TLS Web Server Authentication
            X509v3 Key Usage: 
                Digital Signature, Key Encipherment
            X509v3 Subject Alternative Name: 
                DNS:team95-server
    Signature Algorithm: sha256WithRSAEncryption
         33:83:0c:7b:8a:d4:22:db:a6:52:26:8b:59:2b:9b:c4:f7:8d:
         c4:ac:03:af:7b:11:5a:64:4f:b6:c4:1b:1d:38:55:55:8f:76:
         04:d7:17:d2:c0:d8:df:96:08:13:fa:63:77:03:2e:b8:ee:f6:
         e9:70:79:7b:b9:99:17:59:cb:b5:65:db:12:ff:30:1d:c3:9a:
         65:51:a3:51:93:06:13:e1:14:3a:de:dc:a2:98:b2:83:b1:8b:
         48:94:34:02:4c:67:b3:c3:46:7c:d9:85:cb:19:fd:79:91:f9:
         47:ad:ee:33:51:18:73:71:32:6a:98:ab:6a:c2:37:f1:3f:a8:
         db:8c:ca:7b:32:44:64:89:e6:23:6d:b4:e5:f5:a1:0c:86:34:
         09:02:0d:bf:99:b0:ce:e6:a9:ce:22:12:e6:f0:51:ca:b5:3c:
         80:ae:d3:22:92:12:c0:9d:e9:05:63:93:f2:45:60:f5:58:96:
         fe:0e:27:70:04:de:bb:76:fe:c3:4f:81:d7:9a:ee:b4:c1:a7:
         4c:40:64:45:d7:b6:b1:8b:aa:5c:61:46:19:86:a6:f4:e3:31:
         41:aa:4e:18:99:70:b0:c7:ed:1c:5b:e0:50:24:fa:57:81:13:
         4d:26:0b:e0:d2:39:4c:84:06:63:e7:20:6f:c8:a5:0a:b4:23:
         55:c6:7f:a1
-----BEGIN CERTIFICATE-----
MIIDczCCAlugAwIBAgIQI8YZPVVo+2JGwvUbfFayJTANBgkqhkiG9w0BAQsFADAV
MRMwEQYDVQQDDAp0ZWFtOTUtbmV0MB4XDTIyMDUxODE0NDcyNFoXDTI1MDUwMjE0
NDcyNFowGDEWMBQGA1UEAwwNdGVhbTk1LXNlcnZlcjCCASIwDQYJKoZIhvcNAQEB
BQADggEPADCCAQoCggEBALm6aorSYsCnPke14S1QowYobMRWxKl6G3XQJ5/VHd8L
oHU1eKZeXItCeq2FgwccquGlhY3ceHAhAgaMpwErLwJ9yEuhkv8oNau/Ukph+cjK
OzsZsSKEYkS2mwWo0ijGtOQexewH0gsV3aiEeTl5z0pdTQU1QBXDqJYeYvoF0aL1
cAtDsEbVz8G4wwObhFzScxmtKYvQWocyrKUqJ1bjSZ/elQtTlIcz8Z1WyjoB52s3
gVPj3WRstiruVsaEwX90nzKLzply7Uly1tZA82hxUpYDoX2c/o8/w3DhF+EZ6NOO
EDTW/zPwfG9hvLPmXF0cn38MEIseYJlnR4ITxVPIfW8CAwEAAaOBuzCBuDAJBgNV
HRMEAjAAMB0GA1UdDgQWBBTn8Jzq3TVK/Bj2zLCjeyXpB9VCyDBQBgNVHSMESTBH
gBT6JbYqR9QSEchDDl1BZG5Zz/LgFKEZpBcwFTETMBEGA1UEAwwKdGVhbTk1LW5l
dIIUduEyjPycXzCwdYuGkSjQX8z6h88wEwYDVR0lBAwwCgYIKwYBBQUHAwEwCwYD
VR0PBAQDAgWgMBgGA1UdEQQRMA+CDXRlYW05NS1zZXJ2ZXIwDQYJKoZIhvcNAQEL
BQADggEBADODDHuK1CLbplImi1krm8T3jcSsA697EVpkT7bEGx04VVWPdgTXF9LA
2N+WCBP6Y3cDLrju9ulweXu5mRdZy7Vl2xL/MB3DmmVRo1GTBhPhFDre3KKYsoOx
i0iUNAJMZ7PDRnzZhcsZ/XmR+Uet7jNRGHNxMmqYq2rCN/E/qNuMynsyRGSJ5iNt
tOX1oQyGNAkCDb+ZsM7mqc4iEubwUcq1PICu0yKSEsCd6QVjk/JFYPVYlv4OJ3AE
3rt2/sNPgdea7rTBp0xAZEXXtrGLqlxhRhmGpvTjMUGqThiZcLDH7Rxb4FAk+leB
E00mC+DSOUyEBmPnIG/IpQq0I1XGf6E=
-----END CERTIFICATE-----
