Certificate:
    Data:
        Version: 3 (0x2)
        Serial Number:
            c5:43:ac:bc:a4:6f:45:85:71:c6:63:00:f2:ac:57:e6
        Signature Algorithm: sha256WithRSAEncryption
        Issuer: CN=team507-net
        Validity
            Not Before: May 18 21:49:59 2022 GMT
            Not After : May  2 21:49:59 2025 GMT
        Subject: CN=team507-server
        Subject Public Key Info:
            Public Key Algorithm: rsaEncryption
                RSA Public-Key: (2048 bit)
                Modulus:
                    00:a2:79:bf:d8:a4:cb:c8:19:75:f2:b7:ea:c5:b4:
                    2e:53:cd:3d:43:8b:9a:4a:e9:e1:99:74:fc:83:1a:
                    dc:40:d2:9a:73:c6:15:6f:b3:46:1d:fd:77:39:c1:
                    29:03:82:1f:3e:ef:d9:4b:aa:2e:1d:39:7d:16:f8:
                    40:7b:6a:d3:ea:14:35:9d:d5:67:83:7b:5c:47:a8:
                    48:6d:f1:c9:08:06:5c:d8:01:7c:db:08:ca:b6:ba:
                    65:c1:54:f2:6b:03:85:4c:5a:cd:72:13:69:7c:33:
                    3f:0f:14:32:b6:98:b0:cb:c2:09:6d:7a:86:cd:ac:
                    12:5d:7d:c2:0d:2a:f0:00:89:0e:0f:b6:02:f3:58:
                    6c:40:5d:1c:3a:db:d4:26:77:02:8a:16:41:36:3d:
                    16:ff:39:e2:1c:46:d9:3c:d4:db:2c:45:fc:67:8b:
                    17:bf:b5:2f:da:d5:3a:18:81:53:6e:13:0f:68:0e:
                    ae:5c:87:e3:84:65:07:dc:70:94:e7:1d:ad:bc:b5:
                    ea:ba:ef:f6:33:3f:40:26:91:0a:d6:81:47:5b:21:
                    cc:6a:10:b3:20:52:d3:a5:53:c4:b2:15:1e:69:ab:
                    45:dd:61:02:57:39:41:bc:56:51:7b:6d:32:cd:66:
                    ec:24:70:24:c3:13:d1:d5:dd:86:2b:5b:b9:28:6b:
                    c7:39
                Exponent: 65537 (0x10001)
        X509v3 extensions:
            X509v3 Basic Constraints: 
                CA:FALSE
            X509v3 Subject Key Identifier: 
                97:98:23:96:E4:AC:05:30:5E:90:D4:FC:BE:40:36:62:A5:48:C4:64
            X509v3 Authority Key Identifier: 
                keyid:19:B9:09:13:A8:66:A1:C2:87:50:CB:D8:EB:5A:A7:C7:20:9C:61:FE
                DirName:/CN=team507-net
                serial:22:9F:4F:05:F1:A8:DA:05:E2:D7:61:FA:2B:8A:71:32:28:20:45:F1

            X509v3 Extended Key Usage: 
                TLS Web Server Authentication
            X509v3 Key Usage: 
                Digital Signature, Key Encipherment
            X509v3 Subject Alternative Name: 
                DNS:team507-server
    Signature Algorithm: sha256WithRSAEncryption
         2f:da:d1:a7:9f:a3:ad:24:dd:de:c7:6f:e0:00:b3:6f:ee:d7:
         3c:7b:f9:8e:96:10:05:f3:3f:19:f0:30:16:66:91:18:ba:00:
         3c:4f:33:30:c6:87:30:da:d8:82:a2:9f:c8:40:f3:94:7f:17:
         fc:82:fc:c4:d9:6a:b8:a7:41:a0:46:24:26:fe:6b:41:1b:36:
         dd:dd:92:9f:3f:1a:9b:7f:e5:46:d5:ea:49:f4:7f:a0:11:8c:
         68:58:27:4b:35:37:e3:39:72:93:54:f0:5b:da:82:4d:ef:53:
         18:0f:86:68:6c:bd:d0:fe:6b:be:ed:b4:a5:bd:09:cc:39:d1:
         5e:6f:f5:13:da:10:2e:27:7e:b4:f7:77:f8:7d:f3:dd:51:f6:
         88:f8:a0:1a:3b:5c:88:6b:7a:4e:c2:fc:d6:7e:d5:d0:06:53:
         cb:51:17:0c:64:64:3e:1a:52:3a:ef:3a:ee:b0:f8:87:89:c5:
         3c:d7:73:9a:b6:ed:b3:18:3d:e6:62:3a:fb:5c:6f:79:45:80:
         dc:7a:63:c4:33:ed:9d:e5:c3:80:09:e8:ac:0c:f8:ce:8a:7a:
         94:e3:46:f6:f4:b3:6e:93:0a:95:7d:ef:c9:23:cd:fe:38:c6:
         b6:48:5b:1f:17:8a:44:d9:68:e3:0a:56:50:16:df:0c:a7:cd:
         ae:de:14:c4
-----BEGIN CERTIFICATE-----
MIIDeDCCAmCgAwIBAgIRAMVDrLykb0WFccZjAPKsV+YwDQYJKoZIhvcNAQELBQAw
FjEUMBIGA1UEAwwLdGVhbTUwNy1uZXQwHhcNMjIwNTE4MjE0OTU5WhcNMjUwNTAy
MjE0OTU5WjAZMRcwFQYDVQQDDA50ZWFtNTA3LXNlcnZlcjCCASIwDQYJKoZIhvcN
AQEBBQADggEPADCCAQoCggEBAKJ5v9iky8gZdfK36sW0LlPNPUOLmkrp4Zl0/IMa
3EDSmnPGFW+zRh39dznBKQOCHz7v2UuqLh05fRb4QHtq0+oUNZ3VZ4N7XEeoSG3x
yQgGXNgBfNsIyra6ZcFU8msDhUxazXITaXwzPw8UMraYsMvCCW16hs2sEl19wg0q
8ACJDg+2AvNYbEBdHDrb1CZ3AooWQTY9Fv854hxG2TzU2yxF/GeLF7+1L9rVOhiB
U24TD2gOrlyH44RlB9xwlOcdrby16rrv9jM/QCaRCtaBR1shzGoQsyBS06VTxLIV
HmmrRd1hAlc5QbxWUXttMs1m7CRwJMMT0dXdhitbuShrxzkCAwEAAaOBvTCBujAJ
BgNVHRMEAjAAMB0GA1UdDgQWBBSXmCOW5KwFMF6Q1Py+QDZipUjEZDBRBgNVHSME
SjBIgBQZuQkTqGahwodQy9jrWqfHIJxh/qEapBgwFjEUMBIGA1UEAwwLdGVhbTUw
Ny1uZXSCFCKfTwXxqNoF4tdh+iuKcTIoIEXxMBMGA1UdJQQMMAoGCCsGAQUFBwMB
MAsGA1UdDwQEAwIFoDAZBgNVHREEEjAQgg50ZWFtNTA3LXNlcnZlcjANBgkqhkiG
9w0BAQsFAAOCAQEAL9rRp5+jrSTd3sdv4ACzb+7XPHv5jpYQBfM/GfAwFmaRGLoA
PE8zMMaHMNrYgqKfyEDzlH8X/IL8xNlquKdBoEYkJv5rQRs23d2Snz8am3/lRtXq
SfR/oBGMaFgnSzU34zlyk1TwW9qCTe9TGA+GaGy90P5rvu20pb0JzDnRXm/1E9oQ
Lid+tPd3+H3z3VH2iPigGjtciGt6TsL81n7V0AZTy1EXDGRkPhpSOu867rD4h4nF
PNdzmrbtsxg95mI6+1xveUWA3HpjxDPtneXDgAnorAz4zop6lONG9vSzbpMKlX3v
ySPN/jjGtkhbHxeKRNlo4wpWUBbfDKfNrt4UxA==
-----END CERTIFICATE-----
