Certificate:
    Data:
        Version: 3 (0x2)
        Serial Number:
            c0:7d:37:a3:d9:7e:20:cb:6e:c5:81:71:df:8a:38:86
        Signature Algorithm: sha256WithRSAEncryption
        Issuer: CN=team297-net
        Validity
            Not Before: May 18 20:04:30 2022 GMT
            Not After : May  2 20:04:30 2025 GMT
        Subject: CN=team297-server
        Subject Public Key Info:
            Public Key Algorithm: rsaEncryption
                RSA Public-Key: (2048 bit)
                Modulus:
                    00:a7:fc:ba:81:32:5f:09:3a:de:1d:96:91:d3:f5:
                    9f:df:0d:af:a8:96:ee:eb:e7:7a:4c:01:21:27:44:
                    4a:eb:6f:9a:21:f4:c6:bb:62:61:b0:f2:0c:19:69:
                    b9:23:84:04:a0:5d:be:3c:29:71:12:e7:76:ed:45:
                    3e:da:d3:24:65:06:59:f1:b6:e2:a0:52:22:f5:55:
                    66:1f:3d:67:9e:5d:0a:68:e5:6a:f0:2b:24:18:fd:
                    e1:60:47:5b:64:6b:f2:92:d2:1d:e6:d7:a9:07:92:
                    f8:7c:85:7c:b9:0f:5c:6a:bc:bb:79:ce:d2:4c:b1:
                    2a:0d:2d:e0:62:19:42:9f:96:47:55:49:0e:bd:7d:
                    c3:a1:2f:ff:4b:57:b2:0e:13:71:07:a8:b7:b7:c9:
                    15:39:73:40:3c:88:78:3c:73:e0:85:82:1c:54:81:
                    7f:9b:d4:1f:88:38:a7:e3:69:09:3c:bb:6a:24:54:
                    c4:3f:42:3c:ce:44:f9:80:91:2b:63:cd:b4:ab:38:
                    1e:e1:23:25:20:e7:22:57:de:b1:b8:93:db:83:5c:
                    f7:a7:03:89:d5:dc:cd:28:14:2f:b4:eb:0f:3b:f3:
                    be:df:47:cc:11:e3:63:87:a7:cf:a3:15:2c:d2:67:
                    29:ba:92:66:56:b8:52:ba:9a:c8:e8:61:52:41:f6:
                    58:81
                Exponent: 65537 (0x10001)
        X509v3 extensions:
            X509v3 Basic Constraints: 
                CA:FALSE
            X509v3 Subject Key Identifier: 
                D3:70:9E:52:D2:25:55:0E:CD:5B:43:9D:72:15:AE:D8:8A:B5:86:D4
            X509v3 Authority Key Identifier: 
                keyid:AC:6B:61:EF:42:59:0B:0D:3A:61:59:B7:F2:EE:C4:90:79:C2:00:BA
                DirName:/CN=team297-net
                serial:7D:46:9D:FD:CE:63:7C:B0:BB:72:9F:19:ED:84:04:42:14:7C:4A:BF

            X509v3 Extended Key Usage: 
                TLS Web Server Authentication
            X509v3 Key Usage: 
                Digital Signature, Key Encipherment
            X509v3 Subject Alternative Name: 
                DNS:team297-server
    Signature Algorithm: sha256WithRSAEncryption
         8b:7d:5b:2d:8c:35:c2:77:cb:9b:8f:67:d0:27:da:76:e0:0a:
         34:ac:c1:c1:ee:da:75:4d:90:5e:d4:f1:18:0f:94:98:9d:3f:
         f9:ff:59:1e:e8:a7:59:d4:e3:35:4e:58:63:ee:78:7a:8c:23:
         48:49:97:7b:fb:9e:b6:cf:15:dd:2d:5a:96:98:e1:ad:aa:9d:
         c9:c0:b7:87:a5:ee:53:d7:45:ab:fa:95:48:0a:00:53:50:63:
         f5:83:1f:56:f4:1d:89:7a:65:95:a0:05:a1:00:08:1f:7a:b2:
         9e:e2:0f:5e:4f:8f:54:3e:c5:a3:5b:0b:5c:69:84:73:a8:ed:
         c7:2b:83:aa:2a:53:19:7c:14:5b:10:79:cc:2d:16:2c:1d:61:
         8e:00:22:f0:24:68:d0:b2:a6:17:ed:24:15:f9:db:cc:e5:a1:
         2f:9a:34:92:4b:16:52:f7:82:87:79:0a:ca:ec:78:de:7c:bf:
         80:a4:22:fd:f7:f9:32:9c:4e:f7:17:f8:ff:68:90:7b:ec:57:
         bd:00:c8:35:2c:bf:a9:36:de:db:a9:7e:e6:ed:3e:b1:64:8d:
         06:b7:08:39:ad:c3:13:0b:e8:1b:1a:44:f6:a8:a3:74:4e:76:
         fd:8a:4c:1a:fc:57:9a:43:ad:a7:b4:4f:14:10:48:89:de:f9:
         af:82:a5:49
-----BEGIN CERTIFICATE-----
MIIDeDCCAmCgAwIBAgIRAMB9N6PZfiDLbsWBcd+KOIYwDQYJKoZIhvcNAQELBQAw
FjEUMBIGA1UEAwwLdGVhbTI5Ny1uZXQwHhcNMjIwNTE4MjAwNDMwWhcNMjUwNTAy
MjAwNDMwWjAZMRcwFQYDVQQDDA50ZWFtMjk3LXNlcnZlcjCCASIwDQYJKoZIhvcN
AQEBBQADggEPADCCAQoCggEBAKf8uoEyXwk63h2WkdP1n98Nr6iW7uvnekwBISdE
SutvmiH0xrtiYbDyDBlpuSOEBKBdvjwpcRLndu1FPtrTJGUGWfG24qBSIvVVZh89
Z55dCmjlavArJBj94WBHW2Rr8pLSHebXqQeS+HyFfLkPXGq8u3nO0kyxKg0t4GIZ
Qp+WR1VJDr19w6Ev/0tXsg4TcQeot7fJFTlzQDyIeDxz4IWCHFSBf5vUH4g4p+Np
CTy7aiRUxD9CPM5E+YCRK2PNtKs4HuEjJSDnIlfesbiT24Nc96cDidXczSgUL7Tr
Dzvzvt9HzBHjY4enz6MVLNJnKbqSZla4UrqayOhhUkH2WIECAwEAAaOBvTCBujAJ
BgNVHRMEAjAAMB0GA1UdDgQWBBTTcJ5S0iVVDs1bQ51yFa7YirWG1DBRBgNVHSME
SjBIgBSsa2HvQlkLDTphWbfy7sSQecIAuqEapBgwFjEUMBIGA1UEAwwLdGVhbTI5
Ny1uZXSCFH1Gnf3OY3ywu3KfGe2EBEIUfEq/MBMGA1UdJQQMMAoGCCsGAQUFBwMB
MAsGA1UdDwQEAwIFoDAZBgNVHREEEjAQgg50ZWFtMjk3LXNlcnZlcjANBgkqhkiG
9w0BAQsFAAOCAQEAi31bLYw1wnfLm49n0CfaduAKNKzBwe7adU2QXtTxGA+UmJ0/
+f9ZHuinWdTjNU5YY+54eowjSEmXe/uets8V3S1alpjhraqdycC3h6XuU9dFq/qV
SAoAU1Bj9YMfVvQdiXpllaAFoQAIH3qynuIPXk+PVD7Fo1sLXGmEc6jtxyuDqipT
GXwUWxB5zC0WLB1hjgAi8CRo0LKmF+0kFfnbzOWhL5o0kksWUveCh3kKyux43ny/
gKQi/ff5MpxO9xf4/2iQe+xXvQDINSy/qTbe26l+5u0+sWSNBrcIOa3DEwvoGxpE
9qijdE52/YpMGvxXmkOtp7RPFBBIid75r4KlSQ==
-----END CERTIFICATE-----
