Certificate:
    Data:
        Version: 3 (0x2)
        Serial Number:
            e0:e0:94:d8:fb:02:eb:30:fd:57:ee:f5:5d:94:27:50
        Signature Algorithm: sha256WithRSAEncryption
        Issuer: CN=team308-net
        Validity
            Not Before: May 18 20:13:11 2022 GMT
            Not After : May  2 20:13:11 2025 GMT
        Subject: CN=team308-client
        Subject Public Key Info:
            Public Key Algorithm: rsaEncryption
                RSA Public-Key: (2048 bit)
                Modulus:
                    00:95:df:f3:9c:57:e7:b9:49:a9:a2:7e:88:f6:4b:
                    3a:f5:91:2d:ea:75:74:de:f3:ab:35:13:23:8c:ca:
                    bf:87:a8:c4:0d:7a:6c:14:46:f7:63:d1:52:03:27:
                    28:55:a3:ac:c1:e7:fd:99:d4:ab:cc:a9:6f:c3:f5:
                    c3:f2:65:55:cb:f0:a4:da:b5:73:8d:a3:55:cd:3b:
                    13:54:07:cc:db:10:a3:be:ad:27:16:5f:c9:f9:9f:
                    a8:26:17:a1:37:b5:e5:72:c0:be:d6:db:99:78:93:
                    ee:2b:b7:bd:59:b4:ef:1f:66:b5:6f:6f:99:99:06:
                    95:1a:f0:ed:a0:3a:ad:18:97:08:31:80:d8:aa:7e:
                    25:c1:2a:23:df:34:36:3f:ed:3e:e0:19:60:fc:6c:
                    82:cc:db:09:2e:c1:ef:df:b7:05:d8:03:68:6a:ad:
                    39:4e:61:71:ad:9b:2a:6f:d3:5b:ce:57:f0:d0:8b:
                    7e:de:f6:72:d2:3b:3f:4a:77:db:f1:51:89:78:01:
                    97:25:55:f8:ac:c3:28:f2:6b:11:49:bd:b2:9b:2a:
                    d2:bd:85:23:fd:a1:9c:2d:fd:9c:06:9c:ff:a5:a1:
                    30:0b:1d:69:70:5f:75:2d:4e:34:89:9a:3e:10:a4:
                    7e:2e:51:7d:eb:41:2d:41:05:60:cd:a4:07:6a:39:
                    ac:1b
                Exponent: 65537 (0x10001)
        X509v3 extensions:
            X509v3 Basic Constraints: 
                CA:FALSE
            X509v3 Subject Key Identifier: 
                1F:74:65:02:CC:F4:55:AA:8F:16:81:C5:29:D0:15:D6:C1:6C:34:F5
            X509v3 Authority Key Identifier: 
                keyid:0A:58:B7:2E:15:2D:5E:93:DD:EF:C5:99:C8:37:79:BF:7D:4D:AD:8D
                DirName:/CN=team308-net
                serial:75:96:2F:5D:4E:5A:A4:80:5E:B9:CE:FB:E6:32:4A:89:CA:01:3C:E8

            X509v3 Extended Key Usage: 
                TLS Web Client Authentication
            X509v3 Key Usage: 
                Digital Signature
    Signature Algorithm: sha256WithRSAEncryption
         8d:4e:5c:0a:c1:27:6f:84:60:40:4b:c5:1c:08:54:6c:9a:95:
         58:93:7f:38:9f:bf:ae:b7:01:6b:56:6c:5a:c5:c1:52:57:f7:
         24:5c:97:25:5d:69:f0:9c:fa:d6:e2:01:39:94:e6:de:38:1b:
         26:12:aa:3d:57:32:0b:5b:fe:9d:43:c9:96:b9:91:71:05:37:
         34:44:05:7e:c2:02:be:2b:13:48:7e:c2:2c:33:3b:9b:f2:20:
         90:ca:54:49:04:3a:74:12:5b:2a:8a:8b:3a:c6:d5:c8:42:e6:
         93:01:c8:3f:41:1f:0e:5a:04:10:24:cc:65:df:29:17:b0:60:
         68:b9:0a:b1:a3:35:25:90:75:62:bd:d5:0c:51:98:c8:45:e3:
         6b:cb:7e:b4:45:6e:6d:60:97:cb:b9:b2:0c:25:bc:0a:c8:f0:
         fc:47:79:19:31:69:c8:92:f5:93:d6:e0:ad:64:ca:a6:c2:33:
         48:ed:0e:a0:06:20:88:f7:19:74:d9:06:8a:3b:5f:66:6a:b8:
         15:d4:83:d7:33:e8:ad:5b:57:49:ae:a1:2a:96:b9:a4:56:5b:
         c5:35:38:f9:22:94:f0:2e:c1:be:08:63:3b:f4:b0:64:d7:f1:
         b0:69:a9:d2:0f:db:6d:fc:23:10:46:34:66:de:d8:00:a6:b4:
         9a:17:e1:0a
-----BEGIN CERTIFICATE-----
MIIDXTCCAkWgAwIBAgIRAODglNj7Ausw/Vfu9V2UJ1AwDQYJKoZIhvcNAQELBQAw
FjEUMBIGA1UEAwwLdGVhbTMwOC1uZXQwHhcNMjIwNTE4MjAxMzExWhcNMjUwNTAy
MjAxMzExWjAZMRcwFQYDVQQDDA50ZWFtMzA4LWNsaWVudDCCASIwDQYJKoZIhvcN
AQEBBQADggEPADCCAQoCggEBAJXf85xX57lJqaJ+iPZLOvWRLep1dN7zqzUTI4zK
v4eoxA16bBRG92PRUgMnKFWjrMHn/ZnUq8ypb8P1w/JlVcvwpNq1c42jVc07E1QH
zNsQo76tJxZfyfmfqCYXoTe15XLAvtbbmXiT7iu3vVm07x9mtW9vmZkGlRrw7aA6
rRiXCDGA2Kp+JcEqI980Nj/tPuAZYPxsgszbCS7B79+3BdgDaGqtOU5hca2bKm/T
W85X8NCLft72ctI7P0p32/FRiXgBlyVV+KzDKPJrEUm9spsq0r2FI/2hnC39nAac
/6WhMAsdaXBfdS1ONImaPhCkfi5RfetBLUEFYM2kB2o5rBsCAwEAAaOBojCBnzAJ
BgNVHRMEAjAAMB0GA1UdDgQWBBQfdGUCzPRVqo8WgcUp0BXWwWw09TBRBgNVHSME
SjBIgBQKWLcuFS1ek93vxZnIN3m/fU2tjaEapBgwFjEUMBIGA1UEAwwLdGVhbTMw
OC1uZXSCFHWWL11OWqSAXrnO++YySonKATzoMBMGA1UdJQQMMAoGCCsGAQUFBwMC
MAsGA1UdDwQEAwIHgDANBgkqhkiG9w0BAQsFAAOCAQEAjU5cCsEnb4RgQEvFHAhU
bJqVWJN/OJ+/rrcBa1ZsWsXBUlf3JFyXJV1p8Jz61uIBOZTm3jgbJhKqPVcyC1v+
nUPJlrmRcQU3NEQFfsICvisTSH7CLDM7m/IgkMpUSQQ6dBJbKoqLOsbVyELmkwHI
P0EfDloEECTMZd8pF7BgaLkKsaM1JZB1Yr3VDFGYyEXja8t+tEVubWCXy7myDCW8
Csjw/Ed5GTFpyJL1k9bgrWTKpsIzSO0OoAYgiPcZdNkGijtfZmq4FdSD1zPorVtX
Sa6hKpa5pFZbxTU4+SKU8C7BvghjO/SwZNfxsGmp0g/bbfwjEEY0Zt7YAKa0mhfh
Cg==
-----END CERTIFICATE-----
