Certificate:
    Data:
        Version: 3 (0x2)
        Serial Number:
            55:d4:01:ca:6c:93:de:a8:18:7e:2f:78:24:a5:e1:39
        Signature Algorithm: sha256WithRSAEncryption
        Issuer: CN=team643-net
        Validity
            Not Before: May 18 23:16:06 2022 GMT
            Not After : May  2 23:16:06 2025 GMT
        Subject: CN=team643-client
        Subject Public Key Info:
            Public Key Algorithm: rsaEncryption
                RSA Public-Key: (2048 bit)
                Modulus:
                    00:a2:0f:80:32:00:a2:bb:f2:35:62:de:8d:f2:7c:
                    77:e1:ee:48:d9:f3:1a:18:5c:ed:a6:19:1f:27:44:
                    44:35:57:c1:b6:2e:01:cc:d0:51:8f:97:dd:19:38:
                    dc:e7:ea:de:f5:14:c0:a9:04:0b:fe:ec:24:dd:b1:
                    a9:72:3e:c6:35:cf:ef:80:d9:dc:b9:e6:e1:45:80:
                    06:96:2c:fc:02:d1:f4:ab:c1:b8:36:85:78:be:7a:
                    43:cf:9b:79:94:4e:0f:e7:bc:f5:21:33:33:b5:22:
                    60:18:59:ec:9a:8f:5b:85:92:20:1e:d1:90:cc:5a:
                    df:40:30:74:77:50:63:2e:b4:53:e7:f0:3b:a4:05:
                    13:21:b5:3c:93:c9:86:ac:00:f2:d9:af:ce:c9:b0:
                    bd:91:ca:01:dd:35:84:1e:f4:91:9c:ab:10:8d:ac:
                    a9:e1:a2:e3:85:d0:0c:2d:de:69:9f:b5:2e:66:fd:
                    90:cc:20:cf:c6:37:e1:31:d5:9c:6d:79:6a:79:51:
                    bd:1f:f4:aa:03:ba:0c:43:24:3a:78:e5:15:8c:99:
                    39:e6:59:93:0d:e7:52:5a:cc:5e:77:e7:4e:e3:67:
                    1e:bc:bb:02:45:9a:25:f1:64:d4:d7:fe:8e:fe:0d:
                    6f:cb:23:10:4b:3a:c7:da:1e:d8:f8:b3:c3:a8:de:
                    b0:0b
                Exponent: 65537 (0x10001)
        X509v3 extensions:
            X509v3 Basic Constraints: 
                CA:FALSE
            X509v3 Subject Key Identifier: 
                3C:6B:DB:9E:5C:30:EE:84:98:2D:FC:AB:D0:93:06:AA:ED:58:87:6B
            X509v3 Authority Key Identifier: 
                keyid:F2:44:3C:60:03:F0:1F:1F:64:8B:7F:09:2A:E7:BE:58:23:C2:B5:C3
                DirName:/CN=team643-net
                serial:61:2F:7B:BC:FE:2F:6F:B2:62:DC:39:43:2D:3A:A4:D2:31:71:8C:76

            X509v3 Extended Key Usage: 
                TLS Web Client Authentication
            X509v3 Key Usage: 
                Digital Signature
    Signature Algorithm: sha256WithRSAEncryption
         25:d3:f9:b4:5e:81:b9:94:17:26:3c:dc:c8:39:72:0f:dd:eb:
         52:42:3f:c5:fd:51:81:6f:b4:e1:18:59:4a:26:70:e9:1b:a1:
         23:35:8e:ba:7e:48:be:41:6f:c8:35:57:d4:63:a8:b4:86:eb:
         db:df:9e:a3:32:c5:f6:3a:0d:1d:72:a2:1d:53:d0:b7:c2:9b:
         66:e5:d5:52:dd:b5:06:cf:2c:82:27:8d:ab:aa:a8:dd:09:d5:
         ef:dc:b7:1a:37:aa:80:a9:b4:12:bf:b6:fb:b0:c1:ab:13:c3:
         04:a3:72:c8:45:9c:7f:69:71:a8:86:7c:bb:b0:5b:0c:07:cf:
         01:17:0f:22:4f:ac:0f:92:21:3f:88:9e:43:d5:90:de:96:66:
         1b:10:6d:49:58:49:87:da:5f:9c:52:1e:4b:27:26:16:dd:6f:
         cc:01:0e:9a:a1:e7:83:7a:29:17:9b:7c:e2:a2:e4:69:a8:cd:
         eb:3b:b9:f4:df:85:4a:89:22:d7:bc:80:1a:f1:58:66:fa:30:
         5d:88:d4:bc:e2:22:9b:c8:d6:8b:dd:9c:63:0f:df:cc:78:64:
         dc:83:56:d2:fe:ba:1d:97:da:40:80:12:f8:6f:9d:e8:6f:18:
         f4:ec:4b:a1:f3:45:d8:d0:01:38:c4:7d:73:6f:bd:b2:79:ac:
         12:ab:0a:da
-----BEGIN CERTIFICATE-----
MIIDXDCCAkSgAwIBAgIQVdQBymyT3qgYfi94JKXhOTANBgkqhkiG9w0BAQsFADAW
MRQwEgYDVQQDDAt0ZWFtNjQzLW5ldDAeFw0yMjA1MTgyMzE2MDZaFw0yNTA1MDIy
MzE2MDZaMBkxFzAVBgNVBAMMDnRlYW02NDMtY2xpZW50MIIBIjANBgkqhkiG9w0B
AQEFAAOCAQ8AMIIBCgKCAQEAog+AMgCiu/I1Yt6N8nx34e5I2fMaGFztphkfJ0RE
NVfBti4BzNBRj5fdGTjc5+re9RTAqQQL/uwk3bGpcj7GNc/vgNncuebhRYAGliz8
AtH0q8G4NoV4vnpDz5t5lE4P57z1ITMztSJgGFnsmo9bhZIgHtGQzFrfQDB0d1Bj
LrRT5/A7pAUTIbU8k8mGrADy2a/OybC9kcoB3TWEHvSRnKsQjayp4aLjhdAMLd5p
n7UuZv2QzCDPxjfhMdWcbXlqeVG9H/SqA7oMQyQ6eOUVjJk55lmTDedSWsxed+dO
42cevLsCRZol8WTU1/6O/g1vyyMQSzrH2h7Y+LPDqN6wCwIDAQABo4GiMIGfMAkG
A1UdEwQCMAAwHQYDVR0OBBYEFDxr255cMO6EmC38q9CTBqrtWIdrMFEGA1UdIwRK
MEiAFPJEPGAD8B8fZIt/CSrnvlgjwrXDoRqkGDAWMRQwEgYDVQQDDAt0ZWFtNjQz
LW5ldIIUYS97vP4vb7Ji3DlDLTqk0jFxjHYwEwYDVR0lBAwwCgYIKwYBBQUHAwIw
CwYDVR0PBAQDAgeAMA0GCSqGSIb3DQEBCwUAA4IBAQAl0/m0XoG5lBcmPNzIOXIP
3etSQj/F/VGBb7ThGFlKJnDpG6EjNY66fki+QW/INVfUY6i0huvb356jMsX2Og0d
cqIdU9C3wptm5dVS3bUGzyyCJ42rqqjdCdXv3LcaN6qAqbQSv7b7sMGrE8MEo3LI
RZx/aXGohny7sFsMB88BFw8iT6wPkiE/iJ5D1ZDelmYbEG1JWEmH2l+cUh5LJyYW
3W/MAQ6aoeeDeikXm3ziouRpqM3rO7n034VKiSLXvIAa8Vhm+jBdiNS84iKbyNaL
3ZxjD9/MeGTcg1bS/rodl9pAgBL4b53obxj07Euh80XY0AE4xH1zb72yeawSqwra
-----END CERTIFICATE-----
