Certificate:
    Data:
        Version: 3 (0x2)
        Serial Number:
            f6:7b:8c:cf:d6:f5:56:4b:83:25:4d:7c:08:10:7b:bd
        Signature Algorithm: sha256WithRSAEncryption
        Issuer: CN=team643-net
        Validity
            Not Before: May 18 23:16:06 2022 GMT
            Not After : May  2 23:16:06 2025 GMT
        Subject: CN=team643-server
        Subject Public Key Info:
            Public Key Algorithm: rsaEncryption
                RSA Public-Key: (2048 bit)
                Modulus:
                    00:dc:8b:c2:60:3c:bd:3b:21:ae:14:b6:e5:d6:e3:
                    15:4c:ab:60:c7:07:31:82:48:93:55:44:2b:5e:dc:
                    05:b3:3e:91:08:95:e2:85:d0:04:08:7d:23:80:4f:
                    db:87:7e:86:31:ac:fa:6f:10:bf:a0:39:6d:93:76:
                    78:a5:95:df:ab:8d:94:ae:c5:bd:55:62:f6:ca:d6:
                    38:9b:14:4f:1f:06:c0:83:97:63:92:6f:28:61:10:
                    47:27:a7:98:da:d3:40:25:f2:8b:36:74:53:9d:5b:
                    6d:20:dc:4a:be:b2:51:5a:5a:d0:bb:95:3c:26:04:
                    df:9b:ef:03:bf:2c:a6:41:79:60:b9:58:4e:85:5a:
                    37:ef:80:c2:78:0f:1e:d2:9c:3e:1f:45:83:b8:26:
                    4d:e6:0f:4d:0c:e8:bf:1d:f7:9d:01:d6:f7:f4:ea:
                    e0:90:4d:9b:5e:75:9d:72:87:6c:a8:d0:7f:71:f9:
                    a8:e2:30:88:f7:61:74:1f:92:c3:76:55:a5:da:fc:
                    c5:25:55:b7:2d:76:a6:57:29:f5:3e:09:25:32:69:
                    6b:da:e7:72:86:ce:b9:e7:cf:8d:46:df:5e:55:de:
                    9a:4e:4e:3e:09:b8:d3:dc:a9:13:da:e9:3d:b2:1e:
                    9e:23:8d:95:40:a0:93:6c:52:43:b3:69:41:2c:95:
                    c2:c9
                Exponent: 65537 (0x10001)
        X509v3 extensions:
            X509v3 Basic Constraints: 
                CA:FALSE
            X509v3 Subject Key Identifier: 
                6F:5E:0F:4F:1C:9C:6E:A6:C1:8C:ED:5B:2F:33:C1:79:0E:CD:FC:05
            X509v3 Authority Key Identifier: 
                keyid:F2:44:3C:60:03:F0:1F:1F:64:8B:7F:09:2A:E7:BE:58:23:C2:B5:C3
                DirName:/CN=team643-net
                serial:61:2F:7B:BC:FE:2F:6F:B2:62:DC:39:43:2D:3A:A4:D2:31:71:8C:76

            X509v3 Extended Key Usage: 
                TLS Web Server Authentication
            X509v3 Key Usage: 
                Digital Signature, Key Encipherment
            X509v3 Subject Alternative Name: 
                DNS:team643-server
    Signature Algorithm: sha256WithRSAEncryption
         aa:5e:a7:fc:46:c7:25:7a:d2:83:59:27:48:43:cf:47:89:6b:
         a4:38:c6:47:80:70:00:d1:c6:46:9f:e9:12:0d:6b:c1:a5:a6:
         6f:c3:b2:4d:87:d2:eb:01:86:9b:61:96:94:9d:41:7d:8a:d7:
         7f:9d:bc:ef:5b:a3:4b:10:98:86:e3:6f:10:8f:92:f0:bf:c5:
         13:51:91:dc:0b:ea:3d:8b:9e:17:71:8c:9f:7e:0e:1b:68:2f:
         e0:d3:03:e8:12:42:c4:d8:b6:79:cf:0d:a6:e3:b0:b3:22:44:
         a4:da:4b:9f:63:6d:c0:a3:92:f6:9e:0a:2d:b9:4c:fb:bb:10:
         53:ca:77:b2:72:74:5e:d3:f8:27:87:f1:94:50:d6:95:86:8b:
         41:14:92:96:f5:9d:d6:02:ce:ed:c3:b3:16:c6:96:d6:2d:64:
         8d:03:83:6a:70:ff:1c:71:76:bc:55:fd:9e:98:5d:b1:bd:53:
         a7:83:ac:b2:12:a2:53:b3:97:d2:87:c8:a6:91:9b:ab:11:31:
         0c:46:a1:88:3b:b7:59:aa:09:7e:c7:66:9e:45:9a:dd:6d:d1:
         69:fc:e3:b5:6c:de:d5:26:26:06:65:1f:bc:8e:26:e7:30:f5:
         c9:f8:1c:81:58:dc:5f:bd:af:2b:b7:d1:96:1b:f7:e7:2b:b4:
         03:ac:b9:f9
-----BEGIN CERTIFICATE-----
MIIDeDCCAmCgAwIBAgIRAPZ7jM/W9VZLgyVNfAgQe70wDQYJKoZIhvcNAQELBQAw
FjEUMBIGA1UEAwwLdGVhbTY0My1uZXQwHhcNMjIwNTE4MjMxNjA2WhcNMjUwNTAy
MjMxNjA2WjAZMRcwFQYDVQQDDA50ZWFtNjQzLXNlcnZlcjCCASIwDQYJKoZIhvcN
AQEBBQADggEPADCCAQoCggEBANyLwmA8vTshrhS25dbjFUyrYMcHMYJIk1VEK17c
BbM+kQiV4oXQBAh9I4BP24d+hjGs+m8Qv6A5bZN2eKWV36uNlK7FvVVi9srWOJsU
Tx8GwIOXY5JvKGEQRyenmNrTQCXyizZ0U51bbSDcSr6yUVpa0LuVPCYE35vvA78s
pkF5YLlYToVaN++AwngPHtKcPh9Fg7gmTeYPTQzovx33nQHW9/Tq4JBNm151nXKH
bKjQf3H5qOIwiPdhdB+Sw3ZVpdr8xSVVty12plcp9T4JJTJpa9rncobOuefPjUbf
XlXemk5OPgm409ypE9rpPbIeniONlUCgk2xSQ7NpQSyVwskCAwEAAaOBvTCBujAJ
BgNVHRMEAjAAMB0GA1UdDgQWBBRvXg9PHJxupsGM7VsvM8F5Ds38BTBRBgNVHSME
SjBIgBTyRDxgA/AfH2SLfwkq575YI8K1w6EapBgwFjEUMBIGA1UEAwwLdGVhbTY0
My1uZXSCFGEve7z+L2+yYtw5Qy06pNIxcYx2MBMGA1UdJQQMMAoGCCsGAQUFBwMB
MAsGA1UdDwQEAwIFoDAZBgNVHREEEjAQgg50ZWFtNjQzLXNlcnZlcjANBgkqhkiG
9w0BAQsFAAOCAQEAql6n/EbHJXrSg1knSEPPR4lrpDjGR4BwANHGRp/pEg1rwaWm
b8OyTYfS6wGGm2GWlJ1BfYrXf52871ujSxCYhuNvEI+S8L/FE1GR3AvqPYueF3GM
n34OG2gv4NMD6BJCxNi2ec8NpuOwsyJEpNpLn2NtwKOS9p4KLblM+7sQU8p3snJ0
XtP4J4fxlFDWlYaLQRSSlvWd1gLO7cOzFsaW1i1kjQODanD/HHF2vFX9nphdsb1T
p4OsshKiU7OX0ofIppGbqxExDEahiDu3WaoJfsdmnkWa3W3RafzjtWze1SYmBmUf
vI4m5zD1yfgcgVjcX72vK7fRlhv35yu0A6y5+Q==
-----END CERTIFICATE-----
