Certificate:
    Data:
        Version: 3 (0x2)
        Serial Number:
            f7:3c:1f:76:4e:c6:e8:93:aa:f7:ac:56:00:1d:ea:c2
        Signature Algorithm: sha256WithRSAEncryption
        Issuer: CN=team241-net
        Validity
            Not Before: May 18 19:35:51 2022 GMT
            Not After : May  2 19:35:51 2025 GMT
        Subject: CN=team241-server
        Subject Public Key Info:
            Public Key Algorithm: rsaEncryption
                RSA Public-Key: (2048 bit)
                Modulus:
                    00:cc:5b:91:d9:82:2f:22:b9:17:fc:f5:80:d8:66:
                    0c:a5:5c:bd:db:7c:b1:0f:1a:e8:36:c1:e6:71:bc:
                    c2:d6:15:6e:72:81:0c:25:3c:b6:87:d3:97:ba:a9:
                    f8:c7:07:62:68:80:6e:a9:0c:b2:d8:0e:d7:af:b7:
                    a1:05:06:35:38:20:01:fd:5a:47:32:85:8e:8c:fe:
                    7b:d4:6e:52:19:ec:fa:c3:9b:50:d5:30:11:21:78:
                    20:df:16:7d:9c:30:1e:0b:31:b9:5e:ab:a7:56:72:
                    a3:a0:c3:30:61:ed:a4:6d:ce:25:8c:9b:48:5e:e5:
                    3c:ea:0a:ae:9b:80:81:c2:e0:7c:3b:ee:06:f3:8c:
                    0e:cf:74:8b:2b:e0:5c:8c:41:71:af:b4:25:b3:67:
                    c4:69:bf:02:07:72:bc:11:22:52:d7:eb:82:63:f8:
                    58:15:71:68:9e:de:00:02:e0:00:b4:60:0a:87:d9:
                    7d:c3:b1:8b:7d:64:57:a7:ed:69:93:51:09:8b:b1:
                    79:98:00:79:02:a0:c6:a7:05:f3:3f:11:8a:10:fd:
                    ee:fc:6c:5a:0a:fc:7c:98:7c:50:45:79:c4:9d:cd:
                    63:36:2b:0d:d4:9e:c1:a9:0a:80:1f:a5:4b:52:69:
                    d7:e1:19:e6:b2:a6:07:37:32:3d:da:de:2c:8a:db:
                    e5:ab
                Exponent: 65537 (0x10001)
        X509v3 extensions:
            X509v3 Basic Constraints: 
                CA:FALSE
            X509v3 Subject Key Identifier: 
                84:9F:96:48:AF:1D:34:03:A0:9D:BF:B3:D2:F8:96:D0:9F:9E:6F:FE
            X509v3 Authority Key Identifier: 
                keyid:7F:98:11:A8:7B:7C:D2:47:4B:B6:8E:98:72:9A:E0:9A:29:DD:25:38
                DirName:/CN=team241-net
                serial:68:85:71:14:2C:C2:B3:EA:7C:06:65:68:8E:72:33:93:43:21:33:AB

            X509v3 Extended Key Usage: 
                TLS Web Server Authentication
            X509v3 Key Usage: 
                Digital Signature, Key Encipherment
            X509v3 Subject Alternative Name: 
                DNS:team241-server
    Signature Algorithm: sha256WithRSAEncryption
         61:11:90:c5:f5:22:38:ac:5e:fb:c7:99:c5:d3:bf:d8:fa:7b:
         ed:7a:b5:ce:f0:33:72:fd:c0:cc:34:46:f8:97:d7:be:fa:57:
         5c:c7:62:85:ab:11:2d:17:0e:2f:d4:73:58:a3:f5:31:0a:a3:
         c9:05:69:22:c2:7a:87:7a:4f:04:cc:02:e7:c8:d4:b4:35:e6:
         08:0f:af:28:2a:17:7f:91:55:c8:e1:bc:a1:33:b7:0b:0e:6e:
         7c:fc:49:fa:df:89:20:86:41:dc:df:1b:c6:fe:22:7b:5d:54:
         00:d8:ad:e1:91:4e:e8:d6:bf:85:19:2b:9d:f8:4c:b6:a6:50:
         cf:7d:8c:af:89:8a:78:2a:67:8a:fa:a5:d9:7b:27:56:16:85:
         37:e8:88:29:dc:b2:6f:1c:fd:8b:cf:27:07:87:51:89:5d:72:
         7f:b9:4e:c1:61:07:cd:07:b7:b4:18:51:c5:8c:d1:0c:e4:97:
         99:ed:28:4a:22:9e:26:e4:b6:ce:b6:9c:5b:93:54:a8:54:a3:
         43:1b:eb:59:80:0f:ff:66:f5:52:d9:3d:ab:33:02:1e:0b:c8:
         0f:8d:7b:20:51:a4:78:1f:32:27:32:7e:1f:68:98:26:62:29:
         76:ca:f5:c4:d9:8c:4b:7f:25:ee:b1:c8:42:95:91:38:5c:5f:
         66:bf:76:5a
-----BEGIN CERTIFICATE-----
MIIDeDCCAmCgAwIBAgIRAPc8H3ZOxuiTqvesVgAd6sIwDQYJKoZIhvcNAQELBQAw
FjEUMBIGA1UEAwwLdGVhbTI0MS1uZXQwHhcNMjIwNTE4MTkzNTUxWhcNMjUwNTAy
MTkzNTUxWjAZMRcwFQYDVQQDDA50ZWFtMjQxLXNlcnZlcjCCASIwDQYJKoZIhvcN
AQEBBQADggEPADCCAQoCggEBAMxbkdmCLyK5F/z1gNhmDKVcvdt8sQ8a6DbB5nG8
wtYVbnKBDCU8tofTl7qp+McHYmiAbqkMstgO16+3oQUGNTggAf1aRzKFjoz+e9Ru
Uhns+sObUNUwESF4IN8WfZwwHgsxuV6rp1Zyo6DDMGHtpG3OJYybSF7lPOoKrpuA
gcLgfDvuBvOMDs90iyvgXIxBca+0JbNnxGm/AgdyvBEiUtfrgmP4WBVxaJ7eAALg
ALRgCofZfcOxi31kV6ftaZNRCYuxeZgAeQKgxqcF8z8RihD97vxsWgr8fJh8UEV5
xJ3NYzYrDdSewakKgB+lS1Jp1+EZ5rKmBzcyPdreLIrb5asCAwEAAaOBvTCBujAJ
BgNVHRMEAjAAMB0GA1UdDgQWBBSEn5ZIrx00A6Cdv7PS+JbQn55v/jBRBgNVHSME
SjBIgBR/mBGoe3zSR0u2jphymuCaKd0lOKEapBgwFjEUMBIGA1UEAwwLdGVhbTI0
MS1uZXSCFGiFcRQswrPqfAZlaI5yM5NDITOrMBMGA1UdJQQMMAoGCCsGAQUFBwMB
MAsGA1UdDwQEAwIFoDAZBgNVHREEEjAQgg50ZWFtMjQxLXNlcnZlcjANBgkqhkiG
9w0BAQsFAAOCAQEAYRGQxfUiOKxe+8eZxdO/2Pp77Xq1zvAzcv3AzDRG+JfXvvpX
XMdihasRLRcOL9RzWKP1MQqjyQVpIsJ6h3pPBMwC58jUtDXmCA+vKCoXf5FVyOG8
oTO3Cw5ufPxJ+t+JIIZB3N8bxv4ie11UANit4ZFO6Na/hRkrnfhMtqZQz32Mr4mK
eCpnivql2XsnVhaFN+iIKdyybxz9i88nB4dRiV1yf7lOwWEHzQe3tBhRxYzRDOSX
me0oSiKeJuS2zracW5NUqFSjQxvrWYAP/2b1Utk9qzMCHgvID417IFGkeB8yJzJ+
H2iYJmIpdsr1xNmMS38l7rHIQpWROFxfZr92Wg==
-----END CERTIFICATE-----
