Certificate:
    Data:
        Version: 3 (0x2)
        Serial Number:
            56:98:d9:6c:05:2e:b2:38:4e:69:0a:f1:87:f3:23:bc
        Signature Algorithm: sha256WithRSAEncryption
        Issuer: CN=team614-net
        Validity
            Not Before: May 18 22:47:15 2022 GMT
            Not After : May  2 22:47:15 2025 GMT
        Subject: CN=team614-client
        Subject Public Key Info:
            Public Key Algorithm: rsaEncryption
                RSA Public-Key: (2048 bit)
                Modulus:
                    00:c5:1d:80:19:d4:7e:6f:c8:e5:b7:a5:b6:5b:7c:
                    8e:00:84:0f:3e:f9:55:4c:87:e2:58:4b:69:5d:5b:
                    1f:85:db:c4:40:02:41:ff:f3:a9:8d:31:82:41:90:
                    c0:13:56:db:69:3e:e8:1a:69:95:36:41:37:8b:b3:
                    ab:61:87:06:b4:31:5f:de:c8:24:e8:8b:96:e3:0b:
                    42:ce:10:9b:2c:50:b1:8c:fa:41:c6:50:28:0a:6c:
                    2c:13:48:1d:69:99:c2:b3:2e:15:f0:85:53:a8:84:
                    35:34:e3:ce:13:1f:f4:ed:a4:97:b2:be:ee:cc:ed:
                    a6:20:1d:07:d7:87:8b:4b:f0:3b:b4:20:d7:7d:d3:
                    5f:12:36:5a:f9:17:55:41:ad:fa:a2:f3:27:4a:61:
                    1b:fa:de:81:1e:62:75:98:92:49:14:72:26:87:c1:
                    ed:b3:d3:42:96:3b:3e:87:b1:d1:1a:21:5e:55:b4:
                    71:2e:46:d3:c7:1b:aa:20:9f:ad:35:d8:67:47:15:
                    0b:40:61:50:80:e6:e6:27:cd:64:94:86:88:b0:8c:
                    94:b8:b4:a3:01:21:73:3d:e6:06:b1:bf:c4:45:8a:
                    a1:2a:13:88:34:7d:72:b0:1e:c0:c4:d0:34:9a:6d:
                    22:05:d2:92:2c:f8:3a:20:9c:75:39:22:36:80:0b:
                    53:e5
                Exponent: 65537 (0x10001)
        X509v3 extensions:
            X509v3 Basic Constraints: 
                CA:FALSE
            X509v3 Subject Key Identifier: 
                02:3C:35:65:92:2E:36:7C:31:BD:6A:62:4E:4A:4E:F7:8B:F6:AD:DD
            X509v3 Authority Key Identifier: 
                keyid:A2:F3:38:6C:30:5D:08:31:4B:93:DD:C5:BD:AD:3E:9C:DD:66:34:84
                DirName:/CN=team614-net
                serial:1A:A3:E8:36:7A:92:FA:CB:2B:D9:E5:02:16:B9:B4:20:8A:38:B8:AC

            X509v3 Extended Key Usage: 
                TLS Web Client Authentication
            X509v3 Key Usage: 
                Digital Signature
    Signature Algorithm: sha256WithRSAEncryption
         76:f1:95:b2:d5:db:a3:d3:16:9b:3d:68:e9:f0:4b:9e:31:d1:
         68:2c:5a:04:e7:50:57:f3:cb:ec:f9:92:55:c4:49:fb:3c:ea:
         02:da:b2:5f:12:df:7b:f2:26:3d:c7:4f:7a:29:63:45:be:7d:
         a7:30:a6:49:cf:10:da:a7:08:3c:8b:e2:9a:65:8f:47:9a:5b:
         12:74:ad:b4:78:92:c3:60:5c:ef:4c:9d:af:da:d9:01:91:c4:
         45:e4:fa:6c:81:4d:02:62:b5:dd:f0:74:5a:ed:19:b7:34:6c:
         1f:2d:c1:99:f7:93:11:21:eb:95:a2:fe:ef:ab:b0:5a:5b:8a:
         c7:27:02:79:2d:9b:16:8d:3e:3e:e5:80:60:6f:00:ae:a7:9a:
         b9:be:76:32:f3:27:1d:27:fb:e5:7a:d6:57:d4:37:7c:5c:73:
         92:b4:5a:80:15:50:aa:27:18:68:40:33:72:cf:4e:2a:b9:62:
         81:66:6d:9a:a5:03:b5:b7:b9:c5:90:d0:dc:1b:5d:0b:79:cb:
         66:06:75:af:ab:a4:38:06:bd:de:07:8a:7d:96:d9:52:05:7a:
         38:91:27:d7:c5:c6:bf:dc:49:c5:a2:72:86:1a:7e:cf:72:d9:
         9e:fc:fe:3d:4a:62:3b:c4:a3:03:36:5e:8f:9d:59:04:ce:c5:
         56:92:1d:1d
-----BEGIN CERTIFICATE-----
MIIDXDCCAkSgAwIBAgIQVpjZbAUusjhOaQrxh/MjvDANBgkqhkiG9w0BAQsFADAW
MRQwEgYDVQQDDAt0ZWFtNjE0LW5ldDAeFw0yMjA1MTgyMjQ3MTVaFw0yNTA1MDIy
MjQ3MTVaMBkxFzAVBgNVBAMMDnRlYW02MTQtY2xpZW50MIIBIjANBgkqhkiG9w0B
AQEFAAOCAQ8AMIIBCgKCAQEAxR2AGdR+b8jlt6W2W3yOAIQPPvlVTIfiWEtpXVsf
hdvEQAJB//OpjTGCQZDAE1bbaT7oGmmVNkE3i7OrYYcGtDFf3sgk6IuW4wtCzhCb
LFCxjPpBxlAoCmwsE0gdaZnCsy4V8IVTqIQ1NOPOEx/07aSXsr7uzO2mIB0H14eL
S/A7tCDXfdNfEjZa+RdVQa36ovMnSmEb+t6BHmJ1mJJJFHImh8Hts9NCljs+h7HR
GiFeVbRxLkbTxxuqIJ+tNdhnRxULQGFQgObmJ81klIaIsIyUuLSjASFzPeYGsb/E
RYqhKhOINH1ysB7AxNA0mm0iBdKSLPg6IJx1OSI2gAtT5QIDAQABo4GiMIGfMAkG
A1UdEwQCMAAwHQYDVR0OBBYEFAI8NWWSLjZ8Mb1qYk5KTveL9q3dMFEGA1UdIwRK
MEiAFKLzOGwwXQgxS5Pdxb2tPpzdZjSEoRqkGDAWMRQwEgYDVQQDDAt0ZWFtNjE0
LW5ldIIUGqPoNnqS+ssr2eUCFrm0IIo4uKwwEwYDVR0lBAwwCgYIKwYBBQUHAwIw
CwYDVR0PBAQDAgeAMA0GCSqGSIb3DQEBCwUAA4IBAQB28ZWy1duj0xabPWjp8Eue
MdFoLFoE51BX88vs+ZJVxEn7POoC2rJfEt978iY9x096KWNFvn2nMKZJzxDapwg8
i+KaZY9HmlsSdK20eJLDYFzvTJ2v2tkBkcRF5PpsgU0CYrXd8HRa7Rm3NGwfLcGZ
95MRIeuVov7vq7BaW4rHJwJ5LZsWjT4+5YBgbwCup5q5vnYy8ycdJ/vletZX1Dd8
XHOStFqAFVCqJxhoQDNyz04quWKBZm2apQO1t7nFkNDcG10LectmBnWvq6Q4Br3e
B4p9ltlSBXo4kSfXxca/3EnFonKGGn7Pctme/P49SmI7xKMDNl6PnVkEzsVWkh0d
-----END CERTIFICATE-----
