Certificate:
    Data:
        Version: 3 (0x2)
        Serial Number:
            39:de:b3:1d:66:a7:9e:e0:48:07:de:f3:01:2a:d0
        Signature Algorithm: sha256WithRSAEncryption
        Issuer: CN=team165-net
        Validity
            Not Before: May 18 18:49:47 2022 GMT
            Not After : May  2 18:49:47 2025 GMT
        Subject: CN=team165-client
        Subject Public Key Info:
            Public Key Algorithm: rsaEncryption
                RSA Public-Key: (2048 bit)
                Modulus:
                    00:a9:c8:20:6a:bd:89:46:30:c7:19:d7:6e:ac:fd:
                    b3:16:1f:50:54:d2:58:36:55:15:56:57:f1:bf:3f:
                    bc:49:0b:43:68:42:a3:a5:5c:33:fe:77:81:da:d6:
                    0e:f9:92:9a:78:4e:3b:11:f9:13:61:50:0b:18:b1:
                    25:52:89:65:7b:00:7e:c8:f8:08:1a:c0:e8:11:b3:
                    2a:23:d4:6e:78:19:2f:08:9c:fe:93:c9:55:3e:37:
                    70:99:99:92:da:fe:1c:73:1a:80:58:26:9f:f9:b9:
                    53:d0:ed:f8:64:d5:8a:fd:66:19:f0:aa:29:56:cc:
                    2e:57:d8:b2:a8:77:3b:c7:9f:49:d3:13:a0:47:9e:
                    bc:af:47:43:d9:f1:74:80:d0:b8:5c:42:33:ba:a1:
                    95:82:8e:38:c5:ae:ad:44:2b:cd:09:88:2e:f3:15:
                    28:16:00:e7:16:65:e2:ff:3b:b6:c5:b9:a0:48:57:
                    fc:b0:c5:bd:11:11:73:bc:e2:ff:44:2b:7e:39:a1:
                    85:42:45:4c:c7:3e:06:f9:35:00:f1:1a:55:50:a1:
                    d9:82:f0:8a:6e:1a:1b:e7:82:31:47:ec:a3:3e:e1:
                    57:7f:62:4c:04:06:ba:17:31:01:70:30:0d:4e:70:
                    3b:43:5b:9d:c0:f3:f6:fa:9a:96:c7:cd:26:1d:80:
                    74:55
                Exponent: 65537 (0x10001)
        X509v3 extensions:
            X509v3 Basic Constraints: 
                CA:FALSE
            X509v3 Subject Key Identifier: 
                8D:55:C9:89:32:06:64:DB:7A:2A:62:8B:3D:74:79:A2:45:3D:C6:BB
            X509v3 Authority Key Identifier: 
                keyid:5B:48:7F:42:E6:78:02:D1:95:3A:21:46:8B:41:94:DB:96:92:15:75
                DirName:/CN=team165-net
                serial:25:EE:7D:60:3F:D4:66:48:16:31:B7:2E:F0:78:72:51:3F:10:B5:37

            X509v3 Extended Key Usage: 
                TLS Web Client Authentication
            X509v3 Key Usage: 
                Digital Signature
    Signature Algorithm: sha256WithRSAEncryption
         62:75:74:d2:63:92:bf:33:fc:d5:32:f8:16:ea:e1:02:5b:81:
         be:cf:27:0f:c1:d7:e3:77:19:45:16:2b:59:88:53:2c:ad:4f:
         65:5d:58:54:60:6d:98:b7:28:ba:f4:f8:70:3d:b8:d1:e2:4e:
         dd:82:0c:33:d8:58:4e:b9:14:b0:69:76:a4:f5:57:c2:1f:fe:
         02:2d:5b:b5:0a:2d:b5:cb:e2:a7:32:93:40:fe:57:a6:e3:25:
         e5:74:33:17:7c:40:b3:9d:ca:a9:a0:e7:50:4e:7a:03:fe:03:
         dc:ff:86:0c:b7:52:db:65:9f:0d:78:9f:2b:00:13:af:a0:50:
         06:9d:26:49:82:2a:ba:b9:56:b9:b2:46:d6:ab:3d:a7:9d:16:
         37:33:a8:0e:31:5d:a7:19:58:3a:22:d5:73:06:81:54:41:89:
         be:31:f2:f1:39:90:1e:53:70:11:c3:65:e2:f9:2c:24:bb:2f:
         d1:26:d5:2a:a6:e8:5c:d9:55:31:c5:58:6b:ee:f5:93:a4:58:
         a0:54:fb:6c:8e:5e:46:9a:93:d2:75:6e:37:c5:99:a4:bb:7e:
         d7:0d:e4:18:cc:e8:a4:42:a5:bb:a9:36:60:4e:d2:3b:4c:b8:
         3b:04:18:e6:2f:4e:64:f3:f2:8e:61:b2:19:bc:74:43:da:dc:
         55:ee:dc:a2
-----BEGIN CERTIFICATE-----
MIIDWzCCAkOgAwIBAgIPOd6zHWannuBIB97zASrQMA0GCSqGSIb3DQEBCwUAMBYx
FDASBgNVBAMMC3RlYW0xNjUtbmV0MB4XDTIyMDUxODE4NDk0N1oXDTI1MDUwMjE4
NDk0N1owGTEXMBUGA1UEAwwOdGVhbTE2NS1jbGllbnQwggEiMA0GCSqGSIb3DQEB
AQUAA4IBDwAwggEKAoIBAQCpyCBqvYlGMMcZ126s/bMWH1BU0lg2VRVWV/G/P7xJ
C0NoQqOlXDP+d4Ha1g75kpp4TjsR+RNhUAsYsSVSiWV7AH7I+AgawOgRsyoj1G54
GS8InP6TyVU+N3CZmZLa/hxzGoBYJp/5uVPQ7fhk1Yr9ZhnwqilWzC5X2LKodzvH
n0nTE6BHnryvR0PZ8XSA0LhcQjO6oZWCjjjFrq1EK80JiC7zFSgWAOcWZeL/O7bF
uaBIV/ywxb0REXO84v9EK345oYVCRUzHPgb5NQDxGlVQodmC8IpuGhvngjFH7KM+
4Vd/YkwEBroXMQFwMA1OcDtDW53A8/b6mpbHzSYdgHRVAgMBAAGjgaIwgZ8wCQYD
VR0TBAIwADAdBgNVHQ4EFgQUjVXJiTIGZNt6KmKLPXR5okU9xrswUQYDVR0jBEow
SIAUW0h/QuZ4AtGVOiFGi0GU25aSFXWhGqQYMBYxFDASBgNVBAMMC3RlYW0xNjUt
bmV0ghQl7n1gP9RmSBYxty7weHJRPxC1NzATBgNVHSUEDDAKBggrBgEFBQcDAjAL
BgNVHQ8EBAMCB4AwDQYJKoZIhvcNAQELBQADggEBAGJ1dNJjkr8z/NUy+Bbq4QJb
gb7PJw/B1+N3GUUWK1mIUyytT2VdWFRgbZi3KLr0+HA9uNHiTt2CDDPYWE65FLBp
dqT1V8If/gItW7UKLbXL4qcyk0D+V6bjJeV0Mxd8QLOdyqmg51BOegP+A9z/hgy3
Uttlnw14nysAE6+gUAadJkmCKrq5VrmyRtarPaedFjczqA4xXacZWDoi1XMGgVRB
ib4x8vE5kB5TcBHDZeL5LCS7L9Em1Sqm6FzZVTHFWGvu9ZOkWKBU+2yOXkaak9J1
bjfFmaS7ftcN5BjM6KRCpbupNmBO0jtMuDsEGOYvTmTz8o5hshm8dEPa3FXu3KI=
-----END CERTIFICATE-----
