Certificate:
    Data:
        Version: 3 (0x2)
        Serial Number:
            0a:31:21:09:e4:b0:d1:16:f1:03:c5:5f:36:01:6e:8d
        Signature Algorithm: sha256WithRSAEncryption
        Issuer: CN=team551-net
        Validity
            Not Before: May 18 22:13:24 2022 GMT
            Not After : May  2 22:13:24 2025 GMT
        Subject: CN=team551-server
        Subject Public Key Info:
            Public Key Algorithm: rsaEncryption
                RSA Public-Key: (2048 bit)
                Modulus:
                    00:bb:a7:97:65:7b:a0:a7:7a:ce:07:3b:02:37:d7:
                    5e:a8:7e:47:9e:be:c3:ae:3a:83:72:6f:5c:f4:0c:
                    92:f4:c7:5f:b6:5f:c3:aa:d9:98:f9:de:95:71:11:
                    e0:37:5e:e2:35:9e:a1:97:cd:50:c0:83:9d:a2:15:
                    32:99:44:3b:1f:54:35:ee:66:f5:7f:f3:36:15:d0:
                    c5:51:99:6a:3f:65:31:6b:9b:08:f5:60:d9:d0:23:
                    a6:4a:bb:14:cf:65:14:d1:07:d4:89:46:f5:27:cc:
                    6a:80:58:23:11:47:29:26:e0:0a:63:f5:e4:f6:84:
                    14:48:d8:c2:b2:74:80:d4:1d:b2:f3:0e:0a:7d:72:
                    e5:e4:7e:d9:97:0b:bd:f0:eb:4c:70:9f:a7:99:e3:
                    55:2c:52:54:f1:b0:88:f0:10:97:05:a3:69:7c:0c:
                    5b:3e:61:71:56:27:32:58:bd:6e:81:43:f3:ee:0f:
                    e8:b7:8c:b5:8b:ae:bb:1d:af:3d:66:1c:ee:29:0d:
                    cb:d4:96:36:79:21:e4:c9:08:24:eb:e3:3d:83:24:
                    fe:54:c1:36:1a:6d:82:ac:08:3c:58:bf:27:3d:67:
                    ec:59:0f:78:50:b4:56:4a:51:cf:f2:08:95:7b:02:
                    a5:cd:e8:85:48:dc:85:ec:40:66:9a:52:a7:e8:27:
                    01:17
                Exponent: 65537 (0x10001)
        X509v3 extensions:
            X509v3 Basic Constraints: 
                CA:FALSE
            X509v3 Subject Key Identifier: 
                6F:E1:CB:87:0B:B8:3F:C2:A2:6B:93:14:3E:DD:4D:D0:20:8F:61:AC
            X509v3 Authority Key Identifier: 
                keyid:B9:B4:98:95:E1:96:7C:42:24:B6:0E:6B:76:9E:3F:E4:14:86:22:54
                DirName:/CN=team551-net
                serial:31:31:45:69:5C:86:6E:AF:EF:61:56:77:EC:DD:65:70:20:6E:66:30

            X509v3 Extended Key Usage: 
                TLS Web Server Authentication
            X509v3 Key Usage: 
                Digital Signature, Key Encipherment
            X509v3 Subject Alternative Name: 
                DNS:team551-server
    Signature Algorithm: sha256WithRSAEncryption
         32:32:b0:46:5c:bf:db:14:c9:f6:d9:a2:d5:16:fe:d2:93:c9:
         33:be:72:0f:d0:03:40:2f:a0:33:c4:f7:14:d1:c1:cd:d7:a2:
         51:51:1e:67:19:f7:c6:d5:ca:80:75:cc:fe:6f:da:0d:9e:ad:
         f9:eb:48:15:2d:de:4f:41:e1:c6:9e:2b:3b:18:81:55:73:5a:
         df:cf:26:f9:4a:74:51:ae:33:88:bf:a7:d2:61:ad:f6:08:4f:
         0f:a0:6f:a2:10:72:61:04:a8:57:82:ea:e0:d0:4e:d0:0f:e9:
         ff:3b:a2:32:a7:c6:02:86:1f:2d:21:d7:02:d5:1c:58:e2:fd:
         ae:cb:04:b2:f8:8d:4e:dc:cb:85:4c:db:4b:45:69:b8:2a:78:
         47:32:e1:f0:16:0a:ba:15:d0:1a:84:be:e8:99:9f:cb:fa:f7:
         46:cd:a1:05:9b:a9:a4:36:4a:05:37:f8:f7:61:56:4a:d1:08:
         ca:b9:d6:08:27:50:96:b6:ee:4b:2e:22:1f:ce:61:41:67:c1:
         31:7f:61:5f:b3:76:35:30:36:6f:87:59:eb:0f:99:00:10:b7:
         69:8e:a5:99:aa:c4:e5:45:d9:39:87:b9:0b:0c:34:7e:4b:2c:
         c0:9d:f9:d2:97:c7:91:1f:3a:a7:7c:79:34:f8:c3:07:3c:95:
         a6:ac:9b:d6
-----BEGIN CERTIFICATE-----
MIIDdzCCAl+gAwIBAgIQCjEhCeSw0RbxA8VfNgFujTANBgkqhkiG9w0BAQsFADAW
MRQwEgYDVQQDDAt0ZWFtNTUxLW5ldDAeFw0yMjA1MTgyMjEzMjRaFw0yNTA1MDIy
MjEzMjRaMBkxFzAVBgNVBAMMDnRlYW01NTEtc2VydmVyMIIBIjANBgkqhkiG9w0B
AQEFAAOCAQ8AMIIBCgKCAQEAu6eXZXugp3rOBzsCN9deqH5Hnr7DrjqDcm9c9AyS
9Mdftl/DqtmY+d6VcRHgN17iNZ6hl81QwIOdohUymUQ7H1Q17mb1f/M2FdDFUZlq
P2Uxa5sI9WDZ0COmSrsUz2UU0QfUiUb1J8xqgFgjEUcpJuAKY/Xk9oQUSNjCsnSA
1B2y8w4KfXLl5H7Zlwu98OtMcJ+nmeNVLFJU8bCI8BCXBaNpfAxbPmFxVicyWL1u
gUPz7g/ot4y1i667Ha89ZhzuKQ3L1JY2eSHkyQgk6+M9gyT+VME2Gm2CrAg8WL8n
PWfsWQ94ULRWSlHP8giVewKlzeiFSNyF7EBmmlKn6CcBFwIDAQABo4G9MIG6MAkG
A1UdEwQCMAAwHQYDVR0OBBYEFG/hy4cLuD/ComuTFD7dTdAgj2GsMFEGA1UdIwRK
MEiAFLm0mJXhlnxCJLYOa3aeP+QUhiJUoRqkGDAWMRQwEgYDVQQDDAt0ZWFtNTUx
LW5ldIIUMTFFaVyGbq/vYVZ37N1lcCBuZjAwEwYDVR0lBAwwCgYIKwYBBQUHAwEw
CwYDVR0PBAQDAgWgMBkGA1UdEQQSMBCCDnRlYW01NTEtc2VydmVyMA0GCSqGSIb3
DQEBCwUAA4IBAQAyMrBGXL/bFMn22aLVFv7Sk8kzvnIP0ANAL6AzxPcU0cHN16JR
UR5nGffG1cqAdcz+b9oNnq3560gVLd5PQeHGnis7GIFVc1rfzyb5SnRRrjOIv6fS
Ya32CE8PoG+iEHJhBKhXgurg0E7QD+n/O6Iyp8YChh8tIdcC1RxY4v2uywSy+I1O
3MuFTNtLRWm4KnhHMuHwFgq6FdAahL7omZ/L+vdGzaEFm6mkNkoFN/j3YVZK0QjK
udYIJ1CWtu5LLiIfzmFBZ8Exf2Ffs3Y1MDZvh1nrD5kAELdpjqWZqsTlRdk5h7kL
DDR+SyzAnfnSl8eRHzqnfHk0+MMHPJWmrJvW
-----END CERTIFICATE-----
