Certificate:
    Data:
        Version: 3 (0x2)
        Serial Number:
            e0:04:bd:54:63:a5:a4:33:de:d7:b9:c7:7b:8e:66:49
        Signature Algorithm: sha256WithRSAEncryption
        Issuer: CN=team131-net
        Validity
            Not Before: May 18 15:13:28 2022 GMT
            Not After : May  2 15:13:28 2025 GMT
        Subject: CN=team131-client
        Subject Public Key Info:
            Public Key Algorithm: rsaEncryption
                RSA Public-Key: (2048 bit)
                Modulus:
                    00:be:3d:31:e8:1f:bc:57:4d:0d:b7:cb:c0:07:c1:
                    9b:cf:f3:48:b7:10:5c:25:48:6a:d4:32:14:93:80:
                    0d:c7:bb:e9:17:16:e3:1d:10:86:ac:2a:8c:39:c2:
                    a9:80:f3:75:9c:b5:6c:a6:3a:af:10:8d:2e:61:08:
                    8d:e9:2a:3e:0e:f0:58:ee:c2:3d:89:e4:f4:08:90:
                    91:80:d9:84:11:73:79:2a:ba:c4:a9:d1:a2:25:70:
                    f3:f8:30:a8:79:96:40:8d:1f:ae:5b:c1:a1:a1:0b:
                    5a:32:4e:0e:c6:5f:c7:44:b4:b6:4a:1b:bb:82:5e:
                    64:ba:ab:bd:e3:89:6d:4c:b0:a8:58:6b:28:89:a3:
                    ef:46:b0:45:12:7d:2e:8f:18:9f:f1:30:1b:69:80:
                    41:65:9e:ad:a3:e5:67:7c:85:f5:56:61:29:f7:75:
                    7d:15:9f:f6:ca:a1:d5:d5:9e:6f:6c:52:60:28:79:
                    df:40:e5:d1:4e:29:d1:59:86:c1:67:45:76:8d:9a:
                    ff:54:4a:aa:21:46:fe:d4:c5:96:fd:3c:9d:ea:71:
                    b5:fe:85:62:7e:04:e4:4d:08:b2:13:40:59:55:de:
                    70:1f:37:01:e8:1e:0c:df:16:39:27:6e:5c:b8:57:
                    e3:5a:87:0a:b0:bf:4f:0a:1e:2f:f1:87:07:27:57:
                    ea:4b
                Exponent: 65537 (0x10001)
        X509v3 extensions:
            X509v3 Basic Constraints: 
                CA:FALSE
            X509v3 Subject Key Identifier: 
                D0:C1:83:98:1E:99:DC:66:55:1E:98:AA:D5:99:2F:C4:0B:C1:CD:07
            X509v3 Authority Key Identifier: 
                keyid:DF:62:46:FC:66:DF:48:53:DB:3D:60:7F:82:1D:4D:FE:B0:0C:30:7C
                DirName:/CN=team131-net
                serial:7B:40:11:D3:35:29:A1:EA:EE:0E:D8:EA:08:A4:2E:14:38:DB:1F:98

            X509v3 Extended Key Usage: 
                TLS Web Client Authentication
            X509v3 Key Usage: 
                Digital Signature
    Signature Algorithm: sha256WithRSAEncryption
         7c:c2:ab:8b:72:0b:0d:d2:e1:66:a6:72:8e:b3:5f:9a:af:c3:
         b4:99:55:94:b5:80:f3:52:1a:c9:7c:80:d2:13:16:6c:9a:6d:
         fa:d4:1a:b0:6e:40:5a:62:7d:5f:bb:ae:ce:b9:ab:51:1e:13:
         a7:26:b6:93:8f:06:46:0c:7b:6b:e6:e9:85:f3:18:f2:45:27:
         01:fa:21:24:30:8e:d3:1e:a2:86:31:eb:44:b6:84:ec:90:32:
         0a:13:d0:c6:b6:c7:aa:68:ae:38:6c:ad:e8:c2:ce:6c:d9:a3:
         6b:b8:2f:45:3f:86:73:b1:8f:d6:70:05:43:f8:ce:e5:b1:e4:
         0a:ef:16:80:34:0a:53:ac:11:38:79:9e:d7:36:c9:95:87:b0:
         7e:e6:f6:2e:4c:9f:25:21:5a:ff:a1:81:98:d5:2c:85:a0:0a:
         66:34:df:9c:e1:7e:33:4b:28:73:6d:e4:93:0d:da:35:f5:9b:
         04:07:24:8f:20:1d:41:56:38:eb:c9:ba:a2:26:d8:f6:79:93:
         e4:5d:cc:0e:51:65:c9:d7:de:89:68:85:da:a7:c3:40:94:1a:
         8c:13:c3:db:f4:29:48:11:67:eb:5b:6b:4a:11:20:f3:74:7b:
         2a:d2:e1:80:3d:1b:3b:a8:0c:85:24:c7:0c:4a:04:c9:ef:1c:
         02:69:b6:4b
-----BEGIN CERTIFICATE-----
MIIDXTCCAkWgAwIBAgIRAOAEvVRjpaQz3te5x3uOZkkwDQYJKoZIhvcNAQELBQAw
FjEUMBIGA1UEAwwLdGVhbTEzMS1uZXQwHhcNMjIwNTE4MTUxMzI4WhcNMjUwNTAy
MTUxMzI4WjAZMRcwFQYDVQQDDA50ZWFtMTMxLWNsaWVudDCCASIwDQYJKoZIhvcN
AQEBBQADggEPADCCAQoCggEBAL49MegfvFdNDbfLwAfBm8/zSLcQXCVIatQyFJOA
Dce76RcW4x0QhqwqjDnCqYDzdZy1bKY6rxCNLmEIjekqPg7wWO7CPYnk9AiQkYDZ
hBFzeSq6xKnRoiVw8/gwqHmWQI0frlvBoaELWjJODsZfx0S0tkobu4JeZLqrveOJ
bUywqFhrKImj70awRRJ9Lo8Yn/EwG2mAQWWeraPlZ3yF9VZhKfd1fRWf9sqh1dWe
b2xSYCh530Dl0U4p0VmGwWdFdo2a/1RKqiFG/tTFlv08nepxtf6FYn4E5E0IshNA
WVXecB83AegeDN8WOSduXLhX41qHCrC/TwoeL/GHBydX6ksCAwEAAaOBojCBnzAJ
BgNVHRMEAjAAMB0GA1UdDgQWBBTQwYOYHpncZlUemKrVmS/EC8HNBzBRBgNVHSME
SjBIgBTfYkb8Zt9IU9s9YH+CHU3+sAwwfKEapBgwFjEUMBIGA1UEAwwLdGVhbTEz
MS1uZXSCFHtAEdM1KaHq7g7Y6gikLhQ42x+YMBMGA1UdJQQMMAoGCCsGAQUFBwMC
MAsGA1UdDwQEAwIHgDANBgkqhkiG9w0BAQsFAAOCAQEAfMKri3ILDdLhZqZyjrNf
mq/DtJlVlLWA81IayXyA0hMWbJpt+tQasG5AWmJ9X7uuzrmrUR4Tpya2k48GRgx7
a+bphfMY8kUnAfohJDCO0x6ihjHrRLaE7JAyChPQxrbHqmiuOGyt6MLObNmja7gv
RT+Gc7GP1nAFQ/jO5bHkCu8WgDQKU6wROHme1zbJlYewfub2LkyfJSFa/6GBmNUs
haAKZjTfnOF+M0soc23kkw3aNfWbBAckjyAdQVY468m6oibY9nmT5F3MDlFlydfe
iWiF2qfDQJQajBPD2/QpSBFn61trShEg83R7KtLhgD0bO6gMhSTHDEoEye8cAmm2
Sw==
-----END CERTIFICATE-----
