Certificate:
    Data:
        Version: 3 (0x2)
        Serial Number:
            22:b2:68:73:73:ba:58:37:b1:a0:e8:ee:bd:ca:70:31
        Signature Algorithm: sha256WithRSAEncryption
        Issuer: CN=team167-net
        Validity
            Not Before: May 18 18:43:37 2022 GMT
            Not After : May  2 18:43:37 2025 GMT
        Subject: CN=team167-server
        Subject Public Key Info:
            Public Key Algorithm: rsaEncryption
                RSA Public-Key: (2048 bit)
                Modulus:
                    00:ea:ce:6c:e0:3c:51:e7:e2:08:22:0e:13:5f:51:
                    61:d7:6e:de:f2:ed:ec:dd:82:c8:de:44:00:28:9a:
                    d1:44:93:83:c2:3a:7e:0f:9e:54:d3:5f:e8:42:12:
                    3c:ed:59:cf:8e:62:d4:47:73:91:72:c0:d5:f1:c6:
                    80:97:c4:2a:56:44:98:28:ad:df:b2:77:f4:00:cf:
                    68:53:79:f8:41:28:58:f4:d3:b5:41:4c:fb:e0:88:
                    ce:bd:52:e1:85:d9:6a:28:56:30:6b:5e:94:b0:44:
                    9a:d9:9b:da:e0:15:0e:dc:69:5d:c1:9e:c1:a4:71:
                    a2:04:1a:38:a2:ca:29:85:8a:ee:6f:a9:ac:cb:30:
                    09:55:72:00:3d:b1:f5:d7:00:8f:7e:b7:3e:9c:04:
                    41:66:2f:c2:0c:4d:e4:16:65:6d:fe:df:ee:22:ce:
                    0e:43:57:58:ae:18:23:10:0f:57:55:ea:b2:8e:32:
                    bd:1e:d9:38:52:3f:af:95:6b:d5:e0:e1:0b:15:7a:
                    0a:27:94:69:24:a2:3b:ca:bd:91:de:53:95:ce:00:
                    b6:a2:5b:09:31:0b:5c:a2:ca:73:de:19:49:04:9c:
                    02:b7:c1:92:f8:c9:ca:52:52:15:ad:ed:36:47:2f:
                    ce:22:a5:ac:c9:2c:99:f7:44:65:c3:32:38:87:6b:
                    64:4d
                Exponent: 65537 (0x10001)
        X509v3 extensions:
            X509v3 Basic Constraints: 
                CA:FALSE
            X509v3 Subject Key Identifier: 
                A8:52:A7:63:4B:07:04:03:B7:B2:F1:AD:19:11:8C:C1:51:E9:31:53
            X509v3 Authority Key Identifier: 
                keyid:DE:AD:BD:19:0A:52:6E:BF:E0:EA:0A:AC:EC:F0:8E:00:7D:9F:FD:D7
                DirName:/CN=team167-net
                serial:16:68:0C:17:09:D1:A9:FA:FA:0B:E3:25:50:E1:BB:28:66:D3:79:C0

            X509v3 Extended Key Usage: 
                TLS Web Server Authentication
            X509v3 Key Usage: 
                Digital Signature, Key Encipherment
            X509v3 Subject Alternative Name: 
                DNS:team167-server
    Signature Algorithm: sha256WithRSAEncryption
         9e:67:9d:3f:d8:27:87:72:ea:10:bf:2b:e9:d3:73:87:98:a7:
         0c:98:9e:ae:9d:71:7a:f7:ae:da:24:45:94:cf:c6:44:dc:ad:
         81:32:2c:36:37:88:96:30:4f:8d:a0:18:31:47:70:68:fd:5a:
         e6:db:77:39:b1:9c:d3:ae:df:8a:90:ae:08:5d:69:22:f0:f1:
         c2:10:80:f0:35:c9:06:34:57:56:1c:49:82:c6:f5:6d:a9:2c:
         fd:0d:39:c5:f9:9a:bd:bb:32:99:e7:fe:a5:26:0c:58:2f:0d:
         f1:c4:3b:10:14:47:89:fe:7a:44:fc:de:2a:a4:95:c3:0a:be:
         fb:af:fa:8a:bc:03:5e:a9:2f:35:5c:b7:b3:d4:c9:2c:ba:07:
         31:1f:d4:f6:e0:b8:8c:fd:ae:8f:88:f7:5a:34:7f:74:db:ac:
         e9:68:a7:4d:5b:82:69:04:a9:cb:a8:0a:ad:ed:97:a3:d6:7a:
         36:89:2d:04:5b:03:b1:5b:5e:60:cf:21:8e:7e:3f:fc:ec:15:
         a8:03:4f:20:44:73:5a:b2:d4:1a:c2:dd:44:3a:bc:90:d7:82:
         03:5e:e2:06:54:a1:4d:c2:b0:02:2f:e2:3f:45:d5:9a:65:1b:
         b6:e4:cd:8b:50:b9:b5:d4:ee:e7:6c:ff:8c:bf:ed:86:fc:34:
         41:b2:8f:4f
-----BEGIN CERTIFICATE-----
MIIDdzCCAl+gAwIBAgIQIrJoc3O6WDexoOjuvcpwMTANBgkqhkiG9w0BAQsFADAW
MRQwEgYDVQQDDAt0ZWFtMTY3LW5ldDAeFw0yMjA1MTgxODQzMzdaFw0yNTA1MDIx
ODQzMzdaMBkxFzAVBgNVBAMMDnRlYW0xNjctc2VydmVyMIIBIjANBgkqhkiG9w0B
AQEFAAOCAQ8AMIIBCgKCAQEA6s5s4DxR5+IIIg4TX1Fh127e8u3s3YLI3kQAKJrR
RJODwjp+D55U01/oQhI87VnPjmLUR3ORcsDV8caAl8QqVkSYKK3fsnf0AM9oU3n4
QShY9NO1QUz74IjOvVLhhdlqKFYwa16UsESa2Zva4BUO3GldwZ7BpHGiBBo4osop
hYrub6msyzAJVXIAPbH11wCPfrc+nARBZi/CDE3kFmVt/t/uIs4OQ1dYrhgjEA9X
VeqyjjK9Htk4Uj+vlWvV4OELFXoKJ5RpJKI7yr2R3lOVzgC2olsJMQtcospz3hlJ
BJwCt8GS+MnKUlIVre02Ry/OIqWsySyZ90RlwzI4h2tkTQIDAQABo4G9MIG6MAkG
A1UdEwQCMAAwHQYDVR0OBBYEFKhSp2NLBwQDt7LxrRkRjMFR6TFTMFEGA1UdIwRK
MEiAFN6tvRkKUm6/4OoKrOzwjgB9n/3XoRqkGDAWMRQwEgYDVQQDDAt0ZWFtMTY3
LW5ldIIUFmgMFwnRqfr6C+MlUOG7KGbTecAwEwYDVR0lBAwwCgYIKwYBBQUHAwEw
CwYDVR0PBAQDAgWgMBkGA1UdEQQSMBCCDnRlYW0xNjctc2VydmVyMA0GCSqGSIb3
DQEBCwUAA4IBAQCeZ50/2CeHcuoQvyvp03OHmKcMmJ6unXF6967aJEWUz8ZE3K2B
Miw2N4iWME+NoBgxR3Bo/Vrm23c5sZzTrt+KkK4IXWki8PHCEIDwNckGNFdWHEmC
xvVtqSz9DTnF+Zq9uzKZ5/6lJgxYLw3xxDsQFEeJ/npE/N4qpJXDCr77r/qKvANe
qS81XLez1MksugcxH9T24LiM/a6PiPdaNH9026zpaKdNW4JpBKnLqAqt7Zej1no2
iS0EWwOxW15gzyGOfj/87BWoA08gRHNastQawt1EOryQ14IDXuIGVKFNwrACL+I/
RdWaZRu25M2LULm11O7nbP+Mv+2G/DRBso9P
-----END CERTIFICATE-----
