Certificate:
    Data:
        Version: 3 (0x2)
        Serial Number:
            05:af:3d:16:dd:01:74:34:b3:8e:07:52:4b:4f:ef:71
        Signature Algorithm: sha256WithRSAEncryption
        Issuer: CN=team416-net
        Validity
            Not Before: May 18 20:59:19 2022 GMT
            Not After : May  2 20:59:19 2025 GMT
        Subject: CN=team416-server
        Subject Public Key Info:
            Public Key Algorithm: rsaEncryption
                RSA Public-Key: (2048 bit)
                Modulus:
                    00:bf:9b:12:f2:a6:1b:0d:d9:a7:b4:c2:bd:36:7e:
                    22:04:27:88:d7:aa:3e:03:6c:1e:06:63:8a:00:32:
                    23:2e:0a:e2:07:03:84:1b:81:9a:1e:95:2b:7d:c8:
                    dc:57:32:85:e6:c8:f5:5e:61:95:c3:43:b4:5c:4d:
                    6d:d1:4f:c4:0a:05:08:61:15:e9:8d:7a:4f:08:52:
                    55:42:66:51:24:57:2f:69:f3:67:23:6f:95:67:46:
                    e8:de:7f:0c:ed:7b:f8:2a:5f:6c:42:e5:a2:ed:04:
                    6b:9f:f3:50:58:ea:82:38:18:f1:e8:25:bb:13:f9:
                    44:14:d8:69:95:e5:49:46:99:68:13:83:f5:e0:92:
                    14:e0:7d:7d:b0:a9:b0:fd:37:c3:70:0b:b5:94:fb:
                    85:55:7d:67:58:1d:3c:ec:b2:e6:84:d3:6d:cc:a9:
                    a3:0d:d3:d2:2c:57:92:0c:72:fc:28:bc:5a:5e:e3:
                    72:34:b6:0e:e8:61:b9:74:4e:7d:af:a2:c3:d1:74:
                    35:5d:23:a7:ae:b9:01:44:87:63:f6:99:81:98:70:
                    6c:d3:94:76:0c:f1:d9:3d:a1:c1:c6:1a:30:26:fe:
                    18:f3:bb:e5:3d:fc:f0:35:b4:30:d3:5b:57:7d:bb:
                    2b:7e:ef:01:fe:fe:4b:4d:d6:55:61:8d:82:e0:86:
                    2f:85
                Exponent: 65537 (0x10001)
        X509v3 extensions:
            X509v3 Basic Constraints: 
                CA:FALSE
            X509v3 Subject Key Identifier: 
                50:1F:74:41:6C:ED:6B:5F:4A:DB:F3:06:95:A5:9A:7A:0D:4A:C3:B2
            X509v3 Authority Key Identifier: 
                keyid:79:A8:BF:D4:4A:A1:CC:C9:1F:0C:C0:71:97:50:D5:32:ED:47:FC:83
                DirName:/CN=team416-net
                serial:37:50:00:37:28:A1:A5:10:75:6B:6D:26:07:8F:59:7B:78:97:F9:7C

            X509v3 Extended Key Usage: 
                TLS Web Server Authentication
            X509v3 Key Usage: 
                Digital Signature, Key Encipherment
            X509v3 Subject Alternative Name: 
                DNS:team416-server
    Signature Algorithm: sha256WithRSAEncryption
         93:87:06:0c:a5:4f:41:85:27:9b:1c:65:6c:8a:fd:ea:a2:f9:
         b1:ec:c2:be:5c:c6:04:5f:47:ad:f5:bf:7c:49:5b:b7:88:15:
         bc:85:3d:33:df:cd:40:a6:04:c3:75:f6:4f:91:9e:64:80:9a:
         0e:2e:c9:31:d6:61:3c:47:da:d6:f3:19:05:3f:ac:e4:f5:bc:
         db:ac:c3:1e:cb:2a:f0:48:d5:e9:72:47:96:32:de:29:b2:3d:
         3d:e1:01:7d:6d:53:22:16:5a:27:d8:d8:e7:00:b1:d8:1b:3b:
         8d:81:4f:5b:05:b5:80:f5:e2:e9:3d:28:a5:50:3e:90:a8:a1:
         55:db:48:96:42:97:2c:19:4b:0b:d1:e5:0f:a4:3b:b6:35:46:
         08:62:87:2f:52:54:98:89:75:d4:a4:ee:ee:8a:31:c6:22:fb:
         60:a0:6d:e6:1e:52:3c:3b:88:24:ac:59:c5:0c:5b:72:98:7a:
         79:d9:0b:76:b8:77:57:28:48:f3:3b:87:42:6b:38:18:4d:cb:
         e1:6f:e7:d8:b3:d8:96:53:00:11:9b:ab:37:c1:65:6f:ae:3a:
         06:3e:a9:e7:a8:f4:c1:97:53:fe:f5:3b:bc:73:d8:21:4e:71:
         df:b6:fa:cf:89:85:b7:5d:cb:b5:f9:a5:fd:52:c1:e8:23:82:
         0e:fe:f8:44
-----BEGIN CERTIFICATE-----
MIIDdzCCAl+gAwIBAgIQBa89Ft0BdDSzjgdSS0/vcTANBgkqhkiG9w0BAQsFADAW
MRQwEgYDVQQDDAt0ZWFtNDE2LW5ldDAeFw0yMjA1MTgyMDU5MTlaFw0yNTA1MDIy
MDU5MTlaMBkxFzAVBgNVBAMMDnRlYW00MTYtc2VydmVyMIIBIjANBgkqhkiG9w0B
AQEFAAOCAQ8AMIIBCgKCAQEAv5sS8qYbDdmntMK9Nn4iBCeI16o+A2weBmOKADIj
LgriBwOEG4GaHpUrfcjcVzKF5sj1XmGVw0O0XE1t0U/ECgUIYRXpjXpPCFJVQmZR
JFcvafNnI2+VZ0bo3n8M7Xv4Kl9sQuWi7QRrn/NQWOqCOBjx6CW7E/lEFNhpleVJ
RploE4P14JIU4H19sKmw/TfDcAu1lPuFVX1nWB087LLmhNNtzKmjDdPSLFeSDHL8
KLxaXuNyNLYO6GG5dE59r6LD0XQ1XSOnrrkBRIdj9pmBmHBs05R2DPHZPaHBxhow
Jv4Y87vlPfzwNbQw01tXfbsrfu8B/v5LTdZVYY2C4IYvhQIDAQABo4G9MIG6MAkG
A1UdEwQCMAAwHQYDVR0OBBYEFFAfdEFs7WtfStvzBpWlmnoNSsOyMFEGA1UdIwRK
MEiAFHmov9RKoczJHwzAcZdQ1TLtR/yDoRqkGDAWMRQwEgYDVQQDDAt0ZWFtNDE2
LW5ldIIUN1AANyihpRB1a20mB49Ze3iX+XwwEwYDVR0lBAwwCgYIKwYBBQUHAwEw
CwYDVR0PBAQDAgWgMBkGA1UdEQQSMBCCDnRlYW00MTYtc2VydmVyMA0GCSqGSIb3
DQEBCwUAA4IBAQCThwYMpU9BhSebHGVsiv3qovmx7MK+XMYEX0et9b98SVu3iBW8
hT0z381ApgTDdfZPkZ5kgJoOLskx1mE8R9rW8xkFP6zk9bzbrMMeyyrwSNXpckeW
Mt4psj094QF9bVMiFlon2NjnALHYGzuNgU9bBbWA9eLpPSilUD6QqKFV20iWQpcs
GUsL0eUPpDu2NUYIYocvUlSYiXXUpO7uijHGIvtgoG3mHlI8O4gkrFnFDFtymHp5
2Qt2uHdXKEjzO4dCazgYTcvhb+fYs9iWUwARm6s3wWVvrjoGPqnnqPTBl1P+9Tu8
c9ghTnHftvrPiYW3Xcu1+aX9UsHoI4IO/vhE
-----END CERTIFICATE-----
