Certificate:
    Data:
        Version: 3 (0x2)
        Serial Number:
            c9:4b:48:7a:75:f4:ad:05:31:cd:41:ed:f1:55:1a:6c
        Signature Algorithm: sha256WithRSAEncryption
        Issuer: CN=team767-net
        Validity
            Not Before: May 19 00:15:17 2022 GMT
            Not After : May  3 00:15:17 2025 GMT
        Subject: CN=team767-client
        Subject Public Key Info:
            Public Key Algorithm: rsaEncryption
                RSA Public-Key: (2048 bit)
                Modulus:
                    00:b5:ac:88:30:92:43:f5:21:8a:cf:c0:a9:9e:d0:
                    6a:27:1f:fc:e4:70:fc:a7:c7:fc:f6:cd:be:a6:09:
                    bf:74:48:ea:44:34:df:c3:f5:dd:59:6a:32:ce:f5:
                    91:93:84:d8:3e:e7:13:f3:67:2c:bf:35:76:0c:76:
                    37:99:62:31:42:49:4a:9b:d9:13:a6:b6:fb:c5:94:
                    2a:e7:c5:2d:bf:7a:98:e2:29:b6:dd:60:6b:3e:7d:
                    5f:c6:6e:e6:93:cd:b7:1d:cc:a8:f7:a0:5e:91:b4:
                    86:67:9e:66:9a:4b:ed:be:03:74:17:d0:06:6c:df:
                    05:44:bd:e3:22:44:5b:26:14:5d:d0:36:c4:41:57:
                    72:a8:99:6b:67:80:f3:14:32:f1:19:52:02:a8:63:
                    84:2a:a9:6f:dc:1f:ee:4f:98:6a:1f:c2:fb:7d:d4:
                    36:be:0f:c0:b7:1c:19:0d:94:b8:e9:91:4c:78:1f:
                    81:ab:df:16:22:6b:f0:bd:db:48:2b:ce:7a:ac:ea:
                    9a:bd:50:b0:6d:1c:13:2b:d5:75:5d:dc:d5:f0:9a:
                    af:99:b0:1a:1d:16:1c:26:4a:45:c4:ce:66:83:30:
                    dc:85:0b:22:64:e3:96:47:7b:34:4c:3d:79:10:01:
                    e3:eb:04:06:7f:08:a7:fb:13:60:b6:a1:53:46:4f:
                    a0:43
                Exponent: 65537 (0x10001)
        X509v3 extensions:
            X509v3 Basic Constraints: 
                CA:FALSE
            X509v3 Subject Key Identifier: 
                D2:7E:90:FA:46:79:C9:F2:32:80:82:5C:58:79:02:B5:58:0B:F3:39
            X509v3 Authority Key Identifier: 
                keyid:A0:25:E8:D1:EA:B1:3B:A6:9D:F5:63:BA:08:D2:FE:D9:04:06:DD:3F
                DirName:/CN=team767-net
                serial:3F:06:74:E0:95:58:E1:FB:E8:EA:12:71:3D:16:52:7B:D7:6E:16:A1

            X509v3 Extended Key Usage: 
                TLS Web Client Authentication
            X509v3 Key Usage: 
                Digital Signature
    Signature Algorithm: sha256WithRSAEncryption
         b0:e8:e8:26:8e:f3:de:8b:43:b9:ef:c7:75:15:bd:c7:d0:5c:
         ae:a0:e6:5c:ca:50:94:2e:37:f3:07:d6:27:ab:ae:86:04:03:
         be:fd:8b:83:33:98:ce:66:b1:be:c1:b4:c4:b8:3d:3d:40:f0:
         5e:e0:3e:81:7e:ae:96:4b:45:37:e2:bf:04:a7:9d:f0:dd:c2:
         d5:4e:3c:c4:7e:5a:79:18:63:93:22:56:60:ab:90:1b:cf:52:
         31:35:c6:60:af:69:da:52:61:25:94:ed:01:1a:7a:55:fb:eb:
         02:d0:c2:62:ee:64:b2:2c:bb:8b:12:e9:37:4b:a4:43:ae:b9:
         03:70:91:78:58:e2:58:cb:4a:c8:2f:8b:c1:69:51:3f:d7:20:
         db:01:03:b9:ff:17:26:97:bd:4b:4c:b8:a4:fd:fe:00:b3:83:
         83:df:28:c7:cd:b6:30:54:81:f6:d4:4d:4f:32:ec:34:1b:ee:
         fc:7e:25:0b:b6:3d:e0:9f:68:d4:78:f1:25:46:57:b0:d4:9d:
         f5:57:11:cd:cf:03:53:92:a5:46:fa:10:6c:98:16:35:dc:b9:
         10:0b:04:fc:47:42:74:55:e7:04:7f:75:ab:7e:2d:07:9d:46:
         7e:da:1c:d4:b9:12:36:7f:5c:12:ed:ca:22:d5:6b:90:3e:7d:
         5c:87:53:0b
-----BEGIN CERTIFICATE-----
MIIDXTCCAkWgAwIBAgIRAMlLSHp19K0FMc1B7fFVGmwwDQYJKoZIhvcNAQELBQAw
FjEUMBIGA1UEAwwLdGVhbTc2Ny1uZXQwHhcNMjIwNTE5MDAxNTE3WhcNMjUwNTAz
MDAxNTE3WjAZMRcwFQYDVQQDDA50ZWFtNzY3LWNsaWVudDCCASIwDQYJKoZIhvcN
AQEBBQADggEPADCCAQoCggEBALWsiDCSQ/Uhis/AqZ7Qaicf/ORw/KfH/PbNvqYJ
v3RI6kQ038P13VlqMs71kZOE2D7nE/NnLL81dgx2N5liMUJJSpvZE6a2+8WUKufF
Lb96mOIptt1gaz59X8Zu5pPNtx3MqPegXpG0hmeeZppL7b4DdBfQBmzfBUS94yJE
WyYUXdA2xEFXcqiZa2eA8xQy8RlSAqhjhCqpb9wf7k+Yah/C+33UNr4PwLccGQ2U
uOmRTHgfgavfFiJr8L3bSCvOeqzqmr1QsG0cEyvVdV3c1fCar5mwGh0WHCZKRcTO
ZoMw3IULImTjlkd7NEw9eRAB4+sEBn8Ip/sTYLahU0ZPoEMCAwEAAaOBojCBnzAJ
BgNVHRMEAjAAMB0GA1UdDgQWBBTSfpD6RnnJ8jKAglxYeQK1WAvzOTBRBgNVHSME
SjBIgBSgJejR6rE7pp31Y7oI0v7ZBAbdP6EapBgwFjEUMBIGA1UEAwwLdGVhbTc2
Ny1uZXSCFD8GdOCVWOH76OoScT0WUnvXbhahMBMGA1UdJQQMMAoGCCsGAQUFBwMC
MAsGA1UdDwQEAwIHgDANBgkqhkiG9w0BAQsFAAOCAQEAsOjoJo7z3otDue/HdRW9
x9BcrqDmXMpQlC438wfWJ6uuhgQDvv2LgzOYzmaxvsG0xLg9PUDwXuA+gX6ulktF
N+K/BKed8N3C1U48xH5aeRhjkyJWYKuQG89SMTXGYK9p2lJhJZTtARp6VfvrAtDC
Yu5ksiy7ixLpN0ukQ665A3CReFjiWMtKyC+LwWlRP9cg2wEDuf8XJpe9S0y4pP3+
ALODg98ox822MFSB9tRNTzLsNBvu/H4lC7Y94J9o1HjxJUZXsNSd9VcRzc8DU5Kl
RvoQbJgWNdy5EAsE/EdCdFXnBH91q34tB51Gftoc1LkSNn9cEu3KItVrkD59XIdT
Cw==
-----END CERTIFICATE-----
