Certificate:
    Data:
        Version: 3 (0x2)
        Serial Number:
            0d:93:c3:3d:83:1c:b4:b5:10:7b:3e:a0:52:da:81:21
        Signature Algorithm: sha256WithRSAEncryption
        Issuer: CN=team244-net
        Validity
            Not Before: May 18 19:25:38 2022 GMT
            Not After : May  2 19:25:38 2025 GMT
        Subject: CN=team244-client
        Subject Public Key Info:
            Public Key Algorithm: rsaEncryption
                RSA Public-Key: (2048 bit)
                Modulus:
                    00:bc:ec:76:36:21:31:11:16:b6:98:c0:52:72:a5:
                    f1:6a:b0:8a:9e:17:29:9c:31:6d:15:ad:9b:9a:3d:
                    bf:13:89:cb:18:0a:19:07:4f:4a:2b:9e:47:30:07:
                    99:14:1d:34:51:e7:71:43:e2:f2:5f:ee:65:13:da:
                    59:4c:b1:fb:b8:c1:88:d6:ac:c6:f6:10:d8:e7:da:
                    28:c7:f8:16:fa:cd:cf:45:ed:09:e8:e2:cb:0e:ed:
                    77:d8:66:b6:a8:13:0d:d2:b4:80:92:08:d8:ea:9a:
                    6d:84:bf:9c:8f:79:92:a9:0b:08:b3:a6:8a:90:8f:
                    7e:0c:3a:59:f6:12:b9:84:74:20:67:e4:78:75:c0:
                    0a:9f:13:bc:d2:25:b6:e8:89:5b:3a:d9:7c:ee:10:
                    85:12:d1:37:76:18:83:88:ef:65:f4:33:f0:6a:d2:
                    29:34:5c:2d:9a:0d:04:89:18:75:ff:1a:a9:83:9d:
                    b9:8d:b1:18:b0:13:70:3b:c5:e4:2c:2b:a9:34:07:
                    6a:3b:37:4d:b6:85:c7:3f:ca:c8:65:43:05:84:43:
                    7c:26:09:7e:d7:12:48:8b:2f:03:c4:db:f6:1e:8b:
                    81:a3:73:92:6c:12:0d:cc:e7:26:6c:2d:57:8c:1d:
                    bd:ef:fa:e3:40:7f:67:e5:44:b4:c5:f8:50:73:14:
                    be:b9
                Exponent: 65537 (0x10001)
        X509v3 extensions:
            X509v3 Basic Constraints: 
                CA:FALSE
            X509v3 Subject Key Identifier: 
                E7:EF:6F:EA:02:4E:B8:9B:73:2E:C9:BE:3E:0F:F6:FA:30:34:82:5C
            X509v3 Authority Key Identifier: 
                keyid:45:20:88:E6:5A:C7:DE:A6:13:FC:6D:03:4F:E9:44:E6:47:17:54:A7
                DirName:/CN=team244-net
                serial:6C:C8:A6:3B:F7:49:D7:45:DB:79:32:4C:BE:DD:BE:E5:41:6C:3D:53

            X509v3 Extended Key Usage: 
                TLS Web Client Authentication
            X509v3 Key Usage: 
                Digital Signature
    Signature Algorithm: sha256WithRSAEncryption
         07:a2:c1:23:4b:44:91:e6:fa:4e:1c:c5:ea:46:f3:a3:c3:01:
         f9:d1:a7:78:a7:3b:fd:6d:cf:a0:8e:3d:a8:9e:e9:76:2a:68:
         49:70:77:36:92:7d:91:83:4f:f0:e8:c1:ef:1f:4d:c5:42:3b:
         b8:30:43:80:b8:0b:b2:2a:ea:fc:24:75:62:02:1e:87:51:ff:
         0b:b1:e5:24:66:f7:d3:9f:91:2a:3a:d7:47:b0:73:84:df:34:
         9e:08:dd:9f:89:52:da:64:df:de:0e:55:c3:c1:7d:75:39:2b:
         67:35:c0:e5:cd:91:95:4d:89:6b:0f:7c:c1:df:10:7b:90:a6:
         aa:1c:04:c6:9c:0e:b3:3c:d2:b7:0d:6e:2a:d6:d4:2b:79:b5:
         b6:3f:69:65:05:fc:a1:6d:b0:27:78:7b:80:8b:d3:77:51:d1:
         5b:91:a8:06:81:f8:f3:75:24:3d:7e:e6:7f:10:96:fa:83:68:
         75:c1:1f:f6:8f:7d:eb:f1:00:c3:4c:54:10:c8:a2:7c:90:6b:
         1e:fe:55:af:ca:b0:4b:5c:fe:2f:32:c0:ae:05:8b:81:d2:e8:
         ee:b1:84:36:21:5f:91:15:c9:b6:4d:12:8d:52:b6:62:c4:88:
         a9:6a:0f:93:38:44:78:2a:7c:5a:4e:e3:8e:0a:86:5b:e1:e1:
         dc:e4:cc:16
-----BEGIN CERTIFICATE-----
MIIDXDCCAkSgAwIBAgIQDZPDPYMctLUQez6gUtqBITANBgkqhkiG9w0BAQsFADAW
MRQwEgYDVQQDDAt0ZWFtMjQ0LW5ldDAeFw0yMjA1MTgxOTI1MzhaFw0yNTA1MDIx
OTI1MzhaMBkxFzAVBgNVBAMMDnRlYW0yNDQtY2xpZW50MIIBIjANBgkqhkiG9w0B
AQEFAAOCAQ8AMIIBCgKCAQEAvOx2NiExERa2mMBScqXxarCKnhcpnDFtFa2bmj2/
E4nLGAoZB09KK55HMAeZFB00UedxQ+LyX+5lE9pZTLH7uMGI1qzG9hDY59oox/gW
+s3PRe0J6OLLDu132Ga2qBMN0rSAkgjY6ppthL+cj3mSqQsIs6aKkI9+DDpZ9hK5
hHQgZ+R4dcAKnxO80iW26IlbOtl87hCFEtE3dhiDiO9l9DPwatIpNFwtmg0EiRh1
/xqpg525jbEYsBNwO8XkLCupNAdqOzdNtoXHP8rIZUMFhEN8Jgl+1xJIiy8DxNv2
HouBo3OSbBINzOcmbC1XjB297/rjQH9n5US0xfhQcxS+uQIDAQABo4GiMIGfMAkG
A1UdEwQCMAAwHQYDVR0OBBYEFOfvb+oCTribcy7Jvj4P9vowNIJcMFEGA1UdIwRK
MEiAFEUgiOZax96mE/xtA0/pROZHF1SnoRqkGDAWMRQwEgYDVQQDDAt0ZWFtMjQ0
LW5ldIIUbMimO/dJ10XbeTJMvt2+5UFsPVMwEwYDVR0lBAwwCgYIKwYBBQUHAwIw
CwYDVR0PBAQDAgeAMA0GCSqGSIb3DQEBCwUAA4IBAQAHosEjS0SR5vpOHMXqRvOj
wwH50ad4pzv9bc+gjj2onul2KmhJcHc2kn2Rg0/w6MHvH03FQju4MEOAuAuyKur8
JHViAh6HUf8LseUkZvfTn5EqOtdHsHOE3zSeCN2fiVLaZN/eDlXDwX11OStnNcDl
zZGVTYlrD3zB3xB7kKaqHATGnA6zPNK3DW4q1tQrebW2P2llBfyhbbAneHuAi9N3
UdFbkagGgfjzdSQ9fuZ/EJb6g2h1wR/2j33r8QDDTFQQyKJ8kGse/lWvyrBLXP4v
MsCuBYuB0ujusYQ2IV+RFcm2TRKNUrZixIipag+TOER4KnxaTuOOCoZb4eHc5MwW
-----END CERTIFICATE-----
