Certificate:
    Data:
        Version: 3 (0x2)
        Serial Number:
            4e:ce:03:eb:97:94:39:a7:c6:b8:f3:42:b5:89:04:ed
        Signature Algorithm: sha256WithRSAEncryption
        Issuer: CN=team244-net
        Validity
            Not Before: May 18 19:25:38 2022 GMT
            Not After : May  2 19:25:38 2025 GMT
        Subject: CN=team244-server
        Subject Public Key Info:
            Public Key Algorithm: rsaEncryption
                RSA Public-Key: (2048 bit)
                Modulus:
                    00:c4:88:78:a1:cb:92:6d:16:81:b3:e9:e3:6d:c2:
                    08:70:a7:8d:15:80:77:88:c8:4b:25:6f:7f:92:63:
                    b0:88:a5:97:d8:15:21:91:88:5f:be:18:6a:e1:ff:
                    f6:68:a4:22:c4:5c:f3:49:53:26:af:29:0f:10:0a:
                    3a:84:a2:fa:e1:3b:f3:a2:42:4a:34:3e:48:1e:ae:
                    ac:25:ec:b3:fb:b2:18:67:af:21:a9:3b:08:c3:46:
                    e7:8b:41:67:30:89:e0:78:82:82:76:45:b1:75:99:
                    0e:b1:1a:e5:2e:a6:27:4a:be:ba:09:9e:7b:6a:a6:
                    3d:52:30:5f:5b:f0:cd:f2:20:ed:96:c5:bd:5f:5a:
                    d3:20:10:82:e2:be:1c:3f:e2:b6:b3:30:b8:8b:36:
                    43:18:90:67:b8:15:83:61:f3:f2:d3:f1:3e:a3:39:
                    3c:f7:22:2a:34:20:c9:52:89:be:7f:1a:46:48:2e:
                    56:10:c7:be:ac:a7:cf:5c:8e:65:27:2e:da:c7:8c:
                    ea:68:89:8c:a6:e4:99:5c:17:11:9b:75:42:cd:42:
                    db:b3:89:12:7f:89:7b:03:d9:47:bd:bd:fb:d9:d9:
                    64:00:3a:ae:df:cc:ed:f5:1e:b6:c0:8d:73:59:d7:
                    73:7b:7c:ff:b5:e9:a9:9c:62:36:3b:61:b7:2c:dd:
                    c7:09
                Exponent: 65537 (0x10001)
        X509v3 extensions:
            X509v3 Basic Constraints: 
                CA:FALSE
            X509v3 Subject Key Identifier: 
                35:74:0B:E3:41:DC:5E:55:98:33:01:9A:AC:62:9E:9D:19:33:BE:64
            X509v3 Authority Key Identifier: 
                keyid:45:20:88:E6:5A:C7:DE:A6:13:FC:6D:03:4F:E9:44:E6:47:17:54:A7
                DirName:/CN=team244-net
                serial:6C:C8:A6:3B:F7:49:D7:45:DB:79:32:4C:BE:DD:BE:E5:41:6C:3D:53

            X509v3 Extended Key Usage: 
                TLS Web Server Authentication
            X509v3 Key Usage: 
                Digital Signature, Key Encipherment
            X509v3 Subject Alternative Name: 
                DNS:team244-server
    Signature Algorithm: sha256WithRSAEncryption
         02:1a:1f:6a:e5:c4:9f:7f:8d:27:05:c6:87:66:1d:d6:e3:8b:
         7d:94:e2:f9:07:55:51:9d:8a:ca:89:b0:76:eb:96:d4:68:0a:
         50:28:c1:7e:5a:4b:fc:ae:63:d3:82:d9:83:1c:61:a6:77:7c:
         1a:44:70:8e:71:b0:9d:f5:10:53:bc:77:5d:ba:67:69:78:5a:
         1c:06:cf:88:b3:32:75:09:90:6e:26:3a:88:85:79:d2:5f:fe:
         27:ad:1e:6d:9b:57:cc:5b:9d:48:48:27:4d:59:ea:c1:c5:44:
         68:6f:12:97:3f:b6:29:b9:67:a4:25:62:7a:d0:b1:5e:5f:8f:
         18:45:9e:99:e3:c8:ea:20:19:32:10:3f:58:f9:24:4e:58:49:
         24:d9:9e:fb:82:05:07:47:be:08:df:c5:ff:88:75:90:9d:a0:
         f1:20:8d:46:45:c2:e8:9d:37:ce:46:3f:4b:f5:82:64:17:1f:
         05:89:ef:74:d1:70:7d:d8:9a:8c:e0:f2:a4:1b:92:cd:57:6a:
         f0:21:4d:b8:a0:18:ec:2b:09:5c:fb:af:6d:0d:fb:82:e2:35:
         d8:4c:1c:38:f8:a2:07:77:84:f5:08:a4:f4:ca:08:94:65:5f:
         51:1f:57:07:62:51:1b:e4:c9:e2:33:0a:57:59:50:e2:af:21:
         0e:6e:ea:51
-----BEGIN CERTIFICATE-----
MIIDdzCCAl+gAwIBAgIQTs4D65eUOafGuPNCtYkE7TANBgkqhkiG9w0BAQsFADAW
MRQwEgYDVQQDDAt0ZWFtMjQ0LW5ldDAeFw0yMjA1MTgxOTI1MzhaFw0yNTA1MDIx
OTI1MzhaMBkxFzAVBgNVBAMMDnRlYW0yNDQtc2VydmVyMIIBIjANBgkqhkiG9w0B
AQEFAAOCAQ8AMIIBCgKCAQEAxIh4ocuSbRaBs+njbcIIcKeNFYB3iMhLJW9/kmOw
iKWX2BUhkYhfvhhq4f/2aKQixFzzSVMmrykPEAo6hKL64TvzokJKND5IHq6sJeyz
+7IYZ68hqTsIw0bni0FnMIngeIKCdkWxdZkOsRrlLqYnSr66CZ57aqY9UjBfW/DN
8iDtlsW9X1rTIBCC4r4cP+K2szC4izZDGJBnuBWDYfPy0/E+ozk89yIqNCDJUom+
fxpGSC5WEMe+rKfPXI5lJy7ax4zqaImMpuSZXBcRm3VCzULbs4kSf4l7A9lHvb37
2dlkADqu38zt9R62wI1zWddze3z/tempnGI2O2G3LN3HCQIDAQABo4G9MIG6MAkG
A1UdEwQCMAAwHQYDVR0OBBYEFDV0C+NB3F5VmDMBmqxinp0ZM75kMFEGA1UdIwRK
MEiAFEUgiOZax96mE/xtA0/pROZHF1SnoRqkGDAWMRQwEgYDVQQDDAt0ZWFtMjQ0
LW5ldIIUbMimO/dJ10XbeTJMvt2+5UFsPVMwEwYDVR0lBAwwCgYIKwYBBQUHAwEw
CwYDVR0PBAQDAgWgMBkGA1UdEQQSMBCCDnRlYW0yNDQtc2VydmVyMA0GCSqGSIb3
DQEBCwUAA4IBAQACGh9q5cSff40nBcaHZh3W44t9lOL5B1VRnYrKibB265bUaApQ
KMF+Wkv8rmPTgtmDHGGmd3waRHCOcbCd9RBTvHddumdpeFocBs+IszJ1CZBuJjqI
hXnSX/4nrR5tm1fMW51ISCdNWerBxURobxKXP7YpuWekJWJ60LFeX48YRZ6Z48jq
IBkyED9Y+SROWEkk2Z77ggUHR74I38X/iHWQnaDxII1GRcLonTfORj9L9YJkFx8F
ie900XB92JqM4PKkG5LNV2rwIU24oBjsKwlc+69tDfuC4jXYTBw4+KIHd4T1CKT0
ygiUZV9RH1cHYlEb5MniMwpXWVDiryEObupR
-----END CERTIFICATE-----
