Certificate:
    Data:
        Version: 3 (0x2)
        Serial Number:
            72:86:e5:4e:a0:42:05:fb:2d:3d:f5:6d:7c:fa:54:3e
        Signature Algorithm: sha256WithRSAEncryption
        Issuer: CN=team452-net
        Validity
            Not Before: May 18 21:23:30 2022 GMT
            Not After : May  2 21:23:30 2025 GMT
        Subject: CN=team452-server
        Subject Public Key Info:
            Public Key Algorithm: rsaEncryption
                RSA Public-Key: (2048 bit)
                Modulus:
                    00:ac:86:6b:03:b5:45:08:3d:f1:bf:3b:89:4f:ff:
                    2d:fb:01:1a:68:e1:8a:a6:57:4e:e4:73:77:99:58:
                    b6:e1:6b:1b:e9:df:8d:8c:2b:95:88:48:09:86:ec:
                    4e:b3:11:25:db:c2:e5:39:57:7b:2d:22:47:1d:ac:
                    87:ab:4a:f3:a1:e1:41:89:d7:a3:94:47:fc:f1:9c:
                    00:87:dc:ba:02:f3:be:fd:c1:d6:9a:4f:b2:f4:47:
                    8a:47:77:28:94:f1:f0:3f:10:22:02:be:fd:20:07:
                    8f:af:62:30:a3:e7:52:07:06:3f:05:29:60:13:0e:
                    f7:e1:df:b1:ad:9f:3f:0e:48:be:2e:71:2e:0c:a9:
                    03:64:4a:78:52:d8:c2:22:86:82:79:a1:c8:0e:6f:
                    b5:0d:67:33:30:b3:28:5a:ae:3f:80:9b:8b:58:cf:
                    0a:db:cd:47:93:49:8f:a3:3d:9c:bc:27:09:04:6b:
                    2e:f4:85:80:8b:d9:38:cc:78:ac:b6:54:e2:38:ae:
                    d9:ce:1f:a2:07:3d:fe:d6:dd:1e:f1:0e:41:3f:62:
                    10:c1:0f:43:90:1a:f4:79:94:e6:5c:db:ee:9c:db:
                    5d:5a:89:08:ce:37:22:a3:4d:49:f2:93:59:e0:d6:
                    d9:5b:57:50:92:f0:47:45:e5:1a:5c:01:76:8c:36:
                    23:a3
                Exponent: 65537 (0x10001)
        X509v3 extensions:
            X509v3 Basic Constraints: 
                CA:FALSE
            X509v3 Subject Key Identifier: 
                82:1C:92:3B:0B:C5:FA:FC:60:B2:C0:56:3E:CD:70:37:30:A5:57:3D
            X509v3 Authority Key Identifier: 
                keyid:EE:EE:54:77:22:2E:DF:D6:5A:70:F2:2D:56:A6:9E:EE:DD:D6:50:56
                DirName:/CN=team452-net
                serial:29:79:7A:89:57:19:68:8A:C7:5A:EE:61:A4:A3:2D:B8:7D:AE:B0:D6

            X509v3 Extended Key Usage: 
                TLS Web Server Authentication
            X509v3 Key Usage: 
                Digital Signature, Key Encipherment
            X509v3 Subject Alternative Name: 
                DNS:team452-server
    Signature Algorithm: sha256WithRSAEncryption
         56:a3:ba:7e:a6:54:e7:8b:a9:ce:a0:7e:d7:5f:a9:fe:e3:d1:
         de:1a:b1:88:3e:99:92:ee:70:ce:dc:69:4c:b0:24:e4:7b:e4:
         1c:52:31:5f:d4:55:5d:af:c6:c8:00:1a:57:67:1e:c4:e9:9f:
         39:b2:42:b2:e0:b4:8a:56:29:8e:5e:90:f3:af:d1:4c:fd:9a:
         da:a6:23:36:cb:13:f0:51:35:f3:33:9d:de:7e:04:e7:ef:c1:
         62:3b:5c:d5:c0:ba:4a:56:14:bc:5e:a3:ee:3c:e4:59:07:1b:
         cd:38:d3:7e:8e:1d:ac:c2:df:b1:bb:77:5b:18:98:75:5a:f8:
         e2:be:b2:73:b3:f7:58:93:0b:cf:31:c6:85:34:34:8d:22:43:
         cd:f4:d5:8e:b3:16:b1:ac:ae:f5:3f:75:e2:b8:c8:2e:b4:56:
         78:d8:04:4a:51:c5:0b:28:a4:b3:53:f8:2f:ab:13:f6:15:a9:
         17:d1:6b:04:50:04:c9:ab:e8:e7:ca:37:dc:36:67:21:17:2e:
         7e:7a:51:d6:09:e3:67:d2:c3:40:f6:bf:66:68:ea:c5:8d:b4:
         a3:01:87:3a:95:11:d1:7b:d2:78:0b:84:19:b3:ec:79:88:da:
         27:14:b7:28:23:9c:c1:c0:36:0b:e2:41:9c:a9:f7:c9:57:f2:
         93:19:17:4b
-----BEGIN CERTIFICATE-----
MIIDdzCCAl+gAwIBAgIQcoblTqBCBfstPfVtfPpUPjANBgkqhkiG9w0BAQsFADAW
MRQwEgYDVQQDDAt0ZWFtNDUyLW5ldDAeFw0yMjA1MTgyMTIzMzBaFw0yNTA1MDIy
MTIzMzBaMBkxFzAVBgNVBAMMDnRlYW00NTItc2VydmVyMIIBIjANBgkqhkiG9w0B
AQEFAAOCAQ8AMIIBCgKCAQEArIZrA7VFCD3xvzuJT/8t+wEaaOGKpldO5HN3mVi2
4Wsb6d+NjCuViEgJhuxOsxEl28LlOVd7LSJHHayHq0rzoeFBidejlEf88ZwAh9y6
AvO+/cHWmk+y9EeKR3colPHwPxAiAr79IAePr2Iwo+dSBwY/BSlgEw734d+xrZ8/
Dki+LnEuDKkDZEp4UtjCIoaCeaHIDm+1DWczMLMoWq4/gJuLWM8K281Hk0mPoz2c
vCcJBGsu9IWAi9k4zHistlTiOK7Zzh+iBz3+1t0e8Q5BP2IQwQ9DkBr0eZTmXNvu
nNtdWokIzjcio01J8pNZ4NbZW1dQkvBHReUaXAF2jDYjowIDAQABo4G9MIG6MAkG
A1UdEwQCMAAwHQYDVR0OBBYEFIIckjsLxfr8YLLAVj7NcDcwpVc9MFEGA1UdIwRK
MEiAFO7uVHciLt/WWnDyLVamnu7d1lBWoRqkGDAWMRQwEgYDVQQDDAt0ZWFtNDUy
LW5ldIIUKXl6iVcZaIrHWu5hpKMtuH2usNYwEwYDVR0lBAwwCgYIKwYBBQUHAwEw
CwYDVR0PBAQDAgWgMBkGA1UdEQQSMBCCDnRlYW00NTItc2VydmVyMA0GCSqGSIb3
DQEBCwUAA4IBAQBWo7p+plTni6nOoH7XX6n+49HeGrGIPpmS7nDO3GlMsCTke+Qc
UjFf1FVdr8bIABpXZx7E6Z85skKy4LSKVimOXpDzr9FM/ZrapiM2yxPwUTXzM53e
fgTn78FiO1zVwLpKVhS8XqPuPORZBxvNONN+jh2swt+xu3dbGJh1WvjivrJzs/dY
kwvPMcaFNDSNIkPN9NWOsxaxrK71P3XiuMgutFZ42ARKUcULKKSzU/gvqxP2FakX
0WsEUATJq+jnyjfcNmchFy5+elHWCeNn0sNA9r9maOrFjbSjAYc6lRHRe9J4C4QZ
s+x5iNonFLcoI5zBwDYL4kGcqffJV/KTGRdL
-----END CERTIFICATE-----
