Certificate:
    Data:
        Version: 3 (0x2)
        Serial Number:
            12:ee:3a:da:68:c4:60:ce:ea:68:f3:16:73:1f:12:a2
        Signature Algorithm: sha256WithRSAEncryption
        Issuer: CN=team321-net
        Validity
            Not Before: May 18 20:08:22 2022 GMT
            Not After : May  2 20:08:22 2025 GMT
        Subject: CN=team321-server
        Subject Public Key Info:
            Public Key Algorithm: rsaEncryption
                RSA Public-Key: (2048 bit)
                Modulus:
                    00:a6:45:ef:28:5d:e5:c9:2a:f6:2e:63:cd:2d:4c:
                    80:5e:8d:7e:b9:19:71:39:12:a7:53:ea:8e:9c:72:
                    45:8f:5f:a8:f8:e2:a9:c5:f6:90:80:a5:e9:f3:5b:
                    e8:3b:05:87:41:cc:94:ca:de:7d:f0:bc:90:3a:ff:
                    61:76:0a:fc:0f:38:f5:5d:05:9f:e7:cc:10:b4:7b:
                    8f:f5:06:84:50:8d:64:f2:65:98:b5:6b:e8:ba:50:
                    b3:7f:6e:4b:61:24:2a:fb:41:73:b7:71:5e:63:6c:
                    28:42:cf:35:69:31:fe:90:06:bf:5a:ad:c1:60:22:
                    b1:bb:52:e4:5b:aa:70:aa:7d:f7:a8:07:11:6d:77:
                    0e:d9:84:d4:1f:dc:54:35:fd:11:00:e6:24:ef:23:
                    91:db:87:19:74:22:57:d0:ab:f7:78:75:7a:d9:f2:
                    2a:e7:44:d4:c4:8a:86:a5:44:2b:8d:e7:22:51:6b:
                    ca:fe:dd:2d:0b:b0:97:fe:5a:7e:10:8a:1c:ac:b9:
                    06:c3:33:0d:2c:c5:b4:06:ac:a8:4a:a3:60:01:ab:
                    e1:fc:ff:b1:ba:10:44:03:87:1c:d6:73:74:1c:0a:
                    26:04:d1:a2:df:24:b2:f2:68:78:bc:e7:5d:78:d2:
                    48:f5:f1:09:d7:e4:be:c6:42:d2:00:06:49:da:18:
                    48:e9
                Exponent: 65537 (0x10001)
        X509v3 extensions:
            X509v3 Basic Constraints: 
                CA:FALSE
            X509v3 Subject Key Identifier: 
                B9:DA:42:6D:78:8F:C3:D9:16:7C:3E:CE:2E:03:1B:ED:93:90:96:F9
            X509v3 Authority Key Identifier: 
                keyid:F2:3F:7D:1B:22:FB:DB:6F:95:40:7F:CC:95:01:2B:17:94:FB:C6:24
                DirName:/CN=team321-net
                serial:54:72:94:9F:B3:0B:24:E9:5C:E2:AB:A6:21:CF:6F:D7:12:5A:49:1B

            X509v3 Extended Key Usage: 
                TLS Web Server Authentication
            X509v3 Key Usage: 
                Digital Signature, Key Encipherment
            X509v3 Subject Alternative Name: 
                DNS:team321-server
    Signature Algorithm: sha256WithRSAEncryption
         44:d2:46:4b:f7:ae:99:1d:e3:0a:d0:f4:1d:da:09:ce:c4:9f:
         ff:e0:c1:f1:81:e2:77:a7:2c:e8:dd:70:04:d1:22:76:73:ad:
         44:52:79:00:97:37:22:5b:62:1f:0f:65:39:3b:58:14:f7:ca:
         2c:0c:42:7f:c5:a6:39:30:82:03:b2:cb:97:94:52:63:e4:70:
         a7:94:02:ed:e1:a8:c3:49:19:64:83:cd:f0:24:89:ef:1b:16:
         49:37:5f:30:a0:c9:e9:df:7f:c2:93:fa:77:93:b1:d2:20:92:
         2e:1c:3d:04:5d:79:3a:41:92:b2:21:77:4d:92:ce:ac:fd:64:
         c2:46:bb:aa:61:82:2a:6e:37:18:9c:da:ff:7b:87:af:0d:1a:
         5d:13:b5:a5:91:fb:f8:bf:0c:8d:01:58:14:a6:9c:da:a5:08:
         d4:31:e8:31:b3:6b:b3:84:b5:be:78:01:5e:96:a6:40:9c:9f:
         c9:23:19:88:47:3d:e2:37:3a:ea:f0:54:e9:f3:1c:b4:5a:a9:
         bf:9e:4f:fb:0e:ac:79:eb:33:a0:2d:d7:a8:f0:f3:0f:f9:ed:
         06:a7:65:97:c1:4f:40:5f:09:20:91:5d:c0:37:4c:5a:d0:b6:
         7c:de:3c:eb:ca:68:ce:d8:26:41:fc:a1:39:b3:80:f3:be:b5:
         fd:03:23:cc
-----BEGIN CERTIFICATE-----
MIIDdzCCAl+gAwIBAgIQEu462mjEYM7qaPMWcx8SojANBgkqhkiG9w0BAQsFADAW
MRQwEgYDVQQDDAt0ZWFtMzIxLW5ldDAeFw0yMjA1MTgyMDA4MjJaFw0yNTA1MDIy
MDA4MjJaMBkxFzAVBgNVBAMMDnRlYW0zMjEtc2VydmVyMIIBIjANBgkqhkiG9w0B
AQEFAAOCAQ8AMIIBCgKCAQEApkXvKF3lySr2LmPNLUyAXo1+uRlxORKnU+qOnHJF
j1+o+OKpxfaQgKXp81voOwWHQcyUyt598LyQOv9hdgr8Dzj1XQWf58wQtHuP9QaE
UI1k8mWYtWvoulCzf25LYSQq+0Fzt3FeY2woQs81aTH+kAa/Wq3BYCKxu1LkW6pw
qn33qAcRbXcO2YTUH9xUNf0RAOYk7yOR24cZdCJX0Kv3eHV62fIq50TUxIqGpUQr
jeciUWvK/t0tC7CX/lp+EIocrLkGwzMNLMW0BqyoSqNgAavh/P+xuhBEA4cc1nN0
HAomBNGi3ySy8mh4vOddeNJI9fEJ1+S+xkLSAAZJ2hhI6QIDAQABo4G9MIG6MAkG
A1UdEwQCMAAwHQYDVR0OBBYEFLnaQm14j8PZFnw+zi4DG+2TkJb5MFEGA1UdIwRK
MEiAFPI/fRsi+9tvlUB/zJUBKxeU+8YkoRqkGDAWMRQwEgYDVQQDDAt0ZWFtMzIx
LW5ldIIUVHKUn7MLJOlc4qumIc9v1xJaSRswEwYDVR0lBAwwCgYIKwYBBQUHAwEw
CwYDVR0PBAQDAgWgMBkGA1UdEQQSMBCCDnRlYW0zMjEtc2VydmVyMA0GCSqGSIb3
DQEBCwUAA4IBAQBE0kZL966ZHeMK0PQd2gnOxJ//4MHxgeJ3pyzo3XAE0SJ2c61E
UnkAlzciW2IfD2U5O1gU98osDEJ/xaY5MIIDssuXlFJj5HCnlALt4ajDSRlkg83w
JInvGxZJN18woMnp33/Ck/p3k7HSIJIuHD0EXXk6QZKyIXdNks6s/WTCRruqYYIq
bjcYnNr/e4evDRpdE7Wlkfv4vwyNAVgUppzapQjUMegxs2uzhLW+eAFelqZAnJ/J
IxmIRz3iNzrq8FTp8xy0Wqm/nk/7Dqx56zOgLdeo8PMP+e0Gp2WXwU9AXwkgkV3A
N0xa0LZ83jzrymjO2CZB/KE5s4DzvrX9AyPM
-----END CERTIFICATE-----
