Certificate:
    Data:
        Version: 3 (0x2)
        Serial Number:
            66:b3:e1:37:1b:2b:cd:d1:81:36:2a:1d:2f:41:25:e2
        Signature Algorithm: sha256WithRSAEncryption
        Issuer: CN=team321-net
        Validity
            Not Before: May 18 20:08:22 2022 GMT
            Not After : May  2 20:08:22 2025 GMT
        Subject: CN=team321-client
        Subject Public Key Info:
            Public Key Algorithm: rsaEncryption
                RSA Public-Key: (2048 bit)
                Modulus:
                    00:c0:e3:a4:f0:3f:13:a6:32:99:12:d0:2d:5a:99:
                    de:99:84:8d:58:27:55:c4:75:05:19:04:dc:bf:71:
                    7c:8c:74:25:c5:23:d0:e6:08:81:22:5e:d7:53:d2:
                    aa:5a:43:03:06:fa:b2:ed:99:2e:64:01:4c:68:d4:
                    9d:df:1a:63:a3:03:23:60:fd:a1:5b:b8:e3:61:bc:
                    26:7d:ef:f3:72:89:4f:26:6a:b5:b1:61:df:74:a4:
                    d4:33:f3:ec:1d:ce:b2:dc:e3:d1:dc:9a:55:ee:c8:
                    2a:42:9b:55:7b:5b:4f:13:57:3d:1e:d0:59:25:38:
                    27:ae:c7:95:c8:42:a1:15:e6:01:a9:c9:89:61:14:
                    92:6f:44:4b:36:d4:c0:f2:bb:e9:55:7d:d4:c3:a1:
                    8b:12:3f:60:c6:47:9e:a2:fe:68:69:4e:ab:da:50:
                    a2:61:fb:e8:77:89:88:90:72:ba:07:bf:a1:e7:df:
                    d5:00:56:37:db:93:5a:05:3e:3c:4b:d2:c0:ba:bc:
                    1c:c5:ca:7a:59:35:08:a9:7c:8f:1f:f6:f2:ce:52:
                    55:73:6f:5a:c3:1d:02:2b:92:e1:4f:e9:a0:ca:54:
                    5e:ac:dc:81:c6:7c:7d:28:05:a1:79:1a:8c:9a:ca:
                    5c:17:14:fc:25:e4:5b:f7:39:e1:9e:b8:d9:4b:42:
                    45:d3
                Exponent: 65537 (0x10001)
        X509v3 extensions:
            X509v3 Basic Constraints: 
                CA:FALSE
            X509v3 Subject Key Identifier: 
                63:28:F6:C7:AA:F3:EC:10:7F:23:77:82:DF:C0:7B:87:A2:0C:95:4E
            X509v3 Authority Key Identifier: 
                keyid:F2:3F:7D:1B:22:FB:DB:6F:95:40:7F:CC:95:01:2B:17:94:FB:C6:24
                DirName:/CN=team321-net
                serial:54:72:94:9F:B3:0B:24:E9:5C:E2:AB:A6:21:CF:6F:D7:12:5A:49:1B

            X509v3 Extended Key Usage: 
                TLS Web Client Authentication
            X509v3 Key Usage: 
                Digital Signature
    Signature Algorithm: sha256WithRSAEncryption
         92:14:df:2f:73:66:10:cc:ba:2c:c2:d3:3c:dd:fa:97:c3:a2:
         73:60:9b:08:36:b6:b5:20:6d:fd:fd:94:12:8e:a7:90:11:9b:
         49:02:1e:8d:13:aa:1a:ce:4a:b6:62:04:9a:e7:e1:a2:f2:78:
         e7:75:e2:f3:9a:62:da:e2:e8:b9:1a:3e:18:47:5b:0c:81:ee:
         64:ca:87:cd:06:f1:db:9f:6d:c0:15:28:71:ce:f0:5e:41:ef:
         d4:be:02:f4:ab:bb:9e:4c:29:bc:e1:65:b9:c3:fc:38:e8:f3:
         3f:41:c3:e5:45:32:d6:83:68:a9:58:68:8e:c0:c4:5a:40:45:
         3c:99:b3:f9:b1:e6:4f:11:7e:24:8c:cd:d0:ea:b0:48:34:d1:
         a8:58:9c:5d:da:eb:6f:3a:7f:92:aa:fd:8e:60:a0:30:b8:a9:
         91:b5:69:d2:52:d8:23:1a:38:74:4f:5e:57:98:55:cb:f4:e4:
         c4:f2:2d:50:86:26:42:fb:6a:e1:90:58:4e:fb:c3:76:28:d5:
         e7:62:fa:12:79:49:de:0c:2c:d4:7d:f9:93:97:f8:7a:c4:e2:
         ed:70:3b:bd:4f:52:57:c6:a4:54:5a:6d:fc:c5:44:00:cd:09:
         fe:3c:46:86:5a:9a:a0:46:23:2d:4d:48:a7:a9:b9:6d:2f:3e:
         16:d7:89:27
-----BEGIN CERTIFICATE-----
MIIDXDCCAkSgAwIBAgIQZrPhNxsrzdGBNiodL0El4jANBgkqhkiG9w0BAQsFADAW
MRQwEgYDVQQDDAt0ZWFtMzIxLW5ldDAeFw0yMjA1MTgyMDA4MjJaFw0yNTA1MDIy
MDA4MjJaMBkxFzAVBgNVBAMMDnRlYW0zMjEtY2xpZW50MIIBIjANBgkqhkiG9w0B
AQEFAAOCAQ8AMIIBCgKCAQEAwOOk8D8TpjKZEtAtWpnemYSNWCdVxHUFGQTcv3F8
jHQlxSPQ5giBIl7XU9KqWkMDBvqy7ZkuZAFMaNSd3xpjowMjYP2hW7jjYbwmfe/z
colPJmq1sWHfdKTUM/PsHc6y3OPR3JpV7sgqQptVe1tPE1c9HtBZJTgnrseVyEKh
FeYBqcmJYRSSb0RLNtTA8rvpVX3Uw6GLEj9gxkeeov5oaU6r2lCiYfvod4mIkHK6
B7+h59/VAFY325NaBT48S9LAurwcxcp6WTUIqXyPH/byzlJVc29awx0CK5LhT+mg
ylRerNyBxnx9KAWheRqMmspcFxT8JeRb9znhnrjZS0JF0wIDAQABo4GiMIGfMAkG
A1UdEwQCMAAwHQYDVR0OBBYEFGMo9seq8+wQfyN3gt/Ae4eiDJVOMFEGA1UdIwRK
MEiAFPI/fRsi+9tvlUB/zJUBKxeU+8YkoRqkGDAWMRQwEgYDVQQDDAt0ZWFtMzIx
LW5ldIIUVHKUn7MLJOlc4qumIc9v1xJaSRswEwYDVR0lBAwwCgYIKwYBBQUHAwIw
CwYDVR0PBAQDAgeAMA0GCSqGSIb3DQEBCwUAA4IBAQCSFN8vc2YQzLoswtM83fqX
w6JzYJsINra1IG39/ZQSjqeQEZtJAh6NE6oazkq2YgSa5+Gi8njndeLzmmLa4ui5
Gj4YR1sMge5kyofNBvHbn23AFShxzvBeQe/UvgL0q7ueTCm84WW5w/w46PM/QcPl
RTLWg2ipWGiOwMRaQEU8mbP5seZPEX4kjM3Q6rBINNGoWJxd2utvOn+Sqv2OYKAw
uKmRtWnSUtgjGjh0T15XmFXL9OTE8i1QhiZC+2rhkFhO+8N2KNXnYvoSeUneDCzU
ffmTl/h6xOLtcDu9T1JXxqRUWm38xUQAzQn+PEaGWpqgRiMtTUinqbltLz4W14kn
-----END CERTIFICATE-----
