Certificate:
    Data:
        Version: 3 (0x2)
        Serial Number:
            db:51:b6:ab:e3:3a:fa:ba:75:de:a6:0b:69:a4:e0:cd
        Signature Algorithm: sha256WithRSAEncryption
        Issuer: CN=team475-net
        Validity
            Not Before: May 18 21:29:33 2022 GMT
            Not After : May  2 21:29:33 2025 GMT
        Subject: CN=team475-server
        Subject Public Key Info:
            Public Key Algorithm: rsaEncryption
                RSA Public-Key: (2048 bit)
                Modulus:
                    00:e6:74:a3:5c:84:88:0d:d1:eb:c2:fb:66:63:5d:
                    8c:17:fa:29:6b:96:f2:b1:74:84:90:c7:7a:50:1d:
                    e2:d7:4f:65:a4:0e:2d:89:19:94:f8:56:9f:91:ca:
                    80:52:b6:ee:88:ed:b5:b0:2e:09:88:e1:46:eb:41:
                    28:3a:1c:a2:ae:33:5b:af:bd:de:a1:95:d5:a9:db:
                    6e:63:35:d0:b4:56:bf:7f:81:b9:21:97:ad:c7:b6:
                    1e:3d:4b:ed:91:f2:a8:09:c2:b2:4f:1d:3a:10:e0:
                    45:0c:1c:85:3b:37:2b:6b:a0:71:7a:cd:3f:03:10:
                    af:b0:57:6b:76:78:52:07:fd:2e:b4:ee:fd:15:4b:
                    84:6d:1b:55:41:62:92:1e:58:71:82:ef:ff:f7:68:
                    d1:b9:98:e0:64:c9:1f:92:30:92:50:fc:9c:c7:ac:
                    c6:5b:5d:6b:d6:a3:2c:66:85:fc:bc:8b:bc:da:79:
                    fb:b9:78:f9:f1:88:84:43:e8:96:22:fe:d1:7e:11:
                    f0:03:ee:e5:5f:a2:4b:84:6a:7f:f5:8e:99:cb:ca:
                    d3:9c:58:1e:12:e1:47:6c:13:68:35:f5:36:da:93:
                    35:bc:d6:a2:97:30:df:81:5d:1a:f4:aa:b1:ba:85:
                    98:40:8d:1c:0b:92:2c:79:f3:6c:eb:f2:8c:51:13:
                    1f:11
                Exponent: 65537 (0x10001)
        X509v3 extensions:
            X509v3 Basic Constraints: 
                CA:FALSE
            X509v3 Subject Key Identifier: 
                A8:CA:75:00:27:6B:98:AF:4D:7E:BE:EA:09:7C:70:42:DD:B8:E8:BB
            X509v3 Authority Key Identifier: 
                keyid:A6:EA:B2:CD:F6:C6:1D:77:B8:89:39:93:79:C1:40:94:B7:36:A8:66
                DirName:/CN=team475-net
                serial:2A:9D:65:38:52:97:18:32:96:22:3F:73:90:EC:5C:20:30:AF:94:83

            X509v3 Extended Key Usage: 
                TLS Web Server Authentication
            X509v3 Key Usage: 
                Digital Signature, Key Encipherment
            X509v3 Subject Alternative Name: 
                DNS:team475-server
    Signature Algorithm: sha256WithRSAEncryption
         8f:65:38:46:de:e9:27:2e:2a:ea:fa:be:a0:b1:93:f8:f7:31:
         0a:b2:e5:f7:55:ef:0d:8a:12:3b:f6:49:f9:36:45:18:8f:a3:
         0b:34:28:c6:07:12:69:93:59:38:b0:4d:fb:2a:3d:99:71:80:
         39:1e:50:a1:c8:8d:c9:57:bb:83:2a:53:38:d9:34:59:67:50:
         8b:5d:ee:ca:53:99:f3:fa:2e:dc:aa:05:c1:e0:cf:50:9d:e3:
         b0:9f:4e:1b:05:0c:b8:86:09:b7:6d:0d:6a:f4:61:d9:89:c7:
         36:a6:ff:ee:e1:65:ae:2c:4c:2c:df:e4:f2:b6:21:1c:66:be:
         fa:6b:5b:41:6a:f5:ce:ec:a0:b3:58:5d:c3:5a:84:cc:0f:4e:
         b9:4a:47:90:ac:0f:30:68:b2:16:8a:22:63:21:2c:0a:97:f0:
         af:94:1c:69:5b:bf:8c:f6:c3:4d:d8:84:99:b1:98:73:5a:cf:
         77:e5:f9:f3:d0:c5:18:ea:b2:93:e5:9a:79:fc:e3:26:90:6c:
         49:b9:9f:e3:75:8a:d7:49:ec:a0:91:9f:20:74:23:d6:a9:18:
         8d:bb:b0:00:54:38:a6:c0:59:e8:9b:e4:48:bd:77:37:c2:2b:
         7e:81:7e:33:db:2b:ad:2a:89:6c:0a:5b:80:7b:3c:b8:c5:b2:
         bd:f7:3a:6b
-----BEGIN CERTIFICATE-----
MIIDeDCCAmCgAwIBAgIRANtRtqvjOvq6dd6mC2mk4M0wDQYJKoZIhvcNAQELBQAw
FjEUMBIGA1UEAwwLdGVhbTQ3NS1uZXQwHhcNMjIwNTE4MjEyOTMzWhcNMjUwNTAy
MjEyOTMzWjAZMRcwFQYDVQQDDA50ZWFtNDc1LXNlcnZlcjCCASIwDQYJKoZIhvcN
AQEBBQADggEPADCCAQoCggEBAOZ0o1yEiA3R68L7ZmNdjBf6KWuW8rF0hJDHelAd
4tdPZaQOLYkZlPhWn5HKgFK27ojttbAuCYjhRutBKDocoq4zW6+93qGV1anbbmM1
0LRWv3+BuSGXrce2Hj1L7ZHyqAnCsk8dOhDgRQwchTs3K2ugcXrNPwMQr7BXa3Z4
Ugf9LrTu/RVLhG0bVUFikh5YcYLv//do0bmY4GTJH5IwklD8nMesxltda9ajLGaF
/LyLvNp5+7l4+fGIhEPoliL+0X4R8APu5V+iS4Rqf/WOmcvK05xYHhLhR2wTaDX1
NtqTNbzWopcw34FdGvSqsbqFmECNHAuSLHnzbOvyjFETHxECAwEAAaOBvTCBujAJ
BgNVHRMEAjAAMB0GA1UdDgQWBBSoynUAJ2uYr01+vuoJfHBC3bjouzBRBgNVHSME
SjBIgBSm6rLN9sYdd7iJOZN5wUCUtzaoZqEapBgwFjEUMBIGA1UEAwwLdGVhbTQ3
NS1uZXSCFCqdZThSlxgyliI/c5DsXCAwr5SDMBMGA1UdJQQMMAoGCCsGAQUFBwMB
MAsGA1UdDwQEAwIFoDAZBgNVHREEEjAQgg50ZWFtNDc1LXNlcnZlcjANBgkqhkiG
9w0BAQsFAAOCAQEAj2U4Rt7pJy4q6vq+oLGT+PcxCrLl91XvDYoSO/ZJ+TZFGI+j
CzQoxgcSaZNZOLBN+yo9mXGAOR5QociNyVe7gypTONk0WWdQi13uylOZ8/ou3KoF
weDPUJ3jsJ9OGwUMuIYJt20NavRh2YnHNqb/7uFlrixMLN/k8rYhHGa++mtbQWr1
zuygs1hdw1qEzA9OuUpHkKwPMGiyFooiYyEsCpfwr5QcaVu/jPbDTdiEmbGYc1rP
d+X589DFGOqyk+WaefzjJpBsSbmf43WK10nsoJGfIHQj1qkYjbuwAFQ4psBZ6Jvk
SL13N8IrfoF+M9srrSqJbApbgHs8uMWyvfc6aw==
-----END CERTIFICATE-----
