Certificate:
    Data:
        Version: 3 (0x2)
        Serial Number:
            79:5f:41:bf:d8:2b:b5:1b:7b:99:a5:1f:f9:fe:5f:40
        Signature Algorithm: sha256WithRSAEncryption
        Issuer: CN=team689-net
        Validity
            Not Before: May 18 23:26:17 2022 GMT
            Not After : May  2 23:26:17 2025 GMT
        Subject: CN=team689-client
        Subject Public Key Info:
            Public Key Algorithm: rsaEncryption
                RSA Public-Key: (2048 bit)
                Modulus:
                    00:da:1e:2f:16:aa:9e:07:cc:5a:80:92:1e:ec:f1:
                    8b:ba:1c:62:7a:17:86:78:33:49:01:54:ed:1d:cf:
                    9d:93:d1:5f:56:b5:45:9b:a4:39:11:ae:b7:b7:7f:
                    5c:20:ba:af:7a:05:ef:35:3b:ba:ca:56:05:6f:ff:
                    ad:e5:0d:f4:8d:5c:6f:2d:6d:1a:4b:bc:d7:cd:9b:
                    2c:8d:e7:0b:d5:77:88:d0:52:29:fa:52:fb:3c:81:
                    ad:8a:09:3b:5e:93:9f:35:57:33:f6:fc:4b:39:3a:
                    8d:38:36:dc:91:27:04:df:2b:19:5c:a1:87:37:91:
                    37:88:a7:87:66:2c:c9:f3:70:e1:e2:ae:aa:1a:ce:
                    d1:f8:1c:a1:94:41:97:27:56:bd:0c:a1:cf:7b:a2:
                    c7:81:af:a4:35:dc:9f:31:a4:58:59:fa:f1:5e:4e:
                    4e:b5:5b:53:aa:d1:da:d9:51:bf:61:33:f4:13:84:
                    e3:5a:88:95:95:2d:07:6e:55:07:62:5a:78:79:41:
                    12:b9:19:43:bf:3d:f7:71:23:ff:a8:93:27:ea:3f:
                    ae:46:be:ad:6b:32:fa:9b:b8:e5:b7:41:3c:28:87:
                    97:93:b9:90:d2:2a:f6:22:01:2f:f3:68:8c:bc:64:
                    49:8a:a4:a5:5b:0a:52:e6:ad:fb:1f:b1:e0:b7:99:
                    a8:1f
                Exponent: 65537 (0x10001)
        X509v3 extensions:
            X509v3 Basic Constraints: 
                CA:FALSE
            X509v3 Subject Key Identifier: 
                EE:CD:AA:73:82:F6:94:7A:54:32:3D:62:7E:61:82:A2:1A:21:BB:7C
            X509v3 Authority Key Identifier: 
                keyid:81:D2:E9:7F:2A:B4:EF:B9:21:9A:85:98:8C:5F:E7:65:A0:94:99:B9
                DirName:/CN=team689-net
                serial:2B:D4:AA:EA:44:7E:49:58:61:F4:A4:C5:F5:B0:B3:BF:80:95:27:52

            X509v3 Extended Key Usage: 
                TLS Web Client Authentication
            X509v3 Key Usage: 
                Digital Signature
    Signature Algorithm: sha256WithRSAEncryption
         c0:3f:0a:be:8f:1a:be:a7:ee:c7:dd:2d:b5:6f:54:8a:f7:3a:
         30:1f:45:d9:c7:4a:05:0f:50:49:ac:2c:99:1b:5c:63:ec:f1:
         ec:65:33:79:26:d9:5d:bc:20:e6:ea:ee:7e:9e:23:51:08:5e:
         6e:80:e2:1e:5a:33:c2:0c:4d:f8:5a:9e:38:6d:7e:75:68:c7:
         34:58:f0:84:a9:27:0a:68:45:32:91:f1:fb:eb:f9:00:26:cb:
         dd:8f:61:30:84:51:30:17:60:a1:dc:c2:d8:e2:a4:26:36:14:
         cd:7d:31:03:20:a5:d4:f1:31:b9:70:e2:1a:51:b7:96:7e:52:
         b2:e3:3d:26:85:b2:9b:ee:cc:f2:a9:84:44:6c:24:5c:60:38:
         4f:45:76:70:56:fd:88:f2:58:ba:1e:c7:bb:92:fe:1a:89:1b:
         f7:2f:90:36:f5:0d:4c:e5:06:0d:40:a3:83:04:12:3a:d2:77:
         42:8e:9d:f0:94:23:62:f6:a2:74:34:6f:71:da:f1:e5:2b:7b:
         6c:0a:4e:2b:2c:d2:16:90:52:61:1e:56:4b:c4:33:71:c7:81:
         ef:36:58:ce:77:e6:04:91:d3:af:2f:87:24:82:28:02:bd:68:
         2b:e2:0c:41:4f:93:3d:eb:46:f3:6b:64:8b:05:00:f9:5a:d0:
         07:cc:f0:a3
-----BEGIN CERTIFICATE-----
MIIDXDCCAkSgAwIBAgIQeV9Bv9grtRt7maUf+f5fQDANBgkqhkiG9w0BAQsFADAW
MRQwEgYDVQQDDAt0ZWFtNjg5LW5ldDAeFw0yMjA1MTgyMzI2MTdaFw0yNTA1MDIy
MzI2MTdaMBkxFzAVBgNVBAMMDnRlYW02ODktY2xpZW50MIIBIjANBgkqhkiG9w0B
AQEFAAOCAQ8AMIIBCgKCAQEA2h4vFqqeB8xagJIe7PGLuhxieheGeDNJAVTtHc+d
k9FfVrVFm6Q5Ea63t39cILqvegXvNTu6ylYFb/+t5Q30jVxvLW0aS7zXzZssjecL
1XeI0FIp+lL7PIGtigk7XpOfNVcz9vxLOTqNODbckScE3ysZXKGHN5E3iKeHZizJ
83Dh4q6qGs7R+ByhlEGXJ1a9DKHPe6LHga+kNdyfMaRYWfrxXk5OtVtTqtHa2VG/
YTP0E4TjWoiVlS0HblUHYlp4eUESuRlDvz33cSP/qJMn6j+uRr6tazL6m7jlt0E8
KIeXk7mQ0ir2IgEv82iMvGRJiqSlWwpS5q37H7Hgt5moHwIDAQABo4GiMIGfMAkG
A1UdEwQCMAAwHQYDVR0OBBYEFO7NqnOC9pR6VDI9Yn5hgqIaIbt8MFEGA1UdIwRK
MEiAFIHS6X8qtO+5IZqFmIxf52WglJm5oRqkGDAWMRQwEgYDVQQDDAt0ZWFtNjg5
LW5ldIIUK9Sq6kR+SVhh9KTF9bCzv4CVJ1IwEwYDVR0lBAwwCgYIKwYBBQUHAwIw
CwYDVR0PBAQDAgeAMA0GCSqGSIb3DQEBCwUAA4IBAQDAPwq+jxq+p+7H3S21b1SK
9zowH0XZx0oFD1BJrCyZG1xj7PHsZTN5JtldvCDm6u5+niNRCF5ugOIeWjPCDE34
Wp44bX51aMc0WPCEqScKaEUykfH76/kAJsvdj2EwhFEwF2Ch3MLY4qQmNhTNfTED
IKXU8TG5cOIaUbeWflKy4z0mhbKb7szyqYREbCRcYDhPRXZwVv2I8li6Hse7kv4a
iRv3L5A29Q1M5QYNQKODBBI60ndCjp3wlCNi9qJ0NG9x2vHlK3tsCk4rLNIWkFJh
HlZLxDNxx4HvNljOd+YEkdOvL4ckgigCvWgr4gxBT5M960bza2SLBQD5WtAHzPCj
-----END CERTIFICATE-----
