Certificate:
    Data:
        Version: 3 (0x2)
        Serial Number:
            3b:4d:0a:9c:2b:b8:db:bf:33:d2:ec:dc:eb:e6:b2:22
        Signature Algorithm: sha256WithRSAEncryption
        Issuer: CN=team689-net
        Validity
            Not Before: May 18 23:26:17 2022 GMT
            Not After : May  2 23:26:17 2025 GMT
        Subject: CN=team689-server
        Subject Public Key Info:
            Public Key Algorithm: rsaEncryption
                RSA Public-Key: (2048 bit)
                Modulus:
                    00:e9:9d:fa:4c:39:45:9a:28:3e:79:75:35:7a:b1:
                    8e:4d:43:b8:34:e1:aa:7a:00:4e:e5:7d:29:4a:d6:
                    20:dd:d2:28:b9:b2:b2:fc:f2:3e:65:2d:77:a6:fc:
                    dc:70:ba:e1:31:46:0d:52:6a:73:1c:05:ce:78:1c:
                    4f:dd:27:fc:92:f0:86:1e:45:db:2c:82:55:94:d5:
                    ef:bf:18:fc:f1:13:be:f5:28:c3:5c:b5:ee:c1:6a:
                    78:b4:29:8d:34:e7:5d:f5:76:86:bf:72:eb:f2:cd:
                    76:68:63:89:86:4d:e7:96:e9:e2:13:72:3b:09:28:
                    eb:94:2f:18:72:7d:ff:34:53:ca:62:e1:7d:1c:66:
                    e8:d1:1a:d3:23:ad:af:aa:d9:e2:57:73:63:a9:24:
                    56:b9:a9:97:f1:96:17:03:9a:d7:5d:90:c7:aa:e1:
                    b4:e7:2f:e3:70:6e:a7:40:e5:08:75:f9:c3:10:93:
                    48:93:5f:a7:c8:5c:14:14:34:17:53:7c:79:d3:7e:
                    41:6f:53:cd:fc:6d:0d:d1:67:b1:78:3e:92:86:86:
                    08:36:91:46:88:c7:9d:06:6e:3e:85:cc:a9:54:59:
                    6b:e9:53:7b:9f:2f:3d:41:36:38:67:5f:6e:be:2d:
                    f7:a0:5e:ae:6e:17:53:e0:9e:3a:93:1a:4b:84:2a:
                    98:dd
                Exponent: 65537 (0x10001)
        X509v3 extensions:
            X509v3 Basic Constraints: 
                CA:FALSE
            X509v3 Subject Key Identifier: 
                95:D0:FE:2C:42:B0:5A:8E:98:E1:40:EB:F0:10:EA:98:26:DF:70:C6
            X509v3 Authority Key Identifier: 
                keyid:81:D2:E9:7F:2A:B4:EF:B9:21:9A:85:98:8C:5F:E7:65:A0:94:99:B9
                DirName:/CN=team689-net
                serial:2B:D4:AA:EA:44:7E:49:58:61:F4:A4:C5:F5:B0:B3:BF:80:95:27:52

            X509v3 Extended Key Usage: 
                TLS Web Server Authentication
            X509v3 Key Usage: 
                Digital Signature, Key Encipherment
            X509v3 Subject Alternative Name: 
                DNS:team689-server
    Signature Algorithm: sha256WithRSAEncryption
         37:5a:4f:0f:f2:82:ac:24:51:31:8c:ad:69:d0:8d:0d:b8:08:
         b8:42:03:f1:f3:0e:1d:f0:1d:37:1b:f2:5b:ad:5d:24:12:e7:
         82:6b:5c:41:9d:f0:09:da:82:21:d9:99:3a:63:4a:99:77:b4:
         6b:6f:fe:05:3a:01:1f:5e:f0:12:56:8c:38:32:7e:df:32:77:
         c7:f2:14:2e:0b:30:3a:e2:3c:d9:c8:8c:63:11:5e:09:df:18:
         62:f7:07:16:4e:5c:f9:ec:0f:d6:8c:01:53:a8:a0:66:6a:01:
         59:2d:c4:70:f3:84:1e:c5:2d:13:c4:5c:b5:5b:b3:12:12:ef:
         99:85:f8:49:2e:68:c6:7d:83:aa:f0:0e:ac:53:98:da:a9:82:
         eb:dc:4f:da:22:c9:51:87:63:9e:90:de:f2:c2:55:cb:26:45:
         cc:14:c5:b6:c3:d5:7e:e0:c3:19:03:6b:19:c9:d8:1d:1a:3e:
         c6:b4:40:14:7c:5f:37:38:bf:25:e7:9e:01:ee:d2:1f:d7:3b:
         ef:0b:80:db:76:e4:59:e6:4c:cd:00:60:5f:19:e9:e5:21:13:
         b4:fe:30:44:9a:c1:aa:2f:dc:d0:79:8b:fe:39:91:c5:ba:b2:
         b6:6b:30:0f:f5:45:5d:3d:a9:a1:b5:af:6c:00:84:36:83:5d:
         5a:17:6d:4b
-----BEGIN CERTIFICATE-----
MIIDdzCCAl+gAwIBAgIQO00KnCu4278z0uzc6+ayIjANBgkqhkiG9w0BAQsFADAW
MRQwEgYDVQQDDAt0ZWFtNjg5LW5ldDAeFw0yMjA1MTgyMzI2MTdaFw0yNTA1MDIy
MzI2MTdaMBkxFzAVBgNVBAMMDnRlYW02ODktc2VydmVyMIIBIjANBgkqhkiG9w0B
AQEFAAOCAQ8AMIIBCgKCAQEA6Z36TDlFmig+eXU1erGOTUO4NOGqegBO5X0pStYg
3dIoubKy/PI+ZS13pvzccLrhMUYNUmpzHAXOeBxP3Sf8kvCGHkXbLIJVlNXvvxj8
8RO+9SjDXLXuwWp4tCmNNOdd9XaGv3Lr8s12aGOJhk3nluniE3I7CSjrlC8Ycn3/
NFPKYuF9HGbo0RrTI62vqtniV3NjqSRWuamX8ZYXA5rXXZDHquG05y/jcG6nQOUI
dfnDEJNIk1+nyFwUFDQXU3x5035Bb1PN/G0N0WexeD6ShoYINpFGiMedBm4+hcyp
VFlr6VN7ny89QTY4Z19uvi33oF6ubhdT4J46kxpLhCqY3QIDAQABo4G9MIG6MAkG
A1UdEwQCMAAwHQYDVR0OBBYEFJXQ/ixCsFqOmOFA6/AQ6pgm33DGMFEGA1UdIwRK
MEiAFIHS6X8qtO+5IZqFmIxf52WglJm5oRqkGDAWMRQwEgYDVQQDDAt0ZWFtNjg5
LW5ldIIUK9Sq6kR+SVhh9KTF9bCzv4CVJ1IwEwYDVR0lBAwwCgYIKwYBBQUHAwEw
CwYDVR0PBAQDAgWgMBkGA1UdEQQSMBCCDnRlYW02ODktc2VydmVyMA0GCSqGSIb3
DQEBCwUAA4IBAQA3Wk8P8oKsJFExjK1p0I0NuAi4QgPx8w4d8B03G/JbrV0kEueC
a1xBnfAJ2oIh2Zk6Y0qZd7Rrb/4FOgEfXvASVow4Mn7fMnfH8hQuCzA64jzZyIxj
EV4J3xhi9wcWTlz57A/WjAFTqKBmagFZLcRw84QexS0TxFy1W7MSEu+ZhfhJLmjG
fYOq8A6sU5jaqYLr3E/aIslRh2OekN7ywlXLJkXMFMW2w9V+4MMZA2sZydgdGj7G
tEAUfF83OL8l554B7tIf1zvvC4DbduRZ5kzNAGBfGenlIRO0/jBEmsGqL9zQeYv+
OZHFurK2azAP9UVdPamhta9sAIQ2g11aF21L
-----END CERTIFICATE-----
