Certificate:
    Data:
        Version: 3 (0x2)
        Serial Number:
            6b:6a:7d:d8:d3:8f:e3:3d:a6:bc:24:d0:a0:01:6e:07
        Signature Algorithm: sha256WithRSAEncryption
        Issuer: CN=team610-net
        Validity
            Not Before: May 18 22:58:43 2022 GMT
            Not After : May  2 22:58:43 2025 GMT
        Subject: CN=team610-server
        Subject Public Key Info:
            Public Key Algorithm: rsaEncryption
                RSA Public-Key: (2048 bit)
                Modulus:
                    00:bf:3a:f9:4d:28:37:19:9d:ae:89:c6:cd:c1:a3:
                    81:6d:ae:cc:5c:a6:ba:46:d5:83:2e:73:b1:b8:7d:
                    d7:a1:71:1b:cb:c5:49:d0:4e:d3:b8:1d:75:ab:33:
                    ac:6b:4d:57:13:88:8d:88:65:f6:fd:61:d9:39:64:
                    37:b2:50:39:4e:e4:bc:51:6b:3b:e7:2f:cd:5b:9a:
                    81:0a:b0:c4:83:1a:ec:6d:61:25:af:d6:c4:15:65:
                    12:4d:1e:2f:01:67:ea:ec:a1:b2:27:f7:17:24:5e:
                    98:b4:bd:ee:85:ad:e2:6d:29:b0:b5:7c:08:cf:b7:
                    ca:3e:4e:e1:3c:bd:1a:a3:ff:ee:69:5a:ee:c4:9a:
                    93:73:6b:d3:75:f0:9d:99:cb:76:3d:92:4a:7b:77:
                    96:aa:16:f7:50:c4:ce:bd:c4:fe:5a:d3:88:40:4a:
                    87:17:1f:61:3f:da:57:b0:6d:6c:b1:ef:f2:2e:ac:
                    87:24:fc:d8:48:53:68:67:8d:63:59:c0:e0:1f:fe:
                    2b:88:3d:e5:a8:15:53:cf:af:0f:c2:19:cc:51:db:
                    95:f7:ad:24:c3:11:47:87:cc:db:38:a8:10:72:5a:
                    07:86:ae:ef:03:bc:63:c0:e3:d5:aa:1e:1c:36:4a:
                    13:b3:82:d2:3c:fa:58:ea:45:08:5a:46:5d:bd:b4:
                    f7:03
                Exponent: 65537 (0x10001)
        X509v3 extensions:
            X509v3 Basic Constraints: 
                CA:FALSE
            X509v3 Subject Key Identifier: 
                8D:FC:AD:7E:81:47:AF:A8:4F:89:FD:6B:94:88:CA:D9:E3:13:04:7F
            X509v3 Authority Key Identifier: 
                keyid:6C:F9:F9:8C:70:A5:B9:E8:CA:A5:B4:6C:17:1E:1F:20:79:D6:D8:28
                DirName:/CN=team610-net
                serial:3B:6F:BE:A1:B7:70:2B:74:E7:D0:DE:39:95:BB:61:75:54:2D:97:03

            X509v3 Extended Key Usage: 
                TLS Web Server Authentication
            X509v3 Key Usage: 
                Digital Signature, Key Encipherment
            X509v3 Subject Alternative Name: 
                DNS:team610-server
    Signature Algorithm: sha256WithRSAEncryption
         92:61:5c:79:cd:3c:a6:25:98:13:e6:98:c9:ad:12:e3:04:c7:
         43:0b:e3:6e:11:f1:8e:0e:e5:ed:05:92:c5:6f:49:9f:c8:74:
         59:a5:d6:a7:c6:c1:85:95:fe:37:7b:7f:59:f4:0a:de:c2:39:
         07:19:9d:c4:85:fb:6c:57:da:de:89:9e:89:f3:78:77:39:58:
         29:ca:1a:e8:4c:88:70:72:53:c4:25:d4:fe:4a:fd:b8:ce:70:
         f9:86:f2:56:37:79:30:c7:78:9f:e4:e8:ca:1f:a2:0f:75:50:
         c2:5e:78:9a:87:15:bd:e5:28:6b:d8:97:7b:0d:93:f4:cd:44:
         1c:2a:2e:67:5f:4f:ec:8b:bc:be:d1:91:f5:1b:b0:89:dd:ac:
         b5:dc:44:4d:ca:35:88:55:1d:f6:4a:ea:12:ca:8b:09:5d:c6:
         69:5c:72:f7:bd:80:95:ba:08:e0:c9:80:e3:f3:e9:46:8a:28:
         c4:22:b3:2c:4a:99:d3:ef:70:ae:9a:01:79:9d:97:ce:33:a7:
         7f:8c:9c:d8:5d:24:e3:4c:fb:0a:a6:9f:6d:b3:10:03:3d:31:
         22:7e:ec:c0:a5:3a:62:a3:ea:0d:7f:5a:60:d6:a6:a2:3d:a0:
         8a:3e:f5:62:70:76:a6:31:38:7a:eb:ef:aa:19:db:3c:05:fb:
         c9:99:50:fe
-----BEGIN CERTIFICATE-----
MIIDdzCCAl+gAwIBAgIQa2p92NOP4z2mvCTQoAFuBzANBgkqhkiG9w0BAQsFADAW
MRQwEgYDVQQDDAt0ZWFtNjEwLW5ldDAeFw0yMjA1MTgyMjU4NDNaFw0yNTA1MDIy
MjU4NDNaMBkxFzAVBgNVBAMMDnRlYW02MTAtc2VydmVyMIIBIjANBgkqhkiG9w0B
AQEFAAOCAQ8AMIIBCgKCAQEAvzr5TSg3GZ2uicbNwaOBba7MXKa6RtWDLnOxuH3X
oXEby8VJ0E7TuB11qzOsa01XE4iNiGX2/WHZOWQ3slA5TuS8UWs75y/NW5qBCrDE
gxrsbWElr9bEFWUSTR4vAWfq7KGyJ/cXJF6YtL3uha3ibSmwtXwIz7fKPk7hPL0a
o//uaVruxJqTc2vTdfCdmct2PZJKe3eWqhb3UMTOvcT+WtOIQEqHFx9hP9pXsG1s
se/yLqyHJPzYSFNoZ41jWcDgH/4riD3lqBVTz68PwhnMUduV960kwxFHh8zbOKgQ
cloHhq7vA7xjwOPVqh4cNkoTs4LSPPpY6kUIWkZdvbT3AwIDAQABo4G9MIG6MAkG
A1UdEwQCMAAwHQYDVR0OBBYEFI38rX6BR6+oT4n9a5SIytnjEwR/MFEGA1UdIwRK
MEiAFGz5+YxwpbnoyqW0bBceHyB51tgooRqkGDAWMRQwEgYDVQQDDAt0ZWFtNjEw
LW5ldIIUO2++obdwK3Tn0N45lbthdVQtlwMwEwYDVR0lBAwwCgYIKwYBBQUHAwEw
CwYDVR0PBAQDAgWgMBkGA1UdEQQSMBCCDnRlYW02MTAtc2VydmVyMA0GCSqGSIb3
DQEBCwUAA4IBAQCSYVx5zTymJZgT5pjJrRLjBMdDC+NuEfGODuXtBZLFb0mfyHRZ
pdanxsGFlf43e39Z9ArewjkHGZ3EhftsV9reiZ6J83h3OVgpyhroTIhwclPEJdT+
Sv24znD5hvJWN3kwx3if5OjKH6IPdVDCXniahxW95Shr2Jd7DZP0zUQcKi5nX0/s
i7y+0ZH1G7CJ3ay13ERNyjWIVR32SuoSyosJXcZpXHL3vYCVugjgyYDj8+lGiijE
IrMsSpnT73CumgF5nZfOM6d/jJzYXSTjTPsKpp9tsxADPTEifuzApTpio+oNf1pg
1qaiPaCKPvVicHamMTh66++qGds8BfvJmVD+
-----END CERTIFICATE-----
