Certificate:
    Data:
        Version: 3 (0x2)
        Serial Number:
            bb:33:4d:83:cd:49:48:37:25:b1:1f:62:7a:85:9e:78
        Signature Algorithm: sha256WithRSAEncryption
        Issuer: CN=team482-net
        Validity
            Not Before: May 18 21:42:03 2022 GMT
            Not After : May  2 21:42:03 2025 GMT
        Subject: CN=team482-server
        Subject Public Key Info:
            Public Key Algorithm: rsaEncryption
                RSA Public-Key: (2048 bit)
                Modulus:
                    00:af:25:29:9a:b6:3a:a2:8a:53:a4:23:8a:b8:b5:
                    07:3a:fb:01:a8:9f:53:3c:a6:f3:73:d7:e8:41:fe:
                    de:6e:91:dd:75:ff:ca:85:4a:8f:46:74:eb:d8:f0:
                    63:46:25:c5:35:eb:5e:f7:95:90:77:76:45:e7:1d:
                    19:2e:79:08:d8:61:ec:ea:20:6d:c6:42:c2:f2:7d:
                    2b:41:8b:2b:0d:57:3b:21:c3:47:09:df:e1:83:8c:
                    ed:02:16:ed:66:62:d8:a6:43:4c:b8:76:36:99:e8:
                    fe:d1:3c:c7:07:98:cd:b6:90:f2:e8:4a:49:b9:eb:
                    0f:ef:3b:5a:dd:69:62:bd:f9:11:49:1f:6b:40:f4:
                    da:51:2e:3d:9d:f2:62:90:89:44:5d:fa:04:4f:c7:
                    aa:70:a7:d7:47:8a:57:d2:79:6c:66:8e:10:5b:54:
                    2f:c2:74:38:6d:90:81:32:84:1f:9a:b4:07:eb:80:
                    1d:09:ac:ac:e0:2e:30:2d:bf:6d:ff:1c:55:12:3b:
                    22:41:62:94:6e:ac:f2:db:ba:52:b2:d7:bb:f5:50:
                    d2:74:e5:ea:5e:13:6b:36:70:48:ce:a4:7d:6f:a5:
                    ce:70:12:4f:fb:62:0d:91:b5:12:eb:8a:65:0c:34:
                    04:e7:fe:58:2d:23:1f:ee:26:5d:68:b9:a1:d0:6c:
                    ad:f7
                Exponent: 65537 (0x10001)
        X509v3 extensions:
            X509v3 Basic Constraints: 
                CA:FALSE
            X509v3 Subject Key Identifier: 
                83:B4:18:CB:7E:1F:DA:8A:5E:E6:8D:3D:5C:46:40:CA:E8:B7:82:06
            X509v3 Authority Key Identifier: 
                keyid:A3:E4:C4:32:7F:AD:F2:04:A6:26:AA:74:91:16:A6:5D:0E:1C:6C:23
                DirName:/CN=team482-net
                serial:27:F3:BA:D5:99:1E:72:AF:A2:4C:EA:79:5F:5D:58:55:FA:82:E6:D2

            X509v3 Extended Key Usage: 
                TLS Web Server Authentication
            X509v3 Key Usage: 
                Digital Signature, Key Encipherment
            X509v3 Subject Alternative Name: 
                DNS:team482-server
    Signature Algorithm: sha256WithRSAEncryption
         99:6f:c6:3b:b0:ce:11:ca:44:19:e2:ab:b6:18:78:bd:74:d2:
         fe:a2:4f:44:c2:85:49:19:e2:e0:d5:aa:f5:03:34:0a:c2:3e:
         12:d6:cc:c2:f5:12:5f:67:12:70:52:2c:68:a9:c0:18:db:42:
         b1:23:67:2b:87:71:b1:8f:20:51:99:68:13:de:7f:6a:5a:68:
         3a:b5:c5:5b:a6:90:5a:1a:f2:a6:95:82:61:8c:f2:70:34:15:
         00:92:ae:fb:ec:ba:a0:db:21:b6:d1:ac:5b:e3:b0:6a:9f:6a:
         9b:d6:a3:f9:f1:49:c2:89:35:e8:b2:4a:79:99:ab:23:00:05:
         ad:d3:75:b4:7d:b0:cb:53:c2:60:28:03:1a:85:c4:10:62:31:
         17:63:09:ea:8e:56:d1:ea:d5:a4:ac:ad:b5:8e:4e:0d:62:1e:
         60:3a:5e:ce:81:b4:71:fb:68:c3:f7:c4:7d:ce:d4:e0:a2:83:
         b8:d4:03:ca:6d:91:54:ca:98:72:ed:0b:37:04:08:59:43:19:
         2c:ff:ad:0a:ef:44:fc:04:ce:6c:db:57:85:f2:56:bc:46:a8:
         bb:d5:d0:6d:e1:a3:24:b7:47:65:db:b8:ef:67:d4:66:9f:ff:
         7c:d2:df:14:bd:f7:e7:2a:05:a8:b4:6d:70:3d:6f:ca:b8:08:
         8d:4c:8e:55
-----BEGIN CERTIFICATE-----
MIIDeDCCAmCgAwIBAgIRALszTYPNSUg3JbEfYnqFnngwDQYJKoZIhvcNAQELBQAw
FjEUMBIGA1UEAwwLdGVhbTQ4Mi1uZXQwHhcNMjIwNTE4MjE0MjAzWhcNMjUwNTAy
MjE0MjAzWjAZMRcwFQYDVQQDDA50ZWFtNDgyLXNlcnZlcjCCASIwDQYJKoZIhvcN
AQEBBQADggEPADCCAQoCggEBAK8lKZq2OqKKU6Qjiri1Bzr7AaifUzym83PX6EH+
3m6R3XX/yoVKj0Z069jwY0YlxTXrXveVkHd2RecdGS55CNhh7OogbcZCwvJ9K0GL
Kw1XOyHDRwnf4YOM7QIW7WZi2KZDTLh2Npno/tE8xweYzbaQ8uhKSbnrD+87Wt1p
Yr35EUkfa0D02lEuPZ3yYpCJRF36BE/HqnCn10eKV9J5bGaOEFtUL8J0OG2QgTKE
H5q0B+uAHQmsrOAuMC2/bf8cVRI7IkFilG6s8tu6UrLXu/VQ0nTl6l4TazZwSM6k
fW+lznAST/tiDZG1EuuKZQw0BOf+WC0jH+4mXWi5odBsrfcCAwEAAaOBvTCBujAJ
BgNVHRMEAjAAMB0GA1UdDgQWBBSDtBjLfh/ail7mjT1cRkDK6LeCBjBRBgNVHSME
SjBIgBSj5MQyf63yBKYmqnSRFqZdDhxsI6EapBgwFjEUMBIGA1UEAwwLdGVhbTQ4
Mi1uZXSCFCfzutWZHnKvokzqeV9dWFX6gubSMBMGA1UdJQQMMAoGCCsGAQUFBwMB
MAsGA1UdDwQEAwIFoDAZBgNVHREEEjAQgg50ZWFtNDgyLXNlcnZlcjANBgkqhkiG
9w0BAQsFAAOCAQEAmW/GO7DOEcpEGeKrthh4vXTS/qJPRMKFSRni4NWq9QM0CsI+
EtbMwvUSX2cScFIsaKnAGNtCsSNnK4dxsY8gUZloE95/alpoOrXFW6aQWhryppWC
YYzycDQVAJKu++y6oNshttGsW+Owap9qm9aj+fFJwok16LJKeZmrIwAFrdN1tH2w
y1PCYCgDGoXEEGIxF2MJ6o5W0erVpKyttY5ODWIeYDpezoG0cftow/fEfc7U4KKD
uNQDym2RVMqYcu0LNwQIWUMZLP+tCu9E/ATObNtXhfJWvEaou9XQbeGjJLdHZdu4
72fUZp//fNLfFL335yoFqLRtcD1vyrgIjUyOVQ==
-----END CERTIFICATE-----
