Certificate:
    Data:
        Version: 3 (0x2)
        Serial Number:
            bc:6d:fa:20:6b:fc:7f:fa:d3:9b:07:22:7d:f7:bf:e1
        Signature Algorithm: sha256WithRSAEncryption
        Issuer: CN=team482-net
        Validity
            Not Before: May 18 21:42:03 2022 GMT
            Not After : May  2 21:42:03 2025 GMT
        Subject: CN=team482-client
        Subject Public Key Info:
            Public Key Algorithm: rsaEncryption
                RSA Public-Key: (2048 bit)
                Modulus:
                    00:a0:5f:38:a0:25:e4:e8:be:4c:40:46:a0:fe:09:
                    92:ca:af:20:4f:41:5d:a7:80:c9:90:0f:2c:47:ec:
                    19:da:34:ef:6f:98:8c:35:1e:1f:cf:2b:15:b6:86:
                    c5:a1:f4:1f:17:d2:23:0c:23:5d:00:6c:dd:b9:a9:
                    28:f8:6b:eb:21:79:d3:ca:a4:e8:1f:2a:0a:1b:b0:
                    82:d3:a9:2e:7c:80:4b:a2:3c:1c:49:f4:b8:d1:5e:
                    48:bc:30:92:86:c9:d4:62:9c:87:ce:e2:38:a6:ba:
                    6a:8e:2e:6a:8a:76:a2:c2:dc:cf:12:4d:00:e5:1c:
                    3a:54:60:33:43:7a:60:1c:c1:17:3d:8c:42:31:1d:
                    77:c8:81:7f:07:dd:5e:99:ee:c0:b6:0b:de:9d:6e:
                    ce:ae:36:80:39:6b:0d:ea:99:76:dd:cb:26:7d:b0:
                    45:bd:a4:f9:f7:91:c1:a7:50:a6:59:7a:fb:cc:54:
                    8a:ab:68:a5:54:13:3b:26:84:4e:d3:ea:a8:42:bd:
                    d3:99:d5:51:a9:ab:32:1f:d2:bf:c7:43:fb:b2:3b:
                    c7:a0:32:c3:4e:a5:65:e9:78:b0:22:3f:93:4d:59:
                    ff:01:34:36:d3:38:2e:d8:c5:7d:34:c8:d9:75:a2:
                    8b:df:c3:12:1d:e5:e7:0d:0f:e9:bc:2e:9b:ef:1f:
                    19:b1
                Exponent: 65537 (0x10001)
        X509v3 extensions:
            X509v3 Basic Constraints: 
                CA:FALSE
            X509v3 Subject Key Identifier: 
                17:53:40:35:C1:5C:CD:59:D1:F9:34:83:81:16:1D:57:0A:1F:8B:39
            X509v3 Authority Key Identifier: 
                keyid:A3:E4:C4:32:7F:AD:F2:04:A6:26:AA:74:91:16:A6:5D:0E:1C:6C:23
                DirName:/CN=team482-net
                serial:27:F3:BA:D5:99:1E:72:AF:A2:4C:EA:79:5F:5D:58:55:FA:82:E6:D2

            X509v3 Extended Key Usage: 
                TLS Web Client Authentication
            X509v3 Key Usage: 
                Digital Signature
    Signature Algorithm: sha256WithRSAEncryption
         3e:53:f9:3e:64:3f:a6:97:3a:69:c7:d2:9f:d6:b0:23:cc:09:
         cf:19:a1:5a:c0:fe:22:2f:36:0d:59:55:63:5f:da:9e:32:6b:
         8e:1c:2b:8f:11:5c:f8:f4:67:c9:11:70:5a:55:36:b8:3f:e7:
         98:96:69:f9:c1:eb:f5:ed:0f:71:6e:ef:e9:07:5d:78:26:2b:
         2e:59:14:4d:35:04:bb:66:d4:94:b0:6a:f5:b3:70:3e:23:67:
         10:8f:ab:ee:76:ae:87:3c:ed:a7:20:f9:c5:7f:57:c9:b4:a1:
         89:ab:6a:52:a5:01:45:84:16:fe:e6:93:b7:af:f1:2e:f6:82:
         39:3a:35:59:47:99:ed:24:c8:55:67:a7:d4:65:7b:e2:72:94:
         ab:d2:26:6a:98:db:2d:07:7e:50:ee:c3:fb:f6:06:1c:96:08:
         df:cc:77:b0:a8:d1:d6:7b:06:95:45:e1:87:f7:c9:72:1b:5a:
         60:1f:ac:98:11:df:c1:85:85:c5:b7:d6:42:88:c6:33:62:69:
         27:2b:0b:fe:3f:ce:68:7e:64:d6:dd:e5:c5:10:f0:09:f3:42:
         f3:2c:94:95:7a:36:07:23:ea:ac:87:5b:19:a6:cb:88:91:44:
         c9:74:39:9e:62:80:7a:29:b6:0a:e2:6f:0e:a5:dd:88:fe:4d:
         7a:af:a5:44
-----BEGIN CERTIFICATE-----
MIIDXTCCAkWgAwIBAgIRALxt+iBr/H/605sHIn33v+EwDQYJKoZIhvcNAQELBQAw
FjEUMBIGA1UEAwwLdGVhbTQ4Mi1uZXQwHhcNMjIwNTE4MjE0MjAzWhcNMjUwNTAy
MjE0MjAzWjAZMRcwFQYDVQQDDA50ZWFtNDgyLWNsaWVudDCCASIwDQYJKoZIhvcN
AQEBBQADggEPADCCAQoCggEBAKBfOKAl5Oi+TEBGoP4JksqvIE9BXaeAyZAPLEfs
Gdo072+YjDUeH88rFbaGxaH0HxfSIwwjXQBs3bmpKPhr6yF508qk6B8qChuwgtOp
LnyAS6I8HEn0uNFeSLwwkobJ1GKch87iOKa6ao4uaop2osLczxJNAOUcOlRgM0N6
YBzBFz2MQjEdd8iBfwfdXpnuwLYL3p1uzq42gDlrDeqZdt3LJn2wRb2k+feRwadQ
pll6+8xUiqtopVQTOyaETtPqqEK905nVUamrMh/Sv8dD+7I7x6Ayw06lZel4sCI/
k01Z/wE0NtM4LtjFfTTI2XWii9/DEh3l5w0P6bwum+8fGbECAwEAAaOBojCBnzAJ
BgNVHRMEAjAAMB0GA1UdDgQWBBQXU0A1wVzNWdH5NIOBFh1XCh+LOTBRBgNVHSME
SjBIgBSj5MQyf63yBKYmqnSRFqZdDhxsI6EapBgwFjEUMBIGA1UEAwwLdGVhbTQ4
Mi1uZXSCFCfzutWZHnKvokzqeV9dWFX6gubSMBMGA1UdJQQMMAoGCCsGAQUFBwMC
MAsGA1UdDwQEAwIHgDANBgkqhkiG9w0BAQsFAAOCAQEAPlP5PmQ/ppc6acfSn9aw
I8wJzxmhWsD+Ii82DVlVY1/anjJrjhwrjxFc+PRnyRFwWlU2uD/nmJZp+cHr9e0P
cW7v6QddeCYrLlkUTTUEu2bUlLBq9bNwPiNnEI+r7nauhzztpyD5xX9XybShiatq
UqUBRYQW/uaTt6/xLvaCOTo1WUeZ7STIVWen1GV74nKUq9ImapjbLQd+UO7D+/YG
HJYI38x3sKjR1nsGlUXhh/fJchtaYB+smBHfwYWFxbfWQojGM2JpJysL/j/OaH5k
1t3lxRDwCfNC8yyUlXo2ByPqrIdbGabLiJFEyXQ5nmKAeim2CuJvDqXdiP5Neq+l
RA==
-----END CERTIFICATE-----
