Certificate:
    Data:
        Version: 3 (0x2)
        Serial Number:
            28:1f:0a:e5:e2:6c:cb:18:c7:b8:8b:36:0f:66:af:ce
        Signature Algorithm: sha256WithRSAEncryption
        Issuer: CN=team90-net
        Validity
            Not Before: May 18 14:43:58 2022 GMT
            Not After : May  2 14:43:58 2025 GMT
        Subject: CN=team90-client
        Subject Public Key Info:
            Public Key Algorithm: rsaEncryption
                RSA Public-Key: (2048 bit)
                Modulus:
                    00:bd:6d:63:80:c6:04:53:05:f3:e5:79:cd:e2:8f:
                    68:5f:6b:52:58:56:2c:e4:a4:88:43:52:51:8b:0a:
                    02:7b:ca:02:f6:77:60:c1:f6:74:1d:e4:d5:15:d3:
                    95:82:4c:a2:80:a4:29:6a:2d:a9:1a:d8:6c:3a:da:
                    7d:ea:4d:c1:6a:dd:c0:b9:a8:7b:d4:92:fe:b0:28:
                    24:58:46:2c:07:51:f4:7f:dd:37:e1:73:e1:41:50:
                    90:f5:41:f5:40:a7:36:a5:39:94:cc:63:0e:16:f5:
                    a4:13:c9:51:f7:29:c6:26:54:d0:3a:f1:8d:83:f1:
                    d7:94:53:6a:aa:6f:16:39:6f:18:98:52:a7:d8:38:
                    a8:f0:a3:85:3e:83:a1:83:3e:41:cd:70:7f:cd:df:
                    4b:03:7e:53:1b:b6:bd:fe:61:ac:bc:f8:f7:67:8b:
                    bd:c5:fd:8c:bd:7f:d0:f3:91:e2:22:6c:b3:04:64:
                    b0:09:3a:73:1b:51:c9:c3:be:56:cf:f8:cd:3b:04:
                    aa:28:de:1a:0d:e6:c5:ca:c5:f7:d4:5d:2f:bc:be:
                    c8:37:43:68:a2:67:13:2b:fd:19:70:3f:77:28:4e:
                    e1:f8:fb:a2:f5:73:7f:4d:85:72:9c:d2:8e:b7:ea:
                    4f:32:dd:23:95:c9:19:1b:af:cd:04:0a:e4:85:86:
                    65:73
                Exponent: 65537 (0x10001)
        X509v3 extensions:
            X509v3 Basic Constraints: 
                CA:FALSE
            X509v3 Subject Key Identifier: 
                E2:4B:19:E0:F4:52:6A:0E:75:17:1A:A1:41:6E:C0:75:82:1B:24:32
            X509v3 Authority Key Identifier: 
                keyid:48:14:9E:76:0D:19:EA:5C:C8:B7:59:F4:EA:AF:98:0E:E0:FB:D7:18
                DirName:/CN=team90-net
                serial:6F:12:7F:D3:27:EA:11:CA:89:F4:3C:9C:9D:75:3C:C2:6C:7C:A7:90

            X509v3 Extended Key Usage: 
                TLS Web Client Authentication
            X509v3 Key Usage: 
                Digital Signature
    Signature Algorithm: sha256WithRSAEncryption
         3b:8b:bb:40:74:9c:fa:ae:dc:ce:d1:95:65:61:68:45:f0:9f:
         8c:2f:c1:c8:4d:49:f7:7b:54:8f:a9:09:dd:84:f8:97:09:b8:
         33:1f:a4:5b:ed:f9:01:0a:cb:fc:4c:fb:aa:2c:f9:6b:03:58:
         5e:cc:6a:68:f9:16:bf:6e:0a:fd:fb:04:27:dd:74:d3:5a:b4:
         1f:8c:ac:9e:13:57:22:3e:11:52:c2:f2:ec:b5:e3:78:0b:32:
         cb:f6:11:ac:2e:1f:4b:3f:b5:22:3f:f0:78:09:f8:e3:7e:66:
         7d:6b:1f:24:ea:29:17:01:74:eb:bd:88:07:9b:23:d2:63:3b:
         9d:09:52:bc:ed:ae:b4:81:c1:81:c0:2a:1c:24:96:41:c7:a4:
         82:b9:00:e5:e1:39:0f:b2:f6:12:e6:68:85:1e:fb:ca:10:ee:
         7f:e8:ea:09:3c:0f:a8:de:1a:f5:96:43:3a:ef:a2:0d:e9:b0:
         ab:13:17:00:1b:30:2f:d0:90:eb:0f:3b:c9:c0:42:78:b7:8b:
         99:f6:eb:79:eb:d4:c4:7f:b3:1e:e9:33:e6:21:cc:6b:04:ec:
         11:6f:ec:ff:28:91:6a:71:5e:31:f7:a2:9a:fd:ed:6f:76:7d:
         db:21:04:20:2f:ae:a2:24:12:1b:81:a1:c4:d6:cc:95:18:29:
         64:46:5f:87
-----BEGIN CERTIFICATE-----
MIIDWTCCAkGgAwIBAgIQKB8K5eJsyxjHuIs2D2avzjANBgkqhkiG9w0BAQsFADAV
MRMwEQYDVQQDDAp0ZWFtOTAtbmV0MB4XDTIyMDUxODE0NDM1OFoXDTI1MDUwMjE0
NDM1OFowGDEWMBQGA1UEAwwNdGVhbTkwLWNsaWVudDCCASIwDQYJKoZIhvcNAQEB
BQADggEPADCCAQoCggEBAL1tY4DGBFMF8+V5zeKPaF9rUlhWLOSkiENSUYsKAnvK
AvZ3YMH2dB3k1RXTlYJMooCkKWotqRrYbDrafepNwWrdwLmoe9SS/rAoJFhGLAdR
9H/dN+Fz4UFQkPVB9UCnNqU5lMxjDhb1pBPJUfcpxiZU0DrxjYPx15RTaqpvFjlv
GJhSp9g4qPCjhT6DoYM+Qc1wf83fSwN+Uxu2vf5hrLz492eLvcX9jL1/0POR4iJs
swRksAk6cxtRycO+Vs/4zTsEqijeGg3mxcrF99RdL7y+yDdDaKJnEyv9GXA/dyhO
4fj7ovVzf02FcpzSjrfqTzLdI5XJGRuvzQQK5IWGZXMCAwEAAaOBoTCBnjAJBgNV
HRMEAjAAMB0GA1UdDgQWBBTiSxng9FJqDnUXGqFBbsB1ghskMjBQBgNVHSMESTBH
gBRIFJ52DRnqXMi3WfTqr5gO4PvXGKEZpBcwFTETMBEGA1UEAwwKdGVhbTkwLW5l
dIIUbxJ/0yfqEcqJ9DycnXU8wmx8p5AwEwYDVR0lBAwwCgYIKwYBBQUHAwIwCwYD
VR0PBAQDAgeAMA0GCSqGSIb3DQEBCwUAA4IBAQA7i7tAdJz6rtzO0ZVlYWhF8J+M
L8HITUn3e1SPqQndhPiXCbgzH6Rb7fkBCsv8TPuqLPlrA1hezGpo+Ra/bgr9+wQn
3XTTWrQfjKyeE1ciPhFSwvLsteN4CzLL9hGsLh9LP7UiP/B4CfjjfmZ9ax8k6ikX
AXTrvYgHmyPSYzudCVK87a60gcGBwCocJJZBx6SCuQDl4TkPsvYS5miFHvvKEO5/
6OoJPA+o3hr1lkM676IN6bCrExcAGzAv0JDrDzvJwEJ4t4uZ9ut569TEf7Me6TPm
IcxrBOwRb+z/KJFqcV4x96Ka/e1vdn3bIQQgL66iJBIbgaHE1syVGClkRl+H
-----END CERTIFICATE-----
