Certificate:
    Data:
        Version: 3 (0x2)
        Serial Number:
            45:bb:19:2f:b3:84:fd:34:92:0b:e9:1f:f8:41:0e:e8
        Signature Algorithm: sha256WithRSAEncryption
        Issuer: CN=team90-net
        Validity
            Not Before: May 18 14:43:58 2022 GMT
            Not After : May  2 14:43:58 2025 GMT
        Subject: CN=team90-server
        Subject Public Key Info:
            Public Key Algorithm: rsaEncryption
                RSA Public-Key: (2048 bit)
                Modulus:
                    00:ea:3f:79:d6:e8:d6:10:09:67:33:78:da:ef:67:
                    b3:d0:d4:db:e8:4e:b0:c6:be:c9:9c:f1:e1:35:0c:
                    a0:69:43:dc:e6:e6:37:e3:54:e4:ce:d8:b3:bd:37:
                    c8:6a:2f:e9:e0:0f:fa:c4:94:56:01:9a:c0:d6:cc:
                    06:b3:b2:f0:f0:d2:cc:da:34:a9:2d:98:bb:28:02:
                    18:ab:bb:36:08:ed:29:ab:b2:b6:f0:0e:30:07:9f:
                    ab:41:9a:d6:4e:9d:c6:cb:b6:05:58:79:9d:8c:a5:
                    f7:40:44:50:84:9b:aa:14:03:05:59:00:49:df:00:
                    96:a2:97:49:bf:aa:97:bf:39:65:76:94:3b:f6:b1:
                    f7:70:f3:0b:ab:f8:0c:05:82:7f:43:12:07:21:a7:
                    df:7d:df:8b:82:80:d5:5c:91:47:86:4b:d3:e0:c3:
                    f5:4b:69:df:b6:37:1d:ed:5c:e6:90:c7:64:20:1f:
                    b0:e4:72:b8:95:6d:24:2c:31:00:ea:04:97:a5:5b:
                    72:0f:d4:d4:24:6d:cf:a9:6c:73:22:32:3e:ae:0c:
                    a8:26:bf:b4:08:bc:ca:1c:d2:c4:f7:8b:38:db:e7:
                    de:ad:13:4b:e6:8a:38:71:6a:cf:8e:e0:78:34:ff:
                    e5:18:f0:78:80:9e:a5:ca:4e:5c:e4:f8:ab:59:53:
                    f6:3d
                Exponent: 65537 (0x10001)
        X509v3 extensions:
            X509v3 Basic Constraints: 
                CA:FALSE
            X509v3 Subject Key Identifier: 
                1B:1E:08:FC:A6:B6:5D:8F:ED:34:B1:23:5D:33:42:59:A3:85:4D:54
            X509v3 Authority Key Identifier: 
                keyid:48:14:9E:76:0D:19:EA:5C:C8:B7:59:F4:EA:AF:98:0E:E0:FB:D7:18
                DirName:/CN=team90-net
                serial:6F:12:7F:D3:27:EA:11:CA:89:F4:3C:9C:9D:75:3C:C2:6C:7C:A7:90

            X509v3 Extended Key Usage: 
                TLS Web Server Authentication
            X509v3 Key Usage: 
                Digital Signature, Key Encipherment
            X509v3 Subject Alternative Name: 
                DNS:team90-server
    Signature Algorithm: sha256WithRSAEncryption
         46:17:c8:83:4d:62:e5:b7:fd:6a:cf:a7:94:5a:3d:19:77:1f:
         eb:7a:12:39:26:b5:5e:09:c5:2a:8f:cb:5a:e4:d6:27:ec:8c:
         c9:61:55:04:e9:ff:e7:25:45:41:83:36:65:cb:41:92:43:79:
         df:4b:80:11:b3:09:3a:15:89:5d:aa:fd:d7:44:83:2c:72:37:
         ab:0f:74:8a:f4:80:1c:a5:36:ce:bc:98:b0:47:72:2d:3c:d3:
         01:35:fd:b7:6b:1b:f2:e5:32:90:4f:20:80:73:43:19:19:da:
         65:49:df:2f:50:40:49:39:c6:0c:2c:ca:72:0d:ad:56:31:40:
         a5:ed:43:2c:12:bd:6b:61:f0:6b:11:5a:ad:55:51:52:1a:ea:
         1f:9e:6a:59:b9:24:42:2a:ed:6e:c9:c4:fc:22:32:6f:e9:97:
         14:c3:97:c0:d9:e9:37:12:19:49:4d:06:b9:62:02:d3:23:f1:
         e0:15:d4:53:04:2c:8c:2e:04:68:0f:91:de:26:9f:a7:31:a0:
         56:d5:62:46:45:9a:0d:f3:5f:c6:22:93:28:c9:59:58:65:6c:
         a4:cf:a0:f1:b0:9f:47:50:27:d5:d9:9a:db:f4:c3:59:55:59:
         49:c3:3c:8f:b7:48:74:33:5a:3c:4f:ef:56:c1:ac:8a:ee:eb:
         09:08:61:98
-----BEGIN CERTIFICATE-----
MIIDczCCAlugAwIBAgIQRbsZL7OE/TSSC+kf+EEO6DANBgkqhkiG9w0BAQsFADAV
MRMwEQYDVQQDDAp0ZWFtOTAtbmV0MB4XDTIyMDUxODE0NDM1OFoXDTI1MDUwMjE0
NDM1OFowGDEWMBQGA1UEAwwNdGVhbTkwLXNlcnZlcjCCASIwDQYJKoZIhvcNAQEB
BQADggEPADCCAQoCggEBAOo/edbo1hAJZzN42u9ns9DU2+hOsMa+yZzx4TUMoGlD
3ObmN+NU5M7Ys703yGov6eAP+sSUVgGawNbMBrOy8PDSzNo0qS2YuygCGKu7Ngjt
KauytvAOMAefq0Ga1k6dxsu2BVh5nYyl90BEUISbqhQDBVkASd8AlqKXSb+ql785
ZXaUO/ax93DzC6v4DAWCf0MSByGn333fi4KA1VyRR4ZL0+DD9Utp37Y3He1c5pDH
ZCAfsORyuJVtJCwxAOoEl6Vbcg/U1CRtz6lscyIyPq4MqCa/tAi8yhzSxPeLONvn
3q0TS+aKOHFqz47geDT/5RjweICepcpOXOT4q1lT9j0CAwEAAaOBuzCBuDAJBgNV
HRMEAjAAMB0GA1UdDgQWBBQbHgj8prZdj+00sSNdM0JZo4VNVDBQBgNVHSMESTBH
gBRIFJ52DRnqXMi3WfTqr5gO4PvXGKEZpBcwFTETMBEGA1UEAwwKdGVhbTkwLW5l
dIIUbxJ/0yfqEcqJ9DycnXU8wmx8p5AwEwYDVR0lBAwwCgYIKwYBBQUHAwEwCwYD
VR0PBAQDAgWgMBgGA1UdEQQRMA+CDXRlYW05MC1zZXJ2ZXIwDQYJKoZIhvcNAQEL
BQADggEBAEYXyINNYuW3/WrPp5RaPRl3H+t6EjkmtV4JxSqPy1rk1ifsjMlhVQTp
/+clRUGDNmXLQZJDed9LgBGzCToViV2q/ddEgyxyN6sPdIr0gBylNs68mLBHci08
0wE1/bdrG/LlMpBPIIBzQxkZ2mVJ3y9QQEk5xgwsynINrVYxQKXtQywSvWth8GsR
Wq1VUVIa6h+ealm5JEIq7W7JxPwiMm/plxTDl8DZ6TcSGUlNBrliAtMj8eAV1FME
LIwuBGgPkd4mn6cxoFbVYkZFmg3zX8YikyjJWVhlbKTPoPGwn0dQJ9XZmtv0w1lV
WUnDPI+3SHQzWjxP71bBrIru6wkIYZg=
-----END CERTIFICATE-----
