Certificate:
    Data:
        Version: 3 (0x2)
        Serial Number:
            c6:4d:3d:61:55:e3:4d:28:49:6e:90:ae:d0:1a:fb:a7
        Signature Algorithm: sha256WithRSAEncryption
        Issuer: CN=team558-net
        Validity
            Not Before: May 18 22:23:32 2022 GMT
            Not After : May  2 22:23:32 2025 GMT
        Subject: CN=team558-server
        Subject Public Key Info:
            Public Key Algorithm: rsaEncryption
                RSA Public-Key: (2048 bit)
                Modulus:
                    00:e4:44:15:83:93:8f:8c:f7:dd:9d:bf:1e:52:c9:
                    62:85:83:24:9b:f0:3e:b3:f3:53:02:b7:8a:55:b7:
                    dd:07:21:d0:cd:3a:55:23:3c:40:c2:42:fc:42:90:
                    ef:63:0a:4e:e3:6a:f9:ee:79:47:e7:81:e9:d7:cb:
                    95:00:09:6f:f6:12:d2:d5:df:9f:52:92:5c:76:eb:
                    20:e5:c8:8f:7e:0f:ea:49:c5:33:9f:ea:a3:b1:07:
                    d8:e2:cb:ef:73:32:5d:42:1b:cb:2e:17:25:7d:45:
                    d2:06:e9:50:26:83:14:50:43:42:43:67:03:7e:a0:
                    94:98:1b:d9:9b:e2:05:bc:99:29:69:b9:a5:58:cb:
                    5c:36:68:5d:ef:f1:9f:24:08:2e:94:5f:96:be:0f:
                    fc:9d:e6:31:61:87:02:58:86:23:e6:22:65:f8:d4:
                    32:f3:ca:40:2f:6e:ed:2f:c2:ea:9b:07:42:c7:4e:
                    29:b4:f4:43:41:53:c1:49:30:62:02:a9:21:b6:0e:
                    88:2b:11:72:c8:d4:8c:a5:c1:9c:3d:7a:bb:9f:e9:
                    ba:33:e6:55:7a:41:85:92:11:c5:16:94:1e:ba:62:
                    59:a8:8f:8c:d1:79:f5:a4:03:46:59:28:a4:97:1c:
                    1a:33:7d:62:9c:2e:5d:2f:26:05:25:e8:85:55:9b:
                    33:f5
                Exponent: 65537 (0x10001)
        X509v3 extensions:
            X509v3 Basic Constraints: 
                CA:FALSE
            X509v3 Subject Key Identifier: 
                90:10:34:85:00:CC:9F:4D:3E:66:10:E8:B0:E3:7A:E4:DB:A9:2E:31
            X509v3 Authority Key Identifier: 
                keyid:23:2C:46:0F:23:8F:00:9E:F8:DD:AF:F3:A4:7A:32:2E:B4:53:09:86
                DirName:/CN=team558-net
                serial:3D:F1:4E:57:0C:43:0C:28:77:9E:9F:8D:5B:D3:3C:EF:BD:D5:49:6B

            X509v3 Extended Key Usage: 
                TLS Web Server Authentication
            X509v3 Key Usage: 
                Digital Signature, Key Encipherment
            X509v3 Subject Alternative Name: 
                DNS:team558-server
    Signature Algorithm: sha256WithRSAEncryption
         ae:04:50:57:d0:14:99:ef:cc:2f:e3:ca:f8:14:9e:f0:d0:8d:
         a7:ea:03:f1:2b:f7:79:b6:00:96:cd:8c:fa:f0:21:ad:49:85:
         9e:d0:1e:8c:da:fe:bf:8a:d4:02:b1:47:f1:21:7f:fb:98:c5:
         66:a5:fb:66:a4:24:45:e6:e9:9b:38:21:bb:50:32:7c:2c:b3:
         c1:97:d0:b3:f0:5e:14:b4:88:3d:69:b4:49:36:65:b1:b4:3a:
         14:74:12:60:c1:cb:8b:7f:84:c0:80:72:03:07:b0:ad:80:cb:
         78:86:5c:dc:ad:35:e1:df:fa:09:d7:53:28:ec:0b:39:db:b7:
         74:f7:b4:c5:e1:71:71:28:8b:ba:67:a3:1a:a0:db:50:b5:28:
         f8:5e:01:ab:80:7c:ae:3c:b1:94:60:cd:63:73:77:7a:39:f5:
         e7:a2:f3:e1:f6:35:37:84:95:fc:40:5e:3c:ad:2f:7c:fc:ad:
         02:38:c4:2d:c6:5a:ab:7f:7a:60:d2:18:c2:db:7e:07:5e:25:
         ed:3b:ed:dd:99:24:cf:5d:8f:f2:23:47:cd:a3:90:21:62:81:
         5a:ae:f8:29:35:80:3f:69:0d:a5:66:80:fc:71:64:17:11:50:
         07:a2:7f:19:c1:6a:17:ed:46:2a:20:b7:6a:b1:b0:90:fd:80:
         3a:8b:d7:15
-----BEGIN CERTIFICATE-----
MIIDeDCCAmCgAwIBAgIRAMZNPWFV400oSW6QrtAa+6cwDQYJKoZIhvcNAQELBQAw
FjEUMBIGA1UEAwwLdGVhbTU1OC1uZXQwHhcNMjIwNTE4MjIyMzMyWhcNMjUwNTAy
MjIyMzMyWjAZMRcwFQYDVQQDDA50ZWFtNTU4LXNlcnZlcjCCASIwDQYJKoZIhvcN
AQEBBQADggEPADCCAQoCggEBAOREFYOTj4z33Z2/HlLJYoWDJJvwPrPzUwK3ilW3
3Qch0M06VSM8QMJC/EKQ72MKTuNq+e55R+eB6dfLlQAJb/YS0tXfn1KSXHbrIOXI
j34P6knFM5/qo7EH2OLL73MyXUIbyy4XJX1F0gbpUCaDFFBDQkNnA36glJgb2Zvi
BbyZKWm5pVjLXDZoXe/xnyQILpRflr4P/J3mMWGHAliGI+YiZfjUMvPKQC9u7S/C
6psHQsdOKbT0Q0FTwUkwYgKpIbYOiCsRcsjUjKXBnD16u5/pujPmVXpBhZIRxRaU
HrpiWaiPjNF59aQDRlkopJccGjN9YpwuXS8mBSXohVWbM/UCAwEAAaOBvTCBujAJ
BgNVHRMEAjAAMB0GA1UdDgQWBBSQEDSFAMyfTT5mEOiw43rk26kuMTBRBgNVHSME
SjBIgBQjLEYPI48Anvjdr/OkejIutFMJhqEapBgwFjEUMBIGA1UEAwwLdGVhbTU1
OC1uZXSCFD3xTlcMQwwod56fjVvTPO+91UlrMBMGA1UdJQQMMAoGCCsGAQUFBwMB
MAsGA1UdDwQEAwIFoDAZBgNVHREEEjAQgg50ZWFtNTU4LXNlcnZlcjANBgkqhkiG
9w0BAQsFAAOCAQEArgRQV9AUme/ML+PK+BSe8NCNp+oD8Sv3ebYAls2M+vAhrUmF
ntAejNr+v4rUArFH8SF/+5jFZqX7ZqQkRebpmzghu1AyfCyzwZfQs/BeFLSIPWm0
STZlsbQ6FHQSYMHLi3+EwIByAwewrYDLeIZc3K014d/6CddTKOwLOdu3dPe0xeFx
cSiLumejGqDbULUo+F4Bq4B8rjyxlGDNY3N3ejn156Lz4fY1N4SV/EBePK0vfPyt
AjjELcZaq396YNIYwtt+B14l7Tvt3Zkkz12P8iNHzaOQIWKBWq74KTWAP2kNpWaA
/HFkFxFQB6J/GcFqF+1GKiC3arGwkP2AOovXFQ==
-----END CERTIFICATE-----
