Certificate:
    Data:
        Version: 3 (0x2)
        Serial Number:
            08:b2:f2:56:cb:49:46:73:8d:e0:27:69:8a:d5:f2:45
        Signature Algorithm: sha256WithRSAEncryption
        Issuer: CN=team655-net
        Validity
            Not Before: May 18 23:21:46 2022 GMT
            Not After : May  2 23:21:46 2025 GMT
        Subject: CN=team655-server
        Subject Public Key Info:
            Public Key Algorithm: rsaEncryption
                RSA Public-Key: (2048 bit)
                Modulus:
                    00:b1:ec:7e:eb:24:79:98:2f:de:67:a3:f4:4b:2d:
                    47:4b:95:ac:63:dd:df:ce:d8:9b:02:22:1b:b5:e9:
                    7f:0d:93:86:83:e3:e4:13:df:7b:1c:75:c3:18:23:
                    fa:26:b7:53:41:0a:dd:74:be:ab:31:e4:41:0a:11:
                    9e:ab:1b:92:50:d5:39:bb:ec:50:fc:a9:51:39:11:
                    0b:72:ab:ee:fb:25:b7:4a:57:c9:03:46:77:31:38:
                    a6:23:e5:87:f8:5d:3e:b0:85:53:36:4b:e7:df:64:
                    e6:81:10:d8:d8:eb:c0:0a:c0:49:d5:21:b7:27:f8:
                    dd:ae:7e:31:63:24:56:9e:96:60:11:d6:dc:67:a9:
                    2e:f5:80:3f:e8:f4:59:fa:d5:cb:96:6a:5e:27:34:
                    7d:3e:08:0f:9f:20:ce:cc:de:0b:08:5b:00:2f:aa:
                    4b:af:4d:36:06:4c:b1:a5:5c:ea:0c:14:d1:68:48:
                    02:0f:20:f9:79:29:66:58:3c:5f:e2:69:eb:80:35:
                    d1:a3:0e:14:73:66:ac:d8:bf:97:0f:81:97:2b:00:
                    85:b4:ae:8a:b3:ab:4d:36:27:60:69:9f:f8:3a:f6:
                    19:96:ce:13:08:10:7e:6d:f4:b4:a3:f4:8c:87:3a:
                    22:22:8f:93:b1:bf:36:cb:31:b5:d6:f1:db:ef:f6:
                    bd:9d
                Exponent: 65537 (0x10001)
        X509v3 extensions:
            X509v3 Basic Constraints: 
                CA:FALSE
            X509v3 Subject Key Identifier: 
                47:C8:0F:A6:00:86:C3:37:5F:CA:63:A8:C0:48:37:6E:12:3F:6D:C6
            X509v3 Authority Key Identifier: 
                keyid:C6:04:A3:3D:CD:EB:96:75:59:19:2B:6B:44:6A:B9:36:70:B1:95:F0
                DirName:/CN=team655-net
                serial:4D:95:57:05:EC:62:2F:3A:29:CF:02:8C:57:5D:5E:65:E5:45:83:92

            X509v3 Extended Key Usage: 
                TLS Web Server Authentication
            X509v3 Key Usage: 
                Digital Signature, Key Encipherment
            X509v3 Subject Alternative Name: 
                DNS:team655-server
    Signature Algorithm: sha256WithRSAEncryption
         b7:b1:d0:aa:b1:31:06:a3:64:a8:25:f3:8f:0c:ac:d0:50:18:
         0c:fc:5b:84:fe:00:1c:01:99:bb:cf:0b:33:c7:53:6a:74:9d:
         fb:8c:a5:4b:0f:8b:f2:e9:09:7e:5e:c9:e1:9a:84:9f:03:26:
         cd:4b:0a:11:82:0b:02:af:8a:97:67:e3:17:71:6d:2a:93:f4:
         01:82:b6:5c:7d:62:ff:80:ca:dd:00:13:37:8e:e9:6d:5e:0d:
         af:64:30:ee:f9:39:43:f7:21:98:1f:c5:d5:6f:35:45:74:40:
         a7:a8:db:48:49:7e:33:9a:27:83:bd:36:98:c6:14:7f:08:d6:
         1f:18:1f:e0:cf:da:41:90:a7:7d:71:27:0a:94:2c:5b:61:66:
         2c:f3:16:a6:f5:c9:92:1b:f6:34:df:8c:59:5a:42:30:22:33:
         dd:eb:8f:57:a2:4e:f9:97:99:72:48:d9:aa:dd:d0:64:f0:27:
         7e:e9:2c:1a:08:18:d9:91:83:9b:b8:26:51:6b:cf:3f:6a:60:
         d3:81:7a:39:9e:4f:a7:0c:68:57:a1:3d:48:b9:6f:c1:9a:c5:
         ad:88:2b:60:16:f7:e4:87:ab:66:14:06:80:2b:dc:6e:30:81:
         d6:cb:8a:20:a7:aa:ba:fd:2b:66:0e:0d:b6:4c:4c:f4:da:14:
         66:31:4e:39
-----BEGIN CERTIFICATE-----
MIIDdzCCAl+gAwIBAgIQCLLyVstJRnON4CdpitXyRTANBgkqhkiG9w0BAQsFADAW
MRQwEgYDVQQDDAt0ZWFtNjU1LW5ldDAeFw0yMjA1MTgyMzIxNDZaFw0yNTA1MDIy
MzIxNDZaMBkxFzAVBgNVBAMMDnRlYW02NTUtc2VydmVyMIIBIjANBgkqhkiG9w0B
AQEFAAOCAQ8AMIIBCgKCAQEAsex+6yR5mC/eZ6P0Sy1HS5WsY93fztibAiIbtel/
DZOGg+PkE997HHXDGCP6JrdTQQrddL6rMeRBChGeqxuSUNU5u+xQ/KlRORELcqvu
+yW3SlfJA0Z3MTimI+WH+F0+sIVTNkvn32TmgRDY2OvACsBJ1SG3J/jdrn4xYyRW
npZgEdbcZ6ku9YA/6PRZ+tXLlmpeJzR9PggPnyDOzN4LCFsAL6pLr002BkyxpVzq
DBTRaEgCDyD5eSlmWDxf4mnrgDXRow4Uc2as2L+XD4GXKwCFtK6Ks6tNNidgaZ/4
OvYZls4TCBB+bfS0o/SMhzoiIo+Tsb82yzG11vHb7/a9nQIDAQABo4G9MIG6MAkG
A1UdEwQCMAAwHQYDVR0OBBYEFEfID6YAhsM3X8pjqMBIN24SP23GMFEGA1UdIwRK
MEiAFMYEoz3N65Z1WRkra0RquTZwsZXwoRqkGDAWMRQwEgYDVQQDDAt0ZWFtNjU1
LW5ldIIUTZVXBexiLzopzwKMV11eZeVFg5IwEwYDVR0lBAwwCgYIKwYBBQUHAwEw
CwYDVR0PBAQDAgWgMBkGA1UdEQQSMBCCDnRlYW02NTUtc2VydmVyMA0GCSqGSIb3
DQEBCwUAA4IBAQC3sdCqsTEGo2SoJfOPDKzQUBgM/FuE/gAcAZm7zwszx1NqdJ37
jKVLD4vy6Ql+XsnhmoSfAybNSwoRggsCr4qXZ+MXcW0qk/QBgrZcfWL/gMrdABM3
jultXg2vZDDu+TlD9yGYH8XVbzVFdECnqNtISX4zmieDvTaYxhR/CNYfGB/gz9pB
kKd9cScKlCxbYWYs8xam9cmSG/Y034xZWkIwIjPd649Xok75l5lySNmq3dBk8Cd+
6SwaCBjZkYObuCZRa88/amDTgXo5nk+nDGhXoT1IuW/BmsWtiCtgFvfkh6tmFAaA
K9xuMIHWy4ogp6q6/StmDg22TEz02hRmMU45
-----END CERTIFICATE-----
