Certificate:
    Data:
        Version: 3 (0x2)
        Serial Number:
            aa:3f:16:10:e4:52:93:c0:f7:9c:6b:3f:0d:3c:1c:a5
        Signature Algorithm: sha256WithRSAEncryption
        Issuer: CN=team503-net
        Validity
            Not Before: May 18 21:47:04 2022 GMT
            Not After : May  2 21:47:04 2025 GMT
        Subject: CN=team503-client
        Subject Public Key Info:
            Public Key Algorithm: rsaEncryption
                RSA Public-Key: (2048 bit)
                Modulus:
                    00:a3:d9:45:90:40:26:9c:10:f4:64:16:d2:37:e5:
                    95:2d:0f:47:bb:90:fc:2e:41:9d:f5:c6:e8:3d:b3:
                    1b:e6:a1:3a:d8:0d:a4:5a:e4:72:d0:79:5a:d5:81:
                    ec:df:d3:74:35:aa:1c:74:eb:e1:97:49:55:cd:bc:
                    b2:24:cf:6b:e4:c9:8e:7e:da:2b:6b:ed:b6:b1:a1:
                    14:ed:0a:f5:b5:e7:00:b9:4b:0b:6e:41:61:0a:d5:
                    08:61:86:d4:f1:14:11:0b:2d:81:f4:9a:c8:df:0a:
                    85:53:a1:68:86:8c:a3:41:93:40:b4:00:3a:31:44:
                    5f:50:af:c9:4c:aa:5a:f2:10:53:6d:16:01:75:71:
                    00:12:19:aa:5d:24:da:68:ba:30:53:bf:98:ea:84:
                    77:61:21:dd:41:f0:e6:30:13:45:bd:af:eb:a9:6b:
                    21:ea:91:2a:3f:6b:4a:7a:50:a6:14:ee:ec:bc:95:
                    eb:7e:32:67:63:30:dc:b8:fd:8e:86:39:b2:49:f4:
                    4c:02:39:8f:04:71:ba:0d:bb:45:89:d3:c4:e5:93:
                    78:a9:80:0c:19:10:60:8f:4b:3b:ec:10:8a:90:05:
                    7d:e2:0e:9b:7d:b8:07:37:84:1d:6b:95:ff:45:9e:
                    d7:3c:0f:f4:42:4a:c6:2d:28:d4:2b:3c:7c:fe:78:
                    9f:d1
                Exponent: 65537 (0x10001)
        X509v3 extensions:
            X509v3 Basic Constraints: 
                CA:FALSE
            X509v3 Subject Key Identifier: 
                72:EF:07:B5:D8:9E:59:11:93:92:3E:EB:A4:3F:AF:41:9A:FB:E2:78
            X509v3 Authority Key Identifier: 
                keyid:6F:DE:C5:75:F7:E6:AD:D6:32:C9:29:4F:8A:57:E8:C5:66:51:7B:BF
                DirName:/CN=team503-net
                serial:30:BD:F7:C6:A5:FE:2D:1E:27:C5:5C:8E:3B:D8:D0:17:43:34:EC:4D

            X509v3 Extended Key Usage: 
                TLS Web Client Authentication
            X509v3 Key Usage: 
                Digital Signature
    Signature Algorithm: sha256WithRSAEncryption
         31:39:b5:31:d0:51:e5:d3:ab:3a:5a:5a:9a:76:1a:f7:aa:cb:
         16:90:71:ed:1f:03:26:3a:7d:1a:19:b2:13:39:a6:84:85:e1:
         6b:f2:d3:84:e9:28:85:f6:c5:11:13:67:fc:41:a8:88:28:97:
         51:a0:46:66:9a:60:78:9a:70:f2:62:f4:3a:09:45:a6:a2:96:
         56:2c:1e:9a:55:d8:2d:05:97:c0:a4:32:7c:da:ff:39:2b:25:
         dd:0d:97:08:55:10:b2:2a:d8:02:4b:63:93:b4:a3:d6:6a:c4:
         a2:05:e6:dd:cb:6a:69:fd:15:45:9a:5b:95:b3:cd:0f:b5:32:
         12:cc:05:8e:7c:53:d7:35:29:cd:10:a0:d6:4d:05:05:93:2e:
         41:1e:5f:5d:23:8e:db:0f:d3:3b:e0:73:a6:6c:57:54:c7:6c:
         ce:2a:62:74:d9:4c:44:64:c3:0a:fc:91:32:02:18:6d:7b:7a:
         03:41:a7:9c:24:9a:71:93:db:a7:0c:a9:c5:1f:f2:17:8a:43:
         43:88:74:79:56:b2:7d:de:20:b2:1e:46:4e:cf:24:a6:66:92:
         2e:dd:ba:64:77:20:9a:d4:a1:c1:7c:02:85:49:56:fc:5e:44:
         dc:63:20:74:ab:06:7c:aa:8f:57:7c:73:c0:04:ac:39:ae:cc:
         3a:3f:11:00
-----BEGIN CERTIFICATE-----
MIIDXTCCAkWgAwIBAgIRAKo/FhDkUpPA95xrPw08HKUwDQYJKoZIhvcNAQELBQAw
FjEUMBIGA1UEAwwLdGVhbTUwMy1uZXQwHhcNMjIwNTE4MjE0NzA0WhcNMjUwNTAy
MjE0NzA0WjAZMRcwFQYDVQQDDA50ZWFtNTAzLWNsaWVudDCCASIwDQYJKoZIhvcN
AQEBBQADggEPADCCAQoCggEBAKPZRZBAJpwQ9GQW0jfllS0PR7uQ/C5BnfXG6D2z
G+ahOtgNpFrkctB5WtWB7N/TdDWqHHTr4ZdJVc28siTPa+TJjn7aK2vttrGhFO0K
9bXnALlLC25BYQrVCGGG1PEUEQstgfSayN8KhVOhaIaMo0GTQLQAOjFEX1CvyUyq
WvIQU20WAXVxABIZql0k2mi6MFO/mOqEd2Eh3UHw5jATRb2v66lrIeqRKj9rSnpQ
phTu7LyV634yZ2Mw3Lj9joY5skn0TAI5jwRxug27RYnTxOWTeKmADBkQYI9LO+wQ
ipAFfeIOm324BzeEHWuV/0We1zwP9EJKxi0o1Cs8fP54n9ECAwEAAaOBojCBnzAJ
BgNVHRMEAjAAMB0GA1UdDgQWBBRy7we12J5ZEZOSPuukP69BmvvieDBRBgNVHSME
SjBIgBRv3sV19+at1jLJKU+KV+jFZlF7v6EapBgwFjEUMBIGA1UEAwwLdGVhbTUw
My1uZXSCFDC998al/i0eJ8VcjjvY0BdDNOxNMBMGA1UdJQQMMAoGCCsGAQUFBwMC
MAsGA1UdDwQEAwIHgDANBgkqhkiG9w0BAQsFAAOCAQEAMTm1MdBR5dOrOlpamnYa
96rLFpBx7R8DJjp9GhmyEzmmhIXha/LThOkohfbFERNn/EGoiCiXUaBGZppgeJpw
8mL0OglFpqKWViwemlXYLQWXwKQyfNr/OSsl3Q2XCFUQsirYAktjk7Sj1mrEogXm
3ctqaf0VRZpblbPND7UyEswFjnxT1zUpzRCg1k0FBZMuQR5fXSOO2w/TO+BzpmxX
VMdszipidNlMRGTDCvyRMgIYbXt6A0GnnCSacZPbpwypxR/yF4pDQ4h0eVayfd4g
sh5GTs8kpmaSLt26ZHcgmtShwXwChUlW/F5E3GMgdKsGfKqPV3xzwASsOa7MOj8R
AA==
-----END CERTIFICATE-----
