Certificate:
    Data:
        Version: 3 (0x2)
        Serial Number:
            9f:80:7d:18:92:ce:95:11:fa:f4:2e:e1:79:97:c9:e4
        Signature Algorithm: sha256WithRSAEncryption
        Issuer: CN=team675-net
        Validity
            Not Before: May 18 23:16:36 2022 GMT
            Not After : May  2 23:16:36 2025 GMT
        Subject: CN=team675-server
        Subject Public Key Info:
            Public Key Algorithm: rsaEncryption
                RSA Public-Key: (2048 bit)
                Modulus:
                    00:e3:69:af:e4:c6:fe:71:b0:cd:8e:83:d2:8d:80:
                    06:f9:e0:6c:30:51:77:94:c0:53:4f:e1:32:fa:d6:
                    d3:13:3c:b3:c1:16:e8:d1:c1:a5:df:b5:a2:80:36:
                    df:bb:b0:c0:ae:95:0c:d2:20:da:85:43:6e:ba:e1:
                    8f:07:19:0c:48:f6:dd:0d:63:3d:26:31:9b:64:ec:
                    1f:a9:99:81:43:94:a3:1a:67:60:1e:43:21:bb:55:
                    fe:16:37:25:5b:d1:3c:33:d6:2d:ec:e8:86:1c:80:
                    63:13:30:e9:2a:57:b8:ca:ec:26:98:58:57:55:dd:
                    7a:62:46:a2:ea:e7:de:24:aa:60:d6:a9:c5:ec:21:
                    1d:15:70:45:45:ba:a8:f0:13:c5:2f:08:89:04:e1:
                    48:2a:9f:03:39:95:e4:da:83:11:ea:8d:5c:e0:5e:
                    8a:0d:2a:44:ab:6a:b9:8d:60:85:b0:96:78:92:4f:
                    e4:5a:4c:e4:c5:f4:74:97:e0:45:e2:98:3c:f5:00:
                    7c:f9:4c:cd:a1:f2:4d:10:b4:fd:04:6f:77:59:90:
                    ba:e5:9b:83:f4:f4:61:57:8d:c0:57:7c:29:64:d5:
                    a1:ed:3c:2a:45:3e:27:47:53:a8:c2:85:b2:3f:ce:
                    77:8a:0f:a8:c8:c5:24:76:29:eb:e5:f0:96:42:dc:
                    38:cd
                Exponent: 65537 (0x10001)
        X509v3 extensions:
            X509v3 Basic Constraints: 
                CA:FALSE
            X509v3 Subject Key Identifier: 
                55:99:B2:93:7E:9D:5B:5B:7F:E8:46:61:95:0F:C6:D0:89:E7:5D:F2
            X509v3 Authority Key Identifier: 
                keyid:30:8B:66:E1:0A:CF:0B:1A:6C:8B:4A:84:66:25:AC:A5:2E:3C:67:6D
                DirName:/CN=team675-net
                serial:76:FA:B5:9C:83:B4:C3:F9:CD:64:3B:C7:82:C9:57:A8:41:A7:EC:5B

            X509v3 Extended Key Usage: 
                TLS Web Server Authentication
            X509v3 Key Usage: 
                Digital Signature, Key Encipherment
            X509v3 Subject Alternative Name: 
                DNS:team675-server
    Signature Algorithm: sha256WithRSAEncryption
         64:8d:79:d0:df:df:10:9d:b9:1c:50:b3:cc:29:57:a6:d2:9f:
         19:c4:3f:94:7e:73:54:c8:3e:dc:59:ff:95:11:32:1f:4c:1f:
         2a:2f:41:39:ba:ce:85:b5:24:e9:61:25:77:f4:f8:00:ad:90:
         ed:1c:8b:eb:a3:86:0e:77:32:16:6e:31:e5:22:44:74:f7:71:
         66:74:aa:fe:22:fe:92:57:bd:cb:3d:77:21:52:53:18:ad:e7:
         f9:b7:b4:ab:4d:fe:1a:3f:54:b2:40:1d:28:e3:4f:c3:d5:f5:
         a9:77:f2:ec:aa:46:ec:ab:ee:b1:64:48:0b:3f:82:55:d0:c7:
         cc:93:ee:61:4c:9d:6c:e4:a8:60:86:cf:55:3e:f5:8a:82:e1:
         52:85:08:15:b4:54:7e:a4:3f:c5:fa:d1:c3:7f:86:70:6a:cc:
         56:56:7b:76:2e:ba:72:9f:91:3c:36:fe:f3:8b:be:3e:04:d9:
         c1:4c:28:15:da:6d:7a:d1:a1:a1:e7:58:34:9f:3a:81:05:5c:
         98:9c:c3:1e:e9:29:51:b7:08:5d:41:ed:b2:76:02:23:25:09:
         d9:07:b9:1b:8d:61:98:98:e1:2a:de:db:0f:fa:29:2b:38:8c:
         1a:0d:b7:2e:2c:67:8e:fe:32:a6:22:f4:87:7c:44:ae:c2:3a:
         a4:d7:95:67
-----BEGIN CERTIFICATE-----
MIIDeDCCAmCgAwIBAgIRAJ+AfRiSzpUR+vQu4XmXyeQwDQYJKoZIhvcNAQELBQAw
FjEUMBIGA1UEAwwLdGVhbTY3NS1uZXQwHhcNMjIwNTE4MjMxNjM2WhcNMjUwNTAy
MjMxNjM2WjAZMRcwFQYDVQQDDA50ZWFtNjc1LXNlcnZlcjCCASIwDQYJKoZIhvcN
AQEBBQADggEPADCCAQoCggEBAONpr+TG/nGwzY6D0o2ABvngbDBRd5TAU0/hMvrW
0xM8s8EW6NHBpd+1ooA237uwwK6VDNIg2oVDbrrhjwcZDEj23Q1jPSYxm2TsH6mZ
gUOUoxpnYB5DIbtV/hY3JVvRPDPWLezohhyAYxMw6SpXuMrsJphYV1XdemJGourn
3iSqYNapxewhHRVwRUW6qPATxS8IiQThSCqfAzmV5NqDEeqNXOBeig0qRKtquY1g
hbCWeJJP5FpM5MX0dJfgReKYPPUAfPlMzaHyTRC0/QRvd1mQuuWbg/T0YVeNwFd8
KWTVoe08KkU+J0dTqMKFsj/Od4oPqMjFJHYp6+XwlkLcOM0CAwEAAaOBvTCBujAJ
BgNVHRMEAjAAMB0GA1UdDgQWBBRVmbKTfp1bW3/oRmGVD8bQiedd8jBRBgNVHSME
SjBIgBQwi2bhCs8LGmyLSoRmJaylLjxnbaEapBgwFjEUMBIGA1UEAwwLdGVhbTY3
NS1uZXSCFHb6tZyDtMP5zWQ7x4LJV6hBp+xbMBMGA1UdJQQMMAoGCCsGAQUFBwMB
MAsGA1UdDwQEAwIFoDAZBgNVHREEEjAQgg50ZWFtNjc1LXNlcnZlcjANBgkqhkiG
9w0BAQsFAAOCAQEAZI150N/fEJ25HFCzzClXptKfGcQ/lH5zVMg+3Fn/lREyH0wf
Ki9BObrOhbUk6WEld/T4AK2Q7RyL66OGDncyFm4x5SJEdPdxZnSq/iL+kle9yz13
IVJTGK3n+be0q03+Gj9UskAdKONPw9X1qXfy7KpG7KvusWRICz+CVdDHzJPuYUyd
bOSoYIbPVT71ioLhUoUIFbRUfqQ/xfrRw3+GcGrMVlZ7di66cp+RPDb+84u+PgTZ
wUwoFdptetGhoedYNJ86gQVcmJzDHukpUbcIXUHtsnYCIyUJ2Qe5G41hmJjhKt7b
D/opKziMGg23Lixnjv4ypiL0h3xErsI6pNeVZw==
-----END CERTIFICATE-----
