Certificate:
    Data:
        Version: 3 (0x2)
        Serial Number:
            72:43:77:78:d9:66:47:cd:a9:67:7e:f5:e5:7d:92:44
        Signature Algorithm: sha256WithRSAEncryption
        Issuer: CN=team660-net
        Validity
            Not Before: May 18 23:09:24 2022 GMT
            Not After : May  2 23:09:24 2025 GMT
        Subject: CN=team660-client
        Subject Public Key Info:
            Public Key Algorithm: rsaEncryption
                RSA Public-Key: (2048 bit)
                Modulus:
                    00:c0:d7:b6:da:96:66:f5:69:eb:5d:5f:e5:2a:cc:
                    20:00:5d:4f:7b:46:8c:2f:8f:8b:fc:9e:27:41:46:
                    72:ff:07:09:25:0e:19:72:f3:85:49:f3:73:85:45:
                    0d:98:85:5d:09:28:f8:50:02:c4:63:1d:16:5d:55:
                    ba:dc:66:6d:d4:85:0e:31:9d:6d:24:63:41:36:a7:
                    6d:c2:48:19:4f:1d:5f:15:53:87:51:bd:b2:05:e9:
                    46:4e:fc:1a:f3:2e:4c:6b:e1:bc:cb:48:fc:e1:45:
                    87:df:d6:b1:b2:98:56:1b:8c:b5:fd:fe:15:6a:c4:
                    9d:c1:e5:14:cc:68:02:32:f6:8e:93:23:ca:2f:4a:
                    7f:28:db:06:26:c5:78:e8:84:a5:f9:33:08:89:72:
                    2c:19:28:6c:52:bc:43:f5:b3:46:d8:f8:7d:80:bc:
                    da:61:07:04:d8:38:59:e7:5f:ea:f9:e1:c4:87:7d:
                    91:f4:a5:ce:da:2d:58:13:7e:ac:33:24:a1:05:5a:
                    66:98:c1:18:12:5c:90:1e:a8:0d:2d:7e:98:61:48:
                    f3:ff:f4:bf:1c:67:7a:0f:df:37:f5:c6:26:6a:29:
                    d8:28:5a:13:a7:cb:2b:67:ff:4d:e4:52:55:87:d8:
                    07:ea:9c:2b:b0:65:3f:7d:13:a4:98:bd:b3:df:d4:
                    a0:fd
                Exponent: 65537 (0x10001)
        X509v3 extensions:
            X509v3 Basic Constraints: 
                CA:FALSE
            X509v3 Subject Key Identifier: 
                3B:F0:D7:31:04:2E:8F:25:54:AA:86:7A:90:9A:9F:67:21:1F:86:57
            X509v3 Authority Key Identifier: 
                keyid:2B:13:6F:76:97:59:10:AD:4B:7B:53:FF:48:F3:0A:30:6A:C7:83:21
                DirName:/CN=team660-net
                serial:6B:37:B2:FD:4D:AC:83:C5:A8:44:8D:DC:F0:06:3E:8E:73:16:1B:25

            X509v3 Extended Key Usage: 
                TLS Web Client Authentication
            X509v3 Key Usage: 
                Digital Signature
    Signature Algorithm: sha256WithRSAEncryption
         32:0d:94:b5:20:3d:90:0a:bc:29:a5:e4:37:d2:b4:60:f3:65:
         65:1f:94:fb:5f:c9:06:fe:41:e0:a1:1a:3f:65:46:32:b8:72:
         ae:96:89:ac:08:9a:d7:3d:3e:c2:7a:77:99:6c:96:71:8a:41:
         4f:57:ad:41:d7:7c:e4:de:28:67:f7:d1:f9:2a:c0:0f:cc:e2:
         df:a9:d6:71:0b:c3:9f:c8:26:47:20:2b:f9:02:5a:80:1f:36:
         b6:26:8f:e9:27:8f:78:ac:a8:94:05:3e:0e:05:68:71:39:33:
         55:dd:e5:c2:3e:bc:e1:03:fa:28:f9:89:d0:67:5d:cf:3b:0f:
         49:59:9d:e5:42:e7:53:9c:eb:ea:f9:5a:d5:bc:ca:76:d2:4f:
         3a:0a:d8:0d:fb:5d:bd:74:16:a7:9a:6b:07:ea:35:73:11:49:
         d5:9c:ad:b1:bb:14:5a:65:a1:a2:a5:8a:0b:60:82:b7:cd:7a:
         1a:00:71:cc:e2:2d:0a:b7:53:40:f3:c2:d6:5f:26:14:13:2f:
         8e:fe:4d:dc:fe:fa:58:16:74:ca:49:75:a2:8c:0a:1e:08:27:
         6a:26:b0:89:82:4f:f9:0d:8c:f6:64:5d:14:9d:ab:11:c3:33:
         0a:63:c2:38:36:fe:35:ea:1f:0a:06:4d:80:ec:47:44:8d:8c:
         98:16:e6:cb
-----BEGIN CERTIFICATE-----
MIIDXDCCAkSgAwIBAgIQckN3eNlmR82pZ3715X2SRDANBgkqhkiG9w0BAQsFADAW
MRQwEgYDVQQDDAt0ZWFtNjYwLW5ldDAeFw0yMjA1MTgyMzA5MjRaFw0yNTA1MDIy
MzA5MjRaMBkxFzAVBgNVBAMMDnRlYW02NjAtY2xpZW50MIIBIjANBgkqhkiG9w0B
AQEFAAOCAQ8AMIIBCgKCAQEAwNe22pZm9WnrXV/lKswgAF1Pe0aML4+L/J4nQUZy
/wcJJQ4ZcvOFSfNzhUUNmIVdCSj4UALEYx0WXVW63GZt1IUOMZ1tJGNBNqdtwkgZ
Tx1fFVOHUb2yBelGTvwa8y5Ma+G8y0j84UWH39axsphWG4y1/f4VasSdweUUzGgC
MvaOkyPKL0p/KNsGJsV46ISl+TMIiXIsGShsUrxD9bNG2Ph9gLzaYQcE2DhZ51/q
+eHEh32R9KXO2i1YE36sMyShBVpmmMEYElyQHqgNLX6YYUjz//S/HGd6D9839cYm
ainYKFoTp8srZ/9N5FJVh9gH6pwrsGU/fROkmL2z39Sg/QIDAQABo4GiMIGfMAkG
A1UdEwQCMAAwHQYDVR0OBBYEFDvw1zEELo8lVKqGepCan2chH4ZXMFEGA1UdIwRK
MEiAFCsTb3aXWRCtS3tT/0jzCjBqx4MhoRqkGDAWMRQwEgYDVQQDDAt0ZWFtNjYw
LW5ldIIUazey/U2sg8WoRI3c8AY+jnMWGyUwEwYDVR0lBAwwCgYIKwYBBQUHAwIw
CwYDVR0PBAQDAgeAMA0GCSqGSIb3DQEBCwUAA4IBAQAyDZS1ID2QCrwppeQ30rRg
82VlH5T7X8kG/kHgoRo/ZUYyuHKulomsCJrXPT7CeneZbJZxikFPV61B13zk3ihn
99H5KsAPzOLfqdZxC8OfyCZHICv5AlqAHza2Jo/pJ494rKiUBT4OBWhxOTNV3eXC
PrzhA/oo+YnQZ13POw9JWZ3lQudTnOvq+VrVvMp20k86CtgN+129dBanmmsH6jVz
EUnVnK2xuxRaZaGipYoLYIK3zXoaAHHM4i0Kt1NA88LWXyYUEy+O/k3c/vpYFnTK
SXWijAoeCCdqJrCJgk/5DYz2ZF0UnasRwzMKY8I4Nv416h8KBk2A7EdEjYyYFubL
-----END CERTIFICATE-----
