Certificate:
    Data:
        Version: 3 (0x2)
        Serial Number:
            c3:7f:6a:fc:98:49:7f:cd:34:50:7d:b5:15:be:1c:13
        Signature Algorithm: sha256WithRSAEncryption
        Issuer: CN=team348-net
        Validity
            Not Before: May 18 20:27:34 2022 GMT
            Not After : May  2 20:27:34 2025 GMT
        Subject: CN=team348-client
        Subject Public Key Info:
            Public Key Algorithm: rsaEncryption
                RSA Public-Key: (2048 bit)
                Modulus:
                    00:9e:b0:de:7c:02:45:73:d2:89:9a:f2:d7:44:a5:
                    3a:17:14:9c:c5:51:b0:4b:24:0c:6b:07:6c:24:f7:
                    65:98:b1:68:44:76:47:e7:eb:1a:77:1e:f0:37:57:
                    fb:5f:6c:e6:69:91:4e:91:56:9a:93:e7:9a:7d:4e:
                    47:a9:22:91:4d:a8:fe:28:2d:5c:80:ce:68:5e:28:
                    8a:9e:2d:52:e2:20:fd:5e:30:43:84:6f:2d:54:9c:
                    3d:6a:76:ec:c8:10:ac:2e:ff:7c:4f:79:07:5d:2e:
                    e0:36:92:35:07:e5:f9:1e:30:d7:55:52:11:89:17:
                    d0:7b:69:b4:85:0d:74:c0:2e:54:52:ab:4c:bd:70:
                    b2:40:19:97:8b:e0:aa:12:c1:d2:f0:93:a4:c1:b2:
                    72:00:b9:5f:14:af:40:d2:aa:d2:f8:df:42:1e:39:
                    a0:e1:78:de:26:bf:95:42:c0:b3:3f:13:32:09:18:
                    cf:68:7c:1a:d9:83:58:d6:39:28:a4:24:98:42:b2:
                    75:64:4d:13:db:fa:6b:0c:7c:c4:f8:fe:0f:90:2b:
                    1b:cd:71:69:cc:cb:d9:22:32:d1:7d:e7:1d:f7:ee:
                    0d:a1:2b:29:28:37:ed:0a:8b:7b:b7:7b:c9:fa:f8:
                    60:19:79:f3:88:25:ce:59:b4:80:2a:68:71:64:ae:
                    4d:fb
                Exponent: 65537 (0x10001)
        X509v3 extensions:
            X509v3 Basic Constraints: 
                CA:FALSE
            X509v3 Subject Key Identifier: 
                E9:F4:03:41:0A:72:C1:C0:3F:C5:D0:DA:56:69:51:15:39:BB:37:2E
            X509v3 Authority Key Identifier: 
                keyid:73:B8:B1:B2:A2:AA:02:C6:23:86:EA:B3:49:68:79:17:CE:4A:33:2A
                DirName:/CN=team348-net
                serial:04:A4:5E:8D:41:37:7E:C2:45:38:52:FE:8B:12:B8:7F:C0:D7:0F:37

            X509v3 Extended Key Usage: 
                TLS Web Client Authentication
            X509v3 Key Usage: 
                Digital Signature
    Signature Algorithm: sha256WithRSAEncryption
         36:85:d3:7a:80:95:21:bf:64:57:62:2d:10:28:99:89:76:20:
         7f:ee:fe:db:a5:a2:c3:d7:0c:3f:86:d5:5a:4d:a7:1c:d5:07:
         59:f2:b6:80:60:f8:32:4e:48:c9:61:80:ae:2b:c7:c2:f0:c0:
         ac:d3:f3:73:79:7b:d1:49:3d:e0:5d:9c:c9:6e:97:a6:5a:6a:
         92:2d:da:04:bb:a2:34:ff:c7:1c:e5:1b:76:fd:94:6e:a8:49:
         90:90:9b:96:0d:cf:3a:d1:54:0d:f5:42:5b:fd:60:c8:33:a8:
         78:a9:bd:71:9e:bb:1e:bd:0e:1e:12:1d:f9:91:6d:03:90:20:
         94:8c:63:bb:00:6a:c7:6a:db:9d:5d:95:ec:af:38:ab:73:f6:
         98:89:e5:f3:97:72:ea:6c:c6:64:31:2b:44:d0:38:31:e1:10:
         0a:6e:10:8c:34:94:2c:dc:35:36:a6:ff:b3:74:7a:35:e0:6e:
         c2:0b:ff:37:4e:ea:83:10:da:3a:3c:55:2b:a0:bc:c6:22:05:
         23:6e:f0:e3:e6:90:f5:d4:e0:65:4a:ed:90:da:11:d4:8f:6c:
         4c:23:ed:fa:4f:a0:4e:15:a9:e0:4f:7e:49:dc:a2:68:0e:42:
         9b:35:b9:89:f9:f5:97:3f:40:84:55:d8:a0:f1:aa:ed:10:3a:
         8d:4e:ea:c2
-----BEGIN CERTIFICATE-----
MIIDXTCCAkWgAwIBAgIRAMN/avyYSX/NNFB9tRW+HBMwDQYJKoZIhvcNAQELBQAw
FjEUMBIGA1UEAwwLdGVhbTM0OC1uZXQwHhcNMjIwNTE4MjAyNzM0WhcNMjUwNTAy
MjAyNzM0WjAZMRcwFQYDVQQDDA50ZWFtMzQ4LWNsaWVudDCCASIwDQYJKoZIhvcN
AQEBBQADggEPADCCAQoCggEBAJ6w3nwCRXPSiZry10SlOhcUnMVRsEskDGsHbCT3
ZZixaER2R+frGnce8DdX+19s5mmRTpFWmpPnmn1OR6kikU2o/igtXIDOaF4oip4t
UuIg/V4wQ4RvLVScPWp27MgQrC7/fE95B10u4DaSNQfl+R4w11VSEYkX0HtptIUN
dMAuVFKrTL1wskAZl4vgqhLB0vCTpMGycgC5XxSvQNKq0vjfQh45oOF43ia/lULA
sz8TMgkYz2h8GtmDWNY5KKQkmEKydWRNE9v6awx8xPj+D5ArG81xaczL2SIy0X3n
HffuDaErKSg37QqLe7d7yfr4YBl584glzlm0gCpocWSuTfsCAwEAAaOBojCBnzAJ
BgNVHRMEAjAAMB0GA1UdDgQWBBTp9ANBCnLBwD/F0NpWaVEVObs3LjBRBgNVHSME
SjBIgBRzuLGyoqoCxiOG6rNJaHkXzkozKqEapBgwFjEUMBIGA1UEAwwLdGVhbTM0
OC1uZXSCFASkXo1BN37CRThS/osSuH/A1w83MBMGA1UdJQQMMAoGCCsGAQUFBwMC
MAsGA1UdDwQEAwIHgDANBgkqhkiG9w0BAQsFAAOCAQEANoXTeoCVIb9kV2ItECiZ
iXYgf+7+26Wiw9cMP4bVWk2nHNUHWfK2gGD4Mk5IyWGArivHwvDArNPzc3l70Uk9
4F2cyW6Xplpqki3aBLuiNP/HHOUbdv2UbqhJkJCblg3POtFUDfVCW/1gyDOoeKm9
cZ67Hr0OHhId+ZFtA5AglIxjuwBqx2rbnV2V7K84q3P2mInl85dy6mzGZDErRNA4
MeEQCm4QjDSULNw1Nqb/s3R6NeBuwgv/N07qgxDaOjxVK6C8xiIFI27w4+aQ9dTg
ZUrtkNoR1I9sTCPt+k+gThWp4E9+SdyiaA5CmzW5ifn1lz9AhFXYoPGq7RA6jU7q
wg==
-----END CERTIFICATE-----
