Certificate:
    Data:
        Version: 3 (0x2)
        Serial Number:
            e1:6c:f0:18:2b:2f:16:78:a3:82:28:78:ab:72:7e:ac
        Signature Algorithm: sha256WithRSAEncryption
        Issuer: CN=team286-net
        Validity
            Not Before: May 18 19:51:52 2022 GMT
            Not After : May  2 19:51:52 2025 GMT
        Subject: CN=team286-server
        Subject Public Key Info:
            Public Key Algorithm: rsaEncryption
                RSA Public-Key: (2048 bit)
                Modulus:
                    00:ce:b3:56:72:2d:02:e0:50:01:89:60:b2:42:fb:
                    4d:d7:54:6f:02:66:f2:10:7f:c5:0c:2e:1c:e5:e5:
                    f4:bb:08:aa:be:ca:ae:ab:b2:66:7f:98:64:ea:ab:
                    6f:5b:c8:15:83:2f:ed:b2:40:82:29:51:18:21:48:
                    b2:5c:7a:2a:df:32:56:ae:c5:4c:a5:da:60:ea:7b:
                    39:60:e8:41:59:fe:ac:3b:00:7c:28:68:3d:69:1f:
                    e2:2f:20:da:68:ee:0d:61:af:38:3f:25:24:f1:a3:
                    7d:20:a7:2b:2e:e4:7f:64:55:e9:1b:94:42:b7:8e:
                    b9:76:01:aa:b7:34:07:d2:c1:77:35:82:ae:59:74:
                    7b:c5:63:26:73:cb:f4:d4:f7:f7:4f:61:af:09:84:
                    c8:5c:90:d3:c5:da:ed:8c:0a:5a:e5:c1:56:f8:1d:
                    84:0a:02:6e:ac:f4:59:b9:2f:02:03:16:26:fa:04:
                    3b:89:2c:d9:66:c2:c0:81:bf:f8:d2:32:1d:c2:df:
                    10:b9:42:1e:c2:f2:cb:a8:c1:32:ef:e9:b8:4b:04:
                    7f:3c:37:e1:d8:ac:30:47:e6:70:3c:ba:ea:71:d4:
                    26:19:dc:63:62:be:a2:16:63:88:e6:fa:22:bf:a1:
                    f2:a1:81:6f:0d:e7:a5:53:88:af:93:89:ba:ba:64:
                    e2:73
                Exponent: 65537 (0x10001)
        X509v3 extensions:
            X509v3 Basic Constraints: 
                CA:FALSE
            X509v3 Subject Key Identifier: 
                77:A8:29:7F:77:00:C4:BB:75:DA:96:08:2F:FE:91:AC:E7:F3:F5:66
            X509v3 Authority Key Identifier: 
                keyid:AD:2B:72:35:09:0B:96:01:77:94:B5:66:E5:FD:EB:F9:82:EE:E2:5C
                DirName:/CN=team286-net
                serial:52:C5:02:5D:32:38:3E:32:F8:3C:95:F7:DC:5A:40:3B:58:D6:AC:5A

            X509v3 Extended Key Usage: 
                TLS Web Server Authentication
            X509v3 Key Usage: 
                Digital Signature, Key Encipherment
            X509v3 Subject Alternative Name: 
                DNS:team286-server
    Signature Algorithm: sha256WithRSAEncryption
         44:b8:b6:87:37:5a:53:91:aa:cb:79:23:b2:ed:20:c8:45:77:
         af:c3:a8:ac:d6:d7:0d:09:41:d9:6f:e4:9f:8e:73:43:0e:80:
         58:14:67:fa:c6:17:90:fe:d2:5c:31:1e:95:e3:6b:cc:93:ad:
         4e:8e:d0:8b:12:1e:51:24:80:52:38:54:68:c3:bc:25:db:3a:
         31:83:5a:3b:f0:72:1c:35:3a:c2:4e:bb:3e:4d:eb:a9:20:41:
         c0:43:2c:ca:da:c4:92:6d:51:0a:b9:58:c2:2e:d3:87:bb:1f:
         13:cf:52:fb:2b:d8:2d:a1:e5:a8:a1:e0:2e:74:d7:f1:03:e0:
         1a:11:84:ec:80:42:63:62:a2:f8:5a:62:53:f2:a9:47:44:0c:
         10:b5:f9:fd:c8:2a:4f:b7:bb:1d:91:d7:84:b5:9c:b5:09:0a:
         17:49:82:0d:24:5b:94:b4:e9:ba:6c:8b:91:84:97:32:aa:98:
         6f:03:5a:32:f5:5c:11:c0:9c:fb:23:61:22:a5:70:2b:2b:dd:
         a6:e0:93:15:24:91:df:cf:12:6e:4f:a8:49:10:b0:69:96:73:
         5d:78:da:b6:c2:0a:a5:fa:d0:fc:6d:f6:98:68:ca:12:8b:c8:
         2f:1f:67:f7:77:86:2d:02:9f:92:ec:2b:ab:88:05:60:dd:ec:
         74:d6:9b:dc
-----BEGIN CERTIFICATE-----
MIIDeDCCAmCgAwIBAgIRAOFs8BgrLxZ4o4IoeKtyfqwwDQYJKoZIhvcNAQELBQAw
FjEUMBIGA1UEAwwLdGVhbTI4Ni1uZXQwHhcNMjIwNTE4MTk1MTUyWhcNMjUwNTAy
MTk1MTUyWjAZMRcwFQYDVQQDDA50ZWFtMjg2LXNlcnZlcjCCASIwDQYJKoZIhvcN
AQEBBQADggEPADCCAQoCggEBAM6zVnItAuBQAYlgskL7TddUbwJm8hB/xQwuHOXl
9LsIqr7KrquyZn+YZOqrb1vIFYMv7bJAgilRGCFIslx6Kt8yVq7FTKXaYOp7OWDo
QVn+rDsAfChoPWkf4i8g2mjuDWGvOD8lJPGjfSCnKy7kf2RV6RuUQreOuXYBqrc0
B9LBdzWCrll0e8VjJnPL9NT3909hrwmEyFyQ08Xa7YwKWuXBVvgdhAoCbqz0Wbkv
AgMWJvoEO4ks2WbCwIG/+NIyHcLfELlCHsLyy6jBMu/puEsEfzw34disMEfmcDy6
6nHUJhncY2K+ohZjiOb6Ir+h8qGBbw3npVOIr5OJurpk4nMCAwEAAaOBvTCBujAJ
BgNVHRMEAjAAMB0GA1UdDgQWBBR3qCl/dwDEu3Xalggv/pGs5/P1ZjBRBgNVHSME
SjBIgBStK3I1CQuWAXeUtWbl/ev5gu7iXKEapBgwFjEUMBIGA1UEAwwLdGVhbTI4
Ni1uZXSCFFLFAl0yOD4y+DyV99xaQDtY1qxaMBMGA1UdJQQMMAoGCCsGAQUFBwMB
MAsGA1UdDwQEAwIFoDAZBgNVHREEEjAQgg50ZWFtMjg2LXNlcnZlcjANBgkqhkiG
9w0BAQsFAAOCAQEARLi2hzdaU5Gqy3kjsu0gyEV3r8OorNbXDQlB2W/kn45zQw6A
WBRn+sYXkP7SXDEeleNrzJOtTo7QixIeUSSAUjhUaMO8Jds6MYNaO/ByHDU6wk67
Pk3rqSBBwEMsytrEkm1RCrlYwi7Th7sfE89S+yvYLaHlqKHgLnTX8QPgGhGE7IBC
Y2Ki+FpiU/KpR0QMELX5/cgqT7e7HZHXhLWctQkKF0mCDSRblLTpumyLkYSXMqqY
bwNaMvVcEcCc+yNhIqVwKyvdpuCTFSSR388Sbk+oSRCwaZZzXXjatsIKpfrQ/G32
mGjKEovILx9n93eGLQKfkuwrq4gFYN3sdNab3A==
-----END CERTIFICATE-----
