Certificate:
    Data:
        Version: 3 (0x2)
        Serial Number:
            80:57:81:05:5f:48:19:6e:97:1f:25:3c:07:10:a9:45
        Signature Algorithm: sha256WithRSAEncryption
        Issuer: CN=team637-net
        Validity
            Not Before: May 18 22:58:04 2022 GMT
            Not After : May  2 22:58:04 2025 GMT
        Subject: CN=team637-server
        Subject Public Key Info:
            Public Key Algorithm: rsaEncryption
                RSA Public-Key: (2048 bit)
                Modulus:
                    00:ae:d8:14:66:4f:d2:06:6f:fd:36:4d:2d:9e:a3:
                    1a:f0:88:40:b3:99:f6:37:cb:93:b0:fe:6c:02:1c:
                    84:b5:f6:bf:a8:ed:b0:d0:2a:34:19:76:6a:d6:fc:
                    86:93:92:a7:80:71:9e:a0:b6:03:ac:bd:f5:b5:52:
                    47:95:08:32:11:8c:f1:e7:48:b9:0d:61:96:6f:97:
                    3c:6a:e8:8c:04:c0:ca:59:08:ef:1b:3c:19:78:ef:
                    0a:41:1f:ca:b4:f9:0c:25:c8:ef:20:45:92:8c:b9:
                    d7:b7:7c:17:77:78:75:a9:a2:f6:85:52:a8:ec:f0:
                    94:f7:87:43:99:7c:b6:5b:af:88:e8:e6:dd:79:26:
                    b0:dc:05:27:61:7a:7b:f0:8f:8d:d9:68:4c:0a:a4:
                    50:67:a5:a3:9a:f6:5d:6d:26:76:2b:79:65:d6:5e:
                    ad:f6:78:95:3c:ae:09:18:5e:8e:b5:eb:c3:52:d3:
                    cd:13:ef:b6:5f:37:a9:b4:d5:17:54:c8:56:91:97:
                    4f:a8:d2:b6:a6:4e:d9:a2:c2:f2:35:a2:4d:b6:bc:
                    3f:da:36:86:37:a8:1e:b3:c6:92:dd:e6:11:b8:d1:
                    4b:0d:8c:da:6b:61:40:b1:c7:a2:0d:c1:32:92:23:
                    79:49:be:67:e5:d7:87:33:0f:d0:3c:99:ab:b2:46:
                    14:8f
                Exponent: 65537 (0x10001)
        X509v3 extensions:
            X509v3 Basic Constraints: 
                CA:FALSE
            X509v3 Subject Key Identifier: 
                F2:50:0F:8F:E7:16:93:EE:99:C0:B6:33:BA:46:DF:9B:C4:46:42:6F
            X509v3 Authority Key Identifier: 
                keyid:91:E0:DD:7C:03:B4:15:CD:08:62:C0:C3:35:9C:2D:78:A1:A0:80:DF
                DirName:/CN=team637-net
                serial:05:ED:86:F6:90:11:E5:93:A1:01:AA:89:41:EA:91:73:7B:2A:F5:BF

            X509v3 Extended Key Usage: 
                TLS Web Server Authentication
            X509v3 Key Usage: 
                Digital Signature, Key Encipherment
            X509v3 Subject Alternative Name: 
                DNS:team637-server
    Signature Algorithm: sha256WithRSAEncryption
         34:f6:8c:c8:57:dc:25:13:a1:9e:51:68:02:a7:07:37:99:eb:
         b4:59:cd:b8:47:9f:53:d1:aa:80:95:cb:c6:0a:7b:77:ba:2c:
         87:62:ed:ce:cf:c3:be:5d:66:69:a3:7b:ea:d6:55:af:c7:76:
         97:2e:47:ac:17:08:60:3d:b3:b1:48:ff:68:f4:3d:7b:b3:09:
         b4:cd:bd:f7:42:66:dc:9e:e5:b6:a0:f0:58:9a:85:5f:9c:d0:
         e3:88:f3:3b:10:65:9d:8d:16:66:a0:58:4d:d5:ac:30:29:7d:
         b8:be:cc:df:99:12:7c:41:12:5b:0e:f6:8d:66:50:59:fd:de:
         66:97:77:fe:4d:56:a0:31:bb:c4:a6:79:b5:59:af:93:83:f5:
         8b:43:86:3e:fc:39:83:fc:be:eb:65:ff:43:c8:8f:2b:29:c0:
         51:b0:07:c8:74:50:69:05:3b:61:7e:b8:ff:17:fa:f5:c9:4a:
         c3:55:28:35:40:ba:f6:81:67:ec:67:d9:26:75:d3:ea:82:d9:
         62:8f:eb:ac:ff:37:0c:c1:dd:10:6c:56:16:2d:54:89:54:0a:
         16:a5:5d:e5:22:73:58:2e:da:cb:1b:2e:84:7f:1c:ad:68:ab:
         a9:cf:28:a6:25:0d:48:5c:9e:fc:48:af:dc:ed:4c:62:7b:6f:
         70:05:cf:75
-----BEGIN CERTIFICATE-----
MIIDeDCCAmCgAwIBAgIRAIBXgQVfSBlulx8lPAcQqUUwDQYJKoZIhvcNAQELBQAw
FjEUMBIGA1UEAwwLdGVhbTYzNy1uZXQwHhcNMjIwNTE4MjI1ODA0WhcNMjUwNTAy
MjI1ODA0WjAZMRcwFQYDVQQDDA50ZWFtNjM3LXNlcnZlcjCCASIwDQYJKoZIhvcN
AQEBBQADggEPADCCAQoCggEBAK7YFGZP0gZv/TZNLZ6jGvCIQLOZ9jfLk7D+bAIc
hLX2v6jtsNAqNBl2atb8hpOSp4BxnqC2A6y99bVSR5UIMhGM8edIuQ1hlm+XPGro
jATAylkI7xs8GXjvCkEfyrT5DCXI7yBFkoy517d8F3d4dami9oVSqOzwlPeHQ5l8
tluviOjm3XkmsNwFJ2F6e/CPjdloTAqkUGelo5r2XW0mdit5ZdZerfZ4lTyuCRhe
jrXrw1LTzRPvtl83qbTVF1TIVpGXT6jStqZO2aLC8jWiTba8P9o2hjeoHrPGkt3m
EbjRSw2M2mthQLHHog3BMpIjeUm+Z+XXhzMP0DyZq7JGFI8CAwEAAaOBvTCBujAJ
BgNVHRMEAjAAMB0GA1UdDgQWBBTyUA+P5xaT7pnAtjO6Rt+bxEZCbzBRBgNVHSME
SjBIgBSR4N18A7QVzQhiwMM1nC14oaCA36EapBgwFjEUMBIGA1UEAwwLdGVhbTYz
Ny1uZXSCFAXthvaQEeWToQGqiUHqkXN7KvW/MBMGA1UdJQQMMAoGCCsGAQUFBwMB
MAsGA1UdDwQEAwIFoDAZBgNVHREEEjAQgg50ZWFtNjM3LXNlcnZlcjANBgkqhkiG
9w0BAQsFAAOCAQEANPaMyFfcJROhnlFoAqcHN5nrtFnNuEefU9GqgJXLxgp7d7os
h2Ltzs/Dvl1maaN76tZVr8d2ly5HrBcIYD2zsUj/aPQ9e7MJtM2990Jm3J7ltqDw
WJqFX5zQ44jzOxBlnY0WZqBYTdWsMCl9uL7M35kSfEESWw72jWZQWf3eZpd3/k1W
oDG7xKZ5tVmvk4P1i0OGPvw5g/y+62X/Q8iPKynAUbAHyHRQaQU7YX64/xf69clK
w1UoNUC69oFn7GfZJnXT6oLZYo/rrP83DMHdEGxWFi1UiVQKFqVd5SJzWC7ayxsu
hH8crWirqc8opiUNSFye/Eiv3O1MYntvcAXPdQ==
-----END CERTIFICATE-----
