Certificate:
    Data:
        Version: 3 (0x2)
        Serial Number:
            16:c0:a5:44:a1:39:39:0a:5e:a1:a2:fd:a8:5b:98:fb
        Signature Algorithm: sha256WithRSAEncryption
        Issuer: CN=team524-net
        Validity
            Not Before: May 18 22:01:01 2022 GMT
            Not After : May  2 22:01:01 2025 GMT
        Subject: CN=team524-client
        Subject Public Key Info:
            Public Key Algorithm: rsaEncryption
                RSA Public-Key: (2048 bit)
                Modulus:
                    00:9a:ee:a7:5a:a4:a6:08:be:31:94:9f:30:11:76:
                    3d:54:09:d0:98:b7:e6:c0:d7:e2:80:dc:22:96:1c:
                    85:c6:cf:a4:62:7a:ed:52:de:fb:03:29:7a:eb:a0:
                    05:45:92:4d:e8:d1:e4:ff:fc:80:93:e5:3e:4a:4b:
                    57:9b:f8:5c:1f:d2:12:d1:06:99:ca:cd:d5:27:62:
                    f7:1c:9d:e2:2f:0f:d4:c0:ee:ac:c4:52:04:43:9d:
                    ec:21:44:65:93:51:45:c4:ab:8c:e5:85:c3:47:39:
                    e2:f9:57:b5:4e:c7:dc:1b:98:78:31:0d:40:89:62:
                    b6:4c:d6:fd:da:34:24:26:7e:02:7d:d3:a2:4b:91:
                    6d:49:06:66:aa:d9:1a:d6:b0:7c:15:8c:96:3f:d7:
                    1f:5a:da:49:34:ce:05:f4:2e:9c:34:1f:a2:18:33:
                    bc:35:1c:01:f5:61:9a:8e:4c:6e:98:66:5d:1a:5a:
                    58:0d:54:ba:46:c8:3a:34:40:dc:33:12:98:9f:5c:
                    75:8c:b8:fc:fa:17:23:3b:bb:6c:56:07:bf:d9:f5:
                    83:2d:f1:c9:e6:09:f1:9d:c9:99:96:1e:65:82:b0:
                    3f:6a:2b:41:10:e6:09:35:8d:05:72:90:f8:8a:1b:
                    0a:66:64:2b:c4:e0:1e:e4:e3:34:de:81:34:0e:50:
                    37:d9
                Exponent: 65537 (0x10001)
        X509v3 extensions:
            X509v3 Basic Constraints: 
                CA:FALSE
            X509v3 Subject Key Identifier: 
                48:8B:8A:13:6A:74:95:38:C3:29:DC:90:E9:F7:F7:3A:71:C1:66:D3
            X509v3 Authority Key Identifier: 
                keyid:7A:3D:4B:C3:A2:01:1D:A9:BE:2D:FD:EB:00:B8:4F:EE:F1:8D:B1:B8
                DirName:/CN=team524-net
                serial:52:96:1B:DE:4D:91:23:7E:ED:33:74:1B:CC:10:07:2D:B1:E6:88:33

            X509v3 Extended Key Usage: 
                TLS Web Client Authentication
            X509v3 Key Usage: 
                Digital Signature
    Signature Algorithm: sha256WithRSAEncryption
         9e:0b:19:ca:f7:74:50:19:89:cc:eb:02:6f:63:58:03:bb:63:
         cc:db:a0:bb:86:ad:f9:a7:b9:9b:67:5d:49:6e:bd:a5:30:ce:
         a7:ba:8c:36:05:50:e2:4e:49:eb:d3:34:c9:17:fc:a5:8c:03:
         3e:a6:41:6c:c7:92:ba:2e:34:49:ee:61:c7:47:f9:95:ae:fa:
         af:8d:aa:c4:54:2e:19:0b:b7:dd:53:a5:18:59:84:a2:67:e7:
         12:b2:d4:46:a6:e0:65:53:e4:63:f8:00:05:4c:9b:ab:04:ac:
         00:97:b2:62:14:bb:eb:83:45:ab:d0:ce:b8:e4:ef:0a:81:20:
         41:54:82:08:35:90:8a:1d:be:42:34:af:90:8a:f7:62:1c:e7:
         d8:02:b5:58:d7:63:ca:ec:ff:14:00:59:42:2f:9d:ba:e7:da:
         16:05:d4:8c:a9:db:76:56:83:59:60:14:fe:14:ca:33:cd:e2:
         4b:68:89:2e:15:9f:de:57:3d:79:69:6b:ef:82:bd:9e:be:23:
         9a:e6:8d:c6:66:3c:c1:d6:87:33:47:fc:91:10:ee:49:39:b3:
         7b:bf:70:8d:de:49:75:24:5b:b3:f7:0e:98:5d:59:d0:e0:33:
         af:e0:5c:c4:c3:3d:22:ad:b0:ae:b5:62:e5:aa:e5:74:14:6c:
         31:27:69:bd
-----BEGIN CERTIFICATE-----
MIIDXDCCAkSgAwIBAgIQFsClRKE5OQpeoaL9qFuY+zANBgkqhkiG9w0BAQsFADAW
MRQwEgYDVQQDDAt0ZWFtNTI0LW5ldDAeFw0yMjA1MTgyMjAxMDFaFw0yNTA1MDIy
MjAxMDFaMBkxFzAVBgNVBAMMDnRlYW01MjQtY2xpZW50MIIBIjANBgkqhkiG9w0B
AQEFAAOCAQ8AMIIBCgKCAQEAmu6nWqSmCL4xlJ8wEXY9VAnQmLfmwNfigNwilhyF
xs+kYnrtUt77Ayl666AFRZJN6NHk//yAk+U+SktXm/hcH9IS0QaZys3VJ2L3HJ3i
Lw/UwO6sxFIEQ53sIURlk1FFxKuM5YXDRzni+Ve1TsfcG5h4MQ1AiWK2TNb92jQk
Jn4CfdOiS5FtSQZmqtka1rB8FYyWP9cfWtpJNM4F9C6cNB+iGDO8NRwB9WGajkxu
mGZdGlpYDVS6Rsg6NEDcMxKYn1x1jLj8+hcjO7tsVge/2fWDLfHJ5gnxncmZlh5l
grA/aitBEOYJNY0FcpD4ihsKZmQrxOAe5OM03oE0DlA32QIDAQABo4GiMIGfMAkG
A1UdEwQCMAAwHQYDVR0OBBYEFEiLihNqdJU4wynckOn39zpxwWbTMFEGA1UdIwRK
MEiAFHo9S8OiAR2pvi396wC4T+7xjbG4oRqkGDAWMRQwEgYDVQQDDAt0ZWFtNTI0
LW5ldIIUUpYb3k2RI37tM3QbzBAHLbHmiDMwEwYDVR0lBAwwCgYIKwYBBQUHAwIw
CwYDVR0PBAQDAgeAMA0GCSqGSIb3DQEBCwUAA4IBAQCeCxnK93RQGYnM6wJvY1gD
u2PM26C7hq35p7mbZ11Jbr2lMM6nuow2BVDiTknr0zTJF/yljAM+pkFsx5K6LjRJ
7mHHR/mVrvqvjarEVC4ZC7fdU6UYWYSiZ+cSstRGpuBlU+Rj+AAFTJurBKwAl7Ji
FLvrg0Wr0M645O8KgSBBVIIINZCKHb5CNK+QivdiHOfYArVY12PK7P8UAFlCL526
59oWBdSMqdt2VoNZYBT+FMozzeJLaIkuFZ/eVz15aWvvgr2eviOa5o3GZjzB1ocz
R/yREO5JObN7v3CN3kl1JFuz9w6YXVnQ4DOv4FzEwz0irbCutWLlquV0FGwxJ2m9
-----END CERTIFICATE-----
