Certificate:
    Data:
        Version: 3 (0x2)
        Serial Number:
            9b:03:7a:ae:28:ef:13:41:b1:4d:5e:d4:42:e4:34:64
        Signature Algorithm: sha256WithRSAEncryption
        Issuer: CN=team524-net
        Validity
            Not Before: May 18 22:01:01 2022 GMT
            Not After : May  2 22:01:01 2025 GMT
        Subject: CN=team524-server
        Subject Public Key Info:
            Public Key Algorithm: rsaEncryption
                RSA Public-Key: (2048 bit)
                Modulus:
                    00:e5:16:1b:4d:58:75:82:f0:08:59:8d:42:41:c3:
                    60:2e:6c:73:1c:ff:f5:79:f3:7e:64:89:a8:f1:94:
                    09:b2:10:48:e0:4c:86:e7:e3:63:a1:ed:6a:ea:9c:
                    02:c2:d7:91:6d:e6:8e:44:f2:37:de:f5:dc:72:49:
                    3c:d3:29:45:34:08:7e:88:26:0c:dd:35:97:d5:19:
                    4e:cb:26:80:17:86:69:1d:81:d5:03:0f:24:7e:62:
                    cf:09:61:29:79:fb:1b:92:c4:03:60:93:1a:cb:05:
                    4a:7f:bb:07:bd:32:db:e8:54:1b:28:91:d7:5e:5b:
                    46:cb:46:37:dc:ec:d6:ce:ca:08:80:da:fd:eb:59:
                    e1:e8:02:57:d6:b6:80:02:8c:a1:4e:fa:c6:df:e6:
                    01:18:75:4f:19:c6:16:f4:bf:c0:4a:02:8e:b4:2d:
                    0c:b3:ae:70:92:60:0f:c8:8f:86:33:49:14:ec:8a:
                    a9:4b:3b:2b:b0:49:e2:05:b0:cc:54:e9:1a:6e:4e:
                    eb:92:18:d9:db:f8:1d:6e:2c:36:da:c4:59:c1:22:
                    f5:cd:92:c1:19:7c:e0:f0:a7:db:d5:c0:d4:73:87:
                    f6:25:da:58:bd:e7:71:93:2e:0b:f5:92:84:8e:62:
                    e5:4d:1f:f8:16:f3:d4:18:d8:1a:18:41:a5:f3:f8:
                    e1:b5
                Exponent: 65537 (0x10001)
        X509v3 extensions:
            X509v3 Basic Constraints: 
                CA:FALSE
            X509v3 Subject Key Identifier: 
                AC:E2:30:5A:15:99:22:8A:FA:8C:E2:1C:AF:9E:98:83:8C:F2:A5:8D
            X509v3 Authority Key Identifier: 
                keyid:7A:3D:4B:C3:A2:01:1D:A9:BE:2D:FD:EB:00:B8:4F:EE:F1:8D:B1:B8
                DirName:/CN=team524-net
                serial:52:96:1B:DE:4D:91:23:7E:ED:33:74:1B:CC:10:07:2D:B1:E6:88:33

            X509v3 Extended Key Usage: 
                TLS Web Server Authentication
            X509v3 Key Usage: 
                Digital Signature, Key Encipherment
            X509v3 Subject Alternative Name: 
                DNS:team524-server
    Signature Algorithm: sha256WithRSAEncryption
         05:ad:c2:45:c4:e1:0c:5f:90:01:13:1f:0a:0c:7c:fc:d9:b1:
         7a:6c:9e:15:c9:4d:18:7b:8e:ad:fc:18:a9:65:f9:89:ce:5b:
         ea:7c:b1:06:06:0d:31:cc:66:ff:b0:ce:b0:b2:94:21:8e:81:
         a1:48:d2:a7:58:d1:bc:05:78:a0:c0:5f:33:6c:73:a5:02:b3:
         2c:68:d4:b1:63:84:c0:2e:51:71:0c:04:df:9f:ef:36:5b:a2:
         13:41:41:c9:06:23:4c:9e:7b:40:31:68:39:bd:a4:88:16:8f:
         df:7d:76:f9:78:20:66:fa:28:40:9f:8d:b4:a4:22:6f:92:c3:
         c0:0f:cd:9f:d3:a6:02:08:81:10:ee:6b:7d:59:80:ce:3f:5b:
         c4:a5:d0:d8:1c:19:dd:14:5d:48:71:ab:ca:69:fc:0c:67:f9:
         fd:a6:a8:bb:f8:31:f3:89:ab:06:30:4d:48:58:d2:d8:1f:37:
         e8:36:9e:aa:b8:8f:9a:8a:24:aa:ef:91:99:ca:2e:31:41:da:
         98:c0:69:8d:d8:a4:14:52:dd:c6:12:73:88:33:35:df:84:72:
         68:d9:d2:0e:c8:82:82:25:1d:35:9a:c8:f7:38:71:c8:99:fd:
         a1:a7:fd:94:9a:2c:04:ed:ca:f0:10:f3:03:64:9e:fe:47:ae:
         ed:09:ac:4a
-----BEGIN CERTIFICATE-----
MIIDeDCCAmCgAwIBAgIRAJsDeq4o7xNBsU1e1ELkNGQwDQYJKoZIhvcNAQELBQAw
FjEUMBIGA1UEAwwLdGVhbTUyNC1uZXQwHhcNMjIwNTE4MjIwMTAxWhcNMjUwNTAy
MjIwMTAxWjAZMRcwFQYDVQQDDA50ZWFtNTI0LXNlcnZlcjCCASIwDQYJKoZIhvcN
AQEBBQADggEPADCCAQoCggEBAOUWG01YdYLwCFmNQkHDYC5scxz/9XnzfmSJqPGU
CbIQSOBMhufjY6HtauqcAsLXkW3mjkTyN9713HJJPNMpRTQIfogmDN01l9UZTssm
gBeGaR2B1QMPJH5izwlhKXn7G5LEA2CTGssFSn+7B70y2+hUGyiR115bRstGN9zs
1s7KCIDa/etZ4egCV9a2gAKMoU76xt/mARh1TxnGFvS/wEoCjrQtDLOucJJgD8iP
hjNJFOyKqUs7K7BJ4gWwzFTpGm5O65IY2dv4HW4sNtrEWcEi9c2SwRl84PCn29XA
1HOH9iXaWL3ncZMuC/WShI5i5U0f+Bbz1BjYGhhBpfP44bUCAwEAAaOBvTCBujAJ
BgNVHRMEAjAAMB0GA1UdDgQWBBSs4jBaFZkiivqM4hyvnpiDjPKljTBRBgNVHSME
SjBIgBR6PUvDogEdqb4t/esAuE/u8Y2xuKEapBgwFjEUMBIGA1UEAwwLdGVhbTUy
NC1uZXSCFFKWG95NkSN+7TN0G8wQBy2x5ogzMBMGA1UdJQQMMAoGCCsGAQUFBwMB
MAsGA1UdDwQEAwIFoDAZBgNVHREEEjAQgg50ZWFtNTI0LXNlcnZlcjANBgkqhkiG
9w0BAQsFAAOCAQEABa3CRcThDF+QARMfCgx8/NmxemyeFclNGHuOrfwYqWX5ic5b
6nyxBgYNMcxm/7DOsLKUIY6BoUjSp1jRvAV4oMBfM2xzpQKzLGjUsWOEwC5RcQwE
35/vNluiE0FByQYjTJ57QDFoOb2kiBaP3312+XggZvooQJ+NtKQib5LDwA/Nn9Om
AgiBEO5rfVmAzj9bxKXQ2BwZ3RRdSHGrymn8DGf5/aaou/gx84mrBjBNSFjS2B83
6DaeqriPmookqu+RmcouMUHamMBpjdikFFLdxhJziDM134RyaNnSDsiCgiUdNZrI
9zhxyJn9oaf9lJosBO3K8BDzA2Se/keu7QmsSg==
-----END CERTIFICATE-----
