Certificate:
    Data:
        Version: 3 (0x2)
        Serial Number:
            d5:97:e3:bb:f0:15:94:d0:49:fc:ef:c8:7d:fa:5d:ab
        Signature Algorithm: sha256WithRSAEncryption
        Issuer: CN=team207-net
        Validity
            Not Before: May 18 19:04:46 2022 GMT
            Not After : May  2 19:04:46 2025 GMT
        Subject: CN=team207-client
        Subject Public Key Info:
            Public Key Algorithm: rsaEncryption
                RSA Public-Key: (2048 bit)
                Modulus:
                    00:bf:f2:f2:b9:2a:31:72:86:ed:9f:be:ed:33:06:
                    ee:73:63:a6:12:07:2c:7c:e8:09:37:7b:e0:03:30:
                    73:ee:c5:77:8c:bb:32:9a:3f:21:e8:55:f7:bb:9f:
                    64:bf:90:bf:68:b2:aa:7e:ef:56:ce:fd:90:9c:21:
                    0e:f6:a1:6f:79:36:75:1a:4a:9c:79:59:f2:84:b1:
                    a7:6a:31:ae:b7:ae:84:f2:89:6b:63:35:00:9a:7f:
                    d0:b7:dd:51:9e:a6:7c:4f:14:88:3c:ba:f4:2f:ae:
                    47:23:c5:80:e5:97:2b:de:35:f9:c6:f8:ba:95:95:
                    5c:98:06:58:35:dd:6b:55:87:4c:ce:26:1e:76:c9:
                    76:1c:0d:65:f3:1e:10:7f:fe:d5:51:1e:f5:70:1b:
                    fc:3b:39:de:3b:c5:8f:c3:60:c1:f3:41:8b:9b:74:
                    96:6d:89:55:1b:86:4a:04:5b:9a:d5:1b:dc:19:0e:
                    8d:5f:29:87:73:fe:6a:ef:e0:17:96:f2:84:1d:03:
                    1e:0e:ce:10:1a:21:28:d6:05:cf:8c:f2:35:b1:11:
                    0b:ba:54:f6:95:4f:99:12:57:e9:12:12:e7:d9:d3:
                    14:4e:46:80:d6:41:32:d5:97:c7:ad:96:1d:a9:be:
                    c8:c8:39:11:8d:3d:e0:6e:94:e5:c9:e9:33:1c:66:
                    3a:39
                Exponent: 65537 (0x10001)
        X509v3 extensions:
            X509v3 Basic Constraints: 
                CA:FALSE
            X509v3 Subject Key Identifier: 
                FF:63:05:3D:E0:11:96:EA:40:DA:4C:7D:56:7B:A5:E9:BB:77:40:1F
            X509v3 Authority Key Identifier: 
                keyid:DE:9E:68:CA:D3:EE:1F:F4:A5:11:34:38:C4:8E:B8:0D:F8:6C:E9:5D
                DirName:/CN=team207-net
                serial:5B:F7:EF:A6:4A:21:80:80:AB:8F:C4:CE:F3:F5:AB:C0:96:B0:D4:30

            X509v3 Extended Key Usage: 
                TLS Web Client Authentication
            X509v3 Key Usage: 
                Digital Signature
    Signature Algorithm: sha256WithRSAEncryption
         e7:d9:c1:71:db:ef:9e:bb:5b:ab:f8:65:83:9f:ed:ad:b8:27:
         c2:78:ed:10:b6:d8:1d:4d:c2:24:08:b6:a9:64:f2:99:89:a4:
         a9:b4:34:08:6e:98:b5:c0:69:a9:5b:3f:b0:d8:43:87:9f:ab:
         a8:8a:58:36:28:83:4c:eb:18:04:89:5b:7e:3d:0f:b3:6a:14:
         a8:d5:30:3a:eb:2f:e4:5a:5b:72:b6:fd:f8:aa:21:9b:6f:e7:
         23:8e:32:19:9d:32:59:f2:88:64:83:d3:20:9f:38:1b:5a:a0:
         a0:d7:7b:54:a1:3c:e6:6d:b1:be:c3:ed:8b:a8:a4:fa:45:f1:
         60:18:45:b6:e8:41:d5:97:c8:01:7a:04:8c:b9:b0:00:16:36:
         66:55:5f:45:9f:a4:ed:51:c9:38:42:0b:14:fc:82:2b:59:e3:
         29:32:97:8c:d0:e9:20:7d:0c:5e:16:0e:e5:eb:c8:af:cb:cd:
         f9:23:33:aa:62:4a:c5:cc:90:5b:68:bb:e3:d5:6c:dc:8a:b4:
         92:51:f8:e8:55:f4:13:43:3b:49:7c:0c:50:d7:a1:e2:19:d8:
         78:a1:8c:0a:e5:3f:fa:60:c4:fd:6c:50:14:fc:e2:d5:4d:4d:
         85:b8:46:7c:5f:c9:ef:11:4b:c2:80:9f:fb:f2:e3:9c:72:74:
         69:33:aa:68
-----BEGIN CERTIFICATE-----
MIIDXTCCAkWgAwIBAgIRANWX47vwFZTQSfzvyH36XaswDQYJKoZIhvcNAQELBQAw
FjEUMBIGA1UEAwwLdGVhbTIwNy1uZXQwHhcNMjIwNTE4MTkwNDQ2WhcNMjUwNTAy
MTkwNDQ2WjAZMRcwFQYDVQQDDA50ZWFtMjA3LWNsaWVudDCCASIwDQYJKoZIhvcN
AQEBBQADggEPADCCAQoCggEBAL/y8rkqMXKG7Z++7TMG7nNjphIHLHzoCTd74AMw
c+7Fd4y7Mpo/IehV97ufZL+Qv2iyqn7vVs79kJwhDvahb3k2dRpKnHlZ8oSxp2ox
rreuhPKJa2M1AJp/0LfdUZ6mfE8UiDy69C+uRyPFgOWXK941+cb4upWVXJgGWDXd
a1WHTM4mHnbJdhwNZfMeEH/+1VEe9XAb/Ds53jvFj8NgwfNBi5t0lm2JVRuGSgRb
mtUb3BkOjV8ph3P+au/gF5byhB0DHg7OEBohKNYFz4zyNbERC7pU9pVPmRJX6RIS
59nTFE5GgNZBMtWXx62WHam+yMg5EY094G6U5cnpMxxmOjkCAwEAAaOBojCBnzAJ
BgNVHRMEAjAAMB0GA1UdDgQWBBT/YwU94BGW6kDaTH1We6Xpu3dAHzBRBgNVHSME
SjBIgBTenmjK0+4f9KURNDjEjrgN+GzpXaEapBgwFjEUMBIGA1UEAwwLdGVhbTIw
Ny1uZXSCFFv376ZKIYCAq4/EzvP1q8CWsNQwMBMGA1UdJQQMMAoGCCsGAQUFBwMC
MAsGA1UdDwQEAwIHgDANBgkqhkiG9w0BAQsFAAOCAQEA59nBcdvvnrtbq/hlg5/t
rbgnwnjtELbYHU3CJAi2qWTymYmkqbQ0CG6YtcBpqVs/sNhDh5+rqIpYNiiDTOsY
BIlbfj0Ps2oUqNUwOusv5Fpbcrb9+Kohm2/nI44yGZ0yWfKIZIPTIJ84G1qgoNd7
VKE85m2xvsPti6ik+kXxYBhFtuhB1ZfIAXoEjLmwABY2ZlVfRZ+k7VHJOEILFPyC
K1njKTKXjNDpIH0MXhYO5evIr8vN+SMzqmJKxcyQW2i749Vs3Iq0klH46FX0E0M7
SXwMUNeh4hnYeKGMCuU/+mDE/WxQFPzi1U1NhbhGfF/J7xFLwoCf+/LjnHJ0aTOq
aA==
-----END CERTIFICATE-----
