Certificate:
    Data:
        Version: 3 (0x2)
        Serial Number:
            97:3c:ab:38:67:c0:8e:b0:ff:c9:98:2f:8c:05:4c:ba
        Signature Algorithm: sha256WithRSAEncryption
        Issuer: CN=team484-net
        Validity
            Not Before: May 18 21:35:42 2022 GMT
            Not After : May  2 21:35:42 2025 GMT
        Subject: CN=team484-client
        Subject Public Key Info:
            Public Key Algorithm: rsaEncryption
                RSA Public-Key: (2048 bit)
                Modulus:
                    00:c0:bd:f7:a5:cc:90:33:0e:3f:aa:9d:1b:ea:f0:
                    d7:66:d3:92:e4:2c:a0:08:d3:0c:bd:00:e2:4b:5a:
                    dd:36:e2:f0:12:00:ca:81:db:be:cc:2d:a2:ac:df:
                    d0:dc:88:4f:c2:05:e7:86:d7:c5:43:c6:8e:e9:2d:
                    41:6e:ec:c7:8b:3c:1c:35:27:87:64:78:31:39:3e:
                    0a:c0:04:c9:da:58:39:59:d9:19:f0:02:86:0d:14:
                    18:c1:e2:b7:9a:93:01:6d:3b:4a:b0:54:c4:0c:e5:
                    c0:f0:b3:b5:02:74:7c:97:b6:0a:71:33:92:65:1e:
                    89:1b:d9:b6:53:af:cd:8b:6f:e6:ab:9d:1a:35:5b:
                    cb:aa:64:dd:40:42:63:ad:b1:01:16:6c:87:40:80:
                    b1:dd:9c:c5:54:79:85:ce:74:ed:41:28:97:81:15:
                    63:3d:e1:a1:c9:b6:5a:9b:fd:27:b1:5d:9a:50:14:
                    25:01:36:93:d2:33:e4:3e:55:8b:43:17:05:f0:5b:
                    7c:d5:6a:af:08:59:6b:c4:e1:60:0c:98:1b:84:5a:
                    21:3b:22:0f:59:24:2f:21:bc:c4:c2:34:ae:17:cf:
                    1a:c3:6b:f3:66:70:6b:ef:c5:2c:ab:bd:3d:40:06:
                    66:37:4f:f7:04:69:b4:db:24:ac:a8:4d:19:49:c8:
                    ff:5d
                Exponent: 65537 (0x10001)
        X509v3 extensions:
            X509v3 Basic Constraints: 
                CA:FALSE
            X509v3 Subject Key Identifier: 
                05:36:E9:D7:A6:33:2A:5F:12:C1:1E:BF:BD:8D:74:D8:8F:5C:05:E3
            X509v3 Authority Key Identifier: 
                keyid:35:6A:97:6B:8B:32:CE:3F:2A:36:AC:47:4F:2F:2A:6B:62:18:FF:D5
                DirName:/CN=team484-net
                serial:62:A0:72:F7:70:4C:72:96:2B:F0:FB:D1:34:C4:90:5A:87:5C:12:4E

            X509v3 Extended Key Usage: 
                TLS Web Client Authentication
            X509v3 Key Usage: 
                Digital Signature
    Signature Algorithm: sha256WithRSAEncryption
         6c:b9:10:e3:ed:77:ec:c5:94:f6:eb:a9:3b:34:66:17:30:00:
         68:01:aa:71:dc:51:d3:d7:8c:79:86:ed:ff:42:b9:19:2d:6a:
         ba:b3:40:be:2a:cf:93:0b:8a:6b:8b:80:f6:a8:79:ee:22:1f:
         01:a9:38:e7:b7:54:c0:92:1a:28:d1:3c:86:f6:0d:95:c7:ef:
         3c:99:31:a4:a4:92:86:97:8f:ae:d2:f1:b4:88:99:3b:2b:d4:
         39:7b:7b:48:64:c1:fa:43:f4:e4:3e:30:c9:31:aa:6f:e7:84:
         cb:65:25:c0:f9:94:6b:f9:87:b8:eb:f9:6e:4f:02:e0:33:a4:
         31:ff:b2:75:80:94:3f:70:89:7e:e3:90:e3:37:2e:77:13:1f:
         38:1d:89:54:48:4d:5c:f2:51:3f:5d:84:e1:c1:c0:6e:1c:47:
         1b:30:36:72:66:98:1a:ac:e3:bf:25:07:0d:c8:02:88:ab:69:
         c0:e2:fe:7a:46:e9:d9:92:16:69:34:fc:92:76:47:bc:0a:79:
         12:97:fa:04:30:e3:79:a8:e9:a3:da:45:ff:a4:c1:86:03:4f:
         c0:02:2f:69:96:7f:e4:b0:ee:3c:1d:bf:5b:14:ca:68:91:01:
         81:42:bd:cf:19:b8:34:d5:0c:51:46:08:01:28:82:c0:b8:a3:
         45:98:3f:4b
-----BEGIN CERTIFICATE-----
MIIDXTCCAkWgAwIBAgIRAJc8qzhnwI6w/8mYL4wFTLowDQYJKoZIhvcNAQELBQAw
FjEUMBIGA1UEAwwLdGVhbTQ4NC1uZXQwHhcNMjIwNTE4MjEzNTQyWhcNMjUwNTAy
MjEzNTQyWjAZMRcwFQYDVQQDDA50ZWFtNDg0LWNsaWVudDCCASIwDQYJKoZIhvcN
AQEBBQADggEPADCCAQoCggEBAMC996XMkDMOP6qdG+rw12bTkuQsoAjTDL0A4kta
3Tbi8BIAyoHbvswtoqzf0NyIT8IF54bXxUPGjuktQW7sx4s8HDUnh2R4MTk+CsAE
ydpYOVnZGfAChg0UGMHit5qTAW07SrBUxAzlwPCztQJ0fJe2CnEzkmUeiRvZtlOv
zYtv5qudGjVby6pk3UBCY62xARZsh0CAsd2cxVR5hc507UEol4EVYz3hocm2Wpv9
J7FdmlAUJQE2k9Iz5D5Vi0MXBfBbfNVqrwhZa8ThYAyYG4RaITsiD1kkLyG8xMI0
rhfPGsNr82Zwa+/FLKu9PUAGZjdP9wRptNskrKhNGUnI/10CAwEAAaOBojCBnzAJ
BgNVHRMEAjAAMB0GA1UdDgQWBBQFNunXpjMqXxLBHr+9jXTYj1wF4zBRBgNVHSME
SjBIgBQ1apdrizLOPyo2rEdPLyprYhj/1aEapBgwFjEUMBIGA1UEAwwLdGVhbTQ4
NC1uZXSCFGKgcvdwTHKWK/D70TTEkFqHXBJOMBMGA1UdJQQMMAoGCCsGAQUFBwMC
MAsGA1UdDwQEAwIHgDANBgkqhkiG9w0BAQsFAAOCAQEAbLkQ4+137MWU9uupOzRm
FzAAaAGqcdxR09eMeYbt/0K5GS1qurNAvirPkwuKa4uA9qh57iIfAak457dUwJIa
KNE8hvYNlcfvPJkxpKSShpePrtLxtIiZOyvUOXt7SGTB+kP05D4wyTGqb+eEy2Ul
wPmUa/mHuOv5bk8C4DOkMf+ydYCUP3CJfuOQ4zcudxMfOB2JVEhNXPJRP12E4cHA
bhxHGzA2cmaYGqzjvyUHDcgCiKtpwOL+ekbp2ZIWaTT8knZHvAp5Epf6BDDjeajp
o9pF/6TBhgNPwAIvaZZ/5LDuPB2/WxTKaJEBgUK9zxm4NNUMUUYIASiCwLijRZg/
Sw==
-----END CERTIFICATE-----
