Certificate:
    Data:
        Version: 3 (0x2)
        Serial Number:
            53:e4:37:91:8f:6a:cf:73:85:3e:ca:c7:30:0a:cf:da
        Signature Algorithm: sha256WithRSAEncryption
        Issuer: CN=team35-net
        Validity
            Not Before: May 18 14:13:30 2022 GMT
            Not After : May  2 14:13:30 2025 GMT
        Subject: CN=team35-client
        Subject Public Key Info:
            Public Key Algorithm: rsaEncryption
                RSA Public-Key: (2048 bit)
                Modulus:
                    00:c9:51:82:5f:51:ba:ff:da:c4:e0:06:ae:fe:0d:
                    02:61:ec:50:68:2c:57:02:0d:92:d1:82:69:e8:14:
                    0c:32:3d:29:49:ca:2a:7c:da:3f:89:e8:49:d0:b2:
                    a7:f7:a4:0b:dd:7e:e2:82:bc:19:f9:91:58:65:e1:
                    8c:ee:1b:33:5d:b4:4c:3c:6c:8b:88:45:66:d6:25:
                    f7:d0:31:e6:f5:18:bd:e6:15:fa:2e:71:d1:ad:48:
                    9f:5e:b3:b3:b4:5b:e9:8e:0f:97:02:ed:6a:07:b2:
                    89:8d:e7:63:bc:aa:97:f7:58:78:1f:1c:fd:b7:a7:
                    ec:36:e5:d6:7f:c1:fa:62:de:cb:b7:85:93:69:86:
                    b8:9d:c3:91:b7:a6:ca:a5:58:18:20:7d:45:2d:e0:
                    ad:f1:4d:03:ac:26:98:a2:c7:c8:43:73:9f:54:44:
                    45:a8:8c:18:ae:d4:89:ec:c5:a6:40:83:77:fd:6b:
                    80:16:d9:b0:f9:cb:1b:39:7f:fe:83:a7:64:e8:76:
                    85:13:71:1f:37:be:5f:92:b0:b7:5d:92:71:4f:5b:
                    90:bc:45:b3:72:4c:02:57:15:22:2b:54:88:1b:e7:
                    1e:94:38:e6:05:ad:12:c5:b2:18:11:37:00:a3:14:
                    42:99:92:6a:d4:d3:c2:4c:a3:ff:b4:4e:9c:91:c8:
                    11:ff
                Exponent: 65537 (0x10001)
        X509v3 extensions:
            X509v3 Basic Constraints: 
                CA:FALSE
            X509v3 Subject Key Identifier: 
                6B:D5:F5:33:85:A0:C3:9A:3A:42:67:A7:F2:F1:3D:F3:67:5A:01:3D
            X509v3 Authority Key Identifier: 
                keyid:5E:5A:33:49:64:A0:F7:7B:2E:85:5D:7E:32:94:AA:E3:F5:B5:3A:51
                DirName:/CN=team35-net
                serial:34:6D:4A:33:35:FD:A2:24:A3:5F:60:E6:C6:90:50:4A:F6:8D:53:AE

            X509v3 Extended Key Usage: 
                TLS Web Client Authentication
            X509v3 Key Usage: 
                Digital Signature
    Signature Algorithm: sha256WithRSAEncryption
         93:a8:c8:77:4c:18:48:d8:a3:76:f0:15:69:be:ce:5a:aa:fa:
         f4:07:eb:75:ad:51:a0:d0:88:02:14:62:d2:a6:c5:b5:df:df:
         a7:8f:25:a6:f4:96:7a:96:d9:63:a8:ff:34:1d:63:be:83:ba:
         01:52:3e:b2:59:d7:d6:2c:4e:4b:28:09:78:b9:d8:13:c0:0b:
         f5:f1:88:fe:37:b3:90:e7:21:4c:75:97:c7:20:61:55:4c:bd:
         eb:fe:9a:ec:82:a1:c3:ab:48:b6:ef:82:c7:c0:b0:53:52:70:
         72:ec:db:ae:b4:3c:86:17:90:cb:0c:c2:68:22:40:96:e9:96:
         dd:32:93:f1:6e:2e:8a:33:9a:6c:47:82:e1:48:ee:ef:4a:b1:
         b5:9a:c7:d6:88:65:9b:88:96:9c:26:21:81:23:42:25:14:a4:
         35:3e:c3:c7:af:7a:6e:9d:e3:05:93:59:d0:0d:52:17:3e:71:
         fb:d1:11:64:08:9a:88:da:35:28:6a:99:08:b8:44:d4:0f:89:
         66:e0:01:a0:14:36:ba:9b:c1:bc:2b:fc:ef:84:4d:e1:ee:50:
         89:a5:02:35:be:fe:f0:bc:7c:3a:21:ad:0e:7f:0b:b5:6f:f2:
         20:9a:c4:d2:a0:f4:2a:12:4c:a6:d5:8a:51:b5:18:fa:4b:44:
         39:9c:54:f3
-----BEGIN CERTIFICATE-----
MIIDWTCCAkGgAwIBAgIQU+Q3kY9qz3OFPsrHMArP2jANBgkqhkiG9w0BAQsFADAV
MRMwEQYDVQQDDAp0ZWFtMzUtbmV0MB4XDTIyMDUxODE0MTMzMFoXDTI1MDUwMjE0
MTMzMFowGDEWMBQGA1UEAwwNdGVhbTM1LWNsaWVudDCCASIwDQYJKoZIhvcNAQEB
BQADggEPADCCAQoCggEBAMlRgl9Ruv/axOAGrv4NAmHsUGgsVwINktGCaegUDDI9
KUnKKnzaP4noSdCyp/ekC91+4oK8GfmRWGXhjO4bM120TDxsi4hFZtYl99Ax5vUY
veYV+i5x0a1In16zs7Rb6Y4PlwLtageyiY3nY7yql/dYeB8c/ben7Dbl1n/B+mLe
y7eFk2mGuJ3DkbemyqVYGCB9RS3grfFNA6wmmKLHyENzn1RERaiMGK7UiezFpkCD
d/1rgBbZsPnLGzl//oOnZOh2hRNxHze+X5Kwt12ScU9bkLxFs3JMAlcVIitUiBvn
HpQ45gWtEsWyGBE3AKMUQpmSatTTwkyj/7ROnJHIEf8CAwEAAaOBoTCBnjAJBgNV
HRMEAjAAMB0GA1UdDgQWBBRr1fUzhaDDmjpCZ6fy8T3zZ1oBPTBQBgNVHSMESTBH
gBReWjNJZKD3ey6FXX4ylKrj9bU6UaEZpBcwFTETMBEGA1UEAwwKdGVhbTM1LW5l
dIIUNG1KMzX9oiSjX2DmxpBQSvaNU64wEwYDVR0lBAwwCgYIKwYBBQUHAwIwCwYD
VR0PBAQDAgeAMA0GCSqGSIb3DQEBCwUAA4IBAQCTqMh3TBhI2KN28BVpvs5aqvr0
B+t1rVGg0IgCFGLSpsW139+njyWm9JZ6ltljqP80HWO+g7oBUj6yWdfWLE5LKAl4
udgTwAv18Yj+N7OQ5yFMdZfHIGFVTL3r/prsgqHDq0i274LHwLBTUnBy7NuutDyG
F5DLDMJoIkCW6ZbdMpPxbi6KM5psR4LhSO7vSrG1msfWiGWbiJacJiGBI0IlFKQ1
PsPHr3puneMFk1nQDVIXPnH70RFkCJqI2jUoapkIuETUD4lm4AGgFDa6m8G8K/zv
hE3h7lCJpQI1vv7wvHw6Ia0Ofwu1b/IgmsTSoPQqEkym1YpRtRj6S0Q5nFTz
-----END CERTIFICATE-----
