Certificate:
    Data:
        Version: 3 (0x2)
        Serial Number:
            ae:00:d7:c4:05:4b:39:82:bd:08:92:03:60:aa:ea:17
        Signature Algorithm: sha256WithRSAEncryption
        Issuer: CN=team220-net
        Validity
            Not Before: May 18 19:11:25 2022 GMT
            Not After : May  2 19:11:25 2025 GMT
        Subject: CN=team220-client
        Subject Public Key Info:
            Public Key Algorithm: rsaEncryption
                RSA Public-Key: (2048 bit)
                Modulus:
                    00:ee:1c:6e:dd:12:5f:b6:eb:42:71:cc:13:d1:7a:
                    a3:0e:3c:f4:9a:e7:db:57:58:4e:a6:26:49:bf:58:
                    6e:7c:03:e0:70:6a:2a:15:bc:6f:2b:e9:0c:31:3f:
                    2d:61:e2:03:6a:86:3a:4d:91:ce:c3:f3:1b:07:49:
                    25:b0:09:8e:1d:60:ac:be:c0:71:9e:82:15:4c:75:
                    ac:35:f4:a5:c0:70:35:63:89:5d:ab:38:da:93:75:
                    7f:1d:38:72:e7:51:cf:71:27:0e:56:1d:07:b8:8e:
                    ec:f5:8c:27:da:29:21:56:e4:98:7b:e4:3b:e9:09:
                    bb:45:ea:29:17:7a:d9:63:91:d7:6b:2a:56:93:e0:
                    ea:72:c3:82:98:b2:56:0b:81:6d:5a:d1:d8:f2:c6:
                    78:28:66:9d:74:62:26:a2:c0:71:a3:04:df:d6:73:
                    13:1c:18:25:16:ee:3f:6a:f2:14:1b:c0:66:f7:13:
                    52:be:80:36:dd:d2:48:d9:11:26:70:3c:33:30:8c:
                    5d:6a:ba:37:9a:d1:6c:4d:27:f3:81:7d:e0:3d:3f:
                    c7:af:b4:f4:b8:6d:82:01:92:9c:46:39:8c:d4:7c:
                    00:77:63:7c:f1:e2:13:ec:f6:67:4f:5d:94:ac:8d:
                    88:8f:c1:4c:75:f2:36:84:89:58:62:83:f1:4c:1a:
                    97:ff
                Exponent: 65537 (0x10001)
        X509v3 extensions:
            X509v3 Basic Constraints: 
                CA:FALSE
            X509v3 Subject Key Identifier: 
                BF:8E:18:EF:2D:92:37:AD:9D:93:80:A3:4F:24:55:BC:03:F9:22:9E
            X509v3 Authority Key Identifier: 
                keyid:DE:21:33:C5:60:74:E2:AF:C8:01:4A:A5:26:1D:25:11:45:DD:FB:D1
                DirName:/CN=team220-net
                serial:1D:0E:C1:FB:EA:ED:FB:70:CA:7E:55:B0:8A:C8:85:43:F0:A6:9E:92

            X509v3 Extended Key Usage: 
                TLS Web Client Authentication
            X509v3 Key Usage: 
                Digital Signature
    Signature Algorithm: sha256WithRSAEncryption
         23:29:e3:d3:58:93:25:15:a2:66:a9:90:b6:9a:ef:75:91:14:
         87:c4:8b:20:0f:1e:e8:5c:82:b9:c8:c0:88:19:13:31:85:95:
         e1:ea:76:59:1d:01:59:bc:67:fe:f7:7b:0d:2a:1b:d8:a6:e0:
         f9:f7:5d:35:81:88:22:53:2a:15:7a:07:56:cb:af:ad:a3:7c:
         41:38:1a:e5:ab:49:0c:62:7d:7f:af:5f:30:57:f8:3d:9b:83:
         b6:99:9a:8d:f8:e7:f6:9e:26:7e:f4:19:53:c7:70:32:27:77:
         3d:88:3e:bc:74:a2:30:30:f4:ce:c5:40:84:b1:8d:bd:e0:b0:
         9b:e8:94:da:0c:16:f3:78:86:90:f9:47:39:3c:5b:e7:68:c6:
         c0:24:fd:9c:39:76:71:aa:cf:90:83:c3:40:94:9c:7c:37:12:
         cc:66:8f:78:31:18:76:fc:bf:53:bb:6d:bc:cb:09:8c:b0:8c:
         90:7a:b2:6b:85:b4:ef:08:b3:a3:27:07:bf:f4:5b:14:bb:2c:
         31:e1:3b:4b:2a:4a:f9:01:26:92:fc:91:4f:ba:81:c8:50:a6:
         1d:64:84:0a:62:c2:76:a3:12:ab:84:94:f1:76:2f:5f:d5:9a:
         bc:f4:cb:47:be:ee:30:a5:93:68:af:d0:06:a7:0b:96:27:85:
         6d:9a:6b:b3
-----BEGIN CERTIFICATE-----
MIIDXTCCAkWgAwIBAgIRAK4A18QFSzmCvQiSA2Cq6hcwDQYJKoZIhvcNAQELBQAw
FjEUMBIGA1UEAwwLdGVhbTIyMC1uZXQwHhcNMjIwNTE4MTkxMTI1WhcNMjUwNTAy
MTkxMTI1WjAZMRcwFQYDVQQDDA50ZWFtMjIwLWNsaWVudDCCASIwDQYJKoZIhvcN
AQEBBQADggEPADCCAQoCggEBAO4cbt0SX7brQnHME9F6ow489Jrn21dYTqYmSb9Y
bnwD4HBqKhW8byvpDDE/LWHiA2qGOk2RzsPzGwdJJbAJjh1grL7AcZ6CFUx1rDX0
pcBwNWOJXas42pN1fx04cudRz3EnDlYdB7iO7PWMJ9opIVbkmHvkO+kJu0XqKRd6
2WOR12sqVpPg6nLDgpiyVguBbVrR2PLGeChmnXRiJqLAcaME39ZzExwYJRbuP2ry
FBvAZvcTUr6ANt3SSNkRJnA8MzCMXWq6N5rRbE0n84F94D0/x6+09LhtggGSnEY5
jNR8AHdjfPHiE+z2Z09dlKyNiI/BTHXyNoSJWGKD8Uwal/8CAwEAAaOBojCBnzAJ
BgNVHRMEAjAAMB0GA1UdDgQWBBS/jhjvLZI3rZ2TgKNPJFW8A/kinjBRBgNVHSME
SjBIgBTeITPFYHTir8gBSqUmHSURRd370aEapBgwFjEUMBIGA1UEAwwLdGVhbTIy
MC1uZXSCFB0Owfvq7ftwyn5VsIrIhUPwpp6SMBMGA1UdJQQMMAoGCCsGAQUFBwMC
MAsGA1UdDwQEAwIHgDANBgkqhkiG9w0BAQsFAAOCAQEAIynj01iTJRWiZqmQtprv
dZEUh8SLIA8e6FyCucjAiBkTMYWV4ep2WR0BWbxn/vd7DSob2Kbg+fddNYGIIlMq
FXoHVsuvraN8QTga5atJDGJ9f69fMFf4PZuDtpmajfjn9p4mfvQZU8dwMid3PYg+
vHSiMDD0zsVAhLGNveCwm+iU2gwW83iGkPlHOTxb52jGwCT9nDl2carPkIPDQJSc
fDcSzGaPeDEYdvy/U7ttvMsJjLCMkHqya4W07wizoycHv/RbFLssMeE7SypK+QEm
kvyRT7qByFCmHWSECmLCdqMSq4SU8XYvX9WavPTLR77uMKWTaK/QBqcLlieFbZpr
sw==
-----END CERTIFICATE-----
