Certificate:
    Data:
        Version: 3 (0x2)
        Serial Number:
            c1:cf:ba:f9:aa:44:fb:4d:9d:57:e8:ec:ec:cd:10:65
        Signature Algorithm: sha256WithRSAEncryption
        Issuer: CN=team684-net
        Validity
            Not Before: May 18 23:23:04 2022 GMT
            Not After : May  2 23:23:04 2025 GMT
        Subject: CN=team684-client
        Subject Public Key Info:
            Public Key Algorithm: rsaEncryption
                RSA Public-Key: (2048 bit)
                Modulus:
                    00:dd:fc:63:00:9a:95:2b:1b:c1:00:70:5f:14:c4:
                    c0:08:2a:d7:4b:1d:24:8f:37:42:76:98:75:05:c5:
                    f3:f2:2c:37:4e:5f:f3:b9:05:4d:bd:b0:8a:84:2f:
                    bf:27:a5:b3:9c:09:b5:40:30:53:ce:f8:73:48:16:
                    23:10:8e:f7:d7:df:bb:ff:54:65:fd:17:be:3d:ef:
                    67:55:e3:d8:e1:48:6c:a7:3d:fd:c4:6e:26:85:8c:
                    b0:e8:7b:d6:6b:ec:e5:7c:c1:f0:49:9c:17:5f:6d:
                    29:ed:19:05:30:5a:19:3c:29:5b:c5:96:4a:0f:53:
                    9b:a6:b5:bf:a7:28:39:10:7d:24:d5:a3:6e:06:32:
                    3e:49:01:f8:67:6f:3f:df:42:5a:5d:ce:34:44:89:
                    9f:00:fa:5d:b7:c6:85:fc:42:a1:cd:c6:06:dd:56:
                    6f:99:61:a9:d8:13:45:30:48:69:86:e1:63:ba:ad:
                    b2:32:d5:45:88:c8:88:a4:db:c3:a9:2c:19:94:f9:
                    53:34:d8:45:52:c2:bf:06:97:a0:75:75:dd:2b:94:
                    4f:fc:a5:6b:e1:06:57:29:47:79:1b:29:89:da:42:
                    c0:ab:22:d6:a2:ed:6e:6f:4c:39:1b:59:09:0c:74:
                    7a:2a:66:a8:59:74:a0:c9:6a:7e:4e:1c:74:bb:31:
                    5c:5b
                Exponent: 65537 (0x10001)
        X509v3 extensions:
            X509v3 Basic Constraints: 
                CA:FALSE
            X509v3 Subject Key Identifier: 
                49:8A:59:C5:7D:36:90:5D:11:AA:78:9B:77:8D:27:89:89:E6:FA:D8
            X509v3 Authority Key Identifier: 
                keyid:19:B5:A6:A2:97:7C:AC:13:22:1C:2B:83:70:EF:0D:49:50:C3:C3:90
                DirName:/CN=team684-net
                serial:1A:55:0A:CF:1D:5E:6F:C4:AD:FA:9F:9D:0D:44:C4:25:DE:A3:02:A3

            X509v3 Extended Key Usage: 
                TLS Web Client Authentication
            X509v3 Key Usage: 
                Digital Signature
    Signature Algorithm: sha256WithRSAEncryption
         d8:17:9d:d0:7c:ea:57:69:8f:9c:44:29:bc:04:d2:88:00:c9:
         e1:dc:21:ba:2c:68:06:7a:2b:da:13:47:32:35:9c:c9:3b:ac:
         ca:47:0c:8b:73:56:c8:54:28:7f:52:f0:78:7f:4b:8d:c8:a1:
         9c:b0:08:09:88:8a:23:c0:59:a2:ee:cb:1b:d7:e5:e6:9f:0b:
         39:a0:ab:60:51:85:bf:14:eb:44:8f:d2:43:7c:49:a6:37:9e:
         ce:8b:15:32:b9:a5:5d:46:34:03:41:91:9b:7a:d1:4f:8d:2f:
         85:bc:7f:9b:a0:cc:b0:f8:9d:cf:3b:ad:ed:c4:01:92:b9:0f:
         c8:f8:d6:55:1e:9b:c0:13:75:e9:58:00:47:63:f2:0f:4d:30:
         ab:2d:03:05:a6:c2:3e:61:4f:06:2a:a2:4b:52:ad:fd:1b:58:
         e9:2a:f8:a0:22:a7:0e:79:21:f3:79:e2:f4:91:b7:96:ce:f8:
         8e:f1:47:32:49:70:5b:2c:bd:a0:ff:e5:2b:70:2d:9a:ee:af:
         8e:34:db:93:6d:c1:06:88:4d:20:d3:e3:36:a4:c1:9f:15:89:
         e2:77:23:21:e5:ef:67:f0:a4:a6:e9:4a:b7:55:bd:18:5d:e0:
         48:7e:a0:bd:a8:f8:9f:40:76:48:f4:9c:33:34:e6:40:58:f6:
         41:ef:4d:79
-----BEGIN CERTIFICATE-----
MIIDXTCCAkWgAwIBAgIRAMHPuvmqRPtNnVfo7OzNEGUwDQYJKoZIhvcNAQELBQAw
FjEUMBIGA1UEAwwLdGVhbTY4NC1uZXQwHhcNMjIwNTE4MjMyMzA0WhcNMjUwNTAy
MjMyMzA0WjAZMRcwFQYDVQQDDA50ZWFtNjg0LWNsaWVudDCCASIwDQYJKoZIhvcN
AQEBBQADggEPADCCAQoCggEBAN38YwCalSsbwQBwXxTEwAgq10sdJI83QnaYdQXF
8/IsN05f87kFTb2wioQvvyels5wJtUAwU874c0gWIxCO99ffu/9UZf0Xvj3vZ1Xj
2OFIbKc9/cRuJoWMsOh71mvs5XzB8EmcF19tKe0ZBTBaGTwpW8WWSg9Tm6a1v6co
ORB9JNWjbgYyPkkB+GdvP99CWl3ONESJnwD6XbfGhfxCoc3GBt1Wb5lhqdgTRTBI
aYbhY7qtsjLVRYjIiKTbw6ksGZT5UzTYRVLCvwaXoHV13SuUT/yla+EGVylHeRsp
idpCwKsi1qLtbm9MORtZCQx0eipmqFl0oMlqfk4cdLsxXFsCAwEAAaOBojCBnzAJ
BgNVHRMEAjAAMB0GA1UdDgQWBBRJilnFfTaQXRGqeJt3jSeJieb62DBRBgNVHSME
SjBIgBQZtaail3ysEyIcK4Nw7w1JUMPDkKEapBgwFjEUMBIGA1UEAwwLdGVhbTY4
NC1uZXSCFBpVCs8dXm/ErfqfnQ1ExCXeowKjMBMGA1UdJQQMMAoGCCsGAQUFBwMC
MAsGA1UdDwQEAwIHgDANBgkqhkiG9w0BAQsFAAOCAQEA2Bed0HzqV2mPnEQpvATS
iADJ4dwhuixoBnor2hNHMjWcyTusykcMi3NWyFQof1LweH9LjcihnLAICYiKI8BZ
ou7LG9fl5p8LOaCrYFGFvxTrRI/SQ3xJpjeezosVMrmlXUY0A0GRm3rRT40vhbx/
m6DMsPidzzut7cQBkrkPyPjWVR6bwBN16VgAR2PyD00wqy0DBabCPmFPBiqiS1Kt
/RtY6Sr4oCKnDnkh83ni9JG3ls74jvFHMklwWyy9oP/lK3Atmu6vjjTbk23BBohN
INPjNqTBnxWJ4ncjIeXvZ/CkpulKt1W9GF3gSH6gvaj4n0B2SPScMzTmQFj2Qe9N
eQ==
-----END CERTIFICATE-----
