Certificate:
    Data:
        Version: 3 (0x2)
        Serial Number:
            84:d2:6b:88:bf:1d:5f:3d:f7:93:2f:14:b3:91:69:f3
        Signature Algorithm: sha256WithRSAEncryption
        Issuer: CN=team398-net
        Validity
            Not Before: May 18 20:48:19 2022 GMT
            Not After : May  2 20:48:19 2025 GMT
        Subject: CN=team398-server
        Subject Public Key Info:
            Public Key Algorithm: rsaEncryption
                RSA Public-Key: (2048 bit)
                Modulus:
                    00:d0:ad:f2:b9:75:12:9b:1d:7f:36:77:94:32:c4:
                    c1:9f:bf:dd:4e:c5:a3:64:50:12:fb:3c:3b:be:67:
                    23:00:4d:1c:f5:4b:d1:bc:ee:f8:2f:b3:80:53:30:
                    01:13:1b:57:50:bc:26:09:c9:d6:24:2d:bd:fd:72:
                    3b:d5:bf:3a:fe:69:7b:10:97:23:11:0b:0c:2c:2b:
                    d2:24:4a:df:7a:60:fd:e2:ff:2d:8d:b6:ff:5b:af:
                    65:55:50:ab:58:99:0a:86:cf:58:2e:9c:3d:2f:be:
                    07:00:ee:10:40:08:ee:cb:36:2d:22:de:e3:f8:8d:
                    35:e9:52:66:e7:d9:44:5a:4a:d2:31:1b:3b:f4:e3:
                    de:4f:29:60:9c:1c:28:24:7a:e7:3c:77:53:09:54:
                    44:6a:41:2f:6b:cc:53:fd:a8:86:07:57:ea:71:ee:
                    2a:91:0d:86:32:3d:2d:c1:1a:78:dd:04:a9:da:70:
                    6f:58:76:19:ec:43:38:dc:c6:47:26:ab:45:c7:0e:
                    21:b3:df:d0:4b:31:9e:70:b5:b0:43:75:f4:bc:11:
                    37:53:ea:39:ff:ad:e6:10:78:46:c7:00:86:93:11:
                    4a:3b:fd:fc:3e:cc:b5:40:d9:13:45:02:80:bf:a5:
                    a5:58:3a:e3:90:d9:cf:a3:06:b8:84:1e:4f:c8:ad:
                    a3:e9
                Exponent: 65537 (0x10001)
        X509v3 extensions:
            X509v3 Basic Constraints: 
                CA:FALSE
            X509v3 Subject Key Identifier: 
                68:87:A8:66:E6:01:52:F6:2B:A9:93:CC:76:C1:A2:25:7F:5C:0D:93
            X509v3 Authority Key Identifier: 
                keyid:4D:EF:FD:D7:8E:1C:B9:28:D7:93:4A:F6:18:B0:E0:8A:47:FE:FB:1B
                DirName:/CN=team398-net
                serial:79:13:78:4D:C3:B3:07:7A:18:74:71:C6:39:76:89:F9:B6:14:53:C1

            X509v3 Extended Key Usage: 
                TLS Web Server Authentication
            X509v3 Key Usage: 
                Digital Signature, Key Encipherment
            X509v3 Subject Alternative Name: 
                DNS:team398-server
    Signature Algorithm: sha256WithRSAEncryption
         0d:a4:16:e7:cd:5d:0b:e4:ab:b5:96:e1:30:e6:19:10:85:b1:
         04:87:30:17:da:72:64:7b:64:22:59:8c:a4:3e:12:2a:ad:c5:
         03:93:09:90:00:03:cc:74:19:90:91:68:5c:bb:9d:ef:77:8a:
         f3:94:4d:37:3f:d7:b5:28:d9:65:7f:c7:88:d8:a5:5a:d4:19:
         7e:38:04:3d:fd:d8:6e:58:8a:c7:03:1a:38:df:c5:fd:15:36:
         59:4f:3f:8e:8a:14:19:56:17:62:00:2e:b0:ea:58:6b:1c:58:
         fc:e8:ad:27:93:41:89:23:4a:21:96:4a:6b:44:50:cf:3e:5e:
         34:9e:8e:a1:ed:36:d1:a8:1b:84:77:fa:af:59:09:af:81:b6:
         d6:83:f5:75:77:11:19:0e:52:eb:dd:cf:fd:f0:84:f6:dc:f5:
         f7:c1:2c:e1:aa:3b:2d:7b:5e:91:8b:99:93:6a:44:67:4f:6e:
         ca:b0:04:49:9d:49:0e:ce:d3:a9:63:5a:88:8c:a6:4b:7d:8c:
         af:4b:d9:b2:ab:41:4e:a1:4e:b4:75:89:47:55:79:53:69:1a:
         81:3d:ee:35:07:9c:b6:f2:11:56:4b:cb:f5:d3:6d:44:f4:7d:
         2f:95:40:df:57:1d:e8:30:3a:41:8d:e5:73:c2:60:fe:0a:e1:
         86:9d:77:1b
-----BEGIN CERTIFICATE-----
MIIDeDCCAmCgAwIBAgIRAITSa4i/HV8995MvFLORafMwDQYJKoZIhvcNAQELBQAw
FjEUMBIGA1UEAwwLdGVhbTM5OC1uZXQwHhcNMjIwNTE4MjA0ODE5WhcNMjUwNTAy
MjA0ODE5WjAZMRcwFQYDVQQDDA50ZWFtMzk4LXNlcnZlcjCCASIwDQYJKoZIhvcN
AQEBBQADggEPADCCAQoCggEBANCt8rl1EpsdfzZ3lDLEwZ+/3U7Fo2RQEvs8O75n
IwBNHPVL0bzu+C+zgFMwARMbV1C8JgnJ1iQtvf1yO9W/Ov5pexCXIxELDCwr0iRK
33pg/eL/LY22/1uvZVVQq1iZCobPWC6cPS++BwDuEEAI7ss2LSLe4/iNNelSZufZ
RFpK0jEbO/Tj3k8pYJwcKCR65zx3UwlURGpBL2vMU/2ohgdX6nHuKpENhjI9LcEa
eN0Eqdpwb1h2GexDONzGRyarRccOIbPf0EsxnnC1sEN19LwRN1PqOf+t5hB4RscA
hpMRSjv9/D7MtUDZE0UCgL+lpVg645DZz6MGuIQeT8ito+kCAwEAAaOBvTCBujAJ
BgNVHRMEAjAAMB0GA1UdDgQWBBRoh6hm5gFS9iupk8x2waIlf1wNkzBRBgNVHSME
SjBIgBRN7/3Xjhy5KNeTSvYYsOCKR/77G6EapBgwFjEUMBIGA1UEAwwLdGVhbTM5
OC1uZXSCFHkTeE3Dswd6GHRxxjl2ifm2FFPBMBMGA1UdJQQMMAoGCCsGAQUFBwMB
MAsGA1UdDwQEAwIFoDAZBgNVHREEEjAQgg50ZWFtMzk4LXNlcnZlcjANBgkqhkiG
9w0BAQsFAAOCAQEADaQW581dC+SrtZbhMOYZEIWxBIcwF9pyZHtkIlmMpD4SKq3F
A5MJkAADzHQZkJFoXLud73eK85RNNz/XtSjZZX/HiNilWtQZfjgEPf3YbliKxwMa
ON/F/RU2WU8/jooUGVYXYgAusOpYaxxY/OitJ5NBiSNKIZZKa0RQzz5eNJ6Ooe02
0agbhHf6r1kJr4G21oP1dXcRGQ5S693P/fCE9tz198Es4ao7LXtekYuZk2pEZ09u
yrAESZ1JDs7TqWNaiIymS32Mr0vZsqtBTqFOtHWJR1V5U2kagT3uNQectvIRVkvL
9dNtRPR9L5VA31cd6DA6QY3lc8Jg/grhhp13Gw==
-----END CERTIFICATE-----
