Certificate:
    Data:
        Version: 3 (0x2)
        Serial Number:
            c7:fd:3c:90:93:8d:3f:0e:96:3c:24:7b:8a:87:c9:89
        Signature Algorithm: sha256WithRSAEncryption
        Issuer: CN=team398-net
        Validity
            Not Before: May 18 20:48:19 2022 GMT
            Not After : May  2 20:48:19 2025 GMT
        Subject: CN=team398-client
        Subject Public Key Info:
            Public Key Algorithm: rsaEncryption
                RSA Public-Key: (2048 bit)
                Modulus:
                    00:c5:f4:a9:d0:b2:ae:74:a3:0d:6c:29:ab:6d:58:
                    fd:95:59:5e:ad:db:b1:c9:ee:5d:08:15:c7:60:74:
                    c3:02:e8:80:12:4a:1c:d3:1b:35:95:d1:b2:2f:26:
                    15:46:d9:d3:68:5f:b2:24:e4:48:65:50:f7:ae:c0:
                    1b:a6:6a:0d:09:05:bc:ab:4d:8a:f4:43:fa:f4:cd:
                    16:9c:4f:cf:6e:0d:16:d4:1a:cc:e9:1a:4c:0b:20:
                    22:63:95:32:07:74:38:9f:91:7d:70:ed:ed:eb:0f:
                    c6:72:b3:fe:34:d4:23:02:db:d3:fa:5a:1c:84:bf:
                    62:83:b7:3d:7d:81:22:2a:47:a2:ee:40:c9:75:a8:
                    e8:6b:37:38:ef:6a:77:a1:d8:ae:e9:bb:eb:40:a7:
                    7f:3f:86:ad:28:6c:50:d0:7b:82:c2:da:ee:0d:20:
                    6d:4b:75:0e:4b:c1:53:fb:47:43:03:f7:8a:fa:eb:
                    9c:f3:6d:1c:a4:68:b6:04:2f:f2:51:ea:01:75:87:
                    69:65:57:bf:60:d5:a2:b8:7f:bb:f0:9b:4e:ed:c3:
                    7f:13:89:86:ec:b5:af:96:4e:90:1b:1c:c3:0a:93:
                    d2:9b:8d:db:76:9d:eb:08:57:9c:16:fe:51:3c:29:
                    fb:b8:9c:83:27:36:74:8e:30:24:87:9f:33:5f:00:
                    73:97
                Exponent: 65537 (0x10001)
        X509v3 extensions:
            X509v3 Basic Constraints: 
                CA:FALSE
            X509v3 Subject Key Identifier: 
                1B:F4:6B:1D:47:54:69:88:2A:52:33:09:EB:93:54:0C:09:CB:20:5E
            X509v3 Authority Key Identifier: 
                keyid:4D:EF:FD:D7:8E:1C:B9:28:D7:93:4A:F6:18:B0:E0:8A:47:FE:FB:1B
                DirName:/CN=team398-net
                serial:79:13:78:4D:C3:B3:07:7A:18:74:71:C6:39:76:89:F9:B6:14:53:C1

            X509v3 Extended Key Usage: 
                TLS Web Client Authentication
            X509v3 Key Usage: 
                Digital Signature
    Signature Algorithm: sha256WithRSAEncryption
         b4:66:24:14:30:22:6b:cb:8b:58:fc:d5:21:31:77:dc:1a:5d:
         63:3f:d9:63:bf:0a:9e:50:d6:aa:4f:a8:25:ba:a7:4c:b0:6d:
         65:01:eb:d8:b2:18:dd:88:fc:89:f8:06:4e:63:8f:27:62:e6:
         e3:50:48:92:c8:93:18:3a:13:84:5d:a3:bf:22:e7:a6:31:f1:
         6a:6f:67:5e:4a:b6:0e:eb:a0:5c:21:fd:ff:c1:2a:72:a4:4c:
         d9:67:23:71:5b:66:8b:27:01:7e:f4:51:d4:68:63:4e:f2:72:
         5f:fe:8d:24:31:e7:30:b3:44:38:ed:f8:a4:01:8d:8c:7c:84:
         3b:28:92:84:41:39:4d:3e:a2:61:ce:87:ee:d7:de:26:a2:3e:
         e8:d6:07:ca:aa:6b:dd:28:14:a2:88:29:50:1b:4e:6e:3a:40:
         9a:01:55:49:b3:98:f2:26:d8:65:9c:7d:a4:ba:c0:6e:b7:29:
         d0:b9:44:6b:76:0f:a5:f8:d4:46:b9:41:d7:36:e2:cf:25:b4:
         70:47:17:17:d3:63:97:69:7d:7b:da:c4:9d:17:71:ac:9c:6d:
         69:fa:9c:4b:9b:c3:1a:7a:21:ca:04:8f:36:bc:97:61:ba:8e:
         f0:10:7e:b7:a7:60:41:57:21:ef:ab:12:3b:e9:14:a3:8d:65:
         6b:70:fb:ce
-----BEGIN CERTIFICATE-----
MIIDXTCCAkWgAwIBAgIRAMf9PJCTjT8Oljwke4qHyYkwDQYJKoZIhvcNAQELBQAw
FjEUMBIGA1UEAwwLdGVhbTM5OC1uZXQwHhcNMjIwNTE4MjA0ODE5WhcNMjUwNTAy
MjA0ODE5WjAZMRcwFQYDVQQDDA50ZWFtMzk4LWNsaWVudDCCASIwDQYJKoZIhvcN
AQEBBQADggEPADCCAQoCggEBAMX0qdCyrnSjDWwpq21Y/ZVZXq3bscnuXQgVx2B0
wwLogBJKHNMbNZXRsi8mFUbZ02hfsiTkSGVQ967AG6ZqDQkFvKtNivRD+vTNFpxP
z24NFtQazOkaTAsgImOVMgd0OJ+RfXDt7esPxnKz/jTUIwLb0/paHIS/YoO3PX2B
IipHou5AyXWo6Gs3OO9qd6HYrum760Cnfz+GrShsUNB7gsLa7g0gbUt1DkvBU/tH
QwP3ivrrnPNtHKRotgQv8lHqAXWHaWVXv2DVorh/u/CbTu3DfxOJhuy1r5ZOkBsc
wwqT0puN23ad6whXnBb+UTwp+7icgyc2dI4wJIefM18Ac5cCAwEAAaOBojCBnzAJ
BgNVHRMEAjAAMB0GA1UdDgQWBBQb9GsdR1RpiCpSMwnrk1QMCcsgXjBRBgNVHSME
SjBIgBRN7/3Xjhy5KNeTSvYYsOCKR/77G6EapBgwFjEUMBIGA1UEAwwLdGVhbTM5
OC1uZXSCFHkTeE3Dswd6GHRxxjl2ifm2FFPBMBMGA1UdJQQMMAoGCCsGAQUFBwMC
MAsGA1UdDwQEAwIHgDANBgkqhkiG9w0BAQsFAAOCAQEAtGYkFDAia8uLWPzVITF3
3BpdYz/ZY78KnlDWqk+oJbqnTLBtZQHr2LIY3Yj8ifgGTmOPJ2Lm41BIksiTGDoT
hF2jvyLnpjHxam9nXkq2DuugXCH9/8EqcqRM2WcjcVtmiycBfvRR1GhjTvJyX/6N
JDHnMLNEOO34pAGNjHyEOyiShEE5TT6iYc6H7tfeJqI+6NYHyqpr3SgUoogpUBtO
bjpAmgFVSbOY8ibYZZx9pLrAbrcp0LlEa3YPpfjURrlB1zbizyW0cEcXF9Njl2l9
e9rEnRdxrJxtafqcS5vDGnohygSPNryXYbqO8BB+t6dgQVch76sSO+kUo41la3D7
zg==
-----END CERTIFICATE-----
