Certificate:
    Data:
        Version: 3 (0x2)
        Serial Number:
            5b:44:38:5d:d7:f0:68:66:72:a6:d4:69:24:11:9d:4a
        Signature Algorithm: sha256WithRSAEncryption
        Issuer: CN=team500-net
        Validity
            Not Before: May 18 21:44:51 2022 GMT
            Not After : May  2 21:44:51 2025 GMT
        Subject: CN=team500-server
        Subject Public Key Info:
            Public Key Algorithm: rsaEncryption
                RSA Public-Key: (2048 bit)
                Modulus:
                    00:b9:95:8e:1b:67:ad:43:5b:e9:97:66:96:b3:c4:
                    3f:37:c0:0f:b7:70:9b:2a:02:83:26:0c:52:25:4a:
                    08:6b:7a:79:cc:5b:17:3d:e8:a4:04:9d:92:9d:7a:
                    97:c1:a0:ba:a1:f9:e5:57:9a:03:8b:b3:22:78:10:
                    9f:e0:8b:98:e8:21:57:34:70:f9:d3:5d:03:ac:b4:
                    3c:58:bc:be:e6:2f:57:cb:e6:a5:da:37:e5:b9:b5:
                    05:20:9c:92:a9:d3:79:be:d0:59:88:20:fa:65:79:
                    23:b1:e1:97:5e:40:ba:71:5f:1a:a6:3f:0c:8f:4a:
                    cb:57:40:fb:80:00:9b:92:03:5d:e2:e0:3c:1e:2d:
                    4b:5d:d7:7a:dd:ab:82:e2:40:65:47:15:93:32:fe:
                    50:8e:e7:f2:64:cf:cd:e7:f8:3b:40:38:d9:dc:69:
                    7d:6d:62:1f:65:8d:ba:e7:9f:d6:01:f9:51:fa:54:
                    e4:5f:d5:a3:dc:3b:da:c4:9c:e0:da:28:e5:30:7d:
                    58:64:d8:11:4d:77:c8:ca:73:3a:ea:8d:7d:91:80:
                    05:cc:0d:86:6c:d1:94:cc:91:c2:d2:7f:f8:5b:d7:
                    f8:cb:71:30:4f:27:47:46:08:9b:72:51:98:ed:96:
                    46:76:f6:3f:6b:be:71:e3:fc:d1:54:95:8e:ca:22:
                    52:27
                Exponent: 65537 (0x10001)
        X509v3 extensions:
            X509v3 Basic Constraints: 
                CA:FALSE
            X509v3 Subject Key Identifier: 
                37:16:DE:F0:32:05:31:D6:F1:11:FE:59:2E:F5:B6:C6:58:8D:D7:40
            X509v3 Authority Key Identifier: 
                keyid:47:27:D1:E3:CB:45:B2:D1:CD:91:BF:A7:FD:9A:34:30:67:9B:96:46
                DirName:/CN=team500-net
                serial:0A:B9:40:EB:98:55:F2:BF:E6:9B:2D:6B:79:62:3A:39:EE:0F:AF:70

            X509v3 Extended Key Usage: 
                TLS Web Server Authentication
            X509v3 Key Usage: 
                Digital Signature, Key Encipherment
            X509v3 Subject Alternative Name: 
                DNS:team500-server
    Signature Algorithm: sha256WithRSAEncryption
         a6:34:01:57:78:74:50:be:76:f0:30:9b:8d:f7:4d:bd:89:f9:
         cd:06:99:14:49:e8:f0:d1:de:45:79:8a:cc:9b:67:fc:e5:a7:
         7c:c7:32:02:1b:55:fc:fd:44:b6:af:6f:d2:05:49:8c:2b:b3:
         73:c6:87:79:da:dc:e4:7f:5f:d8:6b:cb:06:7a:41:eb:99:e5:
         f0:d6:8f:d7:88:ce:44:59:ee:df:ee:02:02:20:fa:60:e1:ff:
         f9:97:ea:5d:61:05:3c:87:a1:de:10:6d:45:a6:eb:cf:eb:77:
         21:07:64:88:dd:89:f7:75:c6:67:fe:29:de:09:dd:ce:db:c0:
         df:c7:f4:b2:bb:e6:56:75:07:71:a0:28:77:4f:7c:cc:c0:ea:
         5b:5c:2d:f0:e2:f8:9b:de:a6:e6:85:85:f1:eb:0e:bb:dc:5f:
         e9:a2:b3:25:1f:f4:48:68:b5:2f:22:c7:0a:98:6b:a3:fc:ce:
         59:27:07:ec:7a:2c:62:27:9e:c7:7a:96:c5:47:03:1c:46:e0:
         8d:84:f3:5f:f0:9a:4f:e9:f7:cb:2e:6c:c3:e4:e5:87:87:5b:
         bd:1a:79:d0:8c:11:66:e5:5b:a2:a9:9a:ae:c2:66:07:2d:70:
         cf:d6:1c:a4:09:d3:74:df:04:2d:16:ed:4b:02:98:f4:ad:0d:
         3b:88:20:28
-----BEGIN CERTIFICATE-----
MIIDdzCCAl+gAwIBAgIQW0Q4XdfwaGZyptRpJBGdSjANBgkqhkiG9w0BAQsFADAW
MRQwEgYDVQQDDAt0ZWFtNTAwLW5ldDAeFw0yMjA1MTgyMTQ0NTFaFw0yNTA1MDIy
MTQ0NTFaMBkxFzAVBgNVBAMMDnRlYW01MDAtc2VydmVyMIIBIjANBgkqhkiG9w0B
AQEFAAOCAQ8AMIIBCgKCAQEAuZWOG2etQ1vpl2aWs8Q/N8APt3CbKgKDJgxSJUoI
a3p5zFsXPeikBJ2SnXqXwaC6ofnlV5oDi7MieBCf4IuY6CFXNHD5010DrLQ8WLy+
5i9Xy+al2jflubUFIJySqdN5vtBZiCD6ZXkjseGXXkC6cV8apj8Mj0rLV0D7gACb
kgNd4uA8Hi1LXdd63auC4kBlRxWTMv5QjufyZM/N5/g7QDjZ3Gl9bWIfZY2655/W
AflR+lTkX9Wj3DvaxJzg2ijlMH1YZNgRTXfIynM66o19kYAFzA2GbNGUzJHC0n/4
W9f4y3EwTydHRgibclGY7ZZGdvY/a75x4/zRVJWOyiJSJwIDAQABo4G9MIG6MAkG
A1UdEwQCMAAwHQYDVR0OBBYEFDcW3vAyBTHW8RH+WS71tsZYjddAMFEGA1UdIwRK
MEiAFEcn0ePLRbLRzZG/p/2aNDBnm5ZGoRqkGDAWMRQwEgYDVQQDDAt0ZWFtNTAw
LW5ldIIUCrlA65hV8r/mmy1reWI6Oe4Pr3AwEwYDVR0lBAwwCgYIKwYBBQUHAwEw
CwYDVR0PBAQDAgWgMBkGA1UdEQQSMBCCDnRlYW01MDAtc2VydmVyMA0GCSqGSIb3
DQEBCwUAA4IBAQCmNAFXeHRQvnbwMJuN9029ifnNBpkUSejw0d5FeYrMm2f85ad8
xzICG1X8/US2r2/SBUmMK7Nzxod52tzkf1/Ya8sGekHrmeXw1o/XiM5EWe7f7gIC
IPpg4f/5l+pdYQU8h6HeEG1FpuvP63chB2SI3Yn3dcZn/ineCd3O28Dfx/Syu+ZW
dQdxoCh3T3zMwOpbXC3w4vib3qbmhYXx6w673F/porMlH/RIaLUvIscKmGuj/M5Z
JwfseixiJ57HepbFRwMcRuCNhPNf8JpP6ffLLmzD5OWHh1u9GnnQjBFm5VuiqZqu
wmYHLXDP1hykCdN03wQtFu1LApj0rQ07iCAo
-----END CERTIFICATE-----
