Certificate:
    Data:
        Version: 3 (0x2)
        Serial Number:
            37:db:70:64:d7:fb:cb:03:cd:44:12:76:2e:ca:02:80
        Signature Algorithm: sha256WithRSAEncryption
        Issuer: CN=team719-net
        Validity
            Not Before: May 18 23:43:00 2022 GMT
            Not After : May  2 23:43:00 2025 GMT
        Subject: CN=team719-server
        Subject Public Key Info:
            Public Key Algorithm: rsaEncryption
                RSA Public-Key: (2048 bit)
                Modulus:
                    00:eb:37:c1:82:38:0c:6d:4c:1b:7f:47:2c:f1:3c:
                    a4:be:1c:d8:d4:07:79:cc:b6:de:f3:1f:a8:6c:73:
                    c4:52:58:92:7c:7f:38:52:4e:c1:13:90:24:93:61:
                    f4:b0:83:d8:5a:34:f0:fd:f4:a5:46:44:78:60:42:
                    80:ba:2d:9c:1d:7f:2f:8d:8b:fc:ef:ab:e5:a5:1c:
                    46:d6:aa:e4:a8:6f:81:a2:28:2b:a6:99:9a:87:2f:
                    d7:b6:5c:ce:f3:78:6e:40:00:ae:37:84:36:2a:6d:
                    8e:9a:d5:a8:16:3f:84:d4:9c:94:ed:34:c2:71:8a:
                    f2:ce:66:af:74:47:57:fb:f2:c8:39:d3:e0:8c:c0:
                    56:3c:c9:4a:40:62:12:95:ad:38:c9:10:55:d6:26:
                    61:6b:88:19:9a:bb:12:9b:20:f3:dc:a0:bc:01:c6:
                    43:39:c6:b4:93:81:3e:fa:a6:02:46:a1:75:55:87:
                    6f:ea:49:56:4d:a5:5e:73:9e:9e:3a:59:3b:82:ae:
                    c4:73:99:ec:66:fa:f2:c4:69:54:9b:ae:2a:1b:8f:
                    8e:73:a6:cb:fd:26:89:f3:68:d0:af:88:14:66:7b:
                    15:95:6d:02:8a:c8:36:91:5e:e4:8f:9b:9a:62:81:
                    df:a9:67:cf:56:e2:bd:49:1f:ad:e3:a3:29:84:f1:
                    e7:bf
                Exponent: 65537 (0x10001)
        X509v3 extensions:
            X509v3 Basic Constraints: 
                CA:FALSE
            X509v3 Subject Key Identifier: 
                16:DA:41:38:EB:B6:45:35:2F:C1:6A:F2:D2:3B:61:97:D2:52:FA:D0
            X509v3 Authority Key Identifier: 
                keyid:A4:39:75:ED:3F:8F:CA:AF:76:B9:BC:DA:62:C2:61:8E:0A:2B:D8:3D
                DirName:/CN=team719-net
                serial:5C:22:03:9B:88:4E:0A:B6:63:00:E4:6E:C1:D0:89:29:AF:0F:9B:EA

            X509v3 Extended Key Usage: 
                TLS Web Server Authentication
            X509v3 Key Usage: 
                Digital Signature, Key Encipherment
            X509v3 Subject Alternative Name: 
                DNS:team719-server
    Signature Algorithm: sha256WithRSAEncryption
         b3:d2:35:7e:e9:d7:a2:c2:5c:cb:b8:b3:b0:c8:b7:30:ad:6d:
         4e:7d:d1:f3:b9:33:b3:63:f5:da:7c:0a:5a:b6:bd:8e:bd:d5:
         23:94:71:2f:5b:a6:54:3a:06:04:f6:5b:5e:8c:41:35:02:7f:
         f2:5e:34:20:59:cd:6c:f8:92:3a:af:15:ec:9d:3d:4b:f8:4d:
         ad:cc:a6:ec:25:a1:bb:33:77:a8:fd:ff:1c:e4:fc:2c:e9:af:
         47:2b:5f:a8:dc:71:c0:88:97:e6:83:7d:cc:c9:88:33:65:a4:
         bd:c4:ad:31:4c:01:e0:11:e9:22:01:4e:7e:1f:c0:41:0a:33:
         33:6a:f9:f9:04:51:84:62:fb:7c:6d:91:8b:f8:37:54:1f:bd:
         66:27:13:6c:a1:29:c8:45:77:a4:60:06:72:7c:b3:d6:5a:3c:
         ec:21:00:b9:c7:f0:87:f9:16:f2:2f:f0:bf:00:7a:17:c4:a5:
         86:0a:36:7e:bc:97:59:e6:0a:05:54:0c:d9:46:f8:41:99:6d:
         74:72:d3:24:0c:84:f7:9d:c8:ae:21:08:8e:06:fe:50:be:ce:
         7f:73:9a:45:85:7d:01:46:73:54:70:82:b9:9d:af:b7:a2:12:
         57:2c:53:b7:cf:d2:fe:18:4d:4f:fb:dc:e6:7b:a8:79:2e:aa:
         58:dd:76:bc
-----BEGIN CERTIFICATE-----
MIIDdzCCAl+gAwIBAgIQN9twZNf7ywPNRBJ2LsoCgDANBgkqhkiG9w0BAQsFADAW
MRQwEgYDVQQDDAt0ZWFtNzE5LW5ldDAeFw0yMjA1MTgyMzQzMDBaFw0yNTA1MDIy
MzQzMDBaMBkxFzAVBgNVBAMMDnRlYW03MTktc2VydmVyMIIBIjANBgkqhkiG9w0B
AQEFAAOCAQ8AMIIBCgKCAQEA6zfBgjgMbUwbf0cs8TykvhzY1Ad5zLbe8x+obHPE
UliSfH84Uk7BE5Akk2H0sIPYWjTw/fSlRkR4YEKAui2cHX8vjYv876vlpRxG1qrk
qG+Boigrppmahy/XtlzO83huQACuN4Q2Km2OmtWoFj+E1JyU7TTCcYryzmavdEdX
+/LIOdPgjMBWPMlKQGISla04yRBV1iZha4gZmrsSmyDz3KC8AcZDOca0k4E++qYC
RqF1VYdv6klWTaVec56eOlk7gq7Ec5nsZvryxGlUm64qG4+Oc6bL/SaJ82jQr4gU
ZnsVlW0Cisg2kV7kj5uaYoHfqWfPVuK9SR+t46MphPHnvwIDAQABo4G9MIG6MAkG
A1UdEwQCMAAwHQYDVR0OBBYEFBbaQTjrtkU1L8Fq8tI7YZfSUvrQMFEGA1UdIwRK
MEiAFKQ5de0/j8qvdrm82mLCYY4KK9g9oRqkGDAWMRQwEgYDVQQDDAt0ZWFtNzE5
LW5ldIIUXCIDm4hOCrZjAORuwdCJKa8Pm+owEwYDVR0lBAwwCgYIKwYBBQUHAwEw
CwYDVR0PBAQDAgWgMBkGA1UdEQQSMBCCDnRlYW03MTktc2VydmVyMA0GCSqGSIb3
DQEBCwUAA4IBAQCz0jV+6deiwlzLuLOwyLcwrW1OfdHzuTOzY/XafApatr2OvdUj
lHEvW6ZUOgYE9ltejEE1An/yXjQgWc1s+JI6rxXsnT1L+E2tzKbsJaG7M3eo/f8c
5Pws6a9HK1+o3HHAiJfmg33MyYgzZaS9xK0xTAHgEekiAU5+H8BBCjMzavn5BFGE
Yvt8bZGL+DdUH71mJxNsoSnIRXekYAZyfLPWWjzsIQC5x/CH+RbyL/C/AHoXxKWG
CjZ+vJdZ5goFVAzZRvhBmW10ctMkDIT3nciuIQiOBv5Qvs5/c5pFhX0BRnNUcIK5
na+3ohJXLFO3z9L+GE1P+9zme6h5LqpY3Xa8
-----END CERTIFICATE-----
