Certificate:
    Data:
        Version: 3 (0x2)
        Serial Number:
            7b:01:b8:89:48:d8:af:ea:47:21:ec:94:76:9a:a0:be
        Signature Algorithm: sha256WithRSAEncryption
        Issuer: CN=team719-net
        Validity
            Not Before: May 18 23:43:00 2022 GMT
            Not After : May  2 23:43:00 2025 GMT
        Subject: CN=team719-client
        Subject Public Key Info:
            Public Key Algorithm: rsaEncryption
                RSA Public-Key: (2048 bit)
                Modulus:
                    00:c5:3c:43:4e:b7:49:0e:b5:6b:f5:6d:bd:81:13:
                    92:4a:c8:98:ca:22:33:29:10:e2:cb:f9:e3:d8:b7:
                    c7:20:dd:93:14:4b:ff:cc:9c:70:e3:22:81:8e:15:
                    55:c1:02:37:6e:a3:32:1b:08:05:76:33:2f:41:a2:
                    5f:9c:6f:1b:c9:77:df:13:61:99:44:9c:e9:56:c2:
                    c3:6e:98:37:ab:1f:ac:e7:44:9e:ab:67:ab:43:3d:
                    98:50:cd:ce:2e:78:ec:ca:c9:c2:cb:ef:eb:e1:02:
                    b8:f5:fe:2a:f3:7d:b2:3f:2c:d1:de:63:f8:dc:06:
                    aa:4e:db:91:6b:e5:c2:d9:b1:65:47:44:0e:1c:1d:
                    c5:ee:e1:d0:78:4c:c5:40:77:a5:7c:11:58:16:8f:
                    f0:e4:35:a0:74:e9:e4:c3:9f:23:18:86:70:09:fa:
                    10:86:64:51:4f:50:c1:9b:7c:bb:b4:4e:3a:02:91:
                    77:e4:d2:30:e6:5e:66:9f:e9:12:36:71:9a:73:5b:
                    be:40:21:f8:99:99:11:3e:c4:10:30:2e:4c:8e:07:
                    9a:00:d6:05:f9:04:1c:9f:50:a9:57:a6:f4:15:2d:
                    ab:ed:d1:89:bc:f9:03:51:ba:0b:ce:c6:3e:ac:2a:
                    07:d0:97:6d:4f:6e:1a:55:96:2d:7f:66:17:ce:b6:
                    05:0b
                Exponent: 65537 (0x10001)
        X509v3 extensions:
            X509v3 Basic Constraints: 
                CA:FALSE
            X509v3 Subject Key Identifier: 
                A8:B3:BA:E1:C1:71:0B:CA:06:AA:23:D8:60:58:F6:9A:6A:80:30:AE
            X509v3 Authority Key Identifier: 
                keyid:A4:39:75:ED:3F:8F:CA:AF:76:B9:BC:DA:62:C2:61:8E:0A:2B:D8:3D
                DirName:/CN=team719-net
                serial:5C:22:03:9B:88:4E:0A:B6:63:00:E4:6E:C1:D0:89:29:AF:0F:9B:EA

            X509v3 Extended Key Usage: 
                TLS Web Client Authentication
            X509v3 Key Usage: 
                Digital Signature
    Signature Algorithm: sha256WithRSAEncryption
         0b:f4:a8:2e:46:5f:ce:23:fe:e8:7a:a1:9b:0a:b9:40:c0:8b:
         04:71:ee:e9:aa:e5:83:20:db:88:58:1c:b3:76:a6:a8:11:5d:
         e1:a7:28:ce:ad:33:66:43:ba:7e:12:c4:f8:1a:22:70:b3:ac:
         d1:0a:8e:94:8b:49:11:7a:dd:d3:11:09:a3:34:f6:a1:20:48:
         25:6f:b7:76:a3:29:70:1f:d2:4c:03:a9:e8:41:e1:56:d3:54:
         5d:14:07:dd:cf:92:a0:00:9f:72:cd:a7:74:36:45:bb:f3:c4:
         79:ef:de:ab:0b:38:06:91:06:1d:50:d7:a1:f8:1c:50:70:ef:
         13:6b:8c:e5:c8:0a:df:9b:6d:bd:4a:d4:ff:a6:7b:32:b3:ed:
         6d:6e:0b:f2:b6:34:42:78:35:c8:9a:11:7e:b1:14:35:8f:a4:
         99:31:6f:23:62:d0:34:30:8f:d2:e3:c9:a9:74:ca:2d:6b:78:
         54:94:c4:f0:6d:8d:b0:d5:16:b5:da:01:1a:f9:54:b4:72:38:
         30:7e:29:07:c3:a1:8b:52:06:af:e5:a4:4f:fc:af:83:79:0e:
         ab:73:38:0d:cc:e3:80:b9:17:53:02:e0:1f:c0:85:05:48:54:
         04:f6:36:9f:bc:71:f8:c5:77:5a:15:8f:32:12:9c:85:5f:65:
         1d:2e:e1:83
-----BEGIN CERTIFICATE-----
MIIDXDCCAkSgAwIBAgIQewG4iUjYr+pHIeyUdpqgvjANBgkqhkiG9w0BAQsFADAW
MRQwEgYDVQQDDAt0ZWFtNzE5LW5ldDAeFw0yMjA1MTgyMzQzMDBaFw0yNTA1MDIy
MzQzMDBaMBkxFzAVBgNVBAMMDnRlYW03MTktY2xpZW50MIIBIjANBgkqhkiG9w0B
AQEFAAOCAQ8AMIIBCgKCAQEAxTxDTrdJDrVr9W29gROSSsiYyiIzKRDiy/nj2LfH
IN2TFEv/zJxw4yKBjhVVwQI3bqMyGwgFdjMvQaJfnG8byXffE2GZRJzpVsLDbpg3
qx+s50Seq2erQz2YUM3OLnjsysnCy+/r4QK49f4q832yPyzR3mP43AaqTtuRa+XC
2bFlR0QOHB3F7uHQeEzFQHelfBFYFo/w5DWgdOnkw58jGIZwCfoQhmRRT1DBm3y7
tE46ApF35NIw5l5mn+kSNnGac1u+QCH4mZkRPsQQMC5MjgeaANYF+QQcn1CpV6b0
FS2r7dGJvPkDUboLzsY+rCoH0JdtT24aVZYtf2YXzrYFCwIDAQABo4GiMIGfMAkG
A1UdEwQCMAAwHQYDVR0OBBYEFKizuuHBcQvKBqoj2GBY9ppqgDCuMFEGA1UdIwRK
MEiAFKQ5de0/j8qvdrm82mLCYY4KK9g9oRqkGDAWMRQwEgYDVQQDDAt0ZWFtNzE5
LW5ldIIUXCIDm4hOCrZjAORuwdCJKa8Pm+owEwYDVR0lBAwwCgYIKwYBBQUHAwIw
CwYDVR0PBAQDAgeAMA0GCSqGSIb3DQEBCwUAA4IBAQAL9KguRl/OI/7oeqGbCrlA
wIsEce7pquWDINuIWByzdqaoEV3hpyjOrTNmQ7p+EsT4GiJws6zRCo6Ui0kRet3T
EQmjNPahIEglb7d2oylwH9JMA6noQeFW01RdFAfdz5KgAJ9yzad0NkW788R5796r
CzgGkQYdUNeh+BxQcO8Ta4zlyArfm229StT/pnsys+1tbgvytjRCeDXImhF+sRQ1
j6SZMW8jYtA0MI/S48mpdMota3hUlMTwbY2w1Ra12gEa+VS0cjgwfikHw6GLUgav
5aRP/K+DeQ6rczgNzOOAuRdTAuAfwIUFSFQE9jafvHH4xXdaFY8yEpyFX2UdLuGD
-----END CERTIFICATE-----
