Certificate:
    Data:
        Version: 3 (0x2)
        Serial Number:
            f8:5a:29:2d:9f:e3:26:64:92:77:05:5e:a5:5f:3d:a4
        Signature Algorithm: sha256WithRSAEncryption
        Issuer: CN=team346-net
        Validity
            Not Before: May 18 20:26:36 2022 GMT
            Not After : May  2 20:26:36 2025 GMT
        Subject: CN=team346-server
        Subject Public Key Info:
            Public Key Algorithm: rsaEncryption
                RSA Public-Key: (2048 bit)
                Modulus:
                    00:c3:6c:26:29:b2:1f:d2:f7:2f:8d:83:1a:57:21:
                    8d:3a:94:19:ee:cd:aa:4b:1f:d1:e1:2f:6e:fa:cb:
                    df:c2:cc:39:6f:64:04:39:a5:04:d4:9c:86:40:aa:
                    84:d7:b9:12:c2:29:ec:f5:c1:89:d5:e4:82:2f:2c:
                    5d:85:9a:a7:42:16:de:e8:c6:50:f8:32:ac:9f:7b:
                    8f:65:40:96:7c:bf:49:9b:8d:ba:51:87:7c:0c:b5:
                    0a:81:4c:22:cd:cd:21:13:55:33:7b:35:9e:5c:9d:
                    1e:fa:87:3c:72:7f:5f:49:9f:21:ff:aa:1a:8b:05:
                    4f:ba:c9:c6:77:9e:72:3b:78:c0:6a:f6:aa:d8:6e:
                    41:81:2f:f4:70:26:d2:44:99:f8:e9:9b:81:81:7e:
                    d4:d2:68:60:11:d8:17:fb:1a:84:01:8f:11:3a:b4:
                    ca:26:5e:2d:de:23:94:a8:90:7b:4b:93:3d:5f:f2:
                    d3:df:85:d6:4a:62:bd:e0:0d:a4:ed:bc:f7:aa:f6:
                    2d:f7:54:92:99:b5:84:90:60:b4:b2:46:b5:57:7b:
                    29:8e:d6:ec:bc:aa:d7:ac:e5:a8:50:ce:9f:90:90:
                    76:fa:94:cb:fd:a8:be:e4:5a:3c:5a:ad:e4:4a:b4:
                    e4:ae:10:46:2a:f1:a1:fd:59:c7:f0:4d:19:e3:94:
                    c6:c5
                Exponent: 65537 (0x10001)
        X509v3 extensions:
            X509v3 Basic Constraints: 
                CA:FALSE
            X509v3 Subject Key Identifier: 
                93:3B:BF:4D:81:46:13:EF:CD:5F:FC:52:39:C9:34:86:81:9C:D2:4F
            X509v3 Authority Key Identifier: 
                keyid:9F:8F:00:9D:46:28:8A:B1:A3:F9:B6:36:31:26:4C:65:A6:03:E3:D9
                DirName:/CN=team346-net
                serial:68:7D:E8:91:31:BD:60:C7:84:80:2A:46:8E:75:1F:E3:7B:1D:4B:71

            X509v3 Extended Key Usage: 
                TLS Web Server Authentication
            X509v3 Key Usage: 
                Digital Signature, Key Encipherment
            X509v3 Subject Alternative Name: 
                DNS:team346-server
    Signature Algorithm: sha256WithRSAEncryption
         d1:df:27:0f:96:25:8f:b3:72:f8:57:9f:e5:b4:67:de:e1:2e:
         16:ae:a6:fa:1c:01:2b:23:28:51:c0:fc:e9:d5:89:3f:7f:20:
         57:43:03:ae:68:f2:32:9e:33:d1:e8:56:97:86:f1:2a:85:fd:
         20:67:7c:81:93:13:87:1f:ad:16:34:55:f1:ee:7a:f6:c2:11:
         6d:17:40:e2:51:0f:ce:4e:29:da:d8:03:6c:d3:ef:b1:b9:14:
         fa:a9:db:8b:81:86:b8:b9:f3:12:0f:a4:74:03:40:ad:4f:43:
         bf:76:de:28:ef:af:a5:8f:ed:c7:13:51:4f:95:80:7a:a3:18:
         06:c5:34:43:8b:55:be:95:38:db:26:9e:ce:4d:4a:6c:09:4c:
         5d:9d:04:6c:a9:dd:a3:13:e0:0f:af:8c:a2:d0:b7:7a:73:ca:
         1b:1d:98:51:47:a5:88:b9:68:fd:46:ca:c7:23:ca:c7:5a:5f:
         c5:63:72:9d:50:5e:f0:ac:99:1b:c0:e2:a9:ef:16:9e:4f:71:
         8f:f6:8b:e4:84:0e:3f:f5:80:46:e7:44:12:4e:bf:bb:3c:23:
         64:7a:2e:46:d8:46:b6:d3:9b:59:5b:74:e8:f3:84:8c:18:c2:
         c9:82:9b:3c:1a:2d:d0:bb:f4:82:8e:50:19:4a:14:2e:cd:76:
         4d:39:63:34
-----BEGIN CERTIFICATE-----
MIIDeDCCAmCgAwIBAgIRAPhaKS2f4yZkkncFXqVfPaQwDQYJKoZIhvcNAQELBQAw
FjEUMBIGA1UEAwwLdGVhbTM0Ni1uZXQwHhcNMjIwNTE4MjAyNjM2WhcNMjUwNTAy
MjAyNjM2WjAZMRcwFQYDVQQDDA50ZWFtMzQ2LXNlcnZlcjCCASIwDQYJKoZIhvcN
AQEBBQADggEPADCCAQoCggEBAMNsJimyH9L3L42DGlchjTqUGe7Nqksf0eEvbvrL
38LMOW9kBDmlBNSchkCqhNe5EsIp7PXBidXkgi8sXYWap0IW3ujGUPgyrJ97j2VA
lny/SZuNulGHfAy1CoFMIs3NIRNVM3s1nlydHvqHPHJ/X0mfIf+qGosFT7rJxnee
cjt4wGr2qthuQYEv9HAm0kSZ+OmbgYF+1NJoYBHYF/sahAGPETq0yiZeLd4jlKiQ
e0uTPV/y09+F1kpiveANpO2896r2LfdUkpm1hJBgtLJGtVd7KY7W7Lyq16zlqFDO
n5CQdvqUy/2ovuRaPFqt5Eq05K4QRirxof1Zx/BNGeOUxsUCAwEAAaOBvTCBujAJ
BgNVHRMEAjAAMB0GA1UdDgQWBBSTO79NgUYT781f/FI5yTSGgZzSTzBRBgNVHSME
SjBIgBSfjwCdRiiKsaP5tjYxJkxlpgPj2aEapBgwFjEUMBIGA1UEAwwLdGVhbTM0
Ni1uZXSCFGh96JExvWDHhIAqRo51H+N7HUtxMBMGA1UdJQQMMAoGCCsGAQUFBwMB
MAsGA1UdDwQEAwIFoDAZBgNVHREEEjAQgg50ZWFtMzQ2LXNlcnZlcjANBgkqhkiG
9w0BAQsFAAOCAQEA0d8nD5Ylj7Ny+Fef5bRn3uEuFq6m+hwBKyMoUcD86dWJP38g
V0MDrmjyMp4z0ehWl4bxKoX9IGd8gZMThx+tFjRV8e569sIRbRdA4lEPzk4p2tgD
bNPvsbkU+qnbi4GGuLnzEg+kdANArU9Dv3beKO+vpY/txxNRT5WAeqMYBsU0Q4tV
vpU42yaezk1KbAlMXZ0EbKndoxPgD6+MotC3enPKGx2YUUeliLlo/UbKxyPKx1pf
xWNynVBe8KyZG8Diqe8Wnk9xj/aL5IQOP/WARudEEk6/uzwjZHouRthGttObWVt0
6POEjBjCyYKbPBot0Lv0go5QGUoULs12TTljNA==
-----END CERTIFICATE-----
