Certificate:
    Data:
        Version: 3 (0x2)
        Serial Number:
            91:34:5b:d3:38:19:ff:ea:ad:08:84:14:c0:83:14:b1
        Signature Algorithm: sha256WithRSAEncryption
        Issuer: CN=team595-net
        Validity
            Not Before: May 18 22:46:19 2022 GMT
            Not After : May  2 22:46:19 2025 GMT
        Subject: CN=team595-server
        Subject Public Key Info:
            Public Key Algorithm: rsaEncryption
                RSA Public-Key: (2048 bit)
                Modulus:
                    00:a6:10:38:b8:5b:ce:fe:36:b3:42:91:1b:b6:53:
                    25:48:08:78:46:1f:ea:be:13:4b:d8:6c:c3:58:f2:
                    3e:27:ff:71:a8:1a:c4:7c:23:c1:d5:ef:c8:0f:79:
                    ac:ea:1b:8e:b9:bf:07:f6:3b:81:df:09:84:39:1e:
                    c5:2b:37:ad:cf:ca:21:bb:08:68:20:d2:3b:59:e0:
                    41:ce:3e:bf:43:74:d7:1a:48:4e:96:24:71:0e:39:
                    94:4c:35:42:f0:6b:0c:43:70:1c:9c:ae:7e:1f:04:
                    97:eb:82:f0:fe:ea:7d:bf:ec:ae:ec:0b:cf:3e:c6:
                    75:76:21:53:54:7c:d5:b3:85:37:58:69:a3:c5:96:
                    de:57:0a:86:8d:36:3a:02:f5:5f:14:97:1c:50:c6:
                    2a:7b:d9:c7:27:0c:2d:f9:ec:e8:1c:71:c1:c5:56:
                    26:3c:70:66:d2:02:c5:94:9d:f9:db:0f:d5:a1:58:
                    63:bf:1f:47:65:85:38:88:85:c3:f1:72:2b:cf:93:
                    e4:4d:d2:f5:62:6f:2c:4e:d9:1b:8d:58:3a:8d:b3:
                    54:c4:ac:1c:69:da:5a:7b:83:d2:af:db:8d:e8:e5:
                    93:71:20:67:eb:b3:3d:28:5c:6d:94:9d:4a:a8:13:
                    24:c2:78:a4:de:97:7a:c0:14:09:44:7c:58:5f:09:
                    be:63
                Exponent: 65537 (0x10001)
        X509v3 extensions:
            X509v3 Basic Constraints: 
                CA:FALSE
            X509v3 Subject Key Identifier: 
                A8:8E:92:7F:EE:4A:3C:37:4F:32:74:ED:68:F8:19:79:59:12:2F:80
            X509v3 Authority Key Identifier: 
                keyid:68:A9:CA:6E:4D:6E:24:CE:73:62:A1:BD:A3:DE:CD:22:F2:15:84:00
                DirName:/CN=team595-net
                serial:1B:6E:09:22:8F:D9:66:86:85:A6:03:41:6A:E6:7A:C1:20:A9:54:9C

            X509v3 Extended Key Usage: 
                TLS Web Server Authentication
            X509v3 Key Usage: 
                Digital Signature, Key Encipherment
            X509v3 Subject Alternative Name: 
                DNS:team595-server
    Signature Algorithm: sha256WithRSAEncryption
         6d:9d:6e:f8:9e:f0:c5:fc:70:ff:c8:0e:e9:f5:ec:e6:06:bb:
         70:ae:ef:23:f1:da:16:d2:6a:54:e6:bd:c7:c8:00:61:17:68:
         e7:6c:42:66:a6:18:b3:2a:22:1d:a4:99:87:71:f9:3e:3e:a8:
         70:9c:22:64:98:eb:29:c9:29:4c:77:b0:8e:7c:d8:51:08:8a:
         fb:d2:93:98:bb:f2:9c:78:d3:b0:ee:50:db:34:81:bc:52:74:
         cb:2a:c4:cc:cc:37:d0:4a:d3:5e:73:b7:1b:ed:08:ed:27:fe:
         16:22:29:2e:99:35:7b:8e:6e:fd:a0:7f:50:ee:c0:bd:51:a7:
         ed:54:a2:7e:d5:bd:c7:5d:94:97:80:4d:07:e3:f0:c1:e2:75:
         d4:5b:a6:2b:ad:0c:a6:99:73:e1:a7:f6:b4:8e:95:cd:0d:06:
         3b:59:aa:d7:36:73:d8:0a:ce:c9:20:86:15:01:94:57:2e:56:
         f1:e0:db:23:84:8f:f4:02:a1:b6:bd:bd:98:b3:6b:53:5d:d6:
         78:e1:81:f2:14:16:53:d4:f1:6e:6a:d0:35:4a:d1:34:39:49:
         dd:4b:5d:63:5f:82:68:90:0f:1f:dc:2f:75:9a:f2:76:d1:39:
         4c:60:82:d8:60:e7:68:ac:45:75:82:b2:c0:35:c0:ff:6c:e3:
         9c:92:9c:2e
-----BEGIN CERTIFICATE-----
MIIDeDCCAmCgAwIBAgIRAJE0W9M4Gf/qrQiEFMCDFLEwDQYJKoZIhvcNAQELBQAw
FjEUMBIGA1UEAwwLdGVhbTU5NS1uZXQwHhcNMjIwNTE4MjI0NjE5WhcNMjUwNTAy
MjI0NjE5WjAZMRcwFQYDVQQDDA50ZWFtNTk1LXNlcnZlcjCCASIwDQYJKoZIhvcN
AQEBBQADggEPADCCAQoCggEBAKYQOLhbzv42s0KRG7ZTJUgIeEYf6r4TS9hsw1jy
Pif/cagaxHwjwdXvyA95rOobjrm/B/Y7gd8JhDkexSs3rc/KIbsIaCDSO1ngQc4+
v0N01xpITpYkcQ45lEw1QvBrDENwHJyufh8El+uC8P7qfb/sruwLzz7GdXYhU1R8
1bOFN1hpo8WW3lcKho02OgL1XxSXHFDGKnvZxycMLfns6BxxwcVWJjxwZtICxZSd
+dsP1aFYY78fR2WFOIiFw/FyK8+T5E3S9WJvLE7ZG41YOo2zVMSsHGnaWnuD0q/b
jejlk3EgZ+uzPShcbZSdSqgTJMJ4pN6XesAUCUR8WF8JvmMCAwEAAaOBvTCBujAJ
BgNVHRMEAjAAMB0GA1UdDgQWBBSojpJ/7ko8N08ydO1o+Bl5WRIvgDBRBgNVHSME
SjBIgBRoqcpuTW4kznNiob2j3s0i8hWEAKEapBgwFjEUMBIGA1UEAwwLdGVhbTU5
NS1uZXSCFBtuCSKP2WaGhaYDQWrmesEgqVScMBMGA1UdJQQMMAoGCCsGAQUFBwMB
MAsGA1UdDwQEAwIFoDAZBgNVHREEEjAQgg50ZWFtNTk1LXNlcnZlcjANBgkqhkiG
9w0BAQsFAAOCAQEAbZ1u+J7wxfxw/8gO6fXs5ga7cK7vI/HaFtJqVOa9x8gAYRdo
52xCZqYYsyoiHaSZh3H5Pj6ocJwiZJjrKckpTHewjnzYUQiK+9KTmLvynHjTsO5Q
2zSBvFJ0yyrEzMw30ErTXnO3G+0I7Sf+FiIpLpk1e45u/aB/UO7AvVGn7VSiftW9
x12Ul4BNB+PwweJ11FumK60Mpplz4af2tI6VzQ0GO1mq1zZz2ArOySCGFQGUVy5W
8eDbI4SP9AKhtr29mLNrU13WeOGB8hQWU9TxbmrQNUrRNDlJ3UtdY1+CaJAPH9wv
dZrydtE5TGCC2GDnaKxFdYKywDXA/2zjnJKcLg==
-----END CERTIFICATE-----
