Certificate:
    Data:
        Version: 3 (0x2)
        Serial Number:
            c9:d8:eb:e1:7e:4d:da:04:7c:98:0a:c6:be:54:e0:cb
        Signature Algorithm: sha256WithRSAEncryption
        Issuer: CN=team544-net
        Validity
            Not Before: May 18 22:09:28 2022 GMT
            Not After : May  2 22:09:28 2025 GMT
        Subject: CN=team544-client
        Subject Public Key Info:
            Public Key Algorithm: rsaEncryption
                RSA Public-Key: (2048 bit)
                Modulus:
                    00:c3:1f:c4:08:8e:29:86:61:a8:7c:07:dc:b5:61:
                    26:6f:2b:b4:64:a6:92:65:79:1a:36:82:ec:61:4e:
                    3d:e5:19:82:1a:69:99:92:c6:cb:d0:a6:45:84:22:
                    68:dd:04:3f:62:3b:ea:fd:81:c4:5f:e8:72:14:05:
                    35:bf:ab:27:25:58:39:84:52:37:c4:c2:da:59:12:
                    d5:a1:96:76:c9:08:af:a2:34:0e:03:0b:5e:bc:50:
                    8c:36:7b:dc:a1:ac:d1:b5:db:67:cc:0a:27:88:7e:
                    41:0f:40:8d:fa:65:b3:7b:6d:4b:2e:b6:c9:9b:3b:
                    27:32:07:46:a1:48:54:43:75:19:09:57:f1:c1:0c:
                    ed:02:ca:81:68:86:66:2a:19:30:51:65:6e:10:34:
                    04:e6:88:df:1e:dc:76:8a:02:0f:1f:c9:1a:50:31:
                    37:ad:ad:97:5d:1c:38:79:65:08:f6:d8:e4:70:28:
                    c4:8b:ca:2b:95:cf:70:ac:43:de:b0:1d:7b:33:64:
                    0c:ab:79:08:0d:54:7b:47:48:36:51:f4:33:73:c8:
                    99:71:23:fd:96:81:a0:ee:d7:e0:02:b6:88:c8:f0:
                    56:21:2f:35:09:f3:92:76:0a:fe:23:d6:77:88:86:
                    a3:c3:1e:1e:07:45:f0:0d:48:e6:9c:d0:e3:75:40:
                    d4:5f
                Exponent: 65537 (0x10001)
        X509v3 extensions:
            X509v3 Basic Constraints: 
                CA:FALSE
            X509v3 Subject Key Identifier: 
                E2:D3:B6:EA:CC:59:3F:F0:B5:3E:76:12:D8:23:7F:1C:48:F3:C3:92
            X509v3 Authority Key Identifier: 
                keyid:E8:32:5F:93:46:61:C5:C5:AB:4C:62:E4:7E:60:02:61:33:F6:90:FF
                DirName:/CN=team544-net
                serial:1F:70:E5:CD:3E:59:93:AE:92:7D:9D:FD:86:89:91:32:1F:4D:54:88

            X509v3 Extended Key Usage: 
                TLS Web Client Authentication
            X509v3 Key Usage: 
                Digital Signature
    Signature Algorithm: sha256WithRSAEncryption
         97:5c:b0:9f:25:87:57:83:0f:42:a8:8d:ee:7a:1e:4a:dd:f9:
         a3:4c:15:b2:1c:81:dc:85:41:6a:22:d7:cf:83:e3:3b:96:e4:
         0c:bd:f8:d6:d8:e3:e7:2b:fc:6f:51:93:7a:e6:90:a8:48:16:
         27:48:d7:f7:7e:5b:28:8c:2d:2a:c0:da:a0:4c:05:ab:e5:d4:
         cf:2a:eb:38:cc:88:59:6f:ed:6f:74:a1:b9:aa:17:3a:95:06:
         f5:81:8a:09:91:c6:6c:bc:4d:33:92:3c:87:f9:66:4d:00:c4:
         6b:ae:a7:31:d0:e6:f9:7e:6c:4b:bf:ad:6c:32:ef:a8:6e:06:
         03:fb:c7:2c:8c:75:d5:e8:6e:67:38:cb:50:16:05:14:ee:21:
         78:6f:fd:2f:07:dd:64:1f:fc:6e:17:dc:56:d6:b6:15:f3:12:
         47:66:02:f9:76:0d:e0:fa:c5:82:5c:31:0e:2b:31:f9:7b:70:
         fd:cd:0e:7e:55:cb:d7:8d:ac:80:59:7a:50:13:e7:4e:18:a4:
         61:35:26:9b:07:0c:a1:1b:58:3a:7e:ef:ea:0f:d4:d3:6f:31:
         0f:eb:9e:51:fb:9a:b5:b8:70:ed:96:5f:c5:04:25:6f:ee:5b:
         22:74:60:3d:d3:be:60:f7:01:e4:6f:53:8d:ec:09:fd:32:a4:
         74:97:51:ff
-----BEGIN CERTIFICATE-----
MIIDXTCCAkWgAwIBAgIRAMnY6+F+TdoEfJgKxr5U4MswDQYJKoZIhvcNAQELBQAw
FjEUMBIGA1UEAwwLdGVhbTU0NC1uZXQwHhcNMjIwNTE4MjIwOTI4WhcNMjUwNTAy
MjIwOTI4WjAZMRcwFQYDVQQDDA50ZWFtNTQ0LWNsaWVudDCCASIwDQYJKoZIhvcN
AQEBBQADggEPADCCAQoCggEBAMMfxAiOKYZhqHwH3LVhJm8rtGSmkmV5GjaC7GFO
PeUZghppmZLGy9CmRYQiaN0EP2I76v2BxF/ochQFNb+rJyVYOYRSN8TC2lkS1aGW
dskIr6I0DgMLXrxQjDZ73KGs0bXbZ8wKJ4h+QQ9Ajfpls3ttSy62yZs7JzIHRqFI
VEN1GQlX8cEM7QLKgWiGZioZMFFlbhA0BOaI3x7cdooCDx/JGlAxN62tl10cOHll
CPbY5HAoxIvKK5XPcKxD3rAdezNkDKt5CA1Ue0dINlH0M3PImXEj/ZaBoO7X4AK2
iMjwViEvNQnzknYK/iPWd4iGo8MeHgdF8A1I5pzQ43VA1F8CAwEAAaOBojCBnzAJ
BgNVHRMEAjAAMB0GA1UdDgQWBBTi07bqzFk/8LU+dhLYI38cSPPDkjBRBgNVHSME
SjBIgBToMl+TRmHFxatMYuR+YAJhM/aQ/6EapBgwFjEUMBIGA1UEAwwLdGVhbTU0
NC1uZXSCFB9w5c0+WZOukn2d/YaJkTIfTVSIMBMGA1UdJQQMMAoGCCsGAQUFBwMC
MAsGA1UdDwQEAwIHgDANBgkqhkiG9w0BAQsFAAOCAQEAl1ywnyWHV4MPQqiN7noe
St35o0wVshyB3IVBaiLXz4PjO5bkDL341tjj5yv8b1GTeuaQqEgWJ0jX935bKIwt
KsDaoEwFq+XUzyrrOMyIWW/tb3ShuaoXOpUG9YGKCZHGbLxNM5I8h/lmTQDEa66n
MdDm+X5sS7+tbDLvqG4GA/vHLIx11ehuZzjLUBYFFO4heG/9LwfdZB/8bhfcVta2
FfMSR2YC+XYN4PrFglwxDisx+Xtw/c0OflXL142sgFl6UBPnThikYTUmmwcMoRtY
On7v6g/U028xD+ueUfuatbhw7ZZfxQQlb+5bInRgPdO+YPcB5G9TjewJ/TKkdJdR
/w==
-----END CERTIFICATE-----
