Certificate:
    Data:
        Version: 3 (0x2)
        Serial Number:
            38:72:ef:7b:9b:d3:25:be:f3:12:a8:66:2e:e4:9f:0f
        Signature Algorithm: sha256WithRSAEncryption
        Issuer: CN=team251-net
        Validity
            Not Before: May 18 19:29:26 2022 GMT
            Not After : May  2 19:29:26 2025 GMT
        Subject: CN=team251-client
        Subject Public Key Info:
            Public Key Algorithm: rsaEncryption
                RSA Public-Key: (2048 bit)
                Modulus:
                    00:bc:88:89:df:9c:df:33:bd:ef:80:a8:a2:f6:8e:
                    2d:1e:04:f3:ed:3a:ad:42:45:49:9e:0f:67:4c:02:
                    01:9a:e7:1f:df:76:50:f3:6e:23:db:29:db:df:b4:
                    19:27:f1:29:23:67:4d:14:ae:66:4b:47:77:44:59:
                    19:95:2f:d8:e1:35:16:8a:87:40:28:ae:b7:cf:da:
                    2f:9d:4b:f1:77:ac:ea:a7:ee:5e:01:47:0c:57:cd:
                    7c:08:f2:a2:9e:70:17:35:44:8c:60:8c:a5:25:cb:
                    30:65:43:fc:7e:fb:b0:15:cc:45:1b:09:2a:35:a3:
                    cf:84:29:63:16:c7:7d:04:6b:97:a0:28:fc:e7:01:
                    fd:d9:ed:08:1a:3c:7f:62:ad:a9:7f:ad:95:ca:87:
                    2a:a5:c9:00:6e:62:a2:b8:c5:1d:7d:c2:f8:c0:80:
                    c2:93:ca:d8:c9:4e:45:9b:25:1a:da:03:9b:df:68:
                    6d:dd:cc:21:03:8c:64:e6:8e:fa:c3:a6:54:97:0b:
                    c1:0a:f4:d4:36:18:c1:ec:1d:70:0b:a2:eb:b7:82:
                    9d:34:05:66:6a:bf:f6:0d:68:2e:36:23:93:b6:93:
                    8a:49:d3:c6:2f:0f:ce:00:40:dc:1a:24:ef:d6:4e:
                    f6:f9:9d:f9:ec:3f:35:e3:f1:eb:46:dc:bc:c6:44:
                    bb:b5
                Exponent: 65537 (0x10001)
        X509v3 extensions:
            X509v3 Basic Constraints: 
                CA:FALSE
            X509v3 Subject Key Identifier: 
                FF:96:7C:0E:E4:66:08:40:B5:53:79:84:7D:46:18:48:FC:C9:1E:32
            X509v3 Authority Key Identifier: 
                keyid:98:77:B9:C5:1A:51:5D:C5:76:75:0E:FB:48:36:B0:32:56:24:6C:53
                DirName:/CN=team251-net
                serial:68:43:ED:52:18:4E:7F:E6:45:D5:BD:DF:C4:C6:0E:A6:C1:81:CD:38

            X509v3 Extended Key Usage: 
                TLS Web Client Authentication
            X509v3 Key Usage: 
                Digital Signature
    Signature Algorithm: sha256WithRSAEncryption
         19:23:6c:70:a1:be:a6:c1:1c:bb:5d:80:88:ed:cd:81:25:ea:
         f8:48:94:93:c2:8d:66:c8:5a:09:14:c9:5f:88:95:46:74:8c:
         da:66:f4:f8:d4:c4:cc:81:77:fa:43:6f:bd:1b:d8:27:1a:8c:
         f4:db:c8:37:23:f7:a2:bd:44:be:f8:00:49:15:fd:3e:8f:ff:
         03:d5:03:e4:5c:c7:c2:5a:a3:71:b9:91:df:5a:a6:71:7d:eb:
         fc:07:52:3c:af:8f:26:1e:d4:5b:e9:04:b9:18:72:c1:e0:cf:
         5b:d9:49:cb:e8:41:cf:69:58:a9:0f:4b:17:ed:53:c8:65:10:
         0d:92:59:58:c4:72:ab:31:2e:5f:f9:52:4f:5a:e4:8c:9a:d8:
         ac:c6:c9:0f:d5:0e:7f:d6:e0:16:21:e6:a5:24:2d:65:85:f1:
         55:1b:8d:02:8a:1e:90:bb:0d:10:a1:b5:47:04:19:4d:0e:67:
         da:47:0f:3c:c5:16:08:b0:49:e7:60:de:e1:72:4c:c5:43:6d:
         66:90:1d:42:7d:09:a0:51:95:6a:18:83:36:58:40:08:ff:ea:
         12:91:ec:82:32:7c:94:2c:a0:53:aa:df:aa:3b:89:3e:d1:69:
         34:e4:a5:6f:aa:8e:cf:f1:eb:91:de:3f:7c:31:9c:39:3b:e4:
         49:d1:07:cf
-----BEGIN CERTIFICATE-----
MIIDXDCCAkSgAwIBAgIQOHLve5vTJb7zEqhmLuSfDzANBgkqhkiG9w0BAQsFADAW
MRQwEgYDVQQDDAt0ZWFtMjUxLW5ldDAeFw0yMjA1MTgxOTI5MjZaFw0yNTA1MDIx
OTI5MjZaMBkxFzAVBgNVBAMMDnRlYW0yNTEtY2xpZW50MIIBIjANBgkqhkiG9w0B
AQEFAAOCAQ8AMIIBCgKCAQEAvIiJ35zfM73vgKii9o4tHgTz7TqtQkVJng9nTAIB
mucf33ZQ824j2ynb37QZJ/EpI2dNFK5mS0d3RFkZlS/Y4TUWiodAKK63z9ovnUvx
d6zqp+5eAUcMV818CPKinnAXNUSMYIylJcswZUP8fvuwFcxFGwkqNaPPhCljFsd9
BGuXoCj85wH92e0IGjx/Yq2pf62VyocqpckAbmKiuMUdfcL4wIDCk8rYyU5FmyUa
2gOb32ht3cwhA4xk5o76w6ZUlwvBCvTUNhjB7B1wC6Lrt4KdNAVmar/2DWguNiOT
tpOKSdPGLw/OAEDcGiTv1k72+Z357D814/HrRty8xkS7tQIDAQABo4GiMIGfMAkG
A1UdEwQCMAAwHQYDVR0OBBYEFP+WfA7kZghAtVN5hH1GGEj8yR4yMFEGA1UdIwRK
MEiAFJh3ucUaUV3FdnUO+0g2sDJWJGxToRqkGDAWMRQwEgYDVQQDDAt0ZWFtMjUx
LW5ldIIUaEPtUhhOf+ZF1b3fxMYOpsGBzTgwEwYDVR0lBAwwCgYIKwYBBQUHAwIw
CwYDVR0PBAQDAgeAMA0GCSqGSIb3DQEBCwUAA4IBAQAZI2xwob6mwRy7XYCI7c2B
Jer4SJSTwo1myFoJFMlfiJVGdIzaZvT41MTMgXf6Q2+9G9gnGoz028g3I/eivUS+
+ABJFf0+j/8D1QPkXMfCWqNxuZHfWqZxfev8B1I8r48mHtRb6QS5GHLB4M9b2UnL
6EHPaVipD0sX7VPIZRANkllYxHKrMS5f+VJPWuSMmtisxskP1Q5/1uAWIealJC1l
hfFVG40Cih6Quw0QobVHBBlNDmfaRw88xRYIsEnnYN7hckzFQ21mkB1CfQmgUZVq
GIM2WEAI/+oSkeyCMnyULKBTqt+qO4k+0Wk05KVvqo7P8euR3j98MZw5O+RJ0QfP
-----END CERTIFICATE-----
