Certificate:
    Data:
        Version: 3 (0x2)
        Serial Number:
            ef:45:97:27:35:bf:3b:23:b0:48:28:3a:bd:25:8c:34
        Signature Algorithm: sha256WithRSAEncryption
        Issuer: CN=team251-net
        Validity
            Not Before: May 18 19:29:26 2022 GMT
            Not After : May  2 19:29:26 2025 GMT
        Subject: CN=team251-server
        Subject Public Key Info:
            Public Key Algorithm: rsaEncryption
                RSA Public-Key: (2048 bit)
                Modulus:
                    00:d3:84:89:71:e4:7f:a5:62:9c:63:e4:17:0e:3f:
                    91:cd:c8:58:cc:62:c9:13:f9:43:ed:9e:47:48:b2:
                    3c:cc:83:8e:cd:6f:24:a4:c0:01:ed:be:66:90:fa:
                    0d:6a:6b:0f:55:e8:2a:cb:4b:34:2a:6a:e5:b8:f2:
                    91:1d:58:07:0d:0a:7a:df:56:c2:1a:f4:91:d1:0a:
                    d3:b8:4a:9d:cb:93:ef:2f:e3:10:05:53:77:f2:d9:
                    27:1f:59:ba:7f:97:17:86:2a:51:71:83:d1:7f:fd:
                    ea:41:5f:29:2e:34:f1:5a:02:ff:40:c9:b9:65:9d:
                    75:32:d1:a8:a2:e0:f4:b9:e0:0f:b2:75:2c:0c:2b:
                    6c:77:ef:43:6b:02:60:51:d3:f2:d7:64:7c:d0:86:
                    41:5f:38:58:5c:e0:c9:b4:17:23:e1:58:e7:a7:fe:
                    1b:ed:d3:77:c6:a0:2c:2f:16:a2:e3:9d:7b:30:a5:
                    de:20:04:b3:06:ae:a1:55:9f:ef:5d:80:53:9d:84:
                    e8:19:8e:95:e7:46:52:14:cd:67:7d:18:53:bf:18:
                    92:a4:94:38:77:10:3a:78:7e:3c:82:1b:09:5f:6b:
                    98:f5:1b:e1:ed:71:bc:89:65:db:16:bf:3e:f5:f5:
                    d7:12:7d:0c:85:54:01:69:3d:a3:1f:a6:3f:db:d2:
                    9d:53
                Exponent: 65537 (0x10001)
        X509v3 extensions:
            X509v3 Basic Constraints: 
                CA:FALSE
            X509v3 Subject Key Identifier: 
                A9:3B:F5:22:63:11:7C:31:34:A3:18:F1:3D:BF:3C:F2:95:62:55:8B
            X509v3 Authority Key Identifier: 
                keyid:98:77:B9:C5:1A:51:5D:C5:76:75:0E:FB:48:36:B0:32:56:24:6C:53
                DirName:/CN=team251-net
                serial:68:43:ED:52:18:4E:7F:E6:45:D5:BD:DF:C4:C6:0E:A6:C1:81:CD:38

            X509v3 Extended Key Usage: 
                TLS Web Server Authentication
            X509v3 Key Usage: 
                Digital Signature, Key Encipherment
            X509v3 Subject Alternative Name: 
                DNS:team251-server
    Signature Algorithm: sha256WithRSAEncryption
         93:ca:ac:51:4b:47:a1:63:63:1e:03:53:fc:e9:dc:7d:c4:f8:
         90:d9:c7:50:e1:e5:da:20:37:01:78:88:ee:60:7c:92:4a:0b:
         4e:c7:4a:c0:d7:75:b1:aa:74:1a:38:9d:ac:06:21:bd:e7:f6:
         cb:67:36:3e:be:80:1f:82:61:af:c7:9e:69:d7:78:90:26:07:
         8c:f5:19:ae:c8:10:4c:cf:d0:b4:47:36:a9:41:75:a5:dc:a8:
         bb:5d:f6:d1:14:78:a7:85:48:36:1b:b2:23:05:32:ac:cc:c2:
         e9:f7:da:49:3c:9c:5e:40:df:68:b9:03:42:9a:b6:ea:ea:a4:
         c2:30:74:47:0d:5d:80:48:74:db:c1:44:72:ff:12:5a:ea:35:
         8c:bb:88:72:63:c8:32:10:ac:9d:75:5e:e7:7b:9e:1d:e0:93:
         15:f3:10:be:e6:32:13:69:c3:6a:06:52:7a:72:98:6b:5a:98:
         3b:cd:1a:ed:13:0d:bc:62:3c:67:25:4e:85:fe:06:a1:35:76:
         22:6e:36:1a:b8:53:87:78:8f:57:c9:7c:1b:9c:da:51:a5:61:
         93:22:e3:60:68:a5:de:d2:ef:80:3c:00:4f:04:f0:bd:40:c2:
         c5:88:4a:da:c9:c3:c7:b4:21:1c:08:79:68:f5:f5:a3:cc:13:
         37:71:a9:92
-----BEGIN CERTIFICATE-----
MIIDeDCCAmCgAwIBAgIRAO9Flyc1vzsjsEgoOr0ljDQwDQYJKoZIhvcNAQELBQAw
FjEUMBIGA1UEAwwLdGVhbTI1MS1uZXQwHhcNMjIwNTE4MTkyOTI2WhcNMjUwNTAy
MTkyOTI2WjAZMRcwFQYDVQQDDA50ZWFtMjUxLXNlcnZlcjCCASIwDQYJKoZIhvcN
AQEBBQADggEPADCCAQoCggEBANOEiXHkf6VinGPkFw4/kc3IWMxiyRP5Q+2eR0iy
PMyDjs1vJKTAAe2+ZpD6DWprD1XoKstLNCpq5bjykR1YBw0Ket9Wwhr0kdEK07hK
ncuT7y/jEAVTd/LZJx9Zun+XF4YqUXGD0X/96kFfKS408VoC/0DJuWWddTLRqKLg
9LngD7J1LAwrbHfvQ2sCYFHT8tdkfNCGQV84WFzgybQXI+FY56f+G+3Td8agLC8W
ouOdezCl3iAEswauoVWf712AU52E6BmOledGUhTNZ30YU78YkqSUOHcQOnh+PIIb
CV9rmPUb4e1xvIll2xa/PvX11xJ9DIVUAWk9ox+mP9vSnVMCAwEAAaOBvTCBujAJ
BgNVHRMEAjAAMB0GA1UdDgQWBBSpO/UiYxF8MTSjGPE9vzzylWJVizBRBgNVHSME
SjBIgBSYd7nFGlFdxXZ1DvtINrAyViRsU6EapBgwFjEUMBIGA1UEAwwLdGVhbTI1
MS1uZXSCFGhD7VIYTn/mRdW938TGDqbBgc04MBMGA1UdJQQMMAoGCCsGAQUFBwMB
MAsGA1UdDwQEAwIFoDAZBgNVHREEEjAQgg50ZWFtMjUxLXNlcnZlcjANBgkqhkiG
9w0BAQsFAAOCAQEAk8qsUUtHoWNjHgNT/OncfcT4kNnHUOHl2iA3AXiI7mB8kkoL
TsdKwNd1sap0GjidrAYhvef2y2c2Pr6AH4Jhr8eeadd4kCYHjPUZrsgQTM/QtEc2
qUF1pdyou1320RR4p4VINhuyIwUyrMzC6ffaSTycXkDfaLkDQpq26uqkwjB0Rw1d
gEh028FEcv8SWuo1jLuIcmPIMhCsnXVe53ueHeCTFfMQvuYyE2nDagZSenKYa1qY
O80a7RMNvGI8ZyVOhf4GoTV2Im42GrhTh3iPV8l8G5zaUaVhkyLjYGil3tLvgDwA
TwTwvUDCxYhK2snDx7QhHAh5aPX1o8wTN3Gpkg==
-----END CERTIFICATE-----
