Certificate:
    Data:
        Version: 3 (0x2)
        Serial Number:
            c6:b6:4d:e6:6b:26:61:5e:e2:e1:a6:77:a0:f0:9d:c4
        Signature Algorithm: sha256WithRSAEncryption
        Issuer: CN=team98-net
        Validity
            Not Before: May 18 14:49:24 2022 GMT
            Not After : May  2 14:49:24 2025 GMT
        Subject: CN=team98-server
        Subject Public Key Info:
            Public Key Algorithm: rsaEncryption
                RSA Public-Key: (2048 bit)
                Modulus:
                    00:b2:08:b7:f8:3b:e7:92:4e:0d:68:7d:86:de:dc:
                    2a:21:30:a5:e0:23:a4:2d:f8:eb:38:eb:70:b6:5d:
                    9c:57:e9:33:76:99:89:47:dd:4a:83:98:a2:2a:82:
                    4e:6e:a8:46:93:04:d0:35:10:ee:97:90:73:00:81:
                    d8:44:37:14:77:e5:c3:f6:dc:26:43:6e:2e:02:69:
                    bf:1a:da:f9:d4:28:68:1d:de:65:f8:96:88:31:d5:
                    37:80:30:fd:c8:57:c2:7d:18:e4:4d:6c:60:81:67:
                    a7:83:47:47:bd:dd:ce:20:aa:ec:42:3a:49:69:38:
                    25:ac:b6:21:dd:8f:cc:c2:cd:fe:7c:b6:c1:b0:7a:
                    d1:82:7f:2b:95:ca:d3:50:88:37:6d:d4:89:71:87:
                    7f:45:30:1d:10:86:70:2e:77:27:23:e6:86:1f:4a:
                    13:1d:75:a2:ed:0a:0e:73:6c:d9:6b:33:5e:78:8f:
                    db:b9:27:52:c3:62:2a:83:29:5d:93:9e:e7:8b:18:
                    e5:3b:82:db:61:e1:14:58:63:7d:07:6f:f6:ea:7d:
                    c0:f0:05:9a:69:9b:34:88:81:ca:f3:8f:e7:0a:49:
                    c2:74:7d:e9:c4:3a:eb:bf:1e:b6:2e:ba:e2:96:d7:
                    20:dd:23:1a:91:b0:ac:0a:6b:be:ff:46:61:39:37:
                    ec:43
                Exponent: 65537 (0x10001)
        X509v3 extensions:
            X509v3 Basic Constraints: 
                CA:FALSE
            X509v3 Subject Key Identifier: 
                CD:0D:EA:66:9C:91:25:95:0C:A9:51:6A:12:47:8D:3F:CD:9A:A6:08
            X509v3 Authority Key Identifier: 
                keyid:C6:E4:78:4E:C7:EF:9A:DF:A5:92:94:C5:64:B4:57:63:01:B5:74:66
                DirName:/CN=team98-net
                serial:63:B9:9D:09:FE:D7:7C:8F:99:F2:A7:4F:B3:33:1C:18:E2:27:79:B5

            X509v3 Extended Key Usage: 
                TLS Web Server Authentication
            X509v3 Key Usage: 
                Digital Signature, Key Encipherment
            X509v3 Subject Alternative Name: 
                DNS:team98-server
    Signature Algorithm: sha256WithRSAEncryption
         35:a3:25:f5:dd:24:ab:79:4d:b4:ba:16:9f:93:3b:3d:3c:f8:
         ba:e1:04:6b:51:04:e2:1c:13:a7:03:6f:13:b3:bb:6d:49:43:
         c7:ed:8f:94:2b:f3:2d:01:97:8f:15:71:5f:35:47:03:a7:86:
         b8:e0:f2:64:94:74:e2:c7:64:43:6d:46:b9:62:5c:fa:d1:bb:
         16:7e:19:a2:5a:3d:8d:bd:13:2d:5b:e6:26:c8:ca:a6:f2:f5:
         1d:47:2f:b9:50:ca:e7:56:04:50:32:f8:2b:b2:0b:cc:0c:07:
         5c:14:7e:2c:b6:1d:a7:19:f5:fe:da:10:79:e7:1b:60:1a:67:
         7a:47:fe:4d:bd:3b:a4:f8:c4:20:b5:5f:cd:65:78:d7:94:6e:
         eb:58:a1:2a:95:3f:8d:6d:37:38:5f:4e:05:d8:7c:91:b8:ee:
         cd:51:49:61:7e:c2:a7:f1:d6:a9:4c:cb:4a:f5:e4:5d:ce:4b:
         4e:4a:3f:8b:e8:11:2a:e8:fd:4a:68:12:52:87:48:2e:3e:b0:
         23:de:db:be:30:37:b6:fc:6e:f3:5d:24:ba:7b:cf:9c:b2:10:
         a2:b4:12:c6:a6:26:48:ec:37:71:f1:2d:31:af:b4:d5:e0:46:
         b2:84:7a:bd:e6:16:14:6a:40:6e:13:ad:0c:7a:c1:5f:e7:f2:
         82:6b:57:52
-----BEGIN CERTIFICATE-----
MIIDdDCCAlygAwIBAgIRAMa2TeZrJmFe4uGmd6DwncQwDQYJKoZIhvcNAQELBQAw
FTETMBEGA1UEAwwKdGVhbTk4LW5ldDAeFw0yMjA1MTgxNDQ5MjRaFw0yNTA1MDIx
NDQ5MjRaMBgxFjAUBgNVBAMMDXRlYW05OC1zZXJ2ZXIwggEiMA0GCSqGSIb3DQEB
AQUAA4IBDwAwggEKAoIBAQCyCLf4O+eSTg1ofYbe3CohMKXgI6Qt+Os463C2XZxX
6TN2mYlH3UqDmKIqgk5uqEaTBNA1EO6XkHMAgdhENxR35cP23CZDbi4Cab8a2vnU
KGgd3mX4logx1TeAMP3IV8J9GORNbGCBZ6eDR0e93c4gquxCOklpOCWstiHdj8zC
zf58tsGwetGCfyuVytNQiDdt1Ilxh39FMB0QhnAudycj5oYfShMddaLtCg5zbNlr
M154j9u5J1LDYiqDKV2TnueLGOU7gtth4RRYY30Hb/bqfcDwBZppmzSIgcrzj+cK
ScJ0fenEOuu/HrYuuuKW1yDdIxqRsKwKa77/RmE5N+xDAgMBAAGjgbswgbgwCQYD
VR0TBAIwADAdBgNVHQ4EFgQUzQ3qZpyRJZUMqVFqEkeNP82apggwUAYDVR0jBEkw
R4AUxuR4Tsfvmt+lkpTFZLRXYwG1dGahGaQXMBUxEzARBgNVBAMMCnRlYW05OC1u
ZXSCFGO5nQn+13yPmfKnT7MzHBjiJ3m1MBMGA1UdJQQMMAoGCCsGAQUFBwMBMAsG
A1UdDwQEAwIFoDAYBgNVHREEETAPgg10ZWFtOTgtc2VydmVyMA0GCSqGSIb3DQEB
CwUAA4IBAQA1oyX13SSreU20uhafkzs9PPi64QRrUQTiHBOnA28Ts7ttSUPH7Y+U
K/MtAZePFXFfNUcDp4a44PJklHTix2RDbUa5Ylz60bsWfhmiWj2NvRMtW+YmyMqm
8vUdRy+5UMrnVgRQMvgrsgvMDAdcFH4sth2nGfX+2hB55xtgGmd6R/5NvTuk+MQg
tV/NZXjXlG7rWKEqlT+NbTc4X04F2HyRuO7NUUlhfsKn8dapTMtK9eRdzktOSj+L
6BEq6P1KaBJSh0guPrAj3tu+MDe2/G7zXSS6e8+cshCitBLGpiZI7Ddx8S0xr7TV
4EayhHq95hYUakBuE60MesFf5/KCa1dS
-----END CERTIFICATE-----
