Certificate:
    Data:
        Version: 3 (0x2)
        Serial Number:
            cc:86:b4:bd:c2:e5:ca:18:96:aa:0e:1a:cd:89:ec:ed
        Signature Algorithm: sha256WithRSAEncryption
        Issuer: CN=team365-net
        Validity
            Not Before: May 18 20:36:13 2022 GMT
            Not After : May  2 20:36:13 2025 GMT
        Subject: CN=team365-server
        Subject Public Key Info:
            Public Key Algorithm: rsaEncryption
                RSA Public-Key: (2048 bit)
                Modulus:
                    00:cb:cc:c7:b5:f7:20:df:1c:55:a5:95:de:71:74:
                    89:22:ba:92:2e:a1:ed:5f:6b:83:f3:a8:c0:b4:39:
                    11:e1:9e:59:cb:18:dd:8d:51:14:ac:e8:95:c3:8b:
                    af:00:3d:0c:25:8a:78:47:50:3c:9c:7d:88:8e:60:
                    8c:34:dc:4f:5e:26:c6:71:96:49:2f:37:01:ba:8d:
                    ed:4f:05:63:9b:2f:e2:1a:83:d3:49:d7:c4:14:6e:
                    1a:1d:3d:92:e5:df:f0:23:5d:00:d3:b4:be:01:64:
                    11:63:8d:62:ea:77:3a:94:a9:af:f9:10:cb:c7:18:
                    98:a6:b9:1d:39:41:b4:b9:7c:05:65:84:c2:19:d9:
                    6e:c8:31:10:a3:0d:32:3b:93:0b:da:74:e2:04:c1:
                    52:45:81:4a:82:4e:03:61:5d:32:7f:76:88:8c:26:
                    07:cd:91:31:8e:ac:5d:11:d4:1e:06:ec:36:92:04:
                    35:d9:c6:aa:6e:76:fe:d8:63:dc:54:cb:02:4a:d4:
                    b8:75:78:57:df:0a:80:33:d0:1e:59:ff:f2:5e:6a:
                    0e:7c:5f:cb:ea:c6:3f:44:38:c7:95:cf:7e:9f:a9:
                    f2:60:2a:b1:83:b4:3a:eb:51:86:a3:73:65:6e:e4:
                    87:ad:ba:95:09:7d:00:6e:60:77:9c:2c:e0:51:09:
                    b0:69
                Exponent: 65537 (0x10001)
        X509v3 extensions:
            X509v3 Basic Constraints: 
                CA:FALSE
            X509v3 Subject Key Identifier: 
                F2:72:4E:D2:E6:4D:3A:E0:8E:B4:8C:99:18:EA:55:69:8F:A6:C1:6B
            X509v3 Authority Key Identifier: 
                keyid:4C:80:72:F5:8C:B8:A5:27:20:FE:36:AF:91:0D:87:70:F4:B9:CE:ED
                DirName:/CN=team365-net
                serial:33:01:98:60:5A:97:AC:77:FA:5E:C0:7F:3B:68:7D:C2:6D:53:21:C9

            X509v3 Extended Key Usage: 
                TLS Web Server Authentication
            X509v3 Key Usage: 
                Digital Signature, Key Encipherment
            X509v3 Subject Alternative Name: 
                DNS:team365-server
    Signature Algorithm: sha256WithRSAEncryption
         15:15:e9:42:17:75:f2:a3:81:d9:6e:4c:b4:43:20:99:a8:e2:
         02:6c:3f:e9:50:fa:b8:d1:15:b7:f3:53:9e:75:f3:91:20:60:
         38:2b:3c:17:fc:d3:b0:ca:18:6a:2a:a9:6e:cf:08:7c:1a:bb:
         30:cd:89:bf:65:bd:d2:eb:59:7e:5e:57:e4:f7:bb:5d:69:92:
         6d:df:71:b9:23:4e:c5:8f:fb:07:35:bf:40:5a:f5:48:fa:a7:
         43:2d:7d:5f:32:03:0d:00:61:9e:68:39:f9:07:f1:ae:da:b8:
         e9:a7:8a:d3:3f:13:11:b8:a9:83:7f:07:b4:9b:d6:70:da:44:
         4c:fa:b6:4d:e4:86:fe:52:84:a3:89:47:36:68:ab:6d:f0:4f:
         72:a4:84:d8:19:ce:05:10:54:33:f1:b3:81:65:0e:8e:43:6e:
         7b:49:b9:a3:cc:f8:06:76:d9:ae:51:d7:d0:b1:3a:3e:4b:e8:
         18:e6:68:69:82:3d:83:21:5d:72:45:b3:83:03:e9:d6:d5:fc:
         45:1e:49:aa:74:67:74:dc:70:1e:70:29:c5:04:69:2c:a9:10:
         a3:f1:fe:82:d6:6e:ff:a8:8e:38:8c:d1:95:2d:3e:fb:e3:23:
         5f:16:23:66:ec:61:6e:e4:fa:7c:33:54:57:1a:ee:91:c5:30:
         3d:fa:47:6f
-----BEGIN CERTIFICATE-----
MIIDeDCCAmCgAwIBAgIRAMyGtL3C5coYlqoOGs2J7O0wDQYJKoZIhvcNAQELBQAw
FjEUMBIGA1UEAwwLdGVhbTM2NS1uZXQwHhcNMjIwNTE4MjAzNjEzWhcNMjUwNTAy
MjAzNjEzWjAZMRcwFQYDVQQDDA50ZWFtMzY1LXNlcnZlcjCCASIwDQYJKoZIhvcN
AQEBBQADggEPADCCAQoCggEBAMvMx7X3IN8cVaWV3nF0iSK6ki6h7V9rg/OowLQ5
EeGeWcsY3Y1RFKzolcOLrwA9DCWKeEdQPJx9iI5gjDTcT14mxnGWSS83AbqN7U8F
Y5sv4hqD00nXxBRuGh09kuXf8CNdANO0vgFkEWONYup3OpSpr/kQy8cYmKa5HTlB
tLl8BWWEwhnZbsgxEKMNMjuTC9p04gTBUkWBSoJOA2FdMn92iIwmB82RMY6sXRHU
HgbsNpIENdnGqm52/thj3FTLAkrUuHV4V98KgDPQHln/8l5qDnxfy+rGP0Q4x5XP
fp+p8mAqsYO0OutRhqNzZW7kh626lQl9AG5gd5ws4FEJsGkCAwEAAaOBvTCBujAJ
BgNVHRMEAjAAMB0GA1UdDgQWBBTyck7S5k064I60jJkY6lVpj6bBazBRBgNVHSME
SjBIgBRMgHL1jLilJyD+Nq+RDYdw9LnO7aEapBgwFjEUMBIGA1UEAwwLdGVhbTM2
NS1uZXSCFDMBmGBal6x3+l7AfztofcJtUyHJMBMGA1UdJQQMMAoGCCsGAQUFBwMB
MAsGA1UdDwQEAwIFoDAZBgNVHREEEjAQgg50ZWFtMzY1LXNlcnZlcjANBgkqhkiG
9w0BAQsFAAOCAQEAFRXpQhd18qOB2W5MtEMgmajiAmw/6VD6uNEVt/NTnnXzkSBg
OCs8F/zTsMoYaiqpbs8IfBq7MM2Jv2W90utZfl5X5Pe7XWmSbd9xuSNOxY/7BzW/
QFr1SPqnQy19XzIDDQBhnmg5+Qfxrtq46aeK0z8TEbipg38HtJvWcNpETPq2TeSG
/lKEo4lHNmirbfBPcqSE2BnOBRBUM/GzgWUOjkNue0m5o8z4BnbZrlHX0LE6Pkvo
GOZoaYI9gyFdckWzgwPp1tX8RR5JqnRndNxwHnApxQRpLKkQo/H+gtZu/6iOOIzR
lS0+++MjXxYjZuxhbuT6fDNUVxrukcUwPfpHbw==
-----END CERTIFICATE-----
