Certificate:
    Data:
        Version: 3 (0x2)
        Serial Number:
            e4:2a:e7:23:e2:f3:31:d1:06:24:21:cf:ef:53:a9:59
        Signature Algorithm: sha256WithRSAEncryption
        Issuer: CN=team365-net
        Validity
            Not Before: May 18 20:36:12 2022 GMT
            Not After : May  2 20:36:12 2025 GMT
        Subject: CN=team365-client
        Subject Public Key Info:
            Public Key Algorithm: rsaEncryption
                RSA Public-Key: (2048 bit)
                Modulus:
                    00:d4:2f:ea:d8:91:52:6d:a5:19:aa:ac:4d:bf:9b:
                    02:26:71:da:bc:67:65:2a:d6:f2:70:0d:35:ee:4f:
                    8e:84:97:52:d5:e2:68:d9:b4:c3:53:63:26:02:a2:
                    44:46:aa:91:e8:65:1e:46:36:08:a6:7e:d9:e6:0d:
                    e0:ec:42:f6:4c:85:10:6d:69:c6:f1:cc:01:50:91:
                    69:f9:c1:fd:32:45:1a:92:85:bb:c3:c6:6a:f2:6a:
                    b9:40:f3:3c:80:f4:e0:7a:55:1a:38:e0:a5:22:3f:
                    1f:52:37:28:4a:84:f9:0a:23:6d:27:33:bf:6f:ed:
                    bc:a4:fb:0d:4e:2f:77:22:91:e0:2f:c0:88:9c:1d:
                    50:d3:c8:de:7c:57:55:6e:b0:40:ce:e3:b5:45:b1:
                    25:73:34:39:d2:b1:23:71:4d:d8:b6:d7:1b:97:e7:
                    1c:66:c8:f4:fa:3d:fc:0b:f9:13:f7:5c:85:5e:07:
                    09:c4:6e:77:f4:96:19:9e:c3:bd:d5:07:02:83:0a:
                    77:e6:42:e2:84:6c:4e:d2:38:4e:e7:c2:e3:5b:d5:
                    3e:66:dc:af:d8:27:19:22:9a:c5:78:a8:80:38:b3:
                    11:70:02:8d:4c:6b:93:67:46:d8:97:4d:6f:59:a2:
                    84:de:b2:c1:50:a4:57:dc:4a:60:27:e6:b5:1b:db:
                    b2:a3
                Exponent: 65537 (0x10001)
        X509v3 extensions:
            X509v3 Basic Constraints: 
                CA:FALSE
            X509v3 Subject Key Identifier: 
                C7:DC:AF:58:F6:36:7B:F4:24:CE:03:A8:F6:61:F5:5B:21:06:63:4F
            X509v3 Authority Key Identifier: 
                keyid:4C:80:72:F5:8C:B8:A5:27:20:FE:36:AF:91:0D:87:70:F4:B9:CE:ED
                DirName:/CN=team365-net
                serial:33:01:98:60:5A:97:AC:77:FA:5E:C0:7F:3B:68:7D:C2:6D:53:21:C9

            X509v3 Extended Key Usage: 
                TLS Web Client Authentication
            X509v3 Key Usage: 
                Digital Signature
    Signature Algorithm: sha256WithRSAEncryption
         11:48:2c:51:ae:75:dc:8b:53:50:be:8c:09:8a:09:fd:e3:b6:
         11:ed:38:dd:e2:a0:fa:a9:3d:6d:d9:55:b0:4b:23:bf:60:2c:
         b7:ba:94:43:2f:7c:c1:f1:f2:42:9e:32:71:24:f6:13:44:cb:
         66:9c:f9:22:73:21:e9:7e:09:ed:5f:80:b5:67:9c:73:d1:cb:
         a1:fd:1f:5b:0b:0a:90:60:4b:bd:da:66:f5:93:17:1c:37:92:
         d8:e1:d3:fe:b4:70:a2:85:bb:53:52:20:02:53:89:c6:c4:20:
         2b:db:1e:11:03:7c:13:1c:27:6f:5d:07:b1:35:36:31:71:24:
         1e:5a:71:11:a1:e1:09:f8:a4:93:44:ea:90:3c:e0:5d:ad:91:
         b5:13:19:e2:87:d1:e1:2c:ce:8c:a3:86:2d:3c:c4:1f:4d:98:
         a5:54:d6:f8:30:af:c9:77:4c:c2:8f:18:1e:c3:79:4f:2e:3f:
         ea:dc:98:3a:d8:d3:65:09:0b:00:9c:47:e0:31:67:34:a1:49:
         7a:b0:e2:1a:a7:eb:28:8a:1c:2f:ef:88:57:82:f6:b1:02:b2:
         a0:29:c6:b9:8a:fd:a3:95:74:b0:67:a4:85:9d:2d:cc:99:e6:
         ec:53:64:38:0b:cb:82:68:f0:fa:7c:7f:32:d5:82:47:b2:51:
         ef:61:f9:a6
-----BEGIN CERTIFICATE-----
MIIDXTCCAkWgAwIBAgIRAOQq5yPi8zHRBiQhz+9TqVkwDQYJKoZIhvcNAQELBQAw
FjEUMBIGA1UEAwwLdGVhbTM2NS1uZXQwHhcNMjIwNTE4MjAzNjEyWhcNMjUwNTAy
MjAzNjEyWjAZMRcwFQYDVQQDDA50ZWFtMzY1LWNsaWVudDCCASIwDQYJKoZIhvcN
AQEBBQADggEPADCCAQoCggEBANQv6tiRUm2lGaqsTb+bAiZx2rxnZSrW8nANNe5P
joSXUtXiaNm0w1NjJgKiREaqkehlHkY2CKZ+2eYN4OxC9kyFEG1pxvHMAVCRafnB
/TJFGpKFu8PGavJquUDzPID04HpVGjjgpSI/H1I3KEqE+QojbSczv2/tvKT7DU4v
dyKR4C/AiJwdUNPI3nxXVW6wQM7jtUWxJXM0OdKxI3FN2LbXG5fnHGbI9Po9/Av5
E/dchV4HCcRud/SWGZ7DvdUHAoMKd+ZC4oRsTtI4TufC41vVPmbcr9gnGSKaxXio
gDizEXACjUxrk2dG2JdNb1mihN6ywVCkV9xKYCfmtRvbsqMCAwEAAaOBojCBnzAJ
BgNVHRMEAjAAMB0GA1UdDgQWBBTH3K9Y9jZ79CTOA6j2YfVbIQZjTzBRBgNVHSME
SjBIgBRMgHL1jLilJyD+Nq+RDYdw9LnO7aEapBgwFjEUMBIGA1UEAwwLdGVhbTM2
NS1uZXSCFDMBmGBal6x3+l7AfztofcJtUyHJMBMGA1UdJQQMMAoGCCsGAQUFBwMC
MAsGA1UdDwQEAwIHgDANBgkqhkiG9w0BAQsFAAOCAQEAEUgsUa513ItTUL6MCYoJ
/eO2Ee043eKg+qk9bdlVsEsjv2Ast7qUQy98wfHyQp4ycST2E0TLZpz5InMh6X4J
7V+AtWecc9HLof0fWwsKkGBLvdpm9ZMXHDeS2OHT/rRwooW7U1IgAlOJxsQgK9se
EQN8Exwnb10HsTU2MXEkHlpxEaHhCfikk0TqkDzgXa2RtRMZ4ofR4SzOjKOGLTzE
H02YpVTW+DCvyXdMwo8YHsN5Ty4/6tyYOtjTZQkLAJxH4DFnNKFJerDiGqfrKIoc
L++IV4L2sQKyoCnGuYr9o5V0sGekhZ0tzJnm7FNkOAvLgmjw+nx/MtWCR7JR72H5
pg==
-----END CERTIFICATE-----
