Certificate:
    Data:
        Version: 3 (0x2)
        Serial Number:
            c3:27:1a:b9:79:75:bc:ac:6b:01:79:e4:81:dc:8f:4d
        Signature Algorithm: sha256WithRSAEncryption
        Issuer: CN=team709-net
        Validity
            Not Before: May 18 23:36:23 2022 GMT
            Not After : May  2 23:36:23 2025 GMT
        Subject: CN=team709-client
        Subject Public Key Info:
            Public Key Algorithm: rsaEncryption
                RSA Public-Key: (2048 bit)
                Modulus:
                    00:d5:4b:30:25:14:65:36:ad:f4:26:dd:54:c6:0a:
                    8a:10:15:4c:c6:56:4d:64:78:d7:29:5a:3b:83:35:
                    dd:47:84:df:45:7a:ab:28:d5:1c:57:5d:57:f5:60:
                    fe:59:8e:68:1d:ae:52:a4:8d:07:5d:72:11:e4:d2:
                    7f:be:12:f8:57:90:da:78:3b:a7:e5:33:d7:9f:7c:
                    05:fc:dc:5e:93:fe:35:01:de:6c:f4:6e:41:d5:c2:
                    d0:4a:da:1f:c9:c1:98:2b:f8:b4:2f:43:8d:3a:0f:
                    7c:e8:c9:77:5f:ea:e6:3e:ce:36:0f:2f:67:dc:c3:
                    68:c0:98:99:2e:66:1c:96:32:5a:04:2a:77:8f:a3:
                    1e:6f:a1:4e:de:32:23:2e:92:8b:cc:3d:52:28:cb:
                    75:d9:42:9e:68:bf:71:d8:57:8f:46:41:45:77:ea:
                    63:f3:7a:40:ee:28:36:16:ef:e9:69:de:23:af:99:
                    84:da:7f:00:2c:2f:34:c5:11:70:e7:ad:ee:53:dd:
                    f1:5d:d8:a3:f9:1f:55:0d:38:be:f0:da:01:9e:40:
                    b5:29:21:14:62:28:4b:ba:3d:ea:a2:ef:f5:fe:5f:
                    db:9a:e0:d5:91:3c:fa:45:eb:af:e8:84:2b:e5:b8:
                    17:fb:9d:0a:49:ea:8e:19:e2:7d:d4:42:20:1e:f5:
                    99:d5
                Exponent: 65537 (0x10001)
        X509v3 extensions:
            X509v3 Basic Constraints: 
                CA:FALSE
            X509v3 Subject Key Identifier: 
                47:43:44:29:D7:1B:BD:B2:EA:FD:7C:81:C8:5C:AF:8C:7C:9F:9C:1C
            X509v3 Authority Key Identifier: 
                keyid:FF:50:8D:C3:A4:66:B7:2B:DA:A7:CE:DA:4B:D1:89:D5:64:54:5C:EB
                DirName:/CN=team709-net
                serial:26:2E:FF:BD:C6:AB:56:14:86:68:7B:6A:54:7E:02:59:9D:32:31:AD

            X509v3 Extended Key Usage: 
                TLS Web Client Authentication
            X509v3 Key Usage: 
                Digital Signature
    Signature Algorithm: sha256WithRSAEncryption
         b3:47:ac:e7:b0:0f:a1:0a:20:f8:cd:07:30:3d:4e:0f:3b:9d:
         5c:13:0e:e2:e1:37:5a:36:3c:91:d0:d8:55:e2:da:94:39:56:
         fc:34:9b:70:fc:28:4e:f1:71:ce:1b:2f:67:3e:9e:ae:a2:09:
         27:ba:83:4f:1b:4a:73:fa:4a:fb:66:e7:33:11:19:01:c5:13:
         18:23:48:f8:80:70:5c:2f:95:69:98:2f:73:57:a6:b7:95:6e:
         42:47:22:58:de:cd:74:77:a6:ec:92:38:18:35:89:2d:7f:6f:
         32:14:a4:16:1d:7e:9b:2d:1f:86:bb:49:ac:8f:df:c4:2a:98:
         92:5e:c8:49:af:d6:f1:c0:61:12:2f:f1:14:4e:5d:9b:4a:12:
         cc:98:30:73:e5:3a:fb:58:2d:23:f1:49:47:e6:54:4f:cf:4f:
         49:e5:7d:e2:05:8f:81:b9:f6:a8:e3:92:09:af:73:b5:10:7c:
         43:61:b9:8f:4b:79:f5:0a:d0:fb:ce:4d:18:ae:be:f2:67:7b:
         bc:30:8f:42:2c:04:63:23:7e:82:dd:65:d4:2b:0b:0a:1e:2f:
         01:2a:83:17:9b:b7:e9:46:c3:4f:42:c3:86:89:9f:f9:1d:2c:
         2a:e9:bf:ec:17:3c:a3:40:40:43:30:00:c1:17:b0:f6:35:15:
         56:89:b7:d2
-----BEGIN CERTIFICATE-----
MIIDXTCCAkWgAwIBAgIRAMMnGrl5dbysawF55IHcj00wDQYJKoZIhvcNAQELBQAw
FjEUMBIGA1UEAwwLdGVhbTcwOS1uZXQwHhcNMjIwNTE4MjMzNjIzWhcNMjUwNTAy
MjMzNjIzWjAZMRcwFQYDVQQDDA50ZWFtNzA5LWNsaWVudDCCASIwDQYJKoZIhvcN
AQEBBQADggEPADCCAQoCggEBANVLMCUUZTat9CbdVMYKihAVTMZWTWR41ylaO4M1
3UeE30V6qyjVHFddV/Vg/lmOaB2uUqSNB11yEeTSf74S+FeQ2ng7p+Uz1598Bfzc
XpP+NQHebPRuQdXC0EraH8nBmCv4tC9DjToPfOjJd1/q5j7ONg8vZ9zDaMCYmS5m
HJYyWgQqd4+jHm+hTt4yIy6Si8w9UijLddlCnmi/cdhXj0ZBRXfqY/N6QO4oNhbv
6WneI6+ZhNp/ACwvNMURcOet7lPd8V3Yo/kfVQ04vvDaAZ5AtSkhFGIoS7o96qLv
9f5f25rg1ZE8+kXrr+iEK+W4F/udCknqjhnifdRCIB71mdUCAwEAAaOBojCBnzAJ
BgNVHRMEAjAAMB0GA1UdDgQWBBRHQ0Qp1xu9sur9fIHIXK+MfJ+cHDBRBgNVHSME
SjBIgBT/UI3DpGa3K9qnztpL0YnVZFRc66EapBgwFjEUMBIGA1UEAwwLdGVhbTcw
OS1uZXSCFCYu/73Gq1YUhmh7alR+AlmdMjGtMBMGA1UdJQQMMAoGCCsGAQUFBwMC
MAsGA1UdDwQEAwIHgDANBgkqhkiG9w0BAQsFAAOCAQEAs0es57APoQog+M0HMD1O
DzudXBMO4uE3WjY8kdDYVeLalDlW/DSbcPwoTvFxzhsvZz6erqIJJ7qDTxtKc/pK
+2bnMxEZAcUTGCNI+IBwXC+VaZgvc1emt5VuQkciWN7NdHem7JI4GDWJLX9vMhSk
Fh1+my0fhrtJrI/fxCqYkl7ISa/W8cBhEi/xFE5dm0oSzJgwc+U6+1gtI/FJR+ZU
T89PSeV94gWPgbn2qOOSCa9ztRB8Q2G5j0t59QrQ+85NGK6+8md7vDCPQiwEYyN+
gt1l1CsLCh4vASqDF5u36UbDT0LDhomf+R0sKum/7Bc8o0BAQzAAwRew9jUVVom3
0g==
-----END CERTIFICATE-----
