Certificate:
    Data:
        Version: 3 (0x2)
        Serial Number:
            03:2a:72:93:0e:36:b7:07:cc:b5:ba:62:8a:31:96:22
        Signature Algorithm: sha256WithRSAEncryption
        Issuer: CN=team411-net
        Validity
            Not Before: May 18 21:05:44 2022 GMT
            Not After : May  2 21:05:44 2025 GMT
        Subject: CN=team411-client
        Subject Public Key Info:
            Public Key Algorithm: rsaEncryption
                RSA Public-Key: (2048 bit)
                Modulus:
                    00:ab:41:e1:e5:63:87:0e:9e:77:88:4c:cc:29:21:
                    b6:69:13:2b:b8:75:e2:fc:6f:e5:6d:ef:03:f2:90:
                    39:f6:b3:7d:ae:e8:7e:c7:19:7b:a7:cb:67:96:57:
                    ce:fb:ec:58:7d:02:fd:a9:01:0f:57:26:89:e1:7f:
                    3b:1d:ed:d4:43:04:9b:9b:7e:c8:75:24:4d:b5:08:
                    f5:87:49:58:9a:82:63:ee:fd:b6:a0:14:66:6a:72:
                    6b:3b:32:3e:c6:a3:53:9f:29:ec:57:fd:f6:e7:e8:
                    ea:15:ca:ed:15:b0:b9:34:43:5d:45:7a:bb:15:3c:
                    a8:e4:10:48:e1:d2:44:1e:a6:39:90:19:77:e2:07:
                    e1:08:51:6f:7c:b2:d0:66:33:73:3a:f2:32:74:7f:
                    63:11:57:fb:fd:25:1c:a0:d2:0b:58:74:d9:a7:9d:
                    51:3e:b1:1c:b0:e7:24:0d:eb:80:c2:4e:d9:21:61:
                    8e:0c:74:00:59:fd:ca:cc:3e:f2:4b:8b:18:a6:e8:
                    3d:eb:eb:e5:0e:f1:f1:1c:cf:cf:4c:9f:7f:cb:34:
                    fb:5d:83:7a:32:10:e2:64:2b:89:bb:d1:37:9b:41:
                    fc:aa:15:f7:3a:aa:56:5a:d2:23:7d:ed:a3:0b:02:
                    a6:29:10:6b:4f:0f:2b:88:d4:54:16:52:10:a1:a0:
                    f1:59
                Exponent: 65537 (0x10001)
        X509v3 extensions:
            X509v3 Basic Constraints: 
                CA:FALSE
            X509v3 Subject Key Identifier: 
                FC:66:AA:EB:B8:82:D0:5C:06:3B:57:A4:0C:9F:BB:B2:0A:BA:FF:FB
            X509v3 Authority Key Identifier: 
                keyid:54:C8:AC:B7:B3:21:6F:13:58:F5:20:25:6C:05:BA:4A:88:66:02:90
                DirName:/CN=team411-net
                serial:66:D6:20:00:0F:C7:97:B2:0F:5D:97:98:89:80:DF:40:45:96:B8:B4

            X509v3 Extended Key Usage: 
                TLS Web Client Authentication
            X509v3 Key Usage: 
                Digital Signature
    Signature Algorithm: sha256WithRSAEncryption
         06:dc:48:9e:b7:57:5a:7f:cb:94:cb:ad:12:ad:d7:cd:de:69:
         d0:45:cb:12:c7:3a:18:8f:dd:9c:08:1e:00:35:a4:43:cc:f7:
         d0:ed:1a:26:bd:9d:93:8b:3a:10:af:af:05:b4:1f:7f:74:be:
         4b:11:02:60:a4:d2:96:bb:31:c3:ec:19:d9:a9:98:e8:c3:b5:
         c2:49:53:e2:77:ea:2c:ba:c0:fc:fd:37:dd:b0:69:d4:91:f2:
         5f:d1:7f:f7:17:bd:3e:37:0d:dc:2b:6c:4e:90:c2:20:e3:95:
         3d:61:f1:47:48:f6:b8:bc:38:f2:1f:7d:09:47:28:38:ad:3a:
         68:d7:9b:bb:63:e9:88:b2:c4:85:37:13:cd:ed:14:85:66:ef:
         71:2e:ec:2e:f7:5c:87:a8:4f:4b:ba:f0:db:fe:a7:d5:20:4d:
         81:53:6c:5c:53:34:71:87:01:2f:b1:c3:eb:6b:45:17:29:73:
         f5:86:69:43:96:31:f8:c1:51:d2:a4:0e:3c:13:89:d9:d7:0d:
         82:ab:8c:77:88:16:2c:cf:01:72:72:ce:48:97:40:2d:7c:69:
         13:27:9e:3c:c7:4b:fd:04:b9:56:a1:0d:a6:61:4e:f2:52:81:
         66:91:72:68:f0:3a:4b:f7:8f:58:9e:60:18:50:5a:b6:c5:e2:
         76:63:1f:d0
-----BEGIN CERTIFICATE-----
MIIDXDCCAkSgAwIBAgIQAypykw42twfMtbpiijGWIjANBgkqhkiG9w0BAQsFADAW
MRQwEgYDVQQDDAt0ZWFtNDExLW5ldDAeFw0yMjA1MTgyMTA1NDRaFw0yNTA1MDIy
MTA1NDRaMBkxFzAVBgNVBAMMDnRlYW00MTEtY2xpZW50MIIBIjANBgkqhkiG9w0B
AQEFAAOCAQ8AMIIBCgKCAQEAq0Hh5WOHDp53iEzMKSG2aRMruHXi/G/lbe8D8pA5
9rN9ruh+xxl7p8tnllfO++xYfQL9qQEPVyaJ4X87He3UQwSbm37IdSRNtQj1h0lY
moJj7v22oBRmanJrOzI+xqNTnynsV/325+jqFcrtFbC5NENdRXq7FTyo5BBI4dJE
HqY5kBl34gfhCFFvfLLQZjNzOvIydH9jEVf7/SUcoNILWHTZp51RPrEcsOckDeuA
wk7ZIWGODHQAWf3KzD7yS4sYpug96+vlDvHxHM/PTJ9/yzT7XYN6MhDiZCuJu9E3
m0H8qhX3OqpWWtIjfe2jCwKmKRBrTw8riNRUFlIQoaDxWQIDAQABo4GiMIGfMAkG
A1UdEwQCMAAwHQYDVR0OBBYEFPxmquu4gtBcBjtXpAyfu7IKuv/7MFEGA1UdIwRK
MEiAFFTIrLezIW8TWPUgJWwFukqIZgKQoRqkGDAWMRQwEgYDVQQDDAt0ZWFtNDEx
LW5ldIIUZtYgAA/Hl7IPXZeYiYDfQEWWuLQwEwYDVR0lBAwwCgYIKwYBBQUHAwIw
CwYDVR0PBAQDAgeAMA0GCSqGSIb3DQEBCwUAA4IBAQAG3Eiet1daf8uUy60SrdfN
3mnQRcsSxzoYj92cCB4ANaRDzPfQ7RomvZ2TizoQr68FtB9/dL5LEQJgpNKWuzHD
7BnZqZjow7XCSVPid+osusD8/TfdsGnUkfJf0X/3F70+Nw3cK2xOkMIg45U9YfFH
SPa4vDjyH30JRyg4rTpo15u7Y+mIssSFNxPN7RSFZu9xLuwu91yHqE9LuvDb/qfV
IE2BU2xcUzRxhwEvscPra0UXKXP1hmlDljH4wVHSpA48E4nZ1w2Cq4x3iBYszwFy
cs5Il0AtfGkTJ548x0v9BLlWoQ2mYU7yUoFmkXJo8DpL949YnmAYUFq2xeJ2Yx/Q
-----END CERTIFICATE-----
