Certificate:
    Data:
        Version: 3 (0x2)
        Serial Number:
            ef:3e:5b:75:ec:1c:3d:3e:6f:0b:a6:cd:aa:bf:c1:bf
        Signature Algorithm: sha256WithRSAEncryption
        Issuer: CN=team559-net
        Validity
            Not Before: May 18 22:18:34 2022 GMT
            Not After : May  2 22:18:34 2025 GMT
        Subject: CN=team559-server
        Subject Public Key Info:
            Public Key Algorithm: rsaEncryption
                RSA Public-Key: (2048 bit)
                Modulus:
                    00:d5:5e:2e:a4:ec:75:3f:d1:63:e8:a2:db:cf:53:
                    40:7e:4c:11:14:0d:d0:59:f3:bb:f9:d1:f6:df:20:
                    ec:79:9a:ff:8a:d1:07:a4:d1:a8:67:3f:b3:0b:ce:
                    27:f5:59:7c:57:7b:63:ce:35:9f:8d:9f:be:37:5d:
                    be:41:e7:de:45:8f:8a:d7:89:11:5e:02:7a:4f:b3:
                    ee:78:ef:58:8a:72:b9:cd:d1:59:0a:fa:e7:c5:76:
                    8d:6c:65:d8:f3:21:28:b4:3f:8e:1a:c5:5d:91:3f:
                    af:3e:08:fa:99:ed:38:ab:56:e3:fc:c4:61:e7:d4:
                    76:db:97:e4:0e:ff:bb:0f:e8:a4:8c:86:2b:6e:0a:
                    a7:15:5b:91:82:ec:dc:13:29:6c:f2:b3:cf:d7:de:
                    cb:47:9f:8c:7b:0c:98:19:d8:d1:88:9a:23:ca:46:
                    c1:a4:52:d6:64:9a:35:57:48:4a:4f:ca:6c:5f:bb:
                    b5:e4:fe:cc:76:9b:12:de:eb:a9:38:71:83:61:15:
                    de:89:5e:5d:d5:dc:d3:4f:b4:d3:c1:44:f3:43:af:
                    c6:85:00:10:2e:5d:01:be:15:6a:34:56:10:dd:b1:
                    e2:9d:b1:e4:33:17:85:ac:6e:9d:e8:bd:40:89:e2:
                    7d:2f:00:18:49:21:e6:ec:71:dd:c4:e9:70:da:60:
                    0f:83
                Exponent: 65537 (0x10001)
        X509v3 extensions:
            X509v3 Basic Constraints: 
                CA:FALSE
            X509v3 Subject Key Identifier: 
                85:D4:0C:40:C8:84:B3:3B:69:9E:25:64:56:5B:0C:B8:AB:0D:FB:80
            X509v3 Authority Key Identifier: 
                keyid:52:57:A4:2F:B6:95:D7:32:EC:47:11:D8:EB:95:F9:3C:D4:78:4B:A9
                DirName:/CN=team559-net
                serial:2E:75:6B:FD:72:BD:2F:BB:AF:70:40:EC:6B:EB:96:C9:F6:48:3C:FB

            X509v3 Extended Key Usage: 
                TLS Web Server Authentication
            X509v3 Key Usage: 
                Digital Signature, Key Encipherment
            X509v3 Subject Alternative Name: 
                DNS:team559-server
    Signature Algorithm: sha256WithRSAEncryption
         88:bd:c2:0c:2b:16:e6:28:13:fb:35:67:59:27:f8:03:f9:4a:
         73:81:99:33:71:45:c8:28:00:b7:ad:81:e2:41:1b:6d:06:b0:
         11:56:e0:29:03:4e:9f:7f:b8:86:39:69:8c:3c:c1:d8:9a:ae:
         f8:ea:93:17:c7:23:4e:a0:5b:bd:94:03:6b:06:b6:9f:34:92:
         d9:45:81:4d:68:fd:3c:04:27:5e:f6:99:5b:ba:23:97:04:d1:
         a9:14:6b:0f:fb:b2:23:0a:18:69:ca:bc:fc:9f:4b:e3:2a:e7:
         30:0e:87:4d:db:34:16:55:ef:09:0e:3a:15:ad:11:a3:c3:6b:
         bb:20:14:89:5e:03:58:9f:50:2d:68:57:10:a7:eb:28:dc:69:
         0b:74:ff:a6:01:93:d5:7e:a6:20:dc:fe:4f:b4:7f:5a:0c:ab:
         f5:89:b7:32:4c:9d:ad:c5:f5:37:e3:43:7b:3e:81:26:74:55:
         72:22:6b:fd:e8:00:cb:49:e9:0a:c8:c6:c6:35:85:93:d4:14:
         bb:66:51:85:d2:d3:25:83:7d:c2:ab:45:8f:0d:3b:56:bc:5c:
         40:1c:0d:af:76:6e:68:00:3c:48:e7:61:56:cc:f9:10:31:5f:
         83:b3:84:78:83:ac:c8:a9:3e:a2:7c:e0:83:40:b0:18:c6:9f:
         81:bf:cb:ba
-----BEGIN CERTIFICATE-----
MIIDeDCCAmCgAwIBAgIRAO8+W3XsHD0+bwumzaq/wb8wDQYJKoZIhvcNAQELBQAw
FjEUMBIGA1UEAwwLdGVhbTU1OS1uZXQwHhcNMjIwNTE4MjIxODM0WhcNMjUwNTAy
MjIxODM0WjAZMRcwFQYDVQQDDA50ZWFtNTU5LXNlcnZlcjCCASIwDQYJKoZIhvcN
AQEBBQADggEPADCCAQoCggEBANVeLqTsdT/RY+ii289TQH5MERQN0Fnzu/nR9t8g
7Hma/4rRB6TRqGc/swvOJ/VZfFd7Y841n42fvjddvkHn3kWPiteJEV4Cek+z7njv
WIpyuc3RWQr658V2jWxl2PMhKLQ/jhrFXZE/rz4I+pntOKtW4/zEYefUdtuX5A7/
uw/opIyGK24KpxVbkYLs3BMpbPKzz9fey0efjHsMmBnY0YiaI8pGwaRS1mSaNVdI
Sk/KbF+7teT+zHabEt7rqThxg2EV3oleXdXc00+008FE80OvxoUAEC5dAb4VajRW
EN2x4p2x5DMXhaxunei9QInifS8AGEkh5uxx3cTpcNpgD4MCAwEAAaOBvTCBujAJ
BgNVHRMEAjAAMB0GA1UdDgQWBBSF1AxAyISzO2meJWRWWwy4qw37gDBRBgNVHSME
SjBIgBRSV6QvtpXXMuxHEdjrlfk81HhLqaEapBgwFjEUMBIGA1UEAwwLdGVhbTU1
OS1uZXSCFC51a/1yvS+7r3BA7Gvrlsn2SDz7MBMGA1UdJQQMMAoGCCsGAQUFBwMB
MAsGA1UdDwQEAwIFoDAZBgNVHREEEjAQgg50ZWFtNTU5LXNlcnZlcjANBgkqhkiG
9w0BAQsFAAOCAQEAiL3CDCsW5igT+zVnWSf4A/lKc4GZM3FFyCgAt62B4kEbbQaw
EVbgKQNOn3+4hjlpjDzB2Jqu+OqTF8cjTqBbvZQDawa2nzSS2UWBTWj9PAQnXvaZ
W7ojlwTRqRRrD/uyIwoYacq8/J9L4yrnMA6HTds0FlXvCQ46Fa0Ro8NruyAUiV4D
WJ9QLWhXEKfrKNxpC3T/pgGT1X6mINz+T7R/Wgyr9Ym3MkydrcX1N+NDez6BJnRV
ciJr/egAy0npCsjGxjWFk9QUu2ZRhdLTJYN9wqtFjw07VrxcQBwNr3ZuaAA8SOdh
Vsz5EDFfg7OEeIOsyKk+onzgg0CwGMafgb/Lug==
-----END CERTIFICATE-----
