Certificate:
    Data:
        Version: 3 (0x2)
        Serial Number:
            8c:60:45:29:22:0a:00:48:a0:5d:98:f5:ab:f4:98:e4
        Signature Algorithm: sha256WithRSAEncryption
        Issuer: CN=team24-net
        Validity
            Not Before: May 18 14:03:44 2022 GMT
            Not After : May  2 14:03:44 2025 GMT
        Subject: CN=team24-server
        Subject Public Key Info:
            Public Key Algorithm: rsaEncryption
                RSA Public-Key: (2048 bit)
                Modulus:
                    00:a1:e9:98:c5:e2:b8:a5:9c:36:60:c7:79:57:4d:
                    be:34:f8:30:f0:e0:a4:f0:9f:b2:2a:4c:a0:23:d6:
                    ee:20:8a:cd:25:ef:0e:a4:27:78:23:78:66:86:d8:
                    26:1f:2b:81:79:26:17:98:f0:c9:28:4e:cb:9e:da:
                    02:30:26:56:ad:b7:8f:8f:7f:64:12:8e:7c:ae:1c:
                    f7:09:49:01:82:52:6a:98:e7:c6:6c:dc:17:a0:0d:
                    ee:b1:6a:d7:9b:ab:c5:02:93:68:e7:94:e5:04:6b:
                    94:d4:fa:a6:2b:cb:ad:5a:dc:58:e3:c8:48:e4:58:
                    8c:45:fb:a8:43:c5:ed:52:72:a3:b6:a8:da:53:9b:
                    32:5b:d3:db:cb:53:ac:bf:25:68:88:ce:89:96:79:
                    de:b9:a6:1e:70:0e:ed:c2:63:97:08:82:a7:e5:8e:
                    19:a6:0c:96:96:07:d9:e9:3a:0b:e0:7a:64:22:df:
                    21:e6:a8:94:c7:a8:8f:9b:b7:15:cb:72:e7:12:98:
                    e4:88:3c:cd:fa:d0:9e:9a:44:1d:2c:45:73:0b:d5:
                    b2:45:b9:56:0c:c2:12:17:6e:d9:24:79:3a:af:d8:
                    a8:f0:e6:28:31:35:33:04:b5:d4:d9:37:00:bc:20:
                    3f:a4:42:09:06:0f:71:f2:9d:ef:b9:ac:ea:6b:35:
                    e5:2b
                Exponent: 65537 (0x10001)
        X509v3 extensions:
            X509v3 Basic Constraints: 
                CA:FALSE
            X509v3 Subject Key Identifier: 
                9D:A7:EF:F3:AB:7F:D3:AD:4A:FF:19:24:60:53:F2:1A:B7:E2:DB:6A
            X509v3 Authority Key Identifier: 
                keyid:BD:E6:85:E3:7C:44:7D:2A:7A:8C:48:5D:D2:5F:DA:49:1F:50:B3:31
                DirName:/CN=team24-net
                serial:1C:CB:72:8B:28:BC:7D:13:0B:69:41:90:ED:57:F7:78:70:3A:BD:69

            X509v3 Extended Key Usage: 
                TLS Web Server Authentication
            X509v3 Key Usage: 
                Digital Signature, Key Encipherment
            X509v3 Subject Alternative Name: 
                DNS:team24-server
    Signature Algorithm: sha256WithRSAEncryption
         01:17:99:12:52:13:cf:27:c5:3d:2b:3b:5d:45:0f:e6:85:d8:
         6d:f9:70:02:60:dd:0d:04:51:df:c2:b6:23:f4:eb:ca:a6:f5:
         eb:59:23:0e:a5:c7:5e:fa:af:77:f8:87:4a:2b:2d:d4:91:65:
         58:31:31:7b:f0:d9:c6:17:5e:96:b6:db:0d:1b:03:25:f4:af:
         21:3f:72:99:8e:51:fc:89:95:38:fb:1b:c8:31:d0:cf:7b:c2:
         35:04:d6:76:b0:c2:8a:fd:5a:8f:24:ad:30:d6:e3:cc:a2:60:
         cd:74:e9:e9:f4:86:d8:be:0b:10:9c:20:75:29:d4:8a:1f:7f:
         e3:86:aa:ff:5b:81:a5:af:ef:bd:19:44:03:10:f6:f8:b3:2b:
         6a:1f:c7:37:a3:05:4a:36:c3:9d:6b:88:88:20:db:cb:11:d2:
         2f:a2:bb:18:b5:42:ac:57:6d:ff:09:a3:44:f0:a0:82:ec:24:
         aa:78:fc:6e:f1:28:58:13:8f:66:45:0b:e1:af:f5:d6:6b:e7:
         5f:0d:3d:b7:51:54:a8:f3:6d:dd:99:ed:c0:49:6d:b1:c2:cd:
         b4:e0:22:f5:f9:6d:bb:aa:09:fa:35:41:c6:a6:2f:dc:4f:7e:
         d1:28:00:51:83:6b:96:1f:a6:b9:61:b2:52:25:4e:7b:f3:4a:
         23:d3:b3:2a
-----BEGIN CERTIFICATE-----
MIIDdDCCAlygAwIBAgIRAIxgRSkiCgBIoF2Y9av0mOQwDQYJKoZIhvcNAQELBQAw
FTETMBEGA1UEAwwKdGVhbTI0LW5ldDAeFw0yMjA1MTgxNDAzNDRaFw0yNTA1MDIx
NDAzNDRaMBgxFjAUBgNVBAMMDXRlYW0yNC1zZXJ2ZXIwggEiMA0GCSqGSIb3DQEB
AQUAA4IBDwAwggEKAoIBAQCh6ZjF4rilnDZgx3lXTb40+DDw4KTwn7IqTKAj1u4g
is0l7w6kJ3gjeGaG2CYfK4F5JheY8MkoTsue2gIwJlatt4+Pf2QSjnyuHPcJSQGC
UmqY58Zs3BegDe6xatebq8UCk2jnlOUEa5TU+qYry61a3FjjyEjkWIxF+6hDxe1S
cqO2qNpTmzJb09vLU6y/JWiIzomWed65ph5wDu3CY5cIgqfljhmmDJaWB9npOgvg
emQi3yHmqJTHqI+btxXLcucSmOSIPM360J6aRB0sRXML1bJFuVYMwhIXbtkkeTqv
2Kjw5igxNTMEtdTZNwC8ID+kQgkGD3Hyne+5rOprNeUrAgMBAAGjgbswgbgwCQYD
VR0TBAIwADAdBgNVHQ4EFgQUnafv86t/061K/xkkYFPyGrfi22owUAYDVR0jBEkw
R4AUveaF43xEfSp6jEhd0l/aSR9QszGhGaQXMBUxEzARBgNVBAMMCnRlYW0yNC1u
ZXSCFBzLcosovH0TC2lBkO1X93hwOr1pMBMGA1UdJQQMMAoGCCsGAQUFBwMBMAsG
A1UdDwQEAwIFoDAYBgNVHREEETAPgg10ZWFtMjQtc2VydmVyMA0GCSqGSIb3DQEB
CwUAA4IBAQABF5kSUhPPJ8U9KztdRQ/mhdht+XACYN0NBFHfwrYj9OvKpvXrWSMO
pcde+q93+IdKKy3UkWVYMTF78NnGF16WttsNGwMl9K8hP3KZjlH8iZU4+xvIMdDP
e8I1BNZ2sMKK/VqPJK0w1uPMomDNdOnp9IbYvgsQnCB1KdSKH3/jhqr/W4Glr++9
GUQDEPb4sytqH8c3owVKNsOda4iIINvLEdIvorsYtUKsV23/CaNE8KCC7CSqePxu
8ShYE49mRQvhr/XWa+dfDT23UVSo823dme3ASW2xws204CL1+W27qgn6NUHGpi/c
T37RKABRg2uWH6a5YbJSJU5780oj07Mq
-----END CERTIFICATE-----
