Certificate:
    Data:
        Version: 3 (0x2)
        Serial Number:
            b2:46:8e:e7:72:17:06:72:19:7e:6b:34:1b:50:80:ca
        Signature Algorithm: sha256WithRSAEncryption
        Issuer: CN=team13-net
        Validity
            Not Before: May 18 14:03:03 2022 GMT
            Not After : May  2 14:03:03 2025 GMT
        Subject: CN=team13-server
        Subject Public Key Info:
            Public Key Algorithm: rsaEncryption
                RSA Public-Key: (2048 bit)
                Modulus:
                    00:bc:b2:fa:04:25:78:a1:1f:3c:3c:8b:2d:0d:9b:
                    a5:26:79:1f:50:9d:c7:01:fe:9f:99:eb:42:d3:50:
                    15:4a:d2:97:f3:e9:e4:0f:40:01:3d:df:f8:37:53:
                    be:ac:dc:c5:a4:07:2b:47:30:27:d8:3c:3a:a8:d6:
                    f1:e8:6e:6c:b9:ed:0c:96:fa:a9:61:36:c5:47:c3:
                    da:c5:6b:bc:f2:86:9d:aa:fc:53:e6:8f:96:37:f3:
                    d2:9e:8e:72:70:dc:b3:49:13:fd:b1:9d:00:ac:df:
                    7f:60:1a:5b:c5:d2:16:91:74:d0:fb:af:ed:71:00:
                    ee:45:e2:77:f9:82:68:6d:e6:b4:12:8d:47:4b:9d:
                    45:4b:0b:09:0a:e1:13:f8:0e:e8:ea:54:d9:94:af:
                    7f:ce:8f:45:e7:ae:1b:6c:a3:09:25:28:e7:1b:f2:
                    4a:96:3e:80:aa:7e:ae:9c:f3:b4:25:2f:b9:1d:fc:
                    e8:ee:09:3f:93:7f:23:fc:35:4b:eb:e7:95:ff:f4:
                    b6:7c:23:5e:18:02:cd:53:5c:91:d5:a5:e6:f1:40:
                    11:be:e6:93:b8:eb:97:55:df:26:c5:a4:64:86:51:
                    9d:7b:e7:99:d5:da:0e:cf:04:1a:51:0b:cd:a3:8c:
                    bb:58:20:53:c7:2e:42:4a:a8:a1:a4:d2:bb:38:32:
                    19:d1
                Exponent: 65537 (0x10001)
        X509v3 extensions:
            X509v3 Basic Constraints: 
                CA:FALSE
            X509v3 Subject Key Identifier: 
                02:46:0F:A3:50:CE:00:D7:A0:57:47:AD:B0:E1:F2:A3:69:1F:87:D7
            X509v3 Authority Key Identifier: 
                keyid:4F:68:CD:F8:98:CB:5B:4F:6E:F3:89:80:99:B6:C2:50:37:62:45:99
                DirName:/CN=team13-net
                serial:17:7F:71:6C:68:80:12:12:10:F5:20:CB:0C:58:EE:33:6C:B2:C1:8A

            X509v3 Extended Key Usage: 
                TLS Web Server Authentication
            X509v3 Key Usage: 
                Digital Signature, Key Encipherment
            X509v3 Subject Alternative Name: 
                DNS:team13-server
    Signature Algorithm: sha256WithRSAEncryption
         a0:18:8e:4d:e9:b9:60:32:3e:d5:ab:88:d7:b3:a6:83:44:c7:
         b2:50:45:99:b4:77:0d:e0:d2:c6:ce:c9:ed:a5:47:cd:fa:fc:
         d0:f8:97:0b:e7:99:04:aa:b0:e0:e9:26:ed:98:f7:c1:d0:f0:
         a6:50:b4:5a:6a:61:66:b1:a9:8a:79:ef:a9:95:86:fd:60:01:
         dc:ae:45:3a:0e:fb:0c:60:52:54:f9:23:f7:81:0f:17:83:a4:
         6f:9e:ef:5e:0d:7b:3e:f3:f0:b2:13:5c:50:1b:16:1c:93:fa:
         0c:2d:65:57:98:a3:30:7c:03:a8:4c:c2:9e:3b:cf:73:a4:2c:
         f2:27:e4:61:d7:42:5d:57:ed:26:0b:4d:3f:25:3d:b0:cf:36:
         cd:4c:65:d3:3c:9f:b9:a2:93:dc:4b:4e:e4:7e:10:fc:2b:9e:
         8e:13:a0:01:25:c6:01:f3:b9:33:71:95:6a:bb:be:d7:2e:7e:
         90:d9:60:ec:50:7f:a5:f2:19:64:16:b1:ed:d3:14:a1:ec:94:
         02:b8:00:63:2f:bf:23:83:48:bb:07:e2:d0:73:a2:45:48:96:
         b4:11:b6:39:88:55:16:d6:c6:81:5e:2b:87:47:28:26:92:ba:
         55:fc:a9:c5:1a:72:40:15:ad:d7:8f:28:92:b2:d3:ff:6b:f9:
         0e:12:57:95
-----BEGIN CERTIFICATE-----
MIIDdDCCAlygAwIBAgIRALJGjudyFwZyGX5rNBtQgMowDQYJKoZIhvcNAQELBQAw
FTETMBEGA1UEAwwKdGVhbTEzLW5ldDAeFw0yMjA1MTgxNDAzMDNaFw0yNTA1MDIx
NDAzMDNaMBgxFjAUBgNVBAMMDXRlYW0xMy1zZXJ2ZXIwggEiMA0GCSqGSIb3DQEB
AQUAA4IBDwAwggEKAoIBAQC8svoEJXihHzw8iy0Nm6UmeR9QnccB/p+Z60LTUBVK
0pfz6eQPQAE93/g3U76s3MWkBytHMCfYPDqo1vHobmy57QyW+qlhNsVHw9rFa7zy
hp2q/FPmj5Y389KejnJw3LNJE/2xnQCs339gGlvF0haRdND7r+1xAO5F4nf5gmht
5rQSjUdLnUVLCwkK4RP4DujqVNmUr3/Oj0XnrhtsowklKOcb8kqWPoCqfq6c87Ql
L7kd/OjuCT+TfyP8NUvr55X/9LZ8I14YAs1TXJHVpebxQBG+5pO465dV3ybFpGSG
UZ1755nV2g7PBBpRC82jjLtYIFPHLkJKqKGk0rs4MhnRAgMBAAGjgbswgbgwCQYD
VR0TBAIwADAdBgNVHQ4EFgQUAkYPo1DOANegV0etsOHyo2kfh9cwUAYDVR0jBEkw
R4AUT2jN+JjLW09u84mAmbbCUDdiRZmhGaQXMBUxEzARBgNVBAMMCnRlYW0xMy1u
ZXSCFBd/cWxogBISEPUgywxY7jNsssGKMBMGA1UdJQQMMAoGCCsGAQUFBwMBMAsG
A1UdDwQEAwIFoDAYBgNVHREEETAPgg10ZWFtMTMtc2VydmVyMA0GCSqGSIb3DQEB
CwUAA4IBAQCgGI5N6blgMj7Vq4jXs6aDRMeyUEWZtHcN4NLGzsntpUfN+vzQ+JcL
55kEqrDg6SbtmPfB0PCmULRaamFmsamKee+plYb9YAHcrkU6DvsMYFJU+SP3gQ8X
g6Rvnu9eDXs+8/CyE1xQGxYck/oMLWVXmKMwfAOoTMKeO89zpCzyJ+Rh10JdV+0m
C00/JT2wzzbNTGXTPJ+5opPcS07kfhD8K56OE6ABJcYB87kzcZVqu77XLn6Q2WDs
UH+l8hlkFrHt0xSh7JQCuABjL78jg0i7B+LQc6JFSJa0EbY5iFUW1saBXiuHRygm
krpV/KnFGnJAFa3XjyiSstP/a/kOEleV
-----END CERTIFICATE-----
