Certificate:
    Data:
        Version: 3 (0x2)
        Serial Number:
            e8:73:92:14:16:77:8a:12:89:18:e4:88:ac:45:60:9e
        Signature Algorithm: sha256WithRSAEncryption
        Issuer: CN=team31-net
        Validity
            Not Before: May 18 14:11:50 2022 GMT
            Not After : May  2 14:11:50 2025 GMT
        Subject: CN=team31-client
        Subject Public Key Info:
            Public Key Algorithm: rsaEncryption
                RSA Public-Key: (2048 bit)
                Modulus:
                    00:c9:93:59:2b:9d:d4:e4:81:96:60:08:e2:91:82:
                    88:af:6d:c8:8d:6f:49:24:13:b2:41:ed:83:62:a6:
                    6f:b9:e8:c9:c6:df:a1:35:95:51:18:c8:34:8a:cb:
                    eb:57:03:19:57:c5:ed:1d:f5:71:7a:5c:ea:cc:17:
                    f3:8c:1a:90:d7:b2:61:9c:f3:d6:66:11:db:ad:5d:
                    62:a9:64:d4:fd:a3:b9:84:94:7e:77:87:21:bb:68:
                    2b:6e:f9:8d:74:8e:25:52:71:36:6a:4f:01:08:b0:
                    44:24:52:91:9f:87:da:7a:e6:1a:10:d3:7e:54:6f:
                    9c:2f:6d:43:ac:1a:25:83:30:ee:f7:c8:61:c3:4c:
                    98:60:f2:d9:ba:fb:80:97:ba:f2:9e:42:17:ca:1c:
                    18:2b:db:f6:68:b6:70:35:07:1d:5b:e3:f4:2d:1a:
                    f4:6d:2f:2c:eb:89:56:44:3c:7a:39:e7:61:1e:bd:
                    fd:37:95:4c:5c:b9:dd:59:28:6a:73:90:5e:17:b2:
                    eb:eb:8a:33:cf:39:b3:94:ec:c1:63:7b:c1:0b:26:
                    c2:24:ac:a2:d1:39:d0:cf:0e:7d:c2:53:18:78:2d:
                    73:a6:29:e2:b3:4d:d4:86:74:4d:69:6b:02:91:1b:
                    2f:03:db:4e:68:b5:d8:e1:fb:a6:a3:59:a5:b1:47:
                    05:09
                Exponent: 65537 (0x10001)
        X509v3 extensions:
            X509v3 Basic Constraints: 
                CA:FALSE
            X509v3 Subject Key Identifier: 
                4D:EF:4B:95:04:BA:D4:15:85:43:41:DF:37:DD:8B:FC:50:59:DC:BF
            X509v3 Authority Key Identifier: 
                keyid:3A:61:00:30:B8:11:4D:6A:8F:04:DE:9B:F1:F8:68:F8:62:2D:3D:65
                DirName:/CN=team31-net
                serial:01:EA:9E:EE:70:5B:EE:5E:87:DB:34:EF:C6:E6:AA:A5:7E:CC:ED:3E

            X509v3 Extended Key Usage: 
                TLS Web Client Authentication
            X509v3 Key Usage: 
                Digital Signature
    Signature Algorithm: sha256WithRSAEncryption
         9f:94:ff:c2:45:09:e9:e7:7a:a6:fd:5b:7e:cb:ba:84:bf:12:
         68:45:fa:25:e2:cd:6c:d5:74:bc:ed:0e:7d:8d:11:13:c5:b9:
         fb:e0:ca:1a:aa:16:6f:79:63:e8:de:76:5b:b6:49:5a:3d:66:
         18:39:70:f8:72:c2:27:65:29:b2:d9:49:43:aa:7f:fa:b3:f0:
         1c:ad:b1:a1:58:9f:ec:be:3a:db:79:47:1d:c9:64:5d:82:5a:
         7c:7d:68:66:0f:e1:9c:5d:35:c1:32:55:17:d6:b2:51:39:6b:
         53:ad:7d:14:44:ac:e7:7b:e3:cc:9e:83:e4:17:f1:9e:ac:ae:
         27:55:13:79:9b:1f:d7:96:85:3f:2b:57:75:54:58:60:50:80:
         b9:c9:3c:19:6d:78:ce:7a:91:ff:aa:7b:bd:2e:1b:71:57:17:
         57:bf:9c:77:bd:b8:62:10:36:d6:4e:04:89:c8:da:79:f1:0b:
         3e:47:59:15:35:0e:cd:0b:08:c9:a7:ef:7b:a7:ab:dc:84:48:
         7e:ec:83:82:42:85:ee:1e:0c:55:81:16:b3:27:99:25:b3:d8:
         b2:0c:4e:cf:fc:96:49:b2:53:7b:9c:fa:3a:17:24:75:db:8c:
         63:4a:20:89:ac:ee:9d:4e:cf:a8:4b:46:bf:cb:fd:30:30:09:
         63:10:ee:d8
-----BEGIN CERTIFICATE-----
MIIDWjCCAkKgAwIBAgIRAOhzkhQWd4oSiRjkiKxFYJ4wDQYJKoZIhvcNAQELBQAw
FTETMBEGA1UEAwwKdGVhbTMxLW5ldDAeFw0yMjA1MTgxNDExNTBaFw0yNTA1MDIx
NDExNTBaMBgxFjAUBgNVBAMMDXRlYW0zMS1jbGllbnQwggEiMA0GCSqGSIb3DQEB
AQUAA4IBDwAwggEKAoIBAQDJk1krndTkgZZgCOKRgoivbciNb0kkE7JB7YNipm+5
6MnG36E1lVEYyDSKy+tXAxlXxe0d9XF6XOrMF/OMGpDXsmGc89ZmEdutXWKpZNT9
o7mElH53hyG7aCtu+Y10jiVScTZqTwEIsEQkUpGfh9p65hoQ035Ub5wvbUOsGiWD
MO73yGHDTJhg8tm6+4CXuvKeQhfKHBgr2/ZotnA1Bx1b4/QtGvRtLyzriVZEPHo5
52Eevf03lUxcud1ZKGpzkF4XsuvrijPPObOU7MFje8ELJsIkrKLROdDPDn3CUxh4
LXOmKeKzTdSGdE1pawKRGy8D205otdjh+6ajWaWxRwUJAgMBAAGjgaEwgZ4wCQYD
VR0TBAIwADAdBgNVHQ4EFgQUTe9LlQS61BWFQ0HfN92L/FBZ3L8wUAYDVR0jBEkw
R4AUOmEAMLgRTWqPBN6b8fho+GItPWWhGaQXMBUxEzARBgNVBAMMCnRlYW0zMS1u
ZXSCFAHqnu5wW+5eh9s078bmqqV+zO0+MBMGA1UdJQQMMAoGCCsGAQUFBwMCMAsG
A1UdDwQEAwIHgDANBgkqhkiG9w0BAQsFAAOCAQEAn5T/wkUJ6ed6pv1bfsu6hL8S
aEX6JeLNbNV0vO0OfY0RE8W5++DKGqoWb3lj6N52W7ZJWj1mGDlw+HLCJ2UpstlJ
Q6p/+rPwHK2xoVif7L4623lHHclkXYJafH1oZg/hnF01wTJVF9ayUTlrU619FESs
53vjzJ6D5BfxnqyuJ1UTeZsf15aFPytXdVRYYFCAuck8GW14znqR/6p7vS4bcVcX
V7+cd724YhA21k4EicjaefELPkdZFTUOzQsIyafve6er3IRIfuyDgkKF7h4MVYEW
syeZJbPYsgxOz/yWSbJTe5z6OhckdduMY0ogiazunU7PqEtGv8v9MDAJYxDu2A==
-----END CERTIFICATE-----
