Certificate:
    Data:
        Version: 3 (0x2)
        Serial Number:
            7e:7c:18:fb:8f:bf:2e:1c:f1:d7:92:4e:c1:fb:d2:6d
        Signature Algorithm: sha256WithRSAEncryption
        Issuer: CN=team132-net
        Validity
            Not Before: May 18 15:07:39 2022 GMT
            Not After : May  2 15:07:39 2025 GMT
        Subject: CN=team132-server
        Subject Public Key Info:
            Public Key Algorithm: rsaEncryption
                RSA Public-Key: (2048 bit)
                Modulus:
                    00:c9:be:cf:98:36:3b:c3:81:68:05:5d:d9:f4:22:
                    04:05:f3:de:92:71:d0:3b:d7:0d:61:56:94:91:a6:
                    c1:34:d0:6f:65:3d:21:9e:5e:4e:21:e5:6c:39:39:
                    98:1f:3e:94:a9:56:bf:9a:6d:d5:6d:52:80:a0:bf:
                    8a:73:48:a7:c9:45:b8:a3:99:3b:fa:72:98:b3:e9:
                    16:1c:ad:31:d1:e5:43:31:5e:a6:61:30:19:93:d6:
                    4d:43:29:47:a1:69:04:5d:82:cb:7e:4a:f3:23:83:
                    68:35:1f:96:5c:e0:35:73:2b:be:77:1e:18:ba:eb:
                    de:92:cd:6c:bb:de:66:4e:f1:e8:f5:1f:db:df:3d:
                    4c:fb:e9:1d:63:76:75:23:99:2e:d3:82:0a:54:a3:
                    7c:0c:34:d9:20:7d:4a:5c:57:4e:88:cf:99:b3:26:
                    d1:e1:eb:03:09:e9:aa:1a:8c:b2:8b:de:af:f1:5f:
                    42:2d:f0:e5:3f:0e:54:62:79:40:90:be:0c:c3:d7:
                    6e:66:b0:e0:bd:34:f7:8f:9a:62:de:b2:75:a3:71:
                    cf:82:ec:9c:c8:34:8f:28:fe:fe:bb:46:02:ed:75:
                    1c:9f:ff:47:68:cb:fb:c0:46:fd:23:c2:ad:f0:fc:
                    ca:f7:90:7d:4d:ad:52:ea:50:ce:c5:c4:de:a2:2f:
                    d5:85
                Exponent: 65537 (0x10001)
        X509v3 extensions:
            X509v3 Basic Constraints: 
                CA:FALSE
            X509v3 Subject Key Identifier: 
                9E:59:7A:90:26:41:AE:83:BC:89:F5:C7:01:E7:2D:0B:46:BB:D0:80
            X509v3 Authority Key Identifier: 
                keyid:C7:3E:CD:AF:83:9B:EB:85:77:65:B4:8E:24:38:66:D2:1B:0F:38:91
                DirName:/CN=team132-net
                serial:77:32:DB:2A:28:97:7D:80:E7:82:F5:29:24:22:A0:AA:32:42:DD:86

            X509v3 Extended Key Usage: 
                TLS Web Server Authentication
            X509v3 Key Usage: 
                Digital Signature, Key Encipherment
            X509v3 Subject Alternative Name: 
                DNS:team132-server
    Signature Algorithm: sha256WithRSAEncryption
         32:14:d3:21:22:5c:7c:e6:50:cb:28:0e:50:ae:69:6b:40:18:
         44:b9:38:62:57:8d:b6:60:4c:be:0f:88:de:ea:ca:69:36:a6:
         6a:8f:f5:83:00:63:a9:38:76:91:9c:3a:9e:ab:42:a5:cb:07:
         23:f4:3a:37:a8:18:a8:c3:3d:2f:27:d6:d8:32:a1:cd:f4:e5:
         74:2e:ac:c8:ac:12:ed:a5:12:a1:53:08:42:2f:d8:c9:15:4f:
         30:c7:15:f6:7c:df:b5:62:88:c6:82:62:22:16:d6:f6:90:fe:
         ff:3e:51:7d:c2:48:f8:20:6d:4e:f4:3e:83:fe:a0:1d:af:05:
         60:75:13:c9:ba:da:c5:bd:60:1c:a0:0b:52:72:3c:3b:6e:6e:
         fd:b2:ef:68:e6:71:f7:47:ce:a3:24:e9:16:df:b8:8d:0d:15:
         dd:a8:5a:69:ac:79:d6:34:41:bd:02:c6:a7:da:7a:d3:08:22:
         79:a2:75:2e:ce:ba:60:49:9a:e6:12:96:b6:f9:03:1e:da:d4:
         50:20:13:7e:48:b1:03:03:b7:c7:c0:cc:eb:e6:86:b0:2b:19:
         61:75:c9:86:ea:79:bb:66:36:b1:79:48:6a:f0:3b:19:b7:e9:
         13:d8:56:1c:d8:e5:14:a2:2f:cc:ae:33:a3:9d:a2:9f:73:21:
         f0:9e:b2:e2
-----BEGIN CERTIFICATE-----
MIIDdzCCAl+gAwIBAgIQfnwY+4+/Lhzx15JOwfvSbTANBgkqhkiG9w0BAQsFADAW
MRQwEgYDVQQDDAt0ZWFtMTMyLW5ldDAeFw0yMjA1MTgxNTA3MzlaFw0yNTA1MDIx
NTA3MzlaMBkxFzAVBgNVBAMMDnRlYW0xMzItc2VydmVyMIIBIjANBgkqhkiG9w0B
AQEFAAOCAQ8AMIIBCgKCAQEAyb7PmDY7w4FoBV3Z9CIEBfPeknHQO9cNYVaUkabB
NNBvZT0hnl5OIeVsOTmYHz6UqVa/mm3VbVKAoL+Kc0inyUW4o5k7+nKYs+kWHK0x
0eVDMV6mYTAZk9ZNQylHoWkEXYLLfkrzI4NoNR+WXOA1cyu+dx4Yuuveks1su95m
TvHo9R/b3z1M++kdY3Z1I5ku04IKVKN8DDTZIH1KXFdOiM+ZsybR4esDCemqGoyy
i96v8V9CLfDlPw5UYnlAkL4Mw9duZrDgvTT3j5pi3rJ1o3HPguycyDSPKP7+u0YC
7XUcn/9HaMv7wEb9I8Kt8PzK95B9Ta1S6lDOxcTeoi/VhQIDAQABo4G9MIG6MAkG
A1UdEwQCMAAwHQYDVR0OBBYEFJ5ZepAmQa6DvIn1xwHnLQtGu9CAMFEGA1UdIwRK
MEiAFMc+za+Dm+uFd2W0jiQ4ZtIbDziRoRqkGDAWMRQwEgYDVQQDDAt0ZWFtMTMy
LW5ldIIUdzLbKiiXfYDngvUpJCKgqjJC3YYwEwYDVR0lBAwwCgYIKwYBBQUHAwEw
CwYDVR0PBAQDAgWgMBkGA1UdEQQSMBCCDnRlYW0xMzItc2VydmVyMA0GCSqGSIb3
DQEBCwUAA4IBAQAyFNMhIlx85lDLKA5QrmlrQBhEuThiV422YEy+D4je6sppNqZq
j/WDAGOpOHaRnDqeq0Klywcj9Do3qBiowz0vJ9bYMqHN9OV0LqzIrBLtpRKhUwhC
L9jJFU8wxxX2fN+1YojGgmIiFtb2kP7/PlF9wkj4IG1O9D6D/qAdrwVgdRPJutrF
vWAcoAtScjw7bm79su9o5nH3R86jJOkW37iNDRXdqFpprHnWNEG9Asan2nrTCCJ5
onUuzrpgSZrmEpa2+QMe2tRQIBN+SLEDA7fHwMzr5oawKxlhdcmG6nm7ZjaxeUhq
8DsZt+kT2FYc2OUUoi/MrjOjnaKfcyHwnrLi
-----END CERTIFICATE-----
