Certificate:
    Data:
        Version: 3 (0x2)
        Serial Number:
            25:26:6d:c5:b3:05:cc:86:25:d2:c0:f2:57:f5:fa:4c
        Signature Algorithm: sha256WithRSAEncryption
        Issuer: CN=team457-net
        Validity
            Not Before: May 18 21:25:27 2022 GMT
            Not After : May  2 21:25:27 2025 GMT
        Subject: CN=team457-server
        Subject Public Key Info:
            Public Key Algorithm: rsaEncryption
                RSA Public-Key: (2048 bit)
                Modulus:
                    00:c3:8d:dc:17:0f:5e:14:ff:71:80:30:0d:58:e2:
                    d0:22:59:85:19:16:16:5b:50:37:a8:4b:17:46:d6:
                    71:12:b2:1c:fe:78:cb:21:6d:3e:c2:39:cb:d4:ba:
                    2f:53:59:b3:03:69:5e:bd:4e:79:3e:1c:aa:4b:3c:
                    73:9f:38:d4:01:e6:4e:86:1d:47:46:b9:d4:6b:48:
                    06:4a:7b:cc:41:01:9e:3a:c7:86:a9:ab:06:12:26:
                    ec:1f:02:27:47:64:52:29:63:b6:41:9b:2f:fe:1e:
                    4f:54:5f:8b:3d:b1:f9:48:fc:c4:7a:20:42:31:96:
                    2e:84:b1:ae:f1:aa:af:fe:2d:a5:4b:1c:6f:f0:e9:
                    78:3c:e8:fe:f6:7b:15:bb:07:55:4f:5d:2b:04:fd:
                    08:7e:b2:27:c7:30:01:83:0d:ad:06:6e:68:23:82:
                    eb:d7:51:58:22:87:d2:52:b6:f7:32:b3:f7:f6:7c:
                    a1:90:e8:99:9a:0d:b7:0d:11:22:89:81:47:7e:01:
                    76:b9:18:59:54:28:8b:47:f8:ba:28:f2:d2:17:ba:
                    29:72:2a:88:4e:70:9f:d8:b0:3d:28:30:7c:37:49:
                    e0:ac:2e:2d:c7:e9:d7:ad:f0:8a:9a:57:09:c2:04:
                    ab:92:29:c5:8d:d9:10:44:37:71:dd:ef:ed:78:ba:
                    83:6b
                Exponent: 65537 (0x10001)
        X509v3 extensions:
            X509v3 Basic Constraints: 
                CA:FALSE
            X509v3 Subject Key Identifier: 
                84:D2:F7:60:13:52:10:7F:DE:CB:0E:7C:B7:21:2E:19:85:30:0A:11
            X509v3 Authority Key Identifier: 
                keyid:7A:6E:AC:3E:4C:DF:FB:E1:0B:DD:CE:D6:40:5D:92:E4:6D:DD:1F:A2
                DirName:/CN=team457-net
                serial:72:B7:7F:DA:0C:88:82:24:0A:BD:0C:0B:52:91:7E:07:29:0C:1A:73

            X509v3 Extended Key Usage: 
                TLS Web Server Authentication
            X509v3 Key Usage: 
                Digital Signature, Key Encipherment
            X509v3 Subject Alternative Name: 
                DNS:team457-server
    Signature Algorithm: sha256WithRSAEncryption
         5e:35:d2:b2:c6:40:fe:4e:8c:97:67:7d:c9:67:97:4d:b8:ab:
         e6:21:87:ad:c4:58:fa:d6:a4:ee:80:bd:15:0b:5c:57:10:e9:
         64:7f:47:32:9c:d2:88:4b:88:9b:62:ea:1f:3c:d9:91:48:76:
         61:16:cc:fb:97:d1:ba:b0:1d:da:ed:bc:ab:de:f3:5d:e5:02:
         c8:f5:95:57:6e:4a:54:8a:c2:00:78:a5:b5:79:b0:20:93:7e:
         57:b8:2d:35:38:c6:c3:92:50:61:ce:8d:5f:91:54:29:b1:90:
         f6:74:2e:03:06:d3:9b:53:d9:82:c1:b0:c4:d9:d5:3f:d6:91:
         72:a4:52:1e:9c:b0:68:67:2c:3b:8e:8a:f7:3e:6c:2b:46:56:
         12:42:cb:38:63:e2:66:a9:1e:e6:ed:9b:72:5f:9c:46:ce:8c:
         ae:a7:b4:6d:67:20:06:46:53:80:cc:05:b3:fa:90:5a:0b:47:
         13:e4:34:20:d8:15:44:be:3e:f5:28:3e:ff:82:fb:d8:b9:b9:
         ed:61:e4:43:64:f4:1b:80:5f:6a:83:c0:79:54:fe:3b:10:cf:
         b3:b3:c4:7d:18:6a:6e:15:2f:28:ee:c1:72:50:76:89:7a:b0:
         d4:39:87:1b:4c:10:65:2f:cd:50:c7:a1:8e:ba:8c:9f:e0:81:
         b1:5e:70:64
-----BEGIN CERTIFICATE-----
MIIDdzCCAl+gAwIBAgIQJSZtxbMFzIYl0sDyV/X6TDANBgkqhkiG9w0BAQsFADAW
MRQwEgYDVQQDDAt0ZWFtNDU3LW5ldDAeFw0yMjA1MTgyMTI1MjdaFw0yNTA1MDIy
MTI1MjdaMBkxFzAVBgNVBAMMDnRlYW00NTctc2VydmVyMIIBIjANBgkqhkiG9w0B
AQEFAAOCAQ8AMIIBCgKCAQEAw43cFw9eFP9xgDANWOLQIlmFGRYWW1A3qEsXRtZx
ErIc/njLIW0+wjnL1LovU1mzA2levU55PhyqSzxznzjUAeZOhh1HRrnUa0gGSnvM
QQGeOseGqasGEibsHwInR2RSKWO2QZsv/h5PVF+LPbH5SPzEeiBCMZYuhLGu8aqv
/i2lSxxv8Ol4POj+9nsVuwdVT10rBP0IfrInxzABgw2tBm5oI4Lr11FYIofSUrb3
MrP39nyhkOiZmg23DREiiYFHfgF2uRhZVCiLR/i6KPLSF7opciqITnCf2LA9KDB8
N0ngrC4tx+nXrfCKmlcJwgSrkinFjdkQRDdx3e/teLqDawIDAQABo4G9MIG6MAkG
A1UdEwQCMAAwHQYDVR0OBBYEFITS92ATUhB/3ssOfLchLhmFMAoRMFEGA1UdIwRK
MEiAFHpurD5M3/vhC93O1kBdkuRt3R+ioRqkGDAWMRQwEgYDVQQDDAt0ZWFtNDU3
LW5ldIIUcrd/2gyIgiQKvQwLUpF+BykMGnMwEwYDVR0lBAwwCgYIKwYBBQUHAwEw
CwYDVR0PBAQDAgWgMBkGA1UdEQQSMBCCDnRlYW00NTctc2VydmVyMA0GCSqGSIb3
DQEBCwUAA4IBAQBeNdKyxkD+ToyXZ33JZ5dNuKvmIYetxFj61qTugL0VC1xXEOlk
f0cynNKIS4ibYuofPNmRSHZhFsz7l9G6sB3a7byr3vNd5QLI9ZVXbkpUisIAeKW1
ebAgk35XuC01OMbDklBhzo1fkVQpsZD2dC4DBtObU9mCwbDE2dU/1pFypFIenLBo
Zyw7jor3PmwrRlYSQss4Y+JmqR7m7ZtyX5xGzoyup7RtZyAGRlOAzAWz+pBaC0cT
5DQg2BVEvj71KD7/gvvYubntYeRDZPQbgF9qg8B5VP47EM+zs8R9GGpuFS8o7sFy
UHaJerDUOYcbTBBlL81Qx6GOuoyf4IGxXnBk
-----END CERTIFICATE-----
