Certificate:
    Data:
        Version: 3 (0x2)
        Serial Number:
            35:30:f9:4c:79:48:89:a8:b9:0b:55:86:63:bb:1f:1e
        Signature Algorithm: sha256WithRSAEncryption
        Issuer: CN=team456-net
        Validity
            Not Before: May 18 21:25:11 2022 GMT
            Not After : May  2 21:25:11 2025 GMT
        Subject: CN=team456-client
        Subject Public Key Info:
            Public Key Algorithm: rsaEncryption
                RSA Public-Key: (2048 bit)
                Modulus:
                    00:e9:d3:ff:38:6b:05:00:11:bd:80:70:76:57:93:
                    1e:a3:d9:1f:7a:0a:36:ed:20:3a:c6:9d:ed:01:27:
                    87:60:4a:5c:58:52:d5:b4:2a:83:29:5e:44:44:f9:
                    05:aa:98:e0:e9:62:a3:85:ca:c7:90:05:95:f8:9d:
                    bb:f2:3b:34:5b:df:58:9a:61:bd:17:c8:a4:be:1c:
                    ac:46:b5:a8:bf:a7:c4:9b:0e:4e:9e:48:2b:ce:1d:
                    f1:3c:20:46:f1:50:cf:a2:f2:63:5d:81:d1:9e:5d:
                    fd:5b:24:1f:69:1d:22:2a:df:c4:98:29:ed:09:fc:
                    2d:a3:b1:45:b4:0a:f4:eb:51:8e:28:3e:c8:9b:f1:
                    43:df:7e:f8:2f:e0:4b:e8:1f:d4:05:4a:e6:80:30:
                    a0:ba:84:fd:97:07:7e:fb:5e:20:22:3f:20:fc:47:
                    0a:49:9a:42:94:de:c5:80:e3:aa:d3:40:bc:c8:68:
                    64:83:df:f0:d5:00:72:27:47:51:8a:ce:37:a2:83:
                    52:9b:3f:c8:68:69:9f:ff:6f:5d:66:dd:0b:48:67:
                    fe:05:83:b2:0c:f9:bc:ae:fa:48:2a:5c:c1:6b:f6:
                    bf:42:aa:c2:00:93:f5:f9:73:6a:f4:4d:25:09:da:
                    3f:b0:00:d7:2b:82:12:e9:fa:81:23:75:62:09:3d:
                    c3:7b
                Exponent: 65537 (0x10001)
        X509v3 extensions:
            X509v3 Basic Constraints: 
                CA:FALSE
            X509v3 Subject Key Identifier: 
                08:00:1C:83:4E:EB:16:6B:81:28:90:D4:FE:2D:0D:2C:36:82:72:7E
            X509v3 Authority Key Identifier: 
                keyid:4A:EE:A6:31:18:CF:D0:A3:9D:D8:85:4B:BF:B4:A7:7A:9F:A2:46:2D
                DirName:/CN=team456-net
                serial:2C:95:0E:30:E9:A1:E7:D3:05:93:72:4A:BE:9D:3C:4E:25:3C:5B:F2

            X509v3 Extended Key Usage: 
                TLS Web Client Authentication
            X509v3 Key Usage: 
                Digital Signature
    Signature Algorithm: sha256WithRSAEncryption
         5b:da:4f:5c:ce:86:f6:4d:ac:d7:1a:aa:5f:32:4d:f3:55:31:
         c2:45:f1:88:25:1b:d8:47:ea:dc:fa:f5:a6:4b:16:8e:53:74:
         bd:b5:d5:20:34:f6:c9:2c:7f:20:c3:fc:0d:95:14:08:08:34:
         7d:42:a8:d8:80:2f:35:cc:45:62:78:75:e3:5d:97:8f:10:df:
         20:b1:d0:21:9b:43:85:85:d2:24:69:5a:47:3e:4e:ea:c4:c3:
         ae:83:49:6d:0e:da:23:f1:ea:d9:11:5a:4a:51:62:b9:f9:15:
         95:8c:a8:8d:ce:78:98:d8:c6:92:1d:01:f0:ba:1f:db:02:2a:
         87:8a:24:53:57:6e:63:79:55:6b:eb:10:72:9a:cb:9e:20:f9:
         39:5d:ad:06:04:73:f8:f3:f1:a9:47:b6:0f:27:9b:63:e0:15:
         87:91:31:f4:35:a4:6a:87:4a:f1:3a:d4:aa:e9:71:6a:52:ae:
         d5:19:28:31:18:4b:bc:2e:6f:e2:da:60:8f:bc:45:ba:0f:f6:
         13:2a:b2:5b:ed:c3:82:e9:5b:ac:01:fe:9d:da:5e:a3:16:e6:
         34:7e:75:dc:68:10:19:41:56:73:e8:da:66:8b:5f:80:c7:0c:
         64:75:71:3e:5f:e3:bd:48:57:7f:43:2d:2b:9e:76:9c:e4:e4:
         9e:6f:a6:9c
-----BEGIN CERTIFICATE-----
MIIDXDCCAkSgAwIBAgIQNTD5THlIiai5C1WGY7sfHjANBgkqhkiG9w0BAQsFADAW
MRQwEgYDVQQDDAt0ZWFtNDU2LW5ldDAeFw0yMjA1MTgyMTI1MTFaFw0yNTA1MDIy
MTI1MTFaMBkxFzAVBgNVBAMMDnRlYW00NTYtY2xpZW50MIIBIjANBgkqhkiG9w0B
AQEFAAOCAQ8AMIIBCgKCAQEA6dP/OGsFABG9gHB2V5Meo9kfego27SA6xp3tASeH
YEpcWFLVtCqDKV5ERPkFqpjg6WKjhcrHkAWV+J278js0W99YmmG9F8ikvhysRrWo
v6fEmw5Onkgrzh3xPCBG8VDPovJjXYHRnl39WyQfaR0iKt/EmCntCfwto7FFtAr0
61GOKD7Im/FD3374L+BL6B/UBUrmgDCguoT9lwd++14gIj8g/EcKSZpClN7FgOOq
00C8yGhkg9/w1QByJ0dRis43ooNSmz/IaGmf/29dZt0LSGf+BYOyDPm8rvpIKlzB
a/a/QqrCAJP1+XNq9E0lCdo/sADXK4IS6fqBI3ViCT3DewIDAQABo4GiMIGfMAkG
A1UdEwQCMAAwHQYDVR0OBBYEFAgAHINO6xZrgSiQ1P4tDSw2gnJ+MFEGA1UdIwRK
MEiAFErupjEYz9CjndiFS7+0p3qfokYtoRqkGDAWMRQwEgYDVQQDDAt0ZWFtNDU2
LW5ldIIULJUOMOmh59MFk3JKvp08TiU8W/IwEwYDVR0lBAwwCgYIKwYBBQUHAwIw
CwYDVR0PBAQDAgeAMA0GCSqGSIb3DQEBCwUAA4IBAQBb2k9czob2TazXGqpfMk3z
VTHCRfGIJRvYR+rc+vWmSxaOU3S9tdUgNPbJLH8gw/wNlRQICDR9QqjYgC81zEVi
eHXjXZePEN8gsdAhm0OFhdIkaVpHPk7qxMOug0ltDtoj8erZEVpKUWK5+RWVjKiN
zniY2MaSHQHwuh/bAiqHiiRTV25jeVVr6xBymsueIPk5Xa0GBHP48/GpR7YPJ5tj
4BWHkTH0NaRqh0rxOtSq6XFqUq7VGSgxGEu8Lm/i2mCPvEW6D/YTKrJb7cOC6Vus
Af6d2l6jFuY0fnXcaBAZQVZz6Npmi1+AxwxkdXE+X+O9SFd/Qy0rnnac5OSeb6ac
-----END CERTIFICATE-----
