Certificate:
    Data:
        Version: 3 (0x2)
        Serial Number:
            66:52:cc:e5:36:45:63:ed:27:52:9e:63:b8:c2:fc:0a
        Signature Algorithm: sha256WithRSAEncryption
        Issuer: CN=team138-net
        Validity
            Not Before: May 18 18:31:39 2022 GMT
            Not After : May  2 18:31:39 2025 GMT
        Subject: CN=team138-server
        Subject Public Key Info:
            Public Key Algorithm: rsaEncryption
                RSA Public-Key: (2048 bit)
                Modulus:
                    00:d5:76:c4:93:ed:b5:f2:67:d8:f8:b8:2a:82:65:
                    15:ef:9e:35:36:b1:a9:15:3a:05:92:dc:bb:e1:6e:
                    a3:b2:90:95:25:17:cb:a0:90:87:9f:8d:6e:d4:84:
                    2a:38:80:82:bd:8a:11:6b:f4:04:b0:cb:51:d3:d4:
                    01:a6:d5:7e:06:39:10:5c:aa:9b:32:26:a2:db:7f:
                    95:a5:03:b9:31:60:0b:57:f7:94:60:fe:e8:56:5f:
                    92:3f:52:ee:c7:0c:42:01:94:fa:f7:7d:e3:d0:88:
                    16:ab:4f:fc:d4:7b:e8:fa:1d:c2:8e:dd:43:ff:3a:
                    7f:f2:0e:0f:9f:b8:80:f3:56:db:dc:cf:ba:7a:ce:
                    b3:9f:1e:1d:cb:97:ad:3c:d0:36:8a:01:4f:f2:e2:
                    71:9c:53:2a:0b:e2:48:b2:ef:f8:9f:73:b3:f2:6e:
                    de:76:25:ca:21:44:cf:d2:e7:ff:7c:2d:a1:35:a6:
                    9b:3c:d3:75:96:40:82:ce:a0:cc:73:8f:da:3b:20:
                    2d:86:03:29:0f:4c:fe:00:c9:96:99:45:a0:46:19:
                    27:c7:7a:ca:3c:82:0b:3b:39:de:39:77:17:37:d4:
                    77:ed:d5:03:a2:05:6a:b0:fd:ec:ea:96:9b:aa:88:
                    c4:ac:ac:0d:05:10:82:f7:7f:13:d1:fa:e6:5b:5f:
                    42:d1
                Exponent: 65537 (0x10001)
        X509v3 extensions:
            X509v3 Basic Constraints: 
                CA:FALSE
            X509v3 Subject Key Identifier: 
                D1:72:51:F2:AC:FD:59:3B:2B:7E:23:B3:5E:7A:45:31:91:AA:F0:99
            X509v3 Authority Key Identifier: 
                keyid:DB:E1:DA:3F:A5:37:32:36:A4:7F:38:05:8E:98:3A:2F:43:41:C9:35
                DirName:/CN=team138-net
                serial:1F:B5:DA:CD:96:01:E3:CD:FB:09:6F:1E:2B:D7:23:CE:C6:50:79:FC

            X509v3 Extended Key Usage: 
                TLS Web Server Authentication
            X509v3 Key Usage: 
                Digital Signature, Key Encipherment
            X509v3 Subject Alternative Name: 
                DNS:team138-server
    Signature Algorithm: sha256WithRSAEncryption
         1d:51:dc:c4:bb:18:06:4b:d6:d8:df:1d:86:b4:02:e5:f0:8d:
         65:23:ea:81:4d:ad:1f:13:60:7e:a0:cb:71:08:df:a8:7d:e9:
         05:b4:00:a8:9a:9e:80:ec:dc:81:27:1c:be:0c:31:74:29:7e:
         56:24:03:53:60:dc:37:80:59:7a:3b:3b:cc:0e:8a:65:10:96:
         5c:0f:23:2d:5c:19:8b:29:e2:62:49:6e:91:24:dc:91:51:ac:
         6f:b0:05:59:8c:3d:92:b8:3a:7f:3e:fc:bc:dc:ea:be:a3:4b:
         14:8a:41:21:e0:3c:d6:0c:ce:fc:ce:e1:11:41:8e:a5:81:d3:
         bc:ed:ca:d1:3d:9f:57:57:fb:80:f1:76:ab:48:8f:5a:bd:6f:
         3b:b2:a4:a1:f3:ab:3e:11:0c:43:3b:83:1e:3b:0c:e4:6f:a0:
         0b:b9:8b:7c:f1:e6:73:8c:61:3a:a0:7d:52:11:b9:31:22:66:
         6e:c0:99:ab:42:25:d3:1f:39:92:55:41:fe:db:58:43:c6:7f:
         11:c0:5c:eb:4c:85:fd:88:97:95:18:c5:13:6f:3a:c8:56:af:
         9e:ce:08:d8:f8:df:48:a1:dd:65:ad:eb:ef:65:b1:0a:f7:f7:
         ac:c9:81:db:12:38:d4:00:b6:aa:81:fe:1f:4e:17:84:6c:04:
         a0:e3:6e:ae
-----BEGIN CERTIFICATE-----
MIIDdzCCAl+gAwIBAgIQZlLM5TZFY+0nUp5juML8CjANBgkqhkiG9w0BAQsFADAW
MRQwEgYDVQQDDAt0ZWFtMTM4LW5ldDAeFw0yMjA1MTgxODMxMzlaFw0yNTA1MDIx
ODMxMzlaMBkxFzAVBgNVBAMMDnRlYW0xMzgtc2VydmVyMIIBIjANBgkqhkiG9w0B
AQEFAAOCAQ8AMIIBCgKCAQEA1XbEk+218mfY+LgqgmUV7541NrGpFToFkty74W6j
spCVJRfLoJCHn41u1IQqOICCvYoRa/QEsMtR09QBptV+BjkQXKqbMiai23+VpQO5
MWALV/eUYP7oVl+SP1LuxwxCAZT6933j0IgWq0/81Hvo+h3Cjt1D/zp/8g4Pn7iA
81bb3M+6es6znx4dy5etPNA2igFP8uJxnFMqC+JIsu/4n3Oz8m7ediXKIUTP0uf/
fC2hNaabPNN1lkCCzqDMc4/aOyAthgMpD0z+AMmWmUWgRhknx3rKPIILOzneOXcX
N9R37dUDogVqsP3s6pabqojErKwNBRCC938T0frmW19C0QIDAQABo4G9MIG6MAkG
A1UdEwQCMAAwHQYDVR0OBBYEFNFyUfKs/Vk7K34js156RTGRqvCZMFEGA1UdIwRK
MEiAFNvh2j+lNzI2pH84BY6YOi9DQck1oRqkGDAWMRQwEgYDVQQDDAt0ZWFtMTM4
LW5ldIIUH7XazZYB4837CW8eK9cjzsZQefwwEwYDVR0lBAwwCgYIKwYBBQUHAwEw
CwYDVR0PBAQDAgWgMBkGA1UdEQQSMBCCDnRlYW0xMzgtc2VydmVyMA0GCSqGSIb3
DQEBCwUAA4IBAQAdUdzEuxgGS9bY3x2GtALl8I1lI+qBTa0fE2B+oMtxCN+ofekF
tAComp6A7NyBJxy+DDF0KX5WJANTYNw3gFl6OzvMDoplEJZcDyMtXBmLKeJiSW6R
JNyRUaxvsAVZjD2SuDp/Pvy83Oq+o0sUikEh4DzWDM78zuERQY6lgdO87crRPZ9X
V/uA8XarSI9avW87sqSh86s+EQxDO4MeOwzkb6ALuYt88eZzjGE6oH1SEbkxImZu
wJmrQiXTHzmSVUH+21hDxn8RwFzrTIX9iJeVGMUTbzrIVq+ezgjY+N9Iod1lrevv
ZbEK9/esyYHbEjjUALaqgf4fTheEbASg426u
-----END CERTIFICATE-----
