Certificate:
    Data:
        Version: 3 (0x2)
        Serial Number:
            8f:34:f9:34:2e:68:96:7c:71:fa:ee:04:d4:9b:f6:7b
        Signature Algorithm: sha256WithRSAEncryption
        Issuer: CN=team138-net
        Validity
            Not Before: May 18 18:31:38 2022 GMT
            Not After : May  2 18:31:38 2025 GMT
        Subject: CN=team138-client
        Subject Public Key Info:
            Public Key Algorithm: rsaEncryption
                RSA Public-Key: (2048 bit)
                Modulus:
                    00:c5:ec:0f:69:e5:83:b9:a9:c6:33:ac:4c:15:07:
                    76:38:29:2a:03:cc:22:70:0d:ff:88:c0:99:dd:cb:
                    8c:61:15:19:05:6d:33:1c:28:41:9a:b6:d5:04:5f:
                    8c:2c:f6:38:9f:e7:4f:9f:18:09:f2:28:fc:b6:c8:
                    6e:10:44:c3:ac:86:9d:38:35:43:e4:c7:bd:93:45:
                    04:ee:cd:11:5f:54:82:45:f7:f4:2c:96:db:f6:f9:
                    4c:99:72:49:41:f1:56:57:06:45:87:d2:a3:14:4a:
                    f1:05:98:c2:36:85:70:ed:09:71:8b:36:e4:8a:c9:
                    56:84:06:8d:4e:21:2b:a6:03:07:25:d4:eb:96:10:
                    a7:19:67:d1:86:5a:7a:32:b4:47:9d:78:6a:9e:5b:
                    87:89:99:96:f1:c4:a2:43:6f:45:52:6d:42:de:eb:
                    30:97:ad:1f:62:14:01:79:a1:9b:a6:de:a3:91:ce:
                    49:68:e5:39:b0:a4:1d:2e:96:e3:95:ac:3b:e3:97:
                    2b:17:51:0a:4f:ec:50:62:9c:22:72:fc:fc:8f:1d:
                    61:4c:7c:eb:a5:78:66:fc:79:e5:26:1b:9b:7f:2d:
                    6f:dd:21:84:10:11:d0:28:8e:2f:40:b0:6d:78:10:
                    36:4c:e9:a2:1e:eb:9f:cd:87:d9:cd:80:14:d2:db:
                    62:c1
                Exponent: 65537 (0x10001)
        X509v3 extensions:
            X509v3 Basic Constraints: 
                CA:FALSE
            X509v3 Subject Key Identifier: 
                3E:A2:5C:F7:DD:D0:4F:35:E6:7D:C6:1F:25:D5:43:6C:0F:89:4C:FD
            X509v3 Authority Key Identifier: 
                keyid:DB:E1:DA:3F:A5:37:32:36:A4:7F:38:05:8E:98:3A:2F:43:41:C9:35
                DirName:/CN=team138-net
                serial:1F:B5:DA:CD:96:01:E3:CD:FB:09:6F:1E:2B:D7:23:CE:C6:50:79:FC

            X509v3 Extended Key Usage: 
                TLS Web Client Authentication
            X509v3 Key Usage: 
                Digital Signature
    Signature Algorithm: sha256WithRSAEncryption
         8e:ee:d5:77:06:d2:76:da:0f:a5:d0:19:00:bc:1d:d9:e0:45:
         15:1b:81:17:da:5c:a0:72:20:2c:bd:49:49:64:3d:74:8d:62:
         c8:25:a2:31:d3:a1:42:39:ac:2a:52:54:60:1d:5f:d0:67:fc:
         89:c0:89:4e:54:c4:82:34:48:c9:a6:fa:13:3f:ae:ec:38:57:
         28:c7:95:db:59:1e:cb:c8:ae:6a:4c:0c:e2:b9:9a:ee:99:cf:
         74:de:19:38:12:93:48:28:18:40:d3:f9:8f:a8:1f:0d:85:ce:
         e1:ac:69:fa:30:f9:46:97:a2:96:0a:13:59:32:de:6a:69:dc:
         1d:00:98:67:3e:39:fe:9a:1b:b7:b7:cb:7e:1e:46:9a:ca:1a:
         94:01:96:83:99:0a:b0:e7:f6:e2:b2:9e:81:d8:4c:a2:2e:44:
         35:a4:f7:dc:21:01:d9:98:30:86:9c:e8:1c:11:bd:93:0a:f6:
         70:c7:d7:a2:60:cf:59:69:ed:4a:bc:33:74:1b:42:8f:b9:2a:
         26:11:7b:f1:7e:ff:f5:ce:0a:d4:54:33:61:87:b6:8b:80:fb:
         5d:15:da:de:c1:99:5c:1e:eb:1e:57:63:5a:b0:36:18:8f:5e:
         61:08:1c:a9:0f:13:e1:73:59:0c:8d:24:ec:87:f3:84:8d:cb:
         73:e9:fe:f7
-----BEGIN CERTIFICATE-----
MIIDXTCCAkWgAwIBAgIRAI80+TQuaJZ8cfruBNSb9nswDQYJKoZIhvcNAQELBQAw
FjEUMBIGA1UEAwwLdGVhbTEzOC1uZXQwHhcNMjIwNTE4MTgzMTM4WhcNMjUwNTAy
MTgzMTM4WjAZMRcwFQYDVQQDDA50ZWFtMTM4LWNsaWVudDCCASIwDQYJKoZIhvcN
AQEBBQADggEPADCCAQoCggEBAMXsD2nlg7mpxjOsTBUHdjgpKgPMInAN/4jAmd3L
jGEVGQVtMxwoQZq21QRfjCz2OJ/nT58YCfIo/LbIbhBEw6yGnTg1Q+THvZNFBO7N
EV9UgkX39CyW2/b5TJlySUHxVlcGRYfSoxRK8QWYwjaFcO0JcYs25IrJVoQGjU4h
K6YDByXU65YQpxln0YZaejK0R514ap5bh4mZlvHEokNvRVJtQt7rMJetH2IUAXmh
m6beo5HOSWjlObCkHS6W45WsO+OXKxdRCk/sUGKcInL8/I8dYUx866V4Zvx55SYb
m38tb90hhBAR0CiOL0CwbXgQNkzpoh7rn82H2c2AFNLbYsECAwEAAaOBojCBnzAJ
BgNVHRMEAjAAMB0GA1UdDgQWBBQ+olz33dBPNeZ9xh8l1UNsD4lM/TBRBgNVHSME
SjBIgBTb4do/pTcyNqR/OAWOmDovQ0HJNaEapBgwFjEUMBIGA1UEAwwLdGVhbTEz
OC1uZXSCFB+12s2WAePN+wlvHivXI87GUHn8MBMGA1UdJQQMMAoGCCsGAQUFBwMC
MAsGA1UdDwQEAwIHgDANBgkqhkiG9w0BAQsFAAOCAQEAju7VdwbSdtoPpdAZALwd
2eBFFRuBF9pcoHIgLL1JSWQ9dI1iyCWiMdOhQjmsKlJUYB1f0Gf8icCJTlTEgjRI
yab6Ez+u7DhXKMeV21key8iuakwM4rma7pnPdN4ZOBKTSCgYQNP5j6gfDYXO4axp
+jD5RpeilgoTWTLeamncHQCYZz45/pobt7fLfh5GmsoalAGWg5kKsOf24rKegdhM
oi5ENaT33CEB2ZgwhpzoHBG9kwr2cMfXomDPWWntSrwzdBtCj7kqJhF78X7/9c4K
1FQzYYe2i4D7XRXa3sGZXB7rHldjWrA2GI9eYQgcqQ8T4XNZDI0k7IfzhI3Lc+n+
9w==
-----END CERTIFICATE-----
