Certificate:
    Data:
        Version: 3 (0x2)
        Serial Number:
            4f:e5:69:32:81:f8:42:25:b0:f4:ff:b9:6f:1f:77:f1
        Signature Algorithm: sha256WithRSAEncryption
        Issuer: CN=team238-net
        Validity
            Not Before: May 18 19:24:28 2022 GMT
            Not After : May  2 19:24:28 2025 GMT
        Subject: CN=team238-server
        Subject Public Key Info:
            Public Key Algorithm: rsaEncryption
                RSA Public-Key: (2048 bit)
                Modulus:
                    00:bc:d4:82:31:32:28:96:63:c3:61:de:89:62:40:
                    4a:77:b1:33:c6:35:5c:6f:e7:92:a0:49:fa:64:09:
                    da:9d:2b:46:bc:e5:c7:81:97:e4:bd:6f:9c:9b:af:
                    fe:ed:85:80:fd:0f:5b:57:88:9f:8a:8d:70:25:62:
                    ad:de:ab:8a:e8:4c:3b:5a:7f:ef:73:93:2c:5e:6c:
                    55:66:c7:b2:41:78:06:61:33:a6:3c:f4:46:e2:b6:
                    d2:63:0b:90:cc:cb:e5:13:17:7f:fd:2d:ea:08:e6:
                    c1:c5:2c:36:b9:5f:bc:8e:63:b0:81:51:c3:00:72:
                    70:13:29:5e:c3:1e:e5:be:61:45:4b:51:5b:88:03:
                    f5:77:56:40:58:22:42:d6:31:80:6a:0c:1a:c2:2f:
                    0e:52:78:17:94:af:22:c1:31:a4:d0:55:11:d2:f6:
                    ef:91:2f:44:91:f3:ff:05:aa:a1:98:99:a6:98:2f:
                    90:8c:f3:99:32:cc:99:d4:9f:0b:c6:7c:68:03:23:
                    76:f9:4c:38:39:cf:f8:1b:92:1f:9e:76:c8:87:ec:
                    12:40:e9:ce:09:46:e8:80:01:6b:45:cf:3b:de:7e:
                    5c:b7:d1:2c:3f:69:29:dd:bf:ce:0c:71:f3:e4:54:
                    27:7e:52:6d:ff:c7:7d:de:b5:5e:77:94:74:37:f8:
                    11:2d
                Exponent: 65537 (0x10001)
        X509v3 extensions:
            X509v3 Basic Constraints: 
                CA:FALSE
            X509v3 Subject Key Identifier: 
                51:87:FA:97:B3:97:63:E8:56:10:4D:E1:43:D9:37:D6:65:5A:2A:91
            X509v3 Authority Key Identifier: 
                keyid:3B:3A:9E:2F:63:51:A8:22:04:D8:5F:11:8C:01:85:69:90:71:4A:94
                DirName:/CN=team238-net
                serial:6D:54:CC:04:02:92:BD:05:29:CA:2D:18:9F:B6:7C:89:53:37:07:50

            X509v3 Extended Key Usage: 
                TLS Web Server Authentication
            X509v3 Key Usage: 
                Digital Signature, Key Encipherment
            X509v3 Subject Alternative Name: 
                DNS:team238-server
    Signature Algorithm: sha256WithRSAEncryption
         50:d0:69:3c:d2:21:b9:a1:8a:e2:ae:b6:96:ed:22:9e:1e:b1:
         c4:8c:ee:97:91:d7:75:72:8a:a8:ab:69:43:b3:ba:f2:0e:e4:
         ab:3e:2c:24:27:77:59:1d:96:dc:72:71:61:75:a7:17:9c:b1:
         00:4b:cb:1b:3b:64:42:92:c2:6d:2d:74:d0:7c:3c:09:e7:d6:
         de:ed:cb:5e:54:1e:23:0c:60:53:58:7c:41:c4:c4:70:7a:e3:
         e5:5b:bc:eb:b8:8d:17:e5:53:bd:c0:b4:bc:b2:62:5b:c2:12:
         ae:47:59:13:c8:00:f3:fd:75:a1:a1:8f:b6:99:7c:f9:2a:78:
         bf:dd:c2:33:48:db:e2:ee:48:44:20:4b:b2:65:d6:b1:62:ab:
         0a:16:64:c3:28:ee:5e:c0:ef:76:c8:7d:d8:53:9b:25:04:7d:
         7e:ac:ce:2d:1c:23:b8:ae:43:40:87:ac:6d:ff:b9:2e:8d:6b:
         55:ae:f6:2d:dc:9c:e0:f8:b5:27:65:1d:7c:54:97:31:d6:91:
         2b:b3:32:ac:ae:67:c8:bc:72:4c:1a:bf:b8:fe:17:4a:af:8f:
         c6:d2:03:91:55:0b:51:a3:3a:3e:54:ba:63:5c:98:88:95:42:
         88:f7:8a:4a:f6:f3:3f:8e:c1:9f:f1:6f:6a:9f:ba:16:49:02:
         73:83:4f:00
-----BEGIN CERTIFICATE-----
MIIDdzCCAl+gAwIBAgIQT+VpMoH4QiWw9P+5bx938TANBgkqhkiG9w0BAQsFADAW
MRQwEgYDVQQDDAt0ZWFtMjM4LW5ldDAeFw0yMjA1MTgxOTI0MjhaFw0yNTA1MDIx
OTI0MjhaMBkxFzAVBgNVBAMMDnRlYW0yMzgtc2VydmVyMIIBIjANBgkqhkiG9w0B
AQEFAAOCAQ8AMIIBCgKCAQEAvNSCMTIolmPDYd6JYkBKd7EzxjVcb+eSoEn6ZAna
nStGvOXHgZfkvW+cm6/+7YWA/Q9bV4ifio1wJWKt3quK6Ew7Wn/vc5MsXmxVZsey
QXgGYTOmPPRG4rbSYwuQzMvlExd//S3qCObBxSw2uV+8jmOwgVHDAHJwEylewx7l
vmFFS1FbiAP1d1ZAWCJC1jGAagwawi8OUngXlK8iwTGk0FUR0vbvkS9EkfP/Baqh
mJmmmC+QjPOZMsyZ1J8LxnxoAyN2+Uw4Oc/4G5IfnnbIh+wSQOnOCUbogAFrRc87
3n5ct9EsP2kp3b/ODHHz5FQnflJt/8d93rVed5R0N/gRLQIDAQABo4G9MIG6MAkG
A1UdEwQCMAAwHQYDVR0OBBYEFFGH+pezl2PoVhBN4UPZN9ZlWiqRMFEGA1UdIwRK
MEiAFDs6ni9jUagiBNhfEYwBhWmQcUqUoRqkGDAWMRQwEgYDVQQDDAt0ZWFtMjM4
LW5ldIIUbVTMBAKSvQUpyi0Yn7Z8iVM3B1AwEwYDVR0lBAwwCgYIKwYBBQUHAwEw
CwYDVR0PBAQDAgWgMBkGA1UdEQQSMBCCDnRlYW0yMzgtc2VydmVyMA0GCSqGSIb3
DQEBCwUAA4IBAQBQ0Gk80iG5oYrirraW7SKeHrHEjO6Xkdd1coqoq2lDs7ryDuSr
PiwkJ3dZHZbccnFhdacXnLEAS8sbO2RCksJtLXTQfDwJ59be7cteVB4jDGBTWHxB
xMRweuPlW7zruI0X5VO9wLS8smJbwhKuR1kTyADz/XWhoY+2mXz5Kni/3cIzSNvi
7khEIEuyZdaxYqsKFmTDKO5ewO92yH3YU5slBH1+rM4tHCO4rkNAh6xt/7kujWtV
rvYt3Jzg+LUnZR18VJcx1pErszKsrmfIvHJMGr+4/hdKr4/G0gORVQtRozo+VLpj
XJiIlUKI94pK9vM/jsGf8W9qn7oWSQJzg08A
-----END CERTIFICATE-----
