Certificate:
    Data:
        Version: 3 (0x2)
        Serial Number:
            76:25:e2:b7:41:22:82:84:42:12:eb:f6:84:ee:94:cc
        Signature Algorithm: sha256WithRSAEncryption
        Issuer: CN=team211-net
        Validity
            Not Before: May 18 19:15:58 2022 GMT
            Not After : May  2 19:15:58 2025 GMT
        Subject: CN=team211-server
        Subject Public Key Info:
            Public Key Algorithm: rsaEncryption
                RSA Public-Key: (2048 bit)
                Modulus:
                    00:b0:aa:cd:ba:02:23:9e:fb:ce:7c:31:25:79:a4:
                    54:68:4b:6a:c0:ef:c6:39:18:87:4f:5a:bf:6c:0a:
                    e4:2e:46:b5:16:1b:14:52:e3:05:85:b4:cd:52:73:
                    9e:18:94:7f:60:5d:6e:fe:a4:e7:6c:01:af:9e:9f:
                    e8:56:5f:18:37:52:2e:8a:af:67:df:57:51:50:62:
                    17:d1:ec:a9:1e:1f:f7:f2:eb:46:71:1d:76:59:33:
                    e4:af:c7:47:3f:c6:56:86:67:fc:37:58:48:a1:b4:
                    5c:d2:bf:f6:18:7d:46:6b:51:a6:1b:87:bb:72:74:
                    06:b2:88:f6:25:70:eb:f6:93:57:1b:42:fe:b0:55:
                    1d:60:1b:16:5d:b9:c3:8e:a5:54:ab:59:1b:72:1d:
                    97:92:4a:a7:10:dc:15:fd:c0:3d:b4:d7:33:91:80:
                    ef:c0:8b:a0:04:a3:17:13:0c:a2:00:4d:da:e9:52:
                    73:c3:12:14:3e:12:41:07:bb:84:ff:75:0a:cd:40:
                    04:ce:77:5d:0b:01:16:4c:20:45:ea:18:c2:c7:cd:
                    36:a8:b6:34:80:9e:e2:97:41:9b:ac:44:9b:1a:46:
                    76:83:17:7f:ef:52:3b:88:32:70:00:71:a0:b7:53:
                    9f:a2:9f:b1:44:24:ab:46:c3:dd:02:7f:9d:74:04:
                    cf:55
                Exponent: 65537 (0x10001)
        X509v3 extensions:
            X509v3 Basic Constraints: 
                CA:FALSE
            X509v3 Subject Key Identifier: 
                6E:E1:54:03:C5:54:F8:0C:49:9A:12:0B:4A:8B:BF:39:A0:76:DB:2E
            X509v3 Authority Key Identifier: 
                keyid:4A:A3:55:4B:1F:90:33:77:DC:10:D0:5D:4C:E3:04:AF:27:33:60:94
                DirName:/CN=team211-net
                serial:1A:C8:CF:F7:BC:35:74:E7:04:41:05:94:6C:A9:A5:5F:4C:C3:4D:68

            X509v3 Extended Key Usage: 
                TLS Web Server Authentication
            X509v3 Key Usage: 
                Digital Signature, Key Encipherment
            X509v3 Subject Alternative Name: 
                DNS:team211-server
    Signature Algorithm: sha256WithRSAEncryption
         54:95:31:0e:86:72:3e:55:47:57:54:a8:e4:c9:ba:e9:11:27:
         eb:fd:11:33:fb:14:f3:af:fe:17:55:bc:3b:88:aa:80:ab:d4:
         38:bd:2e:b6:70:8e:e9:8c:de:8d:1c:77:cc:f3:e9:cb:6d:57:
         9a:08:d4:5e:7f:13:b6:b3:08:87:b1:4f:7c:12:ad:63:dc:eb:
         ce:34:26:5c:3f:b7:5b:7e:75:0f:40:86:4c:73:47:08:fd:8e:
         e9:c2:b1:f3:eb:29:ea:19:2e:5e:57:b5:8f:88:c1:5b:9f:59:
         5e:d5:a4:39:7d:e8:08:bf:97:7b:fa:51:bb:c3:78:ce:ba:8e:
         d3:92:a5:c6:4f:7a:ef:9d:3c:0c:1d:91:e9:76:9d:56:a4:be:
         65:55:35:b0:6c:e9:b5:fa:8b:0e:10:f7:0d:08:eb:4f:68:cf:
         29:82:23:92:cc:a6:92:84:4b:fb:be:f8:92:e7:e6:2c:98:54:
         ee:05:74:9f:d2:b3:cf:82:50:3e:35:df:f1:01:a5:a9:08:78:
         0f:cb:9b:96:44:c8:a8:5b:38:03:41:9b:3a:06:37:65:fc:78:
         f3:68:d5:9b:4e:48:18:5b:46:b6:66:47:c0:5c:6a:95:24:1c:
         65:69:57:16:84:49:bb:3e:42:09:21:9c:6e:43:73:c1:0c:ba:
         a1:1b:e7:f5
-----BEGIN CERTIFICATE-----
MIIDdzCCAl+gAwIBAgIQdiXit0EigoRCEuv2hO6UzDANBgkqhkiG9w0BAQsFADAW
MRQwEgYDVQQDDAt0ZWFtMjExLW5ldDAeFw0yMjA1MTgxOTE1NThaFw0yNTA1MDIx
OTE1NThaMBkxFzAVBgNVBAMMDnRlYW0yMTEtc2VydmVyMIIBIjANBgkqhkiG9w0B
AQEFAAOCAQ8AMIIBCgKCAQEAsKrNugIjnvvOfDEleaRUaEtqwO/GORiHT1q/bArk
Lka1FhsUUuMFhbTNUnOeGJR/YF1u/qTnbAGvnp/oVl8YN1Iuiq9n31dRUGIX0eyp
Hh/38utGcR12WTPkr8dHP8ZWhmf8N1hIobRc0r/2GH1Ga1GmG4e7cnQGsoj2JXDr
9pNXG0L+sFUdYBsWXbnDjqVUq1kbch2XkkqnENwV/cA9tNczkYDvwIugBKMXEwyi
AE3a6VJzwxIUPhJBB7uE/3UKzUAEznddCwEWTCBF6hjCx802qLY0gJ7il0GbrESb
GkZ2gxd/71I7iDJwAHGgt1Ofop+xRCSrRsPdAn+ddATPVQIDAQABo4G9MIG6MAkG
A1UdEwQCMAAwHQYDVR0OBBYEFG7hVAPFVPgMSZoSC0qLvzmgdtsuMFEGA1UdIwRK
MEiAFEqjVUsfkDN33BDQXUzjBK8nM2CUoRqkGDAWMRQwEgYDVQQDDAt0ZWFtMjEx
LW5ldIIUGsjP97w1dOcEQQWUbKmlX0zDTWgwEwYDVR0lBAwwCgYIKwYBBQUHAwEw
CwYDVR0PBAQDAgWgMBkGA1UdEQQSMBCCDnRlYW0yMTEtc2VydmVyMA0GCSqGSIb3
DQEBCwUAA4IBAQBUlTEOhnI+VUdXVKjkybrpESfr/REz+xTzr/4XVbw7iKqAq9Q4
vS62cI7pjN6NHHfM8+nLbVeaCNRefxO2swiHsU98Eq1j3OvONCZcP7dbfnUPQIZM
c0cI/Y7pwrHz6ynqGS5eV7WPiMFbn1le1aQ5fegIv5d7+lG7w3jOuo7TkqXGT3rv
nTwMHZHpdp1WpL5lVTWwbOm1+osOEPcNCOtPaM8pgiOSzKaShEv7vviS5+YsmFTu
BXSf0rPPglA+Nd/xAaWpCHgPy5uWRMioWzgDQZs6Bjdl/HjzaNWbTkgYW0a2ZkfA
XGqVJBxlaVcWhEm7PkIJIZxuQ3PBDLqhG+f1
-----END CERTIFICATE-----
