Certificate:
    Data:
        Version: 3 (0x2)
        Serial Number:
            5c:99:74:1e:86:18:da:33:6a:e2:9e:7a:c9:04:2b:33
        Signature Algorithm: sha256WithRSAEncryption
        Issuer: CN=team528-net
        Validity
            Not Before: May 18 22:03:22 2022 GMT
            Not After : May  2 22:03:22 2025 GMT
        Subject: CN=team528-server
        Subject Public Key Info:
            Public Key Algorithm: rsaEncryption
                RSA Public-Key: (2048 bit)
                Modulus:
                    00:bc:5d:16:7c:5b:23:0a:de:00:9f:a0:67:de:74:
                    e1:cb:fb:7f:01:b0:eb:4b:96:57:08:85:38:a0:01:
                    b7:71:ef:5d:d4:62:be:72:cd:18:41:5c:29:a5:b7:
                    39:64:03:06:9e:34:ef:63:5b:17:70:4f:27:64:f8:
                    01:f2:5b:b2:04:fb:0a:ce:4d:77:8b:af:72:f1:13:
                    fb:61:d7:a6:bf:db:3e:75:96:35:16:44:19:c1:c7:
                    14:bd:45:3d:4a:7a:c8:14:04:e2:ff:26:e9:4a:c4:
                    cc:4e:1c:5b:39:3d:20:ea:81:a5:e3:1a:f8:03:a9:
                    93:97:b0:da:58:a6:90:1d:6b:33:b3:aa:01:76:8a:
                    9d:88:70:ad:f3:f7:55:2e:09:11:5b:2f:ae:d5:b7:
                    fe:ea:19:b2:e5:51:56:8c:b6:9e:56:b7:2e:f2:62:
                    36:cb:5c:bc:ad:10:d5:73:7e:5d:38:7b:ee:4f:4b:
                    56:8e:c3:c1:af:7d:9f:8a:5f:b6:8d:f3:ae:b5:6d:
                    45:22:c5:51:95:5d:df:33:2d:01:d8:70:78:7d:8d:
                    b0:cf:be:b7:c9:5e:f4:3e:82:77:35:4e:f1:e3:88:
                    94:a4:f0:48:7d:68:e1:14:af:63:ee:7a:15:0e:b7:
                    c2:af:85:0e:ea:59:66:1b:82:2b:ae:fb:7e:f6:4d:
                    31:c3
                Exponent: 65537 (0x10001)
        X509v3 extensions:
            X509v3 Basic Constraints: 
                CA:FALSE
            X509v3 Subject Key Identifier: 
                C8:AC:65:C4:F2:C2:0E:48:AD:43:9E:DD:D9:C3:F5:10:AB:07:B7:3D
            X509v3 Authority Key Identifier: 
                keyid:70:08:B0:A0:1D:B5:73:80:DB:F6:77:41:77:29:93:B8:6B:F3:BD:60
                DirName:/CN=team528-net
                serial:57:BA:01:CB:93:8F:A8:35:44:99:6A:FB:BA:B9:48:0D:39:63:DC:20

            X509v3 Extended Key Usage: 
                TLS Web Server Authentication
            X509v3 Key Usage: 
                Digital Signature, Key Encipherment
            X509v3 Subject Alternative Name: 
                DNS:team528-server
    Signature Algorithm: sha256WithRSAEncryption
         80:e2:9c:3a:ee:89:3f:53:2f:79:67:c9:d7:1b:12:f9:37:34:
         21:6c:c0:84:6e:32:c0:f6:b5:88:66:14:17:34:3e:95:5a:9c:
         4c:56:65:5a:0f:6f:bb:2c:b3:76:36:7c:c9:88:cd:44:0f:d2:
         6b:78:af:b1:db:ed:47:a3:c6:62:12:13:0a:9b:08:2a:c3:4e:
         45:38:2c:96:32:0c:55:68:55:20:fc:2b:69:61:49:0c:2c:51:
         fb:c9:bc:ad:a3:36:5b:77:eb:af:c0:8d:78:bf:a1:ae:2a:a8:
         bf:6e:18:9e:a9:e2:f5:3c:4d:6a:ec:51:32:0a:43:8c:43:75:
         83:61:c1:00:40:a4:ab:2f:6c:10:4d:c3:57:8a:9e:b8:a6:8d:
         8f:74:00:68:63:68:7b:a3:05:72:49:a1:21:2a:78:71:6c:d0:
         39:8b:13:db:d7:5c:c7:b7:1f:34:07:23:d7:96:9c:e4:dc:bf:
         41:c3:15:20:82:fc:7b:6e:0e:6a:ad:37:d7:f0:56:46:b9:1c:
         df:ab:f1:94:8b:c9:7a:22:ec:92:9c:6f:3e:ea:65:b5:85:64:
         37:45:f7:8b:bb:1c:1d:7c:ac:e3:20:23:f1:47:20:80:52:8f:
         39:1f:c2:c1:23:97:d7:e2:5b:93:94:0c:42:72:90:ce:67:f6:
         b1:fc:bd:d6
-----BEGIN CERTIFICATE-----
MIIDdzCCAl+gAwIBAgIQXJl0HoYY2jNq4p56yQQrMzANBgkqhkiG9w0BAQsFADAW
MRQwEgYDVQQDDAt0ZWFtNTI4LW5ldDAeFw0yMjA1MTgyMjAzMjJaFw0yNTA1MDIy
MjAzMjJaMBkxFzAVBgNVBAMMDnRlYW01Mjgtc2VydmVyMIIBIjANBgkqhkiG9w0B
AQEFAAOCAQ8AMIIBCgKCAQEAvF0WfFsjCt4An6Bn3nThy/t/AbDrS5ZXCIU4oAG3
ce9d1GK+cs0YQVwppbc5ZAMGnjTvY1sXcE8nZPgB8luyBPsKzk13i69y8RP7Ydem
v9s+dZY1FkQZwccUvUU9SnrIFATi/ybpSsTMThxbOT0g6oGl4xr4A6mTl7DaWKaQ
HWszs6oBdoqdiHCt8/dVLgkRWy+u1bf+6hmy5VFWjLaeVrcu8mI2y1y8rRDVc35d
OHvuT0tWjsPBr32fil+2jfOutW1FIsVRlV3fMy0B2HB4fY2wz763yV70PoJ3NU7x
44iUpPBIfWjhFK9j7noVDrfCr4UO6llmG4Irrvt+9k0xwwIDAQABo4G9MIG6MAkG
A1UdEwQCMAAwHQYDVR0OBBYEFMisZcTywg5IrUOe3dnD9RCrB7c9MFEGA1UdIwRK
MEiAFHAIsKAdtXOA2/Z3QXcpk7hr871goRqkGDAWMRQwEgYDVQQDDAt0ZWFtNTI4
LW5ldIIUV7oBy5OPqDVEmWr7urlIDTlj3CAwEwYDVR0lBAwwCgYIKwYBBQUHAwEw
CwYDVR0PBAQDAgWgMBkGA1UdEQQSMBCCDnRlYW01Mjgtc2VydmVyMA0GCSqGSIb3
DQEBCwUAA4IBAQCA4pw67ok/Uy95Z8nXGxL5NzQhbMCEbjLA9rWIZhQXND6VWpxM
VmVaD2+7LLN2NnzJiM1ED9JreK+x2+1Ho8ZiEhMKmwgqw05FOCyWMgxVaFUg/Ctp
YUkMLFH7ybytozZbd+uvwI14v6GuKqi/bhieqeL1PE1q7FEyCkOMQ3WDYcEAQKSr
L2wQTcNXip64po2PdABoY2h7owVySaEhKnhxbNA5ixPb11zHtx80ByPXlpzk3L9B
wxUggvx7bg5qrTfX8FZGuRzfq/GUi8l6IuySnG8+6mW1hWQ3RfeLuxwdfKzjICPx
RyCAUo85H8LBI5fX4luTlAxCcpDOZ/ax/L3W
-----END CERTIFICATE-----
