Certificate:
    Data:
        Version: 3 (0x2)
        Serial Number:
            1e:c8:0a:db:fb:e6:10:04:19:62:0d:65:47:43:0f:64
        Signature Algorithm: sha256WithRSAEncryption
        Issuer: CN=team749-net
        Validity
            Not Before: May 19 00:03:57 2022 GMT
            Not After : May  3 00:03:57 2025 GMT
        Subject: CN=team749-client
        Subject Public Key Info:
            Public Key Algorithm: rsaEncryption
                RSA Public-Key: (2048 bit)
                Modulus:
                    00:e6:9f:34:46:14:76:be:4b:53:4a:f0:9f:d0:20:
                    cb:99:38:be:e9:42:46:e5:e7:0b:75:4f:49:ec:00:
                    b2:84:c0:4d:6f:80:9d:53:02:3c:9c:f4:bc:74:1c:
                    6e:04:d4:57:da:4c:81:e1:12:84:a9:07:a5:aa:e9:
                    ad:75:fd:08:4c:2a:66:3f:be:fe:88:c7:15:d9:bf:
                    0a:d8:e1:eb:90:df:34:13:e8:7e:61:cd:be:5b:4f:
                    2e:ab:5d:2c:d0:7d:bb:0d:78:ff:bf:54:3b:c3:01:
                    a0:e0:2c:a5:b6:8e:e2:38:98:15:14:26:4a:db:5a:
                    cc:16:81:7e:22:18:97:d3:b8:ea:1f:e7:27:7d:fb:
                    0d:65:62:c5:e8:21:be:32:d1:89:2e:28:ff:2d:56:
                    59:fb:37:ae:10:02:e3:e2:cf:a2:48:0e:d5:11:b1:
                    49:35:a4:52:d2:6b:5d:b6:97:46:01:54:3a:2e:b3:
                    1b:99:05:65:1e:97:cc:da:19:d5:74:e8:1f:ca:42:
                    31:9e:23:9a:ed:16:14:14:d5:c7:6a:b1:7e:3d:31:
                    bc:48:2b:8a:c5:65:ce:40:58:15:d2:86:1c:1b:d3:
                    dc:60:54:3d:c4:3f:20:17:e4:79:aa:1b:85:76:72:
                    f7:65:6e:eb:f3:38:02:ba:5f:f1:25:94:7e:e6:c5:
                    e1:3d
                Exponent: 65537 (0x10001)
        X509v3 extensions:
            X509v3 Basic Constraints: 
                CA:FALSE
            X509v3 Subject Key Identifier: 
                35:E3:AA:FC:82:13:61:18:8D:CC:C8:F2:48:84:28:DD:DD:8F:8D:ED
            X509v3 Authority Key Identifier: 
                keyid:19:07:DC:04:54:61:A5:D8:16:3B:8C:76:6A:62:19:89:A5:E3:1C:27
                DirName:/CN=team749-net
                serial:45:BC:69:51:A7:A4:3B:7D:19:10:76:16:27:67:31:4E:EF:2C:7E:9E

            X509v3 Extended Key Usage: 
                TLS Web Client Authentication
            X509v3 Key Usage: 
                Digital Signature
    Signature Algorithm: sha256WithRSAEncryption
         99:2e:ef:92:45:9a:94:00:56:0e:7e:2b:a0:29:44:bb:aa:06:
         24:e9:f4:9c:c1:8c:77:22:30:36:44:e0:55:5e:7b:48:4d:6a:
         d9:92:c0:d3:30:f9:ab:fa:d8:c4:cc:cc:d1:07:96:8e:4f:17:
         4d:f3:e9:de:33:4a:7a:ff:f9:a8:4d:ca:49:3f:7c:c3:65:bf:
         20:96:8c:2a:2e:62:e7:77:4a:8c:9a:18:08:22:9f:0f:41:04:
         18:a0:e0:97:51:d1:f2:39:e8:22:00:2e:0f:c1:31:54:40:27:
         73:14:b7:40:8b:27:d2:9b:71:c9:ce:c5:97:d5:c2:fa:c2:73:
         50:dc:30:a7:8c:ef:fa:e5:1d:55:46:7f:75:c9:90:af:85:97:
         c8:59:f5:4b:fb:c3:11:c1:bf:d9:ba:66:1c:f6:50:29:aa:f5:
         45:33:9f:bf:60:db:81:26:88:4e:7a:cb:6e:f6:42:94:c0:99:
         6d:59:0b:52:6f:db:e6:70:be:34:d9:c4:04:31:a7:26:90:09:
         11:4d:9f:13:04:2f:b1:42:30:41:e8:e8:23:b0:8c:ba:24:b8:
         5a:ca:8e:0b:f1:7c:e1:b9:9a:45:5f:44:60:db:78:27:fb:25:
         f4:74:fc:0d:e6:52:0e:61:fb:e9:9a:9b:19:57:25:c8:cc:38:
         5e:7e:ae:9d
-----BEGIN CERTIFICATE-----
MIIDXDCCAkSgAwIBAgIQHsgK2/vmEAQZYg1lR0MPZDANBgkqhkiG9w0BAQsFADAW
MRQwEgYDVQQDDAt0ZWFtNzQ5LW5ldDAeFw0yMjA1MTkwMDAzNTdaFw0yNTA1MDMw
MDAzNTdaMBkxFzAVBgNVBAMMDnRlYW03NDktY2xpZW50MIIBIjANBgkqhkiG9w0B
AQEFAAOCAQ8AMIIBCgKCAQEA5p80RhR2vktTSvCf0CDLmTi+6UJG5ecLdU9J7ACy
hMBNb4CdUwI8nPS8dBxuBNRX2kyB4RKEqQelqumtdf0ITCpmP77+iMcV2b8K2OHr
kN80E+h+Yc2+W08uq10s0H27DXj/v1Q7wwGg4Cylto7iOJgVFCZK21rMFoF+IhiX
07jqH+cnffsNZWLF6CG+MtGJLij/LVZZ+zeuEALj4s+iSA7VEbFJNaRS0mtdtpdG
AVQ6LrMbmQVlHpfM2hnVdOgfykIxniOa7RYUFNXHarF+PTG8SCuKxWXOQFgV0oYc
G9PcYFQ9xD8gF+R5qhuFdnL3ZW7r8zgCul/xJZR+5sXhPQIDAQABo4GiMIGfMAkG
A1UdEwQCMAAwHQYDVR0OBBYEFDXjqvyCE2EYjczI8kiEKN3dj43tMFEGA1UdIwRK
MEiAFBkH3ARUYaXYFjuMdmpiGYml4xwnoRqkGDAWMRQwEgYDVQQDDAt0ZWFtNzQ5
LW5ldIIURbxpUaekO30ZEHYWJ2cxTu8sfp4wEwYDVR0lBAwwCgYIKwYBBQUHAwIw
CwYDVR0PBAQDAgeAMA0GCSqGSIb3DQEBCwUAA4IBAQCZLu+SRZqUAFYOfiugKUS7
qgYk6fScwYx3IjA2ROBVXntITWrZksDTMPmr+tjEzMzRB5aOTxdN8+neM0p6//mo
TcpJP3zDZb8glowqLmLnd0qMmhgIIp8PQQQYoOCXUdHyOegiAC4PwTFUQCdzFLdA
iyfSm3HJzsWX1cL6wnNQ3DCnjO/65R1VRn91yZCvhZfIWfVL+8MRwb/ZumYc9lAp
qvVFM5+/YNuBJohOestu9kKUwJltWQtSb9vmcL402cQEMacmkAkRTZ8TBC+xQjBB
6OgjsIy6JLhayo4L8XzhuZpFX0Rg23gn+yX0dPwN5lIOYfvpmpsZVyXIzDhefq6d
-----END CERTIFICATE-----
