Certificate:
    Data:
        Version: 3 (0x2)
        Serial Number:
            de:20:5b:9d:5b:f3:fa:f1:08:b3:55:e0:b5:c9:0c:c6
        Signature Algorithm: sha256WithRSAEncryption
        Issuer: CN=team461-net
        Validity
            Not Before: May 18 21:21:13 2022 GMT
            Not After : May  2 21:21:13 2025 GMT
        Subject: CN=team461-client
        Subject Public Key Info:
            Public Key Algorithm: rsaEncryption
                RSA Public-Key: (2048 bit)
                Modulus:
                    00:e7:af:9d:79:8b:a2:cd:62:5d:66:fb:99:84:9e:
                    47:4c:0c:57:16:36:81:cf:90:a2:e6:0c:87:f8:4d:
                    f4:2d:a1:a3:3b:d3:a7:f6:95:a2:89:16:84:b1:78:
                    42:24:97:13:b5:0a:da:3c:7a:73:da:b7:d0:a4:aa:
                    05:9f:ef:dd:d3:8e:91:8c:13:05:8b:b7:59:72:da:
                    c2:a7:de:0c:43:19:a1:de:e5:fe:56:1f:ba:84:53:
                    71:72:b7:80:13:e8:09:32:65:17:f5:3b:3a:3a:85:
                    fe:2e:76:04:ae:0c:25:d2:9f:ed:a1:ae:89:7f:8b:
                    94:1f:fe:ae:df:1f:a8:f9:87:1b:6d:d2:df:7b:d5:
                    5a:81:44:bb:4d:29:ed:e6:c3:7c:f0:97:18:ef:c3:
                    24:ed:29:8e:83:9b:13:ba:c5:fe:67:1d:b7:fe:98:
                    68:9b:7d:ad:fa:fb:60:9e:be:9e:a1:6a:8c:df:76:
                    e6:2b:fa:d7:4d:90:29:4e:d5:14:e8:94:d0:04:f8:
                    ee:da:7d:ce:d3:de:71:79:cc:4d:bb:61:9e:b9:a5:
                    56:5f:53:d1:4b:54:5c:94:39:46:5e:db:eb:c3:c3:
                    b6:4a:b4:2f:18:dc:f6:9f:0a:a8:1e:c8:a6:b7:8a:
                    73:d8:1e:1e:0f:de:93:4d:74:1d:10:04:fc:47:86:
                    b8:27
                Exponent: 65537 (0x10001)
        X509v3 extensions:
            X509v3 Basic Constraints: 
                CA:FALSE
            X509v3 Subject Key Identifier: 
                93:66:B1:61:78:55:AE:04:05:DC:33:F2:E6:4B:EB:C4:77:CF:AC:05
            X509v3 Authority Key Identifier: 
                keyid:23:5A:3D:72:3A:CB:34:6D:51:06:48:73:E2:98:98:51:14:89:16:2D
                DirName:/CN=team461-net
                serial:38:15:18:8C:5F:81:A8:1F:89:B6:0C:3D:12:49:D5:68:4E:8C:45:6D

            X509v3 Extended Key Usage: 
                TLS Web Client Authentication
            X509v3 Key Usage: 
                Digital Signature
    Signature Algorithm: sha256WithRSAEncryption
         1a:fe:7e:73:22:15:1a:3c:20:5a:83:bd:e0:0c:6c:91:c2:d8:
         0c:5c:ba:78:12:28:ff:d0:40:a3:a8:ca:d6:ae:fb:a7:ec:67:
         4d:70:4c:32:ad:b9:42:81:88:fd:a7:41:d8:c3:c6:d9:ae:38:
         63:aa:2d:36:41:fc:51:b3:c0:13:c0:55:c3:89:51:b2:8f:63:
         01:ff:4b:0c:e5:a0:43:d6:74:81:b3:2e:cd:79:4c:db:f1:59:
         58:de:45:ad:24:f2:cc:44:21:3f:d9:93:45:30:94:72:62:0f:
         df:63:64:30:88:2a:39:14:4f:93:e3:14:cf:2e:e0:35:83:e4:
         d5:c2:0d:f3:0b:c2:a0:f0:ba:50:5a:0c:5e:f5:7c:04:7d:ba:
         72:b2:89:8c:d6:e2:fd:a3:c8:0e:0b:94:87:c3:91:52:e3:f6:
         ec:6f:ff:7a:44:3a:f5:6a:60:0f:80:e5:b2:fa:2d:d5:89:42:
         ea:27:e1:fe:c5:4c:21:50:80:7b:7a:6c:51:9a:be:07:0f:0b:
         a0:99:88:72:dc:aa:32:48:75:87:9d:3b:24:f6:69:23:97:ab:
         5e:0e:f2:a6:9e:b8:e1:f9:b9:18:e2:5c:f5:dc:30:5c:ae:04:
         fc:2e:0a:e0:42:22:eb:ab:43:75:fd:26:e1:bd:e5:2c:a6:17:
         2d:0f:f7:1e
-----BEGIN CERTIFICATE-----
MIIDXTCCAkWgAwIBAgIRAN4gW51b8/rxCLNV4LXJDMYwDQYJKoZIhvcNAQELBQAw
FjEUMBIGA1UEAwwLdGVhbTQ2MS1uZXQwHhcNMjIwNTE4MjEyMTEzWhcNMjUwNTAy
MjEyMTEzWjAZMRcwFQYDVQQDDA50ZWFtNDYxLWNsaWVudDCCASIwDQYJKoZIhvcN
AQEBBQADggEPADCCAQoCggEBAOevnXmLos1iXWb7mYSeR0wMVxY2gc+QouYMh/hN
9C2hozvTp/aVookWhLF4QiSXE7UK2jx6c9q30KSqBZ/v3dOOkYwTBYu3WXLawqfe
DEMZod7l/lYfuoRTcXK3gBPoCTJlF/U7OjqF/i52BK4MJdKf7aGuiX+LlB/+rt8f
qPmHG23S33vVWoFEu00p7ebDfPCXGO/DJO0pjoObE7rF/mcdt/6YaJt9rfr7YJ6+
nqFqjN925iv6102QKU7VFOiU0AT47tp9ztPecXnMTbthnrmlVl9T0UtUXJQ5Rl7b
68PDtkq0Lxjc9p8KqB7IpreKc9geHg/ek010HRAE/EeGuCcCAwEAAaOBojCBnzAJ
BgNVHRMEAjAAMB0GA1UdDgQWBBSTZrFheFWuBAXcM/LmS+vEd8+sBTBRBgNVHSME
SjBIgBQjWj1yOss0bVEGSHPimJhRFIkWLaEapBgwFjEUMBIGA1UEAwwLdGVhbTQ2
MS1uZXSCFDgVGIxfgagfibYMPRJJ1WhOjEVtMBMGA1UdJQQMMAoGCCsGAQUFBwMC
MAsGA1UdDwQEAwIHgDANBgkqhkiG9w0BAQsFAAOCAQEAGv5+cyIVGjwgWoO94Axs
kcLYDFy6eBIo/9BAo6jK1q77p+xnTXBMMq25QoGI/adB2MPG2a44Y6otNkH8UbPA
E8BVw4lRso9jAf9LDOWgQ9Z0gbMuzXlM2/FZWN5FrSTyzEQhP9mTRTCUcmIP32Nk
MIgqORRPk+MUzy7gNYPk1cIN8wvCoPC6UFoMXvV8BH26crKJjNbi/aPIDguUh8OR
UuP27G//ekQ69WpgD4Dlsvot1YlC6ifh/sVMIVCAe3psUZq+Bw8LoJmIctyqMkh1
h507JPZpI5erXg7ypp644fm5GOJc9dwwXK4E/C4K4EIi66tDdf0m4b3lLKYXLQ/3
Hg==
-----END CERTIFICATE-----
