Certificate:
    Data:
        Version: 3 (0x2)
        Serial Number:
            2e:9f:ad:9f:55:79:8f:b7:3f:e5:10:be:92:1a:9e:31
        Signature Algorithm: sha256WithRSAEncryption
        Issuer: CN=team751-net
        Validity
            Not Before: May 19 00:15:30 2022 GMT
            Not After : May  3 00:15:30 2025 GMT
        Subject: CN=team751-server
        Subject Public Key Info:
            Public Key Algorithm: rsaEncryption
                RSA Public-Key: (2048 bit)
                Modulus:
                    00:b0:86:f3:ff:60:50:41:87:a2:3d:dd:72:47:b7:
                    cd:30:f4:07:39:ad:d1:35:91:93:13:03:43:d6:33:
                    38:35:9a:da:66:32:77:ed:48:97:c7:e4:93:71:7d:
                    e1:4e:f7:77:06:01:5b:75:9a:d8:90:54:eb:ab:05:
                    ce:32:ca:11:fa:33:c2:a9:fc:15:54:be:fd:bd:77:
                    b8:0f:74:4c:ed:70:01:e0:96:0e:75:38:2d:a9:3e:
                    39:83:45:23:c1:d4:7c:f6:34:f1:6f:ec:d9:51:ad:
                    3d:56:6f:cf:d3:c0:50:76:54:1d:a3:9f:a1:a5:9f:
                    bc:91:a1:55:35:07:69:55:49:cb:e1:5c:65:e0:a6:
                    ba:35:02:25:84:05:0a:55:b4:11:f8:da:b1:9e:f3:
                    d7:8d:f3:9c:8b:80:0a:62:a2:e2:3b:91:0d:4d:ee:
                    aa:ba:a6:9a:21:c1:06:95:cc:4a:5f:a7:0d:58:9b:
                    b6:84:49:2a:ff:3c:90:58:f2:7b:cf:67:9d:f5:2c:
                    cf:25:d5:ae:fe:3d:4f:67:2d:59:28:25:45:26:25:
                    0f:b4:f5:d0:ce:65:12:0f:d5:d9:b4:74:90:57:a6:
                    35:fa:0d:09:b0:9b:3f:e1:91:2e:11:9e:60:7d:d8:
                    32:7f:84:05:ca:2f:78:04:08:ff:a5:b5:91:90:14:
                    4d:35
                Exponent: 65537 (0x10001)
        X509v3 extensions:
            X509v3 Basic Constraints: 
                CA:FALSE
            X509v3 Subject Key Identifier: 
                D7:7F:BF:CC:2F:DB:66:54:C6:F0:89:90:C2:AF:CC:81:C8:07:7D:CC
            X509v3 Authority Key Identifier: 
                keyid:9A:16:7C:39:BF:9B:82:63:3A:C4:BE:BF:BA:D1:F2:F9:AE:28:51:9A
                DirName:/CN=team751-net
                serial:53:40:08:27:30:C7:86:CD:D2:60:80:35:7F:DC:E4:C6:FF:52:45:08

            X509v3 Extended Key Usage: 
                TLS Web Server Authentication
            X509v3 Key Usage: 
                Digital Signature, Key Encipherment
            X509v3 Subject Alternative Name: 
                DNS:team751-server
    Signature Algorithm: sha256WithRSAEncryption
         06:b3:d3:07:06:40:27:f4:31:0e:6e:58:95:6c:c6:49:c8:84:
         61:7c:61:3a:12:b2:a5:cb:43:2a:4d:50:30:58:f3:3d:29:9f:
         4f:94:8f:c7:50:f3:f3:dd:31:0b:d2:e1:91:4b:0b:e0:31:22:
         57:80:02:b7:e5:db:a2:f8:9a:ef:f5:48:f3:23:80:67:28:e5:
         3a:a1:4e:71:da:f4:86:d2:1a:38:4c:dd:90:ca:61:d2:95:c7:
         98:03:55:2d:de:b2:5f:94:65:14:c0:d5:2f:8a:e6:74:da:68:
         08:cb:c4:31:00:62:c6:94:cb:e9:10:8a:78:3f:20:30:38:3b:
         11:f9:c7:db:84:2f:74:95:36:75:ab:91:10:51:06:ab:38:ca:
         4e:ea:f4:73:5c:af:1c:e6:f7:c2:be:6c:7a:95:16:6f:c8:52:
         5a:7d:73:17:fc:b4:a2:f5:b9:27:fc:e6:a7:26:e9:3b:3e:c4:
         f2:de:9d:93:da:be:09:9d:1e:d8:76:54:61:01:71:c6:77:d7:
         bf:7b:01:4e:0b:ba:93:a3:74:32:99:a1:31:bc:4e:aa:b3:5e:
         db:76:6a:da:49:f9:0f:db:3f:dc:ff:8b:79:89:aa:27:af:29:
         1a:4a:e2:48:ae:4c:fc:4d:fe:63:56:60:e4:b3:b3:5c:fe:b3:
         27:6c:19:0a
-----BEGIN CERTIFICATE-----
MIIDdzCCAl+gAwIBAgIQLp+tn1V5j7c/5RC+khqeMTANBgkqhkiG9w0BAQsFADAW
MRQwEgYDVQQDDAt0ZWFtNzUxLW5ldDAeFw0yMjA1MTkwMDE1MzBaFw0yNTA1MDMw
MDE1MzBaMBkxFzAVBgNVBAMMDnRlYW03NTEtc2VydmVyMIIBIjANBgkqhkiG9w0B
AQEFAAOCAQ8AMIIBCgKCAQEAsIbz/2BQQYeiPd1yR7fNMPQHOa3RNZGTEwND1jM4
NZraZjJ37UiXx+STcX3hTvd3BgFbdZrYkFTrqwXOMsoR+jPCqfwVVL79vXe4D3RM
7XAB4JYOdTgtqT45g0UjwdR89jTxb+zZUa09Vm/P08BQdlQdo5+hpZ+8kaFVNQdp
VUnL4Vxl4Ka6NQIlhAUKVbQR+NqxnvPXjfOci4AKYqLiO5ENTe6quqaaIcEGlcxK
X6cNWJu2hEkq/zyQWPJ7z2ed9SzPJdWu/j1PZy1ZKCVFJiUPtPXQzmUSD9XZtHSQ
V6Y1+g0JsJs/4ZEuEZ5gfdgyf4QFyi94BAj/pbWRkBRNNQIDAQABo4G9MIG6MAkG
A1UdEwQCMAAwHQYDVR0OBBYEFNd/v8wv22ZUxvCJkMKvzIHIB33MMFEGA1UdIwRK
MEiAFJoWfDm/m4JjOsS+v7rR8vmuKFGaoRqkGDAWMRQwEgYDVQQDDAt0ZWFtNzUx
LW5ldIIUU0AIJzDHhs3SYIA1f9zkxv9SRQgwEwYDVR0lBAwwCgYIKwYBBQUHAwEw
CwYDVR0PBAQDAgWgMBkGA1UdEQQSMBCCDnRlYW03NTEtc2VydmVyMA0GCSqGSIb3
DQEBCwUAA4IBAQAGs9MHBkAn9DEObliVbMZJyIRhfGE6ErKly0MqTVAwWPM9KZ9P
lI/HUPPz3TEL0uGRSwvgMSJXgAK35dui+Jrv9UjzI4BnKOU6oU5x2vSG0ho4TN2Q
ymHSlceYA1Ut3rJflGUUwNUviuZ02mgIy8QxAGLGlMvpEIp4PyAwODsR+cfbhC90
lTZ1q5EQUQarOMpO6vRzXK8c5vfCvmx6lRZvyFJafXMX/LSi9bkn/OanJuk7PsTy
3p2T2r4JnR7YdlRhAXHGd9e/ewFOC7qTo3QymaExvE6qs17bdmraSfkP2z/c/4t5
iaonrykaSuJIrkz8Tf5jVmDks7Nc/rMnbBkK
-----END CERTIFICATE-----
