Certificate:
    Data:
        Version: 3 (0x2)
        Serial Number:
            bb:9b:70:a4:d6:7f:81:06:e5:65:46:e9:ab:25:24:5f
        Signature Algorithm: sha256WithRSAEncryption
        Issuer: CN=team272-net
        Validity
            Not Before: May 18 19:47:33 2022 GMT
            Not After : May  2 19:47:33 2025 GMT
        Subject: CN=team272-server
        Subject Public Key Info:
            Public Key Algorithm: rsaEncryption
                RSA Public-Key: (2048 bit)
                Modulus:
                    00:ed:ad:d3:5c:9f:1f:4f:6d:80:d7:9e:d0:94:52:
                    e5:08:b7:eb:99:1f:97:71:22:b9:b5:1f:c8:bb:df:
                    d2:5d:3f:1d:ca:6b:bb:dd:20:89:92:18:e9:be:6b:
                    e0:07:a8:22:09:72:cd:7c:fc:0f:c9:45:2a:bb:2b:
                    53:37:2c:06:56:b1:0d:8b:3d:16:74:e1:b5:8f:12:
                    fd:a2:27:bb:82:33:1b:d2:44:92:2b:43:31:bd:cb:
                    7a:ad:df:3b:e1:c1:23:d5:c5:87:50:e6:08:38:c5:
                    d9:36:e7:bf:a2:41:d2:41:fe:08:28:06:de:e9:26:
                    5a:fb:d7:13:67:ab:2d:93:96:7d:23:de:42:9c:21:
                    39:1f:18:3c:bb:01:13:ea:5c:9f:d4:93:d9:be:d7:
                    97:62:17:34:40:cc:51:1a:87:81:eb:47:cf:00:b1:
                    e2:48:2b:2f:8c:9e:a2:46:51:33:ed:0d:37:e1:e2:
                    76:c5:77:5d:2f:27:3e:65:2f:11:a8:15:1a:9a:84:
                    a3:ec:13:cf:5f:fe:5c:15:0a:c2:61:5e:93:22:9b:
                    de:f9:a4:23:f3:0e:13:24:a8:3c:d8:86:02:dc:40:
                    5d:8d:39:e8:88:0f:e2:68:f1:26:ed:5f:7f:82:a4:
                    3f:38:62:a5:b2:af:27:33:e1:10:64:a1:75:a9:f1:
                    ec:07
                Exponent: 65537 (0x10001)
        X509v3 extensions:
            X509v3 Basic Constraints: 
                CA:FALSE
            X509v3 Subject Key Identifier: 
                F1:5C:69:9E:B1:4A:17:96:89:85:96:DC:75:69:00:F7:CB:68:BB:90
            X509v3 Authority Key Identifier: 
                keyid:04:36:46:CE:40:B3:13:AB:08:C7:5B:C0:1B:10:9B:66:79:66:C8:2D
                DirName:/CN=team272-net
                serial:08:14:40:7F:8C:D3:F8:FB:A1:1D:D9:E8:C2:E5:CC:2D:F2:8E:6A:7C

            X509v3 Extended Key Usage: 
                TLS Web Server Authentication
            X509v3 Key Usage: 
                Digital Signature, Key Encipherment
            X509v3 Subject Alternative Name: 
                DNS:team272-server
    Signature Algorithm: sha256WithRSAEncryption
         c1:98:2a:48:c2:d7:de:b8:9e:a4:8a:df:01:75:d5:49:1a:b4:
         45:ee:25:c3:55:80:1a:19:90:90:6e:af:c3:f7:4e:26:b9:8d:
         3a:55:4b:16:b5:e4:d9:5c:33:e6:2b:54:b6:f7:40:e5:ec:fc:
         97:81:b4:06:46:7a:e6:1f:93:d1:ba:47:26:7d:fb:4f:9b:11:
         08:da:b9:f8:68:d8:40:e3:47:9d:fa:79:5e:56:f5:bd:b4:0a:
         c0:85:7d:bd:ed:27:d8:2f:cb:a3:1f:84:50:5c:01:9a:33:84:
         70:40:20:bd:e2:82:04:3d:96:22:b8:f0:4b:ed:e9:b7:18:1e:
         d4:d4:0e:53:aa:24:86:c0:47:06:2f:23:48:f0:15:ac:91:cb:
         0a:53:d7:c5:12:8b:e3:22:a9:77:8f:1b:c4:ac:bf:64:6b:c8:
         32:d0:85:97:17:bf:cd:67:e4:ef:47:2c:cd:4b:b4:38:bc:15:
         d8:ca:41:62:88:fb:a3:b7:1d:c8:98:76:5f:28:7f:ac:85:8f:
         38:07:f7:b9:1c:e4:fa:75:fe:c3:9f:c1:2a:bd:42:68:d6:66:
         48:c6:72:4b:9f:06:d3:90:f8:6e:26:a7:e6:ff:14:52:d5:03:
         63:41:28:02:49:9c:51:09:4d:ff:35:06:f2:d2:a9:16:0c:48:
         3c:52:80:f0
-----BEGIN CERTIFICATE-----
MIIDeDCCAmCgAwIBAgIRALubcKTWf4EG5WVG6aslJF8wDQYJKoZIhvcNAQELBQAw
FjEUMBIGA1UEAwwLdGVhbTI3Mi1uZXQwHhcNMjIwNTE4MTk0NzMzWhcNMjUwNTAy
MTk0NzMzWjAZMRcwFQYDVQQDDA50ZWFtMjcyLXNlcnZlcjCCASIwDQYJKoZIhvcN
AQEBBQADggEPADCCAQoCggEBAO2t01yfH09tgNee0JRS5Qi365kfl3EiubUfyLvf
0l0/Hcpru90giZIY6b5r4AeoIglyzXz8D8lFKrsrUzcsBlaxDYs9FnThtY8S/aIn
u4IzG9JEkitDMb3Leq3fO+HBI9XFh1DmCDjF2Tbnv6JB0kH+CCgG3ukmWvvXE2er
LZOWfSPeQpwhOR8YPLsBE+pcn9ST2b7Xl2IXNEDMURqHgetHzwCx4kgrL4yeokZR
M+0NN+HidsV3XS8nPmUvEagVGpqEo+wTz1/+XBUKwmFekyKb3vmkI/MOEySoPNiG
AtxAXY056IgP4mjxJu1ff4KkPzhipbKvJzPhEGShdanx7AcCAwEAAaOBvTCBujAJ
BgNVHRMEAjAAMB0GA1UdDgQWBBTxXGmesUoXlomFltx1aQD3y2i7kDBRBgNVHSME
SjBIgBQENkbOQLMTqwjHW8AbEJtmeWbILaEapBgwFjEUMBIGA1UEAwwLdGVhbTI3
Mi1uZXSCFAgUQH+M0/j7oR3Z6MLlzC3yjmp8MBMGA1UdJQQMMAoGCCsGAQUFBwMB
MAsGA1UdDwQEAwIFoDAZBgNVHREEEjAQgg50ZWFtMjcyLXNlcnZlcjANBgkqhkiG
9w0BAQsFAAOCAQEAwZgqSMLX3riepIrfAXXVSRq0Re4lw1WAGhmQkG6vw/dOJrmN
OlVLFrXk2Vwz5itUtvdA5ez8l4G0BkZ65h+T0bpHJn37T5sRCNq5+GjYQONHnfp5
Xlb1vbQKwIV9ve0n2C/Lox+EUFwBmjOEcEAgveKCBD2WIrjwS+3ptxge1NQOU6ok
hsBHBi8jSPAVrJHLClPXxRKL4yKpd48bxKy/ZGvIMtCFlxe/zWfk70cszUu0OLwV
2MpBYoj7o7cdyJh2Xyh/rIWPOAf3uRzk+nX+w5/BKr1CaNZmSMZyS58G05D4bian
5v8UUtUDY0EoAkmcUQlN/zUG8tKpFgxIPFKA8A==
-----END CERTIFICATE-----
