Certificate:
    Data:
        Version: 3 (0x2)
        Serial Number:
            14:fe:d8:8e:b3:34:ac:64:fa:96:8a:ff:f3:95:03:3d
        Signature Algorithm: sha256WithRSAEncryption
        Issuer: CN=team580-net
        Validity
            Not Before: May 18 22:35:43 2022 GMT
            Not After : May  2 22:35:43 2025 GMT
        Subject: CN=team580-client
        Subject Public Key Info:
            Public Key Algorithm: rsaEncryption
                RSA Public-Key: (2048 bit)
                Modulus:
                    00:dc:6a:3f:f4:f8:cf:60:12:83:ef:7a:3e:99:31:
                    88:b1:46:c9:ee:ce:69:64:bc:67:2b:89:c4:10:0c:
                    8b:65:2f:58:4b:56:cf:b5:46:63:e7:05:6f:48:51:
                    95:06:49:64:2d:d5:34:78:50:fc:98:3b:71:0b:31:
                    85:4b:7a:6d:08:1a:cc:41:cd:87:41:ce:66:67:0c:
                    ed:66:f0:e4:83:29:1a:26:b6:18:d9:47:db:8a:6e:
                    9f:b8:e2:67:28:6f:77:e1:53:3f:7f:90:2b:7b:a9:
                    ed:ce:8c:a2:99:3b:04:dc:77:62:80:a0:11:5f:0c:
                    c6:77:fe:33:5c:1f:cf:28:e7:b1:33:c0:fe:c9:f0:
                    7b:cc:d3:8d:5a:0c:41:15:18:7c:5f:df:37:64:d3:
                    c0:e2:6c:1a:2f:4d:68:45:2f:a9:f3:f3:22:3c:6d:
                    e4:b7:b2:7c:64:a7:16:63:e1:f5:39:36:7e:d7:3c:
                    23:21:55:ab:60:60:1c:1f:e1:0e:3a:8b:55:28:33:
                    33:34:61:7a:75:0b:6f:b5:20:84:24:8a:25:12:22:
                    fe:ec:7d:20:97:f5:eb:68:ec:dd:08:e5:4a:f4:0a:
                    f3:87:9c:4d:1e:da:fd:d0:1a:c1:a6:e6:57:c8:f4:
                    9b:1d:e5:60:b2:f2:d9:ac:c7:46:aa:36:91:38:db:
                    07:93
                Exponent: 65537 (0x10001)
        X509v3 extensions:
            X509v3 Basic Constraints: 
                CA:FALSE
            X509v3 Subject Key Identifier: 
                71:F3:65:42:D9:D2:BA:0F:97:4B:BB:03:61:28:E0:FF:A0:58:A7:43
            X509v3 Authority Key Identifier: 
                keyid:BF:34:7A:04:84:79:8F:65:41:C9:7F:CA:6E:5C:D3:99:D5:C7:93:12
                DirName:/CN=team580-net
                serial:7A:2C:6F:34:9A:A6:DB:75:97:A4:36:5F:9A:2B:04:05:AD:23:0A:BC

            X509v3 Extended Key Usage: 
                TLS Web Client Authentication
            X509v3 Key Usage: 
                Digital Signature
    Signature Algorithm: sha256WithRSAEncryption
         8c:e6:41:93:e5:eb:31:ed:c4:c8:40:3f:ab:11:08:b7:72:42:
         0b:7f:14:ea:dc:96:be:0d:60:b0:89:91:c2:40:5f:73:b3:7f:
         08:e6:ea:f3:fa:6f:d8:db:b2:d3:b1:44:42:db:14:a6:69:a3:
         2e:06:72:28:23:ba:63:4a:18:3d:de:7d:2e:b3:c3:ed:29:aa:
         68:29:87:52:34:d1:f5:63:37:b6:dc:bc:05:a6:2e:17:6f:d3:
         35:12:74:c3:2b:ca:fb:ba:60:68:dd:37:70:68:09:9d:e1:f9:
         da:84:b6:c4:26:04:63:f0:55:96:47:bf:11:ea:13:71:18:33:
         76:18:3e:27:36:27:71:4a:fa:0b:c7:5d:af:06:43:45:9b:7e:
         ae:cf:9b:24:41:6e:2f:5c:1f:79:90:55:c1:0a:93:7b:15:79:
         0c:c9:3d:69:db:6e:2a:67:b7:50:dc:de:b9:52:56:18:7d:af:
         94:2b:5a:e6:f5:58:e1:3c:7c:47:dc:81:35:07:2d:81:de:86:
         2c:fd:57:69:f6:56:bd:e6:63:6f:57:3a:05:26:4c:9d:bf:4d:
         96:23:fd:2e:1d:fd:7b:28:67:cb:6d:6d:a7:15:c1:19:8a:90:
         9a:fa:90:a5:e3:45:49:ad:5a:03:e9:f3:6f:15:8c:29:e6:15:
         18:c8:35:18
-----BEGIN CERTIFICATE-----
MIIDXDCCAkSgAwIBAgIQFP7YjrM0rGT6lor/85UDPTANBgkqhkiG9w0BAQsFADAW
MRQwEgYDVQQDDAt0ZWFtNTgwLW5ldDAeFw0yMjA1MTgyMjM1NDNaFw0yNTA1MDIy
MjM1NDNaMBkxFzAVBgNVBAMMDnRlYW01ODAtY2xpZW50MIIBIjANBgkqhkiG9w0B
AQEFAAOCAQ8AMIIBCgKCAQEA3Go/9PjPYBKD73o+mTGIsUbJ7s5pZLxnK4nEEAyL
ZS9YS1bPtUZj5wVvSFGVBklkLdU0eFD8mDtxCzGFS3ptCBrMQc2HQc5mZwztZvDk
gykaJrYY2Ufbim6fuOJnKG934VM/f5Are6ntzoyimTsE3HdigKARXwzGd/4zXB/P
KOexM8D+yfB7zNONWgxBFRh8X983ZNPA4mwaL01oRS+p8/MiPG3kt7J8ZKcWY+H1
OTZ+1zwjIVWrYGAcH+EOOotVKDMzNGF6dQtvtSCEJIolEiL+7H0gl/XraOzdCOVK
9Arzh5xNHtr90BrBpuZXyPSbHeVgsvLZrMdGqjaRONsHkwIDAQABo4GiMIGfMAkG
A1UdEwQCMAAwHQYDVR0OBBYEFHHzZULZ0roPl0u7A2Eo4P+gWKdDMFEGA1UdIwRK
MEiAFL80egSEeY9lQcl/ym5c05nVx5MSoRqkGDAWMRQwEgYDVQQDDAt0ZWFtNTgw
LW5ldIIUeixvNJqm23WXpDZfmisEBa0jCrwwEwYDVR0lBAwwCgYIKwYBBQUHAwIw
CwYDVR0PBAQDAgeAMA0GCSqGSIb3DQEBCwUAA4IBAQCM5kGT5esx7cTIQD+rEQi3
ckILfxTq3Ja+DWCwiZHCQF9zs38I5urz+m/Y27LTsURC2xSmaaMuBnIoI7pjShg9
3n0us8PtKapoKYdSNNH1Yze23LwFpi4Xb9M1EnTDK8r7umBo3TdwaAmd4fnahLbE
JgRj8FWWR78R6hNxGDN2GD4nNidxSvoLx12vBkNFm36uz5skQW4vXB95kFXBCpN7
FXkMyT1p224qZ7dQ3N65UlYYfa+UK1rm9VjhPHxH3IE1By2B3oYs/Vdp9la95mNv
VzoFJkydv02WI/0uHf17KGfLbW2nFcEZipCa+pCl40VJrVoD6fNvFYwp5hUYyDUY
-----END CERTIFICATE-----
