Certificate:
    Data:
        Version: 3 (0x2)
        Serial Number:
            f4:83:3c:a3:cb:4e:09:6d:30:99:5f:5d:93:43:17:06
        Signature Algorithm: sha256WithRSAEncryption
        Issuer: CN=team560-net
        Validity
            Not Before: May 18 22:25:14 2022 GMT
            Not After : May  2 22:25:14 2025 GMT
        Subject: CN=team560-server
        Subject Public Key Info:
            Public Key Algorithm: rsaEncryption
                RSA Public-Key: (2048 bit)
                Modulus:
                    00:dd:f5:ac:57:85:e2:e9:94:0f:8f:be:41:81:2b:
                    80:63:32:50:b7:56:aa:ee:9c:3b:96:f3:84:64:ce:
                    7e:a7:fd:da:29:4b:21:e6:82:47:81:49:6a:49:a4:
                    c8:b7:f7:f8:80:da:ea:91:fd:9f:a1:cd:da:a3:82:
                    c3:ba:8f:af:e3:91:a6:53:df:9a:eb:49:56:94:e2:
                    0d:cf:65:ce:97:81:b7:78:58:ea:65:fd:19:a5:24:
                    60:e5:42:b8:4b:f6:62:1c:ea:61:3b:ac:7e:dd:2c:
                    2f:f1:36:e9:52:dc:26:1a:9b:d7:30:df:87:e7:2b:
                    59:38:56:13:f7:1e:1d:cb:9a:14:4d:72:06:ce:36:
                    2e:87:62:6f:45:ce:a7:cc:e0:30:2c:f5:99:c8:33:
                    3e:4a:f7:d5:d8:95:52:40:2e:f6:78:0d:6d:9f:0f:
                    16:91:fa:b7:54:e2:85:c8:49:17:4a:86:f1:6f:f6:
                    c2:b7:ba:f4:d0:a5:79:04:3d:f0:a6:f9:0a:fa:07:
                    c3:02:ac:8a:61:4d:66:c5:89:b5:44:8b:6d:0d:10:
                    84:92:d2:f5:df:5d:8d:68:f3:30:56:f0:b0:dd:66:
                    13:2c:45:c9:eb:2f:c6:9e:54:93:15:1f:69:1a:e2:
                    07:39:f4:b3:0c:16:8a:49:e5:8f:fe:41:d7:06:f2:
                    7a:11
                Exponent: 65537 (0x10001)
        X509v3 extensions:
            X509v3 Basic Constraints: 
                CA:FALSE
            X509v3 Subject Key Identifier: 
                FA:4E:D2:10:6D:E1:71:50:C4:E6:12:82:AE:59:4C:83:11:0E:9C:32
            X509v3 Authority Key Identifier: 
                keyid:51:69:5C:02:B1:D0:30:FF:BF:20:97:CA:41:0B:1F:83:72:BD:0A:80
                DirName:/CN=team560-net
                serial:77:34:20:A0:AB:73:46:3A:BD:84:D2:B2:A9:9F:15:67:BB:74:84:F4

            X509v3 Extended Key Usage: 
                TLS Web Server Authentication
            X509v3 Key Usage: 
                Digital Signature, Key Encipherment
            X509v3 Subject Alternative Name: 
                DNS:team560-server
    Signature Algorithm: sha256WithRSAEncryption
         4c:da:3a:eb:45:81:55:a8:bb:fe:57:74:5e:73:1d:57:52:85:
         db:59:39:c7:e9:11:60:f3:6a:07:12:52:6f:70:92:01:0a:af:
         e5:87:0e:d3:05:43:db:9f:ef:f0:1c:a8:92:9d:49:d1:2b:e5:
         d1:cf:57:9c:be:dd:4c:e7:93:46:c4:c3:3b:51:97:3d:35:82:
         a6:72:b1:23:9f:39:50:f6:ae:fc:b4:4b:3f:42:ec:fa:cb:8b:
         21:2d:ad:93:11:0d:ef:e7:74:10:2f:80:a7:d3:92:6e:13:65:
         8f:e4:15:4d:4c:11:1e:ab:3e:06:76:15:49:84:27:14:3c:d0:
         28:01:26:7e:fa:24:9e:4f:ec:19:c4:5c:bb:9a:bc:42:a0:39:
         ff:79:53:ba:7f:f2:72:0c:02:b9:dd:a4:06:05:72:5e:5e:21:
         1c:f6:1b:4b:a4:7b:1e:9e:fe:82:05:8e:49:09:11:92:c4:56:
         64:ed:0c:49:9c:d7:70:0c:ab:d1:a5:d2:40:04:3f:73:ba:28:
         3a:ed:a0:c7:6e:e9:84:0f:89:e9:6e:b2:79:9a:78:35:64:a1:
         bf:12:b6:73:ed:43:95:47:87:c3:d4:6e:f4:46:49:85:4c:ff:
         eb:b9:b3:f4:7d:c9:4d:1d:b0:9e:3e:72:fc:ba:de:28:7d:76:
         b5:27:01:8e
-----BEGIN CERTIFICATE-----
MIIDeDCCAmCgAwIBAgIRAPSDPKPLTgltMJlfXZNDFwYwDQYJKoZIhvcNAQELBQAw
FjEUMBIGA1UEAwwLdGVhbTU2MC1uZXQwHhcNMjIwNTE4MjIyNTE0WhcNMjUwNTAy
MjIyNTE0WjAZMRcwFQYDVQQDDA50ZWFtNTYwLXNlcnZlcjCCASIwDQYJKoZIhvcN
AQEBBQADggEPADCCAQoCggEBAN31rFeF4umUD4++QYErgGMyULdWqu6cO5bzhGTO
fqf92ilLIeaCR4FJakmkyLf3+IDa6pH9n6HN2qOCw7qPr+ORplPfmutJVpTiDc9l
zpeBt3hY6mX9GaUkYOVCuEv2YhzqYTusft0sL/E26VLcJhqb1zDfh+crWThWE/ce
HcuaFE1yBs42Lodib0XOp8zgMCz1mcgzPkr31diVUkAu9ngNbZ8PFpH6t1TihchJ
F0qG8W/2wre69NCleQQ98Kb5CvoHwwKsimFNZsWJtUSLbQ0QhJLS9d9djWjzMFbw
sN1mEyxFyesvxp5UkxUfaRriBzn0swwWiknlj/5B1wbyehECAwEAAaOBvTCBujAJ
BgNVHRMEAjAAMB0GA1UdDgQWBBT6TtIQbeFxUMTmEoKuWUyDEQ6cMjBRBgNVHSME
SjBIgBRRaVwCsdAw/78gl8pBCx+Dcr0KgKEapBgwFjEUMBIGA1UEAwwLdGVhbTU2
MC1uZXSCFHc0IKCrc0Y6vYTSsqmfFWe7dIT0MBMGA1UdJQQMMAoGCCsGAQUFBwMB
MAsGA1UdDwQEAwIFoDAZBgNVHREEEjAQgg50ZWFtNTYwLXNlcnZlcjANBgkqhkiG
9w0BAQsFAAOCAQEATNo660WBVai7/ld0XnMdV1KF21k5x+kRYPNqBxJSb3CSAQqv
5YcO0wVD25/v8Byokp1J0Svl0c9XnL7dTOeTRsTDO1GXPTWCpnKxI585UPau/LRL
P0Ls+suLIS2tkxEN7+d0EC+Ap9OSbhNlj+QVTUwRHqs+BnYVSYQnFDzQKAEmfvok
nk/sGcRcu5q8QqA5/3lTun/ycgwCud2kBgVyXl4hHPYbS6R7Hp7+ggWOSQkRksRW
ZO0MSZzXcAyr0aXSQAQ/c7ooOu2gx27phA+J6W6yeZp4NWShvxK2c+1DlUeHw9Ru
9EZJhUz/67mz9H3JTR2wnj5y/LreKH12tScBjg==
-----END CERTIFICATE-----
