Certificate:
    Data:
        Version: 3 (0x2)
        Serial Number:
            77:35:46:c2:dc:3a:22:4f:dc:5f:2d:10:0d:64:c3:f8
        Signature Algorithm: sha256WithRSAEncryption
        Issuer: CN=team414-net
        Validity
            Not Before: May 18 20:58:15 2022 GMT
            Not After : May  2 20:58:15 2025 GMT
        Subject: CN=team414-server
        Subject Public Key Info:
            Public Key Algorithm: rsaEncryption
                RSA Public-Key: (2048 bit)
                Modulus:
                    00:d0:34:68:20:56:04:3c:fa:27:d4:b0:56:6e:18:
                    1c:04:ed:1c:f4:24:2f:56:08:db:ff:2c:3c:78:18:
                    40:4e:8e:fd:74:46:17:54:f7:4e:5a:5f:7a:a3:20:
                    96:20:51:84:b1:7c:f7:ab:d7:23:02:2e:37:7c:6f:
                    63:ae:9f:4a:76:1a:f3:95:f4:28:8b:ad:39:09:4f:
                    70:a3:f8:e0:e4:f4:06:6d:d3:11:96:ae:af:cb:cd:
                    bf:1d:9d:27:a1:c4:c9:92:24:a4:9a:e5:e0:9c:93:
                    7c:e6:5c:da:58:19:90:90:7f:31:13:8e:0f:97:10:
                    07:81:a7:82:b8:8e:fa:8f:06:53:c3:b0:f9:bf:eb:
                    f1:eb:59:4b:05:c2:a1:74:ca:73:46:e3:bc:13:1a:
                    d4:f5:04:0e:37:b9:e5:0a:43:79:b0:d6:ce:f2:ac:
                    74:9f:22:ee:9e:39:43:be:4e:ad:94:e3:dd:60:d8:
                    47:84:d6:cc:bf:78:c4:f1:b2:87:5b:0a:5e:49:00:
                    da:6e:44:39:93:e2:cc:60:60:b0:3f:0d:42:bc:2c:
                    de:7b:50:e7:e6:c2:d5:f6:a3:db:22:5b:49:b0:c9:
                    e6:59:d7:64:a6:bf:a9:41:e3:9f:a4:b5:d8:1f:9e:
                    9e:62:a4:4d:b3:05:09:a2:61:d8:fb:05:6b:c0:3b:
                    b3:4d
                Exponent: 65537 (0x10001)
        X509v3 extensions:
            X509v3 Basic Constraints: 
                CA:FALSE
            X509v3 Subject Key Identifier: 
                A0:AE:30:E8:3C:0F:11:F5:74:11:6A:0B:6B:4A:6F:90:4C:D7:B6:DC
            X509v3 Authority Key Identifier: 
                keyid:73:69:18:F0:6C:DA:83:96:B5:ED:6D:80:60:F0:50:A1:D3:47:8A:EF
                DirName:/CN=team414-net
                serial:72:76:5F:99:8B:E9:81:7F:27:45:99:91:9A:77:3F:6A:B0:EC:CD:CA

            X509v3 Extended Key Usage: 
                TLS Web Server Authentication
            X509v3 Key Usage: 
                Digital Signature, Key Encipherment
            X509v3 Subject Alternative Name: 
                DNS:team414-server
    Signature Algorithm: sha256WithRSAEncryption
         8d:64:07:ff:ed:ab:02:9c:6b:66:57:ca:35:35:8d:58:1b:7b:
         0a:f2:c7:bd:1c:e5:a8:85:1d:86:11:83:cf:8d:c3:74:08:4e:
         57:47:bf:01:6a:ae:c8:b0:6b:12:e8:d7:ea:4b:98:4f:e0:ca:
         75:5e:3c:19:96:4a:2d:8e:e5:bb:6c:31:59:ae:a2:d1:89:ea:
         ac:a8:9e:3f:1c:d9:38:d4:6c:27:2a:53:49:a5:5a:4a:33:2b:
         97:e0:80:e4:df:88:21:25:31:79:1f:47:f8:3c:02:3d:8a:83:
         f8:3e:0e:ed:bc:6d:25:1d:54:1f:c6:5e:b5:47:c0:66:33:bc:
         4c:c1:94:72:85:ae:1e:a5:0f:66:b3:1a:5d:f5:b8:74:cb:1e:
         b8:15:1b:42:51:3f:a7:3f:d1:b6:9a:78:c4:f7:58:fc:8a:a1:
         dd:e3:e2:24:cb:78:09:98:27:47:ca:93:43:61:b9:d2:5c:1d:
         de:d4:65:bd:91:2b:43:bd:b2:f8:71:e1:df:4f:dd:58:57:d1:
         1b:8f:3b:59:a7:87:4e:17:80:40:07:44:e2:01:ff:24:02:57:
         ed:35:88:ea:f9:e0:d1:22:c5:fc:3b:4c:fe:75:62:fe:ef:05:
         0e:3a:79:3e:66:e6:08:01:cf:8c:88:43:0b:6d:0a:ab:fe:76:
         d8:ac:c8:03
-----BEGIN CERTIFICATE-----
MIIDdzCCAl+gAwIBAgIQdzVGwtw6Ik/cXy0QDWTD+DANBgkqhkiG9w0BAQsFADAW
MRQwEgYDVQQDDAt0ZWFtNDE0LW5ldDAeFw0yMjA1MTgyMDU4MTVaFw0yNTA1MDIy
MDU4MTVaMBkxFzAVBgNVBAMMDnRlYW00MTQtc2VydmVyMIIBIjANBgkqhkiG9w0B
AQEFAAOCAQ8AMIIBCgKCAQEA0DRoIFYEPPon1LBWbhgcBO0c9CQvVgjb/yw8eBhA
To79dEYXVPdOWl96oyCWIFGEsXz3q9cjAi43fG9jrp9KdhrzlfQoi605CU9wo/jg
5PQGbdMRlq6vy82/HZ0nocTJkiSkmuXgnJN85lzaWBmQkH8xE44PlxAHgaeCuI76
jwZTw7D5v+vx61lLBcKhdMpzRuO8ExrU9QQON7nlCkN5sNbO8qx0nyLunjlDvk6t
lOPdYNhHhNbMv3jE8bKHWwpeSQDabkQ5k+LMYGCwPw1CvCzee1Dn5sLV9qPbIltJ
sMnmWddkpr+pQeOfpLXYH56eYqRNswUJomHY+wVrwDuzTQIDAQABo4G9MIG6MAkG
A1UdEwQCMAAwHQYDVR0OBBYEFKCuMOg8DxH1dBFqC2tKb5BM17bcMFEGA1UdIwRK
MEiAFHNpGPBs2oOWte1tgGDwUKHTR4rvoRqkGDAWMRQwEgYDVQQDDAt0ZWFtNDE0
LW5ldIIUcnZfmYvpgX8nRZmRmnc/arDszcowEwYDVR0lBAwwCgYIKwYBBQUHAwEw
CwYDVR0PBAQDAgWgMBkGA1UdEQQSMBCCDnRlYW00MTQtc2VydmVyMA0GCSqGSIb3
DQEBCwUAA4IBAQCNZAf/7asCnGtmV8o1NY1YG3sK8se9HOWohR2GEYPPjcN0CE5X
R78Baq7IsGsS6NfqS5hP4Mp1XjwZlkotjuW7bDFZrqLRieqsqJ4/HNk41GwnKlNJ
pVpKMyuX4IDk34ghJTF5H0f4PAI9ioP4Pg7tvG0lHVQfxl61R8BmM7xMwZRyha4e
pQ9msxpd9bh0yx64FRtCUT+nP9G2mnjE91j8iqHd4+Iky3gJmCdHypNDYbnSXB3e
1GW9kStDvbL4ceHfT91YV9EbjztZp4dOF4BAB0TiAf8kAlftNYjq+eDRIsX8O0z+
dWL+7wUOOnk+ZuYIAc+MiEMLbQqr/nbYrMgD
-----END CERTIFICATE-----
