Certificate:
    Data:
        Version: 3 (0x2)
        Serial Number:
            a3:a5:80:1e:ff:2e:fe:26:8a:aa:67:23:7e:fb:0d:8b
        Signature Algorithm: sha256WithRSAEncryption
        Issuer: CN=team654-net
        Validity
            Not Before: May 18 23:04:59 2022 GMT
            Not After : May  2 23:04:59 2025 GMT
        Subject: CN=team654-client
        Subject Public Key Info:
            Public Key Algorithm: rsaEncryption
                RSA Public-Key: (2048 bit)
                Modulus:
                    00:c5:91:b1:81:be:3d:1b:d9:f9:87:05:4b:c3:fb:
                    4c:f7:f0:c2:82:f7:1f:36:b1:d5:7a:35:4c:74:09:
                    ef:0e:65:d8:1f:41:0b:26:a9:69:fb:6a:0c:36:6b:
                    47:7c:de:ac:0f:40:a7:80:db:1f:78:82:fe:da:a9:
                    83:be:81:16:c8:d2:ca:1e:0f:c4:bc:f8:4e:e6:5f:
                    83:fa:12:5e:13:ff:63:4e:41:c1:c9:b5:7a:97:4d:
                    76:b0:0c:c6:8a:82:98:f0:00:5c:c0:cd:82:23:96:
                    d3:de:6c:f7:ea:34:55:88:0e:8b:b0:d1:1c:3b:07:
                    09:d3:29:23:0d:d9:c3:42:cf:95:69:cd:ec:e9:aa:
                    62:70:d3:6d:f4:31:5b:73:5f:73:10:4d:cd:84:74:
                    6b:73:cf:49:bc:e2:2a:82:b7:75:4d:5d:dc:f0:75:
                    22:b9:86:31:e7:e6:c8:d3:59:da:99:8d:da:e9:aa:
                    85:68:8d:46:dd:f5:cc:fa:bc:1a:fe:5d:ab:b4:e5:
                    7d:05:58:33:c1:26:16:07:9b:13:51:05:a9:c3:54:
                    8f:b8:d1:2b:b9:17:63:83:31:53:96:e1:a9:16:5f:
                    de:be:a1:3a:fb:29:28:31:64:7f:0c:20:47:7c:7e:
                    fc:c4:33:1a:74:f3:85:ce:81:78:cb:87:6f:7f:cd:
                    3f:65
                Exponent: 65537 (0x10001)
        X509v3 extensions:
            X509v3 Basic Constraints: 
                CA:FALSE
            X509v3 Subject Key Identifier: 
                30:23:18:59:9D:F3:93:7B:42:2C:14:6C:B5:B1:15:FD:23:4A:DE:22
            X509v3 Authority Key Identifier: 
                keyid:57:6E:D8:2B:EA:A0:E4:9C:63:78:6E:94:84:B3:55:05:0B:EE:B9:D6
                DirName:/CN=team654-net
                serial:5A:65:6A:0A:84:89:4C:63:EA:C2:C7:D0:FF:E7:06:B1:43:CB:69:0B

            X509v3 Extended Key Usage: 
                TLS Web Client Authentication
            X509v3 Key Usage: 
                Digital Signature
    Signature Algorithm: sha256WithRSAEncryption
         3c:1f:91:de:f3:6f:3a:8b:5e:e7:64:59:42:e4:53:38:5b:ca:
         ed:5c:5c:78:ee:dc:a8:94:78:39:ca:47:a1:01:c3:0a:0c:14:
         c2:21:f6:8d:f9:0f:3d:25:08:6a:c8:b1:df:04:9f:bb:6d:50:
         23:d6:2b:2e:dc:86:6f:70:d4:98:64:a5:8c:dd:d4:17:cc:69:
         39:9e:57:4c:f4:ad:94:43:ab:d5:60:ab:05:cd:b5:95:8f:b6:
         ec:5a:37:82:52:fa:78:47:57:12:1f:9c:9c:2f:24:fa:fd:96:
         46:ba:bf:ab:c9:c6:16:ba:c9:9e:07:88:fa:cd:f0:e1:27:58:
         4f:e7:f3:15:0a:3f:1f:39:53:b9:98:e6:8b:77:ab:40:83:81:
         47:0f:ce:73:ef:fa:fd:02:cd:6a:16:65:6b:13:3a:49:fd:01:
         27:97:1e:0f:68:15:9e:82:f6:c8:cf:6c:b3:6e:e1:78:ae:94:
         26:25:16:36:68:4e:b8:e7:54:c6:d6:de:b6:9f:b4:1d:83:82:
         25:0b:e9:ff:83:8f:2d:cb:d4:76:69:1f:a6:f0:f4:e7:06:65:
         ef:ba:52:e6:a8:1c:62:0c:a6:2f:ba:d9:77:5e:99:58:42:fa:
         92:c3:ff:89:65:f3:7f:b2:73:07:03:8e:11:06:89:ad:b0:42:
         f9:63:93:2e
-----BEGIN CERTIFICATE-----
MIIDXTCCAkWgAwIBAgIRAKOlgB7/Lv4miqpnI377DYswDQYJKoZIhvcNAQELBQAw
FjEUMBIGA1UEAwwLdGVhbTY1NC1uZXQwHhcNMjIwNTE4MjMwNDU5WhcNMjUwNTAy
MjMwNDU5WjAZMRcwFQYDVQQDDA50ZWFtNjU0LWNsaWVudDCCASIwDQYJKoZIhvcN
AQEBBQADggEPADCCAQoCggEBAMWRsYG+PRvZ+YcFS8P7TPfwwoL3Hzax1Xo1THQJ
7w5l2B9BCyapaftqDDZrR3zerA9Ap4DbH3iC/tqpg76BFsjSyh4PxLz4TuZfg/oS
XhP/Y05Bwcm1epdNdrAMxoqCmPAAXMDNgiOW095s9+o0VYgOi7DRHDsHCdMpIw3Z
w0LPlWnN7OmqYnDTbfQxW3NfcxBNzYR0a3PPSbziKoK3dU1d3PB1IrmGMefmyNNZ
2pmN2umqhWiNRt31zPq8Gv5dq7TlfQVYM8EmFgebE1EFqcNUj7jRK7kXY4MxU5bh
qRZf3r6hOvspKDFkfwwgR3x+/MQzGnTzhc6BeMuHb3/NP2UCAwEAAaOBojCBnzAJ
BgNVHRMEAjAAMB0GA1UdDgQWBBQwIxhZnfOTe0IsFGy1sRX9I0reIjBRBgNVHSME
SjBIgBRXbtgr6qDknGN4bpSEs1UFC+651qEapBgwFjEUMBIGA1UEAwwLdGVhbTY1
NC1uZXSCFFplagqEiUxj6sLH0P/nBrFDy2kLMBMGA1UdJQQMMAoGCCsGAQUFBwMC
MAsGA1UdDwQEAwIHgDANBgkqhkiG9w0BAQsFAAOCAQEAPB+R3vNvOote52RZQuRT
OFvK7VxceO7cqJR4OcpHoQHDCgwUwiH2jfkPPSUIasix3wSfu21QI9YrLtyGb3DU
mGSljN3UF8xpOZ5XTPStlEOr1WCrBc21lY+27Fo3glL6eEdXEh+cnC8k+v2WRrq/
q8nGFrrJngeI+s3w4SdYT+fzFQo/HzlTuZjmi3erQIOBRw/Oc+/6/QLNahZlaxM6
Sf0BJ5ceD2gVnoL2yM9ss27heK6UJiUWNmhOuOdUxtbetp+0HYOCJQvp/4OPLcvU
dmkfpvD05wZl77pS5qgcYgymL7rZd16ZWEL6ksP/iWXzf7JzBwOOEQaJrbBC+WOT
Lg==
-----END CERTIFICATE-----
