Certificate:
    Data:
        Version: 3 (0x2)
        Serial Number:
            d3:17:25:5b:ea:ea:ee:b1:0c:94:2e:fe:fa:10:ad:80
        Signature Algorithm: sha256WithRSAEncryption
        Issuer: CN=team567-net
        Validity
            Not Before: May 18 22:22:18 2022 GMT
            Not After : May  2 22:22:18 2025 GMT
        Subject: CN=team567-server
        Subject Public Key Info:
            Public Key Algorithm: rsaEncryption
                RSA Public-Key: (2048 bit)
                Modulus:
                    00:c2:8c:4b:d8:79:e0:fd:e0:77:bd:71:01:78:f3:
                    4f:ec:10:8c:0d:39:11:19:2a:70:4e:9c:5a:0f:5b:
                    31:6b:c4:50:a3:f9:01:18:3f:54:84:12:26:ed:f8:
                    46:46:16:3b:b3:e2:b8:44:ea:1e:64:e1:e7:0c:33:
                    1e:41:05:b3:b3:b8:16:0c:f2:fe:82:95:ea:e1:4a:
                    40:aa:a7:61:37:9c:e6:e3:36:fa:69:2c:3d:cc:05:
                    84:c1:8e:92:50:c5:53:b1:77:60:1f:ab:8a:b1:fe:
                    10:d2:23:25:4a:ee:00:1a:75:0c:91:bb:96:64:c2:
                    08:4b:b0:a0:98:f5:42:73:a9:cc:99:72:f4:66:32:
                    cf:6e:90:f1:14:0a:ff:4e:de:75:f2:3e:b3:a2:f1:
                    7f:52:b5:a3:4e:03:41:fb:52:20:aa:46:2b:69:5a:
                    68:54:f1:8c:e2:e9:7b:20:84:5b:57:26:80:33:3d:
                    bb:e3:9a:8b:d1:4c:c5:26:49:fd:50:cc:d8:67:d8:
                    56:ad:e1:cd:5b:03:08:26:22:d3:ad:58:04:a5:b5:
                    59:54:ce:c5:94:af:32:cb:fe:3a:80:a5:5a:b9:23:
                    4b:cc:b0:23:25:3b:c8:a5:df:04:75:3b:a5:f7:ff:
                    28:7a:f0:db:1c:53:b9:ca:dc:37:75:ea:44:3a:26:
                    c9:d5
                Exponent: 65537 (0x10001)
        X509v3 extensions:
            X509v3 Basic Constraints: 
                CA:FALSE
            X509v3 Subject Key Identifier: 
                BB:97:E6:F5:98:B9:DA:9A:8E:9E:95:D1:C9:6F:4B:98:9B:2B:7A:2E
            X509v3 Authority Key Identifier: 
                keyid:CD:49:A9:D8:38:4F:DC:BB:C5:41:53:9A:D2:9D:54:4B:10:2F:DB:2E
                DirName:/CN=team567-net
                serial:74:50:1D:BA:CD:27:DC:F4:78:F8:AD:C2:6C:48:D5:B8:60:2C:E6:96

            X509v3 Extended Key Usage: 
                TLS Web Server Authentication
            X509v3 Key Usage: 
                Digital Signature, Key Encipherment
            X509v3 Subject Alternative Name: 
                DNS:team567-server
    Signature Algorithm: sha256WithRSAEncryption
         50:7b:42:ba:cf:5f:1e:0c:43:6d:ec:48:ce:03:f9:45:a8:32:
         22:c1:b1:07:35:06:83:1c:47:bd:50:49:3a:bd:40:fa:99:09:
         b7:69:6f:63:e4:ad:7a:74:aa:7a:73:16:b2:af:85:9c:a7:95:
         0c:8f:d2:5d:0c:c6:03:04:a7:cc:d1:d9:55:54:81:35:34:49:
         77:f6:88:97:f5:84:fd:31:2d:93:4a:3e:b9:90:cf:eb:c9:47:
         25:6c:6e:64:06:45:07:51:59:db:5b:1c:72:71:fd:c4:ae:7b:
         b0:6c:58:b7:73:f9:b0:b9:ff:cd:37:02:80:10:ee:d0:f3:81:
         94:38:9a:5e:4c:b6:f2:bc:21:3b:f1:8a:82:f8:9c:db:76:8d:
         b0:6b:d3:31:52:bc:1b:0c:91:c4:e9:19:4e:7a:18:94:12:76:
         33:8a:f8:e7:94:e7:b7:25:1f:8c:29:ea:0d:a7:96:7c:9d:c4:
         87:59:ea:b8:2b:16:e1:95:a7:46:bb:cc:c6:93:7b:7a:e9:a0:
         19:e1:dc:25:b3:09:f8:a0:51:08:aa:17:99:12:eb:84:a3:2d:
         f1:25:cf:74:e2:04:a5:a5:3e:ac:3b:17:fc:b8:51:e4:f6:26:
         b2:07:a6:03:20:7a:70:69:e7:e6:f1:e4:26:fe:1a:20:14:b3:
         17:18:85:1d
-----BEGIN CERTIFICATE-----
MIIDeDCCAmCgAwIBAgIRANMXJVvq6u6xDJQu/voQrYAwDQYJKoZIhvcNAQELBQAw
FjEUMBIGA1UEAwwLdGVhbTU2Ny1uZXQwHhcNMjIwNTE4MjIyMjE4WhcNMjUwNTAy
MjIyMjE4WjAZMRcwFQYDVQQDDA50ZWFtNTY3LXNlcnZlcjCCASIwDQYJKoZIhvcN
AQEBBQADggEPADCCAQoCggEBAMKMS9h54P3gd71xAXjzT+wQjA05ERkqcE6cWg9b
MWvEUKP5ARg/VIQSJu34RkYWO7PiuETqHmTh5wwzHkEFs7O4Fgzy/oKV6uFKQKqn
YTec5uM2+mksPcwFhMGOklDFU7F3YB+rirH+ENIjJUruABp1DJG7lmTCCEuwoJj1
QnOpzJly9GYyz26Q8RQK/07edfI+s6Lxf1K1o04DQftSIKpGK2laaFTxjOLpeyCE
W1cmgDM9u+Oai9FMxSZJ/VDM2GfYVq3hzVsDCCYi061YBKW1WVTOxZSvMsv+OoCl
WrkjS8ywIyU7yKXfBHU7pff/KHrw2xxTucrcN3XqRDomydUCAwEAAaOBvTCBujAJ
BgNVHRMEAjAAMB0GA1UdDgQWBBS7l+b1mLnamo6eldHJb0uYmyt6LjBRBgNVHSME
SjBIgBTNSanYOE/cu8VBU5rSnVRLEC/bLqEapBgwFjEUMBIGA1UEAwwLdGVhbTU2
Ny1uZXSCFHRQHbrNJ9z0ePitwmxI1bhgLOaWMBMGA1UdJQQMMAoGCCsGAQUFBwMB
MAsGA1UdDwQEAwIFoDAZBgNVHREEEjAQgg50ZWFtNTY3LXNlcnZlcjANBgkqhkiG
9w0BAQsFAAOCAQEAUHtCus9fHgxDbexIzgP5RagyIsGxBzUGgxxHvVBJOr1A+pkJ
t2lvY+StenSqenMWsq+FnKeVDI/SXQzGAwSnzNHZVVSBNTRJd/aIl/WE/TEtk0o+
uZDP68lHJWxuZAZFB1FZ21sccnH9xK57sGxYt3P5sLn/zTcCgBDu0POBlDiaXky2
8rwhO/GKgvic23aNsGvTMVK8GwyRxOkZTnoYlBJ2M4r455TntyUfjCnqDaeWfJ3E
h1nquCsW4ZWnRrvMxpN7eumgGeHcJbMJ+KBRCKoXmRLrhKMt8SXPdOIEpaU+rDsX
/LhR5PYmsgemAyB6cGnn5vHkJv4aIBSzFxiFHQ==
-----END CERTIFICATE-----
