Certificate:
    Data:
        Version: 3 (0x2)
        Serial Number:
            8a:72:16:cf:8d:33:f5:db:7b:a2:a5:db:fd:ae:81:0a
        Signature Algorithm: sha256WithRSAEncryption
        Issuer: CN=team82-net
        Validity
            Not Before: May 18 14:37:53 2022 GMT
            Not After : May  2 14:37:53 2025 GMT
        Subject: CN=team82-client
        Subject Public Key Info:
            Public Key Algorithm: rsaEncryption
                RSA Public-Key: (2048 bit)
                Modulus:
                    00:d8:af:5b:d8:86:65:06:37:a2:bb:a2:fc:28:ef:
                    d0:b4:5f:59:0d:87:88:39:8e:62:92:d7:a9:d2:7a:
                    5b:30:45:6a:0d:4e:d5:da:74:06:9b:98:86:1a:2a:
                    fc:36:0d:95:88:37:68:e7:d3:29:c2:3c:8a:f4:7c:
                    25:71:15:20:31:e9:86:8b:bd:15:c2:d1:57:fb:f9:
                    c3:7e:f8:ef:76:e3:30:4f:32:6b:e1:88:19:51:b6:
                    70:97:da:a9:8a:c6:91:fa:7a:46:8c:af:b1:66:41:
                    c1:f6:07:81:37:b0:f9:39:2f:2b:60:72:1c:96:66:
                    b6:4b:9c:ed:41:66:e3:3c:77:53:55:2c:15:a4:10:
                    b4:5e:7c:4b:b7:3c:86:27:f7:b0:47:2e:a4:be:c9:
                    f7:e2:be:a7:81:28:47:24:88:87:3a:93:75:3a:f1:
                    1a:ab:9a:01:b9:e3:83:6e:96:f5:c1:e1:17:a3:e8:
                    4f:07:1f:dc:a5:b7:29:2e:09:72:0f:86:76:98:65:
                    2e:b8:e7:b7:06:d6:f9:86:18:54:3c:c6:1c:8a:44:
                    3e:2e:a4:ca:62:0f:9d:72:22:79:3d:bf:e3:e3:6c:
                    f3:70:4c:c6:96:35:db:96:8d:2a:29:1f:9a:7e:9d:
                    1b:e2:e1:fd:d5:f2:4c:11:6b:b0:e6:a2:85:0b:15:
                    06:47
                Exponent: 65537 (0x10001)
        X509v3 extensions:
            X509v3 Basic Constraints: 
                CA:FALSE
            X509v3 Subject Key Identifier: 
                34:9C:23:86:C0:F7:D0:5B:53:81:5D:BE:3A:92:A1:62:A6:1D:0A:D3
            X509v3 Authority Key Identifier: 
                keyid:CC:13:A7:D2:FE:BB:F8:87:4D:EC:67:3B:47:44:F8:A1:0F:DE:87:AA
                DirName:/CN=team82-net
                serial:6F:A5:46:DC:48:5F:6F:39:2F:C2:84:E0:EE:C8:10:F6:E8:FA:02:9A

            X509v3 Extended Key Usage: 
                TLS Web Client Authentication
            X509v3 Key Usage: 
                Digital Signature
    Signature Algorithm: sha256WithRSAEncryption
         33:4e:30:19:b9:48:bc:2b:11:4f:0a:e7:74:89:cd:86:98:69:
         61:6b:85:d2:3e:3f:48:1a:5f:5d:42:e6:a7:c0:c6:ad:74:99:
         1c:55:52:7c:72:b4:49:c1:fd:76:d3:83:03:a5:e6:58:35:62:
         1c:a3:af:6d:59:09:b8:04:06:06:de:d0:00:91:3b:4e:8d:a0:
         f6:0b:3d:4a:87:e6:64:df:e2:e3:af:81:e5:bd:20:a3:4f:ab:
         86:c6:7f:ae:d2:4a:6b:9a:c1:6f:53:e3:58:da:9d:95:fd:e5:
         1b:0a:46:19:fa:aa:16:78:2a:6d:2d:84:d0:f2:c8:4d:e8:8b:
         d3:7d:23:77:86:3f:e0:57:4c:79:ca:e6:57:bf:86:59:03:d6:
         59:71:0f:c7:13:bd:78:b6:1c:9c:15:4c:ad:4c:f2:48:f7:ee:
         50:84:cb:16:a6:6d:96:50:a1:0f:7f:fc:0c:d2:6a:db:d7:1c:
         8a:68:67:f2:3b:70:c7:ca:f8:5c:7d:db:f5:40:fe:3f:99:7f:
         e5:98:1e:0b:a9:ed:4c:2c:89:29:7b:08:5b:93:7d:97:e8:7a:
         f1:0a:36:dd:f8:fe:3f:ae:84:57:b7:54:9c:38:9e:cb:65:9c:
         12:b1:04:56:d0:6d:ee:9b:e5:0c:b3:0c:4c:16:42:3a:2b:d4:
         d3:4c:bc:64
-----BEGIN CERTIFICATE-----
MIIDWjCCAkKgAwIBAgIRAIpyFs+NM/Xbe6Kl2/2ugQowDQYJKoZIhvcNAQELBQAw
FTETMBEGA1UEAwwKdGVhbTgyLW5ldDAeFw0yMjA1MTgxNDM3NTNaFw0yNTA1MDIx
NDM3NTNaMBgxFjAUBgNVBAMMDXRlYW04Mi1jbGllbnQwggEiMA0GCSqGSIb3DQEB
AQUAA4IBDwAwggEKAoIBAQDYr1vYhmUGN6K7ovwo79C0X1kNh4g5jmKS16nSelsw
RWoNTtXadAabmIYaKvw2DZWIN2jn0ynCPIr0fCVxFSAx6YaLvRXC0Vf7+cN++O92
4zBPMmvhiBlRtnCX2qmKxpH6ekaMr7FmQcH2B4E3sPk5LytgchyWZrZLnO1BZuM8
d1NVLBWkELRefEu3PIYn97BHLqS+yffivqeBKEckiIc6k3U68RqrmgG544NulvXB
4Rej6E8HH9yltykuCXIPhnaYZS6457cG1vmGGFQ8xhyKRD4upMpiD51yInk9v+Pj
bPNwTMaWNduWjSopH5p+nRvi4f3V8kwRa7DmooULFQZHAgMBAAGjgaEwgZ4wCQYD
VR0TBAIwADAdBgNVHQ4EFgQUNJwjhsD30FtTgV2+OpKhYqYdCtMwUAYDVR0jBEkw
R4AUzBOn0v67+IdN7Gc7R0T4oQ/eh6qhGaQXMBUxEzARBgNVBAMMCnRlYW04Mi1u
ZXSCFG+lRtxIX285L8KE4O7IEPbo+gKaMBMGA1UdJQQMMAoGCCsGAQUFBwMCMAsG
A1UdDwQEAwIHgDANBgkqhkiG9w0BAQsFAAOCAQEAM04wGblIvCsRTwrndInNhphp
YWuF0j4/SBpfXULmp8DGrXSZHFVSfHK0ScH9dtODA6XmWDViHKOvbVkJuAQGBt7Q
AJE7To2g9gs9SofmZN/i46+B5b0go0+rhsZ/rtJKa5rBb1PjWNqdlf3lGwpGGfqq
FngqbS2E0PLITeiL030jd4Y/4FdMecrmV7+GWQPWWXEPxxO9eLYcnBVMrUzySPfu
UITLFqZtllChD3/8DNJq29ccimhn8jtwx8r4XH3b9UD+P5l/5ZgeC6ntTCyJKXsI
W5N9l+h68Qo23fj+P66EV7dUnDiey2WcErEEVtBt7pvlDLMMTBZCOivU00y8ZA==
-----END CERTIFICATE-----
