Certificate:
    Data:
        Version: 3 (0x2)
        Serial Number:
            9d:21:7a:b7:d9:06:90:3e:8b:86:bb:26:fd:b6:e9:86
        Signature Algorithm: sha256WithRSAEncryption
        Issuer: CN=team408-net
        Validity
            Not Before: May 18 20:52:00 2022 GMT
            Not After : May  2 20:52:00 2025 GMT
        Subject: CN=team408-client
        Subject Public Key Info:
            Public Key Algorithm: rsaEncryption
                RSA Public-Key: (2048 bit)
                Modulus:
                    00:a5:24:1f:cb:21:14:14:47:fd:5f:04:55:5e:a0:
                    c8:e2:d3:10:ec:c6:e3:2c:7a:7f:bc:25:cd:7c:be:
                    48:79:cb:69:f0:95:a1:ee:cc:4a:dc:1e:83:b6:86:
                    f0:97:63:45:91:d9:c2:e2:e5:6b:bd:69:5d:8d:58:
                    8e:b4:54:8f:71:92:8e:67:99:9d:57:4a:7f:f4:2f:
                    60:35:9c:b2:35:0c:6c:80:3a:b7:0a:62:22:e7:2c:
                    18:30:4b:65:a7:9c:1f:e0:c6:23:5a:a0:0d:15:de:
                    29:35:9f:84:af:0f:9c:2d:86:ad:c6:f0:e3:2c:fe:
                    09:34:cd:7f:3d:97:c4:99:72:ed:c0:ab:a7:bb:d2:
                    1a:a2:84:da:a5:34:60:6a:4f:cc:57:6a:d9:67:5c:
                    d0:e8:a6:6c:c2:4d:ed:06:cd:e1:a9:6a:15:e2:f1:
                    58:78:b7:8e:af:aa:0d:4f:80:3f:4f:db:4c:08:46:
                    fa:75:9e:06:c2:dd:50:e5:2f:0b:8c:91:a8:9e:33:
                    40:a3:43:49:13:b1:e6:b8:e8:fa:a2:d4:09:d1:0f:
                    c3:b9:70:1f:6e:a6:bc:de:14:6c:95:65:b3:1e:6f:
                    46:9b:9d:02:da:39:19:3b:e5:61:9a:5a:88:74:ef:
                    7e:3e:f0:a8:16:90:90:b0:af:08:22:c9:b9:4e:3a:
                    82:c9
                Exponent: 65537 (0x10001)
        X509v3 extensions:
            X509v3 Basic Constraints: 
                CA:FALSE
            X509v3 Subject Key Identifier: 
                D1:68:1A:3C:3D:86:04:5F:F1:F4:4B:5B:F5:EC:42:1C:A0:9A:24:C4
            X509v3 Authority Key Identifier: 
                keyid:CD:D4:B1:0E:D4:3A:07:74:50:F6:96:A8:88:E8:D4:2A:3F:AA:2A:A0
                DirName:/CN=team408-net
                serial:7B:62:7C:70:45:6D:2E:C9:A8:13:0D:06:8C:14:BD:8C:11:EE:EC:0D

            X509v3 Extended Key Usage: 
                TLS Web Client Authentication
            X509v3 Key Usage: 
                Digital Signature
    Signature Algorithm: sha256WithRSAEncryption
         bb:7f:05:f5:08:38:1f:23:0b:4c:c8:e9:ff:73:58:e7:86:f8:
         b1:71:43:49:56:a5:9d:f2:23:1e:95:a3:9f:db:78:c4:69:d0:
         0b:e6:bf:63:1e:4b:4c:0c:62:97:e5:da:55:bc:6f:72:bb:de:
         88:98:05:e6:4d:6e:10:6b:fd:da:95:58:b0:69:4f:97:d1:80:
         e6:00:cd:40:75:4d:a4:d3:5d:70:f2:6b:a1:6d:36:ce:d3:5d:
         fd:d6:15:ac:d6:ff:52:e9:b6:4d:7d:45:e7:76:cc:d7:d0:33:
         f1:dd:d8:e3:47:ca:b0:1c:27:4e:62:1c:02:0e:14:85:10:d1:
         05:42:9d:36:1b:38:3f:e0:b2:f8:92:54:f2:e1:a7:e5:c1:c3:
         32:5a:5e:5e:be:e4:0a:b3:1e:ee:12:fa:60:0e:8a:15:ef:06:
         cb:81:1e:9b:f1:f9:fa:7d:3d:79:cd:82:9d:d2:93:e4:a6:ad:
         9a:fa:18:54:5d:57:c1:2d:e9:c7:e4:27:56:67:0f:6f:11:07:
         0f:c3:d9:47:71:ca:9d:84:55:18:47:6a:db:36:29:87:5f:6e:
         d0:a4:9f:f6:33:81:83:9b:fa:cd:d9:3a:2a:ef:5c:83:3d:e9:
         d0:e8:18:7f:c2:e1:57:be:67:11:cf:ab:b9:25:7e:65:ed:93:
         52:19:86:27
-----BEGIN CERTIFICATE-----
MIIDXTCCAkWgAwIBAgIRAJ0herfZBpA+i4a7Jv226YYwDQYJKoZIhvcNAQELBQAw
FjEUMBIGA1UEAwwLdGVhbTQwOC1uZXQwHhcNMjIwNTE4MjA1MjAwWhcNMjUwNTAy
MjA1MjAwWjAZMRcwFQYDVQQDDA50ZWFtNDA4LWNsaWVudDCCASIwDQYJKoZIhvcN
AQEBBQADggEPADCCAQoCggEBAKUkH8shFBRH/V8EVV6gyOLTEOzG4yx6f7wlzXy+
SHnLafCVoe7MStweg7aG8JdjRZHZwuLla71pXY1YjrRUj3GSjmeZnVdKf/QvYDWc
sjUMbIA6twpiIucsGDBLZaecH+DGI1qgDRXeKTWfhK8PnC2Grcbw4yz+CTTNfz2X
xJly7cCrp7vSGqKE2qU0YGpPzFdq2Wdc0OimbMJN7QbN4alqFeLxWHi3jq+qDU+A
P0/bTAhG+nWeBsLdUOUvC4yRqJ4zQKNDSROx5rjo+qLUCdEPw7lwH26mvN4UbJVl
sx5vRpudAto5GTvlYZpaiHTvfj7wqBaQkLCvCCLJuU46gskCAwEAAaOBojCBnzAJ
BgNVHRMEAjAAMB0GA1UdDgQWBBTRaBo8PYYEX/H0S1v17EIcoJokxDBRBgNVHSME
SjBIgBTN1LEO1DoHdFD2lqiI6NQqP6oqoKEapBgwFjEUMBIGA1UEAwwLdGVhbTQw
OC1uZXSCFHtifHBFbS7JqBMNBowUvYwR7uwNMBMGA1UdJQQMMAoGCCsGAQUFBwMC
MAsGA1UdDwQEAwIHgDANBgkqhkiG9w0BAQsFAAOCAQEAu38F9Qg4HyMLTMjp/3NY
54b4sXFDSValnfIjHpWjn9t4xGnQC+a/Yx5LTAxil+XaVbxvcrveiJgF5k1uEGv9
2pVYsGlPl9GA5gDNQHVNpNNdcPJroW02ztNd/dYVrNb/Uum2TX1F53bM19Az8d3Y
40fKsBwnTmIcAg4UhRDRBUKdNhs4P+Cy+JJU8uGn5cHDMlpeXr7kCrMe7hL6YA6K
Fe8Gy4Eem/H5+n09ec2CndKT5KatmvoYVF1XwS3px+QnVmcPbxEHD8PZR3HKnYRV
GEdq2zYph19u0KSf9jOBg5v6zdk6Ku9cgz3p0OgYf8LhV75nEc+ruSV+Ze2TUhmG
Jw==
-----END CERTIFICATE-----
