Certificate:
    Data:
        Version: 3 (0x2)
        Serial Number:
            77:3c:4e:26:59:a1:b0:c1:e2:20:87:62:fd:73:4d:5d
        Signature Algorithm: sha256WithRSAEncryption
        Issuer: CN=team588-net
        Validity
            Not Before: May 18 22:40:36 2022 GMT
            Not After : May  2 22:40:36 2025 GMT
        Subject: CN=team588-server
        Subject Public Key Info:
            Public Key Algorithm: rsaEncryption
                RSA Public-Key: (2048 bit)
                Modulus:
                    00:cb:32:af:56:e9:fd:65:b9:f3:a5:a5:1c:2d:8b:
                    36:0e:74:c5:ec:ed:03:b8:89:91:e2:3b:27:a5:41:
                    19:7b:49:f9:49:eb:84:25:44:8f:fd:ac:2d:ae:fc:
                    27:db:c8:cd:30:b1:34:ab:0c:be:1e:b6:1c:3f:11:
                    a3:10:be:58:39:94:73:9c:84:00:05:3a:99:00:7a:
                    e0:c8:f9:87:99:fb:40:ab:9d:4c:cd:71:49:28:5f:
                    75:5e:c5:e8:9d:e7:d8:18:62:2f:a0:60:93:a9:be:
                    16:1d:80:ca:72:da:a8:0e:82:67:62:12:fb:1c:72:
                    7b:2e:9a:ce:a7:d4:5a:ee:78:4a:c0:34:be:21:46:
                    a5:0d:1b:84:c0:4a:76:3f:eb:21:01:f8:1c:7b:d1:
                    56:3b:a2:be:f7:20:9d:85:10:c4:d3:87:f3:90:01:
                    f5:00:70:4a:ce:e4:e4:a6:8f:0b:5d:61:9c:dc:86:
                    c5:49:fc:91:8a:08:b5:b8:0d:ff:0f:03:df:5a:8f:
                    4b:d4:10:92:82:89:6b:8c:25:00:d1:bb:af:3d:1d:
                    54:a7:4b:76:f5:3a:e5:40:2e:d5:2e:72:a2:55:1b:
                    c1:45:3e:61:6c:9a:77:13:45:ef:a8:80:fb:73:e6:
                    ac:fd:2b:65:3c:e6:24:28:17:18:6d:28:89:69:08:
                    94:9f
                Exponent: 65537 (0x10001)
        X509v3 extensions:
            X509v3 Basic Constraints: 
                CA:FALSE
            X509v3 Subject Key Identifier: 
                E4:4E:44:35:8B:DF:3E:8E:B2:10:F7:12:71:DF:3B:75:22:F7:35:98
            X509v3 Authority Key Identifier: 
                keyid:14:6A:B9:21:FE:0C:5A:35:4F:41:22:2A:69:35:48:74:24:98:E2:DF
                DirName:/CN=team588-net
                serial:17:C0:03:E0:D0:6F:FC:91:3B:53:BD:F7:7F:76:35:8D:49:E4:A5:3D

            X509v3 Extended Key Usage: 
                TLS Web Server Authentication
            X509v3 Key Usage: 
                Digital Signature, Key Encipherment
            X509v3 Subject Alternative Name: 
                DNS:team588-server
    Signature Algorithm: sha256WithRSAEncryption
         2f:60:8c:dd:9d:b0:70:c2:d2:c4:df:8b:b8:27:fe:7b:ff:7a:
         6c:b5:d1:17:26:24:41:3e:6b:7f:87:72:7a:c4:31:ac:28:a6:
         bf:fe:79:71:76:e2:f2:c9:28:54:06:73:be:de:73:3b:aa:d9:
         84:27:2e:83:ab:c8:c5:6d:84:de:a5:a9:07:36:49:07:ff:27:
         a1:07:f1:ef:ab:01:24:5c:90:e4:13:ed:c2:53:c1:0c:5a:db:
         2c:5d:8b:45:e2:bd:e2:d4:3b:1b:c0:de:fe:51:fa:35:9e:5e:
         ec:3a:99:07:c9:7a:39:1d:f0:f7:07:dd:de:f5:6b:9a:f6:e6:
         d5:d9:4f:d7:77:f7:09:34:96:34:aa:42:71:f9:41:af:c9:58:
         7c:28:69:e8:d0:3a:53:c6:07:f8:d3:4f:ea:fa:2d:0a:d1:a2:
         fc:88:47:79:d2:5a:7b:fa:d1:a7:56:a9:49:25:cc:f4:11:7d:
         29:38:2b:4a:77:e7:af:ca:f5:a3:7d:e3:37:68:6b:c3:bb:ab:
         60:c1:85:6e:fe:ef:cd:a5:d5:18:46:2d:23:a3:9d:47:d2:f9:
         a3:7d:88:ff:d1:d2:8d:13:96:16:a8:51:f2:ba:ec:5b:70:91:
         04:b9:16:bc:f4:af:27:f2:0b:51:44:aa:6d:75:84:49:7e:ff:
         3b:b1:b7:33
-----BEGIN CERTIFICATE-----
MIIDdzCCAl+gAwIBAgIQdzxOJlmhsMHiIIdi/XNNXTANBgkqhkiG9w0BAQsFADAW
MRQwEgYDVQQDDAt0ZWFtNTg4LW5ldDAeFw0yMjA1MTgyMjQwMzZaFw0yNTA1MDIy
MjQwMzZaMBkxFzAVBgNVBAMMDnRlYW01ODgtc2VydmVyMIIBIjANBgkqhkiG9w0B
AQEFAAOCAQ8AMIIBCgKCAQEAyzKvVun9ZbnzpaUcLYs2DnTF7O0DuImR4jsnpUEZ
e0n5SeuEJUSP/awtrvwn28jNMLE0qwy+HrYcPxGjEL5YOZRznIQABTqZAHrgyPmH
mftAq51MzXFJKF91XsXonefYGGIvoGCTqb4WHYDKctqoDoJnYhL7HHJ7LprOp9Ra
7nhKwDS+IUalDRuEwEp2P+shAfgce9FWO6K+9yCdhRDE04fzkAH1AHBKzuTkpo8L
XWGc3IbFSfyRigi1uA3/DwPfWo9L1BCSgolrjCUA0buvPR1Up0t29TrlQC7VLnKi
VRvBRT5hbJp3E0XvqID7c+as/StlPOYkKBcYbSiJaQiUnwIDAQABo4G9MIG6MAkG
A1UdEwQCMAAwHQYDVR0OBBYEFORORDWL3z6OshD3EnHfO3Ui9zWYMFEGA1UdIwRK
MEiAFBRquSH+DFo1T0EiKmk1SHQkmOLfoRqkGDAWMRQwEgYDVQQDDAt0ZWFtNTg4
LW5ldIIUF8AD4NBv/JE7U733f3Y1jUnkpT0wEwYDVR0lBAwwCgYIKwYBBQUHAwEw
CwYDVR0PBAQDAgWgMBkGA1UdEQQSMBCCDnRlYW01ODgtc2VydmVyMA0GCSqGSIb3
DQEBCwUAA4IBAQAvYIzdnbBwwtLE34u4J/57/3pstdEXJiRBPmt/h3J6xDGsKKa/
/nlxduLyyShUBnO+3nM7qtmEJy6Dq8jFbYTepakHNkkH/yehB/HvqwEkXJDkE+3C
U8EMWtssXYtF4r3i1DsbwN7+Ufo1nl7sOpkHyXo5HfD3B93e9Wua9ubV2U/Xd/cJ
NJY0qkJx+UGvyVh8KGno0DpTxgf400/q+i0K0aL8iEd50lp7+tGnVqlJJcz0EX0p
OCtKd+evyvWjfeM3aGvDu6tgwYVu/u/NpdUYRi0jo51H0vmjfYj/0dKNE5YWqFHy
uuxbcJEEuRa89K8n8gtRRKptdYRJfv87sbcz
-----END CERTIFICATE-----
