Certificate:
    Data:
        Version: 3 (0x2)
        Serial Number:
            42:3f:34:17:14:5c:f6:2f:8b:72:d3:56:f5:1b:04:28
        Signature Algorithm: sha256WithRSAEncryption
        Issuer: CN=team121-net
        Validity
            Not Before: May 18 15:02:02 2022 GMT
            Not After : May  2 15:02:02 2025 GMT
        Subject: CN=team121-client
        Subject Public Key Info:
            Public Key Algorithm: rsaEncryption
                RSA Public-Key: (2048 bit)
                Modulus:
                    00:c5:a9:50:e4:70:de:a1:af:52:c2:89:b4:7a:44:
                    18:f9:e9:6b:8a:bd:88:31:25:e6:2c:f6:5e:8d:d9:
                    a9:be:2d:9b:63:bd:00:9f:35:0f:0e:2f:b7:20:f6:
                    c0:af:5c:7a:44:8b:47:b7:3f:56:b2:4b:4a:9d:bd:
                    46:45:0b:02:39:79:a6:50:ca:86:3c:f4:49:08:99:
                    f4:a5:1f:88:ea:ed:29:a6:94:ea:6a:0b:51:81:29:
                    d1:43:59:cb:cb:6c:43:12:0f:09:3a:70:c6:14:8f:
                    04:bf:fe:cb:6f:0d:7b:fe:c9:0b:66:04:7f:84:9d:
                    47:cc:41:9e:e2:3b:96:f1:bc:4c:ca:79:6a:17:19:
                    53:e1:04:8d:ef:40:57:96:b7:81:71:d3:ed:5d:62:
                    f0:4d:89:1f:54:de:9c:2d:39:cb:ee:b9:96:e6:bc:
                    1a:82:2e:2b:3f:bf:bc:a1:5b:1e:1f:18:61:35:1c:
                    86:b5:f2:7d:27:0d:9a:0e:04:02:1f:2e:7b:d6:a3:
                    8c:c7:70:8f:70:a5:24:0f:8f:47:2d:d9:00:d4:e1:
                    e6:b7:4c:eb:af:0d:79:3a:aa:bf:4d:17:bc:8f:28:
                    cf:da:95:51:b0:96:a2:af:f6:39:8d:9b:78:17:71:
                    27:98:1a:00:99:48:0c:9c:8f:14:12:80:a4:c5:dc:
                    d6:2b
                Exponent: 65537 (0x10001)
        X509v3 extensions:
            X509v3 Basic Constraints: 
                CA:FALSE
            X509v3 Subject Key Identifier: 
                C3:0D:62:EC:CF:1F:E2:9B:49:46:04:1A:90:DB:7D:37:CE:AF:27:6E
            X509v3 Authority Key Identifier: 
                keyid:F1:6A:A1:BC:91:B4:7D:19:C6:DD:19:70:5D:62:57:60:7A:32:47:85
                DirName:/CN=team121-net
                serial:74:E6:D2:B7:F3:C5:1A:8A:56:4D:88:15:B8:0D:24:1F:3D:B3:18:AF

            X509v3 Extended Key Usage: 
                TLS Web Client Authentication
            X509v3 Key Usage: 
                Digital Signature
    Signature Algorithm: sha256WithRSAEncryption
         93:bc:a1:9f:85:59:ee:48:9a:d3:19:ec:37:fc:de:46:d2:49:
         27:ab:1b:f2:33:e5:56:b7:47:1e:af:18:31:9c:03:da:60:5e:
         c3:33:47:b9:a4:b8:14:b9:5e:0f:b7:b1:67:91:90:39:cc:46:
         53:3a:e2:8f:a7:95:d3:d3:02:06:1e:5c:ab:a8:02:22:3b:ff:
         1d:95:3e:94:bf:40:92:34:37:d6:1a:47:90:06:4d:14:c8:a8:
         9d:8e:ec:75:9e:06:e7:29:ad:84:9c:6c:ec:9b:ef:34:5c:c0:
         e1:f1:51:66:8d:4e:1a:77:0c:00:ee:78:f2:53:5e:7a:5c:68:
         55:5d:d2:4e:d7:0f:56:15:2d:3c:d5:75:bf:43:9e:b0:e6:32:
         20:d0:d2:dd:1c:14:fb:b0:59:9d:9a:e6:02:b8:60:af:23:66:
         45:60:5c:49:1e:1b:3a:d2:33:fe:f8:6e:98:53:27:0a:08:98:
         de:e0:5b:fa:7d:9f:87:93:a5:4b:08:4c:19:97:e4:51:eb:9e:
         97:cb:c9:e9:3b:5f:b6:1b:b6:1c:04:51:17:95:49:f5:39:2a:
         33:51:57:fa:30:1b:78:e8:fa:2a:81:3d:9c:e2:2d:d5:06:85:
         97:6f:45:9d:c4:1a:20:d1:4d:1a:77:ac:0a:fb:32:d4:45:e5:
         d9:7e:c9:35
-----BEGIN CERTIFICATE-----
MIIDXDCCAkSgAwIBAgIQQj80FxRc9i+LctNW9RsEKDANBgkqhkiG9w0BAQsFADAW
MRQwEgYDVQQDDAt0ZWFtMTIxLW5ldDAeFw0yMjA1MTgxNTAyMDJaFw0yNTA1MDIx
NTAyMDJaMBkxFzAVBgNVBAMMDnRlYW0xMjEtY2xpZW50MIIBIjANBgkqhkiG9w0B
AQEFAAOCAQ8AMIIBCgKCAQEAxalQ5HDeoa9Swom0ekQY+elrir2IMSXmLPZejdmp
vi2bY70AnzUPDi+3IPbAr1x6RItHtz9WsktKnb1GRQsCOXmmUMqGPPRJCJn0pR+I
6u0pppTqagtRgSnRQ1nLy2xDEg8JOnDGFI8Ev/7Lbw17/skLZgR/hJ1HzEGe4juW
8bxMynlqFxlT4QSN70BXlreBcdPtXWLwTYkfVN6cLTnL7rmW5rwagi4rP7+8oVse
HxhhNRyGtfJ9Jw2aDgQCHy571qOMx3CPcKUkD49HLdkA1OHmt0zrrw15Oqq/TRe8
jyjP2pVRsJair/Y5jZt4F3EnmBoAmUgMnI8UEoCkxdzWKwIDAQABo4GiMIGfMAkG
A1UdEwQCMAAwHQYDVR0OBBYEFMMNYuzPH+KbSUYEGpDbfTfOryduMFEGA1UdIwRK
MEiAFPFqobyRtH0Zxt0ZcF1iV2B6MkeFoRqkGDAWMRQwEgYDVQQDDAt0ZWFtMTIx
LW5ldIIUdObSt/PFGopWTYgVuA0kHz2zGK8wEwYDVR0lBAwwCgYIKwYBBQUHAwIw
CwYDVR0PBAQDAgeAMA0GCSqGSIb3DQEBCwUAA4IBAQCTvKGfhVnuSJrTGew3/N5G
0kknqxvyM+VWt0cerxgxnAPaYF7DM0e5pLgUuV4Pt7FnkZA5zEZTOuKPp5XT0wIG
HlyrqAIiO/8dlT6Uv0CSNDfWGkeQBk0UyKidjux1ngbnKa2EnGzsm+80XMDh8VFm
jU4adwwA7njyU156XGhVXdJO1w9WFS081XW/Q56w5jIg0NLdHBT7sFmdmuYCuGCv
I2ZFYFxJHhs60jP++G6YUycKCJje4Fv6fZ+Hk6VLCEwZl+RR656Xy8npO1+2G7Yc
BFEXlUn1OSozUVf6MBt46PoqgT2c4i3VBoWXb0WdxBog0U0ad6wK+zLUReXZfsk1
-----END CERTIFICATE-----
