Certificate:
    Data:
        Version: 3 (0x2)
        Serial Number:
            a7:8a:00:6d:90:45:07:3a:56:0d:ae:06:43:c6:6c:0a
        Signature Algorithm: sha256WithRSAEncryption
        Issuer: CN=team373-net
        Validity
            Not Before: May 18 20:38:29 2022 GMT
            Not After : May  2 20:38:29 2025 GMT
        Subject: CN=team373-server
        Subject Public Key Info:
            Public Key Algorithm: rsaEncryption
                RSA Public-Key: (2048 bit)
                Modulus:
                    00:e4:d0:70:8c:20:bc:f6:83:ca:de:b2:ad:1d:f6:
                    a9:08:7f:a0:98:44:28:a3:c9:d5:49:14:bb:26:fe:
                    ca:e6:0e:dd:14:a4:5c:1b:ba:4d:af:17:92:21:95:
                    74:3c:38:ee:28:63:8d:d9:a3:46:c2:a0:65:61:ed:
                    85:fc:aa:bb:50:0f:10:56:55:68:5a:df:63:87:4c:
                    72:21:11:91:74:b5:9b:07:97:71:a5:59:e3:c0:a5:
                    b7:b3:6f:87:58:a9:1f:dd:bb:5f:6f:19:25:9a:ef:
                    f3:72:e1:1c:22:4e:2d:06:00:6e:e8:9f:10:59:c1:
                    c7:64:15:4e:ff:1a:99:ba:eb:0a:2a:fc:6c:90:67:
                    42:48:e0:1d:f6:06:3b:3a:67:34:01:41:34:bf:d6:
                    91:e7:69:99:1b:f5:96:38:11:10:11:48:cb:17:c8:
                    43:c7:f7:8c:2d:f4:7e:ee:35:f7:36:5d:f6:af:c6:
                    ee:04:44:42:37:53:2b:ab:1a:15:05:eb:39:d8:3a:
                    b2:2b:9b:b1:8f:2f:7a:72:93:de:c7:bd:9f:4c:18:
                    ba:1a:b7:32:12:89:3b:01:43:d0:2d:5d:b3:ed:ee:
                    41:47:c7:07:eb:25:f6:cc:d3:ac:0f:f8:d0:f5:55:
                    f4:77:ca:3a:99:c7:5e:3c:bb:12:2e:ba:90:7a:30:
                    34:e1
                Exponent: 65537 (0x10001)
        X509v3 extensions:
            X509v3 Basic Constraints: 
                CA:FALSE
            X509v3 Subject Key Identifier: 
                2B:DD:A7:18:CB:7D:AE:3E:CE:D1:28:D6:B8:F1:D0:03:1E:E0:92:D1
            X509v3 Authority Key Identifier: 
                keyid:C5:FA:C6:D0:C8:CF:28:B5:D2:69:7D:94:0B:0C:3B:89:CB:57:DE:8B
                DirName:/CN=team373-net
                serial:77:45:94:31:74:0F:C3:9F:DE:9B:E6:75:CB:65:83:86:64:1E:94:6A

            X509v3 Extended Key Usage: 
                TLS Web Server Authentication
            X509v3 Key Usage: 
                Digital Signature, Key Encipherment
            X509v3 Subject Alternative Name: 
                DNS:team373-server
    Signature Algorithm: sha256WithRSAEncryption
         84:26:25:08:66:47:bc:91:14:65:47:64:91:17:a8:fd:f1:4e:
         c4:6b:fc:a2:4b:72:af:8c:fb:bc:68:d7:46:c2:ca:d9:e7:0c:
         48:2c:ae:bb:65:30:5d:be:25:d9:d7:c4:5d:ec:a2:f7:8f:3e:
         21:aa:3f:08:2c:bd:62:cf:de:2a:ac:1f:4e:cc:59:51:3c:ce:
         6c:4a:5e:4f:96:53:eb:be:c0:ab:fa:fb:b4:a0:05:0c:8b:b1:
         d2:f7:c1:f7:a5:cc:f1:e5:b4:e1:26:26:98:69:cf:d6:90:c3:
         2c:a2:b3:18:58:ab:3d:73:1c:34:08:3c:c8:22:12:79:55:31:
         24:0e:31:b2:5d:0d:84:5b:3b:88:0a:a2:0f:0a:c0:b1:1d:40:
         ee:1f:2e:59:94:fc:bb:63:5e:0a:b0:db:eb:9b:5a:57:b3:3e:
         86:22:f4:c4:c6:08:bc:a5:80:fa:e9:3a:57:2d:95:28:74:4a:
         f6:88:8f:07:4e:0f:35:cd:08:e6:41:e6:76:51:fe:87:fa:79:
         5d:9b:2d:c9:b7:a1:e5:c1:02:b0:e3:88:00:4a:39:78:57:75:
         87:cd:6d:ec:dd:38:f5:a0:ec:32:3e:e0:f3:a3:b8:f9:86:fe:
         32:f8:4c:5f:bd:53:41:8b:c9:d5:b2:a3:e9:a5:e7:38:53:ad:
         ed:ce:b0:be
-----BEGIN CERTIFICATE-----
MIIDeDCCAmCgAwIBAgIRAKeKAG2QRQc6Vg2uBkPGbAowDQYJKoZIhvcNAQELBQAw
FjEUMBIGA1UEAwwLdGVhbTM3My1uZXQwHhcNMjIwNTE4MjAzODI5WhcNMjUwNTAy
MjAzODI5WjAZMRcwFQYDVQQDDA50ZWFtMzczLXNlcnZlcjCCASIwDQYJKoZIhvcN
AQEBBQADggEPADCCAQoCggEBAOTQcIwgvPaDyt6yrR32qQh/oJhEKKPJ1UkUuyb+
yuYO3RSkXBu6Ta8XkiGVdDw47ihjjdmjRsKgZWHthfyqu1APEFZVaFrfY4dMciER
kXS1mweXcaVZ48Clt7Nvh1ipH927X28ZJZrv83LhHCJOLQYAbuifEFnBx2QVTv8a
mbrrCir8bJBnQkjgHfYGOzpnNAFBNL/WkedpmRv1ljgREBFIyxfIQ8f3jC30fu41
9zZd9q/G7gREQjdTK6saFQXrOdg6siubsY8venKT3se9n0wYuhq3MhKJOwFD0C1d
s+3uQUfHB+sl9szTrA/40PVV9HfKOpnHXjy7Ei66kHowNOECAwEAAaOBvTCBujAJ
BgNVHRMEAjAAMB0GA1UdDgQWBBQr3acYy32uPs7RKNa48dADHuCS0TBRBgNVHSME
SjBIgBTF+sbQyM8otdJpfZQLDDuJy1fei6EapBgwFjEUMBIGA1UEAwwLdGVhbTM3
My1uZXSCFHdFlDF0D8Of3pvmdctlg4ZkHpRqMBMGA1UdJQQMMAoGCCsGAQUFBwMB
MAsGA1UdDwQEAwIFoDAZBgNVHREEEjAQgg50ZWFtMzczLXNlcnZlcjANBgkqhkiG
9w0BAQsFAAOCAQEAhCYlCGZHvJEUZUdkkReo/fFOxGv8oktyr4z7vGjXRsLK2ecM
SCyuu2UwXb4l2dfEXeyi948+Iao/CCy9Ys/eKqwfTsxZUTzObEpeT5ZT677Aq/r7
tKAFDIux0vfB96XM8eW04SYmmGnP1pDDLKKzGFirPXMcNAg8yCISeVUxJA4xsl0N
hFs7iAqiDwrAsR1A7h8uWZT8u2NeCrDb65taV7M+hiL0xMYIvKWA+uk6Vy2VKHRK
9oiPB04PNc0I5kHmdlH+h/p5XZstybeh5cECsOOIAEo5eFd1h81t7N049aDsMj7g
86O4+Yb+MvhMX71TQYvJ1bKj6aXnOFOt7c6wvg==
-----END CERTIFICATE-----
