Certificate:
    Data:
        Version: 3 (0x2)
        Serial Number:
            5e:96:a1:80:f6:b2:4e:22:e2:20:01:f6:a4:23:57:40
        Signature Algorithm: sha256WithRSAEncryption
        Issuer: CN=team710-net
        Validity
            Not Before: May 18 23:38:26 2022 GMT
            Not After : May  2 23:38:26 2025 GMT
        Subject: CN=team710-client
        Subject Public Key Info:
            Public Key Algorithm: rsaEncryption
                RSA Public-Key: (2048 bit)
                Modulus:
                    00:bf:68:1b:f5:7a:aa:c8:93:fc:dd:6b:62:4b:98:
                    47:10:e0:77:e8:35:2c:82:07:a0:23:00:27:c0:4f:
                    81:86:44:df:4a:b6:17:c0:8b:9b:d2:a8:cf:dd:53:
                    f8:f8:a9:5e:3c:55:ce:dc:c8:9b:71:fc:99:c6:ed:
                    7e:d0:03:29:0d:eb:a1:14:66:5a:57:00:c4:98:fe:
                    e5:eb:76:7f:0c:e1:a8:8c:52:26:06:74:0f:8c:29:
                    e5:80:a9:32:e3:4e:35:8d:1c:2a:12:ba:c2:3f:50:
                    be:e1:8f:7f:93:b1:49:ef:f7:bb:56:86:a5:81:a3:
                    7d:df:9b:97:6b:62:27:d4:2c:c3:b6:bd:f7:27:4b:
                    58:09:f4:2c:69:24:fd:6b:af:81:19:88:20:5a:e4:
                    99:ec:20:87:d7:2c:6f:95:58:85:6e:df:4d:22:49:
                    cb:68:c9:c4:f6:9c:4b:99:67:97:70:a5:64:0a:3c:
                    cf:9c:fa:ce:94:dc:5e:67:b4:ee:44:d8:f4:48:f0:
                    72:96:0a:d3:fb:52:e2:be:44:e5:9b:3f:b2:22:23:
                    87:8e:39:30:f5:af:ad:af:0a:79:62:43:b5:a2:e3:
                    6e:9e:62:dc:9e:15:aa:c8:2c:67:ca:d3:8f:6a:f8:
                    64:4e:6b:b1:5a:34:c9:84:bc:e4:58:c5:4e:df:f3:
                    3e:55
                Exponent: 65537 (0x10001)
        X509v3 extensions:
            X509v3 Basic Constraints: 
                CA:FALSE
            X509v3 Subject Key Identifier: 
                8B:1F:3F:65:DA:D2:89:5E:EB:61:F9:84:B2:38:A1:A2:B8:62:F5:30
            X509v3 Authority Key Identifier: 
                keyid:43:BE:D8:72:4C:F9:7E:D3:5C:3B:10:A4:D6:C4:E8:96:EB:5E:4D:60
                DirName:/CN=team710-net
                serial:2A:F5:6B:C1:80:C0:7F:29:EA:6E:9E:51:05:1F:D3:08:2D:DC:F1:8A

            X509v3 Extended Key Usage: 
                TLS Web Client Authentication
            X509v3 Key Usage: 
                Digital Signature
    Signature Algorithm: sha256WithRSAEncryption
         88:f4:c2:ae:5e:84:b3:25:28:c6:79:79:c6:9c:94:ad:76:1c:
         f6:29:47:22:d3:64:58:88:d4:03:29:9b:67:15:f4:fd:a4:bb:
         cd:a3:08:b3:9c:bd:8d:8e:bd:2a:57:ad:82:7c:7c:eb:4d:7c:
         c4:44:71:17:69:12:1e:e7:59:f5:15:d7:9e:11:04:7b:0b:72:
         05:61:01:83:7e:95:36:69:4a:7d:c5:43:ff:10:f4:f3:a6:a2:
         1d:95:dd:9d:de:80:65:a7:99:20:54:b7:50:f0:d7:3c:f7:4b:
         79:17:b8:a7:46:54:31:03:b8:92:9e:c2:d7:2c:0c:6d:16:4b:
         78:b9:bd:41:fb:33:bd:34:f0:ab:1a:c3:0f:21:00:fc:b1:c8:
         f4:03:5f:93:22:b6:6f:17:33:08:b5:39:55:cf:62:d6:20:41:
         51:68:58:b6:fc:88:94:de:c2:d5:47:de:17:70:d8:8a:41:a1:
         96:e3:c9:2f:c0:11:46:60:21:c9:59:5f:aa:3b:9b:a4:e7:aa:
         fa:8a:63:e6:38:ec:e8:f2:20:e9:68:7a:ab:f1:7c:fa:cc:3a:
         ad:e3:c7:b4:8f:8a:ee:a2:52:38:dd:7e:f4:ca:76:64:26:30:
         05:b4:58:ed:80:6d:48:01:25:87:5a:29:34:c9:29:02:c4:85:
         12:16:5e:5c
-----BEGIN CERTIFICATE-----
MIIDXDCCAkSgAwIBAgIQXpahgPayTiLiIAH2pCNXQDANBgkqhkiG9w0BAQsFADAW
MRQwEgYDVQQDDAt0ZWFtNzEwLW5ldDAeFw0yMjA1MTgyMzM4MjZaFw0yNTA1MDIy
MzM4MjZaMBkxFzAVBgNVBAMMDnRlYW03MTAtY2xpZW50MIIBIjANBgkqhkiG9w0B
AQEFAAOCAQ8AMIIBCgKCAQEAv2gb9XqqyJP83WtiS5hHEOB36DUsggegIwAnwE+B
hkTfSrYXwIub0qjP3VP4+KlePFXO3MibcfyZxu1+0AMpDeuhFGZaVwDEmP7l63Z/
DOGojFImBnQPjCnlgKky4041jRwqErrCP1C+4Y9/k7FJ7/e7VoalgaN935uXa2In
1CzDtr33J0tYCfQsaST9a6+BGYggWuSZ7CCH1yxvlViFbt9NIknLaMnE9pxLmWeX
cKVkCjzPnPrOlNxeZ7TuRNj0SPBylgrT+1LivkTlmz+yIiOHjjkw9a+trwp5YkO1
ouNunmLcnhWqyCxnytOPavhkTmuxWjTJhLzkWMVO3/M+VQIDAQABo4GiMIGfMAkG
A1UdEwQCMAAwHQYDVR0OBBYEFIsfP2Xa0ole62H5hLI4oaK4YvUwMFEGA1UdIwRK
MEiAFEO+2HJM+X7TXDsQpNbE6JbrXk1goRqkGDAWMRQwEgYDVQQDDAt0ZWFtNzEw
LW5ldIIUKvVrwYDAfynqbp5RBR/TCC3c8YowEwYDVR0lBAwwCgYIKwYBBQUHAwIw
CwYDVR0PBAQDAgeAMA0GCSqGSIb3DQEBCwUAA4IBAQCI9MKuXoSzJSjGeXnGnJSt
dhz2KUci02RYiNQDKZtnFfT9pLvNowiznL2Njr0qV62CfHzrTXzERHEXaRIe51n1
FdeeEQR7C3IFYQGDfpU2aUp9xUP/EPTzpqIdld2d3oBlp5kgVLdQ8Nc890t5F7in
RlQxA7iSnsLXLAxtFkt4ub1B+zO9NPCrGsMPIQD8scj0A1+TIrZvFzMItTlVz2LW
IEFRaFi2/IiU3sLVR94XcNiKQaGW48kvwBFGYCHJWV+qO5uk56r6imPmOOzo8iDp
aHqr8Xz6zDqt48e0j4ruolI43X70ynZkJjAFtFjtgG1IASWHWik0ySkCxIUSFl5c
-----END CERTIFICATE-----
