Certificate:
    Data:
        Version: 3 (0x2)
        Serial Number:
            54:31:fe:8d:04:dd:60:b6:8e:c0:3d:3c:e6:32:bc:99
        Signature Algorithm: sha256WithRSAEncryption
        Issuer: CN=team396-net
        Validity
            Not Before: May 18 20:59:49 2022 GMT
            Not After : May  2 20:59:49 2025 GMT
        Subject: CN=team396-client
        Subject Public Key Info:
            Public Key Algorithm: rsaEncryption
                RSA Public-Key: (2048 bit)
                Modulus:
                    00:db:a2:52:2b:3c:36:92:52:c5:c9:bf:40:8a:c3:
                    33:3a:58:af:2b:3d:8a:e8:77:de:2f:90:3d:32:ee:
                    09:5b:b0:4f:09:db:8a:02:f5:96:4f:e6:2e:a1:13:
                    7e:36:7b:97:19:08:79:ea:b1:c0:aa:59:fb:90:47:
                    f0:4f:43:c5:fe:f1:cc:ad:6e:2d:e9:32:39:b4:2c:
                    01:b3:c6:a6:de:3a:4c:86:c5:d9:c5:16:5e:d6:05:
                    c1:19:ea:13:65:0e:fd:d4:a4:e7:73:84:ef:49:e4:
                    23:41:c4:15:65:a8:f1:64:81:26:7c:6b:36:17:a2:
                    8f:20:a5:b2:ec:c0:78:06:26:94:83:09:27:23:0d:
                    66:ed:d9:d5:a1:05:58:70:13:f2:5d:b3:12:2d:ad:
                    1d:e5:e1:01:1d:7f:fa:ef:2e:4f:65:48:b0:dc:56:
                    6e:3d:af:2e:63:eb:87:d4:15:22:64:5b:8d:79:1b:
                    56:49:23:d3:e0:f3:92:10:61:4c:8d:83:bd:5c:47:
                    e4:c8:35:d1:2d:b7:10:74:ed:2c:3b:ec:d1:fc:d5:
                    44:ff:42:04:a7:2c:3a:82:30:f6:b9:62:61:1f:ff:
                    5a:ef:ab:dd:ea:95:90:e9:94:eb:18:51:32:15:f3:
                    b7:70:24:02:d6:55:9e:1a:b6:d7:17:bb:74:41:47:
                    4d:65
                Exponent: 65537 (0x10001)
        X509v3 extensions:
            X509v3 Basic Constraints: 
                CA:FALSE
            X509v3 Subject Key Identifier: 
                56:26:18:01:BE:18:40:D6:20:5C:A9:E4:7B:9A:BB:7C:2E:98:F3:0A
            X509v3 Authority Key Identifier: 
                keyid:24:AA:6A:30:A6:0B:3B:6E:D4:E7:AE:4F:68:04:72:48:F5:79:B8:83
                DirName:/CN=team396-net
                serial:1E:83:03:9F:85:87:9E:E8:3D:1B:57:E7:D7:FB:6F:CF:08:B5:38:58

            X509v3 Extended Key Usage: 
                TLS Web Client Authentication
            X509v3 Key Usage: 
                Digital Signature
    Signature Algorithm: sha256WithRSAEncryption
         6c:a0:2c:c1:99:ed:24:d2:99:ff:6a:d4:b0:e7:95:37:df:31:
         cb:0e:4b:90:bb:4f:56:63:cb:5d:c5:b8:d9:ce:7e:eb:3a:3e:
         15:d8:0e:29:cf:c5:93:cf:3f:be:32:8e:9f:cf:78:a1:8a:0b:
         ca:0b:d6:b6:b6:db:8c:ea:75:6c:cf:30:49:e0:96:9a:88:d9:
         37:ed:1a:c4:99:07:ce:53:06:d7:0c:3b:e8:3d:b8:8e:ea:ad:
         1f:ed:f5:c3:cf:53:19:d2:af:71:53:e7:be:ac:5d:e9:43:f5:
         ff:06:c3:15:28:93:0b:7b:00:81:e0:e1:22:9e:93:b3:01:3b:
         84:34:e7:d9:1f:dd:f5:33:08:79:e4:1d:e6:6e:b3:e3:e2:bd:
         aa:be:db:5f:e8:08:ae:cd:5f:25:d0:89:38:f4:c9:61:a1:08:
         b6:93:b9:90:1c:3c:d5:39:a7:da:36:98:13:89:a5:d1:d9:45:
         fa:9e:34:9f:42:d1:2d:aa:33:d4:e1:30:48:71:e2:80:58:59:
         f5:1d:33:4d:08:6c:d2:0b:99:65:25:b9:51:5b:93:1d:d4:db:
         2a:34:f5:db:7a:7b:6b:d2:10:27:7b:f1:95:d7:7d:78:d2:56:
         de:32:ec:b7:e7:af:34:ef:e5:e6:a9:78:a2:41:08:b7:d8:f3:
         68:98:e8:f0
-----BEGIN CERTIFICATE-----
MIIDXDCCAkSgAwIBAgIQVDH+jQTdYLaOwD085jK8mTANBgkqhkiG9w0BAQsFADAW
MRQwEgYDVQQDDAt0ZWFtMzk2LW5ldDAeFw0yMjA1MTgyMDU5NDlaFw0yNTA1MDIy
MDU5NDlaMBkxFzAVBgNVBAMMDnRlYW0zOTYtY2xpZW50MIIBIjANBgkqhkiG9w0B
AQEFAAOCAQ8AMIIBCgKCAQEA26JSKzw2klLFyb9AisMzOlivKz2K6HfeL5A9Mu4J
W7BPCduKAvWWT+YuoRN+NnuXGQh56rHAqln7kEfwT0PF/vHMrW4t6TI5tCwBs8am
3jpMhsXZxRZe1gXBGeoTZQ791KTnc4TvSeQjQcQVZajxZIEmfGs2F6KPIKWy7MB4
BiaUgwknIw1m7dnVoQVYcBPyXbMSLa0d5eEBHX/67y5PZUiw3FZuPa8uY+uH1BUi
ZFuNeRtWSSPT4POSEGFMjYO9XEfkyDXRLbcQdO0sO+zR/NVE/0IEpyw6gjD2uWJh
H/9a76vd6pWQ6ZTrGFEyFfO3cCQC1lWeGrbXF7t0QUdNZQIDAQABo4GiMIGfMAkG
A1UdEwQCMAAwHQYDVR0OBBYEFFYmGAG+GEDWIFyp5Huau3wumPMKMFEGA1UdIwRK
MEiAFCSqajCmCztu1OeuT2gEckj1ebiDoRqkGDAWMRQwEgYDVQQDDAt0ZWFtMzk2
LW5ldIIUHoMDn4WHnug9G1fn1/tvzwi1OFgwEwYDVR0lBAwwCgYIKwYBBQUHAwIw
CwYDVR0PBAQDAgeAMA0GCSqGSIb3DQEBCwUAA4IBAQBsoCzBme0k0pn/atSw55U3
3zHLDkuQu09WY8tdxbjZzn7rOj4V2A4pz8WTzz++Mo6fz3ihigvKC9a2ttuM6nVs
zzBJ4JaaiNk37RrEmQfOUwbXDDvoPbiO6q0f7fXDz1MZ0q9xU+e+rF3pQ/X/BsMV
KJMLewCB4OEinpOzATuENOfZH931Mwh55B3mbrPj4r2qvttf6AiuzV8l0Ik49Mlh
oQi2k7mQHDzVOafaNpgTiaXR2UX6njSfQtEtqjPU4TBIceKAWFn1HTNNCGzSC5ll
JblRW5Md1NsqNPXbentr0hAne/GV13140lbeMuy356807+XmqXiiQQi32PNomOjw
-----END CERTIFICATE-----
