Certificate:
    Data:
        Version: 3 (0x2)
        Serial Number:
            32:03:1b:8a:6b:43:19:ee:63:4c:0f:20:28:5b:08:8d
        Signature Algorithm: sha256WithRSAEncryption
        Issuer: CN=team364-net
        Validity
            Not Before: May 18 20:35:46 2022 GMT
            Not After : May  2 20:35:46 2025 GMT
        Subject: CN=team364-server
        Subject Public Key Info:
            Public Key Algorithm: rsaEncryption
                RSA Public-Key: (2048 bit)
                Modulus:
                    00:c8:1b:b3:3e:6d:d1:fe:72:6b:48:4f:1b:fa:42:
                    48:fd:96:93:e8:5f:a6:6f:b8:9f:60:78:0c:46:f9:
                    30:01:41:94:6c:fc:c0:e4:cb:2e:06:33:1a:6b:5e:
                    c9:5c:82:0a:2d:e6:22:22:b3:11:9a:de:12:c0:dd:
                    14:d0:ed:c9:89:2e:dd:e1:ba:66:e9:ec:65:81:9b:
                    7a:74:57:d7:10:85:ae:f5:b0:d7:c8:a9:d9:56:69:
                    60:e1:2a:19:d0:f1:a6:84:35:d0:45:c3:ae:0c:eb:
                    4c:db:91:49:3a:83:4a:5c:c0:5f:0a:b1:54:c1:3f:
                    73:c0:92:a4:b4:0a:91:85:3d:d0:4d:4e:bd:31:26:
                    c0:47:e5:c5:c0:a3:4a:8d:cc:50:63:b5:c4:78:db:
                    b3:f8:b7:12:9f:7b:66:3c:a7:7a:1f:75:8b:6a:c9:
                    b3:7b:06:c8:10:5f:62:2a:59:91:8d:17:a1:a2:aa:
                    2c:ae:36:ad:68:8b:4d:e8:1a:2a:c4:88:65:1f:de:
                    83:77:c4:3c:dd:07:e7:ee:12:d9:4c:09:ea:98:8f:
                    36:77:58:5e:0d:0c:0f:db:85:62:92:cd:94:6f:d7:
                    8c:da:e2:b4:26:67:f8:b7:e3:a5:8c:18:33:be:d1:
                    e6:34:0f:e2:b3:97:72:be:75:75:87:07:b5:eb:c5:
                    02:ab
                Exponent: 65537 (0x10001)
        X509v3 extensions:
            X509v3 Basic Constraints: 
                CA:FALSE
            X509v3 Subject Key Identifier: 
                BC:32:36:D7:2F:EB:9A:3E:49:21:75:8E:F7:8D:AA:97:0A:50:7A:E0
            X509v3 Authority Key Identifier: 
                keyid:E9:A1:CC:84:D7:27:9A:8B:91:96:14:35:F3:EE:56:C9:E2:AF:89:3F
                DirName:/CN=team364-net
                serial:1C:82:52:15:7B:EA:F3:7C:B4:51:1E:62:50:B6:28:34:2D:E1:39:84

            X509v3 Extended Key Usage: 
                TLS Web Server Authentication
            X509v3 Key Usage: 
                Digital Signature, Key Encipherment
            X509v3 Subject Alternative Name: 
                DNS:team364-server
    Signature Algorithm: sha256WithRSAEncryption
         6e:27:f2:53:48:7c:23:82:30:fb:f6:30:ec:01:bd:17:a3:85:
         6d:b5:db:dd:68:ce:17:a3:fd:86:8f:83:f8:68:fe:4d:03:70:
         99:a3:26:1c:aa:31:ab:5d:97:07:bb:76:f8:77:be:74:94:13:
         f9:c8:1a:ab:90:de:ce:80:13:14:7d:18:cf:9d:56:b1:97:eb:
         00:e2:b1:ff:1d:cf:2b:bd:0d:db:54:28:7f:e9:f2:bd:af:4a:
         6d:34:b0:46:84:92:68:71:d2:12:4e:38:c3:b7:cd:81:ce:ed:
         62:5d:d9:58:a5:76:95:2b:0a:7e:35:7f:c6:25:1d:f3:66:c7:
         d6:4b:0f:a7:c3:d2:2b:cb:53:39:fd:94:a1:e9:59:0f:de:d1:
         02:c1:24:ca:ad:b6:90:10:53:be:78:70:80:99:f4:61:d0:d1:
         6d:94:32:9f:d8:bc:4f:9d:82:05:2c:ec:95:ef:5f:57:81:4b:
         14:5a:64:4b:2c:94:ac:35:42:61:44:0c:f7:3d:6b:eb:99:69:
         96:03:39:04:c4:7c:80:8f:cd:a1:0c:d6:60:fc:96:7c:81:df:
         e3:01:b6:58:32:51:e8:c3:5b:34:77:70:c4:0b:d0:61:e1:9f:
         fc:5f:8a:f4:7c:01:ac:3e:ec:d6:54:83:6e:c9:97:46:61:3b:
         9d:07:b9:22
-----BEGIN CERTIFICATE-----
MIIDdzCCAl+gAwIBAgIQMgMbimtDGe5jTA8gKFsIjTANBgkqhkiG9w0BAQsFADAW
MRQwEgYDVQQDDAt0ZWFtMzY0LW5ldDAeFw0yMjA1MTgyMDM1NDZaFw0yNTA1MDIy
MDM1NDZaMBkxFzAVBgNVBAMMDnRlYW0zNjQtc2VydmVyMIIBIjANBgkqhkiG9w0B
AQEFAAOCAQ8AMIIBCgKCAQEAyBuzPm3R/nJrSE8b+kJI/ZaT6F+mb7ifYHgMRvkw
AUGUbPzA5MsuBjMaa17JXIIKLeYiIrMRmt4SwN0U0O3JiS7d4bpm6exlgZt6dFfX
EIWu9bDXyKnZVmlg4SoZ0PGmhDXQRcOuDOtM25FJOoNKXMBfCrFUwT9zwJKktAqR
hT3QTU69MSbAR+XFwKNKjcxQY7XEeNuz+LcSn3tmPKd6H3WLasmzewbIEF9iKlmR
jRehoqosrjataItN6BoqxIhlH96Dd8Q83Qfn7hLZTAnqmI82d1heDQwP24Viks2U
b9eM2uK0Jmf4t+OljBgzvtHmNA/is5dyvnV1hwe168UCqwIDAQABo4G9MIG6MAkG
A1UdEwQCMAAwHQYDVR0OBBYEFLwyNtcv65o+SSF1jveNqpcKUHrgMFEGA1UdIwRK
MEiAFOmhzITXJ5qLkZYUNfPuVsnir4k/oRqkGDAWMRQwEgYDVQQDDAt0ZWFtMzY0
LW5ldIIUHIJSFXvq83y0UR5iULYoNC3hOYQwEwYDVR0lBAwwCgYIKwYBBQUHAwEw
CwYDVR0PBAQDAgWgMBkGA1UdEQQSMBCCDnRlYW0zNjQtc2VydmVyMA0GCSqGSIb3
DQEBCwUAA4IBAQBuJ/JTSHwjgjD79jDsAb0Xo4VttdvdaM4Xo/2Gj4P4aP5NA3CZ
oyYcqjGrXZcHu3b4d750lBP5yBqrkN7OgBMUfRjPnVaxl+sA4rH/Hc8rvQ3bVCh/
6fK9r0ptNLBGhJJocdISTjjDt82Bzu1iXdlYpXaVKwp+NX/GJR3zZsfWSw+nw9Ir
y1M5/ZSh6VkP3tECwSTKrbaQEFO+eHCAmfRh0NFtlDKf2LxPnYIFLOyV719XgUsU
WmRLLJSsNUJhRAz3PWvrmWmWAzkExHyAj82hDNZg/JZ8gd/jAbZYMlHow1s0d3DE
C9Bh4Z/8X4r0fAGsPuzWVINuyZdGYTudB7ki
-----END CERTIFICATE-----
