Certificate:
    Data:
        Version: 3 (0x2)
        Serial Number:
            65:78:91:15:ac:eb:d1:85:ca:e4:65:1d:23:43:58:f5
        Signature Algorithm: sha256WithRSAEncryption
        Issuer: CN=team364-net
        Validity
            Not Before: May 18 20:35:46 2022 GMT
            Not After : May  2 20:35:46 2025 GMT
        Subject: CN=team364-client
        Subject Public Key Info:
            Public Key Algorithm: rsaEncryption
                RSA Public-Key: (2048 bit)
                Modulus:
                    00:9c:a0:e5:60:e4:90:ef:1b:44:b3:04:37:ec:ab:
                    3d:17:73:1e:36:d5:e1:35:4a:d7:c7:5c:05:ae:76:
                    b9:09:fb:4b:e7:b3:27:ec:55:c5:5e:57:45:59:bb:
                    93:ae:b4:89:3c:e3:0b:1a:67:2e:aa:6b:7b:db:f0:
                    b2:de:0e:bc:15:6f:d8:ac:44:ca:51:94:38:fb:a2:
                    c9:f4:0b:f2:9c:0d:8d:94:95:a8:05:2c:f9:60:e6:
                    8f:80:ea:ca:b4:72:9f:d8:07:d3:94:66:1b:3b:80:
                    5a:8f:f3:e0:ea:01:cc:65:2d:94:64:01:fb:8a:90:
                    de:f0:bb:2e:6f:dc:01:31:0d:3d:38:46:5b:98:47:
                    8d:3c:b8:47:83:0f:09:7b:e7:e1:1e:fa:92:66:a1:
                    da:47:f1:33:b6:2f:aa:e1:46:5b:04:0f:41:bc:6e:
                    2e:f9:e0:15:e3:86:25:96:fb:a9:f5:e8:77:08:93:
                    4a:b1:3e:6b:06:6b:5c:9d:e7:06:99:00:7e:ab:79:
                    b7:85:f2:47:80:a5:a2:1a:c3:11:79:c4:dc:6d:ac:
                    d8:b7:38:ad:67:70:3e:67:50:29:d4:b1:0d:cf:59:
                    02:72:38:66:32:9a:00:0d:65:25:2c:5c:fc:c0:7a:
                    a6:25:30:91:95:4d:e4:e1:cd:18:bf:ac:c4:df:29:
                    66:c9
                Exponent: 65537 (0x10001)
        X509v3 extensions:
            X509v3 Basic Constraints: 
                CA:FALSE
            X509v3 Subject Key Identifier: 
                31:28:C3:DD:BF:B5:50:A8:3A:E9:CF:01:BB:D5:C8:1B:15:C6:5A:7E
            X509v3 Authority Key Identifier: 
                keyid:E9:A1:CC:84:D7:27:9A:8B:91:96:14:35:F3:EE:56:C9:E2:AF:89:3F
                DirName:/CN=team364-net
                serial:1C:82:52:15:7B:EA:F3:7C:B4:51:1E:62:50:B6:28:34:2D:E1:39:84

            X509v3 Extended Key Usage: 
                TLS Web Client Authentication
            X509v3 Key Usage: 
                Digital Signature
    Signature Algorithm: sha256WithRSAEncryption
         3b:fb:99:1f:42:df:9f:f6:f3:4e:c4:18:00:a9:5c:59:4c:03:
         8d:b9:33:84:b9:58:5f:a2:73:9b:2e:17:1a:22:7f:15:a2:e5:
         1a:00:f9:6a:25:ed:f3:c4:bd:4e:9b:a1:f3:fb:dd:1b:7a:6f:
         91:b6:50:1f:49:1f:7a:b3:6b:40:97:16:d7:a5:0c:85:44:51:
         10:56:34:a8:5c:62:00:28:7b:90:ad:96:3a:a4:ee:6f:64:8f:
         3b:77:75:18:d7:fa:bb:b3:f9:d3:d9:83:08:1e:16:ce:12:a4:
         dd:5c:a2:a6:8f:05:1b:ed:63:f3:bb:3f:62:54:d6:c3:1a:37:
         df:ea:bd:45:29:9a:9b:75:f2:93:24:79:c6:24:e2:ba:c6:67:
         74:86:68:41:d3:bd:6e:28:bf:a4:b3:46:17:3d:35:31:02:ce:
         99:16:08:a3:68:1e:5b:89:59:e2:b3:17:f3:93:ba:d1:eb:68:
         2d:45:ea:d0:dc:c2:0c:b4:2b:99:11:3d:80:0e:25:10:e3:ca:
         b3:f7:b2:13:ea:4f:19:78:16:d5:6e:1f:84:d3:a4:f1:e6:a4:
         67:bf:5b:53:ae:48:b5:9a:80:b2:86:92:b7:32:09:cc:9d:e4:
         8c:16:c0:2f:6e:3a:fc:e3:21:3f:69:4e:05:c6:7f:1b:db:b3:
         e6:88:3b:12
-----BEGIN CERTIFICATE-----
MIIDXDCCAkSgAwIBAgIQZXiRFazr0YXK5GUdI0NY9TANBgkqhkiG9w0BAQsFADAW
MRQwEgYDVQQDDAt0ZWFtMzY0LW5ldDAeFw0yMjA1MTgyMDM1NDZaFw0yNTA1MDIy
MDM1NDZaMBkxFzAVBgNVBAMMDnRlYW0zNjQtY2xpZW50MIIBIjANBgkqhkiG9w0B
AQEFAAOCAQ8AMIIBCgKCAQEAnKDlYOSQ7xtEswQ37Ks9F3MeNtXhNUrXx1wFrna5
CftL57Mn7FXFXldFWbuTrrSJPOMLGmcuqmt72/Cy3g68FW/YrETKUZQ4+6LJ9Avy
nA2NlJWoBSz5YOaPgOrKtHKf2AfTlGYbO4Baj/Pg6gHMZS2UZAH7ipDe8Lsub9wB
MQ09OEZbmEeNPLhHgw8Je+fhHvqSZqHaR/Ezti+q4UZbBA9BvG4u+eAV44Yllvup
9eh3CJNKsT5rBmtcnecGmQB+q3m3hfJHgKWiGsMRecTcbazYtzitZ3A+Z1Ap1LEN
z1kCcjhmMpoADWUlLFz8wHqmJTCRlU3k4c0Yv6zE3ylmyQIDAQABo4GiMIGfMAkG
A1UdEwQCMAAwHQYDVR0OBBYEFDEow92/tVCoOunPAbvVyBsVxlp+MFEGA1UdIwRK
MEiAFOmhzITXJ5qLkZYUNfPuVsnir4k/oRqkGDAWMRQwEgYDVQQDDAt0ZWFtMzY0
LW5ldIIUHIJSFXvq83y0UR5iULYoNC3hOYQwEwYDVR0lBAwwCgYIKwYBBQUHAwIw
CwYDVR0PBAQDAgeAMA0GCSqGSIb3DQEBCwUAA4IBAQA7+5kfQt+f9vNOxBgAqVxZ
TAONuTOEuVhfonObLhcaIn8VouUaAPlqJe3zxL1Om6Hz+90bem+RtlAfSR96s2tA
lxbXpQyFRFEQVjSoXGIAKHuQrZY6pO5vZI87d3UY1/q7s/nT2YMIHhbOEqTdXKKm
jwUb7WPzuz9iVNbDGjff6r1FKZqbdfKTJHnGJOK6xmd0hmhB071uKL+ks0YXPTUx
As6ZFgijaB5biVnisxfzk7rR62gtRerQ3MIMtCuZET2ADiUQ48qz97IT6k8ZeBbV
bh+E06Tx5qRnv1tTrki1moCyhpK3MgnMneSMFsAvbjr84yE/aU4Fxn8b27PmiDsS
-----END CERTIFICATE-----
