Certificate:
    Data:
        Version: 3 (0x2)
        Serial Number:
            1f:4a:84:8d:dd:31:d1:1d:95:8f:59:b0:95:98:7b:ed
        Signature Algorithm: sha256WithRSAEncryption
        Issuer: CN=team402-net
        Validity
            Not Before: May 18 21:02:00 2022 GMT
            Not After : May  2 21:02:00 2025 GMT
        Subject: CN=team402-server
        Subject Public Key Info:
            Public Key Algorithm: rsaEncryption
                RSA Public-Key: (2048 bit)
                Modulus:
                    00:cb:dc:1f:53:6e:6d:69:8c:97:02:f2:2c:a2:39:
                    c0:b1:94:95:7a:39:5c:75:e6:11:b4:ff:0b:d3:5b:
                    d4:3c:f1:5c:86:3c:40:6f:c5:4c:08:a8:a6:48:4e:
                    88:de:a3:23:3a:c4:31:bb:53:f2:99:fe:1f:d7:b8:
                    49:31:41:17:2f:cd:84:5f:26:d5:4a:90:d7:61:e5:
                    96:b9:0f:06:ef:e5:46:47:33:03:7a:06:11:c0:dd:
                    54:df:d0:ad:88:b3:d0:f5:0a:12:b2:6f:4a:68:ae:
                    35:0c:e8:6b:cf:d4:a2:ef:61:aa:95:8e:e3:9d:a8:
                    f4:fb:e7:57:fb:82:c7:7a:0e:ce:c9:11:40:52:b6:
                    65:77:5d:6a:4b:9a:67:b0:94:30:b2:7e:91:a8:1a:
                    79:96:c3:e6:cc:9b:bd:cc:eb:c8:0a:fd:e2:9e:96:
                    59:91:12:c3:a5:9d:4f:f4:22:89:a0:fd:9b:bc:89:
                    b5:9e:ce:24:a3:3b:d1:cb:e8:c6:d4:be:4e:0c:41:
                    53:5e:c9:66:b8:ad:5a:4c:9f:81:ad:f8:22:69:aa:
                    55:16:0b:06:aa:53:a4:55:9a:8d:e8:99:4b:67:1d:
                    50:0d:b2:3f:9a:67:35:03:fe:05:6d:ee:46:07:63:
                    48:a2:b8:76:fc:64:08:2e:b8:64:ea:00:06:45:aa:
                    55:bf
                Exponent: 65537 (0x10001)
        X509v3 extensions:
            X509v3 Basic Constraints: 
                CA:FALSE
            X509v3 Subject Key Identifier: 
                2D:49:E9:57:39:28:21:90:24:79:28:91:AA:6E:A1:BA:45:85:D5:20
            X509v3 Authority Key Identifier: 
                keyid:70:53:3A:C3:15:B6:09:C1:C0:40:39:5F:88:B0:F6:A6:92:34:EE:68
                DirName:/CN=team402-net
                serial:69:C9:99:10:5D:03:4C:21:58:8F:81:DC:71:B2:19:1A:59:61:FF:F0

            X509v3 Extended Key Usage: 
                TLS Web Server Authentication
            X509v3 Key Usage: 
                Digital Signature, Key Encipherment
            X509v3 Subject Alternative Name: 
                DNS:team402-server
    Signature Algorithm: sha256WithRSAEncryption
         1a:14:b0:41:c7:4c:e2:9c:51:62:d4:41:0a:f7:58:a8:30:3b:
         33:24:34:b6:7c:f9:d7:f0:59:15:ea:d1:f5:43:22:1e:c4:c5:
         23:7c:63:52:ac:ee:0d:59:4b:90:d4:b9:4d:e6:34:e1:e5:ee:
         fb:22:9b:0e:bb:6f:7f:fa:5e:8d:da:ee:06:0e:07:ad:5f:85:
         bd:7b:95:10:51:44:23:9c:79:24:5a:a2:d1:f9:47:0d:f8:86:
         1c:b9:e1:a4:9d:16:cf:05:32:dc:af:e9:b4:c2:cd:f8:85:63:
         44:eb:1a:bb:43:c9:d4:72:34:75:58:88:82:bd:ba:47:34:00:
         91:5d:38:68:e3:c1:30:20:33:a9:c1:f4:bc:ea:35:78:04:f0:
         f3:bd:3d:25:d3:17:40:82:9c:be:b0:aa:d5:e9:80:b5:7d:75:
         89:67:b0:4a:a2:cb:87:d5:78:a8:c3:ac:b9:2d:24:ba:dc:88:
         f9:e3:c0:8c:79:7a:c9:43:93:a7:2f:fc:84:2e:b5:df:15:92:
         6c:dc:d3:63:09:6a:4d:41:72:5e:69:a8:eb:4a:ac:92:fe:f5:
         00:8b:82:cf:8f:ed:06:74:b8:49:8e:b7:30:95:ca:36:0d:d9:
         d4:af:86:85:97:54:d0:08:f8:9e:75:54:6b:03:ba:3b:91:4e:
         a7:a8:96:77
-----BEGIN CERTIFICATE-----
MIIDdzCCAl+gAwIBAgIQH0qEjd0x0R2Vj1mwlZh77TANBgkqhkiG9w0BAQsFADAW
MRQwEgYDVQQDDAt0ZWFtNDAyLW5ldDAeFw0yMjA1MTgyMTAyMDBaFw0yNTA1MDIy
MTAyMDBaMBkxFzAVBgNVBAMMDnRlYW00MDItc2VydmVyMIIBIjANBgkqhkiG9w0B
AQEFAAOCAQ8AMIIBCgKCAQEAy9wfU25taYyXAvIsojnAsZSVejlcdeYRtP8L01vU
PPFchjxAb8VMCKimSE6I3qMjOsQxu1Pymf4f17hJMUEXL82EXybVSpDXYeWWuQ8G
7+VGRzMDegYRwN1U39CtiLPQ9QoSsm9KaK41DOhrz9Si72GqlY7jnaj0++dX+4LH
eg7OyRFAUrZld11qS5pnsJQwsn6RqBp5lsPmzJu9zOvICv3inpZZkRLDpZ1P9CKJ
oP2bvIm1ns4kozvRy+jG1L5ODEFTXslmuK1aTJ+BrfgiaapVFgsGqlOkVZqN6JlL
Zx1QDbI/mmc1A/4Fbe5GB2NIorh2/GQILrhk6gAGRapVvwIDAQABo4G9MIG6MAkG
A1UdEwQCMAAwHQYDVR0OBBYEFC1J6Vc5KCGQJHkokapuobpFhdUgMFEGA1UdIwRK
MEiAFHBTOsMVtgnBwEA5X4iw9qaSNO5ooRqkGDAWMRQwEgYDVQQDDAt0ZWFtNDAy
LW5ldIIUacmZEF0DTCFYj4HccbIZGllh//AwEwYDVR0lBAwwCgYIKwYBBQUHAwEw
CwYDVR0PBAQDAgWgMBkGA1UdEQQSMBCCDnRlYW00MDItc2VydmVyMA0GCSqGSIb3
DQEBCwUAA4IBAQAaFLBBx0zinFFi1EEK91ioMDszJDS2fPnX8FkV6tH1QyIexMUj
fGNSrO4NWUuQ1LlN5jTh5e77IpsOu29/+l6N2u4GDgetX4W9e5UQUUQjnHkkWqLR
+UcN+IYcueGknRbPBTLcr+m0ws34hWNE6xq7Q8nUcjR1WIiCvbpHNACRXTho48Ew
IDOpwfS86jV4BPDzvT0l0xdAgpy+sKrV6YC1fXWJZ7BKosuH1Xiow6y5LSS63Ij5
48CMeXrJQ5OnL/yELrXfFZJs3NNjCWpNQXJeaajrSqyS/vUAi4LPj+0GdLhJjrcw
lco2DdnUr4aFl1TQCPiedVRrA7o7kU6nqJZ3
-----END CERTIFICATE-----
