Certificate:
    Data:
        Version: 3 (0x2)
        Serial Number:
            e1:86:c4:18:ff:5f:1f:6c:e5:2b:12:67:01:82:b0:7f
        Signature Algorithm: sha256WithRSAEncryption
        Issuer: CN=team402-net
        Validity
            Not Before: May 18 21:01:59 2022 GMT
            Not After : May  2 21:01:59 2025 GMT
        Subject: CN=team402-client
        Subject Public Key Info:
            Public Key Algorithm: rsaEncryption
                RSA Public-Key: (2048 bit)
                Modulus:
                    00:c1:b1:6f:56:af:0a:6a:f1:1d:14:e7:18:d7:dc:
                    57:38:11:71:86:79:69:a2:43:c2:53:83:fe:ee:59:
                    79:59:f7:b4:8d:b6:4d:1b:c4:c7:da:66:79:4e:09:
                    7c:ce:61:c9:bf:0b:df:8b:c0:c1:23:1a:60:6a:3b:
                    76:78:ae:72:3c:e4:83:f1:5c:a5:2d:5e:3b:92:59:
                    5f:7c:68:b3:1d:c6:66:3d:d9:63:f4:8e:82:a3:78:
                    5e:15:7d:a9:58:6e:58:4e:bb:e0:a7:9b:17:9d:5a:
                    19:eb:bd:2f:49:6e:bf:d2:4c:51:54:1e:b9:79:9a:
                    ce:ca:39:8f:fc:83:a1:22:42:e6:20:22:84:01:81:
                    ed:78:28:91:23:db:9f:f9:48:db:26:a5:ca:93:99:
                    ba:dd:63:25:78:50:52:e4:3c:5d:c3:51:4f:3e:1b:
                    1d:99:c1:24:be:af:88:b1:e4:36:60:e5:58:0e:21:
                    87:d6:b9:cf:04:74:74:58:46:3f:8a:74:70:be:1a:
                    3d:4a:8c:dc:7b:3f:70:3a:e3:88:f5:20:ed:db:d1:
                    30:96:4d:3d:07:b0:7e:0e:09:62:60:d5:0d:40:d7:
                    49:d0:15:1c:96:b2:c7:d2:07:eb:8f:62:a7:16:1f:
                    8f:89:e9:6d:e3:86:17:46:65:27:e6:6f:46:da:09:
                    c0:e7
                Exponent: 65537 (0x10001)
        X509v3 extensions:
            X509v3 Basic Constraints: 
                CA:FALSE
            X509v3 Subject Key Identifier: 
                60:22:C8:12:E0:38:11:29:2C:D2:C7:1A:62:25:E1:87:93:A2:A2:5C
            X509v3 Authority Key Identifier: 
                keyid:70:53:3A:C3:15:B6:09:C1:C0:40:39:5F:88:B0:F6:A6:92:34:EE:68
                DirName:/CN=team402-net
                serial:69:C9:99:10:5D:03:4C:21:58:8F:81:DC:71:B2:19:1A:59:61:FF:F0

            X509v3 Extended Key Usage: 
                TLS Web Client Authentication
            X509v3 Key Usage: 
                Digital Signature
    Signature Algorithm: sha256WithRSAEncryption
         5f:62:b5:66:91:2f:67:b9:b7:17:1b:c8:c0:eb:45:0a:40:ce:
         e2:86:21:05:30:45:8e:32:ab:d1:7e:51:50:2e:f0:69:3b:92:
         cf:7e:96:c0:f8:2d:a7:2e:6c:6a:8d:ad:85:86:95:e7:2d:ac:
         6c:69:a6:e4:18:4a:96:00:a0:58:2a:e8:9a:a2:d5:8e:6e:58:
         ab:ca:47:de:a9:54:1b:27:94:41:31:34:f6:e2:15:e7:3e:ba:
         09:96:f6:18:41:76:f1:5f:95:b8:b6:04:34:71:d9:eb:a4:90:
         48:c6:a5:d4:fe:7e:3d:c0:ab:d8:50:8e:f6:76:2f:bc:6d:c4:
         0c:91:89:8a:21:3a:ef:3c:93:71:3d:e4:29:3b:42:10:16:0c:
         77:b1:0c:4e:87:04:cb:46:e4:77:c7:51:73:ae:50:8d:e9:91:
         60:c8:37:01:f2:f3:4e:85:d6:8c:3d:57:0c:05:18:3c:1b:76:
         45:ad:75:38:2e:d5:99:01:71:70:6b:4c:4c:81:91:f7:a5:93:
         fa:8d:17:01:48:ec:78:c3:71:98:ee:50:45:24:03:f6:ed:96:
         be:0e:6d:9a:16:04:68:26:7a:65:42:f7:7a:5e:11:47:c1:a0:
         d8:4a:11:5e:58:15:df:b4:15:24:8f:ff:94:91:1b:69:1c:2a:
         35:33:d4:14
-----BEGIN CERTIFICATE-----
MIIDXTCCAkWgAwIBAgIRAOGGxBj/Xx9s5SsSZwGCsH8wDQYJKoZIhvcNAQELBQAw
FjEUMBIGA1UEAwwLdGVhbTQwMi1uZXQwHhcNMjIwNTE4MjEwMTU5WhcNMjUwNTAy
MjEwMTU5WjAZMRcwFQYDVQQDDA50ZWFtNDAyLWNsaWVudDCCASIwDQYJKoZIhvcN
AQEBBQADggEPADCCAQoCggEBAMGxb1avCmrxHRTnGNfcVzgRcYZ5aaJDwlOD/u5Z
eVn3tI22TRvEx9pmeU4JfM5hyb8L34vAwSMaYGo7dniucjzkg/FcpS1eO5JZX3xo
sx3GZj3ZY/SOgqN4XhV9qVhuWE674KebF51aGeu9L0luv9JMUVQeuXmazso5j/yD
oSJC5iAihAGB7XgokSPbn/lI2yalypOZut1jJXhQUuQ8XcNRTz4bHZnBJL6viLHk
NmDlWA4hh9a5zwR0dFhGP4p0cL4aPUqM3Hs/cDrjiPUg7dvRMJZNPQewfg4JYmDV
DUDXSdAVHJayx9IH649ipxYfj4npbeOGF0ZlJ+ZvRtoJwOcCAwEAAaOBojCBnzAJ
BgNVHRMEAjAAMB0GA1UdDgQWBBRgIsgS4DgRKSzSxxpiJeGHk6KiXDBRBgNVHSME
SjBIgBRwUzrDFbYJwcBAOV+IsPamkjTuaKEapBgwFjEUMBIGA1UEAwwLdGVhbTQw
Mi1uZXSCFGnJmRBdA0whWI+B3HGyGRpZYf/wMBMGA1UdJQQMMAoGCCsGAQUFBwMC
MAsGA1UdDwQEAwIHgDANBgkqhkiG9w0BAQsFAAOCAQEAX2K1ZpEvZ7m3FxvIwOtF
CkDO4oYhBTBFjjKr0X5RUC7waTuSz36WwPgtpy5sao2thYaV5y2sbGmm5BhKlgCg
WCromqLVjm5Yq8pH3qlUGyeUQTE09uIV5z66CZb2GEF28V+VuLYENHHZ66SQSMal
1P5+PcCr2FCO9nYvvG3EDJGJiiE67zyTcT3kKTtCEBYMd7EMTocEy0bkd8dRc65Q
jemRYMg3AfLzToXWjD1XDAUYPBt2Ra11OC7VmQFxcGtMTIGR96WT+o0XAUjseMNx
mO5QRSQD9u2Wvg5tmhYEaCZ6ZUL3el4RR8Gg2EoRXlgV37QVJI//lJEbaRwqNTPU
FA==
-----END CERTIFICATE-----
