Certificate:
    Data:
        Version: 3 (0x2)
        Serial Number:
            a6:de:c6:87:57:36:a7:4d:32:e6:76:9d:9c:14:12:75
        Signature Algorithm: sha256WithRSAEncryption
        Issuer: CN=team312-net
        Validity
            Not Before: May 18 20:02:25 2022 GMT
            Not After : May  2 20:02:25 2025 GMT
        Subject: CN=team312-server
        Subject Public Key Info:
            Public Key Algorithm: rsaEncryption
                RSA Public-Key: (2048 bit)
                Modulus:
                    00:ae:9b:2e:c6:14:93:d2:cd:0d:02:71:cd:bc:a8:
                    a6:31:0f:cb:6f:b2:08:db:6a:95:82:82:1d:71:fd:
                    15:00:c2:fe:7f:10:5d:01:ae:d7:bf:c9:b8:03:11:
                    18:31:7f:92:23:dd:80:55:a3:fd:64:6d:7f:ec:73:
                    60:da:a1:33:24:8a:fd:eb:89:ac:d0:48:6b:41:16:
                    0a:f5:31:f8:a9:9a:57:bf:c0:f7:1d:40:fe:9e:28:
                    d6:02:39:25:18:04:22:71:b9:37:df:68:33:40:50:
                    49:1b:f2:8a:2e:d3:2f:94:36:62:e1:0e:e4:d8:5c:
                    85:7a:3a:87:63:67:60:6f:e8:f0:d0:1d:7b:8a:fe:
                    14:59:94:70:59:15:a7:9f:88:8d:7a:cc:34:10:c8:
                    c9:1a:05:04:f0:74:6c:cc:bf:8b:ec:06:50:c2:5a:
                    16:6d:74:a5:47:6f:5a:2e:ed:98:db:38:e9:6a:eb:
                    79:ab:3a:9d:6d:20:4d:62:83:fd:00:47:9f:3d:0c:
                    46:bb:c3:13:98:9d:2a:79:45:ef:e4:3b:2e:1b:90:
                    ed:e6:36:3b:2d:dc:46:88:e3:6d:4f:fc:82:64:34:
                    53:5a:b3:df:15:d3:36:af:a0:09:19:ff:75:9e:91:
                    27:e0:a4:42:2e:6b:21:fb:5f:d2:9a:00:36:1c:a9:
                    a3:89
                Exponent: 65537 (0x10001)
        X509v3 extensions:
            X509v3 Basic Constraints: 
                CA:FALSE
            X509v3 Subject Key Identifier: 
                55:FB:AB:EE:4E:A6:A6:04:42:D8:3E:55:5B:3E:BA:2F:FB:DF:2F:5D
            X509v3 Authority Key Identifier: 
                keyid:36:FE:96:51:14:6B:85:33:6D:D7:01:41:B7:D9:E9:2E:E8:D2:BC:D4
                DirName:/CN=team312-net
                serial:2C:52:19:A3:AD:F7:15:3D:6A:95:D8:77:89:50:AA:58:50:03:1B:7F

            X509v3 Extended Key Usage: 
                TLS Web Server Authentication
            X509v3 Key Usage: 
                Digital Signature, Key Encipherment
            X509v3 Subject Alternative Name: 
                DNS:team312-server
    Signature Algorithm: sha256WithRSAEncryption
         50:fc:3c:fd:c3:a1:e1:df:8c:91:4d:fb:33:8b:51:20:ab:30:
         cd:d0:4e:81:d2:11:6f:f5:02:7a:6c:21:c8:06:12:3d:b0:cf:
         24:f7:2c:d8:b9:c8:8a:2f:04:fe:9f:33:ef:14:57:56:5c:e7:
         06:b4:0d:3d:f7:cd:50:48:40:a9:e9:d6:b7:f7:3e:c6:89:58:
         be:f8:31:ba:f1:38:56:fb:6e:94:3b:1a:95:6a:21:fd:ef:b7:
         d0:35:2e:a1:79:2b:9c:7e:ce:9b:2e:44:3b:88:21:ce:d5:e5:
         c0:9f:20:a5:3a:07:24:1b:ee:1a:24:f4:a2:92:ef:24:03:5f:
         67:6c:96:9e:8d:83:a5:86:00:0b:1a:f3:b2:af:35:6f:59:67:
         d3:97:20:90:34:68:d1:f0:49:9f:01:dc:8e:86:bd:56:92:2b:
         5c:7b:f1:b5:81:2d:71:3c:86:d5:59:6d:6e:33:1a:c7:b2:69:
         fc:11:1a:ab:c8:56:2d:23:27:4f:36:59:62:50:42:34:1f:10:
         3f:4f:65:b8:60:b2:d0:75:8d:40:43:1b:ae:e6:4f:8b:7c:fc:
         0b:49:2f:04:32:46:f7:f3:ba:ce:9a:ac:00:be:96:8e:73:9e:
         c7:29:6c:73:e4:07:6f:d2:48:1c:6c:30:9a:e4:5d:12:4e:0c:
         47:74:06:9c
-----BEGIN CERTIFICATE-----
MIIDeDCCAmCgAwIBAgIRAKbexodXNqdNMuZ2nZwUEnUwDQYJKoZIhvcNAQELBQAw
FjEUMBIGA1UEAwwLdGVhbTMxMi1uZXQwHhcNMjIwNTE4MjAwMjI1WhcNMjUwNTAy
MjAwMjI1WjAZMRcwFQYDVQQDDA50ZWFtMzEyLXNlcnZlcjCCASIwDQYJKoZIhvcN
AQEBBQADggEPADCCAQoCggEBAK6bLsYUk9LNDQJxzbyopjEPy2+yCNtqlYKCHXH9
FQDC/n8QXQGu17/JuAMRGDF/kiPdgFWj/WRtf+xzYNqhMySK/euJrNBIa0EWCvUx
+KmaV7/A9x1A/p4o1gI5JRgEInG5N99oM0BQSRvyii7TL5Q2YuEO5NhchXo6h2Nn
YG/o8NAde4r+FFmUcFkVp5+IjXrMNBDIyRoFBPB0bMy/i+wGUMJaFm10pUdvWi7t
mNs46Wrreas6nW0gTWKD/QBHnz0MRrvDE5idKnlF7+Q7LhuQ7eY2Oy3cRojjbU/8
gmQ0U1qz3xXTNq+gCRn/dZ6RJ+CkQi5rIftf0poANhypo4kCAwEAAaOBvTCBujAJ
BgNVHRMEAjAAMB0GA1UdDgQWBBRV+6vuTqamBELYPlVbProv+98vXTBRBgNVHSME
SjBIgBQ2/pZRFGuFM23XAUG32eku6NK81KEapBgwFjEUMBIGA1UEAwwLdGVhbTMx
Mi1uZXSCFCxSGaOt9xU9apXYd4lQqlhQAxt/MBMGA1UdJQQMMAoGCCsGAQUFBwMB
MAsGA1UdDwQEAwIFoDAZBgNVHREEEjAQgg50ZWFtMzEyLXNlcnZlcjANBgkqhkiG
9w0BAQsFAAOCAQEAUPw8/cOh4d+MkU37M4tRIKswzdBOgdIRb/UCemwhyAYSPbDP
JPcs2LnIii8E/p8z7xRXVlznBrQNPffNUEhAqenWt/c+xolYvvgxuvE4VvtulDsa
lWoh/e+30DUuoXkrnH7Omy5EO4ghztXlwJ8gpToHJBvuGiT0opLvJANfZ2yWno2D
pYYACxrzsq81b1ln05cgkDRo0fBJnwHcjoa9VpIrXHvxtYEtcTyG1VltbjMax7Jp
/BEaq8hWLSMnTzZZYlBCNB8QP09luGCy0HWNQEMbruZPi3z8C0kvBDJG9/O6zpqs
AL6WjnOexylsc+QHb9JIHGwwmuRdEk4MR3QGnA==
-----END CERTIFICATE-----
