Certificate:
    Data:
        Version: 3 (0x2)
        Serial Number:
            43:db:ea:49:3f:ad:2a:46:37:c9:ec:00:23:0d:0e:eb
        Signature Algorithm: sha256WithRSAEncryption
        Issuer: CN=team756-net
        Validity
            Not Before: May 19 00:18:03 2022 GMT
            Not After : May  3 00:18:03 2025 GMT
        Subject: CN=team756-client
        Subject Public Key Info:
            Public Key Algorithm: rsaEncryption
                RSA Public-Key: (2048 bit)
                Modulus:
                    00:b3:a8:38:67:1c:47:3a:ae:72:4a:ba:08:dd:92:
                    fd:06:f4:27:95:fb:3e:b8:04:d9:1c:8a:96:50:17:
                    e7:a8:94:e9:eb:35:0c:4a:0d:6b:1c:56:b2:4d:ab:
                    0e:dd:52:eb:32:7d:6a:e8:01:11:ed:d9:0f:24:95:
                    95:70:b9:f4:0e:bb:d5:09:3b:29:e3:5e:69:c2:a6:
                    0f:98:dc:5e:42:8c:2a:58:05:10:0c:3b:9a:b5:cb:
                    90:50:12:37:de:05:6a:89:1a:9d:7f:07:a7:f3:df:
                    1f:21:bf:88:31:f3:4f:04:83:e7:66:c4:6f:0f:f6:
                    9a:1e:3e:66:ba:b7:26:12:6d:21:54:fd:d9:ab:0d:
                    d8:80:84:85:2d:95:29:1c:cc:f1:5b:30:5c:98:56:
                    3b:a7:cf:dc:5b:69:ab:a0:2e:a6:5e:a9:d4:e0:94:
                    36:1f:20:2c:62:fb:35:a0:2c:18:ea:b0:2b:d1:51:
                    60:54:84:7e:14:b8:22:ad:41:55:eb:ac:c8:57:e0:
                    50:ea:b7:a5:09:a7:96:ff:b8:dc:46:74:70:fe:a2:
                    ed:21:a1:bf:15:7a:f0:f0:f9:e9:72:af:f1:6c:eb:
                    02:23:28:45:72:a4:fa:50:1d:70:52:5a:be:58:39:
                    e8:86:4e:72:da:6b:4c:71:9f:d3:1c:c8:e5:27:20:
                    4f:61
                Exponent: 65537 (0x10001)
        X509v3 extensions:
            X509v3 Basic Constraints: 
                CA:FALSE
            X509v3 Subject Key Identifier: 
                00:FC:F2:F6:40:62:F8:75:20:EF:CF:83:1D:DE:FB:2D:A2:69:42:68
            X509v3 Authority Key Identifier: 
                keyid:E9:BE:F7:F2:A5:09:75:E1:80:EC:80:E3:93:22:2C:D1:E0:92:E7:1C
                DirName:/CN=team756-net
                serial:26:B7:BF:41:1D:84:88:81:2A:B3:79:71:AE:F9:4E:AA:E5:C1:90:20

            X509v3 Extended Key Usage: 
                TLS Web Client Authentication
            X509v3 Key Usage: 
                Digital Signature
    Signature Algorithm: sha256WithRSAEncryption
         9e:e2:0a:d2:66:f3:b2:51:3c:da:ae:b8:7a:b1:1f:28:c4:f5:
         3c:33:f4:d4:94:00:b9:9e:5f:61:a8:79:14:9a:e4:c1:e7:1b:
         5b:5f:ab:c9:96:7d:17:c7:15:eb:e2:82:37:0a:43:b2:ca:9b:
         15:d7:00:39:95:b5:d4:40:e0:2a:f7:13:00:99:d0:81:b1:ca:
         73:eb:00:ec:ac:c6:83:cd:d0:7f:a7:21:69:c5:63:80:1e:8b:
         32:7f:81:4f:1b:3c:f1:e8:3d:c8:51:25:8b:c1:b3:82:62:04:
         de:a2:3c:f8:81:84:d1:01:1e:86:e7:88:81:2a:4c:f2:b7:ff:
         ce:10:84:91:f9:13:c4:28:ef:61:ac:37:a9:77:5d:d1:f3:d2:
         d6:23:75:92:33:db:63:0f:e8:72:d3:80:56:29:7a:ec:80:3c:
         a9:45:81:8b:a5:d6:49:a3:16:94:f7:46:e4:98:28:93:9d:79:
         5d:9a:09:28:b7:39:26:4e:7b:e2:b3:94:78:21:7b:b5:2a:24:
         1d:36:2d:f3:94:c2:fe:ae:57:0d:2e:86:ae:fe:df:da:88:0e:
         f6:77:5f:8c:8a:45:0a:56:aa:ae:17:7d:a5:88:ba:e3:e5:57:
         c2:89:ba:4b:12:61:b2:15:ce:0c:d7:c2:a9:c5:2b:38:24:d3:
         3c:7e:b4:80
-----BEGIN CERTIFICATE-----
MIIDXDCCAkSgAwIBAgIQQ9vqST+tKkY3yewAIw0O6zANBgkqhkiG9w0BAQsFADAW
MRQwEgYDVQQDDAt0ZWFtNzU2LW5ldDAeFw0yMjA1MTkwMDE4MDNaFw0yNTA1MDMw
MDE4MDNaMBkxFzAVBgNVBAMMDnRlYW03NTYtY2xpZW50MIIBIjANBgkqhkiG9w0B
AQEFAAOCAQ8AMIIBCgKCAQEAs6g4ZxxHOq5ySroI3ZL9BvQnlfs+uATZHIqWUBfn
qJTp6zUMSg1rHFayTasO3VLrMn1q6AER7dkPJJWVcLn0DrvVCTsp415pwqYPmNxe
QowqWAUQDDuatcuQUBI33gVqiRqdfwen898fIb+IMfNPBIPnZsRvD/aaHj5murcm
Em0hVP3Zqw3YgISFLZUpHMzxWzBcmFY7p8/cW2mroC6mXqnU4JQ2HyAsYvs1oCwY
6rAr0VFgVIR+FLgirUFV66zIV+BQ6relCaeW/7jcRnRw/qLtIaG/FXrw8Pnpcq/x
bOsCIyhFcqT6UB1wUlq+WDnohk5y2mtMcZ/THMjlJyBPYQIDAQABo4GiMIGfMAkG
A1UdEwQCMAAwHQYDVR0OBBYEFAD88vZAYvh1IO/Pgx3e+y2iaUJoMFEGA1UdIwRK
MEiAFOm+9/KlCXXhgOyA45MiLNHgkuccoRqkGDAWMRQwEgYDVQQDDAt0ZWFtNzU2
LW5ldIIUJre/QR2EiIEqs3lxrvlOquXBkCAwEwYDVR0lBAwwCgYIKwYBBQUHAwIw
CwYDVR0PBAQDAgeAMA0GCSqGSIb3DQEBCwUAA4IBAQCe4grSZvOyUTzarrh6sR8o
xPU8M/TUlAC5nl9hqHkUmuTB5xtbX6vJln0XxxXr4oI3CkOyypsV1wA5lbXUQOAq
9xMAmdCBscpz6wDsrMaDzdB/pyFpxWOAHosyf4FPGzzx6D3IUSWLwbOCYgTeojz4
gYTRAR6G54iBKkzyt//OEISR+RPEKO9hrDepd13R89LWI3WSM9tjD+hy04BWKXrs
gDypRYGLpdZJoxaU90bkmCiTnXldmgkotzkmTnvis5R4IXu1KiQdNi3zlML+rlcN
Loau/t/aiA72d1+MikUKVqquF32liLrj5VfCibpLEmGyFc4M18KpxSs4JNM8frSA
-----END CERTIFICATE-----
