Certificate:
    Data:
        Version: 3 (0x2)
        Serial Number:
            17:89:f6:85:c0:b6:e3:05:1c:fa:e8:17:ea:49:94:e2
        Signature Algorithm: sha256WithRSAEncryption
        Issuer: CN=team273-net
        Validity
            Not Before: May 18 19:49:33 2022 GMT
            Not After : May  2 19:49:33 2025 GMT
        Subject: CN=team273-client
        Subject Public Key Info:
            Public Key Algorithm: rsaEncryption
                RSA Public-Key: (2048 bit)
                Modulus:
                    00:d7:38:47:ed:4f:11:80:9d:b8:19:b5:e2:81:41:
                    bb:98:fc:86:36:c5:7b:ab:3e:78:4d:bc:88:39:22:
                    e7:cf:d7:df:50:e2:9c:f4:0c:f5:62:d4:fb:b5:54:
                    1a:85:a0:e2:50:22:cb:55:e4:78:6d:fa:13:01:55:
                    99:35:c3:73:69:54:84:ff:7b:36:f8:86:f2:c4:2d:
                    08:9a:d7:d8:74:16:1a:83:ca:5e:ac:16:90:a4:33:
                    29:b6:82:57:15:6b:77:9d:f2:94:eb:d1:95:46:e0:
                    94:00:ea:a0:11:04:7c:27:73:80:09:25:cf:e5:5b:
                    77:ea:ad:3c:58:99:c1:fe:6a:af:be:e7:21:37:13:
                    d7:81:e4:ac:5b:2c:38:7d:ee:70:34:ea:28:7c:0d:
                    1d:f8:3d:a0:09:9e:60:fd:dc:bc:35:f0:80:69:88:
                    30:25:84:8e:9d:05:25:4e:6d:43:b1:80:d0:56:e7:
                    42:51:dc:96:e5:24:28:12:9d:be:52:aa:0d:bb:9c:
                    2c:9c:19:1a:55:f3:86:40:9a:04:88:71:dd:84:0f:
                    13:ed:14:4e:68:50:12:63:67:07:8f:6b:6a:df:d8:
                    5e:8e:bc:0e:30:23:2d:ca:b2:18:bf:19:9c:79:41:
                    5f:af:8a:07:0f:4a:4c:f2:fc:c3:5b:2e:92:b1:a4:
                    20:db
                Exponent: 65537 (0x10001)
        X509v3 extensions:
            X509v3 Basic Constraints: 
                CA:FALSE
            X509v3 Subject Key Identifier: 
                08:7B:42:EE:FD:16:78:42:A4:E6:7B:9D:59:8E:3A:F8:2D:31:8E:D7
            X509v3 Authority Key Identifier: 
                keyid:7C:D7:0B:22:F0:A6:26:91:FD:4D:BE:28:67:46:C6:28:3E:AC:D2:68
                DirName:/CN=team273-net
                serial:4D:5E:E8:EF:37:CB:80:E8:AE:30:6A:DD:BE:DF:CB:C2:12:4A:B4:70

            X509v3 Extended Key Usage: 
                TLS Web Client Authentication
            X509v3 Key Usage: 
                Digital Signature
    Signature Algorithm: sha256WithRSAEncryption
         68:4a:22:75:8b:b4:fd:89:07:36:b0:53:30:30:bb:b3:f5:1b:
         a7:e3:86:e4:79:04:fb:b1:df:e7:bb:d5:7a:1d:f3:01:3e:48:
         4a:22:2b:b3:f3:3d:cf:34:21:f2:ed:58:d0:07:d1:f2:50:6f:
         dd:83:bd:fa:d2:c5:48:bc:03:77:34:d0:77:55:16:a8:4f:60:
         f8:16:9c:ed:ae:67:ae:b1:21:67:31:7f:59:1f:16:eb:54:f6:
         54:d9:fe:24:01:ce:16:bb:26:d7:09:b0:97:3b:2f:ff:42:13:
         da:d8:a0:41:12:28:24:dc:90:25:86:20:6d:02:b8:19:4e:09:
         0c:5d:84:70:eb:f5:82:eb:e1:ff:eb:e4:2a:c9:f1:70:b0:2e:
         37:4f:79:ea:a8:20:52:eb:6b:a0:50:56:7d:d4:84:93:7d:2d:
         78:e5:04:1f:e3:ab:f5:4a:09:33:58:b1:28:a8:53:af:cb:6f:
         56:5d:a0:93:f5:97:bf:0e:f6:8f:e9:b7:b6:79:1c:0d:ff:23:
         b6:1d:2a:1f:35:f8:8a:dc:76:b7:3d:74:c1:0f:ca:35:64:95:
         37:98:90:b8:10:02:75:fd:dd:06:02:40:49:64:44:94:0f:51:
         03:38:ec:ef:be:90:23:f4:6d:fa:28:a5:be:80:65:4a:b7:72:
         a4:f9:3f:d2
-----BEGIN CERTIFICATE-----
MIIDXDCCAkSgAwIBAgIQF4n2hcC24wUc+ugX6kmU4jANBgkqhkiG9w0BAQsFADAW
MRQwEgYDVQQDDAt0ZWFtMjczLW5ldDAeFw0yMjA1MTgxOTQ5MzNaFw0yNTA1MDIx
OTQ5MzNaMBkxFzAVBgNVBAMMDnRlYW0yNzMtY2xpZW50MIIBIjANBgkqhkiG9w0B
AQEFAAOCAQ8AMIIBCgKCAQEA1zhH7U8RgJ24GbXigUG7mPyGNsV7qz54TbyIOSLn
z9ffUOKc9Az1YtT7tVQahaDiUCLLVeR4bfoTAVWZNcNzaVSE/3s2+IbyxC0ImtfY
dBYag8perBaQpDMptoJXFWt3nfKU69GVRuCUAOqgEQR8J3OACSXP5Vt36q08WJnB
/mqvvuchNxPXgeSsWyw4fe5wNOoofA0d+D2gCZ5g/dy8NfCAaYgwJYSOnQUlTm1D
sYDQVudCUdyW5SQoEp2+UqoNu5wsnBkaVfOGQJoEiHHdhA8T7RROaFASY2cHj2tq
39hejrwOMCMtyrIYvxmceUFfr4oHD0pM8vzDWy6SsaQg2wIDAQABo4GiMIGfMAkG
A1UdEwQCMAAwHQYDVR0OBBYEFAh7Qu79FnhCpOZ7nVmOOvgtMY7XMFEGA1UdIwRK
MEiAFHzXCyLwpiaR/U2+KGdGxig+rNJooRqkGDAWMRQwEgYDVQQDDAt0ZWFtMjcz
LW5ldIIUTV7o7zfLgOiuMGrdvt/LwhJKtHAwEwYDVR0lBAwwCgYIKwYBBQUHAwIw
CwYDVR0PBAQDAgeAMA0GCSqGSIb3DQEBCwUAA4IBAQBoSiJ1i7T9iQc2sFMwMLuz
9Run44bkeQT7sd/nu9V6HfMBPkhKIiuz8z3PNCHy7VjQB9HyUG/dg7360sVIvAN3
NNB3VRaoT2D4FpztrmeusSFnMX9ZHxbrVPZU2f4kAc4WuybXCbCXOy//QhPa2KBB
Eigk3JAlhiBtArgZTgkMXYRw6/WC6+H/6+QqyfFwsC43T3nqqCBS62ugUFZ91IST
fS145QQf46v1SgkzWLEoqFOvy29WXaCT9Ze/DvaP6be2eRwN/yO2HSofNfiK3Ha3
PXTBD8o1ZJU3mJC4EAJ1/d0GAkBJZESUD1EDOOzvvpAj9G36KKW+gGVKt3Kk+T/S
-----END CERTIFICATE-----
