Certificate:
    Data:
        Version: 3 (0x2)
        Serial Number:
            e0:2e:0e:5e:a5:44:e2:3e:87:4d:da:8d:2e:86:8c:cf
        Signature Algorithm: sha256WithRSAEncryption
        Issuer: CN=team242-net
        Validity
            Not Before: May 18 19:24:55 2022 GMT
            Not After : May  2 19:24:55 2025 GMT
        Subject: CN=team242-client
        Subject Public Key Info:
            Public Key Algorithm: rsaEncryption
                RSA Public-Key: (2048 bit)
                Modulus:
                    00:e4:19:a9:75:84:85:f8:fe:ff:c4:e6:26:28:0a:
                    97:9f:11:16:7e:e2:dc:5a:36:e7:0f:e1:24:e4:85:
                    de:90:b9:cb:99:ed:62:60:6a:51:50:87:4d:83:77:
                    8f:80:4c:05:50:43:98:10:e8:f0:a7:42:d7:b1:96:
                    fa:f3:98:ec:8e:b9:ff:9c:20:6a:af:ca:dc:30:0a:
                    3c:60:e7:7a:b4:38:d0:60:6c:7f:84:f7:4e:b5:03:
                    15:5e:bd:3e:fb:6d:43:d6:be:42:d7:31:e1:37:cf:
                    b2:9e:56:67:26:8b:bb:fa:70:69:96:31:2c:48:99:
                    01:af:f0:2a:ad:25:30:7e:f1:e1:6f:13:75:c4:b9:
                    73:06:7a:9b:4d:07:4b:40:83:c9:b2:e2:2a:7c:26:
                    1d:fa:da:00:58:c5:e5:92:54:a7:a2:26:db:97:b4:
                    9f:4c:7b:e3:6e:7a:57:1c:1c:1c:03:fd:b4:b6:6c:
                    47:de:11:72:9c:fd:cb:bc:e7:54:0a:32:0e:ef:ba:
                    c3:bd:01:70:07:36:60:c6:9b:bf:7a:0a:04:84:9b:
                    0f:6e:56:7a:1a:a4:e7:fe:c2:88:9f:f3:00:29:a5:
                    93:0e:17:6a:26:a0:f7:e5:28:90:d0:af:3b:75:9b:
                    fe:63:05:3f:33:f1:e7:86:80:69:f9:20:70:52:8a:
                    96:e1
                Exponent: 65537 (0x10001)
        X509v3 extensions:
            X509v3 Basic Constraints: 
                CA:FALSE
            X509v3 Subject Key Identifier: 
                F6:14:57:66:7F:8C:8F:4D:EE:B8:E1:F4:4B:F3:39:ED:06:7C:03:A3
            X509v3 Authority Key Identifier: 
                keyid:FE:C8:5B:74:AB:99:F0:E6:9A:2F:C6:56:50:D2:83:46:1F:B6:83:B9
                DirName:/CN=team242-net
                serial:03:A5:CC:9E:BC:66:48:0B:23:D3:CC:7D:58:5A:93:AF:1A:6E:1C:FE

            X509v3 Extended Key Usage: 
                TLS Web Client Authentication
            X509v3 Key Usage: 
                Digital Signature
    Signature Algorithm: sha256WithRSAEncryption
         90:11:72:41:98:d6:d1:f1:32:c6:c6:f0:13:eb:35:7c:e5:5a:
         bc:cc:47:0d:c8:3c:b9:df:c7:5d:5d:a8:57:4b:13:ae:db:86:
         7f:52:ba:26:de:19:7a:aa:01:ca:17:64:05:8d:8e:f0:a8:35:
         2c:9b:03:a6:05:58:f9:e8:16:11:41:17:7b:6b:92:46:e9:ce:
         75:aa:e3:90:1c:fa:c0:6f:61:38:02:05:fe:b5:72:65:52:e1:
         42:86:62:17:46:ed:92:fb:60:a9:43:90:4e:64:0c:a2:78:2b:
         f6:fe:3f:81:dd:08:65:0a:95:dd:8e:89:5c:e4:02:66:8a:04:
         f2:d8:bb:98:4e:b5:2b:e0:35:c6:40:46:95:3b:8f:bf:f8:8c:
         f7:98:03:6e:1a:9e:69:6a:f0:5c:29:9b:a1:ca:f6:13:d1:9c:
         0c:5b:77:9a:96:17:5b:33:0f:c7:41:e4:99:ca:37:c2:f4:c5:
         0d:d5:ed:ad:e5:e0:dc:c9:af:89:99:4f:d0:1f:6a:9b:4b:0d:
         58:b5:bf:e9:ff:8e:fa:ee:a0:1b:04:fa:fc:a1:9d:a2:31:10:
         b2:da:16:67:1f:7d:ee:6f:4e:9a:d5:e8:67:43:fd:b0:81:36:
         04:05:d4:05:09:9d:9b:d0:e1:1a:1d:11:cd:11:36:55:52:1e:
         9f:4d:ff:16
-----BEGIN CERTIFICATE-----
MIIDXTCCAkWgAwIBAgIRAOAuDl6lROI+h03ajS6GjM8wDQYJKoZIhvcNAQELBQAw
FjEUMBIGA1UEAwwLdGVhbTI0Mi1uZXQwHhcNMjIwNTE4MTkyNDU1WhcNMjUwNTAy
MTkyNDU1WjAZMRcwFQYDVQQDDA50ZWFtMjQyLWNsaWVudDCCASIwDQYJKoZIhvcN
AQEBBQADggEPADCCAQoCggEBAOQZqXWEhfj+/8TmJigKl58RFn7i3Fo25w/hJOSF
3pC5y5ntYmBqUVCHTYN3j4BMBVBDmBDo8KdC17GW+vOY7I65/5wgaq/K3DAKPGDn
erQ40GBsf4T3TrUDFV69PvttQ9a+Qtcx4TfPsp5WZyaLu/pwaZYxLEiZAa/wKq0l
MH7x4W8TdcS5cwZ6m00HS0CDybLiKnwmHfraAFjF5ZJUp6Im25e0n0x74256Vxwc
HAP9tLZsR94Rcpz9y7znVAoyDu+6w70BcAc2YMabv3oKBISbD25Wehqk5/7CiJ/z
ACmlkw4Xaiag9+UokNCvO3Wb/mMFPzPx54aAafkgcFKKluECAwEAAaOBojCBnzAJ
BgNVHRMEAjAAMB0GA1UdDgQWBBT2FFdmf4yPTe644fRL8zntBnwDozBRBgNVHSME
SjBIgBT+yFt0q5nw5povxlZQ0oNGH7aDuaEapBgwFjEUMBIGA1UEAwwLdGVhbTI0
Mi1uZXSCFAOlzJ68ZkgLI9PMfVhak68abhz+MBMGA1UdJQQMMAoGCCsGAQUFBwMC
MAsGA1UdDwQEAwIHgDANBgkqhkiG9w0BAQsFAAOCAQEAkBFyQZjW0fEyxsbwE+s1
fOVavMxHDcg8ud/HXV2oV0sTrtuGf1K6Jt4ZeqoByhdkBY2O8Kg1LJsDpgVY+egW
EUEXe2uSRunOdarjkBz6wG9hOAIF/rVyZVLhQoZiF0btkvtgqUOQTmQMongr9v4/
gd0IZQqV3Y6JXOQCZooE8ti7mE61K+A1xkBGlTuPv/iM95gDbhqeaWrwXCmbocr2
E9GcDFt3mpYXWzMPx0Hkmco3wvTFDdXtreXg3MmviZlP0B9qm0sNWLW/6f+O+u6g
GwT6/KGdojEQstoWZx997m9OmtXoZ0P9sIE2BAXUBQmdm9DhGh0RzRE2VVIen03/
Fg==
-----END CERTIFICATE-----
