Certificate:
    Data:
        Version: 3 (0x2)
        Serial Number:
            07:8f:7f:87:3c:59:a9:06:fd:c7:06:88:97:51:ec:9c
        Signature Algorithm: sha256WithRSAEncryption
        Issuer: CN=team445-net
        Validity
            Not Before: May 18 21:18:33 2022 GMT
            Not After : May  2 21:18:33 2025 GMT
        Subject: CN=team445-server
        Subject Public Key Info:
            Public Key Algorithm: rsaEncryption
                RSA Public-Key: (2048 bit)
                Modulus:
                    00:cc:a0:55:1a:88:f8:6c:6c:7d:63:2f:c2:30:21:
                    ac:32:55:35:0f:83:20:71:0a:aa:09:fb:1c:33:d7:
                    6f:47:11:8f:e8:a8:04:d2:43:06:6c:7f:b3:4c:26:
                    6f:6d:e0:4f:66:7f:2e:39:23:53:8b:96:76:72:a7:
                    c3:6b:d2:ba:74:c0:b2:8e:85:75:ca:61:2e:61:7e:
                    f4:94:34:db:c2:e8:af:f3:8a:41:c6:cb:47:0c:e8:
                    ca:60:e5:b4:6d:ff:45:61:58:ff:f9:7f:46:d6:8d:
                    a1:4e:0a:57:8a:46:d3:b8:fa:c2:02:3b:f1:5e:28:
                    94:35:86:91:12:61:d5:da:df:3d:50:ea:15:ca:2d:
                    0c:55:7f:2a:a8:c5:e7:6a:e4:84:fb:39:5d:92:25:
                    b2:cf:6e:22:f2:2f:13:d1:39:3b:3c:27:69:24:73:
                    d5:3e:a7:9a:fa:d8:ac:ea:0d:08:30:ee:1a:96:11:
                    c8:66:0b:10:22:4b:66:ef:99:03:78:72:1e:5c:16:
                    31:c5:42:fd:ff:77:c9:2a:83:56:8a:c3:4a:95:8d:
                    8f:43:45:bb:c8:b6:bc:4e:11:53:ca:af:2a:2e:9a:
                    c5:de:0f:35:bd:af:7f:a2:24:be:77:3d:48:03:4a:
                    6c:89:4c:ad:49:2f:9a:83:dd:02:6a:51:a2:d8:4f:
                    a7:0f
                Exponent: 65537 (0x10001)
        X509v3 extensions:
            X509v3 Basic Constraints: 
                CA:FALSE
            X509v3 Subject Key Identifier: 
                92:E6:88:9A:59:7C:D4:03:C5:4E:2F:5E:64:08:65:81:EF:47:E4:61
            X509v3 Authority Key Identifier: 
                keyid:11:67:23:F0:03:54:DC:81:23:41:CB:32:5D:80:9C:3B:FE:E5:A6:73
                DirName:/CN=team445-net
                serial:55:68:E8:6D:1B:CB:33:B6:20:54:BE:06:66:47:D7:45:80:29:BF:C7

            X509v3 Extended Key Usage: 
                TLS Web Server Authentication
            X509v3 Key Usage: 
                Digital Signature, Key Encipherment
            X509v3 Subject Alternative Name: 
                DNS:team445-server
    Signature Algorithm: sha256WithRSAEncryption
         34:09:b7:dc:96:65:c7:5b:81:7d:7a:9c:3a:88:f5:3a:45:b3:
         ae:3d:d4:ab:f7:9e:e3:bd:b7:78:ed:b6:fc:bc:db:ab:e8:dc:
         ac:1a:83:ce:f9:c7:5e:83:b3:9a:57:44:4e:a4:da:3d:c3:50:
         e1:73:a0:6c:3f:27:91:1a:d9:fe:a8:b9:08:8b:00:75:cf:40:
         da:14:d6:f7:7e:8f:6b:a4:5a:97:b3:2e:93:b5:e3:f9:97:92:
         cb:2d:0d:e7:88:4e:2e:27:00:c5:a2:14:0c:26:bc:04:07:65:
         15:61:09:bf:34:87:32:62:a8:0c:86:a6:7c:27:bd:25:1b:d9:
         2c:ca:f8:93:7a:b9:cb:2b:db:08:7e:86:84:df:df:a0:0d:19:
         91:27:cb:48:c7:15:50:16:91:1d:e4:15:15:d3:2b:05:df:b0:
         71:4a:97:e4:23:ad:8a:3c:a1:73:ee:85:94:d8:53:c0:d6:aa:
         b9:7a:f9:31:46:77:ab:2f:e1:45:04:19:60:07:12:22:ea:57:
         50:49:c9:e5:ae:44:30:62:0f:01:59:b8:c6:f4:4d:6c:7d:d7:
         b3:42:7b:b7:63:a2:1a:a7:70:cc:c2:65:c0:2e:46:84:80:b0:
         91:29:4d:7e:d6:d2:85:e3:fd:7e:a2:17:79:81:08:2a:1e:8d:
         82:10:50:30
-----BEGIN CERTIFICATE-----
MIIDdzCCAl+gAwIBAgIQB49/hzxZqQb9xwaIl1HsnDANBgkqhkiG9w0BAQsFADAW
MRQwEgYDVQQDDAt0ZWFtNDQ1LW5ldDAeFw0yMjA1MTgyMTE4MzNaFw0yNTA1MDIy
MTE4MzNaMBkxFzAVBgNVBAMMDnRlYW00NDUtc2VydmVyMIIBIjANBgkqhkiG9w0B
AQEFAAOCAQ8AMIIBCgKCAQEAzKBVGoj4bGx9Yy/CMCGsMlU1D4MgcQqqCfscM9dv
RxGP6KgE0kMGbH+zTCZvbeBPZn8uOSNTi5Z2cqfDa9K6dMCyjoV1ymEuYX70lDTb
wuiv84pBxstHDOjKYOW0bf9FYVj/+X9G1o2hTgpXikbTuPrCAjvxXiiUNYaREmHV
2t89UOoVyi0MVX8qqMXnauSE+zldkiWyz24i8i8T0Tk7PCdpJHPVPqea+tis6g0I
MO4alhHIZgsQIktm75kDeHIeXBYxxUL9/3fJKoNWisNKlY2PQ0W7yLa8ThFTyq8q
LprF3g81va9/oiS+dz1IA0psiUytSS+ag90CalGi2E+nDwIDAQABo4G9MIG6MAkG
A1UdEwQCMAAwHQYDVR0OBBYEFJLmiJpZfNQDxU4vXmQIZYHvR+RhMFEGA1UdIwRK
MEiAFBFnI/ADVNyBI0HLMl2AnDv+5aZzoRqkGDAWMRQwEgYDVQQDDAt0ZWFtNDQ1
LW5ldIIUVWjobRvLM7YgVL4GZkfXRYApv8cwEwYDVR0lBAwwCgYIKwYBBQUHAwEw
CwYDVR0PBAQDAgWgMBkGA1UdEQQSMBCCDnRlYW00NDUtc2VydmVyMA0GCSqGSIb3
DQEBCwUAA4IBAQA0CbfclmXHW4F9epw6iPU6RbOuPdSr957jvbd47bb8vNur6Nys
GoPO+cdeg7OaV0ROpNo9w1Dhc6BsPyeRGtn+qLkIiwB1z0DaFNb3fo9rpFqXsy6T
teP5l5LLLQ3niE4uJwDFohQMJrwEB2UVYQm/NIcyYqgMhqZ8J70lG9ksyviTernL
K9sIfoaE39+gDRmRJ8tIxxVQFpEd5BUV0ysF37BxSpfkI62KPKFz7oWU2FPA1qq5
evkxRnerL+FFBBlgBxIi6ldQScnlrkQwYg8BWbjG9E1sfdezQnu3Y6Iap3DMwmXA
LkaEgLCRKU1+1tKF4/1+ohd5gQgqHo2CEFAw
-----END CERTIFICATE-----
