Certificate:
    Data:
        Version: 3 (0x2)
        Serial Number:
            36:fb:bd:ee:20:d1:76:f4:3f:2f:23:50:fd:01:2a:79
        Signature Algorithm: sha256WithRSAEncryption
        Issuer: CN=team755-net
        Validity
            Not Before: May 19 00:17:25 2022 GMT
            Not After : May  3 00:17:25 2025 GMT
        Subject: CN=team755-client
        Subject Public Key Info:
            Public Key Algorithm: rsaEncryption
                RSA Public-Key: (2048 bit)
                Modulus:
                    00:e5:7d:20:e7:82:7e:7a:94:ba:71:ef:b1:bc:5e:
                    d3:74:03:66:2d:99:1a:a1:e7:a6:09:fa:d0:b7:ce:
                    01:6e:32:20:32:7f:49:3b:f8:13:b2:a8:33:73:c8:
                    29:b2:fd:66:46:83:d2:2e:00:aa:d6:a8:a9:e7:e3:
                    d8:de:6d:b2:44:bb:27:23:54:be:08:fc:af:4e:43:
                    53:38:61:40:a5:a5:2c:2d:1e:fb:15:ad:02:90:08:
                    2e:82:7c:f7:d4:c7:6e:11:00:e1:b0:80:51:24:cb:
                    93:03:de:a7:d0:dc:14:0b:10:43:ed:5a:2f:27:d4:
                    5a:e8:92:15:01:46:12:37:ad:3b:45:84:85:de:88:
                    84:3c:a5:94:6b:b6:c5:65:49:e2:ba:32:87:5d:5d:
                    b2:1a:50:39:02:c3:a0:f7:20:f7:23:ae:9a:8a:59:
                    91:c3:48:fb:bb:72:8e:92:39:a0:31:4f:a3:41:a4:
                    fc:fa:fa:a7:16:bd:3a:88:65:78:0c:a8:24:e7:89:
                    10:bb:d7:98:9b:9a:d9:74:1b:5c:89:19:37:9f:81:
                    89:f9:48:79:23:cc:bf:4a:39:ce:75:6e:1f:10:a5:
                    f4:6e:2b:ef:42:3e:0e:50:59:da:71:a7:c8:23:47:
                    2a:04:10:4d:c9:43:a0:68:37:f2:79:ce:b8:f0:42:
                    e2:af
                Exponent: 65537 (0x10001)
        X509v3 extensions:
            X509v3 Basic Constraints: 
                CA:FALSE
            X509v3 Subject Key Identifier: 
                BA:74:D4:59:56:60:7D:4A:2D:08:A7:5F:28:B6:0B:F2:6A:F1:46:46
            X509v3 Authority Key Identifier: 
                keyid:DA:2C:E9:E6:1C:B5:50:9B:82:BC:61:2C:06:25:30:0F:CB:F0:0B:3D
                DirName:/CN=team755-net
                serial:5C:AD:78:2A:D9:29:1E:8E:7B:7D:89:EE:3C:0D:E7:78:C4:CD:C5:F8

            X509v3 Extended Key Usage: 
                TLS Web Client Authentication
            X509v3 Key Usage: 
                Digital Signature
    Signature Algorithm: sha256WithRSAEncryption
         9b:61:34:db:05:1f:fd:c7:e8:3b:8c:82:65:55:68:de:15:c9:
         a0:2d:e5:cb:db:28:30:9d:80:0d:56:6a:22:cb:f8:d4:8e:f1:
         60:25:50:44:e9:f8:87:d4:43:fa:e5:23:d6:e7:f4:ac:32:f1:
         cb:97:aa:d9:33:09:29:bd:ac:4f:68:47:fb:5e:8a:de:ff:a7:
         7c:9d:7c:c8:fe:34:57:58:59:eb:64:2a:26:0f:07:db:7c:35:
         90:de:45:8c:9f:a8:94:22:da:73:7b:ca:7e:7c:a4:f1:5b:c7:
         d6:7b:93:a3:e4:6d:20:87:20:3c:dd:ec:30:e9:d6:75:4e:2e:
         d6:01:59:a6:93:60:01:c2:ed:37:fd:53:74:ce:28:96:0f:a1:
         9b:29:99:cd:78:4e:fb:4b:34:13:65:d4:a6:3d:09:52:c1:1c:
         41:01:23:58:75:df:08:ac:b7:af:7a:db:45:da:a1:87:09:8c:
         ed:24:71:ee:35:8c:a4:e4:7b:f0:fa:46:f0:1c:ee:90:f5:ee:
         ff:2b:ad:9a:ee:10:cd:bd:28:3a:c9:79:d1:aa:83:3a:63:45:
         b6:c3:d8:ec:ab:10:11:6a:a2:41:d1:0a:2c:99:8b:83:67:4e:
         32:83:92:54:37:58:78:f4:94:b8:ea:da:df:1c:6e:a6:0b:ac:
         a6:c9:5e:a3
-----BEGIN CERTIFICATE-----
MIIDXDCCAkSgAwIBAgIQNvu97iDRdvQ/LyNQ/QEqeTANBgkqhkiG9w0BAQsFADAW
MRQwEgYDVQQDDAt0ZWFtNzU1LW5ldDAeFw0yMjA1MTkwMDE3MjVaFw0yNTA1MDMw
MDE3MjVaMBkxFzAVBgNVBAMMDnRlYW03NTUtY2xpZW50MIIBIjANBgkqhkiG9w0B
AQEFAAOCAQ8AMIIBCgKCAQEA5X0g54J+epS6ce+xvF7TdANmLZkaoeemCfrQt84B
bjIgMn9JO/gTsqgzc8gpsv1mRoPSLgCq1qip5+PY3m2yRLsnI1S+CPyvTkNTOGFA
paUsLR77Fa0CkAgugnz31MduEQDhsIBRJMuTA96n0NwUCxBD7VovJ9Ra6JIVAUYS
N607RYSF3oiEPKWUa7bFZUniujKHXV2yGlA5AsOg9yD3I66ailmRw0j7u3KOkjmg
MU+jQaT8+vqnFr06iGV4DKgk54kQu9eYm5rZdBtciRk3n4GJ+Uh5I8y/SjnOdW4f
EKX0bivvQj4OUFnacafII0cqBBBNyUOgaDfyec648ELirwIDAQABo4GiMIGfMAkG
A1UdEwQCMAAwHQYDVR0OBBYEFLp01FlWYH1KLQinXyi2C/Jq8UZGMFEGA1UdIwRK
MEiAFNos6eYctVCbgrxhLAYlMA/L8As9oRqkGDAWMRQwEgYDVQQDDAt0ZWFtNzU1
LW5ldIIUXK14KtkpHo57fYnuPA3neMTNxfgwEwYDVR0lBAwwCgYIKwYBBQUHAwIw
CwYDVR0PBAQDAgeAMA0GCSqGSIb3DQEBCwUAA4IBAQCbYTTbBR/9x+g7jIJlVWje
FcmgLeXL2ygwnYANVmoiy/jUjvFgJVBE6fiH1EP65SPW5/SsMvHLl6rZMwkpvaxP
aEf7Xore/6d8nXzI/jRXWFnrZComDwfbfDWQ3kWMn6iUItpze8p+fKTxW8fWe5Oj
5G0ghyA83eww6dZ1Ti7WAVmmk2ABwu03/VN0ziiWD6GbKZnNeE77SzQTZdSmPQlS
wRxBASNYdd8IrLevettF2qGHCYztJHHuNYyk5Hvw+kbwHO6Q9e7/K62a7hDNvSg6
yXnRqoM6Y0W2w9jsqxARaqJB0QosmYuDZ04yg5JUN1h49JS46trfHG6mC6ymyV6j
-----END CERTIFICATE-----
