Certificate:
    Data:
        Version: 3 (0x2)
        Serial Number:
            54:8a:2b:c1:d1:d0:75:0c:b8:0b:86:13:34:69:29:99
        Signature Algorithm: sha256WithRSAEncryption
        Issuer: CN=team355-net
        Validity
            Not Before: May 18 20:38:33 2022 GMT
            Not After : May  2 20:38:33 2025 GMT
        Subject: CN=team355-server
        Subject Public Key Info:
            Public Key Algorithm: rsaEncryption
                RSA Public-Key: (2048 bit)
                Modulus:
                    00:b3:70:4b:a0:38:e7:1d:64:4d:53:54:5d:d7:65:
                    f6:a1:52:74:3b:54:85:22:50:ca:81:8b:35:aa:0a:
                    35:6f:5d:fe:6a:23:19:e2:7c:50:26:36:d3:5f:47:
                    5c:55:5b:dc:b1:53:eb:a4:76:51:6d:38:9b:cc:f4:
                    53:5e:f8:5e:0f:dc:8c:a1:0a:76:91:ae:57:65:57:
                    8a:37:e1:44:3f:1b:00:39:7e:4f:f4:e9:b4:17:45:
                    ba:c7:7f:22:58:61:b6:f9:ad:3a:90:9f:9e:0d:ff:
                    cb:f6:26:fd:fb:c4:7e:5f:fc:ac:6c:6e:2f:d4:b7:
                    67:c2:67:5b:67:8e:b4:9b:4f:6a:5a:c2:6d:a4:24:
                    fc:a9:f5:d0:a5:5f:a9:7d:81:dc:0a:e1:7a:df:e5:
                    b5:46:63:f4:26:ec:2f:77:f3:ba:7d:55:50:e6:52:
                    d2:f6:b6:a1:b8:6c:fe:ea:70:08:a4:ac:4a:e0:eb:
                    c3:54:b4:ad:b0:d5:f5:c3:a8:37:fa:1c:e5:8d:09:
                    ae:e9:b3:1c:66:6f:7a:ca:ef:71:4d:7a:d1:5c:cb:
                    eb:74:22:13:d1:5c:ab:1e:3e:e3:ad:aa:fc:b7:2f:
                    a7:2f:b2:83:cc:b9:5b:85:73:af:e4:1b:97:2d:d4:
                    32:15:b3:dd:5d:08:98:00:18:88:5a:7b:2e:d3:5b:
                    47:0f
                Exponent: 65537 (0x10001)
        X509v3 extensions:
            X509v3 Basic Constraints: 
                CA:FALSE
            X509v3 Subject Key Identifier: 
                B2:58:19:97:52:E7:88:ED:A1:F0:36:AB:36:C7:97:A8:E6:01:50:35
            X509v3 Authority Key Identifier: 
                keyid:1F:DE:C9:41:C3:E4:2A:90:4B:B9:BC:EF:2B:6F:C8:B0:B5:C2:FC:CE
                DirName:/CN=team355-net
                serial:04:48:6B:AB:0A:55:65:CF:BE:98:77:67:6D:37:4D:4A:57:BB:F3:3F

            X509v3 Extended Key Usage: 
                TLS Web Server Authentication
            X509v3 Key Usage: 
                Digital Signature, Key Encipherment
            X509v3 Subject Alternative Name: 
                DNS:team355-server
    Signature Algorithm: sha256WithRSAEncryption
         30:5f:6a:df:e0:a3:7d:01:c1:2c:2b:1b:c9:5f:ac:62:23:50:
         2d:a0:9a:67:f0:08:6e:77:e0:27:1c:41:dd:17:76:e6:60:ae:
         fa:59:21:ab:84:11:dd:2d:9d:53:de:26:56:de:9a:c8:65:86:
         44:5a:0d:f7:f3:46:0d:2b:52:f1:68:20:ef:4c:13:81:b2:1b:
         23:96:fe:bf:c6:0d:e6:04:10:08:0d:fd:3b:c7:43:68:73:1f:
         20:ef:ca:f0:3a:b9:66:e4:23:54:a7:a9:83:89:6c:2a:d5:1c:
         88:03:b8:0a:f5:38:3c:55:69:fa:35:bb:cd:73:40:13:99:d0:
         56:43:c5:29:e8:81:d6:0a:6d:86:2d:ff:fc:17:88:0d:3e:6f:
         67:1e:92:b2:41:4b:61:0e:8d:66:a2:53:dd:9b:20:5a:29:a2:
         73:8c:d9:e1:78:19:74:a8:bd:f9:f4:99:be:c5:18:6a:b6:8b:
         e4:6b:0e:c9:ae:28:c2:a8:23:4a:ee:08:3d:f0:2c:d6:9a:4d:
         db:61:4e:53:8d:31:f7:58:d2:75:c0:c3:61:67:19:11:c1:22:
         d6:f8:e7:ab:6a:d6:0e:86:de:c6:f6:ce:9b:b0:e0:db:24:21:
         a7:58:44:f7:82:c1:0d:c9:85:16:c8:43:f1:e3:1e:d9:93:0e:
         5b:b3:0f:b6
-----BEGIN CERTIFICATE-----
MIIDdzCCAl+gAwIBAgIQVIorwdHQdQy4C4YTNGkpmTANBgkqhkiG9w0BAQsFADAW
MRQwEgYDVQQDDAt0ZWFtMzU1LW5ldDAeFw0yMjA1MTgyMDM4MzNaFw0yNTA1MDIy
MDM4MzNaMBkxFzAVBgNVBAMMDnRlYW0zNTUtc2VydmVyMIIBIjANBgkqhkiG9w0B
AQEFAAOCAQ8AMIIBCgKCAQEAs3BLoDjnHWRNU1Rd12X2oVJ0O1SFIlDKgYs1qgo1
b13+aiMZ4nxQJjbTX0dcVVvcsVPrpHZRbTibzPRTXvheD9yMoQp2ka5XZVeKN+FE
PxsAOX5P9Om0F0W6x38iWGG2+a06kJ+eDf/L9ib9+8R+X/ysbG4v1LdnwmdbZ460
m09qWsJtpCT8qfXQpV+pfYHcCuF63+W1RmP0Juwvd/O6fVVQ5lLS9rahuGz+6nAI
pKxK4OvDVLStsNX1w6g3+hzljQmu6bMcZm96yu9xTXrRXMvrdCIT0VyrHj7jrar8
ty+nL7KDzLlbhXOv5BuXLdQyFbPdXQiYABiIWnsu01tHDwIDAQABo4G9MIG6MAkG
A1UdEwQCMAAwHQYDVR0OBBYEFLJYGZdS54jtofA2qzbHl6jmAVA1MFEGA1UdIwRK
MEiAFB/eyUHD5CqQS7m87ytvyLC1wvzOoRqkGDAWMRQwEgYDVQQDDAt0ZWFtMzU1
LW5ldIIUBEhrqwpVZc++mHdnbTdNSle78z8wEwYDVR0lBAwwCgYIKwYBBQUHAwEw
CwYDVR0PBAQDAgWgMBkGA1UdEQQSMBCCDnRlYW0zNTUtc2VydmVyMA0GCSqGSIb3
DQEBCwUAA4IBAQAwX2rf4KN9AcEsKxvJX6xiI1AtoJpn8Ahud+AnHEHdF3bmYK76
WSGrhBHdLZ1T3iZW3prIZYZEWg3380YNK1LxaCDvTBOBshsjlv6/xg3mBBAIDf07
x0Nocx8g78rwOrlm5CNUp6mDiWwq1RyIA7gK9Tg8VWn6NbvNc0ATmdBWQ8Up6IHW
Cm2GLf/8F4gNPm9nHpKyQUthDo1molPdmyBaKaJzjNnheBl0qL359Jm+xRhqtovk
aw7JrijCqCNK7gg98CzWmk3bYU5TjTH3WNJ1wMNhZxkRwSLW+OeratYOht7G9s6b
sODbJCGnWET3gsENyYUWyEPx4x7Zkw5bsw+2
-----END CERTIFICATE-----
