Certificate:
    Data:
        Version: 3 (0x2)
        Serial Number:
            c9:2f:6f:ac:74:8f:34:6d:a9:be:31:fb:d7:2a:fd:b0
        Signature Algorithm: sha256WithRSAEncryption
        Issuer: CN=team440-net
        Validity
            Not Before: May 18 21:11:26 2022 GMT
            Not After : May  2 21:11:26 2025 GMT
        Subject: CN=team440-server
        Subject Public Key Info:
            Public Key Algorithm: rsaEncryption
                RSA Public-Key: (2048 bit)
                Modulus:
                    00:ba:ab:17:74:8e:f5:f5:a7:7a:fc:c6:67:d5:9c:
                    28:b4:a1:e2:87:22:14:aa:cd:a5:52:a4:a6:f9:1d:
                    ec:cc:4d:2d:eb:3e:2b:65:2b:de:c3:28:b0:e9:1d:
                    ea:2e:fc:3d:d8:d8:3a:c3:0e:5b:e6:6b:c5:12:bb:
                    35:27:59:cd:7d:f9:9f:df:13:54:f5:d9:15:5a:55:
                    7b:2c:80:29:2a:3c:fa:83:0a:9a:27:6b:95:a2:42:
                    aa:69:03:a9:f9:3b:97:7d:21:b5:1f:be:8a:0b:4b:
                    77:e0:e0:7e:ab:14:b0:92:90:da:8f:50:4a:3d:ec:
                    6f:fd:89:0b:4e:18:16:e3:76:1b:4a:2f:59:16:e5:
                    1a:67:95:b8:19:0a:f7:ab:d9:40:43:21:b7:56:59:
                    c7:cb:fc:ef:ca:9a:8b:c5:63:ea:e3:79:1c:5b:5b:
                    b2:af:54:8e:fd:cc:b7:e6:f5:8f:e1:7f:9d:c7:ba:
                    ca:fb:7e:13:f1:9f:91:19:df:35:07:6f:af:04:8f:
                    e1:00:f2:c5:00:3f:19:9e:7b:8c:b8:b0:87:66:70:
                    84:1f:af:f1:7a:c8:2d:4f:08:49:35:36:07:4a:b2:
                    c3:d5:60:52:4b:d9:ce:24:d3:95:56:bd:51:29:bf:
                    ab:f8:0d:cd:91:cd:54:1e:fb:d9:65:fe:d0:ce:1d:
                    52:71
                Exponent: 65537 (0x10001)
        X509v3 extensions:
            X509v3 Basic Constraints: 
                CA:FALSE
            X509v3 Subject Key Identifier: 
                A4:A7:28:63:4F:24:F0:39:27:7A:CC:37:5E:3F:F6:94:4C:32:23:E2
            X509v3 Authority Key Identifier: 
                keyid:0A:FA:1B:30:40:0D:FA:59:65:EF:8C:35:CD:F0:85:F8:E3:EB:EF:B9
                DirName:/CN=team440-net
                serial:17:D0:3C:4D:1D:38:04:13:CC:D4:CB:A6:02:71:27:DF:A6:4B:89:91

            X509v3 Extended Key Usage: 
                TLS Web Server Authentication
            X509v3 Key Usage: 
                Digital Signature, Key Encipherment
            X509v3 Subject Alternative Name: 
                DNS:team440-server
    Signature Algorithm: sha256WithRSAEncryption
         11:2b:54:32:ac:9e:7f:06:2b:fa:f4:04:93:97:dd:cb:75:52:
         70:dc:c3:8d:fb:7a:e2:60:a1:0b:33:83:5f:66:f0:7f:56:9d:
         cf:83:74:00:9c:60:b8:3a:86:36:1c:b4:28:54:92:3e:18:fc:
         4e:14:67:cf:b6:55:a5:81:5a:3b:ef:b6:f7:df:3e:b8:8a:b7:
         37:36:76:68:db:bd:49:67:cc:aa:66:df:ce:48:83:0e:39:e2:
         42:f2:ba:13:a3:37:74:75:2a:a3:0a:7f:25:56:c1:62:94:fe:
         dd:25:8e:4d:eb:e8:44:28:05:98:83:0b:e0:14:74:2b:77:d3:
         97:cf:dc:63:6a:82:70:c1:f0:41:68:ff:d9:91:21:5f:ef:58:
         66:39:e5:89:de:66:2d:f1:22:33:ec:eb:89:12:ff:a5:23:d8:
         5f:7a:d4:7e:f7:e6:c1:60:bd:c9:ce:b3:de:7e:a6:d5:03:21:
         a6:a1:b6:17:26:2b:32:f2:83:0e:45:f3:b8:68:70:8e:ca:b4:
         13:de:96:7a:11:9f:f0:8b:c1:89:7c:7a:d4:46:22:60:36:42:
         d2:4f:71:b8:c2:92:55:b3:02:80:ab:3a:59:d5:b2:75:f5:a2:
         7e:23:56:c6:c5:44:a6:41:a5:b3:cc:af:5f:a9:e5:3d:46:40:
         a9:30:2e:67
-----BEGIN CERTIFICATE-----
MIIDeDCCAmCgAwIBAgIRAMkvb6x0jzRtqb4x+9cq/bAwDQYJKoZIhvcNAQELBQAw
FjEUMBIGA1UEAwwLdGVhbTQ0MC1uZXQwHhcNMjIwNTE4MjExMTI2WhcNMjUwNTAy
MjExMTI2WjAZMRcwFQYDVQQDDA50ZWFtNDQwLXNlcnZlcjCCASIwDQYJKoZIhvcN
AQEBBQADggEPADCCAQoCggEBALqrF3SO9fWnevzGZ9WcKLSh4ociFKrNpVKkpvkd
7MxNLes+K2Ur3sMosOkd6i78PdjYOsMOW+ZrxRK7NSdZzX35n98TVPXZFVpVeyyA
KSo8+oMKmidrlaJCqmkDqfk7l30htR++igtLd+DgfqsUsJKQ2o9QSj3sb/2JC04Y
FuN2G0ovWRblGmeVuBkK96vZQEMht1ZZx8v878qai8Vj6uN5HFtbsq9Ujv3Mt+b1
j+F/nce6yvt+E/GfkRnfNQdvrwSP4QDyxQA/GZ57jLiwh2ZwhB+v8XrILU8ISTU2
B0qyw9VgUkvZziTTlVa9USm/q/gNzZHNVB772WX+0M4dUnECAwEAAaOBvTCBujAJ
BgNVHRMEAjAAMB0GA1UdDgQWBBSkpyhjTyTwOSd6zDdeP/aUTDIj4jBRBgNVHSME
SjBIgBQK+hswQA36WWXvjDXN8IX44+vvuaEapBgwFjEUMBIGA1UEAwwLdGVhbTQ0
MC1uZXSCFBfQPE0dOAQTzNTLpgJxJ9+mS4mRMBMGA1UdJQQMMAoGCCsGAQUFBwMB
MAsGA1UdDwQEAwIFoDAZBgNVHREEEjAQgg50ZWFtNDQwLXNlcnZlcjANBgkqhkiG
9w0BAQsFAAOCAQEAEStUMqyefwYr+vQEk5fdy3VScNzDjft64mChCzODX2bwf1ad
z4N0AJxguDqGNhy0KFSSPhj8ThRnz7ZVpYFaO++2998+uIq3NzZ2aNu9SWfMqmbf
zkiDDjniQvK6E6M3dHUqowp/JVbBYpT+3SWOTevoRCgFmIML4BR0K3fTl8/cY2qC
cMHwQWj/2ZEhX+9YZjnlid5mLfEiM+zriRL/pSPYX3rUfvfmwWC9yc6z3n6m1QMh
pqG2FyYrMvKDDkXzuGhwjsq0E96WehGf8IvBiXx61EYiYDZC0k9xuMKSVbMCgKs6
WdWydfWifiNWxsVEpkGls8yvX6nlPUZAqTAuZw==
-----END CERTIFICATE-----
