Certificate:
    Data:
        Version: 3 (0x2)
        Serial Number:
            16:61:1f:c0:79:0a:fc:40:64:44:97:a5:51:cc:c2:de
        Signature Algorithm: sha256WithRSAEncryption
        Issuer: CN=team760-net
        Validity
            Not Before: May 19 00:11:48 2022 GMT
            Not After : May  3 00:11:48 2025 GMT
        Subject: CN=team760-client
        Subject Public Key Info:
            Public Key Algorithm: rsaEncryption
                RSA Public-Key: (2048 bit)
                Modulus:
                    00:af:48:f9:72:4d:05:38:6d:35:b3:a1:0f:84:67:
                    ea:89:42:bc:b3:02:99:94:80:c8:0c:66:86:73:0a:
                    30:34:17:38:07:9a:1b:69:7b:ec:ad:e9:a9:5d:b1:
                    16:db:b1:97:85:9c:3b:07:d6:25:da:13:87:47:7b:
                    46:93:15:61:4e:df:25:aa:1b:4b:cb:b7:76:d3:6e:
                    91:7c:52:4a:24:e3:8b:87:6a:40:31:4f:dd:42:e9:
                    ba:5b:75:85:d0:c8:8a:b6:fe:a6:b0:61:0b:00:67:
                    be:26:d4:40:24:a1:dd:4e:d7:3b:f7:3f:c4:fa:20:
                    b6:38:1f:79:97:ec:7c:31:97:9d:d2:0e:0b:74:ff:
                    30:6f:8b:bb:93:dd:c1:03:b6:e7:eb:f0:cb:55:a5:
                    9d:21:1c:02:74:18:44:f9:3a:3f:c6:37:fa:8d:85:
                    2d:f0:69:9e:48:95:e2:d2:00:56:dc:84:bb:cd:e9:
                    31:c6:3c:7b:69:df:a1:5a:3f:59:9d:02:8c:58:46:
                    6d:6e:cc:35:7e:46:3b:2c:9c:f5:b5:15:0d:c7:9c:
                    3c:a6:22:6e:c0:f8:d3:cd:f2:a0:6a:19:20:f5:4d:
                    15:96:c3:ad:a1:67:80:9b:a4:da:27:32:04:10:1e:
                    39:5f:1c:5f:e8:7e:37:91:92:21:cf:df:d8:da:12:
                    fc:cf
                Exponent: 65537 (0x10001)
        X509v3 extensions:
            X509v3 Basic Constraints: 
                CA:FALSE
            X509v3 Subject Key Identifier: 
                D4:FB:5B:13:D4:2B:2F:1B:1D:5B:6E:89:C4:7E:0B:2B:CE:38:6A:78
            X509v3 Authority Key Identifier: 
                keyid:15:A6:60:BE:E8:D8:DB:CE:75:87:36:33:DF:5F:2B:BE:E4:B6:50:C7
                DirName:/CN=team760-net
                serial:3E:B1:7B:94:F5:95:0E:97:90:BD:C3:8A:91:1D:31:A2:44:76:F8:BF

            X509v3 Extended Key Usage: 
                TLS Web Client Authentication
            X509v3 Key Usage: 
                Digital Signature
    Signature Algorithm: sha256WithRSAEncryption
         9c:ad:93:0c:87:d6:da:27:ca:b6:c2:54:64:30:3a:61:97:0a:
         6d:f5:14:50:eb:d9:bf:e7:31:a7:66:56:72:3c:a9:d6:af:00:
         aa:1e:3c:ea:9a:d4:7c:85:32:e1:61:55:f0:d2:0f:8d:ee:c3:
         c6:e1:da:63:47:00:a2:39:9d:1a:e1:8d:c1:d5:e1:8d:81:d5:
         ed:6c:59:c7:0e:cd:b9:f8:a3:69:44:a5:38:c5:f9:c4:ca:87:
         89:2e:70:71:b8:c7:2a:4d:51:f8:58:f3:dc:29:f6:ed:f4:c3:
         d5:d1:eb:e4:9a:df:8e:b6:a6:4e:6e:a1:b7:e8:ac:21:0f:2b:
         d7:8e:5d:50:17:66:87:23:83:cf:1a:4e:e4:e7:9c:83:68:c7:
         17:6f:fa:65:9b:f5:40:cb:e9:8f:15:74:e7:79:d9:bd:2b:c1:
         59:0f:b3:8b:48:1e:5d:57:f1:ae:d5:f2:b3:b2:7b:15:5d:cb:
         e0:46:4a:fb:70:91:ce:e0:1b:ff:42:0c:4a:61:99:26:34:af:
         8e:78:69:7e:bb:89:7a:3e:ab:f6:88:e3:21:47:e4:47:b0:21:
         f0:30:4d:fb:a3:72:f8:90:0e:a2:6d:08:f8:1b:32:bd:f4:b0:
         33:d3:a2:23:cb:2f:25:eb:6c:0c:ea:bc:4b:07:70:7c:15:63:
         bb:68:14:e3
-----BEGIN CERTIFICATE-----
MIIDXDCCAkSgAwIBAgIQFmEfwHkK/EBkRJelUczC3jANBgkqhkiG9w0BAQsFADAW
MRQwEgYDVQQDDAt0ZWFtNzYwLW5ldDAeFw0yMjA1MTkwMDExNDhaFw0yNTA1MDMw
MDExNDhaMBkxFzAVBgNVBAMMDnRlYW03NjAtY2xpZW50MIIBIjANBgkqhkiG9w0B
AQEFAAOCAQ8AMIIBCgKCAQEAr0j5ck0FOG01s6EPhGfqiUK8swKZlIDIDGaGcwow
NBc4B5obaXvsrempXbEW27GXhZw7B9Yl2hOHR3tGkxVhTt8lqhtLy7d2026RfFJK
JOOLh2pAMU/dQum6W3WF0MiKtv6msGELAGe+JtRAJKHdTtc79z/E+iC2OB95l+x8
MZed0g4LdP8wb4u7k93BA7bn6/DLVaWdIRwCdBhE+To/xjf6jYUt8GmeSJXi0gBW
3IS7zekxxjx7ad+hWj9ZnQKMWEZtbsw1fkY7LJz1tRUNx5w8piJuwPjTzfKgahkg
9U0VlsOtoWeAm6TaJzIEEB45Xxxf6H43kZIhz9/Y2hL8zwIDAQABo4GiMIGfMAkG
A1UdEwQCMAAwHQYDVR0OBBYEFNT7WxPUKy8bHVtuicR+CyvOOGp4MFEGA1UdIwRK
MEiAFBWmYL7o2NvOdYc2M99fK77ktlDHoRqkGDAWMRQwEgYDVQQDDAt0ZWFtNzYw
LW5ldIIUPrF7lPWVDpeQvcOKkR0xokR2+L8wEwYDVR0lBAwwCgYIKwYBBQUHAwIw
CwYDVR0PBAQDAgeAMA0GCSqGSIb3DQEBCwUAA4IBAQCcrZMMh9baJ8q2wlRkMDph
lwpt9RRQ69m/5zGnZlZyPKnWrwCqHjzqmtR8hTLhYVXw0g+N7sPG4dpjRwCiOZ0a
4Y3B1eGNgdXtbFnHDs25+KNpRKU4xfnEyoeJLnBxuMcqTVH4WPPcKfbt9MPV0evk
mt+OtqZObqG36KwhDyvXjl1QF2aHI4PPGk7k55yDaMcXb/plm/VAy+mPFXTnedm9
K8FZD7OLSB5dV/Gu1fKzsnsVXcvgRkr7cJHO4Bv/QgxKYZkmNK+OeGl+u4l6Pqv2
iOMhR+RHsCHwME37o3L4kA6ibQj4GzK99LAz06Ijyy8l62wM6rxLB3B8FWO7aBTj
-----END CERTIFICATE-----
