Certificate:
    Data:
        Version: 3 (0x2)
        Serial Number:
            8e:61:39:aa:92:e4:2a:24:47:69:6c:55:3c:7b:56:d0
        Signature Algorithm: sha256WithRSAEncryption
        Issuer: CN=team760-net
        Validity
            Not Before: May 19 00:11:49 2022 GMT
            Not After : May  3 00:11:49 2025 GMT
        Subject: CN=team760-server
        Subject Public Key Info:
            Public Key Algorithm: rsaEncryption
                RSA Public-Key: (2048 bit)
                Modulus:
                    00:c6:8f:59:e1:f2:f9:b4:3a:5c:39:b1:fa:89:44:
                    41:10:cb:6f:42:9d:f7:ae:94:e8:7e:45:98:0e:75:
                    80:41:77:a9:93:8e:9c:74:28:c1:d2:a4:33:42:28:
                    e9:04:a0:7b:b7:50:ca:91:ee:80:3a:16:92:85:36:
                    1c:1d:87:a2:70:2d:01:de:25:42:f3:e9:79:38:3d:
                    a0:cd:a0:95:79:7d:cb:8a:2b:53:01:86:c2:43:7a:
                    de:b2:7a:3d:ba:0a:d9:1d:07:4a:2c:62:e9:57:d6:
                    f3:91:e3:a1:02:ec:e7:2f:e9:5b:9b:3d:10:3a:41:
                    1b:ba:14:4f:1b:e6:d7:a7:5a:e7:ff:64:6d:8b:ca:
                    f8:97:e7:45:07:0e:ee:a4:c5:df:7c:35:a5:7a:84:
                    95:66:a8:94:08:da:eb:2a:45:04:9a:d5:6b:ed:ee:
                    34:a4:19:46:d1:d0:ad:19:88:f2:67:ab:4a:53:4b:
                    8f:cc:84:9c:50:0b:9c:58:b9:68:d2:6e:e3:f9:1f:
                    13:bd:59:f9:37:95:19:64:de:bd:95:39:ff:77:d4:
                    eb:95:42:7c:8e:20:b2:59:a6:b9:ba:ee:93:14:36:
                    f6:c4:45:45:97:8c:67:0d:ca:f4:32:4a:41:e0:99:
                    33:d5:f6:1f:94:ac:4a:1c:5b:7d:dd:0e:4a:53:73:
                    4c:73
                Exponent: 65537 (0x10001)
        X509v3 extensions:
            X509v3 Basic Constraints: 
                CA:FALSE
            X509v3 Subject Key Identifier: 
                A8:8D:A5:5F:8D:EF:21:C4:6A:28:92:66:31:8B:D2:BB:1D:9B:9F:D0
            X509v3 Authority Key Identifier: 
                keyid:15:A6:60:BE:E8:D8:DB:CE:75:87:36:33:DF:5F:2B:BE:E4:B6:50:C7
                DirName:/CN=team760-net
                serial:3E:B1:7B:94:F5:95:0E:97:90:BD:C3:8A:91:1D:31:A2:44:76:F8:BF

            X509v3 Extended Key Usage: 
                TLS Web Server Authentication
            X509v3 Key Usage: 
                Digital Signature, Key Encipherment
            X509v3 Subject Alternative Name: 
                DNS:team760-server
    Signature Algorithm: sha256WithRSAEncryption
         03:62:c4:08:68:7f:12:a7:84:07:bf:e2:2e:18:11:7b:2c:32:
         81:65:68:3b:1f:26:25:49:43:18:66:cb:f7:21:32:fe:4f:d7:
         52:c4:1e:5f:57:32:f3:a8:ea:d5:71:8f:15:3f:c0:bf:d8:3a:
         cd:75:65:9e:65:aa:48:9e:27:0c:23:10:45:6d:9e:05:de:8a:
         77:bf:40:fb:14:8f:08:df:33:45:29:07:89:8d:08:d7:51:03:
         84:e0:1d:98:11:07:b8:7e:c1:25:41:af:82:81:a0:44:7d:29:
         9b:9e:6f:26:82:a9:fe:d3:b7:57:f8:9d:6a:7d:a6:37:27:a9:
         18:72:87:f8:f8:70:0c:9d:01:8b:84:61:83:c7:02:5c:ba:20:
         b3:44:07:bd:5c:c5:2e:2b:be:2a:1b:6f:66:29:58:fa:51:ad:
         25:ec:4d:4e:18:cc:ed:01:29:15:90:06:5e:7a:5f:46:d4:e4:
         85:3c:d8:c8:38:e9:a7:4f:63:37:6e:32:c8:9f:db:8a:c2:9c:
         c9:b0:d8:da:91:39:dc:22:4c:6a:59:5b:cb:69:96:f0:c8:ce:
         a8:7f:c8:43:1a:d9:d9:ce:b0:f7:59:0f:e0:6e:33:a0:71:94:
         60:ea:0e:1b:20:b9:76:b5:38:f5:76:1e:ef:79:18:52:bd:fe:
         44:10:12:61
-----BEGIN CERTIFICATE-----
MIIDeDCCAmCgAwIBAgIRAI5hOaqS5CokR2lsVTx7VtAwDQYJKoZIhvcNAQELBQAw
FjEUMBIGA1UEAwwLdGVhbTc2MC1uZXQwHhcNMjIwNTE5MDAxMTQ5WhcNMjUwNTAz
MDAxMTQ5WjAZMRcwFQYDVQQDDA50ZWFtNzYwLXNlcnZlcjCCASIwDQYJKoZIhvcN
AQEBBQADggEPADCCAQoCggEBAMaPWeHy+bQ6XDmx+olEQRDLb0Kd966U6H5FmA51
gEF3qZOOnHQowdKkM0Io6QSge7dQypHugDoWkoU2HB2HonAtAd4lQvPpeTg9oM2g
lXl9y4orUwGGwkN63rJ6PboK2R0HSixi6VfW85HjoQLs5y/pW5s9EDpBG7oUTxvm
16da5/9kbYvK+JfnRQcO7qTF33w1pXqElWaolAja6ypFBJrVa+3uNKQZRtHQrRmI
8merSlNLj8yEnFALnFi5aNJu4/kfE71Z+TeVGWTevZU5/3fU65VCfI4gslmmubru
kxQ29sRFRZeMZw3K9DJKQeCZM9X2H5SsShxbfd0OSlNzTHMCAwEAAaOBvTCBujAJ
BgNVHRMEAjAAMB0GA1UdDgQWBBSojaVfje8hxGookmYxi9K7HZuf0DBRBgNVHSME
SjBIgBQVpmC+6NjbznWHNjPfXyu+5LZQx6EapBgwFjEUMBIGA1UEAwwLdGVhbTc2
MC1uZXSCFD6xe5T1lQ6XkL3DipEdMaJEdvi/MBMGA1UdJQQMMAoGCCsGAQUFBwMB
MAsGA1UdDwQEAwIFoDAZBgNVHREEEjAQgg50ZWFtNzYwLXNlcnZlcjANBgkqhkiG
9w0BAQsFAAOCAQEAA2LECGh/EqeEB7/iLhgReywygWVoOx8mJUlDGGbL9yEy/k/X
UsQeX1cy86jq1XGPFT/Av9g6zXVlnmWqSJ4nDCMQRW2eBd6Kd79A+xSPCN8zRSkH
iY0I11EDhOAdmBEHuH7BJUGvgoGgRH0pm55vJoKp/tO3V/idan2mNyepGHKH+Phw
DJ0Bi4Rhg8cCXLogs0QHvVzFLiu+KhtvZilY+lGtJexNThjM7QEpFZAGXnpfRtTk
hTzYyDjpp09jN24yyJ/bisKcybDY2pE53CJMallby2mW8MjOqH/IQxrZ2c6w91kP
4G4zoHGUYOoOGyC5drU49XYe73kYUr3+RBASYQ==
-----END CERTIFICATE-----
