Certificate:
    Data:
        Version: 3 (0x2)
        Serial Number:
            ae:45:af:39:b9:25:61:26:65:aa:26:47:dd:d1:9f:76
        Signature Algorithm: sha256WithRSAEncryption
        Issuer: CN=team194-net
        Validity
            Not Before: May 18 18:58:54 2022 GMT
            Not After : May  2 18:58:54 2025 GMT
        Subject: CN=team194-server
        Subject Public Key Info:
            Public Key Algorithm: rsaEncryption
                RSA Public-Key: (2048 bit)
                Modulus:
                    00:c7:47:8b:67:86:2b:eb:44:25:b9:08:be:93:93:
                    d3:47:dd:54:f5:00:52:33:d8:35:c8:58:f8:35:84:
                    e1:bd:1d:ed:d8:26:37:97:b1:df:48:ba:b5:d3:d5:
                    92:82:0e:a5:4d:f5:88:6b:29:20:82:63:eb:b1:63:
                    af:02:22:06:54:1d:30:b6:f5:41:af:64:d2:44:a1:
                    a9:d5:18:86:c5:e7:e9:9f:50:f5:29:76:81:9a:16:
                    22:31:d4:db:36:9c:fc:47:de:07:53:bf:79:7c:da:
                    94:e8:74:0b:a1:be:51:b8:c6:34:36:dd:09:78:a3:
                    e1:f6:3f:2f:86:2f:42:06:34:af:32:c3:7c:67:e7:
                    41:bf:3c:62:63:7c:bb:63:97:cc:b7:6a:17:87:c1:
                    53:9a:ca:99:32:fa:60:6a:9c:f2:c1:d6:c5:65:2b:
                    66:6b:b4:d4:6c:d3:09:9e:6c:14:27:97:29:6c:da:
                    e1:c9:9b:21:82:ec:e7:f9:7e:d5:80:af:83:03:24:
                    77:3e:a8:2f:15:77:42:89:83:56:cb:f7:c4:de:ba:
                    97:d9:1f:ab:56:7e:b6:be:7f:99:17:2a:64:28:33:
                    40:ed:cd:4e:f4:c8:f3:48:82:8d:7e:4e:e0:61:81:
                    01:2f:14:39:66:ea:70:22:aa:13:db:a3:1d:69:ac:
                    2f:23
                Exponent: 65537 (0x10001)
        X509v3 extensions:
            X509v3 Basic Constraints: 
                CA:FALSE
            X509v3 Subject Key Identifier: 
                00:40:25:CB:5B:AC:CD:11:CF:68:4E:D1:53:CF:84:8C:4E:6F:85:83
            X509v3 Authority Key Identifier: 
                keyid:CB:52:4A:C3:95:4D:4D:C6:1E:7D:91:9D:7B:0D:C8:4E:DD:3D:17:E9
                DirName:/CN=team194-net
                serial:49:6B:79:EE:29:85:57:E4:4D:CD:D9:CC:80:7E:1A:1E:CB:7F:B9:9F

            X509v3 Extended Key Usage: 
                TLS Web Server Authentication
            X509v3 Key Usage: 
                Digital Signature, Key Encipherment
            X509v3 Subject Alternative Name: 
                DNS:team194-server
    Signature Algorithm: sha256WithRSAEncryption
         20:91:3f:4e:6a:3a:48:85:bd:db:3f:b6:e6:af:37:c0:90:39:
         28:55:a7:f9:ef:e8:f2:18:01:d3:45:db:87:d9:12:b7:24:8b:
         8f:60:3e:8a:48:d3:1a:58:43:41:e7:47:c5:d6:5b:74:88:ac:
         67:aa:f5:5d:2d:01:c1:4c:39:b6:85:be:5a:7d:c0:f7:5e:3e:
         8e:24:95:6c:4a:90:1f:5f:8d:88:7f:08:85:a6:31:40:e1:49:
         61:e2:2f:f6:c8:4f:21:81:30:eb:5d:4b:18:36:65:74:76:9c:
         f1:08:25:6c:80:3b:46:e9:17:e8:28:c4:e2:8d:97:c5:76:e1:
         d3:e9:0b:42:09:9a:ae:f3:f4:84:5c:22:42:9c:e6:1a:db:4d:
         46:0f:d3:ac:43:fa:f9:c1:10:76:34:00:f3:a4:74:7e:82:b9:
         f2:36:ac:9e:aa:f7:40:17:52:14:04:93:d1:8e:9d:af:1f:a6:
         af:32:92:a9:c2:ed:49:76:02:38:6a:48:98:99:c7:d8:7e:d5:
         7f:07:9f:90:db:8b:ad:b5:d9:bc:97:a6:81:5a:df:0a:d1:be:
         71:4d:90:fd:f5:d5:42:de:19:35:74:3f:ac:94:eb:9b:e6:5c:
         fe:80:d6:0c:44:71:ad:70:84:ab:47:9e:db:c1:8c:53:60:5e:
         c1:8c:1d:be
-----BEGIN CERTIFICATE-----
MIIDeDCCAmCgAwIBAgIRAK5Frzm5JWEmZaomR93Rn3YwDQYJKoZIhvcNAQELBQAw
FjEUMBIGA1UEAwwLdGVhbTE5NC1uZXQwHhcNMjIwNTE4MTg1ODU0WhcNMjUwNTAy
MTg1ODU0WjAZMRcwFQYDVQQDDA50ZWFtMTk0LXNlcnZlcjCCASIwDQYJKoZIhvcN
AQEBBQADggEPADCCAQoCggEBAMdHi2eGK+tEJbkIvpOT00fdVPUAUjPYNchY+DWE
4b0d7dgmN5ex30i6tdPVkoIOpU31iGspIIJj67FjrwIiBlQdMLb1Qa9k0kShqdUY
hsXn6Z9Q9Sl2gZoWIjHU2zac/EfeB1O/eXzalOh0C6G+UbjGNDbdCXij4fY/L4Yv
QgY0rzLDfGfnQb88YmN8u2OXzLdqF4fBU5rKmTL6YGqc8sHWxWUrZmu01GzTCZ5s
FCeXKWza4cmbIYLs5/l+1YCvgwMkdz6oLxV3QomDVsv3xN66l9kfq1Z+tr5/mRcq
ZCgzQO3NTvTI80iCjX5O4GGBAS8UOWbqcCKqE9ujHWmsLyMCAwEAAaOBvTCBujAJ
BgNVHRMEAjAAMB0GA1UdDgQWBBQAQCXLW6zNEc9oTtFTz4SMTm+FgzBRBgNVHSME
SjBIgBTLUkrDlU1Nxh59kZ17DchO3T0X6aEapBgwFjEUMBIGA1UEAwwLdGVhbTE5
NC1uZXSCFElree4phVfkTc3ZzIB+Gh7Lf7mfMBMGA1UdJQQMMAoGCCsGAQUFBwMB
MAsGA1UdDwQEAwIFoDAZBgNVHREEEjAQgg50ZWFtMTk0LXNlcnZlcjANBgkqhkiG
9w0BAQsFAAOCAQEAIJE/Tmo6SIW92z+25q83wJA5KFWn+e/o8hgB00Xbh9kStySL
j2A+ikjTGlhDQedHxdZbdIisZ6r1XS0BwUw5toW+Wn3A914+jiSVbEqQH1+NiH8I
haYxQOFJYeIv9shPIYEw611LGDZldHac8QglbIA7RukX6CjE4o2XxXbh0+kLQgma
rvP0hFwiQpzmGttNRg/TrEP6+cEQdjQA86R0foK58jasnqr3QBdSFAST0Y6drx+m
rzKSqcLtSXYCOGpImJnH2H7VfwefkNuLrbXZvJemgVrfCtG+cU2Q/fXVQt4ZNXQ/
rJTrm+Zc/oDWDERxrXCEq0ee28GMU2BewYwdvg==
-----END CERTIFICATE-----
