Certificate:
    Data:
        Version: 3 (0x2)
        Serial Number:
            34:c6:aa:54:cf:2c:86:f8:92:2e:ed:0a:3c:53:44:b1
        Signature Algorithm: sha256WithRSAEncryption
        Issuer: CN=team22-net
        Validity
            Not Before: May 18 14:08:57 2022 GMT
            Not After : May  2 14:08:57 2025 GMT
        Subject: CN=team22-server
        Subject Public Key Info:
            Public Key Algorithm: rsaEncryption
                RSA Public-Key: (2048 bit)
                Modulus:
                    00:e2:d4:fc:59:54:2b:63:1a:6b:bb:6f:a9:5e:a8:
                    79:79:7c:e9:57:dc:e6:04:bc:06:25:fb:99:c1:da:
                    df:cb:c4:5f:02:a1:f8:66:df:47:8b:91:10:a4:bf:
                    29:90:d2:29:7a:53:bf:5a:cd:1b:50:ad:2b:cb:1f:
                    3e:bb:20:34:1b:f3:4e:b0:26:ed:46:a5:bf:09:03:
                    68:4c:9b:96:0b:bd:ca:08:ff:94:b8:e7:db:2d:f4:
                    98:0d:b5:88:e4:e8:d1:fd:45:96:f9:47:30:15:a4:
                    27:66:ca:4b:46:9e:0f:4a:1b:2d:cb:3a:bb:2f:6e:
                    63:f4:86:ea:57:7a:64:78:fe:64:8e:34:8f:08:2b:
                    33:f8:10:56:24:e6:32:c1:d2:59:1f:0b:77:1b:9a:
                    55:13:a9:d3:e1:dd:f1:84:f2:2b:00:d7:e8:5a:7e:
                    04:33:78:4a:c1:08:00:62:01:dc:6a:96:67:46:f7:
                    7b:df:1c:63:17:d4:e2:cf:b4:87:2b:8b:e3:8a:e4:
                    49:e7:63:af:79:91:1c:6d:e1:c3:bb:92:6e:b6:23:
                    e2:4a:de:b7:9b:96:2f:3d:b3:4b:9a:44:e5:e8:c5:
                    29:dc:c0:8e:d1:08:57:4f:10:c5:b6:3b:ce:31:0f:
                    7c:db:65:c8:c9:25:39:cd:84:fa:35:4c:e7:7d:ed:
                    6c:15
                Exponent: 65537 (0x10001)
        X509v3 extensions:
            X509v3 Basic Constraints: 
                CA:FALSE
            X509v3 Subject Key Identifier: 
                2F:EF:32:F2:76:C8:B5:84:35:63:0F:CB:2A:25:37:D3:33:31:A3:12
            X509v3 Authority Key Identifier: 
                keyid:AA:76:3B:15:39:33:75:22:28:E6:EA:FF:5C:7E:E1:FE:44:97:A7:09
                DirName:/CN=team22-net
                serial:6C:44:76:CC:E4:CF:AE:6A:3E:94:E6:A5:BA:65:BF:9B:AE:15:0B:C3

            X509v3 Extended Key Usage: 
                TLS Web Server Authentication
            X509v3 Key Usage: 
                Digital Signature, Key Encipherment
            X509v3 Subject Alternative Name: 
                DNS:team22-server
    Signature Algorithm: sha256WithRSAEncryption
         0e:d6:ef:04:3a:f5:1b:f1:a6:80:fa:3c:90:d4:17:e7:b8:e0:
         2a:55:d0:c4:de:53:ec:ab:ac:b6:64:fb:88:70:b4:58:bd:9e:
         e8:bb:0b:84:a9:35:be:64:06:e9:34:d9:b3:47:c0:d3:b8:d1:
         da:b5:fc:8d:91:1b:92:f1:40:35:93:23:21:e0:de:18:54:37:
         fa:56:e8:5d:dc:a6:4e:05:cf:f5:29:03:12:2a:f9:62:86:87:
         cc:3b:6d:6a:34:41:37:da:32:94:cd:a0:dc:5a:f9:27:d7:01:
         6d:82:1a:1d:86:c3:d8:ca:a9:0f:b2:3f:05:78:02:69:45:b5:
         a9:ac:1e:1e:b4:eb:4b:cb:d8:1c:1e:31:67:e6:8e:1f:fb:90:
         91:d4:12:e7:51:cc:ba:52:8b:f8:63:91:b7:15:79:66:64:1b:
         72:24:28:23:ab:a0:f2:93:a0:18:c8:9a:ac:7c:75:5f:c2:90:
         32:c1:fd:8c:8d:c8:59:08:df:48:d3:84:38:c8:93:dd:e2:1f:
         bd:7f:2f:c2:f3:bd:7c:48:73:4c:bb:f6:43:d4:ac:28:2b:77:
         79:d4:20:69:02:43:f4:e2:4c:30:ad:4c:ae:67:c2:78:cc:07:
         33:0d:c4:43:62:07:9f:51:4e:de:19:a9:16:2d:57:c8:ca:ee:
         12:4f:c0:c2
-----BEGIN CERTIFICATE-----
MIIDczCCAlugAwIBAgIQNMaqVM8shviSLu0KPFNEsTANBgkqhkiG9w0BAQsFADAV
MRMwEQYDVQQDDAp0ZWFtMjItbmV0MB4XDTIyMDUxODE0MDg1N1oXDTI1MDUwMjE0
MDg1N1owGDEWMBQGA1UEAwwNdGVhbTIyLXNlcnZlcjCCASIwDQYJKoZIhvcNAQEB
BQADggEPADCCAQoCggEBAOLU/FlUK2Maa7tvqV6oeXl86Vfc5gS8BiX7mcHa38vE
XwKh+GbfR4uREKS/KZDSKXpTv1rNG1CtK8sfPrsgNBvzTrAm7UalvwkDaEyblgu9
ygj/lLjn2y30mA21iOTo0f1FlvlHMBWkJ2bKS0aeD0obLcs6uy9uY/SG6ld6ZHj+
ZI40jwgrM/gQViTmMsHSWR8LdxuaVROp0+Hd8YTyKwDX6Fp+BDN4SsEIAGIB3GqW
Z0b3e98cYxfU4s+0hyuL44rkSedjr3mRHG3hw7uSbrYj4kret5uWLz2zS5pE5ejF
KdzAjtEIV08QxbY7zjEPfNtlyMklOc2E+jVM533tbBUCAwEAAaOBuzCBuDAJBgNV
HRMEAjAAMB0GA1UdDgQWBBQv7zLydsi1hDVjD8sqJTfTMzGjEjBQBgNVHSMESTBH
gBSqdjsVOTN1Iijm6v9cfuH+RJenCaEZpBcwFTETMBEGA1UEAwwKdGVhbTIyLW5l
dIIUbER2zOTPrmo+lOalumW/m64VC8MwEwYDVR0lBAwwCgYIKwYBBQUHAwEwCwYD
VR0PBAQDAgWgMBgGA1UdEQQRMA+CDXRlYW0yMi1zZXJ2ZXIwDQYJKoZIhvcNAQEL
BQADggEBAA7W7wQ69RvxpoD6PJDUF+e44CpV0MTeU+yrrLZk+4hwtFi9nui7C4Sp
Nb5kBuk02bNHwNO40dq1/I2RG5LxQDWTIyHg3hhUN/pW6F3cpk4Fz/UpAxIq+WKG
h8w7bWo0QTfaMpTNoNxa+SfXAW2CGh2Gw9jKqQ+yPwV4AmlFtamsHh6060vL2Bwe
MWfmjh/7kJHUEudRzLpSi/hjkbcVeWZkG3IkKCOroPKToBjImqx8dV/CkDLB/YyN
yFkI30jThDjIk93iH71/L8LzvXxIc0y79kPUrCgrd3nUIGkCQ/TiTDCtTK5nwnjM
BzMNxENiB59RTt4ZqRYtV8jK7hJPwMI=
-----END CERTIFICATE-----
