Certificate:
    Data:
        Version: 3 (0x2)
        Serial Number:
            75:54:89:d7:9f:4b:98:fc:c2:9a:fb:e6:88:a8:d4:35
        Signature Algorithm: sha256WithRSAEncryption
        Issuer: CN=team122-net
        Validity
            Not Before: May 18 15:04:45 2022 GMT
            Not After : May  2 15:04:45 2025 GMT
        Subject: CN=team122-server
        Subject Public Key Info:
            Public Key Algorithm: rsaEncryption
                RSA Public-Key: (2048 bit)
                Modulus:
                    00:d7:e8:d3:2d:f5:78:b5:55:7b:78:a1:fb:90:86:
                    24:eb:8d:26:51:16:6d:53:94:9d:a4:6c:b0:88:a0:
                    71:38:96:94:e4:69:99:a3:06:5e:c4:62:63:de:51:
                    32:4b:27:9c:55:66:24:5b:67:03:cb:7b:d7:ad:78:
                    3f:a1:88:94:af:4b:a9:11:fd:50:93:ef:82:11:69:
                    fd:9c:ce:67:fd:63:20:35:bf:48:e5:32:01:b0:92:
                    4d:87:ce:2b:09:16:a1:64:8b:ab:3a:1c:e8:5b:c2:
                    bb:b0:3d:d3:f9:b1:22:20:6a:78:a8:0a:2f:08:5e:
                    b2:6c:1a:ec:4c:74:bb:96:07:07:d7:3d:b3:15:98:
                    2f:76:bb:7b:44:7e:48:cb:98:5f:46:83:c0:7e:6e:
                    42:08:e6:f7:d0:d3:94:c3:d0:64:b0:d6:4b:6f:82:
                    d8:66:91:7a:e3:18:af:db:64:62:96:4d:38:61:76:
                    36:36:51:09:b2:96:53:4e:94:f0:d8:6a:7a:93:c0:
                    02:e8:a3:a5:20:af:ec:fa:2a:c5:c9:08:3c:72:43:
                    4f:ed:16:9b:73:20:5c:c3:05:98:7a:3b:01:c1:ae:
                    a0:c8:b2:fa:10:c3:e5:7a:a6:04:2c:8a:ab:21:f1:
                    6c:21:a5:27:7a:5f:c4:14:a9:4a:92:71:b0:96:fe:
                    e0:67
                Exponent: 65537 (0x10001)
        X509v3 extensions:
            X509v3 Basic Constraints: 
                CA:FALSE
            X509v3 Subject Key Identifier: 
                75:79:0C:3B:BD:52:31:43:7F:50:BE:F7:A4:E2:93:2A:05:28:01:56
            X509v3 Authority Key Identifier: 
                keyid:FE:B8:95:B7:22:40:6E:AE:98:01:A2:DD:A2:C3:C8:31:3F:40:0E:0A
                DirName:/CN=team122-net
                serial:4B:D8:4F:4A:07:99:C2:84:0B:11:68:B6:A3:E2:4B:36:AC:2E:C9:D3

            X509v3 Extended Key Usage: 
                TLS Web Server Authentication
            X509v3 Key Usage: 
                Digital Signature, Key Encipherment
            X509v3 Subject Alternative Name: 
                DNS:team122-server
    Signature Algorithm: sha256WithRSAEncryption
         5a:a0:13:50:18:ed:e0:41:07:28:17:31:cd:ca:95:a9:a3:cc:
         71:6c:51:fd:33:31:db:83:5d:a0:d6:40:bb:3e:11:9f:52:b2:
         ea:2a:59:76:36:be:b8:7c:26:69:8b:87:d2:d5:9c:b6:52:56:
         9f:97:3a:63:ba:44:65:6b:a2:12:6d:53:49:8a:6a:ba:e0:34:
         b8:76:fc:64:54:eb:29:f3:0d:6a:3b:a4:4e:4f:32:ee:1c:7b:
         d3:0e:4c:2b:30:0d:84:d6:14:0e:b1:2c:19:f2:5d:0e:be:00:
         03:ce:82:47:29:53:b7:02:9b:36:e5:93:21:30:37:9f:c4:18:
         15:d5:12:da:93:38:b2:cf:a0:03:18:91:d6:4f:17:a8:5a:05:
         d8:fc:bf:de:3a:42:d6:a6:83:be:0d:3d:23:53:c2:65:6d:37:
         b1:71:77:34:80:09:6d:ac:0f:51:59:97:ea:72:1a:cb:ad:0d:
         e6:78:e2:bb:7b:14:95:0c:23:b8:12:67:08:31:88:41:32:a7:
         c6:a3:d2:53:ab:c1:09:b6:20:4d:e2:c5:2b:bb:51:b4:1a:d3:
         de:ac:3e:4f:70:dc:21:2a:58:c5:81:ff:eb:38:58:fe:7e:85:
         be:94:c9:80:6c:91:5d:b3:aa:48:66:94:90:ee:e4:12:73:ce:
         f9:e2:c8:3f
-----BEGIN CERTIFICATE-----
MIIDdzCCAl+gAwIBAgIQdVSJ159LmPzCmvvmiKjUNTANBgkqhkiG9w0BAQsFADAW
MRQwEgYDVQQDDAt0ZWFtMTIyLW5ldDAeFw0yMjA1MTgxNTA0NDVaFw0yNTA1MDIx
NTA0NDVaMBkxFzAVBgNVBAMMDnRlYW0xMjItc2VydmVyMIIBIjANBgkqhkiG9w0B
AQEFAAOCAQ8AMIIBCgKCAQEA1+jTLfV4tVV7eKH7kIYk640mURZtU5SdpGywiKBx
OJaU5GmZowZexGJj3lEySyecVWYkW2cDy3vXrXg/oYiUr0upEf1Qk++CEWn9nM5n
/WMgNb9I5TIBsJJNh84rCRahZIurOhzoW8K7sD3T+bEiIGp4qAovCF6ybBrsTHS7
lgcH1z2zFZgvdrt7RH5Iy5hfRoPAfm5CCOb30NOUw9BksNZLb4LYZpF64xiv22Ri
lk04YXY2NlEJspZTTpTw2Gp6k8AC6KOlIK/s+irFyQg8ckNP7RabcyBcwwWYejsB
wa6gyLL6EMPleqYELIqrIfFsIaUnel/EFKlKknGwlv7gZwIDAQABo4G9MIG6MAkG
A1UdEwQCMAAwHQYDVR0OBBYEFHV5DDu9UjFDf1C+96TikyoFKAFWMFEGA1UdIwRK
MEiAFP64lbciQG6umAGi3aLDyDE/QA4KoRqkGDAWMRQwEgYDVQQDDAt0ZWFtMTIy
LW5ldIIUS9hPSgeZwoQLEWi2o+JLNqwuydMwEwYDVR0lBAwwCgYIKwYBBQUHAwEw
CwYDVR0PBAQDAgWgMBkGA1UdEQQSMBCCDnRlYW0xMjItc2VydmVyMA0GCSqGSIb3
DQEBCwUAA4IBAQBaoBNQGO3gQQcoFzHNypWpo8xxbFH9MzHbg12g1kC7PhGfUrLq
Kll2Nr64fCZpi4fS1Zy2UlaflzpjukRla6ISbVNJimq64DS4dvxkVOsp8w1qO6RO
TzLuHHvTDkwrMA2E1hQOsSwZ8l0OvgADzoJHKVO3Aps25ZMhMDefxBgV1RLakziy
z6ADGJHWTxeoWgXY/L/eOkLWpoO+DT0jU8JlbTexcXc0gAltrA9RWZfqchrLrQ3m
eOK7exSVDCO4EmcIMYhBMqfGo9JTq8EJtiBN4sUru1G0GtPerD5PcNwhKljFgf/r
OFj+foW+lMmAbJFds6pIZpSQ7uQSc8754sg/
-----END CERTIFICATE-----
