Certificate:
    Data:
        Version: 3 (0x2)
        Serial Number:
            7a:19:a0:95:87:c8:e3:b9:6b:d9:b3:7e:b1:0e:d4:5b
        Signature Algorithm: sha256WithRSAEncryption
        Issuer: CN=team724-net
        Validity
            Not Before: May 18 23:58:19 2022 GMT
            Not After : May  2 23:58:19 2025 GMT
        Subject: CN=team724-server
        Subject Public Key Info:
            Public Key Algorithm: rsaEncryption
                RSA Public-Key: (2048 bit)
                Modulus:
                    00:e9:9e:7c:66:44:63:ea:48:85:35:a6:42:f9:03:
                    bc:69:46:fe:29:e0:b1:c2:51:ad:4a:f2:54:e6:b8:
                    9f:ca:2a:a1:06:e0:10:50:b8:42:18:6d:73:02:cd:
                    8f:e4:5b:48:e8:38:4b:94:a4:42:a9:2e:c4:99:14:
                    a5:2f:b8:c7:9e:72:23:45:c4:b0:93:21:c3:21:f7:
                    d9:f2:1a:bb:ba:7e:45:9e:00:3a:49:ca:2e:44:ea:
                    a1:f0:1c:29:f1:43:86:49:f0:27:41:fb:1a:fb:7b:
                    5a:7e:9e:11:e6:4d:31:d9:a5:58:a4:ff:81:2a:22:
                    66:87:27:11:1a:cb:a1:75:a1:ac:07:36:76:69:5d:
                    a3:9a:0d:83:90:68:a9:7c:b2:c3:81:00:2b:ac:4c:
                    90:aa:b9:8b:de:39:16:8e:b8:81:eb:60:35:d5:1c:
                    de:f5:b9:3b:08:9c:db:c8:52:2b:1f:2f:39:f0:d0:
                    24:92:65:f7:7c:4c:7d:f5:1c:08:54:76:57:ac:fd:
                    ac:32:5e:d5:e4:8b:09:1f:f0:60:aa:c9:bd:25:0d:
                    8e:8b:e2:b9:e4:58:bf:f6:29:5f:5d:8e:b5:5f:0a:
                    17:9d:75:14:00:0b:12:b8:ce:26:8e:c4:5d:fa:ee:
                    f2:04:10:56:fb:6a:04:c7:bd:80:c3:f2:8b:0b:0f:
                    9c:9d
                Exponent: 65537 (0x10001)
        X509v3 extensions:
            X509v3 Basic Constraints: 
                CA:FALSE
            X509v3 Subject Key Identifier: 
                D5:7D:27:BF:61:DC:FB:36:2A:1B:20:1B:26:96:8C:8F:3A:CF:7C:27
            X509v3 Authority Key Identifier: 
                keyid:09:3E:4F:E1:C8:64:92:99:D8:CD:18:66:9E:0C:05:98:07:A3:11:53
                DirName:/CN=team724-net
                serial:20:F6:3C:65:23:48:AE:0D:64:D1:22:5A:91:8B:C5:6E:03:92:23:2D

            X509v3 Extended Key Usage: 
                TLS Web Server Authentication
            X509v3 Key Usage: 
                Digital Signature, Key Encipherment
            X509v3 Subject Alternative Name: 
                DNS:team724-server
    Signature Algorithm: sha256WithRSAEncryption
         47:57:cc:81:31:a9:7f:0a:4b:3e:ff:27:2a:c9:de:76:5d:71:
         e6:86:f8:69:0c:dd:b6:58:6a:f5:e9:a1:53:b4:87:cf:45:25:
         ff:b3:af:85:ef:e3:0c:e0:43:50:28:9b:99:06:2a:fe:05:34:
         a1:b4:1e:38:43:86:35:45:3e:a9:0d:c9:cb:40:4b:03:a6:d2:
         6d:ab:1d:90:76:ad:73:62:98:5c:64:ca:02:e9:38:90:6b:2d:
         e6:2d:d9:6d:7f:11:30:6e:c6:c0:57:2a:74:97:fd:3e:6b:bb:
         d0:54:ec:53:25:8f:3c:53:bb:83:71:82:35:cf:d8:f0:f3:2c:
         dd:be:18:cd:f1:40:f6:ca:c2:60:86:b3:97:39:1d:f2:4f:0f:
         84:08:4b:02:05:38:eb:5a:ce:08:d6:28:1c:f1:83:86:32:94:
         fc:cc:bb:0a:17:d0:f7:d3:0b:3f:1f:3e:b7:00:08:25:1d:27:
         b0:ce:20:9c:8a:9b:7b:4d:8b:5d:d1:dd:18:bb:14:4c:eb:46:
         13:99:e3:27:c5:a4:5e:88:e1:96:89:9f:d0:2f:fe:62:e1:cb:
         7f:bc:3a:05:80:20:99:f6:0f:b3:77:82:e1:3d:ca:87:c0:19:
         42:e5:fd:52:88:9a:03:8b:f1:b6:39:40:ec:f7:3a:f1:d1:fa:
         7b:b9:6a:1b
-----BEGIN CERTIFICATE-----
MIIDdzCCAl+gAwIBAgIQehmglYfI47lr2bN+sQ7UWzANBgkqhkiG9w0BAQsFADAW
MRQwEgYDVQQDDAt0ZWFtNzI0LW5ldDAeFw0yMjA1MTgyMzU4MTlaFw0yNTA1MDIy
MzU4MTlaMBkxFzAVBgNVBAMMDnRlYW03MjQtc2VydmVyMIIBIjANBgkqhkiG9w0B
AQEFAAOCAQ8AMIIBCgKCAQEA6Z58ZkRj6kiFNaZC+QO8aUb+KeCxwlGtSvJU5rif
yiqhBuAQULhCGG1zAs2P5FtI6DhLlKRCqS7EmRSlL7jHnnIjRcSwkyHDIffZ8hq7
un5FngA6ScouROqh8Bwp8UOGSfAnQfsa+3tafp4R5k0x2aVYpP+BKiJmhycRGsuh
daGsBzZ2aV2jmg2DkGipfLLDgQArrEyQqrmL3jkWjriB62A11Rze9bk7CJzbyFIr
Hy858NAkkmX3fEx99RwIVHZXrP2sMl7V5IsJH/Bgqsm9JQ2Oi+K55Fi/9ilfXY61
XwoXnXUUAAsSuM4mjsRd+u7yBBBW+2oEx72Aw/KLCw+cnQIDAQABo4G9MIG6MAkG
A1UdEwQCMAAwHQYDVR0OBBYEFNV9J79h3Ps2KhsgGyaWjI86z3wnMFEGA1UdIwRK
MEiAFAk+T+HIZJKZ2M0YZp4MBZgHoxFToRqkGDAWMRQwEgYDVQQDDAt0ZWFtNzI0
LW5ldIIUIPY8ZSNIrg1k0SJakYvFbgOSIy0wEwYDVR0lBAwwCgYIKwYBBQUHAwEw
CwYDVR0PBAQDAgWgMBkGA1UdEQQSMBCCDnRlYW03MjQtc2VydmVyMA0GCSqGSIb3
DQEBCwUAA4IBAQBHV8yBMal/Cks+/ycqyd52XXHmhvhpDN22WGr16aFTtIfPRSX/
s6+F7+MM4ENQKJuZBir+BTShtB44Q4Y1RT6pDcnLQEsDptJtqx2Qdq1zYphcZMoC
6TiQay3mLdltfxEwbsbAVyp0l/0+a7vQVOxTJY88U7uDcYI1z9jw8yzdvhjN8UD2
ysJghrOXOR3yTw+ECEsCBTjrWs4I1igc8YOGMpT8zLsKF9D30ws/Hz63AAglHSew
ziCcipt7TYtd0d0YuxRM60YTmeMnxaReiOGWiZ/QL/5i4ct/vDoFgCCZ9g+zd4Lh
PcqHwBlC5f1SiJoDi/G2OUDs9zrx0fp7uWob
-----END CERTIFICATE-----
