Certificate:
    Data:
        Version: 3 (0x2)
        Serial Number:
            5c:d0:bc:e6:ec:8c:27:2c:2c:b6:c7:6c:b3:01:25:b9
        Signature Algorithm: sha256WithRSAEncryption
        Issuer: CN=team668-net
        Validity
            Not Before: May 18 23:15:37 2022 GMT
            Not After : May  2 23:15:37 2025 GMT
        Subject: CN=team668-client
        Subject Public Key Info:
            Public Key Algorithm: rsaEncryption
                RSA Public-Key: (2048 bit)
                Modulus:
                    00:cd:f7:6f:c6:60:62:23:e1:77:12:e6:80:3d:dc:
                    b2:6c:fd:ba:31:5e:31:1c:b4:a2:00:7e:d5:28:e8:
                    a1:94:13:9a:f4:b4:a0:14:37:11:ca:44:d5:3e:19:
                    e2:8a:59:85:59:ba:c1:f6:f1:dc:bc:fa:82:f1:d3:
                    32:ce:38:63:ff:ee:30:04:87:48:0a:a2:94:04:93:
                    59:73:ef:d5:c2:7f:a8:39:fa:6d:e0:dc:f4:04:0f:
                    22:1a:82:eb:94:a4:de:f9:79:e3:62:ff:ca:d5:f5:
                    29:1d:c5:95:55:d3:d9:f6:59:20:61:80:ae:64:45:
                    f3:2e:3d:89:3c:33:7f:59:23:ff:38:c2:35:58:69:
                    e0:a0:4b:82:8a:ce:60:dc:af:d6:e2:c0:ea:00:26:
                    a3:1e:7a:ab:93:89:6a:44:bc:27:60:f9:15:2a:7d:
                    a7:b7:97:d7:22:f2:ff:87:13:bc:3b:ca:60:70:15:
                    bf:f3:19:09:c6:9e:3a:3f:23:28:aa:a2:48:a4:03:
                    61:24:69:bd:b1:e5:2c:d7:68:6c:06:09:34:a9:85:
                    18:73:f8:ab:98:61:bd:8b:50:74:bf:d9:7d:7d:50:
                    ec:93:30:11:dc:7d:e9:18:87:71:f2:d8:0d:fa:59:
                    ec:87:7c:13:57:be:b8:47:f5:ca:88:ed:f9:cc:e0:
                    c0:11
                Exponent: 65537 (0x10001)
        X509v3 extensions:
            X509v3 Basic Constraints: 
                CA:FALSE
            X509v3 Subject Key Identifier: 
                8A:E5:03:63:0A:F8:EE:A9:24:DD:F6:AB:40:9F:58:D2:09:F0:8F:90
            X509v3 Authority Key Identifier: 
                keyid:1D:4E:ED:B5:42:DE:9C:0B:7C:57:76:58:D7:F2:43:E1:22:23:B1:58
                DirName:/CN=team668-net
                serial:57:76:FB:3D:1B:4F:AC:61:F0:2C:9E:40:01:09:1D:CB:F2:9D:E3:61

            X509v3 Extended Key Usage: 
                TLS Web Client Authentication
            X509v3 Key Usage: 
                Digital Signature
    Signature Algorithm: sha256WithRSAEncryption
         65:d5:73:c1:6b:8d:1c:bf:eb:8f:5f:46:c5:93:2c:e4:9c:5b:
         db:a8:b8:0c:77:27:29:d4:a8:8d:84:74:a9:c9:74:3c:1b:87:
         2f:5b:b7:60:9c:cf:57:43:a4:90:81:d7:a7:ec:eb:08:b6:1a:
         6a:7a:c0:40:12:e1:c3:8e:a1:5a:0c:73:6e:a4:55:3b:35:36:
         2f:97:cf:cb:b0:63:2a:e2:44:84:af:ed:b0:6f:07:9b:0a:70:
         7d:b9:74:6c:89:d3:b4:60:39:a3:d5:63:95:30:8b:c3:c4:4a:
         46:76:f1:dc:ca:2b:cf:bf:ce:42:7a:84:b9:36:31:5b:ae:71:
         8b:5e:db:d0:97:1f:1d:34:37:6d:64:d3:51:1e:82:2a:85:42:
         70:d5:ba:54:54:71:42:6d:0d:81:51:bb:73:dc:7b:10:43:8d:
         95:9f:d8:cb:85:43:3b:ba:ef:7d:db:c7:16:67:64:c5:73:43:
         ae:07:a8:cc:61:27:14:73:8b:cf:d4:5d:70:0c:e4:82:5c:e3:
         76:fb:f5:06:18:98:31:9d:fd:57:c0:a1:39:87:54:44:1a:ae:
         fa:d3:4d:ef:28:f8:f5:67:f4:2f:52:46:f6:4d:73:a3:0b:c8:
         14:56:4c:a1:e2:84:b0:a5:22:41:0f:94:b9:fd:15:30:ff:8d:
         43:ba:25:15
-----BEGIN CERTIFICATE-----
MIIDXDCCAkSgAwIBAgIQXNC85uyMJywstsdsswEluTANBgkqhkiG9w0BAQsFADAW
MRQwEgYDVQQDDAt0ZWFtNjY4LW5ldDAeFw0yMjA1MTgyMzE1MzdaFw0yNTA1MDIy
MzE1MzdaMBkxFzAVBgNVBAMMDnRlYW02NjgtY2xpZW50MIIBIjANBgkqhkiG9w0B
AQEFAAOCAQ8AMIIBCgKCAQEAzfdvxmBiI+F3EuaAPdyybP26MV4xHLSiAH7VKOih
lBOa9LSgFDcRykTVPhniilmFWbrB9vHcvPqC8dMyzjhj/+4wBIdICqKUBJNZc+/V
wn+oOfpt4Nz0BA8iGoLrlKTe+XnjYv/K1fUpHcWVVdPZ9lkgYYCuZEXzLj2JPDN/
WSP/OMI1WGngoEuCis5g3K/W4sDqACajHnqrk4lqRLwnYPkVKn2nt5fXIvL/hxO8
O8pgcBW/8xkJxp46PyMoqqJIpANhJGm9seUs12hsBgk0qYUYc/irmGG9i1B0v9l9
fVDskzAR3H3pGIdx8tgN+lnsh3wTV764R/XKiO35zODAEQIDAQABo4GiMIGfMAkG
A1UdEwQCMAAwHQYDVR0OBBYEFIrlA2MK+O6pJN32q0CfWNIJ8I+QMFEGA1UdIwRK
MEiAFB1O7bVC3pwLfFd2WNfyQ+EiI7FYoRqkGDAWMRQwEgYDVQQDDAt0ZWFtNjY4
LW5ldIIUV3b7PRtPrGHwLJ5AAQkdy/Kd42EwEwYDVR0lBAwwCgYIKwYBBQUHAwIw
CwYDVR0PBAQDAgeAMA0GCSqGSIb3DQEBCwUAA4IBAQBl1XPBa40cv+uPX0bFkyzk
nFvbqLgMdycp1KiNhHSpyXQ8G4cvW7dgnM9XQ6SQgden7OsIthpqesBAEuHDjqFa
DHNupFU7NTYvl8/LsGMq4kSEr+2wbwebCnB9uXRsidO0YDmj1WOVMIvDxEpGdvHc
yivPv85CeoS5NjFbrnGLXtvQlx8dNDdtZNNRHoIqhUJw1bpUVHFCbQ2BUbtz3HsQ
Q42Vn9jLhUM7uu9928cWZ2TFc0OuB6jMYScUc4vP1F1wDOSCXON2+/UGGJgxnf1X
wKE5h1REGq76003vKPj1Z/QvUkb2TXOjC8gUVkyh4oSwpSJBD5S5/RUw/41DuiUV
-----END CERTIFICATE-----
