Certificate:
    Data:
        Version: 3 (0x2)
        Serial Number:
            9c:62:54:d3:8f:6a:08:1c:d7:8a:aa:b4:8d:a4:c3:b0
        Signature Algorithm: sha256WithRSAEncryption
        Issuer: CN=team768-net
        Validity
            Not Before: May 19 00:15:47 2022 GMT
            Not After : May  3 00:15:47 2025 GMT
        Subject: CN=team768-server
        Subject Public Key Info:
            Public Key Algorithm: rsaEncryption
                RSA Public-Key: (2048 bit)
                Modulus:
                    00:c7:80:f4:6a:74:14:53:e0:06:80:76:36:38:59:
                    50:88:66:67:bc:6e:84:a3:4d:e3:8a:05:59:81:46:
                    f6:a4:ac:53:85:eb:3e:48:d2:5b:eb:06:6e:6b:c8:
                    e1:a0:b9:50:6d:44:83:25:06:5d:58:62:4a:0c:d1:
                    05:94:fd:eb:f1:fb:cd:b2:cf:62:c1:6e:ff:0e:f8:
                    af:66:8f:00:06:c1:fd:26:2b:69:75:b9:43:f8:88:
                    55:bf:8c:c2:c6:6a:64:e5:55:01:af:0d:37:41:cd:
                    a8:a8:b0:5c:4e:1f:c7:f5:7f:bd:eb:58:1e:2e:ac:
                    ca:ec:ed:95:3e:71:68:ec:75:de:29:ad:3c:4e:af:
                    08:8d:eb:5e:dd:36:10:e2:35:a3:14:1a:b9:6f:4a:
                    54:ff:6c:62:19:2c:a0:b5:9b:2b:31:ee:50:62:bc:
                    e0:7f:91:16:d8:67:6d:e0:23:de:ef:bb:a6:93:87:
                    6a:a7:2a:76:70:62:df:30:ed:a3:64:5e:e7:80:91:
                    7e:6c:c0:2a:ff:31:56:42:c2:6f:a0:c5:fa:04:5f:
                    96:5a:7e:6f:c9:9a:09:52:9f:f1:f1:9d:19:00:53:
                    fe:cd:e8:cb:15:6d:91:42:20:4a:1f:53:3a:6a:a9:
                    dd:18:f1:e2:85:ad:9d:98:3b:e6:0d:c0:35:f4:67:
                    dd:bb
                Exponent: 65537 (0x10001)
        X509v3 extensions:
            X509v3 Basic Constraints: 
                CA:FALSE
            X509v3 Subject Key Identifier: 
                F7:24:5A:98:86:7D:66:9B:53:FF:A2:7C:F8:3B:00:56:1B:3B:9E:9A
            X509v3 Authority Key Identifier: 
                keyid:FE:86:85:C0:AD:0E:0C:F1:1C:00:F8:E5:72:81:4B:2D:DD:3B:36:F9
                DirName:/CN=team768-net
                serial:25:A1:6C:76:B8:F9:3F:18:23:0C:7D:82:52:BA:0B:5E:91:D9:D9:97

            X509v3 Extended Key Usage: 
                TLS Web Server Authentication
            X509v3 Key Usage: 
                Digital Signature, Key Encipherment
            X509v3 Subject Alternative Name: 
                DNS:team768-server
    Signature Algorithm: sha256WithRSAEncryption
         b7:1d:21:23:4d:dc:46:85:b7:73:2d:07:e9:f4:ec:66:13:15:
         8a:a3:b0:34:dd:22:e0:fc:ee:40:8c:69:62:16:f1:0e:03:15:
         47:3f:1a:d0:12:8e:50:c6:ae:9f:17:34:77:41:95:8e:22:a5:
         ba:d6:c9:7a:61:81:64:54:93:a1:e6:fd:27:2e:dc:30:df:47:
         4d:67:e1:19:95:6f:94:5f:25:06:2d:9d:17:d9:77:fa:5f:b4:
         f6:6b:84:7c:f5:85:17:d2:d5:00:e8:0b:e5:d6:89:18:1d:eb:
         35:dd:65:8f:25:79:1a:47:ab:65:95:45:b8:13:86:97:57:8d:
         85:c5:15:9a:c5:ea:0a:e7:c6:cf:f3:a7:48:1e:e7:29:fd:a8:
         74:d7:14:41:56:e9:3b:d4:f0:c8:4b:5e:31:f5:e2:a4:67:d4:
         d0:ad:02:f7:e0:1e:4b:c3:4b:79:ee:a9:fd:ea:81:78:52:cf:
         20:19:23:8a:50:62:2e:dc:da:62:c3:92:59:54:ee:9a:ba:08:
         fa:ca:50:33:4a:66:55:a8:24:34:b1:dd:e2:fd:12:09:6c:b7:
         7f:4b:26:03:3b:d7:ad:6a:1d:dc:75:41:3f:05:d3:28:b0:56:
         8d:74:c9:dc:8b:ef:cc:38:45:e1:49:8e:ad:37:f8:2a:57:1e:
         a5:dc:df:3c
-----BEGIN CERTIFICATE-----
MIIDeDCCAmCgAwIBAgIRAJxiVNOPaggc14qqtI2kw7AwDQYJKoZIhvcNAQELBQAw
FjEUMBIGA1UEAwwLdGVhbTc2OC1uZXQwHhcNMjIwNTE5MDAxNTQ3WhcNMjUwNTAz
MDAxNTQ3WjAZMRcwFQYDVQQDDA50ZWFtNzY4LXNlcnZlcjCCASIwDQYJKoZIhvcN
AQEBBQADggEPADCCAQoCggEBAMeA9Gp0FFPgBoB2NjhZUIhmZ7xuhKNN44oFWYFG
9qSsU4XrPkjSW+sGbmvI4aC5UG1EgyUGXVhiSgzRBZT96/H7zbLPYsFu/w74r2aP
AAbB/SYraXW5Q/iIVb+MwsZqZOVVAa8NN0HNqKiwXE4fx/V/vetYHi6syuztlT5x
aOx13imtPE6vCI3rXt02EOI1oxQauW9KVP9sYhksoLWbKzHuUGK84H+RFthnbeAj
3u+7ppOHaqcqdnBi3zDto2Re54CRfmzAKv8xVkLCb6DF+gRfllp+b8maCVKf8fGd
GQBT/s3oyxVtkUIgSh9TOmqp3Rjx4oWtnZg75g3ANfRn3bsCAwEAAaOBvTCBujAJ
BgNVHRMEAjAAMB0GA1UdDgQWBBT3JFqYhn1mm1P/onz4OwBWGzuemjBRBgNVHSME
SjBIgBT+hoXArQ4M8RwA+OVygUst3Ts2+aEapBgwFjEUMBIGA1UEAwwLdGVhbTc2
OC1uZXSCFCWhbHa4+T8YIwx9glK6C16R2dmXMBMGA1UdJQQMMAoGCCsGAQUFBwMB
MAsGA1UdDwQEAwIFoDAZBgNVHREEEjAQgg50ZWFtNzY4LXNlcnZlcjANBgkqhkiG
9w0BAQsFAAOCAQEAtx0hI03cRoW3cy0H6fTsZhMViqOwNN0i4PzuQIxpYhbxDgMV
Rz8a0BKOUMaunxc0d0GVjiKlutbJemGBZFSToeb9Jy7cMN9HTWfhGZVvlF8lBi2d
F9l3+l+09muEfPWFF9LVAOgL5daJGB3rNd1ljyV5GkerZZVFuBOGl1eNhcUVmsXq
CufGz/OnSB7nKf2odNcUQVbpO9TwyEteMfXipGfU0K0C9+AeS8NLee6p/eqBeFLP
IBkjilBiLtzaYsOSWVTumroI+spQM0pmVagkNLHd4v0SCWy3f0smAzvXrWod3HVB
PwXTKLBWjXTJ3IvvzDhF4UmOrTf4KlcepdzfPA==
-----END CERTIFICATE-----
