Certificate:
    Data:
        Version: 3 (0x2)
        Serial Number:
            b8:2b:98:ac:20:c1:20:b1:28:ba:60:21:30:8e:cb:38
        Signature Algorithm: sha256WithRSAEncryption
        Issuer: CN=team136-net
        Validity
            Not Before: May 18 15:11:38 2022 GMT
            Not After : May  2 15:11:38 2025 GMT
        Subject: CN=team136-client
        Subject Public Key Info:
            Public Key Algorithm: rsaEncryption
                RSA Public-Key: (2048 bit)
                Modulus:
                    00:de:02:1b:f3:d9:b1:3c:d1:99:66:98:76:32:c3:
                    6b:d0:69:d4:e8:83:ad:31:f2:05:64:da:21:e2:02:
                    46:a7:d2:5d:b3:1c:2d:e7:fa:09:0a:40:96:fe:8e:
                    c4:87:d9:0e:01:55:11:36:be:38:5d:1c:b3:46:9f:
                    a7:34:53:72:e2:66:54:a6:fa:c6:11:bf:d1:35:57:
                    7f:9e:1d:2b:18:7c:72:da:78:43:76:e0:ff:47:0c:
                    58:4e:1f:2e:22:47:86:9a:a7:fd:15:a6:04:e1:49:
                    12:e1:32:b1:0f:2c:d0:7b:dd:87:81:44:a1:31:50:
                    ce:ee:46:52:e9:1b:43:65:27:51:10:ed:69:30:6c:
                    c4:21:9b:04:f7:16:18:d4:4f:80:67:f8:ab:83:e0:
                    c0:c2:a2:05:bf:1d:a3:31:b3:8d:b1:86:1a:60:7f:
                    8f:59:fa:37:8a:59:67:50:89:4f:67:42:c9:2a:a1:
                    08:1d:42:b3:84:bc:c8:ac:fe:af:82:4d:2c:0c:ae:
                    1c:2a:4d:8e:f1:5e:7b:ba:09:9b:9e:9c:32:6c:a1:
                    fc:51:ef:85:03:41:56:14:72:a5:e0:7f:e3:ad:3b:
                    3e:13:9c:1f:41:fd:6c:82:0c:4b:f5:3d:1b:b3:f2:
                    70:34:7f:c6:4d:0d:62:6f:04:d9:68:3a:d1:a3:2d:
                    99:3b
                Exponent: 65537 (0x10001)
        X509v3 extensions:
            X509v3 Basic Constraints: 
                CA:FALSE
            X509v3 Subject Key Identifier: 
                BD:A5:11:A1:B6:85:2D:3B:1A:F5:DA:16:3B:9E:9C:A5:DE:48:30:FA
            X509v3 Authority Key Identifier: 
                keyid:36:A5:1D:0C:21:56:D6:E1:49:A8:62:A5:F0:69:2D:C8:A7:2D:35:72
                DirName:/CN=team136-net
                serial:04:02:EA:B4:DE:1D:BD:87:50:00:9B:22:97:17:AE:D9:64:1C:14:8F

            X509v3 Extended Key Usage: 
                TLS Web Client Authentication
            X509v3 Key Usage: 
                Digital Signature
    Signature Algorithm: sha256WithRSAEncryption
         b5:38:2d:aa:2a:1d:ea:d6:93:96:8a:c6:c0:f5:c8:01:c3:c9:
         29:6c:e9:38:fe:b0:d6:ac:94:2f:f7:a7:2b:a1:19:6d:cf:4f:
         35:de:e1:38:74:ac:43:3e:cb:e9:a1:f7:1d:e6:94:02:cd:2c:
         c1:b5:23:95:c5:98:38:e9:75:0c:b1:34:47:23:6d:1c:c1:15:
         f6:08:93:ad:60:bf:4c:ec:83:0c:f5:0e:a2:ad:2a:43:2c:e4:
         d9:9b:13:73:71:5b:2f:9d:10:d9:51:79:37:e3:e1:05:94:34:
         7a:f3:b4:e1:5b:3f:ee:4c:0d:ed:56:82:8b:cd:26:77:66:b5:
         ac:94:8d:e9:9f:0e:e4:af:60:c5:6e:f4:68:c2:b5:93:e2:4a:
         1e:cd:1c:9c:50:4a:33:5c:6e:61:98:11:f9:aa:38:20:1d:85:
         46:e1:c2:47:8b:1d:ed:06:c9:63:26:78:3b:35:95:16:e3:7f:
         7b:ba:72:5a:b5:08:0f:2c:c0:ea:5b:fa:16:9e:fc:bd:c9:e2:
         8c:a0:ae:d3:45:65:1f:d5:8c:52:b5:b9:f0:a1:da:fe:d8:b9:
         ab:df:ad:1b:96:97:ea:81:13:75:a8:d0:50:c7:88:91:11:f3:
         33:9e:af:68:19:88:4e:32:8e:69:f9:9f:60:a8:30:35:4f:f2:
         5a:b0:74:a1
-----BEGIN CERTIFICATE-----
MIIDXTCCAkWgAwIBAgIRALgrmKwgwSCxKLpgITCOyzgwDQYJKoZIhvcNAQELBQAw
FjEUMBIGA1UEAwwLdGVhbTEzNi1uZXQwHhcNMjIwNTE4MTUxMTM4WhcNMjUwNTAy
MTUxMTM4WjAZMRcwFQYDVQQDDA50ZWFtMTM2LWNsaWVudDCCASIwDQYJKoZIhvcN
AQEBBQADggEPADCCAQoCggEBAN4CG/PZsTzRmWaYdjLDa9Bp1OiDrTHyBWTaIeIC
RqfSXbMcLef6CQpAlv6OxIfZDgFVETa+OF0cs0afpzRTcuJmVKb6xhG/0TVXf54d
Kxh8ctp4Q3bg/0cMWE4fLiJHhpqn/RWmBOFJEuEysQ8s0Hvdh4FEoTFQzu5GUukb
Q2UnURDtaTBsxCGbBPcWGNRPgGf4q4PgwMKiBb8dozGzjbGGGmB/j1n6N4pZZ1CJ
T2dCySqhCB1Cs4S8yKz+r4JNLAyuHCpNjvFee7oJm56cMmyh/FHvhQNBVhRypeB/
4607PhOcH0H9bIIMS/U9G7PycDR/xk0NYm8E2Wg60aMtmTsCAwEAAaOBojCBnzAJ
BgNVHRMEAjAAMB0GA1UdDgQWBBS9pRGhtoUtOxr12hY7npyl3kgw+jBRBgNVHSME
SjBIgBQ2pR0MIVbW4UmoYqXwaS3Ipy01cqEapBgwFjEUMBIGA1UEAwwLdGVhbTEz
Ni1uZXSCFAQC6rTeHb2HUACbIpcXrtlkHBSPMBMGA1UdJQQMMAoGCCsGAQUFBwMC
MAsGA1UdDwQEAwIHgDANBgkqhkiG9w0BAQsFAAOCAQEAtTgtqiod6taTlorGwPXI
AcPJKWzpOP6w1qyUL/enK6EZbc9PNd7hOHSsQz7L6aH3HeaUAs0swbUjlcWYOOl1
DLE0RyNtHMEV9giTrWC/TOyDDPUOoq0qQyzk2ZsTc3FbL50Q2VF5N+PhBZQ0evO0
4Vs/7kwN7VaCi80md2a1rJSN6Z8O5K9gxW70aMK1k+JKHs0cnFBKM1xuYZgR+ao4
IB2FRuHCR4sd7QbJYyZ4OzWVFuN/e7pyWrUIDyzA6lv6Fp78vcnijKCu00VlH9WM
UrW58KHa/ti5q9+tG5aX6oETdajQUMeIkRHzM56vaBmITjKOafmfYKgwNU/yWrB0
oQ==
-----END CERTIFICATE-----
