Certificate:
    Data:
        Version: 3 (0x2)
        Serial Number:
            bb:66:f6:30:7c:0a:b6:15:37:47:70:24:96:e1:f3:c6
        Signature Algorithm: sha256WithRSAEncryption
        Issuer: CN=team31-net
        Validity
            Not Before: May 18 14:08:53 2022 GMT
            Not After : May  2 14:08:53 2025 GMT
        Subject: CN=team31-server
        Subject Public Key Info:
            Public Key Algorithm: rsaEncryption
                RSA Public-Key: (2048 bit)
                Modulus:
                    00:cc:cb:5c:8d:38:16:ed:31:c4:89:98:51:8d:38:
                    22:27:e9:d6:bf:fa:e4:b9:e5:3e:21:56:42:77:a1:
                    45:00:ba:52:3a:8f:4a:f8:1f:ea:4e:6d:65:90:32:
                    db:e5:b8:27:80:72:36:33:32:9e:2a:05:38:ce:a0:
                    95:e6:b6:34:71:60:85:bc:59:c1:7a:9e:9d:c9:3e:
                    04:c3:b1:da:fc:fe:a0:f0:54:84:4e:72:2c:ab:84:
                    10:47:3f:1c:a1:5b:a3:51:9e:7d:b5:33:16:26:05:
                    1f:51:90:41:cf:4d:0d:c2:01:24:d0:95:24:9c:85:
                    3e:60:67:d3:a7:e1:d5:79:5e:10:98:81:a8:67:98:
                    11:ba:1d:c5:50:a2:4a:82:13:b2:c9:47:bf:30:a3:
                    bb:6a:a5:f5:df:4c:7a:1f:21:e8:45:63:ce:53:61:
                    4e:6e:9c:ff:21:f2:96:20:92:c7:2a:93:e2:cb:5c:
                    cd:b4:34:7f:f2:4a:a9:52:10:4f:5d:74:27:ca:1e:
                    2b:5a:21:a6:3f:ed:35:37:ff:fc:51:a5:98:45:17:
                    80:2b:c8:6b:ca:e5:79:84:bf:49:65:74:ee:8f:39:
                    58:bb:57:a6:40:a4:2d:a5:2c:45:a2:39:e3:e8:af:
                    e3:01:be:3f:3e:e2:0d:f2:80:1d:68:ba:19:81:23:
                    4a:87
                Exponent: 65537 (0x10001)
        X509v3 extensions:
            X509v3 Basic Constraints: 
                CA:FALSE
            X509v3 Subject Key Identifier: 
                58:DE:0F:08:23:33:99:50:03:DC:E3:D6:39:A6:FA:C4:36:6F:22:85
            X509v3 Authority Key Identifier: 
                keyid:AF:2B:C3:E9:80:7C:A6:75:8E:34:08:13:64:A9:D0:86:93:D7:1D:3F
                DirName:/CN=team31-net
                serial:4F:2E:B0:A5:1A:3A:D0:C6:72:51:C3:74:16:61:83:9A:1E:9C:46:03

            X509v3 Extended Key Usage: 
                TLS Web Server Authentication
            X509v3 Key Usage: 
                Digital Signature, Key Encipherment
            X509v3 Subject Alternative Name: 
                DNS:team31-server
    Signature Algorithm: sha256WithRSAEncryption
         9e:18:a8:2a:c7:bf:34:38:70:34:a7:ad:65:20:f4:e1:18:7d:
         18:1c:eb:9f:1e:68:88:00:fa:fe:6c:13:62:f1:6c:26:fa:c0:
         c1:0f:cb:94:bb:f2:0c:56:96:fd:f9:69:bd:62:8e:e9:3f:b3:
         55:cb:c3:dd:1a:e3:d8:7d:fc:e6:e0:bc:b0:4c:ef:e8:e1:ef:
         9e:2e:0d:c0:e8:58:e4:b3:a1:fb:47:b7:e8:bb:2e:1a:d7:4c:
         82:17:cf:76:07:ca:b8:34:d6:c7:21:5b:52:a0:b5:49:0e:2c:
         e4:d0:4c:ed:85:b2:23:0f:8a:d8:e9:04:99:75:16:94:bd:73:
         e5:49:a5:ed:63:d4:fd:32:d3:61:d9:2c:2a:7f:40:04:35:13:
         52:5e:5b:02:91:f8:b5:cb:40:79:7a:80:0a:a7:02:c3:1d:f3:
         b7:3e:d8:d7:bb:5e:1f:2a:cf:21:80:ae:ee:ed:8e:d1:c8:a6:
         fb:34:4d:15:93:49:40:55:15:50:5f:46:80:4a:e0:14:0e:fe:
         c0:c4:2b:a9:37:04:cc:b3:f2:59:5e:29:b3:99:bd:63:28:d4:
         4d:49:3f:d1:83:73:66:a6:9a:ee:8e:d8:4a:29:00:db:68:3f:
         4b:db:b1:8a:83:bc:d6:92:49:7c:38:2f:5a:a6:79:72:6b:b0:
         72:9b:ab:c1
-----BEGIN CERTIFICATE-----
MIIDdDCCAlygAwIBAgIRALtm9jB8CrYVN0dwJJbh88YwDQYJKoZIhvcNAQELBQAw
FTETMBEGA1UEAwwKdGVhbTMxLW5ldDAeFw0yMjA1MTgxNDA4NTNaFw0yNTA1MDIx
NDA4NTNaMBgxFjAUBgNVBAMMDXRlYW0zMS1zZXJ2ZXIwggEiMA0GCSqGSIb3DQEB
AQUAA4IBDwAwggEKAoIBAQDMy1yNOBbtMcSJmFGNOCIn6da/+uS55T4hVkJ3oUUA
ulI6j0r4H+pObWWQMtvluCeAcjYzMp4qBTjOoJXmtjRxYIW8WcF6np3JPgTDsdr8
/qDwVIROciyrhBBHPxyhW6NRnn21MxYmBR9RkEHPTQ3CASTQlSSchT5gZ9On4dV5
XhCYgahnmBG6HcVQokqCE7LJR78wo7tqpfXfTHofIehFY85TYU5unP8h8pYgkscq
k+LLXM20NH/ySqlSEE9ddCfKHitaIaY/7TU3//xRpZhFF4AryGvK5XmEv0lldO6P
OVi7V6ZApC2lLEWiOePor+MBvj8+4g3ygB1ouhmBI0qHAgMBAAGjgbswgbgwCQYD
VR0TBAIwADAdBgNVHQ4EFgQUWN4PCCMzmVAD3OPWOab6xDZvIoUwUAYDVR0jBEkw
R4AUryvD6YB8pnWONAgTZKnQhpPXHT+hGaQXMBUxEzARBgNVBAMMCnRlYW0zMS1u
ZXSCFE8usKUaOtDGclHDdBZhg5oenEYDMBMGA1UdJQQMMAoGCCsGAQUFBwMBMAsG
A1UdDwQEAwIFoDAYBgNVHREEETAPgg10ZWFtMzEtc2VydmVyMA0GCSqGSIb3DQEB
CwUAA4IBAQCeGKgqx780OHA0p61lIPThGH0YHOufHmiIAPr+bBNi8Wwm+sDBD8uU
u/IMVpb9+Wm9Yo7pP7NVy8PdGuPYffzm4LywTO/o4e+eLg3A6Fjks6H7R7fouy4a
10yCF892B8q4NNbHIVtSoLVJDizk0EzthbIjD4rY6QSZdRaUvXPlSaXtY9T9MtNh
2Swqf0AENRNSXlsCkfi1y0B5eoAKpwLDHfO3PtjXu14fKs8hgK7u7Y7RyKb7NE0V
k0lAVRVQX0aASuAUDv7AxCupNwTMs/JZXimzmb1jKNRNST/Rg3NmpprujthKKQDb
aD9L27GKg7zWkkl8OC9apnlya7Bym6vB
-----END CERTIFICATE-----
