Certificate:
    Data:
        Version: 3 (0x2)
        Serial Number:
            db:cb:09:f1:60:6f:4c:d4:94:c7:90:c8:91:03:1e:4f
        Signature Algorithm: sha256WithRSAEncryption
        Issuer: CN=team30-net
        Validity
            Not Before: May 18 14:11:47 2022 GMT
            Not After : May  2 14:11:47 2025 GMT
        Subject: CN=team30-server
        Subject Public Key Info:
            Public Key Algorithm: rsaEncryption
                RSA Public-Key: (2048 bit)
                Modulus:
                    00:d0:11:56:8e:75:34:b0:bc:03:62:25:b3:71:fc:
                    c2:50:0f:27:64:00:99:35:d2:a2:8a:98:0e:d1:b4:
                    cb:82:c1:db:f6:cb:b3:cc:c7:08:aa:97:99:4f:01:
                    ba:c6:47:32:5d:d5:5a:87:ba:07:99:ec:50:87:3b:
                    83:08:43:7b:b2:dd:4e:b6:6e:51:3a:64:ee:d6:15:
                    b5:2d:54:33:75:a1:d9:f9:1c:d0:3e:b2:ba:f3:e8:
                    ac:3f:b5:fb:28:01:6a:70:98:75:98:be:da:fb:11:
                    d9:62:de:a5:1c:4f:f6:a9:1e:c3:a4:f3:49:dd:17:
                    e9:3e:42:4f:ec:8f:0c:34:7e:f6:f0:01:d0:a2:ce:
                    4c:03:0c:fc:ab:93:72:cc:c9:5b:cb:e0:43:60:bd:
                    b5:3c:ee:9e:20:18:09:e2:23:3b:9d:1d:74:21:84:
                    50:3c:1a:bc:88:61:1f:a7:09:32:39:ad:21:80:61:
                    b8:54:11:84:1d:d6:20:30:c3:1b:40:50:fc:64:23:
                    1e:5e:3c:7b:fc:eb:03:ef:8f:ca:8a:21:3d:a7:2e:
                    45:a8:1a:55:ef:ec:29:63:23:c5:70:d6:64:7c:fb:
                    8f:c4:47:c2:60:2d:c5:3b:c0:bd:d9:b3:af:f3:12:
                    2e:8d:9b:6c:04:42:a0:06:b3:b1:a6:e3:11:e8:a6:
                    a0:dd
                Exponent: 65537 (0x10001)
        X509v3 extensions:
            X509v3 Basic Constraints: 
                CA:FALSE
            X509v3 Subject Key Identifier: 
                C3:72:61:03:9D:F6:90:37:62:FD:33:85:CB:8C:23:1E:13:CC:77:63
            X509v3 Authority Key Identifier: 
                keyid:6F:D4:EE:C6:2A:53:C0:14:22:FD:59:CB:F1:56:FA:B5:5E:D0:8C:0F
                DirName:/CN=team30-net
                serial:7B:82:B5:E9:DA:19:09:99:2B:74:C7:8F:36:F4:D4:E5:B8:BD:E7:EA

            X509v3 Extended Key Usage: 
                TLS Web Server Authentication
            X509v3 Key Usage: 
                Digital Signature, Key Encipherment
            X509v3 Subject Alternative Name: 
                DNS:team30-server
    Signature Algorithm: sha256WithRSAEncryption
         81:57:66:56:fb:b1:5e:1b:f1:34:77:5f:89:e8:24:5e:1d:48:
         0c:8a:c2:db:7a:8d:78:a2:2b:17:ca:06:6d:ef:ab:e8:96:1c:
         ed:10:b8:80:ec:d2:79:cf:db:91:8f:88:fc:21:6a:fa:3b:2e:
         05:fb:6f:c7:1c:f6:91:82:90:da:6e:df:db:cc:9f:26:29:83:
         16:f2:2d:a6:be:a5:a0:da:e8:d0:74:ba:aa:74:32:b8:05:db:
         19:ce:ca:68:55:2a:85:fc:cb:27:4e:c6:dd:eb:1a:f2:96:44:
         5c:24:d7:8b:b4:7b:0e:c1:f1:e7:1f:c9:b8:81:ee:25:ba:85:
         dc:35:7d:f6:0c:15:95:3b:e9:37:33:77:29:50:c6:51:23:55:
         a2:31:98:65:0f:00:1d:0e:61:16:22:65:2e:43:13:95:b9:16:
         f1:03:5d:71:48:9d:30:62:e6:8f:3a:18:89:44:00:17:9a:ec:
         d4:36:52:83:09:ea:ac:f6:db:7a:7c:db:0b:d4:c0:bc:48:88:
         46:e7:a3:ed:8d:d2:b4:c3:31:5d:b6:87:25:d2:32:48:1f:2f:
         eb:50:b2:f5:f9:c9:b7:c4:9b:ce:7d:60:a8:96:83:a8:42:24:
         ed:bd:7f:69:f6:2e:64:7c:e4:7e:d2:cd:66:a6:52:37:55:67:
         5a:45:d2:32
-----BEGIN CERTIFICATE-----
MIIDdDCCAlygAwIBAgIRANvLCfFgb0zUlMeQyJEDHk8wDQYJKoZIhvcNAQELBQAw
FTETMBEGA1UEAwwKdGVhbTMwLW5ldDAeFw0yMjA1MTgxNDExNDdaFw0yNTA1MDIx
NDExNDdaMBgxFjAUBgNVBAMMDXRlYW0zMC1zZXJ2ZXIwggEiMA0GCSqGSIb3DQEB
AQUAA4IBDwAwggEKAoIBAQDQEVaOdTSwvANiJbNx/MJQDydkAJk10qKKmA7RtMuC
wdv2y7PMxwiql5lPAbrGRzJd1VqHugeZ7FCHO4MIQ3uy3U62blE6ZO7WFbUtVDN1
odn5HNA+srrz6Kw/tfsoAWpwmHWYvtr7Edli3qUcT/apHsOk80ndF+k+Qk/sjww0
fvbwAdCizkwDDPyrk3LMyVvL4ENgvbU87p4gGAniIzudHXQhhFA8GryIYR+nCTI5
rSGAYbhUEYQd1iAwwxtAUPxkIx5ePHv86wPvj8qKIT2nLkWoGlXv7CljI8Vw1mR8
+4/ER8JgLcU7wL3Zs6/zEi6Nm2wEQqAGs7Gm4xHopqDdAgMBAAGjgbswgbgwCQYD
VR0TBAIwADAdBgNVHQ4EFgQUw3JhA532kDdi/TOFy4wjHhPMd2MwUAYDVR0jBEkw
R4AUb9TuxipTwBQi/VnL8Vb6tV7QjA+hGaQXMBUxEzARBgNVBAMMCnRlYW0zMC1u
ZXSCFHuCtenaGQmZK3THjzb01OW4vefqMBMGA1UdJQQMMAoGCCsGAQUFBwMBMAsG
A1UdDwQEAwIFoDAYBgNVHREEETAPgg10ZWFtMzAtc2VydmVyMA0GCSqGSIb3DQEB
CwUAA4IBAQCBV2ZW+7FeG/E0d1+J6CReHUgMisLbeo14oisXygZt76volhztELiA
7NJ5z9uRj4j8IWr6Oy4F+2/HHPaRgpDabt/bzJ8mKYMW8i2mvqWg2ujQdLqqdDK4
BdsZzspoVSqF/MsnTsbd6xrylkRcJNeLtHsOwfHnH8m4ge4luoXcNX32DBWVO+k3
M3cpUMZRI1WiMZhlDwAdDmEWImUuQxOVuRbxA11xSJ0wYuaPOhiJRAAXmuzUNlKD
Ceqs9tt6fNsL1MC8SIhG56PtjdK0wzFdtocl0jJIHy/rULL1+cm3xJvOfWColoOo
QiTtvX9p9i5kfOR+0s1mplI3VWdaRdIy
-----END CERTIFICATE-----
