Certificate:
    Data:
        Version: 3 (0x2)
        Serial Number:
            f0:49:34:c7:7f:0d:c5:d7:36:5e:93:e8:ab:a2:2c:5a
        Signature Algorithm: sha256WithRSAEncryption
        Issuer: CN=team30-net
        Validity
            Not Before: May 18 14:11:46 2022 GMT
            Not After : May  2 14:11:46 2025 GMT
        Subject: CN=team30-client
        Subject Public Key Info:
            Public Key Algorithm: rsaEncryption
                RSA Public-Key: (2048 bit)
                Modulus:
                    00:d3:1d:4b:e4:2f:72:75:17:9f:d0:98:d9:29:09:
                    4c:97:e7:53:86:4b:41:6d:a4:0b:f8:47:c2:b7:93:
                    26:80:db:89:a7:54:8d:ba:76:ff:38:16:20:f8:27:
                    1f:4d:53:be:6b:b6:a0:a6:7f:aa:9c:f3:84:74:99:
                    d0:20:48:46:46:1c:7d:61:3d:d9:6b:49:86:72:59:
                    3b:72:2e:28:83:33:41:2e:a4:13:07:df:0e:7a:c1:
                    ac:9a:aa:f2:64:a9:9e:50:f3:f5:80:96:43:da:92:
                    f8:95:3d:23:02:9e:84:9c:a5:6e:37:95:04:57:23:
                    1d:79:ca:52:e1:5a:39:ef:dc:43:95:33:11:99:02:
                    1c:c9:ab:0e:a9:fd:51:61:fa:31:ac:13:23:db:f1:
                    62:7f:f2:94:99:f5:b2:eb:ce:ab:a6:f4:e3:f0:74:
                    70:78:22:75:9c:bd:a2:8b:73:a8:53:3a:91:6b:33:
                    96:41:0e:a5:a3:09:64:09:0b:f1:44:21:81:b7:ac:
                    af:64:91:92:c9:22:b0:2b:b2:04:6b:65:68:17:cd:
                    84:1d:0d:ff:5b:1e:89:a0:8a:d9:9e:f7:21:9b:27:
                    81:98:fd:7b:42:cc:3f:2e:3c:67:af:ff:75:cf:4e:
                    44:ab:46:22:44:3e:6b:64:a0:44:6a:01:d8:97:a5:
                    47:91
                Exponent: 65537 (0x10001)
        X509v3 extensions:
            X509v3 Basic Constraints: 
                CA:FALSE
            X509v3 Subject Key Identifier: 
                3D:5B:4D:24:04:9A:4E:B3:FF:F6:65:49:9D:09:87:4E:07:9A:4E:82
            X509v3 Authority Key Identifier: 
                keyid:6F:D4:EE:C6:2A:53:C0:14:22:FD:59:CB:F1:56:FA:B5:5E:D0:8C:0F
                DirName:/CN=team30-net
                serial:7B:82:B5:E9:DA:19:09:99:2B:74:C7:8F:36:F4:D4:E5:B8:BD:E7:EA

            X509v3 Extended Key Usage: 
                TLS Web Client Authentication
            X509v3 Key Usage: 
                Digital Signature
    Signature Algorithm: sha256WithRSAEncryption
         c2:e2:a3:a9:3b:15:0e:8f:df:db:71:5d:6d:34:3b:ee:f5:1d:
         54:35:72:f3:99:91:6a:52:be:bd:28:94:f3:6c:e0:db:fd:4d:
         26:c2:6e:4e:80:48:ff:88:0a:b2:80:ac:ed:80:6a:11:57:0a:
         ad:3b:ec:93:af:23:9e:6d:ba:29:b5:27:b3:a2:21:6f:22:eb:
         9d:13:aa:5b:d4:d4:23:3c:5d:52:66:fb:ac:bb:50:dc:b1:f3:
         ed:9f:58:7c:7f:7d:62:2a:0c:9f:70:ed:f8:f6:73:ae:5e:be:
         72:38:06:bd:9c:0b:86:05:d0:75:59:84:4b:28:e9:46:8e:ca:
         e4:f2:18:4d:79:6a:af:22:8a:30:cf:7c:71:0e:42:05:bb:a4:
         d1:9a:e5:7a:9c:c3:8f:bf:46:6f:e5:36:94:78:d7:55:e8:7c:
         56:2d:18:fd:55:6e:b3:f8:34:d1:8b:66:e8:e1:70:c0:01:7b:
         c1:06:fe:d3:d1:90:f9:cc:e7:ce:a9:04:81:84:f7:ba:0e:66:
         a8:15:7e:e4:41:5a:4d:7e:dd:7e:37:81:3c:0b:54:cb:e2:80:
         bb:81:90:91:3c:ef:3c:48:c6:56:bc:ae:d4:65:37:8c:9e:f9:
         1e:ed:52:ac:b1:a1:08:dc:e6:94:c0:e9:11:8a:71:04:85:e4:
         88:bf:14:fb
-----BEGIN CERTIFICATE-----
MIIDWjCCAkKgAwIBAgIRAPBJNMd/DcXXNl6T6KuiLFowDQYJKoZIhvcNAQELBQAw
FTETMBEGA1UEAwwKdGVhbTMwLW5ldDAeFw0yMjA1MTgxNDExNDZaFw0yNTA1MDIx
NDExNDZaMBgxFjAUBgNVBAMMDXRlYW0zMC1jbGllbnQwggEiMA0GCSqGSIb3DQEB
AQUAA4IBDwAwggEKAoIBAQDTHUvkL3J1F5/QmNkpCUyX51OGS0FtpAv4R8K3kyaA
24mnVI26dv84FiD4Jx9NU75rtqCmf6qc84R0mdAgSEZGHH1hPdlrSYZyWTtyLiiD
M0EupBMH3w56wayaqvJkqZ5Q8/WAlkPakviVPSMCnoScpW43lQRXIx15ylLhWjnv
3EOVMxGZAhzJqw6p/VFh+jGsEyPb8WJ/8pSZ9bLrzqum9OPwdHB4InWcvaKLc6hT
OpFrM5ZBDqWjCWQJC/FEIYG3rK9kkZLJIrArsgRrZWgXzYQdDf9bHomgitme9yGb
J4GY/XtCzD8uPGev/3XPTkSrRiJEPmtkoERqAdiXpUeRAgMBAAGjgaEwgZ4wCQYD
VR0TBAIwADAdBgNVHQ4EFgQUPVtNJASaTrP/9mVJnQmHTgeaToIwUAYDVR0jBEkw
R4AUb9TuxipTwBQi/VnL8Vb6tV7QjA+hGaQXMBUxEzARBgNVBAMMCnRlYW0zMC1u
ZXSCFHuCtenaGQmZK3THjzb01OW4vefqMBMGA1UdJQQMMAoGCCsGAQUFBwMCMAsG
A1UdDwQEAwIHgDANBgkqhkiG9w0BAQsFAAOCAQEAwuKjqTsVDo/f23FdbTQ77vUd
VDVy85mRalK+vSiU82zg2/1NJsJuToBI/4gKsoCs7YBqEVcKrTvsk68jnm26KbUn
s6IhbyLrnROqW9TUIzxdUmb7rLtQ3LHz7Z9YfH99YioMn3Dt+PZzrl6+cjgGvZwL
hgXQdVmESyjpRo7K5PIYTXlqryKKMM98cQ5CBbuk0ZrlepzDj79Gb+U2lHjXVeh8
Vi0Y/VVus/g00Ytm6OFwwAF7wQb+09GQ+cznzqkEgYT3ug5mqBV+5EFaTX7dfjeB
PAtUy+KAu4GQkTzvPEjGVryu1GU3jJ75Hu1SrLGhCNzmlMDpEYpxBIXkiL8U+w==
-----END CERTIFICATE-----
