Certificate:
    Data:
        Version: 3 (0x2)
        Serial Number:
            19:54:d7:f6:a1:cd:51:3a:93:3e:9a:fb:81:5a:5d:d8
        Signature Algorithm: sha256WithRSAEncryption
        Issuer: CN=team211-net
        Validity
            Not Before: May 18 19:06:55 2022 GMT
            Not After : May  2 19:06:55 2025 GMT
        Subject: CN=team211-server
        Subject Public Key Info:
            Public Key Algorithm: rsaEncryption
                RSA Public-Key: (2048 bit)
                Modulus:
                    00:d9:97:a1:b6:44:69:39:33:7e:94:62:cf:cc:95:
                    74:11:f4:35:9b:1d:88:ef:ac:2d:d3:a4:83:fd:77:
                    30:34:ba:de:91:1b:c2:8f:eb:2f:ca:b0:cc:77:62:
                    fc:f7:9a:37:7f:1d:06:87:4f:d8:d3:50:d1:d4:8c:
                    eb:cb:5b:71:57:f4:de:8e:e1:84:3e:ae:5e:e9:8b:
                    6e:49:bb:ef:a1:31:ef:e6:0f:7d:de:db:50:31:64:
                    82:3a:3c:03:e1:92:96:d0:93:72:e7:9f:6f:50:db:
                    79:cc:f0:7c:38:fd:17:41:0e:e4:54:1d:1a:fa:7b:
                    e3:57:e6:43:59:46:f6:28:51:d7:71:34:7c:56:a9:
                    da:78:19:63:f3:c9:2e:b8:15:61:14:93:54:c8:0f:
                    ec:a5:7e:48:58:92:47:c9:af:d7:88:36:18:56:4d:
                    35:1e:5c:59:92:a7:6b:34:dc:7b:fd:9e:9d:48:07:
                    7d:6c:30:c7:0f:4e:9f:45:55:c9:e2:b6:be:44:4c:
                    2c:8d:b1:b9:84:98:94:6a:53:27:f8:3d:a5:49:f4:
                    b4:3a:9c:95:c8:1b:39:74:1f:2b:3e:bf:24:2e:44:
                    10:78:21:c6:fe:64:fe:5f:ca:e7:46:d5:44:46:04:
                    aa:2d:31:9f:d8:73:00:18:d6:89:5f:a6:64:14:3c:
                    31:ab
                Exponent: 65537 (0x10001)
        X509v3 extensions:
            X509v3 Basic Constraints: 
                CA:FALSE
            X509v3 Subject Key Identifier: 
                3C:B3:73:00:29:EF:73:CF:05:3D:D9:2D:37:50:FA:40:86:EB:82:16
            X509v3 Authority Key Identifier: 
                keyid:F3:5E:E4:25:FC:01:34:70:9B:EC:DB:68:C6:2B:70:C2:B8:C5:3A:F8
                DirName:/CN=team211-net
                serial:64:BB:E2:E6:BD:76:7D:35:7B:3E:26:7C:86:3B:0A:93:EE:86:24:31

            X509v3 Extended Key Usage: 
                TLS Web Server Authentication
            X509v3 Key Usage: 
                Digital Signature, Key Encipherment
            X509v3 Subject Alternative Name: 
                DNS:team211-server
    Signature Algorithm: sha256WithRSAEncryption
         4e:d7:43:85:17:bc:5f:6a:d8:7c:83:ff:ce:41:54:b8:58:db:
         9a:c9:46:2a:a0:87:16:f4:e0:a5:ba:20:15:45:39:f0:4d:49:
         42:4d:ba:60:5b:26:2c:5e:79:5c:05:83:e9:5c:58:0e:72:a4:
         d8:a3:94:76:52:7a:7a:8f:23:ad:89:65:c8:1f:69:4b:a8:fb:
         37:60:f9:2b:db:9a:bc:92:29:65:76:6c:c6:de:da:64:26:ce:
         35:87:f2:eb:43:7b:44:b8:c8:58:42:68:92:60:c4:0a:86:3e:
         46:7a:47:f3:e4:fc:5b:16:da:dd:d7:94:1b:df:0e:6f:85:53:
         ed:17:44:20:3e:49:9a:95:f8:aa:6f:0d:e9:3f:f9:4a:cd:ff:
         40:f4:c6:f4:08:cd:4a:57:3b:81:81:79:f1:5e:5c:ea:00:c6:
         6f:2e:a0:de:68:3b:32:fb:80:1a:3f:aa:48:f1:55:dc:a3:28:
         d0:6f:87:5c:6f:cd:f0:58:e9:49:a0:85:40:ff:f6:74:78:89:
         b9:a5:57:ed:93:32:25:bd:22:60:73:00:ae:5e:49:f9:1e:6b:
         2c:80:f7:37:2a:ff:8f:8e:90:e2:1f:77:95:64:1b:89:9d:77:
         31:a1:d8:ce:72:39:1b:b9:5e:65:59:0a:0e:a0:45:c0:54:3e:
         de:54:51:92
-----BEGIN CERTIFICATE-----
MIIDdzCCAl+gAwIBAgIQGVTX9qHNUTqTPpr7gVpd2DANBgkqhkiG9w0BAQsFADAW
MRQwEgYDVQQDDAt0ZWFtMjExLW5ldDAeFw0yMjA1MTgxOTA2NTVaFw0yNTA1MDIx
OTA2NTVaMBkxFzAVBgNVBAMMDnRlYW0yMTEtc2VydmVyMIIBIjANBgkqhkiG9w0B
AQEFAAOCAQ8AMIIBCgKCAQEA2ZehtkRpOTN+lGLPzJV0EfQ1mx2I76wt06SD/Xcw
NLrekRvCj+svyrDMd2L895o3fx0Gh0/Y01DR1Izry1txV/TejuGEPq5e6YtuSbvv
oTHv5g993ttQMWSCOjwD4ZKW0JNy559vUNt5zPB8OP0XQQ7kVB0a+nvjV+ZDWUb2
KFHXcTR8VqnaeBlj88kuuBVhFJNUyA/spX5IWJJHya/XiDYYVk01HlxZkqdrNNx7
/Z6dSAd9bDDHD06fRVXJ4ra+REwsjbG5hJiUalMn+D2lSfS0OpyVyBs5dB8rPr8k
LkQQeCHG/mT+X8rnRtVERgSqLTGf2HMAGNaJX6ZkFDwxqwIDAQABo4G9MIG6MAkG
A1UdEwQCMAAwHQYDVR0OBBYEFDyzcwAp73PPBT3ZLTdQ+kCG64IWMFEGA1UdIwRK
MEiAFPNe5CX8ATRwm+zbaMYrcMK4xTr4oRqkGDAWMRQwEgYDVQQDDAt0ZWFtMjEx
LW5ldIIUZLvi5r12fTV7PiZ8hjsKk+6GJDEwEwYDVR0lBAwwCgYIKwYBBQUHAwEw
CwYDVR0PBAQDAgWgMBkGA1UdEQQSMBCCDnRlYW0yMTEtc2VydmVyMA0GCSqGSIb3
DQEBCwUAA4IBAQBO10OFF7xfath8g//OQVS4WNuayUYqoIcW9OCluiAVRTnwTUlC
TbpgWyYsXnlcBYPpXFgOcqTYo5R2Unp6jyOtiWXIH2lLqPs3YPkr25q8killdmzG
3tpkJs41h/LrQ3tEuMhYQmiSYMQKhj5Gekfz5PxbFtrd15Qb3w5vhVPtF0QgPkma
lfiqbw3pP/lKzf9A9Mb0CM1KVzuBgXnxXlzqAMZvLqDeaDsy+4AaP6pI8VXcoyjQ
b4dcb83wWOlJoIVA//Z0eIm5pVftkzIlvSJgcwCuXkn5HmssgPc3Kv+PjpDiH3eV
ZBuJnXcxodjOcjkbuV5lWQoOoEXAVD7eVFGS
-----END CERTIFICATE-----
