Certificate:
    Data:
        Version: 3 (0x2)
        Serial Number:
            0e:20:99:53:f0:40:84:e6:21:41:51:ba:44:c7:94:9c
        Signature Algorithm: sha256WithRSAEncryption
        Issuer: CN=team400-net
        Validity
            Not Before: May 18 21:01:24 2022 GMT
            Not After : May  2 21:01:24 2025 GMT
        Subject: CN=team400-server
        Subject Public Key Info:
            Public Key Algorithm: rsaEncryption
                RSA Public-Key: (2048 bit)
                Modulus:
                    00:b1:0d:cc:1b:82:42:36:a0:06:74:d5:6f:eb:2b:
                    0e:a2:e5:25:a6:f4:90:d9:48:47:60:e0:1b:0e:d2:
                    08:28:b0:41:8d:40:4e:d3:9f:3d:26:eb:30:d1:eb:
                    01:0f:1d:62:67:e2:86:07:4a:6b:35:11:51:5f:09:
                    8d:ec:83:71:1e:fa:56:2d:94:f3:34:20:ce:ba:24:
                    be:04:d1:72:18:61:31:36:52:52:71:5c:6a:7e:f4:
                    ab:47:d2:d7:6d:fb:91:59:85:36:f3:52:92:1c:a5:
                    15:1d:86:86:cb:b9:86:19:aa:e6:59:a9:30:6c:b9:
                    1f:4c:df:33:01:0f:bb:b3:e5:eb:bb:06:bf:a4:b0:
                    17:f9:c6:a4:79:a8:c8:b9:ae:d2:b7:cf:5b:f6:0c:
                    94:8e:2d:d6:8a:f3:ae:c1:d1:88:f0:80:fd:f7:c0:
                    5d:61:53:67:b9:5e:82:73:cf:a3:51:be:96:b5:49:
                    25:24:63:ee:a6:a9:b3:51:54:4d:d6:6b:72:1e:b4:
                    7e:19:c0:d4:e6:f6:55:77:f8:da:3d:2a:d6:77:48:
                    70:47:a2:37:99:f1:ea:3e:8a:2a:07:30:e3:c8:cd:
                    1b:11:9a:a2:22:72:db:e1:e2:20:84:7d:2f:c4:ba:
                    af:b7:99:46:3c:e6:74:b7:91:3c:be:37:91:2c:2c:
                    6b:df
                Exponent: 65537 (0x10001)
        X509v3 extensions:
            X509v3 Basic Constraints: 
                CA:FALSE
            X509v3 Subject Key Identifier: 
                59:D9:69:50:15:C1:56:77:B4:3A:B8:85:41:0E:B4:0E:43:D3:F6:EE
            X509v3 Authority Key Identifier: 
                keyid:05:17:8B:97:FB:53:FA:E3:14:7B:92:B3:94:E6:17:A9:8A:A3:0A:CF
                DirName:/CN=team400-net
                serial:46:15:4B:E5:8E:41:7B:18:D6:31:47:92:1D:C4:A8:CC:9C:DF:B0:B6

            X509v3 Extended Key Usage: 
                TLS Web Server Authentication
            X509v3 Key Usage: 
                Digital Signature, Key Encipherment
            X509v3 Subject Alternative Name: 
                DNS:team400-server
    Signature Algorithm: sha256WithRSAEncryption
         ba:03:e4:5c:36:ad:cc:5c:99:7d:d0:f4:b8:72:4b:d1:48:f2:
         a6:a6:79:ad:a9:0b:82:2d:11:dc:a8:b4:20:9d:3d:91:71:e1:
         6d:ab:6b:e1:d4:b4:67:26:40:69:5c:b8:04:f4:a0:b2:82:55:
         e0:be:a7:81:1a:e9:02:f4:96:6c:7d:18:bb:65:b3:d5:89:a4:
         7b:fc:96:5c:b4:c2:84:da:36:4a:b8:c4:30:2d:3e:f0:a6:c6:
         ec:c6:f3:a1:ea:01:54:d2:76:a6:78:e7:d1:8d:4a:d7:15:0a:
         84:83:cd:9e:2f:e5:5c:4b:75:0c:76:22:45:18:6e:2b:9b:1e:
         64:f4:66:cb:f3:dd:e0:7f:25:f4:16:4a:e6:78:f1:e0:44:e2:
         c3:87:be:f8:60:9d:61:74:87:85:df:98:b5:5c:21:ce:d7:31:
         c8:ca:9b:79:86:0d:98:38:34:22:24:3a:85:f9:22:9d:ca:ff:
         05:cf:e6:45:89:2a:98:39:ba:14:cc:5d:bb:58:ef:c3:1e:29:
         cb:af:c1:cc:d1:98:e4:4c:46:c2:7d:5d:ce:1e:96:84:c7:70:
         82:13:d4:ea:e1:2c:43:29:ee:c4:4a:fb:ac:52:d2:84:98:37:
         27:ea:16:7b:eb:b0:e2:ef:2e:ce:74:3f:5c:0c:72:54:68:c0:
         73:58:a7:4f
-----BEGIN CERTIFICATE-----
MIIDdzCCAl+gAwIBAgIQDiCZU/BAhOYhQVG6RMeUnDANBgkqhkiG9w0BAQsFADAW
MRQwEgYDVQQDDAt0ZWFtNDAwLW5ldDAeFw0yMjA1MTgyMTAxMjRaFw0yNTA1MDIy
MTAxMjRaMBkxFzAVBgNVBAMMDnRlYW00MDAtc2VydmVyMIIBIjANBgkqhkiG9w0B
AQEFAAOCAQ8AMIIBCgKCAQEAsQ3MG4JCNqAGdNVv6ysOouUlpvSQ2UhHYOAbDtII
KLBBjUBO0589Jusw0esBDx1iZ+KGB0prNRFRXwmN7INxHvpWLZTzNCDOuiS+BNFy
GGExNlJScVxqfvSrR9LXbfuRWYU281KSHKUVHYaGy7mGGarmWakwbLkfTN8zAQ+7
s+Xruwa/pLAX+cakeajIua7St89b9gyUji3WivOuwdGI8ID998BdYVNnuV6Cc8+j
Ub6WtUklJGPupqmzUVRN1mtyHrR+GcDU5vZVd/jaPSrWd0hwR6I3mfHqPooqBzDj
yM0bEZqiInLb4eIghH0vxLqvt5lGPOZ0t5E8vjeRLCxr3wIDAQABo4G9MIG6MAkG
A1UdEwQCMAAwHQYDVR0OBBYEFFnZaVAVwVZ3tDq4hUEOtA5D0/buMFEGA1UdIwRK
MEiAFAUXi5f7U/rjFHuSs5TmF6mKowrPoRqkGDAWMRQwEgYDVQQDDAt0ZWFtNDAw
LW5ldIIURhVL5Y5BexjWMUeSHcSozJzfsLYwEwYDVR0lBAwwCgYIKwYBBQUHAwEw
CwYDVR0PBAQDAgWgMBkGA1UdEQQSMBCCDnRlYW00MDAtc2VydmVyMA0GCSqGSIb3
DQEBCwUAA4IBAQC6A+RcNq3MXJl90PS4ckvRSPKmpnmtqQuCLRHcqLQgnT2RceFt
q2vh1LRnJkBpXLgE9KCyglXgvqeBGukC9JZsfRi7ZbPViaR7/JZctMKE2jZKuMQw
LT7wpsbsxvOh6gFU0nameOfRjUrXFQqEg82eL+VcS3UMdiJFGG4rmx5k9GbL893g
fyX0FkrmePHgROLDh774YJ1hdIeF35i1XCHO1zHIypt5hg2YODQiJDqF+SKdyv8F
z+ZFiSqYOboUzF27WO/DHinLr8HM0ZjkTEbCfV3OHpaEx3CCE9Tq4SxDKe7ESvus
UtKEmDcn6hZ767Di7y7OdD9cDHJUaMBzWKdP
-----END CERTIFICATE-----
