Certificate:
    Data:
        Version: 3 (0x2)
        Serial Number:
            42:37:76:5f:7c:69:12:1b:62:1e:68:47:2f:0a:46:d1
        Signature Algorithm: sha256WithRSAEncryption
        Issuer: CN=team414-net
        Validity
            Not Before: May 18 20:58:14 2022 GMT
            Not After : May  2 20:58:14 2025 GMT
        Subject: CN=team414-client
        Subject Public Key Info:
            Public Key Algorithm: rsaEncryption
                RSA Public-Key: (2048 bit)
                Modulus:
                    00:96:00:2e:75:33:b6:b9:cb:d0:bd:23:07:56:c8:
                    db:c3:39:e0:f9:3d:4c:98:bb:9b:19:cf:76:ee:30:
                    ea:8a:19:16:36:d4:88:af:d4:89:aa:78:c9:0d:87:
                    6c:58:01:90:35:fa:9f:8c:5c:48:cb:f2:c7:a3:d6:
                    bd:25:08:0f:f9:8f:db:ad:5e:ed:d1:04:1c:6e:06:
                    71:9b:b5:a0:4d:ea:56:f0:6f:ee:be:42:0b:06:4e:
                    64:80:73:7b:a7:b9:f1:b4:fd:60:73:e3:ea:9a:29:
                    c9:0f:36:fe:8d:f6:87:38:4f:09:49:41:1d:d8:82:
                    1a:e6:d7:9d:19:29:5c:16:12:0c:18:2f:ea:3f:0e:
                    22:9e:cc:3c:b7:f1:a5:ba:16:ec:d0:a1:78:bb:58:
                    7a:ad:70:cb:b3:3f:41:ae:c3:43:c1:28:fa:d9:f4:
                    97:d6:e0:54:69:ff:4b:89:84:ca:b7:05:7d:ce:07:
                    e0:b7:f7:09:6d:3d:72:bd:3c:43:8b:01:39:41:df:
                    f7:15:26:72:4d:b9:a9:47:d5:08:75:ee:3b:9e:83:
                    06:80:e9:6f:62:e8:6e:64:a1:ad:c0:dd:8d:b4:22:
                    be:73:91:c8:d5:e0:18:d0:17:0a:2a:af:de:28:18:
                    2c:ab:29:56:2f:fa:a6:a0:77:cd:5b:2b:f8:35:28:
                    fc:05
                Exponent: 65537 (0x10001)
        X509v3 extensions:
            X509v3 Basic Constraints: 
                CA:FALSE
            X509v3 Subject Key Identifier: 
                56:47:45:B7:58:C9:5C:FF:6F:08:F1:07:38:C6:0C:FA:24:8D:42:90
            X509v3 Authority Key Identifier: 
                keyid:73:69:18:F0:6C:DA:83:96:B5:ED:6D:80:60:F0:50:A1:D3:47:8A:EF
                DirName:/CN=team414-net
                serial:72:76:5F:99:8B:E9:81:7F:27:45:99:91:9A:77:3F:6A:B0:EC:CD:CA

            X509v3 Extended Key Usage: 
                TLS Web Client Authentication
            X509v3 Key Usage: 
                Digital Signature
    Signature Algorithm: sha256WithRSAEncryption
         9d:a6:22:de:ef:d6:02:f6:e5:c7:12:7c:a3:52:a7:32:d3:af:
         13:23:de:ea:ad:2d:70:85:bb:aa:93:14:16:2a:00:91:e2:1d:
         5a:8a:54:69:3a:b6:40:52:27:57:bc:c8:c5:f3:6d:ba:2e:97:
         c1:c6:ed:c0:ae:53:20:19:62:39:e4:aa:6b:72:05:49:f2:5c:
         cc:a6:58:93:3c:c8:c5:eb:2a:d1:6d:5f:e3:77:9a:86:a6:0c:
         02:bb:50:ba:25:ae:1a:b6:23:91:92:ec:08:6a:1d:fd:d9:d0:
         b4:8b:94:9e:33:eb:58:33:5e:c7:f3:88:ef:43:47:33:43:5c:
         ae:3e:61:1c:3a:f4:3f:01:af:0a:fa:9f:9c:ab:a1:5a:ba:f1:
         4e:07:9a:ab:72:1d:e2:22:f3:9d:fc:ef:60:ff:ef:19:c7:af:
         1f:aa:4f:3c:65:b0:ed:d8:f2:11:e6:7c:6e:fe:a7:6b:9d:01:
         e8:2f:9a:ff:10:13:f5:cc:05:3d:2b:8c:82:11:15:2d:18:3f:
         25:74:1a:80:00:95:eb:42:7c:9d:80:2c:9b:4d:01:2e:eb:9d:
         af:e6:e1:aa:b7:f0:ff:2b:e3:54:75:64:9f:2b:9f:09:c9:25:
         cb:bb:06:c8:12:20:c5:11:14:63:78:a0:ec:e7:98:e0:bf:03:
         84:67:af:9d
-----BEGIN CERTIFICATE-----
MIIDXDCCAkSgAwIBAgIQQjd2X3xpEhtiHmhHLwpG0TANBgkqhkiG9w0BAQsFADAW
MRQwEgYDVQQDDAt0ZWFtNDE0LW5ldDAeFw0yMjA1MTgyMDU4MTRaFw0yNTA1MDIy
MDU4MTRaMBkxFzAVBgNVBAMMDnRlYW00MTQtY2xpZW50MIIBIjANBgkqhkiG9w0B
AQEFAAOCAQ8AMIIBCgKCAQEAlgAudTO2ucvQvSMHVsjbwzng+T1MmLubGc927jDq
ihkWNtSIr9SJqnjJDYdsWAGQNfqfjFxIy/LHo9a9JQgP+Y/brV7t0QQcbgZxm7Wg
TepW8G/uvkILBk5kgHN7p7nxtP1gc+PqminJDzb+jfaHOE8JSUEd2IIa5tedGSlc
FhIMGC/qPw4insw8t/Gluhbs0KF4u1h6rXDLsz9BrsNDwSj62fSX1uBUaf9LiYTK
twV9zgfgt/cJbT1yvTxDiwE5Qd/3FSZyTbmpR9UIde47noMGgOlvYuhuZKGtwN2N
tCK+c5HI1eAY0BcKKq/eKBgsqylWL/qmoHfNWyv4NSj8BQIDAQABo4GiMIGfMAkG
A1UdEwQCMAAwHQYDVR0OBBYEFFZHRbdYyVz/bwjxBzjGDPokjUKQMFEGA1UdIwRK
MEiAFHNpGPBs2oOWte1tgGDwUKHTR4rvoRqkGDAWMRQwEgYDVQQDDAt0ZWFtNDE0
LW5ldIIUcnZfmYvpgX8nRZmRmnc/arDszcowEwYDVR0lBAwwCgYIKwYBBQUHAwIw
CwYDVR0PBAQDAgeAMA0GCSqGSIb3DQEBCwUAA4IBAQCdpiLe79YC9uXHEnyjUqcy
068TI97qrS1whbuqkxQWKgCR4h1ailRpOrZAUidXvMjF8226LpfBxu3ArlMgGWI5
5KprcgVJ8lzMpliTPMjF6yrRbV/jd5qGpgwCu1C6Ja4atiORkuwIah392dC0i5Se
M+tYM17H84jvQ0czQ1yuPmEcOvQ/Aa8K+p+cq6FauvFOB5qrch3iIvOd/O9g/+8Z
x68fqk88ZbDt2PIR5nxu/qdrnQHoL5r/EBP1zAU9K4yCERUtGD8ldBqAAJXrQnyd
gCybTQEu652v5uGqt/D/K+NUdWSfK58JySXLuwbIEiDFERRjeKDs55jgvwOEZ6+d
-----END CERTIFICATE-----
