Certificate:
    Data:
        Version: 3 (0x2)
        Serial Number:
            ad:0b:94:0c:07:98:03:ed:1c:d6:c5:f4:80:06:7e:21
        Signature Algorithm: sha256WithRSAEncryption
        Issuer: CN=team298-net
        Validity
            Not Before: May 18 20:05:18 2022 GMT
            Not After : May  2 20:05:18 2025 GMT
        Subject: CN=team298-server
        Subject Public Key Info:
            Public Key Algorithm: rsaEncryption
                RSA Public-Key: (2048 bit)
                Modulus:
                    00:f3:f0:4d:e4:7c:01:ee:07:e6:e7:81:53:0b:0e:
                    e0:c2:ee:85:81:aa:11:d7:1d:e2:ab:96:00:91:b1:
                    76:3d:8f:d0:14:84:bc:f1:27:17:e3:59:22:56:99:
                    fe:c3:46:4f:b3:3e:62:c0:c7:a3:ba:66:cc:9b:51:
                    86:94:7a:9f:13:4a:f1:5b:a5:0a:0c:c3:a8:09:b4:
                    d6:d2:41:c6:63:8f:b9:08:dd:3d:c5:10:2b:e5:3d:
                    a9:86:90:0e:1e:f4:5b:4b:f7:07:ce:c2:25:02:12:
                    f3:e2:a0:15:b9:7f:17:78:4b:02:de:e5:41:f7:00:
                    e9:ff:44:44:67:50:14:27:dc:3e:bd:22:5a:58:8c:
                    69:a1:9c:57:d6:28:83:9c:47:2d:86:d8:0d:de:de:
                    0e:f0:65:83:75:91:c7:46:fc:4c:20:d2:26:91:06:
                    e8:be:10:02:50:53:31:4d:c4:db:66:41:7b:61:48:
                    19:f7:6f:47:98:e5:88:16:5d:86:7b:ca:df:46:aa:
                    74:fb:2e:7c:c1:e8:fa:67:5d:92:7d:52:ae:ed:67:
                    89:b4:e1:a7:e2:78:fc:b6:20:15:af:98:f6:3a:6a:
                    3c:02:82:1a:0a:21:d5:93:59:cf:3b:44:49:f0:d9:
                    f5:ab:f2:7b:95:62:a2:90:f4:91:eb:8d:79:b9:90:
                    3a:31
                Exponent: 65537 (0x10001)
        X509v3 extensions:
            X509v3 Basic Constraints: 
                CA:FALSE
            X509v3 Subject Key Identifier: 
                F4:11:FA:0E:D4:3A:31:AB:5E:51:72:AF:2A:72:30:11:2E:66:0C:41
            X509v3 Authority Key Identifier: 
                keyid:00:4B:FE:33:F3:AE:7E:88:8B:A6:CD:B0:7D:9F:9B:6A:33:0B:83:7D
                DirName:/CN=team298-net
                serial:4A:F3:A4:7D:4F:04:CD:78:D0:49:28:BE:9C:A6:05:0C:44:61:72:EF

            X509v3 Extended Key Usage: 
                TLS Web Server Authentication
            X509v3 Key Usage: 
                Digital Signature, Key Encipherment
            X509v3 Subject Alternative Name: 
                DNS:team298-server
    Signature Algorithm: sha256WithRSAEncryption
         92:4b:9f:46:85:a5:e3:a1:97:12:00:6a:ad:27:7e:8a:91:58:
         9c:e6:ab:a4:ad:2c:80:29:f3:34:89:8e:b0:52:c2:2f:59:cb:
         a4:e8:d3:3e:10:f8:9e:ca:8f:7e:4d:e7:03:e3:e7:76:57:50:
         d5:29:fe:8a:5a:89:5e:fd:db:21:ae:77:6e:c5:84:a9:03:37:
         d7:44:04:11:1e:b8:39:c2:e5:00:8f:b3:c2:f6:66:dd:5e:fe:
         3f:3c:87:b6:82:93:10:2c:c0:1c:c0:61:a8:28:38:71:2f:eb:
         f2:aa:b5:94:60:0f:69:dc:c5:6e:7d:5a:bd:e6:63:68:81:e9:
         6d:25:f1:42:90:97:63:a4:5b:b0:8d:d3:43:84:c1:55:a7:e0:
         4f:bf:ba:a3:ec:3a:93:a5:65:c1:09:91:f5:eb:0d:49:c4:a4:
         d8:8a:c6:5a:17:37:9e:c4:17:fb:31:8d:48:87:27:69:d6:14:
         ee:be:88:e1:6d:eb:f0:5a:7e:5d:a7:d1:39:46:71:8b:da:ad:
         a5:87:68:d3:61:a2:99:2f:00:c9:d4:1e:16:7a:35:f6:d4:ed:
         ff:f3:2a:66:bb:70:5a:fb:3b:b8:ae:3f:0a:57:f4:e7:f5:82:
         3e:e7:c4:c2:f5:06:82:d6:c0:a4:70:7c:9f:d7:f7:21:96:94:
         cf:6f:e8:c7
-----BEGIN CERTIFICATE-----
MIIDeDCCAmCgAwIBAgIRAK0LlAwHmAPtHNbF9IAGfiEwDQYJKoZIhvcNAQELBQAw
FjEUMBIGA1UEAwwLdGVhbTI5OC1uZXQwHhcNMjIwNTE4MjAwNTE4WhcNMjUwNTAy
MjAwNTE4WjAZMRcwFQYDVQQDDA50ZWFtMjk4LXNlcnZlcjCCASIwDQYJKoZIhvcN
AQEBBQADggEPADCCAQoCggEBAPPwTeR8Ae4H5ueBUwsO4MLuhYGqEdcd4quWAJGx
dj2P0BSEvPEnF+NZIlaZ/sNGT7M+YsDHo7pmzJtRhpR6nxNK8VulCgzDqAm01tJB
xmOPuQjdPcUQK+U9qYaQDh70W0v3B87CJQIS8+KgFbl/F3hLAt7lQfcA6f9ERGdQ
FCfcPr0iWliMaaGcV9Yog5xHLYbYDd7eDvBlg3WRx0b8TCDSJpEG6L4QAlBTMU3E
22ZBe2FIGfdvR5jliBZdhnvK30aqdPsufMHo+mddkn1Sru1nibThp+J4/LYgFa+Y
9jpqPAKCGgoh1ZNZzztESfDZ9avye5ViopD0keuNebmQOjECAwEAAaOBvTCBujAJ
BgNVHRMEAjAAMB0GA1UdDgQWBBT0EfoO1Doxq15Rcq8qcjARLmYMQTBRBgNVHSME
SjBIgBQAS/4z865+iIumzbB9n5tqMwuDfaEapBgwFjEUMBIGA1UEAwwLdGVhbTI5
OC1uZXSCFErzpH1PBM140EkovpymBQxEYXLvMBMGA1UdJQQMMAoGCCsGAQUFBwMB
MAsGA1UdDwQEAwIFoDAZBgNVHREEEjAQgg50ZWFtMjk4LXNlcnZlcjANBgkqhkiG
9w0BAQsFAAOCAQEAkkufRoWl46GXEgBqrSd+ipFYnOarpK0sgCnzNImOsFLCL1nL
pOjTPhD4nsqPfk3nA+PndldQ1Sn+ilqJXv3bIa53bsWEqQM310QEER64OcLlAI+z
wvZm3V7+PzyHtoKTECzAHMBhqCg4cS/r8qq1lGAPadzFbn1aveZjaIHpbSXxQpCX
Y6RbsI3TQ4TBVafgT7+6o+w6k6VlwQmR9esNScSk2IrGWhc3nsQX+zGNSIcnadYU
7r6I4W3r8Fp+XafROUZxi9qtpYdo02GimS8AydQeFno19tTt//MqZrtwWvs7uK4/
Clf05/WCPufEwvUGgtbApHB8n9f3IZaUz2/oxw==
-----END CERTIFICATE-----
