Certificate:
    Data:
        Version: 3 (0x2)
        Serial Number:
            83:69:ed:c8:45:dc:87:1a:c4:79:c9:42:8e:d4:24:d4
        Signature Algorithm: sha256WithRSAEncryption
        Issuer: CN=team659-net
        Validity
            Not Before: May 18 23:22:57 2022 GMT
            Not After : May  2 23:22:57 2025 GMT
        Subject: CN=team659-client
        Subject Public Key Info:
            Public Key Algorithm: rsaEncryption
                RSA Public-Key: (2048 bit)
                Modulus:
                    00:cc:67:0a:73:b7:1b:56:94:60:99:88:e0:8c:d0:
                    13:5c:5c:e7:b9:01:7e:2e:2d:23:3c:c5:dd:f0:1e:
                    02:41:75:f0:42:ac:47:2d:63:9e:de:b6:79:58:b5:
                    93:02:63:98:94:b9:a1:f3:f9:b0:70:09:ea:2e:37:
                    40:df:3b:f4:9b:c2:1e:96:2b:ac:94:36:d3:9b:ba:
                    c0:2e:37:45:08:e7:d5:1e:8d:58:eb:88:d9:cd:e6:
                    e1:b8:22:9c:8b:47:9c:47:01:38:b4:6b:c6:b8:22:
                    e5:53:3a:66:18:c6:72:57:0b:ac:77:ab:e5:fe:02:
                    b8:27:e2:3e:b2:3c:df:34:f2:6d:e7:e9:97:c8:56:
                    cc:58:14:32:76:55:10:98:da:44:c4:53:78:87:4f:
                    01:c8:65:64:56:23:a5:c8:a6:4e:e1:70:81:c6:3a:
                    77:82:fc:70:4f:4f:f0:00:a8:f7:12:1a:d2:45:7d:
                    da:ea:ac:e1:b1:b9:e7:86:f7:04:c2:bc:5a:cb:19:
                    28:72:f9:96:d7:02:fe:a1:ce:3b:d0:c6:21:0e:cb:
                    ba:9a:c3:7e:b1:7c:e0:df:7f:77:2e:17:e4:d3:5e:
                    44:60:ed:bd:cd:25:03:7f:57:35:82:a6:c2:af:59:
                    ef:2c:45:10:b0:a2:69:3b:9f:72:fe:91:3d:5e:2b:
                    84:65
                Exponent: 65537 (0x10001)
        X509v3 extensions:
            X509v3 Basic Constraints: 
                CA:FALSE
            X509v3 Subject Key Identifier: 
                81:07:65:5F:2D:0D:4C:6E:EE:31:86:02:66:B0:0B:08:B0:47:0C:57
            X509v3 Authority Key Identifier: 
                keyid:DF:F0:7F:44:11:76:D8:D3:C5:A8:5B:24:CC:F3:48:3B:B9:45:23:F3
                DirName:/CN=team659-net
                serial:77:4E:9E:26:9A:5F:A1:81:5E:02:E6:E5:EA:88:2D:DE:CC:09:86:39

            X509v3 Extended Key Usage: 
                TLS Web Client Authentication
            X509v3 Key Usage: 
                Digital Signature
    Signature Algorithm: sha256WithRSAEncryption
         19:67:a5:97:df:cf:03:c3:2a:ac:e7:96:3e:bd:d6:cc:19:65:
         e5:3d:5f:78:d2:e4:c3:7f:77:84:29:97:45:86:3a:90:79:55:
         05:5b:4a:dc:af:95:ad:62:d9:c7:20:17:81:5f:1b:c7:3f:6d:
         03:60:df:36:8a:d3:7c:8d:9b:fb:dd:28:5a:e4:41:04:74:0c:
         b0:b8:bd:75:84:e1:6f:50:66:1b:66:85:3f:97:6f:f3:4c:77:
         28:d5:78:f4:55:90:af:41:3f:44:94:57:dd:9b:1d:66:07:90:
         f7:9d:6f:dc:b1:8e:8c:07:87:1b:69:f9:89:4a:e7:bb:28:d7:
         10:cc:ce:06:68:be:cf:57:45:b5:af:4e:07:e0:9c:15:49:0e:
         48:ec:13:6b:68:e5:4f:c1:61:bd:c5:cc:c5:7f:8b:ae:cb:94:
         c3:b4:03:fb:2a:f5:e3:c2:be:d4:e7:c3:4a:a7:0f:a1:49:05:
         1b:3b:f0:b4:ae:37:2b:7e:92:6d:d7:5b:03:f3:a5:30:7e:aa:
         8c:92:6d:23:7c:a8:a3:6a:ab:aa:e1:b4:16:cf:77:f5:de:75:
         b5:69:82:d6:fd:23:86:d3:4c:13:5a:fb:d4:5a:be:13:d9:c6:
         11:88:c6:a4:4c:a8:09:f7:6f:be:9a:3e:75:0d:8e:66:5e:cb:
         af:6f:c1:93
-----BEGIN CERTIFICATE-----
MIIDXTCCAkWgAwIBAgIRAINp7chF3IcaxHnJQo7UJNQwDQYJKoZIhvcNAQELBQAw
FjEUMBIGA1UEAwwLdGVhbTY1OS1uZXQwHhcNMjIwNTE4MjMyMjU3WhcNMjUwNTAy
MjMyMjU3WjAZMRcwFQYDVQQDDA50ZWFtNjU5LWNsaWVudDCCASIwDQYJKoZIhvcN
AQEBBQADggEPADCCAQoCggEBAMxnCnO3G1aUYJmI4IzQE1xc57kBfi4tIzzF3fAe
AkF18EKsRy1jnt62eVi1kwJjmJS5ofP5sHAJ6i43QN879JvCHpYrrJQ205u6wC43
RQjn1R6NWOuI2c3m4bginItHnEcBOLRrxrgi5VM6ZhjGclcLrHer5f4CuCfiPrI8
3zTybefpl8hWzFgUMnZVEJjaRMRTeIdPAchlZFYjpcimTuFwgcY6d4L8cE9P8ACo
9xIa0kV92uqs4bG554b3BMK8WssZKHL5ltcC/qHOO9DGIQ7LuprDfrF84N9/dy4X
5NNeRGDtvc0lA39XNYKmwq9Z7yxFELCiaTufcv6RPV4rhGUCAwEAAaOBojCBnzAJ
BgNVHRMEAjAAMB0GA1UdDgQWBBSBB2VfLQ1Mbu4xhgJmsAsIsEcMVzBRBgNVHSME
SjBIgBTf8H9EEXbY08WoWyTM80g7uUUj86EapBgwFjEUMBIGA1UEAwwLdGVhbTY1
OS1uZXSCFHdOniaaX6GBXgLm5eqILd7MCYY5MBMGA1UdJQQMMAoGCCsGAQUFBwMC
MAsGA1UdDwQEAwIHgDANBgkqhkiG9w0BAQsFAAOCAQEAGWell9/PA8MqrOeWPr3W
zBll5T1feNLkw393hCmXRYY6kHlVBVtK3K+VrWLZxyAXgV8bxz9tA2DfNorTfI2b
+90oWuRBBHQMsLi9dYThb1BmG2aFP5dv80x3KNV49FWQr0E/RJRX3ZsdZgeQ951v
3LGOjAeHG2n5iUrnuyjXEMzOBmi+z1dFta9OB+CcFUkOSOwTa2jlT8FhvcXMxX+L
rsuUw7QD+yr148K+1OfDSqcPoUkFGzvwtK43K36SbddbA/OlMH6qjJJtI3yoo2qr
quG0Fs939d51tWmC1v0jhtNME1r71Fq+E9nGEYjGpEyoCfdvvpo+dQ2OZl7Lr2/B
kw==
-----END CERTIFICATE-----
