Certificate:
    Data:
        Version: 3 (0x2)
        Serial Number:
            fc:d1:60:39:6b:3d:1b:8b:dd:d2:82:7f:da:57:10:0f
        Signature Algorithm: sha256WithRSAEncryption
        Issuer: CN=team659-net
        Validity
            Not Before: May 18 23:22:58 2022 GMT
            Not After : May  2 23:22:58 2025 GMT
        Subject: CN=team659-server
        Subject Public Key Info:
            Public Key Algorithm: rsaEncryption
                RSA Public-Key: (2048 bit)
                Modulus:
                    00:ea:68:86:ad:bf:b4:ca:34:19:f7:77:c2:c1:40:
                    7c:70:ea:b3:86:65:94:00:13:64:33:e0:61:64:8f:
                    74:6b:ec:be:f9:81:bc:03:d5:00:52:3a:eb:6e:a2:
                    22:96:c9:e5:e5:42:29:41:d6:b5:80:9e:34:1a:bd:
                    68:58:16:94:c7:20:e4:14:0d:bd:4d:2b:5a:a0:cd:
                    7f:b3:c2:7c:27:f8:91:6f:e4:84:6f:47:84:a2:cc:
                    70:6e:63:3a:d1:1a:be:5c:79:81:50:b4:37:3e:b1:
                    5c:8c:91:4a:ab:0a:d2:c7:25:f8:d9:30:4a:4e:9f:
                    f9:ce:0c:1b:5c:9b:31:14:bc:20:2e:0d:9c:6d:38:
                    61:11:6c:50:fe:99:a3:3d:f5:fe:70:9c:be:85:78:
                    11:a0:6d:cf:63:0f:64:6e:9a:a5:dd:94:f3:15:68:
                    3d:52:61:2c:e2:c1:ce:7a:8a:f6:d4:a6:b9:70:f7:
                    c3:6d:bf:d7:67:9a:64:e4:69:6e:c7:e1:a2:9b:be:
                    2f:22:a5:de:88:34:6e:66:c3:82:b3:2f:15:26:81:
                    93:df:18:6f:5b:ca:26:61:70:16:37:a4:ca:81:25:
                    2b:9a:0e:66:f2:c7:75:c2:19:05:fd:31:6b:b8:64:
                    d1:d4:95:2b:02:00:c3:80:37:65:5f:e8:d8:53:f1:
                    b5:e9
                Exponent: 65537 (0x10001)
        X509v3 extensions:
            X509v3 Basic Constraints: 
                CA:FALSE
            X509v3 Subject Key Identifier: 
                4A:FA:53:8B:C5:87:B5:41:5A:13:0B:1A:6A:35:F8:B6:85:E8:82:60
            X509v3 Authority Key Identifier: 
                keyid:DF:F0:7F:44:11:76:D8:D3:C5:A8:5B:24:CC:F3:48:3B:B9:45:23:F3
                DirName:/CN=team659-net
                serial:77:4E:9E:26:9A:5F:A1:81:5E:02:E6:E5:EA:88:2D:DE:CC:09:86:39

            X509v3 Extended Key Usage: 
                TLS Web Server Authentication
            X509v3 Key Usage: 
                Digital Signature, Key Encipherment
            X509v3 Subject Alternative Name: 
                DNS:team659-server
    Signature Algorithm: sha256WithRSAEncryption
         91:b1:ee:e6:ca:a5:ee:6e:89:45:6d:58:86:c8:43:31:3f:12:
         2d:12:08:93:2a:af:74:60:37:aa:1e:27:f8:8d:b8:9c:74:81:
         fd:77:3c:2c:fb:5a:c7:d2:71:01:63:d1:3d:2b:67:6c:c9:b9:
         67:34:55:26:70:6c:b1:f2:a0:17:ce:53:8c:31:ee:08:1c:53:
         e4:eb:02:06:90:48:d9:24:e6:1a:93:54:4e:b4:b9:d7:0e:5f:
         e3:d2:c1:e2:a6:ef:02:77:17:cc:9c:42:a3:e7:7f:77:57:8a:
         9e:6e:8f:48:fa:d0:80:2a:b8:51:39:9f:3f:22:9a:f2:36:75:
         30:e4:13:90:90:5d:21:ae:e4:17:c0:4b:41:02:0d:c0:28:83:
         b3:e1:7c:66:58:90:1c:c1:47:9c:d1:66:fb:a0:29:ca:03:ea:
         f8:59:6d:fb:83:1c:be:e4:4b:0a:a0:dc:a1:65:33:b1:ed:bd:
         4d:ca:54:76:69:b9:76:89:b9:12:88:2b:80:03:e4:cd:52:55:
         96:ad:34:f2:85:28:97:b8:14:a9:fb:2a:b5:d7:64:6c:d2:58:
         7e:f2:e9:a5:5a:d6:54:4b:a8:39:b0:ac:38:21:f1:83:33:40:
         b2:e4:14:72:cd:ee:7e:8e:ad:2f:c3:7f:d2:b4:15:dc:04:d0:
         33:2f:ea:45
-----BEGIN CERTIFICATE-----
MIIDeDCCAmCgAwIBAgIRAPzRYDlrPRuL3dKCf9pXEA8wDQYJKoZIhvcNAQELBQAw
FjEUMBIGA1UEAwwLdGVhbTY1OS1uZXQwHhcNMjIwNTE4MjMyMjU4WhcNMjUwNTAy
MjMyMjU4WjAZMRcwFQYDVQQDDA50ZWFtNjU5LXNlcnZlcjCCASIwDQYJKoZIhvcN
AQEBBQADggEPADCCAQoCggEBAOpohq2/tMo0Gfd3wsFAfHDqs4ZllAATZDPgYWSP
dGvsvvmBvAPVAFI6626iIpbJ5eVCKUHWtYCeNBq9aFgWlMcg5BQNvU0rWqDNf7PC
fCf4kW/khG9HhKLMcG5jOtEavlx5gVC0Nz6xXIyRSqsK0scl+NkwSk6f+c4MG1yb
MRS8IC4NnG04YRFsUP6Zoz31/nCcvoV4EaBtz2MPZG6apd2U8xVoPVJhLOLBznqK
9tSmuXD3w22/12eaZORpbsfhopu+LyKl3og0bmbDgrMvFSaBk98Yb1vKJmFwFjek
yoElK5oOZvLHdcIZBf0xa7hk0dSVKwIAw4A3ZV/o2FPxtekCAwEAAaOBvTCBujAJ
BgNVHRMEAjAAMB0GA1UdDgQWBBRK+lOLxYe1QVoTCxpqNfi2heiCYDBRBgNVHSME
SjBIgBTf8H9EEXbY08WoWyTM80g7uUUj86EapBgwFjEUMBIGA1UEAwwLdGVhbTY1
OS1uZXSCFHdOniaaX6GBXgLm5eqILd7MCYY5MBMGA1UdJQQMMAoGCCsGAQUFBwMB
MAsGA1UdDwQEAwIFoDAZBgNVHREEEjAQgg50ZWFtNjU5LXNlcnZlcjANBgkqhkiG
9w0BAQsFAAOCAQEAkbHu5sql7m6JRW1YhshDMT8SLRIIkyqvdGA3qh4n+I24nHSB
/Xc8LPtax9JxAWPRPStnbMm5ZzRVJnBssfKgF85TjDHuCBxT5OsCBpBI2STmGpNU
TrS51w5f49LB4qbvAncXzJxCo+d/d1eKnm6PSPrQgCq4UTmfPyKa8jZ1MOQTkJBd
Ia7kF8BLQQINwCiDs+F8ZliQHMFHnNFm+6ApygPq+Flt+4McvuRLCqDcoWUzse29
TcpUdmm5dom5EogrgAPkzVJVlq008oUol7gUqfsqtddkbNJYfvLppVrWVEuoObCs
OCHxgzNAsuQUcs3ufo6tL8N/0rQV3ATQMy/qRQ==
-----END CERTIFICATE-----
