Certificate:
    Data:
        Version: 3 (0x2)
        Serial Number:
            13:ec:ca:c8:53:36:d8:17:35:d4:a3:d4:49:12:78:ab
        Signature Algorithm: sha256WithRSAEncryption
        Issuer: CN=team613-net
        Validity
            Not Before: May 18 22:46:24 2022 GMT
            Not After : May  2 22:46:24 2025 GMT
        Subject: CN=team613-client
        Subject Public Key Info:
            Public Key Algorithm: rsaEncryption
                RSA Public-Key: (2048 bit)
                Modulus:
                    00:cb:9b:5d:ea:37:1a:93:20:c2:fe:15:4b:bb:e4:
                    55:36:e9:0c:54:82:ca:e0:50:c3:07:24:ba:0c:6b:
                    d3:1a:8f:67:7b:2d:f9:b8:81:f3:0e:98:b9:98:8d:
                    c6:71:73:fd:ef:53:03:2c:dc:45:b9:ce:49:2d:f4:
                    b6:6f:f2:24:61:99:57:8f:73:6b:e0:64:e6:5c:87:
                    c5:a2:b4:15:4e:d9:55:74:ab:48:22:e5:a8:12:e6:
                    71:e6:46:9e:c2:85:b1:2a:db:bc:bd:f0:1a:c0:be:
                    b2:82:d0:b9:59:06:aa:50:db:a1:3c:52:84:5e:fb:
                    63:04:8c:5e:ec:24:1e:16:0e:30:a2:f5:83:47:6e:
                    cf:0b:80:4e:e0:30:96:00:69:16:93:d3:51:da:61:
                    39:5d:04:02:7c:7e:b8:ca:44:59:98:84:6c:17:c5:
                    9e:1b:00:5f:16:43:a7:63:b7:e3:29:2c:8d:9e:56:
                    b6:d2:8c:2d:55:f8:ec:3c:45:44:35:4a:94:3f:fa:
                    b1:b7:37:61:84:68:87:6f:b0:d7:63:44:c1:56:ce:
                    81:e9:34:0d:17:7c:6b:1f:d5:fb:b4:6b:89:c1:b3:
                    95:1d:59:73:16:05:66:ee:b4:da:d7:4f:61:67:d1:
                    51:9e:1d:91:f1:71:d5:7b:15:40:f9:bd:28:ba:e7:
                    79:fd
                Exponent: 65537 (0x10001)
        X509v3 extensions:
            X509v3 Basic Constraints: 
                CA:FALSE
            X509v3 Subject Key Identifier: 
                B8:66:56:6A:D5:33:26:CB:3D:7F:5E:5D:85:5E:19:4C:EA:EE:85:54
            X509v3 Authority Key Identifier: 
                keyid:52:D1:DB:51:2E:59:1D:94:50:4F:71:2F:DC:49:9B:01:10:93:35:F2
                DirName:/CN=team613-net
                serial:4E:69:76:48:35:78:F5:8A:4A:88:23:B1:0C:C3:3F:27:08:EA:83:39

            X509v3 Extended Key Usage: 
                TLS Web Client Authentication
            X509v3 Key Usage: 
                Digital Signature
    Signature Algorithm: sha256WithRSAEncryption
         9b:3b:b1:a4:67:49:eb:ed:5a:2a:33:d5:e4:58:56:c6:32:17:
         97:f0:b2:cc:7b:f8:7e:f3:a9:d2:4d:06:9a:0b:83:86:06:4a:
         ec:f8:29:72:da:f0:1b:29:39:95:35:63:b8:cb:9c:03:fa:fa:
         95:e8:47:95:a9:12:7e:b0:d6:21:cb:fe:aa:cd:b4:05:c8:62:
         57:7d:08:70:4c:bf:80:7e:d7:e4:74:d5:7c:0f:55:80:b8:51:
         67:8d:ac:96:4e:9b:12:46:f7:26:f3:d9:29:90:8e:7b:5e:a3:
         a5:57:76:82:a9:9a:d8:5c:79:76:aa:36:1c:47:d6:d7:aa:fa:
         37:9b:ed:68:00:6d:92:e2:7d:36:74:5f:68:3a:aa:0e:6c:b3:
         b4:bc:d0:90:ea:7c:a4:17:65:1e:4b:8f:1d:b6:ac:09:a8:fe:
         b2:de:d0:13:7d:f0:96:db:89:1f:e2:aa:70:0c:08:ea:e1:2f:
         38:11:38:f4:c1:8f:72:05:9c:fc:6e:0b:f6:40:b4:af:54:66:
         d2:48:d5:d0:37:da:8e:76:34:7a:1f:8a:cc:52:52:8e:8e:c5:
         7d:0d:fa:23:f7:5a:a9:a7:b8:fb:fc:0b:48:14:2f:af:92:da:
         1a:d4:11:aa:64:a4:28:2c:a7:25:da:5b:5b:b5:68:6d:87:0f:
         dc:06:12:69
-----BEGIN CERTIFICATE-----
MIIDXDCCAkSgAwIBAgIQE+zKyFM22Bc11KPUSRJ4qzANBgkqhkiG9w0BAQsFADAW
MRQwEgYDVQQDDAt0ZWFtNjEzLW5ldDAeFw0yMjA1MTgyMjQ2MjRaFw0yNTA1MDIy
MjQ2MjRaMBkxFzAVBgNVBAMMDnRlYW02MTMtY2xpZW50MIIBIjANBgkqhkiG9w0B
AQEFAAOCAQ8AMIIBCgKCAQEAy5td6jcakyDC/hVLu+RVNukMVILK4FDDByS6DGvT
Go9ney35uIHzDpi5mI3GcXP971MDLNxFuc5JLfS2b/IkYZlXj3Nr4GTmXIfForQV
TtlVdKtIIuWoEuZx5kaewoWxKtu8vfAawL6ygtC5WQaqUNuhPFKEXvtjBIxe7CQe
Fg4wovWDR27PC4BO4DCWAGkWk9NR2mE5XQQCfH64ykRZmIRsF8WeGwBfFkOnY7fj
KSyNnla20owtVfjsPEVENUqUP/qxtzdhhGiHb7DXY0TBVs6B6TQNF3xrH9X7tGuJ
wbOVHVlzFgVm7rTa109hZ9FRnh2R8XHVexVA+b0ouud5/QIDAQABo4GiMIGfMAkG
A1UdEwQCMAAwHQYDVR0OBBYEFLhmVmrVMybLPX9eXYVeGUzq7oVUMFEGA1UdIwRK
MEiAFFLR21EuWR2UUE9xL9xJmwEQkzXyoRqkGDAWMRQwEgYDVQQDDAt0ZWFtNjEz
LW5ldIIUTml2SDV49YpKiCOxDMM/JwjqgzkwEwYDVR0lBAwwCgYIKwYBBQUHAwIw
CwYDVR0PBAQDAgeAMA0GCSqGSIb3DQEBCwUAA4IBAQCbO7GkZ0nr7VoqM9XkWFbG
MheX8LLMe/h+86nSTQaaC4OGBkrs+Cly2vAbKTmVNWO4y5wD+vqV6EeVqRJ+sNYh
y/6qzbQFyGJXfQhwTL+AftfkdNV8D1WAuFFnjayWTpsSRvcm89kpkI57XqOlV3aC
qZrYXHl2qjYcR9bXqvo3m+1oAG2S4n02dF9oOqoObLO0vNCQ6nykF2UeS48dtqwJ
qP6y3tATffCW24kf4qpwDAjq4S84ETj0wY9yBZz8bgv2QLSvVGbSSNXQN9qOdjR6
H4rMUlKOjsV9Dfoj91qpp7j7/AtIFC+vktoa1BGqZKQoLKcl2ltbtWhthw/cBhJp
-----END CERTIFICATE-----
