Certificate:
    Data:
        Version: 3 (0x2)
        Serial Number:
            71:e5:cf:d5:00:08:92:53:47:d4:bd:38:eb:2e:67:60
        Signature Algorithm: sha256WithRSAEncryption
        Issuer: CN=team613-net
        Validity
            Not Before: May 18 22:46:24 2022 GMT
            Not After : May  2 22:46:24 2025 GMT
        Subject: CN=team613-server
        Subject Public Key Info:
            Public Key Algorithm: rsaEncryption
                RSA Public-Key: (2048 bit)
                Modulus:
                    00:cc:61:54:c5:0d:ea:a7:10:e7:8f:5c:19:f4:e5:
                    e2:f9:bd:14:2d:53:e7:3b:2b:f1:00:c8:a1:ca:2b:
                    13:35:e3:0d:9c:92:2a:3a:b9:a1:6e:83:e1:47:ef:
                    9b:17:87:3a:27:e5:18:8e:56:33:4b:2f:94:40:14:
                    4f:3e:33:2c:11:9f:36:5a:2e:a6:0a:90:3c:bb:bf:
                    24:78:67:05:d5:3f:51:51:97:9f:a8:77:3c:4a:64:
                    60:60:59:f5:ce:0e:09:0e:63:aa:1a:9e:c3:42:b1:
                    79:03:5e:a9:74:0e:3f:4b:64:24:0f:21:f0:5f:96:
                    3d:6c:16:cb:3b:50:37:a5:64:b1:ff:48:b3:3a:72:
                    e6:76:ce:98:58:45:14:b6:2a:00:0c:88:2d:18:49:
                    ad:13:0d:9f:4b:c8:52:73:4e:4e:64:63:43:1f:11:
                    8f:38:f8:cd:c8:1f:eb:52:19:61:d3:6f:6a:da:10:
                    f1:51:24:49:6a:a0:ba:7b:96:da:a3:bf:60:d3:10:
                    76:96:ee:81:b6:31:01:b1:c2:62:1f:19:d5:16:3b:
                    75:8e:37:6d:21:fe:b2:bb:23:38:ea:73:7e:c5:39:
                    49:68:42:e1:8f:47:d0:4d:80:00:ce:dd:9c:01:95:
                    e3:92:4d:09:6c:c5:7e:c4:e9:b7:de:83:71:c0:b6:
                    2f:cf
                Exponent: 65537 (0x10001)
        X509v3 extensions:
            X509v3 Basic Constraints: 
                CA:FALSE
            X509v3 Subject Key Identifier: 
                03:55:33:90:6D:9B:E4:D0:8F:BC:BB:F4:B2:40:18:1C:D9:06:6D:3C
            X509v3 Authority Key Identifier: 
                keyid:52:D1:DB:51:2E:59:1D:94:50:4F:71:2F:DC:49:9B:01:10:93:35:F2
                DirName:/CN=team613-net
                serial:4E:69:76:48:35:78:F5:8A:4A:88:23:B1:0C:C3:3F:27:08:EA:83:39

            X509v3 Extended Key Usage: 
                TLS Web Server Authentication
            X509v3 Key Usage: 
                Digital Signature, Key Encipherment
            X509v3 Subject Alternative Name: 
                DNS:team613-server
    Signature Algorithm: sha256WithRSAEncryption
         a4:9f:2b:a4:ee:3e:56:61:92:d0:a8:3c:da:72:97:ab:4d:7e:
         38:a2:7b:3b:6d:b9:d9:56:8d:01:bb:b1:11:63:33:7c:49:5e:
         ef:6b:04:61:7e:5d:5d:7d:0e:b9:ab:50:e9:4b:e6:c4:2c:4c:
         ab:e7:23:56:ed:5f:fe:cc:fc:bd:32:94:6c:53:87:c8:ce:d3:
         f7:20:bc:11:97:aa:13:2f:c1:7b:29:fe:0f:41:8a:ae:d0:39:
         e5:46:cf:5a:c5:f8:0a:d0:b0:6e:eb:a8:82:03:28:78:35:5f:
         1a:f5:d7:5d:50:59:77:8c:14:03:aa:a3:25:71:4a:a2:d4:79:
         74:7a:7a:6a:af:d3:b7:7b:4b:e3:61:8a:18:8e:c5:75:ac:00:
         a8:24:95:de:2f:54:f5:85:b9:68:d6:7a:4c:ad:29:fe:0f:dc:
         3c:a6:49:3f:27:5a:f5:2e:11:e9:d7:8f:fa:dd:6b:24:1d:7c:
         f8:44:71:72:bc:bb:d5:d5:3a:d1:97:ba:0a:25:27:2e:77:87:
         ff:aa:03:1b:24:86:f4:b1:9c:76:bb:42:92:be:51:cc:ec:12:
         50:70:8d:a4:6f:94:ff:79:4e:e2:8e:5a:05:7d:31:14:37:b7:
         34:85:cb:dc:66:ee:48:a1:a2:ef:77:db:41:93:fd:fe:de:52:
         e6:35:06:56
-----BEGIN CERTIFICATE-----
MIIDdzCCAl+gAwIBAgIQceXP1QAIklNH1L046y5nYDANBgkqhkiG9w0BAQsFADAW
MRQwEgYDVQQDDAt0ZWFtNjEzLW5ldDAeFw0yMjA1MTgyMjQ2MjRaFw0yNTA1MDIy
MjQ2MjRaMBkxFzAVBgNVBAMMDnRlYW02MTMtc2VydmVyMIIBIjANBgkqhkiG9w0B
AQEFAAOCAQ8AMIIBCgKCAQEAzGFUxQ3qpxDnj1wZ9OXi+b0ULVPnOyvxAMihyisT
NeMNnJIqOrmhboPhR++bF4c6J+UYjlYzSy+UQBRPPjMsEZ82Wi6mCpA8u78keGcF
1T9RUZefqHc8SmRgYFn1zg4JDmOqGp7DQrF5A16pdA4/S2QkDyHwX5Y9bBbLO1A3
pWSx/0izOnLmds6YWEUUtioADIgtGEmtEw2fS8hSc05OZGNDHxGPOPjNyB/rUhlh
029q2hDxUSRJaqC6e5bao79g0xB2lu6BtjEBscJiHxnVFjt1jjdtIf6yuyM46nN+
xTlJaELhj0fQTYAAzt2cAZXjkk0JbMV+xOm33oNxwLYvzwIDAQABo4G9MIG6MAkG
A1UdEwQCMAAwHQYDVR0OBBYEFANVM5Btm+TQj7y79LJAGBzZBm08MFEGA1UdIwRK
MEiAFFLR21EuWR2UUE9xL9xJmwEQkzXyoRqkGDAWMRQwEgYDVQQDDAt0ZWFtNjEz
LW5ldIIUTml2SDV49YpKiCOxDMM/JwjqgzkwEwYDVR0lBAwwCgYIKwYBBQUHAwEw
CwYDVR0PBAQDAgWgMBkGA1UdEQQSMBCCDnRlYW02MTMtc2VydmVyMA0GCSqGSIb3
DQEBCwUAA4IBAQCknyuk7j5WYZLQqDzacperTX44ons7bbnZVo0Bu7ERYzN8SV7v
awRhfl1dfQ65q1DpS+bELEyr5yNW7V/+zPy9MpRsU4fIztP3ILwRl6oTL8F7Kf4P
QYqu0DnlRs9axfgK0LBu66iCAyh4NV8a9dddUFl3jBQDqqMlcUqi1Hl0enpqr9O3
e0vjYYoYjsV1rACoJJXeL1T1hblo1npMrSn+D9w8pkk/J1r1LhHp14/63WskHXz4
RHFyvLvV1TrRl7oKJScud4f/qgMbJIb0sZx2u0KSvlHM7BJQcI2kb5T/eU7ijloF
fTEUN7c0hcvcZu5IoaLvd9tBk/3+3lLmNQZW
-----END CERTIFICATE-----
