Certificate:
    Data:
        Version: 3 (0x2)
        Serial Number:
            f5:66:9f:6d:28:08:57:21:5d:9d:1d:ad:44:88:95:50
        Signature Algorithm: sha256WithRSAEncryption
        Issuer: CN=team378-net
        Validity
            Not Before: May 18 20:40:19 2022 GMT
            Not After : May  2 20:40:19 2025 GMT
        Subject: CN=team378-client
        Subject Public Key Info:
            Public Key Algorithm: rsaEncryption
                RSA Public-Key: (2048 bit)
                Modulus:
                    00:99:57:99:4f:7c:e0:a9:ad:40:b0:a4:6b:58:52:
                    33:af:bc:5b:a0:bd:40:10:3d:9f:b4:b3:f6:f6:62:
                    e3:87:10:e1:10:85:ad:e4:05:7e:0a:4a:19:c5:b9:
                    08:53:9a:f1:73:c0:cd:f5:e5:44:53:22:5e:a1:27:
                    44:5a:e9:c9:8b:c3:4f:e9:fa:02:51:4a:46:5f:98:
                    45:ba:d8:cb:fd:e2:23:39:f6:16:d4:5c:f2:20:7c:
                    6e:8f:6f:2f:1d:56:16:61:09:3a:4d:87:1a:05:1e:
                    bc:7c:b0:17:6b:76:79:36:17:ce:31:b5:d5:1d:ff:
                    96:bd:f0:36:5e:b7:23:19:0b:2e:f7:a2:f0:3d:37:
                    48:28:df:86:ca:6b:36:ae:33:60:84:80:4a:30:eb:
                    89:ab:62:a0:69:47:d7:47:2b:be:7f:33:21:2d:90:
                    a7:cb:b4:92:a2:27:45:44:46:f6:b5:53:41:98:d8:
                    a6:1b:2d:43:b8:0d:36:51:de:9d:7c:2c:54:c5:b3:
                    fb:ff:70:b5:ac:71:b3:6f:ba:2b:42:57:a0:ec:1a:
                    fc:40:bc:98:80:a3:99:80:b6:68:92:0e:78:56:7b:
                    da:15:a3:a3:61:05:92:5f:6d:21:c2:69:39:34:91:
                    0b:a7:56:4c:b2:9c:ec:e7:a2:21:5e:50:07:4d:a9:
                    c0:73
                Exponent: 65537 (0x10001)
        X509v3 extensions:
            X509v3 Basic Constraints: 
                CA:FALSE
            X509v3 Subject Key Identifier: 
                F3:2C:CA:C4:03:91:39:1D:2E:AC:51:34:40:43:18:07:F4:47:5D:5F
            X509v3 Authority Key Identifier: 
                keyid:49:39:8A:34:6A:9D:25:C2:30:87:6B:35:7D:FD:34:3E:48:28:AB:64
                DirName:/CN=team378-net
                serial:55:0C:A4:77:09:F1:BC:10:CB:A5:EF:DF:CA:4B:30:C9:BC:6B:E1:63

            X509v3 Extended Key Usage: 
                TLS Web Client Authentication
            X509v3 Key Usage: 
                Digital Signature
    Signature Algorithm: sha256WithRSAEncryption
         7e:03:66:a5:22:98:81:fd:f7:60:d5:b1:3f:5c:e0:63:fc:2e:
         f5:31:6e:8b:cc:51:4c:45:82:eb:f3:3e:3a:0d:e0:ec:72:ab:
         b6:41:30:71:2f:89:98:32:42:25:c9:42:97:97:74:5a:a9:6e:
         74:e9:e6:fc:a5:b6:06:eb:74:b7:ba:05:fe:e1:6f:4f:ef:ec:
         e6:7b:ad:dd:3d:ce:d3:83:6b:b4:7e:1a:ae:83:35:14:e8:8f:
         53:37:17:e4:58:91:32:41:9c:40:14:24:b5:83:07:51:3e:02:
         cf:4b:ed:d1:95:03:69:aa:28:10:65:d0:2d:5b:d5:7b:fa:55:
         fa:d3:63:80:5d:32:f4:91:67:20:64:0a:8b:ac:2d:e2:9b:47:
         41:46:b8:e6:44:36:8b:1a:ae:2c:5b:18:85:cc:fb:c2:09:ce:
         31:40:c7:7e:26:a7:4c:53:3c:dc:b0:4b:9b:ed:1f:4b:5d:c0:
         62:ed:3b:fe:6a:16:58:ab:37:73:d9:15:e5:2d:b6:8c:72:01:
         40:0d:59:5f:78:30:5c:58:38:b5:16:98:6e:55:28:38:2e:9b:
         77:89:51:73:55:d0:4f:48:b9:05:1d:02:97:c2:82:46:5e:f2:
         ef:14:41:c2:1d:9d:56:3a:5f:c2:50:57:6d:0d:fc:13:e7:f7:
         2a:df:73:60
-----BEGIN CERTIFICATE-----
MIIDXTCCAkWgAwIBAgIRAPVmn20oCFchXZ0drUSIlVAwDQYJKoZIhvcNAQELBQAw
FjEUMBIGA1UEAwwLdGVhbTM3OC1uZXQwHhcNMjIwNTE4MjA0MDE5WhcNMjUwNTAy
MjA0MDE5WjAZMRcwFQYDVQQDDA50ZWFtMzc4LWNsaWVudDCCASIwDQYJKoZIhvcN
AQEBBQADggEPADCCAQoCggEBAJlXmU984KmtQLCka1hSM6+8W6C9QBA9n7Sz9vZi
44cQ4RCFreQFfgpKGcW5CFOa8XPAzfXlRFMiXqEnRFrpyYvDT+n6AlFKRl+YRbrY
y/3iIzn2FtRc8iB8bo9vLx1WFmEJOk2HGgUevHywF2t2eTYXzjG11R3/lr3wNl63
IxkLLvei8D03SCjfhsprNq4zYISASjDriatioGlH10crvn8zIS2Qp8u0kqInRURG
9rVTQZjYphstQ7gNNlHenXwsVMWz+/9wtaxxs2+6K0JXoOwa/EC8mICjmYC2aJIO
eFZ72hWjo2EFkl9tIcJpOTSRC6dWTLKc7OeiIV5QB02pwHMCAwEAAaOBojCBnzAJ
BgNVHRMEAjAAMB0GA1UdDgQWBBTzLMrEA5E5HS6sUTRAQxgH9EddXzBRBgNVHSME
SjBIgBRJOYo0ap0lwjCHazV9/TQ+SCirZKEapBgwFjEUMBIGA1UEAwwLdGVhbTM3
OC1uZXSCFFUMpHcJ8bwQy6Xv38pLMMm8a+FjMBMGA1UdJQQMMAoGCCsGAQUFBwMC
MAsGA1UdDwQEAwIHgDANBgkqhkiG9w0BAQsFAAOCAQEAfgNmpSKYgf33YNWxP1zg
Y/wu9TFui8xRTEWC6/M+Og3g7HKrtkEwcS+JmDJCJclCl5d0WqludOnm/KW2But0
t7oF/uFvT+/s5nut3T3O04NrtH4aroM1FOiPUzcX5FiRMkGcQBQktYMHUT4Cz0vt
0ZUDaaooEGXQLVvVe/pV+tNjgF0y9JFnIGQKi6wt4ptHQUa45kQ2ixquLFsYhcz7
wgnOMUDHfianTFM83LBLm+0fS13AYu07/moWWKs3c9kV5S22jHIBQA1ZX3gwXFg4
tRaYblUoOC6bd4lRc1XQT0i5BR0Cl8KCRl7y7xRBwh2dVjpfwlBXbQ38E+f3Kt9z
YA==
-----END CERTIFICATE-----
