Certificate:
    Data:
        Version: 3 (0x2)
        Serial Number:
            15:02:ed:66:26:d2:c8:92:b3:3b:10:83:49:bb:c4:9f
        Signature Algorithm: sha256WithRSAEncryption
        Issuer: CN=team192-net
        Validity
            Not Before: May 18 18:57:46 2022 GMT
            Not After : May  2 18:57:46 2025 GMT
        Subject: CN=team192-server
        Subject Public Key Info:
            Public Key Algorithm: rsaEncryption
                RSA Public-Key: (2048 bit)
                Modulus:
                    00:cc:d4:5b:a2:9c:17:54:61:29:1a:70:6e:1b:1a:
                    46:ae:da:25:70:fd:c9:f5:ea:af:b7:3d:ae:66:7c:
                    42:1b:8d:cd:59:2f:86:51:bf:7e:53:f9:2c:94:61:
                    fc:ba:87:f7:ee:e3:e9:a4:9c:19:b8:80:33:f0:ba:
                    b4:0d:8a:d1:cc:cf:29:1d:93:a1:73:e6:35:2d:a8:
                    89:16:b0:1c:64:59:67:55:d5:1d:43:43:97:ae:e0:
                    6b:cf:29:dc:65:22:89:70:7c:5f:33:af:0b:bb:e4:
                    07:86:85:ee:d3:0b:f9:91:68:fb:47:0e:3d:4b:82:
                    9f:1f:fc:0d:fa:9f:01:27:34:3c:a7:c8:c8:02:6c:
                    49:7b:51:e4:03:a3:13:a6:c0:b8:15:2f:ee:c0:d9:
                    7a:0a:9a:eb:4a:d9:f4:ea:08:b7:62:35:27:63:9e:
                    74:d6:91:88:2c:83:2d:d5:dd:e9:a3:87:c3:2c:77:
                    e4:44:c9:dc:e3:eb:21:c8:46:83:61:ab:c0:59:99:
                    43:0c:6c:21:e9:e6:10:03:3d:e5:93:50:6a:75:46:
                    6a:b8:89:bb:e8:76:ec:ec:ac:be:24:37:c0:a5:ed:
                    a4:85:91:a9:33:76:97:1b:83:45:f7:fd:47:d1:2b:
                    57:b1:85:c5:d2:b8:e1:3b:f5:60:6f:48:eb:b9:bd:
                    1f:f7
                Exponent: 65537 (0x10001)
        X509v3 extensions:
            X509v3 Basic Constraints: 
                CA:FALSE
            X509v3 Subject Key Identifier: 
                77:1F:D6:90:76:92:6D:44:09:1C:AE:D7:E3:FF:26:19:68:45:BA:72
            X509v3 Authority Key Identifier: 
                keyid:03:2E:D1:8B:05:CD:27:5B:61:91:41:76:26:EF:87:68:B8:03:12:EC
                DirName:/CN=team192-net
                serial:2C:9B:AD:C8:F6:49:8C:0D:73:0C:6A:A5:00:FA:D5:61:40:78:02:5F

            X509v3 Extended Key Usage: 
                TLS Web Server Authentication
            X509v3 Key Usage: 
                Digital Signature, Key Encipherment
            X509v3 Subject Alternative Name: 
                DNS:team192-server
    Signature Algorithm: sha256WithRSAEncryption
         2d:9f:01:3e:f8:0a:8e:64:4f:1f:d3:7a:16:e0:e0:7a:7e:ac:
         d9:1b:e2:b6:e5:a8:cd:31:6b:e6:85:fa:10:8f:74:e1:04:4e:
         d6:fa:0e:1d:ff:7d:a8:67:f6:0b:d8:ff:75:0e:81:96:b3:8e:
         09:f7:9e:ca:f3:8d:44:7c:bb:37:f0:02:8e:42:37:44:f4:71:
         41:e9:c0:ca:e1:38:3c:d6:4d:a1:2a:3d:5d:d3:e8:3c:7b:ab:
         ee:51:f4:61:f5:15:3d:cc:da:60:7d:6b:67:a2:78:ae:7b:c1:
         8a:47:26:6b:d9:a3:b9:fa:53:e0:de:92:a5:04:6a:24:2f:f8:
         89:13:dc:3a:66:c0:9b:20:c5:99:68:7c:db:17:53:5c:c8:59:
         67:e5:2b:dc:bd:d3:d3:d4:da:ca:9c:d3:fc:1c:ca:3d:69:57:
         88:60:f1:23:8d:62:3a:28:03:99:35:48:d4:e5:85:98:69:f0:
         0d:19:86:66:1d:45:a7:29:65:59:07:8e:1f:53:16:b5:3f:27:
         f7:86:41:c3:4c:fb:28:dc:9a:79:06:13:47:a3:e8:b4:b2:33:
         2e:58:a5:e0:57:22:6a:3d:21:bf:91:3f:29:8a:80:95:d2:6d:
         51:25:00:18:5d:f0:fd:95:70:49:0b:ab:8a:7f:bd:04:40:76:
         9b:7e:20:7e
-----BEGIN CERTIFICATE-----
MIIDdzCCAl+gAwIBAgIQFQLtZibSyJKzOxCDSbvEnzANBgkqhkiG9w0BAQsFADAW
MRQwEgYDVQQDDAt0ZWFtMTkyLW5ldDAeFw0yMjA1MTgxODU3NDZaFw0yNTA1MDIx
ODU3NDZaMBkxFzAVBgNVBAMMDnRlYW0xOTItc2VydmVyMIIBIjANBgkqhkiG9w0B
AQEFAAOCAQ8AMIIBCgKCAQEAzNRbopwXVGEpGnBuGxpGrtolcP3J9eqvtz2uZnxC
G43NWS+GUb9+U/kslGH8uof37uPppJwZuIAz8Lq0DYrRzM8pHZOhc+Y1LaiJFrAc
ZFlnVdUdQ0OXruBrzyncZSKJcHxfM68Lu+QHhoXu0wv5kWj7Rw49S4KfH/wN+p8B
JzQ8p8jIAmxJe1HkA6MTpsC4FS/uwNl6CprrStn06gi3YjUnY5501pGILIMt1d3p
o4fDLHfkRMnc4+shyEaDYavAWZlDDGwh6eYQAz3lk1BqdUZquIm76Hbs7Ky+JDfA
pe2khZGpM3aXG4NF9/1H0StXsYXF0rjhO/Vgb0jrub0f9wIDAQABo4G9MIG6MAkG
A1UdEwQCMAAwHQYDVR0OBBYEFHcf1pB2km1ECRyu1+P/JhloRbpyMFEGA1UdIwRK
MEiAFAMu0YsFzSdbYZFBdibvh2i4AxLsoRqkGDAWMRQwEgYDVQQDDAt0ZWFtMTky
LW5ldIIULJutyPZJjA1zDGqlAPrVYUB4Al8wEwYDVR0lBAwwCgYIKwYBBQUHAwEw
CwYDVR0PBAQDAgWgMBkGA1UdEQQSMBCCDnRlYW0xOTItc2VydmVyMA0GCSqGSIb3
DQEBCwUAA4IBAQAtnwE++AqOZE8f03oW4OB6fqzZG+K25ajNMWvmhfoQj3ThBE7W
+g4d/32oZ/YL2P91DoGWs44J957K841EfLs38AKOQjdE9HFB6cDK4Tg81k2hKj1d
0+g8e6vuUfRh9RU9zNpgfWtnoniue8GKRyZr2aO5+lPg3pKlBGokL/iJE9w6ZsCb
IMWZaHzbF1NcyFln5SvcvdPT1NrKnNP8HMo9aVeIYPEjjWI6KAOZNUjU5YWYafAN
GYZmHUWnKWVZB44fUxa1Pyf3hkHDTPso3Jp5BhNHo+i0sjMuWKXgVyJqPSG/kT8p
ioCV0m1RJQAYXfD9lXBJC6uKf70EQHabfiB+
-----END CERTIFICATE-----
