Certificate:
    Data:
        Version: 3 (0x2)
        Serial Number:
            2e:e5:0d:14:20:7e:50:ec:db:69:f0:e1:c5:46:6c:42
        Signature Algorithm: sha256WithRSAEncryption
        Issuer: CN=team718-net
        Validity
            Not Before: May 18 23:55:53 2022 GMT
            Not After : May  2 23:55:53 2025 GMT
        Subject: CN=team718-client
        Subject Public Key Info:
            Public Key Algorithm: rsaEncryption
                RSA Public-Key: (2048 bit)
                Modulus:
                    00:b3:d8:c7:88:6e:cd:99:b7:6b:ee:ab:4a:7c:01:
                    73:f1:17:1d:37:83:23:46:7a:29:a9:31:63:14:1b:
                    64:ea:4a:82:86:d6:71:df:e5:4a:74:55:f2:0e:de:
                    ff:9b:0d:ad:43:92:7e:c8:0e:7d:9e:68:60:c6:e5:
                    01:29:e9:77:e9:ab:f0:f4:20:a9:20:8a:66:a2:9b:
                    08:7f:dd:b3:da:4c:4f:fa:d3:d0:29:cb:64:8c:f0:
                    65:1e:26:70:0c:47:c9:f1:93:8c:a3:12:f2:48:03:
                    c5:04:10:59:f7:10:1a:6f:88:02:9e:6c:6f:16:3a:
                    91:b6:b1:a4:2d:cd:af:97:9c:37:d4:d4:ec:ca:ef:
                    5b:a8:22:a8:41:f7:40:c9:ce:98:e1:91:1c:35:17:
                    3a:3c:17:6b:8d:e4:c4:28:c1:22:3a:7f:a0:b5:2d:
                    aa:4f:d1:6c:d9:ae:77:39:49:f3:ac:2b:89:c5:71:
                    51:3e:5c:3a:8c:cc:8b:86:66:2e:f2:3a:d0:0f:68:
                    63:32:01:2d:a2:a3:9a:cc:a3:af:7d:db:14:7b:5a:
                    22:bb:99:c6:77:49:80:07:4f:da:79:a5:a3:9d:07:
                    ba:c2:dd:cd:d8:bf:4e:28:ab:54:88:39:5b:e3:14:
                    8e:47:f4:91:53:ce:3a:66:d2:58:1c:ba:04:3a:14:
                    7d:1b
                Exponent: 65537 (0x10001)
        X509v3 extensions:
            X509v3 Basic Constraints: 
                CA:FALSE
            X509v3 Subject Key Identifier: 
                74:26:6C:F6:84:E2:04:71:F9:70:F3:42:A1:18:83:00:3F:6E:41:82
            X509v3 Authority Key Identifier: 
                keyid:D3:E8:3A:40:EC:FB:7F:3C:59:02:D5:9A:B6:6B:9A:3F:54:57:B6:12
                DirName:/CN=team718-net
                serial:4C:7E:FD:74:A2:37:4E:DD:DF:04:12:E3:F1:EC:3B:C8:E2:27:81:61

            X509v3 Extended Key Usage: 
                TLS Web Client Authentication
            X509v3 Key Usage: 
                Digital Signature
    Signature Algorithm: sha256WithRSAEncryption
         99:95:c8:85:7f:5e:00:73:ab:06:03:c5:ec:d4:cb:a5:33:21:
         8d:01:a3:48:ea:4e:b8:7e:cc:29:78:bc:b2:d8:68:65:6c:cc:
         32:26:fc:b6:ad:b3:88:95:93:9c:dc:b7:0a:8c:a0:e9:17:be:
         29:e6:91:d1:e1:64:45:d9:8f:4d:c6:0b:bb:29:c1:71:fc:7e:
         b2:84:14:b6:a0:be:80:2c:56:b5:46:0d:fd:cd:f7:a1:0a:1f:
         7c:95:2e:b6:4f:02:00:f2:eb:65:e3:ee:04:b2:59:27:a9:7c:
         36:81:21:65:5d:b2:9d:83:b5:3c:58:ab:e9:16:89:84:ec:d4:
         40:ee:0f:13:bf:88:a3:37:f3:f0:bc:b2:f2:c9:2b:36:b4:d9:
         52:a8:20:75:a3:3c:35:a9:da:ec:a1:22:80:4b:3c:1c:34:20:
         96:f6:5d:3c:94:6f:76:ea:14:15:53:d1:c7:90:3b:a8:b0:00:
         3a:bc:54:45:a2:27:cb:6a:30:51:66:5b:75:2b:a6:7d:82:48:
         7b:d3:d6:f8:b0:b1:58:23:f9:19:7e:be:13:3d:da:d5:91:d1:
         6d:a3:50:bd:8e:93:f0:d1:b7:86:b2:27:0b:34:36:a8:00:dc:
         e7:99:46:7e:11:91:df:5b:72:fe:8d:73:51:3c:d4:39:97:1a:
         7f:17:3d:ce
-----BEGIN CERTIFICATE-----
MIIDXDCCAkSgAwIBAgIQLuUNFCB+UOzbafDhxUZsQjANBgkqhkiG9w0BAQsFADAW
MRQwEgYDVQQDDAt0ZWFtNzE4LW5ldDAeFw0yMjA1MTgyMzU1NTNaFw0yNTA1MDIy
MzU1NTNaMBkxFzAVBgNVBAMMDnRlYW03MTgtY2xpZW50MIIBIjANBgkqhkiG9w0B
AQEFAAOCAQ8AMIIBCgKCAQEAs9jHiG7Nmbdr7qtKfAFz8RcdN4MjRnopqTFjFBtk
6kqChtZx3+VKdFXyDt7/mw2tQ5J+yA59nmhgxuUBKel36avw9CCpIIpmopsIf92z
2kxP+tPQKctkjPBlHiZwDEfJ8ZOMoxLySAPFBBBZ9xAab4gCnmxvFjqRtrGkLc2v
l5w31NTsyu9bqCKoQfdAyc6Y4ZEcNRc6PBdrjeTEKMEiOn+gtS2qT9Fs2a53OUnz
rCuJxXFRPlw6jMyLhmYu8jrQD2hjMgEtoqOazKOvfdsUe1oiu5nGd0mAB0/aeaWj
nQe6wt3N2L9OKKtUiDlb4xSOR/SRU846ZtJYHLoEOhR9GwIDAQABo4GiMIGfMAkG
A1UdEwQCMAAwHQYDVR0OBBYEFHQmbPaE4gRx+XDzQqEYgwA/bkGCMFEGA1UdIwRK
MEiAFNPoOkDs+388WQLVmrZrmj9UV7YSoRqkGDAWMRQwEgYDVQQDDAt0ZWFtNzE4
LW5ldIIUTH79dKI3Tt3fBBLj8ew7yOIngWEwEwYDVR0lBAwwCgYIKwYBBQUHAwIw
CwYDVR0PBAQDAgeAMA0GCSqGSIb3DQEBCwUAA4IBAQCZlciFf14Ac6sGA8Xs1Mul
MyGNAaNI6k64fswpeLyy2GhlbMwyJvy2rbOIlZOc3LcKjKDpF74p5pHR4WRF2Y9N
xgu7KcFx/H6yhBS2oL6ALFa1Rg39zfehCh98lS62TwIA8utl4+4EslknqXw2gSFl
XbKdg7U8WKvpFomE7NRA7g8Tv4ijN/PwvLLyySs2tNlSqCB1ozw1qdrsoSKASzwc
NCCW9l08lG926hQVU9HHkDuosAA6vFRFoifLajBRZlt1K6Z9gkh709b4sLFYI/kZ
fr4TPdrVkdFto1C9jpPw0beGsicLNDaoANznmUZ+EZHfW3L+jXNRPNQ5lxp/Fz3O
-----END CERTIFICATE-----
