Certificate:
    Data:
        Version: 3 (0x2)
        Serial Number:
            5e:9e:a6:c6:98:94:73:97:14:89:1c:f8:95:ff:6d:95
        Signature Algorithm: sha256WithRSAEncryption
        Issuer: CN=team163-net
        Validity
            Not Before: May 18 18:42:20 2022 GMT
            Not After : May  2 18:42:20 2025 GMT
        Subject: CN=team163-client
        Subject Public Key Info:
            Public Key Algorithm: rsaEncryption
                RSA Public-Key: (2048 bit)
                Modulus:
                    00:f3:f8:96:13:b5:60:2b:d9:5e:89:9f:b5:6c:c8:
                    19:f9:1b:3b:75:21:bb:a7:1c:fe:f8:a9:c2:b4:1c:
                    22:56:29:a6:ed:9b:d8:a6:b1:90:10:83:fe:fa:2c:
                    9c:91:2c:1f:cc:cb:f8:90:1c:bc:c5:01:8b:30:a7:
                    87:0e:b4:bf:e5:bd:78:e4:32:42:85:50:1b:02:fa:
                    d0:f4:38:1d:7b:a7:9d:7e:1d:1f:d4:2b:72:c3:30:
                    85:23:8c:20:13:58:2e:5f:1a:a2:13:ae:11:60:8d:
                    51:e7:3c:f3:4b:fe:c5:3d:62:39:b3:44:f7:8a:de:
                    5e:14:8c:88:dd:18:a6:30:44:59:6e:be:80:91:d8:
                    f1:f3:46:58:9f:f6:86:1a:46:62:f9:e8:e2:d0:b4:
                    17:4c:ec:ea:cf:e5:d8:58:cb:0b:3f:d1:48:4a:f4:
                    0e:41:9e:80:3c:fd:ae:32:cc:23:e7:95:7f:fa:75:
                    db:9b:4f:3a:8a:23:a3:01:26:cc:bf:22:00:1a:5b:
                    f3:7e:4f:39:85:78:90:03:87:11:16:3a:12:60:91:
                    a0:84:12:2c:bc:83:bb:fa:17:4b:b8:ee:fd:25:9a:
                    45:b4:eb:1e:2b:14:c4:76:18:ba:f5:04:a2:22:8f:
                    bc:8f:14:d7:b5:3a:d5:d2:bc:c5:41:a6:aa:2c:2f:
                    4a:15
                Exponent: 65537 (0x10001)
        X509v3 extensions:
            X509v3 Basic Constraints: 
                CA:FALSE
            X509v3 Subject Key Identifier: 
                E5:A8:D0:12:81:39:3F:7F:04:01:D1:E2:AF:9A:88:66:2C:44:CE:FC
            X509v3 Authority Key Identifier: 
                keyid:BD:11:9F:81:C3:BC:18:6B:21:02:C6:D0:D2:BF:86:F0:A7:7E:2A:DD
                DirName:/CN=team163-net
                serial:2C:C6:00:71:C6:A6:84:BF:89:83:23:1D:CB:60:93:0D:9E:7A:80:7B

            X509v3 Extended Key Usage: 
                TLS Web Client Authentication
            X509v3 Key Usage: 
                Digital Signature
    Signature Algorithm: sha256WithRSAEncryption
         8e:76:29:b1:53:62:c2:2d:77:51:cf:35:d4:69:fc:25:9d:d7:
         9b:00:94:7f:a5:38:98:02:a3:4f:1a:0d:95:69:4c:cf:79:7b:
         63:d2:f1:46:1e:0e:81:cc:c8:67:f4:5a:98:54:90:fc:a2:9e:
         4f:dd:0f:b1:a1:71:4d:43:c9:fb:78:32:72:20:71:1b:5d:23:
         14:1e:7c:a2:a2:85:6f:31:11:60:a6:a9:8c:d5:38:bb:a6:27:
         99:15:ce:e2:27:a2:31:15:bb:b9:a8:ef:08:11:03:e9:e2:f0:
         f8:66:83:4e:37:4c:87:7b:c6:11:cc:60:41:84:18:d0:57:18:
         8d:06:8f:9e:ef:6d:fd:6a:7e:4f:00:26:07:6e:84:ca:96:78:
         85:a2:de:5d:98:0f:58:58:96:62:ec:76:77:d4:60:73:bc:6f:
         55:4c:68:fb:49:c2:80:ee:29:a8:bc:c9:94:73:1a:5c:c8:40:
         b5:5f:ea:d9:c1:63:c7:60:4e:a0:74:17:87:2e:b8:2a:af:62:
         c4:2b:0b:45:b7:46:0f:0a:90:51:d1:88:de:4b:21:59:b4:cf:
         4b:bf:44:93:40:60:8c:33:81:14:88:ff:5f:fc:9e:9a:bc:a0:
         47:09:0e:8b:e1:14:40:20:4e:6a:d7:d7:c4:96:4c:80:68:90:
         03:2e:73:83
-----BEGIN CERTIFICATE-----
MIIDXDCCAkSgAwIBAgIQXp6mxpiUc5cUiRz4lf9tlTANBgkqhkiG9w0BAQsFADAW
MRQwEgYDVQQDDAt0ZWFtMTYzLW5ldDAeFw0yMjA1MTgxODQyMjBaFw0yNTA1MDIx
ODQyMjBaMBkxFzAVBgNVBAMMDnRlYW0xNjMtY2xpZW50MIIBIjANBgkqhkiG9w0B
AQEFAAOCAQ8AMIIBCgKCAQEA8/iWE7VgK9leiZ+1bMgZ+Rs7dSG7pxz++KnCtBwi
Vimm7ZvYprGQEIP++iyckSwfzMv4kBy8xQGLMKeHDrS/5b145DJChVAbAvrQ9Dgd
e6edfh0f1CtywzCFI4wgE1guXxqiE64RYI1R5zzzS/7FPWI5s0T3it5eFIyI3Rim
MERZbr6Akdjx80ZYn/aGGkZi+eji0LQXTOzqz+XYWMsLP9FISvQOQZ6APP2uMswj
55V/+nXbm086iiOjASbMvyIAGlvzfk85hXiQA4cRFjoSYJGghBIsvIO7+hdLuO79
JZpFtOseKxTEdhi69QSiIo+8jxTXtTrV0rzFQaaqLC9KFQIDAQABo4GiMIGfMAkG
A1UdEwQCMAAwHQYDVR0OBBYEFOWo0BKBOT9/BAHR4q+aiGYsRM78MFEGA1UdIwRK
MEiAFL0Rn4HDvBhrIQLG0NK/hvCnfirdoRqkGDAWMRQwEgYDVQQDDAt0ZWFtMTYz
LW5ldIIULMYAccamhL+JgyMdy2CTDZ56gHswEwYDVR0lBAwwCgYIKwYBBQUHAwIw
CwYDVR0PBAQDAgeAMA0GCSqGSIb3DQEBCwUAA4IBAQCOdimxU2LCLXdRzzXUafwl
ndebAJR/pTiYAqNPGg2VaUzPeXtj0vFGHg6BzMhn9FqYVJD8op5P3Q+xoXFNQ8n7
eDJyIHEbXSMUHnyiooVvMRFgpqmM1Ti7pieZFc7iJ6IxFbu5qO8IEQPp4vD4ZoNO
N0yHe8YRzGBBhBjQVxiNBo+e7239an5PACYHboTKlniFot5dmA9YWJZi7HZ31GBz
vG9VTGj7ScKA7imovMmUcxpcyEC1X+rZwWPHYE6gdBeHLrgqr2LEKwtFt0YPCpBR
0YjeSyFZtM9Lv0STQGCMM4EUiP9f/J6avKBHCQ6L4RRAIE5q19fElkyAaJADLnOD
-----END CERTIFICATE-----
