Certificate:
    Data:
        Version: 3 (0x2)
        Serial Number:
            30:11:56:5c:58:07:5f:7c:3d:9f:77:41:54:97:36:09
        Signature Algorithm: sha256WithRSAEncryption
        Issuer: CN=team381-net
        Validity
            Not Before: May 18 20:40:47 2022 GMT
            Not After : May  2 20:40:47 2025 GMT
        Subject: CN=team381-client
        Subject Public Key Info:
            Public Key Algorithm: rsaEncryption
                RSA Public-Key: (2048 bit)
                Modulus:
                    00:c1:95:89:ec:c8:f7:5c:1a:84:0f:bf:40:4a:59:
                    d4:a0:52:72:55:54:1c:55:b6:5a:cb:ad:e8:f8:e0:
                    8c:54:c5:36:ee:d9:f9:1f:30:1b:3b:d2:ac:fc:27:
                    ab:4e:a2:56:d0:05:37:4a:57:ae:36:e5:b7:1f:99:
                    0a:5c:44:09:fe:e8:43:62:5a:4f:45:f8:dc:a7:c4:
                    27:56:a7:f7:19:af:8f:39:ce:78:99:97:38:fb:99:
                    2b:c5:4b:9e:b9:55:f7:81:30:db:6f:7d:dd:f5:de:
                    64:3a:45:9f:50:51:e2:98:6d:22:f9:44:c8:d3:ec:
                    80:f2:bb:03:27:25:53:7b:20:61:af:56:17:e5:96:
                    8b:31:f9:77:bc:c0:77:a4:33:5b:f9:40:78:6a:53:
                    ac:26:02:4d:3f:30:cf:3c:1b:ba:4f:54:58:fc:68:
                    2c:d6:be:f0:f6:a2:39:70:a1:32:83:7e:d2:62:ec:
                    94:7d:b5:da:03:a7:71:81:54:05:58:32:6e:6b:33:
                    9c:04:e0:0a:e7:59:55:4b:85:97:ab:c4:2f:33:27:
                    cb:d8:24:73:bf:d7:30:13:e2:82:82:89:eb:cf:15:
                    06:63:7b:a5:12:2b:28:2a:ac:9f:fb:90:78:89:b6:
                    ab:a1:3b:06:55:5e:97:2d:cf:c8:cf:58:21:0b:cf:
                    eb:0d
                Exponent: 65537 (0x10001)
        X509v3 extensions:
            X509v3 Basic Constraints: 
                CA:FALSE
            X509v3 Subject Key Identifier: 
                E4:87:3C:46:51:1E:C3:4C:C6:CA:83:EC:74:18:45:CA:39:E4:73:C0
            X509v3 Authority Key Identifier: 
                keyid:69:40:F8:97:19:78:50:4A:68:13:BE:9E:8E:A2:62:44:4A:26:0E:08
                DirName:/CN=team381-net
                serial:03:3B:36:DF:4B:D3:D5:F2:8D:02:6C:53:5B:3A:10:8C:80:DD:A3:96

            X509v3 Extended Key Usage: 
                TLS Web Client Authentication
            X509v3 Key Usage: 
                Digital Signature
    Signature Algorithm: sha256WithRSAEncryption
         47:89:30:9c:8f:fb:81:be:b9:ad:c5:85:72:2d:a0:e4:c3:6a:
         c1:33:39:b0:ed:1f:5b:0d:28:7c:74:dc:07:84:b8:b7:cb:04:
         c3:57:f1:fe:8f:5e:a9:3b:af:7a:14:0e:e3:e1:9a:e3:5d:4f:
         77:ca:1c:3f:4c:79:99:91:7a:e3:b3:4f:fd:59:38:96:aa:af:
         82:63:4b:13:64:64:87:ad:19:c4:e9:38:7e:36:47:a0:5f:c0:
         c4:3e:7c:09:98:08:c2:60:a7:cb:77:79:cd:10:70:c7:1f:3a:
         5d:b8:71:3b:21:ed:fa:2a:d4:19:a6:60:e4:6f:16:b9:6f:36:
         70:4a:1b:e4:a8:61:fe:10:00:c1:6a:36:7a:8b:46:82:18:dd:
         71:0a:65:7b:92:a3:a4:d0:fb:86:c6:d1:7c:9c:d1:32:89:8b:
         81:7b:6a:3e:ea:88:28:e6:38:2f:a9:fa:f7:22:dc:b6:2c:b6:
         41:b1:61:b6:d9:be:39:46:83:f5:19:da:b0:3f:51:52:1e:2a:
         5c:46:6f:74:26:ab:62:b3:3b:71:1c:02:de:19:71:32:68:35:
         69:13:1c:8f:fa:d8:be:75:ee:3a:75:fe:c1:5e:9f:24:a5:32:
         d3:1f:46:5b:98:19:37:0a:90:bd:78:7d:a8:0b:63:b2:bf:ca:
         a3:9c:dd:6d
-----BEGIN CERTIFICATE-----
MIIDXDCCAkSgAwIBAgIQMBFWXFgHX3w9n3dBVJc2CTANBgkqhkiG9w0BAQsFADAW
MRQwEgYDVQQDDAt0ZWFtMzgxLW5ldDAeFw0yMjA1MTgyMDQwNDdaFw0yNTA1MDIy
MDQwNDdaMBkxFzAVBgNVBAMMDnRlYW0zODEtY2xpZW50MIIBIjANBgkqhkiG9w0B
AQEFAAOCAQ8AMIIBCgKCAQEAwZWJ7Mj3XBqED79ASlnUoFJyVVQcVbZay63o+OCM
VMU27tn5HzAbO9Ks/CerTqJW0AU3SleuNuW3H5kKXEQJ/uhDYlpPRfjcp8QnVqf3
Ga+POc54mZc4+5krxUueuVX3gTDbb33d9d5kOkWfUFHimG0i+UTI0+yA8rsDJyVT
eyBhr1YX5ZaLMfl3vMB3pDNb+UB4alOsJgJNPzDPPBu6T1RY/Ggs1r7w9qI5cKEy
g37SYuyUfbXaA6dxgVQFWDJuazOcBOAK51lVS4WXq8QvMyfL2CRzv9cwE+KCgonr
zxUGY3ulEisoKqyf+5B4ibaroTsGVV6XLc/Iz1ghC8/rDQIDAQABo4GiMIGfMAkG
A1UdEwQCMAAwHQYDVR0OBBYEFOSHPEZRHsNMxsqD7HQYRco55HPAMFEGA1UdIwRK
MEiAFGlA+JcZeFBKaBO+no6iYkRKJg4IoRqkGDAWMRQwEgYDVQQDDAt0ZWFtMzgx
LW5ldIIUAzs230vT1fKNAmxTWzoQjIDdo5YwEwYDVR0lBAwwCgYIKwYBBQUHAwIw
CwYDVR0PBAQDAgeAMA0GCSqGSIb3DQEBCwUAA4IBAQBHiTCcj/uBvrmtxYVyLaDk
w2rBMzmw7R9bDSh8dNwHhLi3ywTDV/H+j16pO696FA7j4ZrjXU93yhw/THmZkXrj
s0/9WTiWqq+CY0sTZGSHrRnE6Th+NkegX8DEPnwJmAjCYKfLd3nNEHDHHzpduHE7
Ie36KtQZpmDkbxa5bzZwShvkqGH+EADBajZ6i0aCGN1xCmV7kqOk0PuGxtF8nNEy
iYuBe2o+6ogo5jgvqfr3Ity2LLZBsWG22b45RoP1GdqwP1FSHipcRm90Jqtisztx
HALeGXEyaDVpExyP+ti+de46df7BXp8kpTLTH0ZbmBk3CpC9eH2oC2Oyv8qjnN1t
-----END CERTIFICATE-----
