Certificate:
    Data:
        Version: 3 (0x2)
        Serial Number:
            1b:a3:77:0b:62:d9:e2:17:62:9c:52:7b:af:e7:c2:84
        Signature Algorithm: sha256WithRSAEncryption
        Issuer: CN=team237-net
        Validity
            Not Before: May 18 19:35:05 2022 GMT
            Not After : May  2 19:35:05 2025 GMT
        Subject: CN=team237-client
        Subject Public Key Info:
            Public Key Algorithm: rsaEncryption
                RSA Public-Key: (2048 bit)
                Modulus:
                    00:d0:71:4d:9a:d5:34:a7:77:a5:a4:c0:bd:48:b1:
                    7a:c7:be:1b:75:55:9a:59:57:40:04:0a:18:bd:6e:
                    4b:cc:bc:b0:2b:b4:16:59:e0:e9:e6:fd:3d:8e:9a:
                    eb:9f:dd:e3:05:04:95:04:45:56:9e:f0:2e:69:48:
                    16:a4:06:c8:9b:4c:34:21:39:f6:68:79:bf:84:52:
                    d8:2c:65:52:74:f0:74:26:b5:d9:21:2b:16:73:cc:
                    90:d1:a1:61:87:70:c8:f4:f4:4b:4b:31:cb:46:3b:
                    18:19:1f:ea:8f:bf:a7:da:35:7c:31:28:0d:7c:ab:
                    c6:17:d5:b9:7f:2f:3d:c7:a2:bb:b1:17:60:14:b0:
                    86:0f:d5:96:09:85:e4:ea:df:0a:34:40:61:67:60:
                    6e:22:6b:bd:a9:90:57:b1:de:d2:88:60:0f:57:b3:
                    00:d9:7d:61:3a:96:ef:1f:c5:2c:33:f8:14:a0:0d:
                    a6:ed:a8:36:e6:20:32:e3:fd:80:8a:78:fb:f6:e5:
                    d4:29:0e:bc:d4:4d:29:2a:16:c7:76:c2:a7:e0:e6:
                    86:0e:78:57:bb:06:49:02:b7:b3:05:2d:b8:2b:c3:
                    10:53:8e:7b:2f:3b:16:6c:01:f3:64:82:dd:83:da:
                    87:31:44:7a:96:8a:1d:8d:01:0b:3c:f9:ea:bd:cf:
                    62:41
                Exponent: 65537 (0x10001)
        X509v3 extensions:
            X509v3 Basic Constraints: 
                CA:FALSE
            X509v3 Subject Key Identifier: 
                9A:32:AF:19:24:9C:A1:1E:49:07:DA:E7:8A:BF:66:25:A3:A5:3F:0D
            X509v3 Authority Key Identifier: 
                keyid:45:FC:B9:59:37:E0:FA:7F:57:A7:D1:B5:BD:F0:5B:72:24:B5:69:96
                DirName:/CN=team237-net
                serial:40:D9:AC:91:82:F6:83:2D:24:7A:3D:EB:EF:EC:E4:BB:9B:C5:D5:71

            X509v3 Extended Key Usage: 
                TLS Web Client Authentication
            X509v3 Key Usage: 
                Digital Signature
    Signature Algorithm: sha256WithRSAEncryption
         3a:b6:9e:a1:d9:95:15:03:aa:a2:35:f6:64:de:2d:88:2f:5e:
         7b:f3:96:39:96:c0:43:43:95:46:43:b1:58:b7:d7:59:18:1c:
         1d:12:3c:24:e0:18:54:6b:8c:32:80:6c:0b:53:42:87:c8:57:
         fe:ff:0f:70:10:88:5a:b4:d0:a2:7b:08:b8:e9:8f:24:6d:6a:
         66:30:e1:55:86:e5:00:1c:a2:c9:2a:13:66:47:54:ad:27:9d:
         9d:b9:d8:69:81:af:5f:07:85:f1:33:81:ce:79:79:bd:e9:75:
         43:b9:e6:8c:68:bf:ce:7c:17:1b:34:17:93:35:6b:40:3b:c2:
         6d:ee:9b:67:d4:d2:11:06:ba:be:d0:9a:4d:19:2b:83:53:07:
         0d:01:73:f0:90:4f:15:41:59:fc:3f:11:ef:c6:a2:a9:95:96:
         27:df:04:96:15:51:55:fb:7d:68:27:97:34:13:cf:e0:89:46:
         09:40:6b:91:0a:1b:21:d9:67:79:b9:92:be:01:e3:ab:88:5d:
         ca:f5:4b:d6:87:85:39:0a:cd:2d:a5:a5:41:35:52:e1:bb:35:
         b0:01:e0:a8:aa:a1:81:7d:3e:2e:ad:a4:76:63:c6:c9:4c:c2:
         08:63:9f:9b:4a:52:27:5c:57:2c:54:8a:a8:6f:9b:b2:79:d4:
         52:3c:16:94
-----BEGIN CERTIFICATE-----
MIIDXDCCAkSgAwIBAgIQG6N3C2LZ4hdinFJ7r+fChDANBgkqhkiG9w0BAQsFADAW
MRQwEgYDVQQDDAt0ZWFtMjM3LW5ldDAeFw0yMjA1MTgxOTM1MDVaFw0yNTA1MDIx
OTM1MDVaMBkxFzAVBgNVBAMMDnRlYW0yMzctY2xpZW50MIIBIjANBgkqhkiG9w0B
AQEFAAOCAQ8AMIIBCgKCAQEA0HFNmtU0p3elpMC9SLF6x74bdVWaWVdABAoYvW5L
zLywK7QWWeDp5v09jprrn93jBQSVBEVWnvAuaUgWpAbIm0w0ITn2aHm/hFLYLGVS
dPB0JrXZISsWc8yQ0aFhh3DI9PRLSzHLRjsYGR/qj7+n2jV8MSgNfKvGF9W5fy89
x6K7sRdgFLCGD9WWCYXk6t8KNEBhZ2BuImu9qZBXsd7SiGAPV7MA2X1hOpbvH8Us
M/gUoA2m7ag25iAy4/2Ainj79uXUKQ681E0pKhbHdsKn4OaGDnhXuwZJArezBS24
K8MQU457LzsWbAHzZILdg9qHMUR6loodjQELPPnqvc9iQQIDAQABo4GiMIGfMAkG
A1UdEwQCMAAwHQYDVR0OBBYEFJoyrxkknKEeSQfa54q/ZiWjpT8NMFEGA1UdIwRK
MEiAFEX8uVk34Pp/V6fRtb3wW3IktWmWoRqkGDAWMRQwEgYDVQQDDAt0ZWFtMjM3
LW5ldIIUQNmskYL2gy0kej3r7+zku5vF1XEwEwYDVR0lBAwwCgYIKwYBBQUHAwIw
CwYDVR0PBAQDAgeAMA0GCSqGSIb3DQEBCwUAA4IBAQA6tp6h2ZUVA6qiNfZk3i2I
L15785Y5lsBDQ5VGQ7FYt9dZGBwdEjwk4BhUa4wygGwLU0KHyFf+/w9wEIhatNCi
ewi46Y8kbWpmMOFVhuUAHKLJKhNmR1StJ52dudhpga9fB4XxM4HOeXm96XVDueaM
aL/OfBcbNBeTNWtAO8Jt7ptn1NIRBrq+0JpNGSuDUwcNAXPwkE8VQVn8PxHvxqKp
lZYn3wSWFVFV+31oJ5c0E8/giUYJQGuRChsh2Wd5uZK+AeOriF3K9UvWh4U5Cs0t
paVBNVLhuzWwAeCoqqGBfT4uraR2Y8bJTMIIY5+bSlInXFcsVIqob5uyedRSPBaU
-----END CERTIFICATE-----
