Certificate:
    Data:
        Version: 3 (0x2)
        Serial Number:
            01:b5:2b:c4:a5:8d:97:f1:e5:b6:fa:92:22:d7:ae:0d
        Signature Algorithm: sha256WithRSAEncryption
        Issuer: CN=team339-net
        Validity
            Not Before: May 18 20:30:46 2022 GMT
            Not After : May  2 20:30:46 2025 GMT
        Subject: CN=team339-client
        Subject Public Key Info:
            Public Key Algorithm: rsaEncryption
                RSA Public-Key: (2048 bit)
                Modulus:
                    00:cd:43:1a:15:c1:fc:57:02:60:0f:8a:34:c3:31:
                    fd:14:51:9a:22:c3:49:b4:e5:0c:22:58:97:d7:6a:
                    2b:12:5f:cf:ab:3e:a0:ac:4b:ab:1e:57:68:83:39:
                    90:d9:8f:5c:ac:a4:e1:a8:8e:64:05:c2:19:25:36:
                    a7:a9:62:e0:87:e9:b9:37:bd:1c:65:cc:02:ba:d5:
                    1e:13:c2:09:4b:d7:e6:cd:73:18:49:d4:27:28:ca:
                    06:18:20:25:cf:b3:e5:c2:78:57:7e:75:0c:67:fc:
                    a9:bb:7a:89:46:8a:54:82:90:64:d6:52:3e:5f:9e:
                    54:aa:6e:00:1d:7c:20:32:3c:4a:78:d9:e9:64:5f:
                    3f:95:47:71:3c:ea:18:0e:e2:bf:d2:85:fc:65:0c:
                    04:65:b4:e0:04:33:bd:66:19:5d:10:ac:bf:ab:65:
                    c3:50:3b:5c:08:d4:2d:15:e6:8a:7f:5c:cb:f7:08:
                    de:31:8d:c7:2d:45:bf:8c:ac:50:69:48:e4:82:2c:
                    ed:42:41:1a:0d:4f:27:e4:ac:70:c9:16:27:ac:37:
                    22:fd:ad:ba:c6:65:19:ad:30:9c:ba:f8:78:aa:b6:
                    52:07:0e:67:be:65:fb:4b:b0:b2:01:15:dd:6f:b5:
                    1f:c2:bc:4c:51:71:e1:58:f7:10:64:d7:43:f4:5d:
                    ed:c1
                Exponent: 65537 (0x10001)
        X509v3 extensions:
            X509v3 Basic Constraints: 
                CA:FALSE
            X509v3 Subject Key Identifier: 
                93:B3:FB:B4:8A:1D:87:E4:0D:08:8B:C6:E9:4D:EC:C8:40:78:46:BC
            X509v3 Authority Key Identifier: 
                keyid:54:FB:E2:E0:91:AB:24:9E:96:2E:80:79:7D:E4:9A:8B:E8:E3:D8:26
                DirName:/CN=team339-net
                serial:4C:23:7B:DA:4D:2E:20:17:74:29:E8:0D:28:ED:69:C4:28:EE:C3:97

            X509v3 Extended Key Usage: 
                TLS Web Client Authentication
            X509v3 Key Usage: 
                Digital Signature
    Signature Algorithm: sha256WithRSAEncryption
         74:e0:db:fd:48:bf:67:db:3a:8c:56:60:72:2d:5d:79:16:74:
         25:9b:8c:e5:c2:40:09:a3:96:76:13:e0:bd:56:f3:c6:f3:2f:
         03:75:35:5d:1f:22:c1:cb:c7:24:ae:08:49:f3:d9:e8:80:e0:
         59:f9:64:f9:76:a4:e0:96:5c:86:92:2a:12:88:0e:fc:0a:de:
         85:bb:e1:ec:5d:82:ce:f7:89:3c:0a:85:97:71:a1:e6:2e:88:
         00:38:bb:11:70:95:39:1e:14:9e:1e:e5:a7:f4:aa:28:6f:5c:
         40:f1:0d:f7:06:57:55:a0:f2:0c:81:ea:f8:d0:c1:12:bb:48:
         e2:bf:1a:b2:4a:89:39:6f:00:d2:4e:dd:b7:6e:1d:5c:81:3c:
         36:7b:1d:40:29:26:06:63:0c:40:90:70:f5:ba:bd:25:ca:86:
         a1:38:c1:48:a6:03:9d:a4:55:4d:46:6a:eb:35:8d:1b:f0:43:
         98:79:f1:16:66:9a:0a:b5:e5:fc:13:33:8c:c1:f0:6f:96:d2:
         fb:f1:90:76:38:97:70:86:1b:06:ba:43:b2:8e:e3:bb:5b:ea:
         6d:71:60:60:06:c8:de:01:c1:92:42:f8:03:24:69:ec:30:b3:
         4b:1a:0b:ee:36:cb:90:20:dc:c2:76:b8:84:bb:95:21:1c:c9:
         11:1f:6b:ef
-----BEGIN CERTIFICATE-----
MIIDXDCCAkSgAwIBAgIQAbUrxKWNl/HltvqSIteuDTANBgkqhkiG9w0BAQsFADAW
MRQwEgYDVQQDDAt0ZWFtMzM5LW5ldDAeFw0yMjA1MTgyMDMwNDZaFw0yNTA1MDIy
MDMwNDZaMBkxFzAVBgNVBAMMDnRlYW0zMzktY2xpZW50MIIBIjANBgkqhkiG9w0B
AQEFAAOCAQ8AMIIBCgKCAQEAzUMaFcH8VwJgD4o0wzH9FFGaIsNJtOUMIliX12or
El/Pqz6grEurHldogzmQ2Y9crKThqI5kBcIZJTanqWLgh+m5N70cZcwCutUeE8IJ
S9fmzXMYSdQnKMoGGCAlz7PlwnhXfnUMZ/ypu3qJRopUgpBk1lI+X55Uqm4AHXwg
MjxKeNnpZF8/lUdxPOoYDuK/0oX8ZQwEZbTgBDO9ZhldEKy/q2XDUDtcCNQtFeaK
f1zL9wjeMY3HLUW/jKxQaUjkgiztQkEaDU8n5KxwyRYnrDci/a26xmUZrTCcuvh4
qrZSBw5nvmX7S7CyARXdb7UfwrxMUXHhWPcQZNdD9F3twQIDAQABo4GiMIGfMAkG
A1UdEwQCMAAwHQYDVR0OBBYEFJOz+7SKHYfkDQiLxulN7MhAeEa8MFEGA1UdIwRK
MEiAFFT74uCRqySeli6AeX3kmovo49gmoRqkGDAWMRQwEgYDVQQDDAt0ZWFtMzM5
LW5ldIIUTCN72k0uIBd0KegNKO1pxCjuw5cwEwYDVR0lBAwwCgYIKwYBBQUHAwIw
CwYDVR0PBAQDAgeAMA0GCSqGSIb3DQEBCwUAA4IBAQB04Nv9SL9n2zqMVmByLV15
FnQlm4zlwkAJo5Z2E+C9VvPG8y8DdTVdHyLBy8ckrghJ89nogOBZ+WT5dqTgllyG
kioSiA78Ct6Fu+HsXYLO94k8CoWXcaHmLogAOLsRcJU5HhSeHuWn9Koob1xA8Q33
BldVoPIMger40MESu0jivxqySok5bwDSTt23bh1cgTw2ex1AKSYGYwxAkHD1ur0l
yoahOMFIpgOdpFVNRmrrNY0b8EOYefEWZpoKteX8EzOMwfBvltL78ZB2OJdwhhsG
ukOyjuO7W+ptcWBgBsjeAcGSQvgDJGnsMLNLGgvuNsuQINzCdriEu5UhHMkRH2vv
-----END CERTIFICATE-----
