Certificate:
    Data:
        Version: 3 (0x2)
        Serial Number:
            50:fe:67:be:95:cb:d5:f2:fc:59:41:b9:8e:b6:ae:24
        Signature Algorithm: sha256WithRSAEncryption
        Issuer: CN=team455-net
        Validity
            Not Before: May 18 21:16:40 2022 GMT
            Not After : May  2 21:16:40 2025 GMT
        Subject: CN=team455-server
        Subject Public Key Info:
            Public Key Algorithm: rsaEncryption
                RSA Public-Key: (2048 bit)
                Modulus:
                    00:af:ff:e1:9f:60:2f:77:97:03:07:39:59:e4:b6:
                    bc:70:2b:f1:fb:ca:e5:3a:bc:c6:7d:7c:42:26:24:
                    47:f0:d8:8f:21:d1:1b:15:59:a0:2d:c1:94:fa:a6:
                    18:54:98:55:cc:c8:a7:93:0e:c1:d3:be:74:ac:55:
                    b8:0e:a8:a2:d7:db:fb:d2:a1:48:4b:18:0a:df:cf:
                    29:a2:6e:72:2d:50:80:d2:1d:5a:0a:99:5a:b1:94:
                    94:d1:01:c7:18:31:ed:8c:7f:fa:8a:16:11:9a:4c:
                    c3:d3:ff:58:e4:6b:3b:9a:6c:b8:d2:bc:52:22:72:
                    4c:f4:a4:de:ea:51:4b:1c:b0:ac:e8:b1:05:00:5f:
                    8a:bc:e5:7f:ad:3e:a3:97:20:96:b8:4d:ae:df:3c:
                    e4:73:c6:38:a8:b4:35:5f:a6:7d:e1:2a:a3:0b:fe:
                    32:15:44:f1:c7:00:e6:f3:88:97:5f:15:f0:f6:f5:
                    9e:74:7d:76:d2:f5:0d:30:10:38:d3:29:3a:86:66:
                    77:c8:20:4c:83:98:f6:42:37:67:c3:6f:18:14:26:
                    6b:f9:b9:21:e4:40:4f:8b:ac:11:23:67:9c:37:c4:
                    8d:95:78:a2:63:73:43:49:91:d0:c4:cd:75:e4:99:
                    6e:49:9c:e5:1b:15:d9:77:32:8d:be:2d:65:94:b8:
                    92:8d
                Exponent: 65537 (0x10001)
        X509v3 extensions:
            X509v3 Basic Constraints: 
                CA:FALSE
            X509v3 Subject Key Identifier: 
                91:FB:6A:73:D5:7F:FD:CD:E5:58:13:9E:01:35:D0:AB:19:3B:2D:A5
            X509v3 Authority Key Identifier: 
                keyid:28:57:C5:26:D9:A7:78:07:7B:A5:A5:65:E9:10:3C:0B:B7:B2:A8:B5
                DirName:/CN=team455-net
                serial:60:04:86:59:F6:3C:CB:52:7A:52:82:3D:9C:2D:D9:20:17:12:DF:3D

            X509v3 Extended Key Usage: 
                TLS Web Server Authentication
            X509v3 Key Usage: 
                Digital Signature, Key Encipherment
            X509v3 Subject Alternative Name: 
                DNS:team455-server
    Signature Algorithm: sha256WithRSAEncryption
         42:ec:bb:77:21:29:e9:23:38:c6:2a:ec:f8:2f:2d:2f:e0:c7:
         44:87:ec:91:b5:e4:e6:21:5e:65:9b:b7:f1:bc:50:65:83:cf:
         40:b6:d2:92:78:00:f6:90:b7:a3:5f:c0:59:5e:85:61:b7:65:
         a1:f2:b1:bc:b2:20:41:58:77:ed:94:d1:38:4a:97:9a:ad:6d:
         94:eb:02:a1:0f:4c:cc:a8:87:bd:05:09:51:2c:c4:08:5b:79:
         59:8c:6f:f6:33:dc:df:13:13:24:b8:74:05:c4:05:89:76:c7:
         e4:06:30:4b:fc:39:ce:c9:5b:e5:92:b6:52:99:bd:01:09:92:
         04:d6:66:f2:7f:b2:42:fe:4c:b1:ac:26:b9:94:81:4a:fb:19:
         50:21:f4:dc:41:cf:ee:c3:4b:77:af:82:e6:19:0c:c5:4f:01:
         d3:93:ae:54:29:c1:8b:e7:eb:79:e1:ef:a7:a7:60:a6:fb:f2:
         ed:05:0a:fb:76:ad:68:76:de:ca:15:d5:4d:82:2b:16:a7:72:
         b6:ad:c8:c0:4e:d9:55:bb:e9:d4:bc:a8:4a:45:fb:a0:ce:f5:
         65:14:6c:a6:a9:2e:db:bf:33:16:b3:98:52:f6:6a:0e:a0:a1:
         57:a0:93:68:51:10:00:bf:f1:53:10:08:24:fb:fa:93:0b:c6:
         34:9b:4a:47
-----BEGIN CERTIFICATE-----
MIIDdzCCAl+gAwIBAgIQUP5nvpXL1fL8WUG5jrauJDANBgkqhkiG9w0BAQsFADAW
MRQwEgYDVQQDDAt0ZWFtNDU1LW5ldDAeFw0yMjA1MTgyMTE2NDBaFw0yNTA1MDIy
MTE2NDBaMBkxFzAVBgNVBAMMDnRlYW00NTUtc2VydmVyMIIBIjANBgkqhkiG9w0B
AQEFAAOCAQ8AMIIBCgKCAQEAr//hn2Avd5cDBzlZ5La8cCvx+8rlOrzGfXxCJiRH
8NiPIdEbFVmgLcGU+qYYVJhVzMinkw7B0750rFW4Dqii19v70qFISxgK388pom5y
LVCA0h1aCplasZSU0QHHGDHtjH/6ihYRmkzD0/9Y5Gs7mmy40rxSInJM9KTe6lFL
HLCs6LEFAF+KvOV/rT6jlyCWuE2u3zzkc8Y4qLQ1X6Z94SqjC/4yFUTxxwDm84iX
XxXw9vWedH120vUNMBA40yk6hmZ3yCBMg5j2Qjdnw28YFCZr+bkh5EBPi6wRI2ec
N8SNlXiiY3NDSZHQxM115JluSZzlGxXZdzKNvi1llLiSjQIDAQABo4G9MIG6MAkG
A1UdEwQCMAAwHQYDVR0OBBYEFJH7anPVf/3N5VgTngE10KsZOy2lMFEGA1UdIwRK
MEiAFChXxSbZp3gHe6WlZekQPAu3sqi1oRqkGDAWMRQwEgYDVQQDDAt0ZWFtNDU1
LW5ldIIUYASGWfY8y1J6UoI9nC3ZIBcS3z0wEwYDVR0lBAwwCgYIKwYBBQUHAwEw
CwYDVR0PBAQDAgWgMBkGA1UdEQQSMBCCDnRlYW00NTUtc2VydmVyMA0GCSqGSIb3
DQEBCwUAA4IBAQBC7Lt3ISnpIzjGKuz4Ly0v4MdEh+yRteTmIV5lm7fxvFBlg89A
ttKSeAD2kLejX8BZXoVht2Wh8rG8siBBWHftlNE4SpearW2U6wKhD0zMqIe9BQlR
LMQIW3lZjG/2M9zfExMkuHQFxAWJdsfkBjBL/DnOyVvlkrZSmb0BCZIE1mbyf7JC
/kyxrCa5lIFK+xlQIfTcQc/uw0t3r4LmGQzFTwHTk65UKcGL5+t54e+np2Cm+/Lt
BQr7dq1odt7KFdVNgisWp3K2rcjATtlVu+nUvKhKRfugzvVlFGymqS7bvzMWs5hS
9moOoKFXoJNoURAAv/FTEAgk+/qTC8Y0m0pH
-----END CERTIFICATE-----
