Certificate:
    Data:
        Version: 3 (0x2)
        Serial Number:
            9c:b5:f8:1f:2e:34:b3:f0:f2:66:b2:75:99:d3:dd:4b
        Signature Algorithm: sha256WithRSAEncryption
        Issuer: CN=team436-net
        Validity
            Not Before: May 18 21:15:14 2022 GMT
            Not After : May  2 21:15:14 2025 GMT
        Subject: CN=team436-client
        Subject Public Key Info:
            Public Key Algorithm: rsaEncryption
                RSA Public-Key: (2048 bit)
                Modulus:
                    00:ca:52:45:55:51:96:e8:b3:70:f7:9f:52:62:98:
                    f7:f0:f8:bd:62:d6:66:bc:39:17:0e:c8:1a:45:1f:
                    83:f2:cb:57:a9:c8:33:f7:4f:9b:59:6e:7b:9c:5a:
                    5f:62:bb:8b:76:ec:55:d6:d8:bd:e1:2c:40:20:03:
                    c8:88:3c:27:12:e7:97:a5:cb:b0:3a:be:10:a2:10:
                    83:1e:ca:d3:fc:b5:1c:fd:5e:95:32:a5:d9:83:d3:
                    a7:84:e0:c0:ac:a2:b0:ac:40:14:b7:1f:a5:17:d5:
                    f9:60:f1:fe:1d:8d:4d:a4:98:06:b7:c3:b7:b7:77:
                    d7:d2:54:6a:a4:2a:3e:87:73:1b:d4:3c:7c:3d:2b:
                    02:ad:df:b1:8b:f3:6a:8b:23:1b:94:72:70:44:81:
                    67:db:b1:d8:d3:f9:1c:f0:1c:23:7a:69:63:b2:6c:
                    09:c5:11:ec:77:5b:c0:d5:dc:c0:23:01:da:d8:8f:
                    fc:4d:90:7c:76:28:e7:cc:f3:b9:98:36:3d:1b:7f:
                    bd:13:5f:8d:90:91:6d:0e:7d:18:1c:7b:d9:2a:6b:
                    35:d2:1e:b9:65:9f:3f:97:4f:1c:52:5d:d2:94:64:
                    a3:67:44:12:72:ee:f0:86:06:cb:63:6a:c0:3d:91:
                    fa:9b:85:ca:87:e8:54:cb:bf:2e:0d:a7:fd:c9:82:
                    b4:1b
                Exponent: 65537 (0x10001)
        X509v3 extensions:
            X509v3 Basic Constraints: 
                CA:FALSE
            X509v3 Subject Key Identifier: 
                CF:D1:A8:C9:2F:53:28:92:15:F9:80:B2:F2:07:83:67:E5:80:FB:5E
            X509v3 Authority Key Identifier: 
                keyid:B5:B8:6D:44:A1:4A:A2:8F:DA:E8:C7:B8:69:2E:AB:00:01:94:9E:41
                DirName:/CN=team436-net
                serial:02:B2:7F:5B:2A:8D:41:86:9E:E2:54:58:30:11:DB:E9:0A:44:E6:67

            X509v3 Extended Key Usage: 
                TLS Web Client Authentication
            X509v3 Key Usage: 
                Digital Signature
    Signature Algorithm: sha256WithRSAEncryption
         88:df:a1:7a:29:cd:3b:19:fa:3e:52:50:39:09:f0:8c:d3:1f:
         39:07:3a:dc:43:c0:95:ac:52:26:a8:95:e1:b4:bb:76:d0:40:
         8c:f4:6f:9e:ca:a3:bf:3f:79:84:29:f6:10:e4:05:4d:62:8a:
         f4:64:8c:cc:ed:f7:89:49:95:b4:f2:5a:a4:a8:2b:cd:a6:4c:
         4a:bc:44:d0:97:ec:37:bb:a7:18:00:ce:09:8b:0a:48:38:af:
         d3:17:d7:87:24:36:8d:72:80:92:01:bd:2e:71:b8:29:69:18:
         64:54:b8:e5:99:a0:b8:47:2e:0a:47:eb:1e:a6:00:0b:67:fc:
         43:d3:76:96:48:5a:53:d7:6d:54:55:0b:b0:2d:e1:7c:ef:14:
         86:f8:e1:93:cc:19:fe:0b:d7:f5:27:b0:0a:29:53:da:fe:97:
         c0:7f:e9:7d:b1:0f:f9:d3:b9:e5:3a:49:1f:aa:c4:11:e3:0b:
         ce:61:8c:45:ca:8e:97:78:79:52:1e:af:bd:85:01:f3:a5:9b:
         0d:d1:66:d8:a0:37:60:5f:b2:7b:f6:24:64:8b:96:bf:0d:6e:
         e4:f4:99:ba:db:21:29:8f:fe:80:75:b1:f7:d3:fa:e6:70:2b:
         73:36:c9:04:86:6a:66:48:9e:5f:42:9c:bd:4e:c2:6f:7b:b1:
         6d:ea:30:bd
-----BEGIN CERTIFICATE-----
MIIDXTCCAkWgAwIBAgIRAJy1+B8uNLPw8maydZnT3UswDQYJKoZIhvcNAQELBQAw
FjEUMBIGA1UEAwwLdGVhbTQzNi1uZXQwHhcNMjIwNTE4MjExNTE0WhcNMjUwNTAy
MjExNTE0WjAZMRcwFQYDVQQDDA50ZWFtNDM2LWNsaWVudDCCASIwDQYJKoZIhvcN
AQEBBQADggEPADCCAQoCggEBAMpSRVVRluizcPefUmKY9/D4vWLWZrw5Fw7IGkUf
g/LLV6nIM/dPm1lue5xaX2K7i3bsVdbYveEsQCADyIg8JxLnl6XLsDq+EKIQgx7K
0/y1HP1elTKl2YPTp4TgwKyisKxAFLcfpRfV+WDx/h2NTaSYBrfDt7d319JUaqQq
PodzG9Q8fD0rAq3fsYvzaosjG5RycESBZ9ux2NP5HPAcI3ppY7JsCcUR7HdbwNXc
wCMB2tiP/E2QfHYo58zzuZg2PRt/vRNfjZCRbQ59GBx72SprNdIeuWWfP5dPHFJd
0pRko2dEEnLu8IYGy2NqwD2R+puFyofoVMu/Lg2n/cmCtBsCAwEAAaOBojCBnzAJ
BgNVHRMEAjAAMB0GA1UdDgQWBBTP0ajJL1MokhX5gLLyB4Nn5YD7XjBRBgNVHSME
SjBIgBS1uG1EoUqij9rox7hpLqsAAZSeQaEapBgwFjEUMBIGA1UEAwwLdGVhbTQz
Ni1uZXSCFAKyf1sqjUGGnuJUWDAR2+kKROZnMBMGA1UdJQQMMAoGCCsGAQUFBwMC
MAsGA1UdDwQEAwIHgDANBgkqhkiG9w0BAQsFAAOCAQEAiN+heinNOxn6PlJQOQnw
jNMfOQc63EPAlaxSJqiV4bS7dtBAjPRvnsqjvz95hCn2EOQFTWKK9GSMzO33iUmV
tPJapKgrzaZMSrxE0JfsN7unGADOCYsKSDiv0xfXhyQ2jXKAkgG9LnG4KWkYZFS4
5ZmguEcuCkfrHqYAC2f8Q9N2lkhaU9dtVFULsC3hfO8Uhvjhk8wZ/gvX9SewCilT
2v6XwH/pfbEP+dO55TpJH6rEEeMLzmGMRcqOl3h5Uh6vvYUB86WbDdFm2KA3YF+y
e/YkZIuWvw1u5PSZutshKY/+gHWx99P65nArczbJBIZqZkieX0KcvU7Cb3uxbeow
vQ==
-----END CERTIFICATE-----
