Certificate:
    Data:
        Version: 3 (0x2)
        Serial Number:
            9d:b7:94:1c:d0:bc:64:60:9a:47:08:7e:1e:6f:9c:c9
        Signature Algorithm: sha256WithRSAEncryption
        Issuer: CN=team324-net
        Validity
            Not Before: May 18 20:11:28 2022 GMT
            Not After : May  2 20:11:28 2025 GMT
        Subject: CN=team324-server
        Subject Public Key Info:
            Public Key Algorithm: rsaEncryption
                RSA Public-Key: (2048 bit)
                Modulus:
                    00:d8:b9:0c:86:8a:bb:d6:e9:d0:29:7a:71:03:4a:
                    5b:93:97:bb:aa:1e:15:81:68:a6:3b:3f:26:eb:1d:
                    c7:8c:47:f3:0e:81:ce:78:92:09:9c:6c:d6:6b:86:
                    63:b5:26:95:0f:f0:97:29:2d:5f:27:df:d4:c7:08:
                    c4:c7:0a:ed:f7:4b:6d:5a:71:b5:01:9c:e7:0e:6b:
                    59:ab:81:bf:f8:88:72:97:e1:c9:9c:fc:2d:80:8d:
                    f0:a4:8b:80:44:cd:98:cc:80:b1:ea:f0:fd:fe:d2:
                    f5:5d:18:0e:ac:27:2e:42:49:47:b3:fc:c9:79:59:
                    fd:20:4d:3d:8d:5c:6c:d5:fd:1a:0d:c5:fe:81:f6:
                    44:52:b0:90:b1:fa:58:fc:98:09:84:98:0a:c6:bd:
                    aa:16:20:9b:85:25:55:b3:ec:28:ad:b0:62:b2:e4:
                    6a:63:ce:d6:3a:41:9b:db:66:b8:6c:91:ca:35:46:
                    25:eb:57:ba:8f:a0:72:dc:5d:5d:66:e7:1f:74:9b:
                    58:62:a5:31:7e:dd:fc:33:69:fd:e8:03:df:59:5b:
                    8f:7f:0b:2f:3b:e4:ac:04:cd:4c:a4:df:46:98:e3:
                    07:e0:b9:fc:11:2f:7c:42:1e:9b:48:72:b7:1c:5f:
                    e6:9f:d5:fb:46:de:58:6b:06:76:c4:9a:c1:5c:09:
                    cd:67
                Exponent: 65537 (0x10001)
        X509v3 extensions:
            X509v3 Basic Constraints: 
                CA:FALSE
            X509v3 Subject Key Identifier: 
                CF:AC:43:AC:BF:86:D5:02:78:4F:D8:07:46:3A:B9:0A:22:C8:A4:EB
            X509v3 Authority Key Identifier: 
                keyid:27:7D:80:86:AD:A9:3E:D8:D4:5C:90:66:4E:E3:14:FD:AC:78:2C:48
                DirName:/CN=team324-net
                serial:6A:79:FE:52:F8:48:D2:26:0F:94:A7:C2:57:D4:79:A0:AB:E0:02:9E

            X509v3 Extended Key Usage: 
                TLS Web Server Authentication
            X509v3 Key Usage: 
                Digital Signature, Key Encipherment
            X509v3 Subject Alternative Name: 
                DNS:team324-server
    Signature Algorithm: sha256WithRSAEncryption
         9b:39:fa:bf:27:e9:bd:b9:fe:06:63:f4:9b:76:2c:7b:f2:cb:
         8f:e7:56:9a:7c:05:6c:d7:de:19:50:34:16:89:d1:1f:07:bc:
         8d:06:35:c7:3d:a6:2a:7e:14:91:5a:69:51:b2:f0:52:2d:c5:
         ee:af:be:aa:c8:03:ef:d9:80:b6:8c:64:43:19:79:29:8d:2e:
         91:b6:2a:04:0f:6e:15:88:fe:7c:96:3d:b6:97:35:5b:83:25:
         85:8e:69:c6:c4:6b:6b:6a:03:1d:2b:d0:67:03:8e:30:72:3c:
         fa:46:4c:30:b9:37:4f:62:d8:c5:bd:57:dd:76:90:8f:17:a8:
         09:0d:83:56:23:9d:a8:21:f3:ba:ba:d9:07:0f:66:d8:68:f1:
         28:69:01:26:34:26:f7:51:3b:aa:b3:54:58:8c:7c:bf:24:47:
         e9:26:5f:25:ab:41:05:56:f7:78:19:12:ae:64:84:56:a7:80:
         84:e7:62:d6:c6:76:37:31:73:e3:c5:85:9c:da:ed:17:c8:68:
         82:b0:9a:74:76:87:52:0e:9f:69:2b:84:91:22:c2:d0:fc:b1:
         71:32:fd:3f:cc:6d:be:9a:b4:a4:c3:b4:9d:ff:f3:ab:31:26:
         c7:4f:47:b0:58:32:fe:75:cd:6c:b2:ed:4f:ab:fc:57:e2:56:
         1b:2b:33:d9
-----BEGIN CERTIFICATE-----
MIIDeDCCAmCgAwIBAgIRAJ23lBzQvGRgmkcIfh5vnMkwDQYJKoZIhvcNAQELBQAw
FjEUMBIGA1UEAwwLdGVhbTMyNC1uZXQwHhcNMjIwNTE4MjAxMTI4WhcNMjUwNTAy
MjAxMTI4WjAZMRcwFQYDVQQDDA50ZWFtMzI0LXNlcnZlcjCCASIwDQYJKoZIhvcN
AQEBBQADggEPADCCAQoCggEBANi5DIaKu9bp0Cl6cQNKW5OXu6oeFYFopjs/Jusd
x4xH8w6BzniSCZxs1muGY7UmlQ/wlyktXyff1McIxMcK7fdLbVpxtQGc5w5rWauB
v/iIcpfhyZz8LYCN8KSLgETNmMyAserw/f7S9V0YDqwnLkJJR7P8yXlZ/SBNPY1c
bNX9Gg3F/oH2RFKwkLH6WPyYCYSYCsa9qhYgm4UlVbPsKK2wYrLkamPO1jpBm9tm
uGyRyjVGJetXuo+gctxdXWbnH3SbWGKlMX7d/DNp/egD31lbj38LLzvkrATNTKTf
RpjjB+C5/BEvfEIem0hytxxf5p/V+0beWGsGdsSawVwJzWcCAwEAAaOBvTCBujAJ
BgNVHRMEAjAAMB0GA1UdDgQWBBTPrEOsv4bVAnhP2AdGOrkKIsik6zBRBgNVHSME
SjBIgBQnfYCGrak+2NRckGZO4xT9rHgsSKEapBgwFjEUMBIGA1UEAwwLdGVhbTMy
NC1uZXSCFGp5/lL4SNImD5SnwlfUeaCr4AKeMBMGA1UdJQQMMAoGCCsGAQUFBwMB
MAsGA1UdDwQEAwIFoDAZBgNVHREEEjAQgg50ZWFtMzI0LXNlcnZlcjANBgkqhkiG
9w0BAQsFAAOCAQEAmzn6vyfpvbn+BmP0m3Yse/LLj+dWmnwFbNfeGVA0FonRHwe8
jQY1xz2mKn4UkVppUbLwUi3F7q++qsgD79mAtoxkQxl5KY0ukbYqBA9uFYj+fJY9
tpc1W4MlhY5pxsRra2oDHSvQZwOOMHI8+kZMMLk3T2LYxb1X3XaQjxeoCQ2DViOd
qCHzurrZBw9m2GjxKGkBJjQm91E7qrNUWIx8vyRH6SZfJatBBVb3eBkSrmSEVqeA
hOdi1sZ2NzFz48WFnNrtF8hogrCadHaHUg6faSuEkSLC0PyxcTL9P8xtvpq0pMO0
nf/zqzEmx09HsFgy/nXNbLLtT6v8V+JWGysz2Q==
-----END CERTIFICATE-----
