Certificate:
    Data:
        Version: 3 (0x2)
        Serial Number:
            73:50:38:17:d9:8c:e1:ab:6d:5d:3d:02:dd:b7:ff:bf
        Signature Algorithm: sha256WithRSAEncryption
        Issuer: CN=team105-net
        Validity
            Not Before: May 18 14:54:38 2022 GMT
            Not After : May  2 14:54:38 2025 GMT
        Subject: CN=team105-server
        Subject Public Key Info:
            Public Key Algorithm: rsaEncryption
                RSA Public-Key: (2048 bit)
                Modulus:
                    00:d0:25:0d:47:41:1b:53:c0:35:c7:72:c3:e8:90:
                    87:95:20:58:ac:b1:21:8b:27:7d:41:1e:8c:c1:1a:
                    a3:5b:20:71:9c:51:6f:3a:c8:c2:15:0d:6d:e1:0e:
                    1d:10:28:c5:22:5a:33:e3:71:10:f6:f4:27:d4:79:
                    9a:df:ef:c7:0a:f3:a2:7f:06:d9:b6:76:7c:ff:9d:
                    90:f7:3e:76:35:26:96:8a:f8:1c:f1:08:0a:80:65:
                    b8:03:42:db:64:93:46:6a:ed:88:e3:b0:2a:9e:d6:
                    94:92:37:1b:7e:88:28:c0:ae:8b:2a:17:43:83:48:
                    a2:7f:71:6b:1f:7d:16:91:93:bc:33:02:c2:7a:a2:
                    d2:d8:17:b1:35:65:6c:85:86:6f:83:43:36:f5:8f:
                    40:1c:4b:33:34:f9:d8:2e:c4:7b:3c:50:fc:fa:c0:
                    be:9a:fa:c0:9b:f9:d6:b0:9c:b7:51:59:fc:5b:5b:
                    bc:57:eb:cf:a5:bc:b2:28:a0:9d:0f:94:b0:14:6d:
                    11:bd:f2:e7:1e:9f:f8:ec:36:92:f8:59:d0:ca:9c:
                    30:0c:8d:3b:89:ed:ed:b1:88:0d:4f:fc:e8:50:eb:
                    fc:03:e3:ea:16:12:64:5b:25:23:19:db:54:e9:3e:
                    e5:f2:34:d8:c3:03:ee:8d:7d:eb:e1:0a:d4:ac:a5:
                    7e:01
                Exponent: 65537 (0x10001)
        X509v3 extensions:
            X509v3 Basic Constraints: 
                CA:FALSE
            X509v3 Subject Key Identifier: 
                84:BF:47:7A:FC:86:45:FB:0C:B1:DD:A3:E2:EA:1E:84:9F:47:95:5A
            X509v3 Authority Key Identifier: 
                keyid:D7:D5:DC:22:F0:F0:7A:DB:58:31:A6:A4:54:31:9B:66:BA:21:0A:03
                DirName:/CN=team105-net
                serial:55:86:69:CE:4B:4A:42:98:A4:32:25:F0:AB:24:18:BB:4B:71:64:34

            X509v3 Extended Key Usage: 
                TLS Web Server Authentication
            X509v3 Key Usage: 
                Digital Signature, Key Encipherment
            X509v3 Subject Alternative Name: 
                DNS:team105-server
    Signature Algorithm: sha256WithRSAEncryption
         66:0a:94:56:eb:1c:1c:89:c1:04:00:54:9e:9d:69:91:0c:a7:
         9e:95:ac:c4:c5:3a:17:04:40:84:b3:69:47:e0:91:b5:fc:20:
         7e:36:71:e0:6e:f3:9e:47:56:b4:a5:49:89:dd:e7:db:fb:52:
         7a:4d:04:3a:cd:c6:ac:c0:e4:51:7e:b7:bd:ce:69:5e:2f:6a:
         a3:14:f0:09:6a:57:ec:ff:c6:6c:02:7e:3e:3f:52:1b:50:16:
         6c:e4:5d:1c:0e:a3:29:f4:31:69:9c:e4:80:d4:9b:e1:fc:bb:
         47:88:fb:84:7c:cf:a8:fd:b9:68:f5:43:eb:30:43:17:5b:5a:
         80:a1:6d:88:01:04:a6:14:f0:15:40:33:81:35:83:0a:c6:b3:
         d5:44:c4:2d:4c:8b:1d:04:09:ca:e7:3a:49:1c:04:03:0a:e8:
         4d:78:b7:4b:67:b9:6e:7e:1e:76:fc:f2:5d:b2:86:17:b4:41:
         df:a5:76:42:d4:6d:4e:4c:35:01:e9:87:31:1d:3d:50:d1:78:
         fb:48:c6:d8:c3:79:36:80:c6:84:cd:27:83:71:96:33:d6:79:
         ea:4c:38:73:0c:de:29:81:c9:6c:38:91:b8:de:61:bc:6c:5e:
         36:96:05:92:8b:98:2c:49:e0:12:a9:df:a1:f5:dc:1a:30:33:
         2e:c6:1d:53
-----BEGIN CERTIFICATE-----
MIIDdzCCAl+gAwIBAgIQc1A4F9mM4attXT0C3bf/vzANBgkqhkiG9w0BAQsFADAW
MRQwEgYDVQQDDAt0ZWFtMTA1LW5ldDAeFw0yMjA1MTgxNDU0MzhaFw0yNTA1MDIx
NDU0MzhaMBkxFzAVBgNVBAMMDnRlYW0xMDUtc2VydmVyMIIBIjANBgkqhkiG9w0B
AQEFAAOCAQ8AMIIBCgKCAQEA0CUNR0EbU8A1x3LD6JCHlSBYrLEhiyd9QR6MwRqj
WyBxnFFvOsjCFQ1t4Q4dECjFIloz43EQ9vQn1Hma3+/HCvOifwbZtnZ8/52Q9z52
NSaWivgc8QgKgGW4A0LbZJNGau2I47AqntaUkjcbfogowK6LKhdDg0iif3FrH30W
kZO8MwLCeqLS2BexNWVshYZvg0M29Y9AHEszNPnYLsR7PFD8+sC+mvrAm/nWsJy3
UVn8W1u8V+vPpbyyKKCdD5SwFG0RvfLnHp/47DaS+FnQypwwDI07ie3tsYgNT/zo
UOv8A+PqFhJkWyUjGdtU6T7l8jTYwwPujX3r4QrUrKV+AQIDAQABo4G9MIG6MAkG
A1UdEwQCMAAwHQYDVR0OBBYEFIS/R3r8hkX7DLHdo+LqHoSfR5VaMFEGA1UdIwRK
MEiAFNfV3CLw8HrbWDGmpFQxm2a6IQoDoRqkGDAWMRQwEgYDVQQDDAt0ZWFtMTA1
LW5ldIIUVYZpzktKQpikMiXwqyQYu0txZDQwEwYDVR0lBAwwCgYIKwYBBQUHAwEw
CwYDVR0PBAQDAgWgMBkGA1UdEQQSMBCCDnRlYW0xMDUtc2VydmVyMA0GCSqGSIb3
DQEBCwUAA4IBAQBmCpRW6xwcicEEAFSenWmRDKeelazExToXBECEs2lH4JG1/CB+
NnHgbvOeR1a0pUmJ3efb+1J6TQQ6zcaswORRfre9zmleL2qjFPAJalfs/8ZsAn4+
P1IbUBZs5F0cDqMp9DFpnOSA1Jvh/LtHiPuEfM+o/blo9UPrMEMXW1qAoW2IAQSm
FPAVQDOBNYMKxrPVRMQtTIsdBAnK5zpJHAQDCuhNeLdLZ7lufh52/PJdsoYXtEHf
pXZC1G1OTDUB6YcxHT1Q0Xj7SMbYw3k2gMaEzSeDcZYz1nnqTDhzDN4pgclsOJG4
3mG8bF42lgWSi5gsSeASqd+h9dwaMDMuxh1T
-----END CERTIFICATE-----
