Certificate:
    Data:
        Version: 3 (0x2)
        Serial Number:
            58:75:9a:fc:ab:f5:02:d9:f6:29:3c:e2:b6:85:c3:64
        Signature Algorithm: sha256WithRSAEncryption
        Issuer: CN=team10-net
        Validity
            Not Before: May 18 13:57:55 2022 GMT
            Not After : May  2 13:57:55 2025 GMT
        Subject: CN=team10-client
        Subject Public Key Info:
            Public Key Algorithm: rsaEncryption
                RSA Public-Key: (2048 bit)
                Modulus:
                    00:cb:a5:93:5b:15:6e:0d:13:ad:2e:e5:25:a9:ee:
                    27:ed:93:40:aa:e2:30:e4:12:26:cb:46:ab:11:6a:
                    93:71:f5:ea:0e:8d:3d:22:37:7a:8e:22:44:e0:c5:
                    6e:02:93:ab:01:c0:8a:b8:59:fb:45:18:6c:3e:10:
                    4b:b8:90:4d:32:66:b6:fd:63:75:4e:75:23:82:38:
                    7d:84:1b:18:38:45:ab:d2:69:bd:37:89:be:46:6f:
                    15:9a:75:c3:2d:ab:a0:60:7a:22:87:47:61:64:c8:
                    87:b5:7a:b1:2e:f2:bb:19:24:8f:a7:b6:20:7d:d7:
                    13:0f:53:c7:b0:be:4e:c8:c4:aa:72:a6:9d:80:1c:
                    8b:4c:20:6e:fc:6b:60:04:58:1f:0d:f9:67:53:8f:
                    39:0d:63:e1:d7:ae:5a:f6:3a:49:e5:83:4a:1c:ad:
                    4e:16:6c:3a:5d:97:31:c5:88:2a:df:70:5a:0b:33:
                    3c:51:c0:9d:78:c7:ce:87:cf:5c:7d:dd:4b:50:c1:
                    be:88:1d:58:7a:b5:40:71:0c:25:93:af:2d:0d:be:
                    b2:d8:e0:c4:f1:46:71:69:80:20:8d:32:d1:76:cf:
                    e3:9b:3c:57:7b:53:e8:2c:a8:63:c9:50:96:3e:54:
                    b5:d5:6b:31:30:1b:e0:e8:35:ab:7c:9d:23:fb:7d:
                    b7:81
                Exponent: 65537 (0x10001)
        X509v3 extensions:
            X509v3 Basic Constraints: 
                CA:FALSE
            X509v3 Subject Key Identifier: 
                DB:1F:DE:C6:76:6A:65:A4:19:C0:8D:F5:81:8F:2F:A9:23:3D:A6:E4
            X509v3 Authority Key Identifier: 
                keyid:9E:94:AF:7D:6C:CE:E2:B2:A4:B9:3E:FF:CF:D3:74:27:64:E3:88:72
                DirName:/CN=team10-net
                serial:06:37:89:C7:A9:0E:93:C0:7A:C5:6F:5C:CA:0D:39:4E:FC:69:58:6F

            X509v3 Extended Key Usage: 
                TLS Web Client Authentication
            X509v3 Key Usage: 
                Digital Signature
    Signature Algorithm: sha256WithRSAEncryption
         2d:9a:0c:e4:cf:24:ad:b3:23:0f:fa:aa:7a:2d:64:c1:9d:36:
         48:ae:e8:f3:88:e3:96:fc:1a:92:7f:ec:21:62:4e:ec:b5:04:
         20:1d:b3:81:1e:3d:c4:00:f9:9a:b1:00:62:71:19:fb:2d:96:
         74:68:0f:c4:9f:c2:27:58:d8:be:08:9b:e1:75:dc:4b:eb:b1:
         6d:9b:9b:95:bd:b2:89:3b:35:78:65:aa:c1:9c:16:e7:30:db:
         a7:7d:9c:b9:6b:1b:b8:39:2a:a3:d4:45:1f:90:a1:65:70:38:
         5b:b5:fd:62:e9:21:fe:a6:8e:f3:04:e1:b2:07:30:0e:c0:de:
         26:86:60:05:de:95:37:75:56:23:20:ef:41:b7:56:44:12:c1:
         49:29:7e:72:2d:f4:44:5a:e8:df:c6:2a:83:bc:0a:5c:76:13:
         c9:19:35:41:1f:45:7d:a1:1e:ae:ef:ef:97:b0:10:e9:92:01:
         06:52:5a:40:07:c2:bc:24:72:5e:8c:24:8d:04:1d:c5:c8:d2:
         e7:ef:38:a5:a3:b7:85:94:19:e5:63:69:87:1a:49:10:e1:26:
         c5:42:d0:3a:74:d8:ea:55:9d:3d:dd:4a:84:bf:4a:7e:07:a2:
         3e:8d:0c:7a:dd:2b:50:1f:f0:e5:4b:db:84:bd:29:70:22:61:
         5d:f2:66:c6
-----BEGIN CERTIFICATE-----
MIIDWTCCAkGgAwIBAgIQWHWa/Kv1Atn2KTzitoXDZDANBgkqhkiG9w0BAQsFADAV
MRMwEQYDVQQDDAp0ZWFtMTAtbmV0MB4XDTIyMDUxODEzNTc1NVoXDTI1MDUwMjEz
NTc1NVowGDEWMBQGA1UEAwwNdGVhbTEwLWNsaWVudDCCASIwDQYJKoZIhvcNAQEB
BQADggEPADCCAQoCggEBAMulk1sVbg0TrS7lJanuJ+2TQKriMOQSJstGqxFqk3H1
6g6NPSI3eo4iRODFbgKTqwHAirhZ+0UYbD4QS7iQTTJmtv1jdU51I4I4fYQbGDhF
q9JpvTeJvkZvFZp1wy2roGB6IodHYWTIh7V6sS7yuxkkj6e2IH3XEw9Tx7C+TsjE
qnKmnYAci0wgbvxrYARYHw35Z1OPOQ1j4deuWvY6SeWDShytThZsOl2XMcWIKt9w
WgszPFHAnXjHzofPXH3dS1DBvogdWHq1QHEMJZOvLQ2+stjgxPFGcWmAII0y0XbP
45s8V3tT6CyoY8lQlj5UtdVrMTAb4Og1q3ydI/t9t4ECAwEAAaOBoTCBnjAJBgNV
HRMEAjAAMB0GA1UdDgQWBBTbH97GdmplpBnAjfWBjy+pIz2m5DBQBgNVHSMESTBH
gBSelK99bM7isqS5Pv/P03QnZOOIcqEZpBcwFTETMBEGA1UEAwwKdGVhbTEwLW5l
dIIUBjeJx6kOk8B6xW9cyg05TvxpWG8wEwYDVR0lBAwwCgYIKwYBBQUHAwIwCwYD
VR0PBAQDAgeAMA0GCSqGSIb3DQEBCwUAA4IBAQAtmgzkzyStsyMP+qp6LWTBnTZI
rujziOOW/BqSf+whYk7stQQgHbOBHj3EAPmasQBicRn7LZZ0aA/En8InWNi+CJvh
ddxL67Ftm5uVvbKJOzV4ZarBnBbnMNunfZy5axu4OSqj1EUfkKFlcDhbtf1i6SH+
po7zBOGyBzAOwN4mhmAF3pU3dVYjIO9Bt1ZEEsFJKX5yLfREWujfxiqDvApcdhPJ
GTVBH0V9oR6u7++XsBDpkgEGUlpAB8K8JHJejCSNBB3FyNLn7zilo7eFlBnlY2mH
GkkQ4SbFQtA6dNjqVZ093UqEv0p+B6I+jQx63StQH/DlS9uEvSlwImFd8mbG
-----END CERTIFICATE-----
