Certificate:
    Data:
        Version: 3 (0x2)
        Serial Number:
            5a:15:a3:00:c2:8f:11:37:66:cd:b7:54:a4:63:09:3c
        Signature Algorithm: sha256WithRSAEncryption
        Issuer: CN=team410-net
        Validity
            Not Before: May 18 21:05:30 2022 GMT
            Not After : May  2 21:05:30 2025 GMT
        Subject: CN=team410-client
        Subject Public Key Info:
            Public Key Algorithm: rsaEncryption
                RSA Public-Key: (2048 bit)
                Modulus:
                    00:e1:ad:af:71:b5:df:c1:60:fc:f3:eb:cf:7d:57:
                    69:a3:b0:07:f3:c4:84:24:34:62:32:57:da:b8:e3:
                    d2:54:82:b9:af:5e:87:b8:08:a1:ec:58:ff:88:ee:
                    b6:10:89:f2:29:60:d8:55:8a:44:9a:78:84:73:ad:
                    e1:68:d8:8e:b2:d6:ce:f3:30:c7:29:ae:66:c6:7b:
                    a1:79:fe:23:1a:da:79:36:89:ef:ad:5b:64:12:df:
                    31:2d:04:62:b8:f2:33:9e:02:d4:02:c1:89:e3:9b:
                    a8:ff:d6:22:88:0c:87:38:3d:21:b9:09:44:e5:24:
                    c5:78:d1:0a:20:d4:1f:be:2e:18:64:b7:a3:df:ef:
                    cb:24:0e:0e:cd:be:2b:d9:57:d5:53:b0:af:18:0e:
                    54:a2:17:a0:1d:27:f0:cb:4c:a2:e1:63:f6:bf:b0:
                    21:7c:72:0f:09:a8:29:b2:7c:43:b0:26:d0:fd:2e:
                    63:66:8b:45:48:49:a8:da:b4:78:a0:1f:2c:ea:a4:
                    4a:83:01:c4:bb:43:ca:ee:88:6f:b0:31:bd:3c:7d:
                    65:b7:7c:d4:20:72:2f:c9:fa:21:e4:74:23:5d:5f:
                    4f:90:79:e8:cd:3f:17:f2:79:fe:23:52:3e:60:55:
                    71:a0:26:19:c3:19:bb:a9:20:61:af:cf:a7:1b:30:
                    10:bf
                Exponent: 65537 (0x10001)
        X509v3 extensions:
            X509v3 Basic Constraints: 
                CA:FALSE
            X509v3 Subject Key Identifier: 
                35:3E:DE:CD:7B:66:42:7B:12:68:62:4C:C7:BB:F4:68:81:8C:A9:AF
            X509v3 Authority Key Identifier: 
                keyid:09:9F:28:B5:CE:63:A5:A7:E7:59:44:59:4C:74:6B:C5:3F:A2:C1:8C
                DirName:/CN=team410-net
                serial:10:43:4E:CA:FE:49:E0:E5:77:42:EA:7D:02:53:15:C3:CE:DC:1E:CC

            X509v3 Extended Key Usage: 
                TLS Web Client Authentication
            X509v3 Key Usage: 
                Digital Signature
    Signature Algorithm: sha256WithRSAEncryption
         1e:1a:7c:e5:78:79:32:20:a0:c9:fd:a8:3d:21:1e:f4:75:1d:
         8d:27:47:19:cd:92:d0:24:18:2a:ba:a5:d2:4f:61:46:54:f3:
         2e:ff:09:b1:8d:b0:a7:e9:a1:9d:74:63:c7:1b:49:42:99:4a:
         19:40:38:c6:1c:6f:da:57:c7:ca:2a:4a:86:7e:9f:e0:a7:ef:
         e7:9a:b5:12:2a:c8:38:90:81:aa:a4:53:22:1e:2f:76:04:38:
         c2:0d:9f:5f:98:ee:a7:94:8b:fa:29:82:95:80:4c:74:29:70:
         22:c4:33:5a:65:60:d8:42:4f:18:f3:3f:4d:ea:fb:09:ca:58:
         7c:be:78:25:08:6a:55:32:44:d4:52:81:cf:6d:84:7d:ba:21:
         c6:3c:cd:2c:86:8a:e7:3d:5f:1e:9e:ca:6b:cf:86:f1:d8:5b:
         30:53:eb:d0:c4:fb:3b:07:32:75:9a:36:8d:65:f7:96:7f:71:
         09:f0:a7:0e:09:75:f7:a2:02:59:ad:79:aa:ec:aa:ba:95:32:
         a3:89:48:9b:96:22:5e:92:6c:c7:c8:b7:e4:85:3b:11:96:69:
         5c:cc:4b:92:59:48:3a:44:4d:68:01:92:28:0c:ac:55:28:46:
         75:68:86:e8:de:47:76:b1:cb:3e:58:8c:7e:0f:31:63:c3:0c:
         04:77:cb:97
-----BEGIN CERTIFICATE-----
MIIDXDCCAkSgAwIBAgIQWhWjAMKPETdmzbdUpGMJPDANBgkqhkiG9w0BAQsFADAW
MRQwEgYDVQQDDAt0ZWFtNDEwLW5ldDAeFw0yMjA1MTgyMTA1MzBaFw0yNTA1MDIy
MTA1MzBaMBkxFzAVBgNVBAMMDnRlYW00MTAtY2xpZW50MIIBIjANBgkqhkiG9w0B
AQEFAAOCAQ8AMIIBCgKCAQEA4a2vcbXfwWD88+vPfVdpo7AH88SEJDRiMlfauOPS
VIK5r16HuAih7Fj/iO62EInyKWDYVYpEmniEc63haNiOstbO8zDHKa5mxnuhef4j
Gtp5NonvrVtkEt8xLQRiuPIzngLUAsGJ45uo/9YiiAyHOD0huQlE5STFeNEKINQf
vi4YZLej3+/LJA4Ozb4r2VfVU7CvGA5UohegHSfwy0yi4WP2v7AhfHIPCagpsnxD
sCbQ/S5jZotFSEmo2rR4oB8s6qRKgwHEu0PK7ohvsDG9PH1lt3zUIHIvyfoh5HQj
XV9PkHnozT8X8nn+I1I+YFVxoCYZwxm7qSBhr8+nGzAQvwIDAQABo4GiMIGfMAkG
A1UdEwQCMAAwHQYDVR0OBBYEFDU+3s17ZkJ7EmhiTMe79GiBjKmvMFEGA1UdIwRK
MEiAFAmfKLXOY6Wn51lEWUx0a8U/osGMoRqkGDAWMRQwEgYDVQQDDAt0ZWFtNDEw
LW5ldIIUEENOyv5J4OV3Qup9AlMVw87cHswwEwYDVR0lBAwwCgYIKwYBBQUHAwIw
CwYDVR0PBAQDAgeAMA0GCSqGSIb3DQEBCwUAA4IBAQAeGnzleHkyIKDJ/ag9IR70
dR2NJ0cZzZLQJBgquqXST2FGVPMu/wmxjbCn6aGddGPHG0lCmUoZQDjGHG/aV8fK
KkqGfp/gp+/nmrUSKsg4kIGqpFMiHi92BDjCDZ9fmO6nlIv6KYKVgEx0KXAixDNa
ZWDYQk8Y8z9N6vsJylh8vnglCGpVMkTUUoHPbYR9uiHGPM0shornPV8ensprz4bx
2FswU+vQxPs7BzJ1mjaNZfeWf3EJ8KcOCXX3ogJZrXmq7Kq6lTKjiUibliJekmzH
yLfkhTsRlmlczEuSWUg6RE1oAZIoDKxVKEZ1aIbo3kd2scs+WIx+DzFjwwwEd8uX
-----END CERTIFICATE-----
