Certificate:
    Data:
        Version: 3 (0x2)
        Serial Number:
            30:26:8f:e3:ba:b2:01:7d:28:de:7c:88:db:93:6f:d1
        Signature Algorithm: sha256WithRSAEncryption
        Issuer: CN=team61-net
        Validity
            Not Before: May 18 14:26:26 2022 GMT
            Not After : May  2 14:26:26 2025 GMT
        Subject: CN=team61-client
        Subject Public Key Info:
            Public Key Algorithm: rsaEncryption
                RSA Public-Key: (2048 bit)
                Modulus:
                    00:b0:cd:56:3b:fe:21:9a:1a:a9:9c:e0:f9:2a:a0:
                    e2:20:b0:cd:16:d6:9c:9c:ef:3e:f9:67:44:e5:dc:
                    b7:82:b1:53:90:10:80:83:43:43:69:ee:78:85:3e:
                    88:ad:3e:cd:a0:67:8d:e7:bd:9f:11:26:11:01:14:
                    d3:da:38:02:3b:9f:ba:5f:fc:50:be:bc:93:55:3e:
                    a2:67:c6:66:4d:4c:61:e8:37:42:a5:25:87:c0:8d:
                    fd:1b:87:56:c8:bf:94:1c:3f:69:c2:cb:c3:a3:a9:
                    28:eb:8c:63:af:d7:3b:3e:b7:80:47:ce:2b:46:87:
                    d0:46:12:7a:73:dd:76:9f:7a:5c:41:4e:5a:af:e6:
                    e0:cf:04:9d:38:a9:0e:89:de:f1:f9:40:27:65:fb:
                    92:46:76:11:d2:19:fe:5d:fa:08:c9:44:55:aa:e7:
                    5b:cc:b9:80:08:4d:0a:7b:10:b7:66:e5:3b:a3:27:
                    53:1f:64:2b:8b:6b:f0:ff:5a:13:50:5f:ab:3d:c3:
                    5b:84:42:a8:50:61:58:57:7e:1f:ef:41:a8:ab:ae:
                    34:94:6c:16:52:c4:b7:c5:20:55:42:38:9e:51:9b:
                    83:8a:85:e9:03:b9:0f:32:24:59:e0:e0:fb:65:20:
                    e8:ae:f7:c2:6d:4e:3e:e0:0f:19:09:86:1c:5e:de:
                    36:c9
                Exponent: 65537 (0x10001)
        X509v3 extensions:
            X509v3 Basic Constraints: 
                CA:FALSE
            X509v3 Subject Key Identifier: 
                AB:20:65:7A:B9:99:A0:53:66:D1:D5:30:BB:19:8A:82:72:37:88:57
            X509v3 Authority Key Identifier: 
                keyid:87:98:17:01:BA:0E:E4:98:81:36:A2:40:9B:C2:7D:E5:97:50:3D:EF
                DirName:/CN=team61-net
                serial:2D:BB:AF:C2:E9:07:67:0C:6A:22:4A:33:F0:A6:A0:04:85:AB:E8:B2

            X509v3 Extended Key Usage: 
                TLS Web Client Authentication
            X509v3 Key Usage: 
                Digital Signature
    Signature Algorithm: sha256WithRSAEncryption
         15:86:c9:88:e7:00:7f:f8:b4:e2:47:da:20:39:45:56:1d:74:
         70:06:5c:bb:b7:6b:94:c6:72:54:1a:c4:25:a1:52:2a:e5:1e:
         60:a2:c5:1c:64:0d:e3:57:65:e6:95:ba:7c:86:f1:fe:3d:fe:
         51:a8:76:c5:6c:39:5b:b2:db:36:7c:53:86:90:ac:f2:97:dd:
         d4:84:c3:13:81:91:79:7f:13:b0:44:0a:bb:c9:5d:6b:11:30:
         c2:01:0c:c4:ec:38:03:aa:41:38:1d:a3:6e:44:30:34:4c:a1:
         bf:f8:32:3f:a2:c7:e6:aa:b0:ec:a4:b8:ff:2c:60:fd:3f:11:
         0a:0e:4e:5c:4b:15:c7:f0:ed:0b:40:60:7e:cf:ff:72:cc:24:
         6c:43:37:65:68:8e:04:53:1a:2b:56:91:b2:40:24:a2:34:4d:
         37:53:38:c6:73:93:fa:66:f4:8a:a9:86:d7:01:0c:f6:f4:37:
         5a:db:64:a5:8d:7c:7c:1e:ae:df:3b:f8:bd:55:19:29:e5:5a:
         a5:8e:9f:1f:a7:d2:3c:ac:e6:87:dd:db:ea:49:ce:40:a0:9d:
         e3:57:d5:dc:ca:9c:ac:17:18:a6:fd:66:3a:ae:9a:00:15:2b:
         d7:18:31:92:be:35:c4:ab:9b:36:02:b9:2b:8f:d9:09:4a:3f:
         94:56:fc:6a
-----BEGIN CERTIFICATE-----
MIIDWTCCAkGgAwIBAgIQMCaP47qyAX0o3nyI25Nv0TANBgkqhkiG9w0BAQsFADAV
MRMwEQYDVQQDDAp0ZWFtNjEtbmV0MB4XDTIyMDUxODE0MjYyNloXDTI1MDUwMjE0
MjYyNlowGDEWMBQGA1UEAwwNdGVhbTYxLWNsaWVudDCCASIwDQYJKoZIhvcNAQEB
BQADggEPADCCAQoCggEBALDNVjv+IZoaqZzg+Sqg4iCwzRbWnJzvPvlnROXct4Kx
U5AQgINDQ2nueIU+iK0+zaBnjee9nxEmEQEU09o4Ajuful/8UL68k1U+omfGZk1M
Yeg3QqUlh8CN/RuHVsi/lBw/acLLw6OpKOuMY6/XOz63gEfOK0aH0EYSenPddp96
XEFOWq/m4M8EnTipDone8flAJ2X7kkZ2EdIZ/l36CMlEVarnW8y5gAhNCnsQt2bl
O6MnUx9kK4tr8P9aE1Bfqz3DW4RCqFBhWFd+H+9BqKuuNJRsFlLEt8UgVUI4nlGb
g4qF6QO5DzIkWeDg+2Ug6K73wm1OPuAPGQmGHF7eNskCAwEAAaOBoTCBnjAJBgNV
HRMEAjAAMB0GA1UdDgQWBBSrIGV6uZmgU2bR1TC7GYqCcjeIVzBQBgNVHSMESTBH
gBSHmBcBug7kmIE2okCbwn3ll1A976EZpBcwFTETMBEGA1UEAwwKdGVhbTYxLW5l
dIIULbuvwukHZwxqIkoz8KagBIWr6LIwEwYDVR0lBAwwCgYIKwYBBQUHAwIwCwYD
VR0PBAQDAgeAMA0GCSqGSIb3DQEBCwUAA4IBAQAVhsmI5wB/+LTiR9ogOUVWHXRw
Bly7t2uUxnJUGsQloVIq5R5gosUcZA3jV2Xmlbp8hvH+Pf5RqHbFbDlbsts2fFOG
kKzyl93UhMMTgZF5fxOwRAq7yV1rETDCAQzE7DgDqkE4HaNuRDA0TKG/+DI/osfm
qrDspLj/LGD9PxEKDk5cSxXH8O0LQGB+z/9yzCRsQzdlaI4EUxorVpGyQCSiNE03
UzjGc5P6ZvSKqYbXAQz29Dda22SljXx8Hq7fO/i9VRkp5Vqljp8fp9I8rOaH3dvq
Sc5AoJ3jV9XcypysFxim/WY6rpoAFSvXGDGSvjXEq5s2Arkrj9kJSj+UVvxq
-----END CERTIFICATE-----
