Certificate:
    Data:
        Version: 3 (0x2)
        Serial Number:
            5c:92:92:2a:48:ce:4e:fc:06:c7:ca:ac:c5:66:21:79
        Signature Algorithm: sha256WithRSAEncryption
        Issuer: CN=team396-net
        Validity
            Not Before: May 18 20:59:49 2022 GMT
            Not After : May  2 20:59:49 2025 GMT
        Subject: CN=team396-server
        Subject Public Key Info:
            Public Key Algorithm: rsaEncryption
                RSA Public-Key: (2048 bit)
                Modulus:
                    00:f8:36:ec:21:a2:0d:bc:21:88:97:3e:e2:e9:66:
                    6e:3e:50:06:b8:41:3e:3b:76:e8:4c:b4:67:3d:e8:
                    21:78:01:13:00:b9:ca:3d:a6:ed:bb:65:5b:1b:23:
                    fa:04:4b:62:ab:29:e7:e9:94:0b:41:7a:55:77:a4:
                    59:2c:11:d3:af:68:80:a6:21:24:cd:f4:a7:4e:af:
                    c4:c6:c3:8e:dc:91:e2:36:38:eb:e3:06:e3:fa:9b:
                    50:89:62:50:74:9f:48:96:f4:47:b8:7b:1e:ad:09:
                    0d:63:74:b5:27:6d:3f:e6:70:44:29:38:c0:28:38:
                    a9:47:ec:c7:33:f1:93:70:5a:7c:af:33:c1:90:7c:
                    44:ae:2d:39:b6:57:2e:55:b6:77:7a:9f:a7:72:36:
                    7e:d4:a0:80:50:17:41:57:a6:55:69:92:d1:aa:60:
                    09:c0:88:5e:4f:3d:75:71:fb:9c:15:27:bb:69:4f:
                    eb:9f:35:2b:d0:0e:d0:95:f2:9a:d6:41:09:65:f8:
                    9d:a7:a4:b4:19:fb:e1:98:7e:8b:fa:20:de:fb:20:
                    1f:15:ef:ee:88:25:32:ad:bf:92:8f:cb:75:93:96:
                    6a:91:33:50:9f:5c:3c:54:79:ef:2f:5d:b4:b2:81:
                    5c:99:6e:f8:01:ee:c0:04:12:ab:c2:af:ac:81:7c:
                    8d:4d
                Exponent: 65537 (0x10001)
        X509v3 extensions:
            X509v3 Basic Constraints: 
                CA:FALSE
            X509v3 Subject Key Identifier: 
                60:A7:00:18:F4:6E:79:92:18:10:98:25:E8:2F:A2:66:F2:27:8E:A7
            X509v3 Authority Key Identifier: 
                keyid:24:AA:6A:30:A6:0B:3B:6E:D4:E7:AE:4F:68:04:72:48:F5:79:B8:83
                DirName:/CN=team396-net
                serial:1E:83:03:9F:85:87:9E:E8:3D:1B:57:E7:D7:FB:6F:CF:08:B5:38:58

            X509v3 Extended Key Usage: 
                TLS Web Server Authentication
            X509v3 Key Usage: 
                Digital Signature, Key Encipherment
            X509v3 Subject Alternative Name: 
                DNS:team396-server
    Signature Algorithm: sha256WithRSAEncryption
         0e:34:f9:9e:94:c4:5b:92:ed:0d:85:df:2b:a9:96:1f:22:f6:
         18:3f:95:74:8b:2f:c8:1e:a4:f1:5e:c8:fc:f5:c0:91:67:7d:
         a2:85:1d:38:94:9a:e5:5d:7c:c4:ac:f7:3f:b0:ed:ed:05:53:
         a9:33:98:4d:38:ec:de:78:07:e7:e3:4e:e1:b7:6f:29:32:3c:
         31:09:18:63:50:dd:86:88:c7:ef:c3:19:c1:2b:1c:23:49:1f:
         7d:7a:02:ad:b5:c7:90:c3:a7:e3:13:ed:59:7f:23:58:c6:75:
         7c:74:8b:99:fa:da:6e:14:b8:24:73:53:43:bc:cf:57:59:b8:
         f0:bb:a6:f7:19:58:53:34:3a:46:70:e9:14:16:01:83:6c:c5:
         aa:70:3d:b6:4c:19:36:5b:0b:c5:48:45:73:ea:57:30:ae:f5:
         11:ec:c6:34:7b:a5:2f:57:dc:87:d2:36:15:b4:fb:7b:45:02:
         01:b2:aa:c3:c8:1b:eb:5c:1a:a2:ad:50:3c:c2:7c:1a:06:de:
         3e:dd:06:4c:78:61:24:dc:38:89:a2:fd:81:eb:f0:ae:e2:71:
         a7:a6:2e:c0:c5:52:ec:a7:06:e8:46:9b:ee:21:69:e4:cf:d2:
         ac:4a:60:b5:03:e3:14:19:38:a1:f2:34:c7:17:51:86:ce:c7:
         0d:15:52:dc
-----BEGIN CERTIFICATE-----
MIIDdzCCAl+gAwIBAgIQXJKSKkjOTvwGx8qsxWYheTANBgkqhkiG9w0BAQsFADAW
MRQwEgYDVQQDDAt0ZWFtMzk2LW5ldDAeFw0yMjA1MTgyMDU5NDlaFw0yNTA1MDIy
MDU5NDlaMBkxFzAVBgNVBAMMDnRlYW0zOTYtc2VydmVyMIIBIjANBgkqhkiG9w0B
AQEFAAOCAQ8AMIIBCgKCAQEA+DbsIaINvCGIlz7i6WZuPlAGuEE+O3boTLRnPegh
eAETALnKPabtu2VbGyP6BEtiqynn6ZQLQXpVd6RZLBHTr2iApiEkzfSnTq/ExsOO
3JHiNjjr4wbj+ptQiWJQdJ9IlvRHuHserQkNY3S1J20/5nBEKTjAKDipR+zHM/GT
cFp8rzPBkHxEri05tlcuVbZ3ep+ncjZ+1KCAUBdBV6ZVaZLRqmAJwIheTz11cfuc
FSe7aU/rnzUr0A7QlfKa1kEJZfidp6S0GfvhmH6L+iDe+yAfFe/uiCUyrb+Sj8t1
k5ZqkTNQn1w8VHnvL120soFcmW74Ae7ABBKrwq+sgXyNTQIDAQABo4G9MIG6MAkG
A1UdEwQCMAAwHQYDVR0OBBYEFGCnABj0bnmSGBCYJegvombyJ46nMFEGA1UdIwRK
MEiAFCSqajCmCztu1OeuT2gEckj1ebiDoRqkGDAWMRQwEgYDVQQDDAt0ZWFtMzk2
LW5ldIIUHoMDn4WHnug9G1fn1/tvzwi1OFgwEwYDVR0lBAwwCgYIKwYBBQUHAwEw
CwYDVR0PBAQDAgWgMBkGA1UdEQQSMBCCDnRlYW0zOTYtc2VydmVyMA0GCSqGSIb3
DQEBCwUAA4IBAQAONPmelMRbku0Nhd8rqZYfIvYYP5V0iy/IHqTxXsj89cCRZ32i
hR04lJrlXXzErPc/sO3tBVOpM5hNOOzeeAfn407ht28pMjwxCRhjUN2GiMfvwxnB
KxwjSR99egKttceQw6fjE+1ZfyNYxnV8dIuZ+tpuFLgkc1NDvM9XWbjwu6b3GVhT
NDpGcOkUFgGDbMWqcD22TBk2WwvFSEVz6lcwrvUR7MY0e6UvV9yH0jYVtPt7RQIB
sqrDyBvrXBqirVA8wnwaBt4+3QZMeGEk3DiJov2B6/Cu4nGnpi7AxVLspwboRpvu
IWnkz9KsSmC1A+MUGTih8jTHF1GGzscNFVLc
-----END CERTIFICATE-----
