Certificate:
    Data:
        Version: 3 (0x2)
        Serial Number:
            0b:e5:d4:0c:37:5b:92:5b:ca:2d:55:44:0b:72:e3:1e
        Signature Algorithm: sha256WithRSAEncryption
        Issuer: CN=team632-net
        Validity
            Not Before: May 18 22:55:12 2022 GMT
            Not After : May  2 22:55:12 2025 GMT
        Subject: CN=team632-server
        Subject Public Key Info:
            Public Key Algorithm: rsaEncryption
                RSA Public-Key: (2048 bit)
                Modulus:
                    00:97:c2:02:6c:82:4d:53:c9:99:8a:61:d4:d1:fe:
                    43:53:f0:86:b1:2e:c5:32:27:2b:52:e2:28:09:cb:
                    82:0a:b2:21:f3:a8:b3:73:8b:95:fd:bf:59:b9:bf:
                    54:d6:6f:76:0c:23:3c:58:f3:08:00:68:d6:13:b6:
                    aa:7a:b6:f1:4e:ed:51:cb:b1:52:67:b1:18:2e:e3:
                    11:6e:b5:a6:1b:b1:7d:a5:0e:9e:b7:73:75:1f:25:
                    ad:72:79:7f:77:37:29:4f:b5:23:4d:da:58:5b:91:
                    0a:1d:91:4d:14:42:cc:db:cf:79:2a:ff:cb:a1:f0:
                    b1:29:c6:f2:19:a2:f0:32:61:87:e6:87:ab:81:f1:
                    fc:66:04:56:0e:ef:d4:ef:83:2b:ef:2f:d9:98:05:
                    fd:15:93:46:73:a2:d1:ae:f7:87:b9:fd:6d:3f:ec:
                    3e:19:6f:88:92:a7:53:49:02:25:26:07:6c:e1:f9:
                    d5:3d:dc:55:98:22:72:5f:e4:e6:54:d7:f0:a0:7d:
                    c6:de:6f:5a:b8:9f:3d:37:ae:f7:56:01:92:0d:29:
                    7b:b2:46:a6:ba:9f:f5:1e:3c:c8:b5:da:50:13:cb:
                    99:0c:a4:e1:c9:53:e7:4e:4f:2c:c5:07:b9:61:f5:
                    da:9d:59:9f:e9:5c:69:b1:05:54:f6:c3:e9:62:21:
                    9e:3f
                Exponent: 65537 (0x10001)
        X509v3 extensions:
            X509v3 Basic Constraints: 
                CA:FALSE
            X509v3 Subject Key Identifier: 
                95:0A:C4:46:87:3F:E6:35:66:09:2F:DE:86:9A:04:AF:88:A0:62:EC
            X509v3 Authority Key Identifier: 
                keyid:0D:FA:A9:EF:81:D0:3A:0E:C0:F4:BB:11:76:1B:A1:A1:A7:DD:CE:BD
                DirName:/CN=team632-net
                serial:78:80:AF:AE:4F:CF:68:6E:8B:33:22:83:79:96:5B:99:E2:15:ED:28

            X509v3 Extended Key Usage: 
                TLS Web Server Authentication
            X509v3 Key Usage: 
                Digital Signature, Key Encipherment
            X509v3 Subject Alternative Name: 
                DNS:team632-server
    Signature Algorithm: sha256WithRSAEncryption
         70:78:0f:ea:7a:05:23:7c:f8:86:d7:f7:7e:f2:af:51:8e:a9:
         8d:12:a7:ab:88:83:0c:fa:46:db:61:9f:1b:0d:c1:d4:b6:46:
         3b:0a:bc:d1:f8:1f:8f:f1:47:d7:a1:20:62:39:6a:e7:6e:fd:
         1c:ba:5c:45:fa:81:42:a8:44:6c:21:bd:32:1c:f2:db:f4:c4:
         9e:98:3d:ad:d9:9c:61:b4:7f:a4:31:57:45:e0:d6:1d:e7:37:
         ba:98:bd:aa:c6:18:6d:d5:c6:43:fb:14:16:66:e6:2e:fd:7f:
         0d:6a:b3:a7:d6:c7:ac:6b:12:d3:1d:c0:78:69:f3:e8:94:25:
         d8:19:61:c3:67:b2:92:25:1a:0b:5b:10:c7:34:52:0f:0a:32:
         81:d8:b5:fd:7d:be:ae:8c:c6:b7:74:aa:2c:f6:15:01:54:68:
         cd:ad:2f:b1:21:f2:0d:ec:9c:13:09:18:9e:e1:8e:fb:73:0e:
         fb:00:cd:1a:3d:66:40:d2:8c:7d:fd:8b:7a:77:bb:f4:45:6e:
         b4:9c:eb:6f:dc:d1:c2:f7:31:b0:ac:38:af:68:d2:af:cb:55:
         7e:cd:84:ba:44:50:70:88:d6:84:1a:b3:06:3a:41:a5:ae:5f:
         73:ef:20:29:3e:0e:f7:dc:11:98:82:ac:3e:5d:7b:76:d7:62:
         82:14:b6:54
-----BEGIN CERTIFICATE-----
MIIDdzCCAl+gAwIBAgIQC+XUDDdbklvKLVVEC3LjHjANBgkqhkiG9w0BAQsFADAW
MRQwEgYDVQQDDAt0ZWFtNjMyLW5ldDAeFw0yMjA1MTgyMjU1MTJaFw0yNTA1MDIy
MjU1MTJaMBkxFzAVBgNVBAMMDnRlYW02MzItc2VydmVyMIIBIjANBgkqhkiG9w0B
AQEFAAOCAQ8AMIIBCgKCAQEAl8ICbIJNU8mZimHU0f5DU/CGsS7FMicrUuIoCcuC
CrIh86izc4uV/b9Zub9U1m92DCM8WPMIAGjWE7aqerbxTu1Ry7FSZ7EYLuMRbrWm
G7F9pQ6et3N1HyWtcnl/dzcpT7UjTdpYW5EKHZFNFELM2895Kv/LofCxKcbyGaLw
MmGH5oergfH8ZgRWDu/U74Mr7y/ZmAX9FZNGc6LRrveHuf1tP+w+GW+IkqdTSQIl
Jgds4fnVPdxVmCJyX+TmVNfwoH3G3m9auJ89N673VgGSDSl7skamup/1HjzItdpQ
E8uZDKThyVPnTk8sxQe5YfXanVmf6VxpsQVU9sPpYiGePwIDAQABo4G9MIG6MAkG
A1UdEwQCMAAwHQYDVR0OBBYEFJUKxEaHP+Y1Zgkv3oaaBK+IoGLsMFEGA1UdIwRK
MEiAFA36qe+B0DoOwPS7EXYboaGn3c69oRqkGDAWMRQwEgYDVQQDDAt0ZWFtNjMy
LW5ldIIUeICvrk/PaG6LMyKDeZZbmeIV7SgwEwYDVR0lBAwwCgYIKwYBBQUHAwEw
CwYDVR0PBAQDAgWgMBkGA1UdEQQSMBCCDnRlYW02MzItc2VydmVyMA0GCSqGSIb3
DQEBCwUAA4IBAQBweA/qegUjfPiG1/d+8q9RjqmNEqeriIMM+kbbYZ8bDcHUtkY7
CrzR+B+P8UfXoSBiOWrnbv0culxF+oFCqERsIb0yHPLb9MSemD2t2ZxhtH+kMVdF
4NYd5ze6mL2qxhht1cZD+xQWZuYu/X8NarOn1sesaxLTHcB4afPolCXYGWHDZ7KS
JRoLWxDHNFIPCjKB2LX9fb6ujMa3dKos9hUBVGjNrS+xIfIN7JwTCRie4Y77cw77
AM0aPWZA0ox9/Yt6d7v0RW60nOtv3NHC9zGwrDivaNKvy1V+zYS6RFBwiNaEGrMG
OkGlrl9z7yApPg733BGYgqw+XXt212KCFLZU
-----END CERTIFICATE-----
