Certificate:
    Data:
        Version: 3 (0x2)
        Serial Number:
            3d:4f:d1:f4:fa:d0:07:e2:d1:a5:70:ae:c7:0a:2f:a9
        Signature Algorithm: sha256WithRSAEncryption
        Issuer: CN=team210-net
        Validity
            Not Before: May 18 19:15:52 2022 GMT
            Not After : May  2 19:15:52 2025 GMT
        Subject: CN=team210-server
        Subject Public Key Info:
            Public Key Algorithm: rsaEncryption
                RSA Public-Key: (2048 bit)
                Modulus:
                    00:a1:ce:ec:f2:83:59:cc:b3:69:ef:de:a9:f2:cc:
                    48:74:26:f7:f3:20:8b:5f:d4:e3:7f:1e:3e:d1:4a:
                    22:92:2b:9d:64:16:ff:b5:34:8b:e8:6e:ff:39:2c:
                    aa:15:27:03:78:c2:5b:2f:44:d1:78:51:ce:13:87:
                    88:5e:3c:6a:5a:fd:79:3c:c3:55:3d:9d:b1:55:c5:
                    7a:50:78:66:e1:03:d1:40:e5:2a:61:0b:09:0c:2b:
                    8c:94:11:7a:75:a9:db:ce:1f:b4:e1:0a:24:a0:35:
                    8c:af:10:43:8f:22:c7:39:7e:73:c5:31:92:30:d2:
                    6d:7c:9b:fc:45:2e:80:92:6d:19:d3:2f:fe:a6:95:
                    af:8e:fa:69:aa:3f:61:26:4b:66:92:f1:02:f8:74:
                    09:da:e4:64:53:d0:46:bb:53:24:78:5c:e2:c3:3d:
                    31:38:ba:15:f3:49:73:17:b7:a4:3f:c3:d3:bc:2b:
                    12:0a:ed:55:f1:55:2e:84:d2:7d:86:0b:9d:42:6e:
                    b8:45:c1:ac:09:47:99:11:98:9e:f6:81:02:36:7b:
                    a3:95:ae:41:32:d0:7d:c8:bf:68:70:5b:e5:f9:24:
                    fd:3d:1b:4b:e4:6b:ea:26:e1:17:94:be:48:dd:b9:
                    9f:8c:8e:d7:90:13:f1:49:2c:cb:9b:b0:ac:13:49:
                    f8:11
                Exponent: 65537 (0x10001)
        X509v3 extensions:
            X509v3 Basic Constraints: 
                CA:FALSE
            X509v3 Subject Key Identifier: 
                35:28:CB:5C:34:37:6F:0D:6A:8C:20:91:A7:A5:0C:B2:0E:9E:57:3C
            X509v3 Authority Key Identifier: 
                keyid:8F:55:3A:81:45:EF:B2:FD:91:0C:08:81:E2:B8:3A:78:C5:3C:41:DF
                DirName:/CN=team210-net
                serial:18:11:2F:7E:57:84:D4:07:90:87:7D:0F:58:F8:A1:36:F1:D5:C8:36

            X509v3 Extended Key Usage: 
                TLS Web Server Authentication
            X509v3 Key Usage: 
                Digital Signature, Key Encipherment
            X509v3 Subject Alternative Name: 
                DNS:team210-server
    Signature Algorithm: sha256WithRSAEncryption
         1c:a8:6c:7b:52:4d:f1:d7:c1:0a:94:99:ea:cb:b5:a8:33:63:
         72:29:40:5d:b6:bf:e8:6d:17:5e:1f:7e:43:f9:17:43:33:df:
         56:50:36:db:2d:b2:c6:69:d4:e4:95:c4:d8:da:a8:12:22:f2:
         9e:b5:19:34:7b:d6:5d:65:05:84:d2:af:43:1a:f6:ea:4b:10:
         ff:0b:28:2b:32:c8:d0:4c:01:62:cb:44:aa:01:3c:cf:be:d3:
         77:fd:6d:0f:fe:a4:56:78:80:7e:b7:ff:fd:35:82:99:e6:f6:
         90:f6:82:c6:ad:be:7b:26:9e:7f:46:a1:fe:37:1d:eb:35:8a:
         e6:a6:19:be:be:3b:cd:2f:cb:c1:d5:23:85:0e:70:57:ec:a4:
         67:bd:30:72:aa:ff:3d:5f:0a:a1:9b:cc:63:59:32:7c:87:4c:
         16:93:31:7d:21:4e:1a:66:86:1b:13:38:77:0a:b8:80:6c:75:
         bd:8e:ca:55:3c:86:cb:e1:c0:07:9e:88:fb:69:cf:72:af:9f:
         a7:b9:63:19:ba:5f:ee:fd:7b:d6:ab:8e:12:97:39:35:12:83:
         d4:f9:24:3e:0a:cf:ed:ef:89:6f:2c:04:ba:fb:78:cd:df:b2:
         ab:c8:e1:fa:4c:9c:53:7c:2e:7a:c8:72:77:b6:54:06:98:94:
         a5:07:f8:7c
-----BEGIN CERTIFICATE-----
MIIDdzCCAl+gAwIBAgIQPU/R9PrQB+LRpXCuxwovqTANBgkqhkiG9w0BAQsFADAW
MRQwEgYDVQQDDAt0ZWFtMjEwLW5ldDAeFw0yMjA1MTgxOTE1NTJaFw0yNTA1MDIx
OTE1NTJaMBkxFzAVBgNVBAMMDnRlYW0yMTAtc2VydmVyMIIBIjANBgkqhkiG9w0B
AQEFAAOCAQ8AMIIBCgKCAQEAoc7s8oNZzLNp796p8sxIdCb38yCLX9Tjfx4+0Uoi
kiudZBb/tTSL6G7/OSyqFScDeMJbL0TReFHOE4eIXjxqWv15PMNVPZ2xVcV6UHhm
4QPRQOUqYQsJDCuMlBF6danbzh+04QokoDWMrxBDjyLHOX5zxTGSMNJtfJv8RS6A
km0Z0y/+ppWvjvppqj9hJktmkvEC+HQJ2uRkU9BGu1MkeFziwz0xOLoV80lzF7ek
P8PTvCsSCu1V8VUuhNJ9hgudQm64RcGsCUeZEZie9oECNnujla5BMtB9yL9ocFvl
+ST9PRtL5GvqJuEXlL5I3bmfjI7XkBPxSSzLm7CsE0n4EQIDAQABo4G9MIG6MAkG
A1UdEwQCMAAwHQYDVR0OBBYEFDUoy1w0N28NaowgkaelDLIOnlc8MFEGA1UdIwRK
MEiAFI9VOoFF77L9kQwIgeK4OnjFPEHfoRqkGDAWMRQwEgYDVQQDDAt0ZWFtMjEw
LW5ldIIUGBEvfleE1AeQh30PWPihNvHVyDYwEwYDVR0lBAwwCgYIKwYBBQUHAwEw
CwYDVR0PBAQDAgWgMBkGA1UdEQQSMBCCDnRlYW0yMTAtc2VydmVyMA0GCSqGSIb3
DQEBCwUAA4IBAQAcqGx7Uk3x18EKlJnqy7WoM2NyKUBdtr/obRdeH35D+RdDM99W
UDbbLbLGadTklcTY2qgSIvKetRk0e9ZdZQWE0q9DGvbqSxD/CygrMsjQTAFiy0Sq
ATzPvtN3/W0P/qRWeIB+t//9NYKZ5vaQ9oLGrb57Jp5/RqH+Nx3rNYrmphm+vjvN
L8vB1SOFDnBX7KRnvTByqv89Xwqhm8xjWTJ8h0wWkzF9IU4aZoYbEzh3CriAbHW9
jspVPIbL4cAHnoj7ac9yr5+nuWMZul/u/XvWq44Slzk1EoPU+SQ+Cs/t74lvLAS6
+3jN37KryOH6TJxTfC56yHJ3tlQGmJSlB/h8
-----END CERTIFICATE-----
