Certificate:
    Data:
        Version: 3 (0x2)
        Serial Number:
            17:35:06:ed:ae:3b:9c:86:89:9b:a6:4a:6f:0d:bc:af
        Signature Algorithm: sha256WithRSAEncryption
        Issuer: CN=team553-net
        Validity
            Not Before: May 18 22:14:08 2022 GMT
            Not After : May  2 22:14:08 2025 GMT
        Subject: CN=team553-client
        Subject Public Key Info:
            Public Key Algorithm: rsaEncryption
                RSA Public-Key: (2048 bit)
                Modulus:
                    00:c4:25:d6:20:5e:66:4f:13:f1:f6:ad:12:9e:83:
                    48:64:d7:5a:8b:2c:e1:89:4c:63:ac:ba:b0:8b:02:
                    c4:ba:46:00:6d:ed:a5:1c:07:de:65:4f:37:d6:e6:
                    df:d9:2b:61:54:51:13:66:44:55:fd:9f:55:6a:e2:
                    64:38:67:34:6b:f6:7f:bb:08:0b:33:68:b1:c8:21:
                    03:21:ed:e5:84:ac:c5:2f:96:53:6d:f8:2e:bf:a3:
                    4f:46:6b:a8:24:ab:90:1b:3a:8f:03:6c:3e:4b:1e:
                    54:34:2b:05:d4:ec:90:86:15:8c:7a:ca:7d:96:73:
                    9b:f9:7b:ad:7b:c9:29:d3:a1:07:4f:6e:1a:1c:09:
                    28:ec:a1:22:35:4b:8f:1e:8a:1d:25:08:4e:a3:a9:
                    65:67:74:f3:c6:d1:8c:e2:10:9b:f2:f6:a9:03:f9:
                    32:fc:2a:ce:88:29:a6:03:4c:1e:31:3c:0c:9b:a1:
                    b4:71:9e:de:b3:1a:e5:55:e4:c0:b9:b3:c3:d3:ec:
                    c3:9c:48:07:74:25:df:cf:02:3a:fb:fb:b9:9d:ea:
                    0f:ce:d7:59:a1:17:72:58:5b:3b:01:e8:00:13:de:
                    29:94:12:2a:24:d0:f0:5e:f6:d1:43:bb:da:f8:36:
                    d5:e2:8c:ce:56:0e:9f:50:2c:07:0e:f4:19:77:f4:
                    79:b3
                Exponent: 65537 (0x10001)
        X509v3 extensions:
            X509v3 Basic Constraints: 
                CA:FALSE
            X509v3 Subject Key Identifier: 
                D4:FA:60:EC:D0:34:6B:18:26:64:E2:69:B3:6F:93:83:7F:F1:0C:7C
            X509v3 Authority Key Identifier: 
                keyid:53:56:CC:36:5A:3C:E7:5E:58:C8:76:97:26:27:AB:B3:5E:DF:1E:AA
                DirName:/CN=team553-net
                serial:0B:A0:93:A2:5C:62:26:D5:7B:9A:34:90:6E:06:A8:EC:08:C1:9E:96

            X509v3 Extended Key Usage: 
                TLS Web Client Authentication
            X509v3 Key Usage: 
                Digital Signature
    Signature Algorithm: sha256WithRSAEncryption
         14:83:bd:01:24:69:e8:b5:14:9f:0c:fd:4f:cf:2f:39:90:a6:
         61:c4:31:5a:ad:58:09:87:1c:07:be:e3:f5:d8:f4:23:c8:4b:
         53:71:bd:f7:6a:02:80:8b:b0:c2:bb:33:4d:8b:c8:ae:e2:f4:
         c4:e9:b3:81:f1:d9:a7:3c:cb:4b:c3:66:f1:d9:5f:39:cb:8d:
         cf:92:58:aa:be:b1:9b:f4:a2:2a:35:d0:20:85:2e:e8:3e:75:
         db:4c:fd:3c:c6:0a:d7:96:9d:4c:66:77:38:e8:d1:be:0b:ea:
         3d:e1:43:25:31:55:ab:74:58:c0:82:c2:09:54:2a:ee:5d:15:
         d7:fd:75:b2:d9:db:b6:ec:1a:34:e1:b0:ff:eb:f4:00:7a:a7:
         4b:6a:5f:8e:2f:12:70:3c:03:fb:6b:28:76:1c:82:c4:80:1e:
         6f:b3:ea:4c:18:42:2e:49:4b:b1:f4:20:5e:32:48:1c:68:7f:
         8d:50:8d:1e:7c:26:74:e7:91:8d:20:21:a8:29:82:d7:e5:89:
         43:c4:18:96:b9:57:95:ff:67:4b:3d:8b:35:0e:a6:30:6c:8f:
         94:4b:b4:c7:59:ff:57:c9:c9:ea:ea:32:43:1e:21:6d:81:49:
         94:f8:7d:87:98:32:4c:60:86:1d:7d:cd:c3:6b:cd:e7:d7:7a:
         5a:b2:93:5f
-----BEGIN CERTIFICATE-----
MIIDXDCCAkSgAwIBAgIQFzUG7a47nIaJm6ZKbw28rzANBgkqhkiG9w0BAQsFADAW
MRQwEgYDVQQDDAt0ZWFtNTUzLW5ldDAeFw0yMjA1MTgyMjE0MDhaFw0yNTA1MDIy
MjE0MDhaMBkxFzAVBgNVBAMMDnRlYW01NTMtY2xpZW50MIIBIjANBgkqhkiG9w0B
AQEFAAOCAQ8AMIIBCgKCAQEAxCXWIF5mTxPx9q0SnoNIZNdaiyzhiUxjrLqwiwLE
ukYAbe2lHAfeZU831ubf2SthVFETZkRV/Z9VauJkOGc0a/Z/uwgLM2ixyCEDIe3l
hKzFL5ZTbfguv6NPRmuoJKuQGzqPA2w+Sx5UNCsF1OyQhhWMesp9lnOb+Xute8kp
06EHT24aHAko7KEiNUuPHoodJQhOo6llZ3TzxtGM4hCb8vapA/ky/CrOiCmmA0we
MTwMm6G0cZ7esxrlVeTAubPD0+zDnEgHdCXfzwI6+/u5neoPztdZoRdyWFs7AegA
E94plBIqJNDwXvbRQ7va+DbV4ozOVg6fUCwHDvQZd/R5swIDAQABo4GiMIGfMAkG
A1UdEwQCMAAwHQYDVR0OBBYEFNT6YOzQNGsYJmTiabNvk4N/8Qx8MFEGA1UdIwRK
MEiAFFNWzDZaPOdeWMh2lyYnq7Ne3x6qoRqkGDAWMRQwEgYDVQQDDAt0ZWFtNTUz
LW5ldIIUC6CTolxiJtV7mjSQbgao7AjBnpYwEwYDVR0lBAwwCgYIKwYBBQUHAwIw
CwYDVR0PBAQDAgeAMA0GCSqGSIb3DQEBCwUAA4IBAQAUg70BJGnotRSfDP1Pzy85
kKZhxDFarVgJhxwHvuP12PQjyEtTcb33agKAi7DCuzNNi8iu4vTE6bOB8dmnPMtL
w2bx2V85y43PkliqvrGb9KIqNdAghS7oPnXbTP08xgrXlp1MZnc46NG+C+o94UMl
MVWrdFjAgsIJVCruXRXX/XWy2du27Bo04bD/6/QAeqdLal+OLxJwPAP7ayh2HILE
gB5vs+pMGEIuSUux9CBeMkgcaH+NUI0efCZ055GNICGoKYLX5YlDxBiWuVeV/2dL
PYs1DqYwbI+US7THWf9Xycnq6jJDHiFtgUmU+H2HmDJMYIYdfc3Da83n13paspNf
-----END CERTIFICATE-----
