Certificate:
    Data:
        Version: 3 (0x2)
        Serial Number:
            e9:ae:65:3f:92:45:2f:fb:18:c1:70:51:9b:2c:c7:9e
        Signature Algorithm: sha256WithRSAEncryption
        Issuer: CN=team66-net
        Validity
            Not Before: May 18 14:30:56 2022 GMT
            Not After : May  2 14:30:56 2025 GMT
        Subject: CN=team66-server
        Subject Public Key Info:
            Public Key Algorithm: rsaEncryption
                RSA Public-Key: (2048 bit)
                Modulus:
                    00:c8:28:5d:4d:ec:ed:d4:cc:ff:cd:3d:fa:63:b2:
                    f7:f5:f1:e1:de:7b:a4:6d:b3:48:67:7c:0f:2a:70:
                    45:21:32:d7:e4:d0:45:60:f4:df:a2:ae:9f:a7:6d:
                    6e:1a:68:db:86:58:97:25:70:d4:9c:ea:10:f5:35:
                    ae:bf:a4:81:d7:fb:d6:39:1a:c7:42:33:f8:55:72:
                    09:43:a5:85:8f:dd:e1:05:4c:27:dd:63:a0:c3:b1:
                    3e:7a:35:0a:59:27:38:96:a2:f7:da:14:f6:94:64:
                    01:d7:b2:04:cc:6d:90:f9:de:03:16:11:60:16:b2:
                    45:d2:58:4b:ed:9c:e5:35:b1:68:47:1d:b6:66:10:
                    87:b1:39:7a:9a:39:b6:1b:27:83:b3:18:c0:f7:1a:
                    52:b4:d1:a2:e3:74:c6:47:6f:4a:cc:cf:10:20:20:
                    cc:07:2c:8d:4b:59:9f:44:f9:da:a2:e9:ea:30:17:
                    bf:dc:8f:3b:5e:e4:40:88:84:29:24:8e:74:a8:5f:
                    f4:4c:1c:a0:8e:e2:48:98:88:15:cb:66:7d:5b:34:
                    d6:cd:72:c4:00:39:1d:1f:28:5c:a4:8a:b6:00:37:
                    f6:4a:b0:96:dc:54:cb:c2:da:84:a2:df:c7:0b:1f:
                    84:02:90:54:35:f7:2f:c3:1e:cd:2d:73:d7:91:c6:
                    9d:6b
                Exponent: 65537 (0x10001)
        X509v3 extensions:
            X509v3 Basic Constraints: 
                CA:FALSE
            X509v3 Subject Key Identifier: 
                22:D4:A3:C1:AD:FA:58:62:67:EE:53:AB:39:BE:76:EF:E0:23:04:E7
            X509v3 Authority Key Identifier: 
                keyid:01:62:4F:E1:9D:2E:11:1B:2D:43:36:9A:FD:67:6E:80:B9:97:9B:B5
                DirName:/CN=team66-net
                serial:6C:98:45:53:26:77:60:D4:3C:97:A7:C8:58:72:8A:63:AB:7D:D2:C3

            X509v3 Extended Key Usage: 
                TLS Web Server Authentication
            X509v3 Key Usage: 
                Digital Signature, Key Encipherment
            X509v3 Subject Alternative Name: 
                DNS:team66-server
    Signature Algorithm: sha256WithRSAEncryption
         36:98:6c:59:27:23:d1:db:8c:00:c5:5c:f8:b2:f6:db:39:62:
         ce:f5:3b:04:51:61:04:bb:10:35:1d:be:21:c4:d7:f4:4a:dc:
         77:c3:88:aa:54:ed:95:da:11:7e:e1:29:e0:ca:39:2f:06:3e:
         c1:8d:41:7e:20:cb:ce:80:7f:14:63:3f:88:cf:9c:44:68:9e:
         88:5e:c4:3d:fe:a4:11:ef:51:44:a0:a1:57:99:3e:3e:1e:08:
         f1:71:dd:0b:e6:73:30:ca:95:3f:2f:66:27:c2:59:87:42:38:
         2f:3c:fb:f8:b1:9d:9e:b1:c5:18:f8:b7:de:1d:cc:46:e1:58:
         7d:71:c8:ad:66:87:02:03:99:07:96:7c:f3:ac:3a:b5:dc:66:
         90:90:1c:cf:74:2e:58:80:34:15:06:8a:b3:68:a5:b7:a3:3d:
         c2:77:30:2d:a8:63:e9:5a:dd:4d:7e:a1:df:8e:a7:3b:c1:9b:
         82:b7:e3:7b:a1:b4:80:20:dd:b3:29:49:6e:cc:03:de:16:3d:
         eb:43:aa:9d:7c:88:4c:ab:c4:98:2c:04:f2:b2:37:70:bd:89:
         23:b0:16:dd:8a:84:0b:85:f9:ab:5d:2d:f0:8b:22:e4:ed:1f:
         83:26:36:1d:e2:20:e1:ee:98:af:f9:e6:11:05:45:d7:86:2d:
         45:35:7a:4e
-----BEGIN CERTIFICATE-----
MIIDdDCCAlygAwIBAgIRAOmuZT+SRS/7GMFwUZssx54wDQYJKoZIhvcNAQELBQAw
FTETMBEGA1UEAwwKdGVhbTY2LW5ldDAeFw0yMjA1MTgxNDMwNTZaFw0yNTA1MDIx
NDMwNTZaMBgxFjAUBgNVBAMMDXRlYW02Ni1zZXJ2ZXIwggEiMA0GCSqGSIb3DQEB
AQUAA4IBDwAwggEKAoIBAQDIKF1N7O3UzP/NPfpjsvf18eHee6Rts0hnfA8qcEUh
Mtfk0EVg9N+irp+nbW4aaNuGWJclcNSc6hD1Na6/pIHX+9Y5GsdCM/hVcglDpYWP
3eEFTCfdY6DDsT56NQpZJziWovfaFPaUZAHXsgTMbZD53gMWEWAWskXSWEvtnOU1
sWhHHbZmEIexOXqaObYbJ4OzGMD3GlK00aLjdMZHb0rMzxAgIMwHLI1LWZ9E+dqi
6eowF7/cjzte5ECIhCkkjnSoX/RMHKCO4kiYiBXLZn1bNNbNcsQAOR0fKFykirYA
N/ZKsJbcVMvC2oSi38cLH4QCkFQ19y/DHs0tc9eRxp1rAgMBAAGjgbswgbgwCQYD
VR0TBAIwADAdBgNVHQ4EFgQUItSjwa36WGJn7lOrOb527+AjBOcwUAYDVR0jBEkw
R4AUAWJP4Z0uERstQzaa/WdugLmXm7WhGaQXMBUxEzARBgNVBAMMCnRlYW02Ni1u
ZXSCFGyYRVMmd2DUPJenyFhyimOrfdLDMBMGA1UdJQQMMAoGCCsGAQUFBwMBMAsG
A1UdDwQEAwIFoDAYBgNVHREEETAPgg10ZWFtNjYtc2VydmVyMA0GCSqGSIb3DQEB
CwUAA4IBAQA2mGxZJyPR24wAxVz4svbbOWLO9TsEUWEEuxA1Hb4hxNf0Stx3w4iq
VO2V2hF+4SngyjkvBj7BjUF+IMvOgH8UYz+Iz5xEaJ6IXsQ9/qQR71FEoKFXmT4+
Hgjxcd0L5nMwypU/L2YnwlmHQjgvPPv4sZ2escUY+LfeHcxG4Vh9ccitZocCA5kH
lnzzrDq13GaQkBzPdC5YgDQVBoqzaKW3oz3CdzAtqGPpWt1NfqHfjqc7wZuCt+N7
obSAIN2zKUluzAPeFj3rQ6qdfIhMq8SYLATysjdwvYkjsBbdioQLhfmrXS3wiyLk
7R+DJjYd4iDh7piv+eYRBUXXhi1FNXpO
-----END CERTIFICATE-----
