Certificate:
    Data:
        Version: 3 (0x2)
        Serial Number:
            54:ff:21:cf:6a:70:cb:f3:5a:bb:82:4c:46:cb:72:30
        Signature Algorithm: sha256WithRSAEncryption
        Issuer: CN=team245-net
        Validity
            Not Before: May 18 19:36:37 2022 GMT
            Not After : May  2 19:36:37 2025 GMT
        Subject: CN=team245-server
        Subject Public Key Info:
            Public Key Algorithm: rsaEncryption
                RSA Public-Key: (2048 bit)
                Modulus:
                    00:aa:f4:10:bd:16:c7:1b:06:41:46:d6:b8:c7:06:
                    24:ac:29:0b:9f:f4:f9:f9:0d:6d:f2:20:bf:06:7a:
                    bc:cc:83:54:b5:b1:e9:6f:0c:1f:bc:76:f3:35:80:
                    55:e3:33:e5:85:a2:fa:32:90:42:f5:b4:5b:e5:14:
                    eb:68:21:1d:e7:85:98:e2:28:18:8b:c4:62:7e:bc:
                    29:9f:bc:94:fd:b6:53:ae:01:f2:94:d3:08:d6:e1:
                    e4:0f:f7:c0:e1:fd:b7:8f:0e:88:4b:b1:83:db:e8:
                    a9:17:23:44:31:d0:21:a4:a9:14:d4:49:75:17:de:
                    18:56:c7:bc:0e:90:63:85:82:1e:fc:5b:9d:2d:21:
                    a0:ec:eb:a7:37:3a:72:d8:e5:9e:43:84:39:20:cc:
                    40:77:fe:87:cd:18:0c:33:17:7e:eb:7c:f3:d8:7a:
                    b0:be:19:5c:48:32:f5:76:9c:ab:30:b0:c3:43:35:
                    5d:c4:b7:a1:6e:2e:77:fb:1b:a2:c8:a9:58:a7:ee:
                    f8:ed:fb:63:fc:37:80:da:11:66:40:f4:4d:cd:ef:
                    a5:78:8f:c9:9b:e8:23:57:d7:44:9a:4d:66:13:7d:
                    19:54:85:3b:c3:5d:2b:76:bf:ee:f0:72:0a:3a:d7:
                    3f:04:7f:61:06:e0:6b:e4:52:28:73:b3:46:0b:f3:
                    d5:a9
                Exponent: 65537 (0x10001)
        X509v3 extensions:
            X509v3 Basic Constraints: 
                CA:FALSE
            X509v3 Subject Key Identifier: 
                00:8A:D8:60:6E:0C:C8:A0:98:A0:17:AF:20:1A:56:7E:8D:3B:67:40
            X509v3 Authority Key Identifier: 
                keyid:9E:C6:7C:FA:E0:BA:6A:D3:A1:92:8B:96:CF:6F:02:C2:A3:82:6D:6D
                DirName:/CN=team245-net
                serial:54:E0:80:9A:C2:E4:72:97:A4:A5:BE:38:5E:35:5A:93:56:71:EA:8D

            X509v3 Extended Key Usage: 
                TLS Web Server Authentication
            X509v3 Key Usage: 
                Digital Signature, Key Encipherment
            X509v3 Subject Alternative Name: 
                DNS:team245-server
    Signature Algorithm: sha256WithRSAEncryption
         42:e8:fa:ca:9e:57:3d:04:31:61:d3:15:64:71:33:fe:56:3e:
         d3:3f:ba:8f:40:7f:2d:cf:57:30:1d:a0:5d:94:78:0d:66:95:
         b1:44:59:ce:ed:00:f7:08:d7:93:cc:f1:3a:da:ad:95:9e:de:
         ab:2f:b1:c0:19:f3:82:20:2e:25:f3:f9:ab:7b:17:39:c8:39:
         d9:35:89:69:82:3f:e7:79:10:3f:6a:8b:55:23:b9:05:f6:27:
         f8:aa:db:05:47:ee:d0:c5:77:85:78:b1:e1:d5:82:0d:48:67:
         a2:78:c3:50:d6:54:dd:74:f0:07:8c:4f:db:ae:fb:ec:00:e1:
         7e:5c:10:02:13:ed:eb:11:8e:fa:a0:11:3a:a0:e3:bd:ac:25:
         42:ad:c9:66:2c:bc:0c:24:c8:c1:d4:f2:41:01:3d:69:ac:12:
         64:87:8e:be:d2:f0:8a:86:ce:76:16:74:b5:e6:47:4e:f5:f2:
         59:c7:f9:06:1a:c5:be:3b:df:2a:9c:ca:36:84:44:8a:24:4e:
         d7:84:b8:05:ad:68:f7:6f:3d:97:56:98:a3:b2:e3:a9:8b:56:
         6a:9a:7b:5e:ea:04:2b:1e:53:b2:7d:0d:01:ae:94:8c:7f:9e:
         60:c9:f2:78:0c:7f:36:a7:37:0e:8f:35:15:f2:c7:c6:6f:30:
         6c:2d:8e:1b
-----BEGIN CERTIFICATE-----
MIIDdzCCAl+gAwIBAgIQVP8hz2pwy/Nau4JMRstyMDANBgkqhkiG9w0BAQsFADAW
MRQwEgYDVQQDDAt0ZWFtMjQ1LW5ldDAeFw0yMjA1MTgxOTM2MzdaFw0yNTA1MDIx
OTM2MzdaMBkxFzAVBgNVBAMMDnRlYW0yNDUtc2VydmVyMIIBIjANBgkqhkiG9w0B
AQEFAAOCAQ8AMIIBCgKCAQEAqvQQvRbHGwZBRta4xwYkrCkLn/T5+Q1t8iC/Bnq8
zINUtbHpbwwfvHbzNYBV4zPlhaL6MpBC9bRb5RTraCEd54WY4igYi8Rifrwpn7yU
/bZTrgHylNMI1uHkD/fA4f23jw6IS7GD2+ipFyNEMdAhpKkU1El1F94YVse8DpBj
hYIe/FudLSGg7OunNzpy2OWeQ4Q5IMxAd/6HzRgMMxd+63zz2HqwvhlcSDL1dpyr
MLDDQzVdxLehbi53+xuiyKlYp+747ftj/DeA2hFmQPRNze+leI/Jm+gjV9dEmk1m
E30ZVIU7w10rdr/u8HIKOtc/BH9hBuBr5FIoc7NGC/PVqQIDAQABo4G9MIG6MAkG
A1UdEwQCMAAwHQYDVR0OBBYEFACK2GBuDMigmKAXryAaVn6NO2dAMFEGA1UdIwRK
MEiAFJ7GfPrgumrToZKLls9vAsKjgm1toRqkGDAWMRQwEgYDVQQDDAt0ZWFtMjQ1
LW5ldIIUVOCAmsLkcpekpb44XjVak1Zx6o0wEwYDVR0lBAwwCgYIKwYBBQUHAwEw
CwYDVR0PBAQDAgWgMBkGA1UdEQQSMBCCDnRlYW0yNDUtc2VydmVyMA0GCSqGSIb3
DQEBCwUAA4IBAQBC6PrKnlc9BDFh0xVkcTP+Vj7TP7qPQH8tz1cwHaBdlHgNZpWx
RFnO7QD3CNeTzPE62q2Vnt6rL7HAGfOCIC4l8/mrexc5yDnZNYlpgj/neRA/aotV
I7kF9if4qtsFR+7QxXeFeLHh1YINSGeieMNQ1lTddPAHjE/brvvsAOF+XBACE+3r
EY76oBE6oOO9rCVCrclmLLwMJMjB1PJBAT1prBJkh46+0vCKhs52FnS15kdO9fJZ
x/kGGsW+O98qnMo2hESKJE7XhLgFrWj3bz2XVpijsuOpi1Zqmnte6gQrHlOyfQ0B
rpSMf55gyfJ4DH82pzcOjzUV8sfGbzBsLY4b
-----END CERTIFICATE-----
