Certificate:
    Data:
        Version: 3 (0x2)
        Serial Number:
            93:d9:81:a3:ef:97:e0:18:ae:9f:78:60:c3:2d:ec:69
        Signature Algorithm: sha256WithRSAEncryption
        Issuer: CN=team206-net
        Validity
            Not Before: May 18 19:13:45 2022 GMT
            Not After : May  2 19:13:45 2025 GMT
        Subject: CN=team206-server
        Subject Public Key Info:
            Public Key Algorithm: rsaEncryption
                RSA Public-Key: (2048 bit)
                Modulus:
                    00:c8:97:c5:eb:7c:67:e5:ea:ac:29:7f:1a:19:3c:
                    6a:1f:6a:5a:aa:15:4a:43:e7:f9:2f:72:af:68:5a:
                    dd:4b:75:1a:6e:bf:64:10:12:39:53:39:9d:3e:76:
                    cb:a4:b5:78:41:18:6e:15:78:b6:2e:5e:a3:1c:ab:
                    ce:ff:4a:64:b3:ee:26:53:12:af:4a:e1:b5:c1:84:
                    dd:a4:79:cd:c0:42:8e:3b:36:ad:3c:e2:98:c0:2f:
                    ca:8b:7b:aa:b3:41:d8:70:9f:84:15:ce:7e:83:51:
                    e3:c8:9f:fd:24:03:96:b3:d8:89:87:ca:4c:d1:2b:
                    a0:e4:b8:6d:c4:58:37:75:31:aa:fe:48:4d:d6:74:
                    aa:89:cd:b9:23:63:86:f8:40:72:7b:b6:05:98:9a:
                    55:ea:11:f8:f5:6e:fc:40:e9:ec:dd:37:36:e9:43:
                    3f:29:df:ce:6f:ec:37:f7:a1:5a:01:86:35:3a:e0:
                    c7:9a:ca:42:e0:4b:4a:6d:9e:90:f7:72:6c:91:61:
                    53:94:b7:68:dd:fe:7d:8d:4f:6f:1c:16:20:d4:51:
                    af:83:f5:34:2b:a4:c8:b2:ef:90:3a:fd:17:d0:32:
                    01:d4:da:7e:74:3a:49:2d:e6:7f:55:7e:d5:4f:67:
                    b2:96:0e:95:e8:e7:07:ae:54:67:5a:d1:07:79:72:
                    19:65
                Exponent: 65537 (0x10001)
        X509v3 extensions:
            X509v3 Basic Constraints: 
                CA:FALSE
            X509v3 Subject Key Identifier: 
                01:10:4C:D7:A5:F8:06:71:DE:88:3F:B5:FA:1F:9A:51:BC:AF:73:30
            X509v3 Authority Key Identifier: 
                keyid:CA:E4:AF:51:9B:BD:AC:28:E2:7F:90:59:A6:1A:36:8A:10:15:86:23
                DirName:/CN=team206-net
                serial:33:8B:16:3E:74:A0:4E:4E:7E:A2:AB:7B:91:45:B9:90:08:1C:1E:E8

            X509v3 Extended Key Usage: 
                TLS Web Server Authentication
            X509v3 Key Usage: 
                Digital Signature, Key Encipherment
            X509v3 Subject Alternative Name: 
                DNS:team206-server
    Signature Algorithm: sha256WithRSAEncryption
         3f:59:f0:a6:a9:ce:8e:d4:6c:19:b1:c8:6d:19:28:3a:d2:dd:
         82:ea:85:a2:fd:f0:e6:65:e4:30:d6:9c:c2:46:67:82:06:5d:
         c8:4e:32:8f:9b:86:fb:26:e9:e7:22:b6:12:51:59:27:21:42:
         e8:da:17:6e:32:79:d6:d4:36:20:d0:61:3b:08:f0:31:3d:f2:
         c8:18:fa:5b:10:bc:56:20:3e:2f:60:cb:6a:ee:90:ec:f5:c8:
         59:02:07:56:5a:b0:9f:42:89:4f:ca:c0:53:83:4e:7c:7f:7c:
         55:74:d6:45:63:26:66:d4:74:d0:16:74:75:8d:eb:37:f9:30:
         5d:fb:7e:84:95:7a:23:1e:ad:ec:f0:5e:64:3a:9d:4a:6c:7e:
         f3:35:b2:04:3a:00:3f:04:c3:c9:f5:b9:d1:a4:ae:4e:ad:af:
         a9:9b:c0:50:e7:5b:19:60:81:15:90:72:c2:cd:16:66:a6:a8:
         3b:13:7d:bf:97:05:ee:f9:5c:be:b9:e5:97:5d:b2:d6:21:8a:
         b2:7c:89:64:47:ce:9a:0c:b8:6b:ea:2e:57:18:3d:63:dd:f3:
         85:4b:3e:9c:f7:c5:ea:35:e1:cd:43:8c:c2:11:94:a4:49:0d:
         1b:98:db:1a:03:69:24:b4:46:06:ed:08:91:37:b3:12:45:b6:
         08:f8:d5:82
-----BEGIN CERTIFICATE-----
MIIDeDCCAmCgAwIBAgIRAJPZgaPvl+AYrp94YMMt7GkwDQYJKoZIhvcNAQELBQAw
FjEUMBIGA1UEAwwLdGVhbTIwNi1uZXQwHhcNMjIwNTE4MTkxMzQ1WhcNMjUwNTAy
MTkxMzQ1WjAZMRcwFQYDVQQDDA50ZWFtMjA2LXNlcnZlcjCCASIwDQYJKoZIhvcN
AQEBBQADggEPADCCAQoCggEBAMiXxet8Z+XqrCl/Ghk8ah9qWqoVSkPn+S9yr2ha
3Ut1Gm6/ZBASOVM5nT52y6S1eEEYbhV4ti5eoxyrzv9KZLPuJlMSr0rhtcGE3aR5
zcBCjjs2rTzimMAvyot7qrNB2HCfhBXOfoNR48if/SQDlrPYiYfKTNEroOS4bcRY
N3Uxqv5ITdZ0qonNuSNjhvhAcnu2BZiaVeoR+PVu/EDp7N03NulDPynfzm/sN/eh
WgGGNTrgx5rKQuBLSm2ekPdybJFhU5S3aN3+fY1PbxwWINRRr4P1NCukyLLvkDr9
F9AyAdTafnQ6SS3mf1V+1U9nspYOlejnB65UZ1rRB3lyGWUCAwEAAaOBvTCBujAJ
BgNVHRMEAjAAMB0GA1UdDgQWBBQBEEzXpfgGcd6IP7X6H5pRvK9zMDBRBgNVHSME
SjBIgBTK5K9Rm72sKOJ/kFmmGjaKEBWGI6EapBgwFjEUMBIGA1UEAwwLdGVhbTIw
Ni1uZXSCFDOLFj50oE5OfqKre5FFuZAIHB7oMBMGA1UdJQQMMAoGCCsGAQUFBwMB
MAsGA1UdDwQEAwIFoDAZBgNVHREEEjAQgg50ZWFtMjA2LXNlcnZlcjANBgkqhkiG
9w0BAQsFAAOCAQEAP1nwpqnOjtRsGbHIbRkoOtLdguqFov3w5mXkMNacwkZnggZd
yE4yj5uG+ybp5yK2ElFZJyFC6NoXbjJ51tQ2INBhOwjwMT3yyBj6WxC8ViA+L2DL
au6Q7PXIWQIHVlqwn0KJT8rAU4NOfH98VXTWRWMmZtR00BZ0dY3rN/kwXft+hJV6
Ix6t7PBeZDqdSmx+8zWyBDoAPwTDyfW50aSuTq2vqZvAUOdbGWCBFZByws0WZqao
OxN9v5cF7vlcvrnll12y1iGKsnyJZEfOmgy4a+ouVxg9Y93zhUs+nPfF6jXhzUOM
whGUpEkNG5jbGgNpJLRGBu0IkTezEkW2CPjVgg==
-----END CERTIFICATE-----
