Certificate:
    Data:
        Version: 3 (0x2)
        Serial Number:
            b2:c9:e9:a9:17:74:a0:a9:40:9b:1f:b9:b9:1b:f4:e2
        Signature Algorithm: sha256WithRSAEncryption
        Issuer: CN=team206-net
        Validity
            Not Before: May 18 19:13:45 2022 GMT
            Not After : May  2 19:13:45 2025 GMT
        Subject: CN=team206-client
        Subject Public Key Info:
            Public Key Algorithm: rsaEncryption
                RSA Public-Key: (2048 bit)
                Modulus:
                    00:9f:38:69:be:44:38:60:0a:62:da:0b:a3:90:8f:
                    2e:29:43:90:d5:0a:ef:3c:30:12:81:13:38:69:20:
                    59:3f:98:9c:9b:cd:93:a4:e9:25:93:3e:bf:42:2f:
                    18:9e:27:9f:8a:bd:cd:5d:c3:79:e6:b5:cc:97:2f:
                    cb:17:53:3b:34:be:01:6e:a8:02:2c:94:d0:ab:e3:
                    d7:3c:20:c8:dc:ad:ad:b0:ba:d1:50:cf:30:13:47:
                    7c:18:c5:09:c8:72:00:81:6f:d4:45:cb:e8:d6:54:
                    59:d7:e7:1b:43:b0:16:68:67:5b:b3:6c:92:93:19:
                    51:4f:47:25:88:93:34:74:be:0e:81:02:15:6d:11:
                    66:b7:98:a9:e7:44:0f:19:b4:d7:1a:e1:3a:7d:61:
                    c8:bb:a6:02:35:eb:ae:4f:fc:67:ff:1a:1f:c3:5d:
                    d7:fc:31:66:72:db:6a:2e:48:55:f7:fe:6b:5b:50:
                    83:23:92:1e:36:c6:e5:f5:63:9d:b2:f9:8a:ea:b4:
                    18:93:af:61:0d:ea:f6:54:c3:fc:97:3a:0a:92:d8:
                    ad:6d:0a:7d:73:cc:94:50:8a:5e:5c:6c:7f:af:38:
                    fb:89:77:a5:58:a4:e3:17:6e:6b:6e:5b:30:0a:55:
                    bc:1d:ba:67:21:44:59:f3:fc:de:36:6f:e1:3c:28:
                    1c:a9
                Exponent: 65537 (0x10001)
        X509v3 extensions:
            X509v3 Basic Constraints: 
                CA:FALSE
            X509v3 Subject Key Identifier: 
                48:0E:2A:F7:E8:2B:63:D4:DB:31:DF:36:DC:45:F1:6D:63:E7:93:19
            X509v3 Authority Key Identifier: 
                keyid:CA:E4:AF:51:9B:BD:AC:28:E2:7F:90:59:A6:1A:36:8A:10:15:86:23
                DirName:/CN=team206-net
                serial:33:8B:16:3E:74:A0:4E:4E:7E:A2:AB:7B:91:45:B9:90:08:1C:1E:E8

            X509v3 Extended Key Usage: 
                TLS Web Client Authentication
            X509v3 Key Usage: 
                Digital Signature
    Signature Algorithm: sha256WithRSAEncryption
         98:8d:0f:71:3a:6e:b4:3e:d6:59:aa:bc:85:99:07:53:d7:b8:
         c8:dd:f5:84:a7:2b:b0:99:a4:5f:f5:a3:f1:d9:94:57:42:89:
         8d:da:ab:48:67:b5:97:eb:57:3e:68:5c:52:3b:a0:40:c6:ad:
         ff:f5:0d:8c:16:e1:fd:f4:a2:07:83:4c:59:46:c0:ae:42:f3:
         5a:a5:05:f4:47:3d:10:a3:06:dc:64:18:15:a9:a4:e1:dd:a8:
         04:fc:b2:d6:e8:08:33:8f:1a:e6:1f:4d:c3:5e:54:72:80:d0:
         08:17:ac:7b:27:53:b6:68:3a:65:fb:84:a6:d4:11:4d:2c:d5:
         72:4c:e6:84:be:33:55:28:e8:b9:ac:cf:05:62:95:03:95:56:
         50:a5:8b:4f:e3:89:37:c8:46:69:40:f0:59:e7:1d:9d:64:58:
         e0:24:67:c9:94:59:56:7a:42:5c:20:f3:44:36:27:d4:07:d8:
         4e:60:45:e8:fb:4a:a5:c9:69:ad:e1:66:5d:76:0a:fb:1a:71:
         14:1f:b8:ba:04:31:38:33:40:88:4e:94:cd:ae:d3:77:1b:bc:
         50:4c:a1:45:ef:1c:1a:14:6d:95:20:2d:a3:71:c5:b7:df:98:
         39:f3:7a:ab:55:0d:83:09:4a:74:5f:8b:f8:76:15:76:16:98:
         60:ac:bf:b1
-----BEGIN CERTIFICATE-----
MIIDXTCCAkWgAwIBAgIRALLJ6akXdKCpQJsfubkb9OIwDQYJKoZIhvcNAQELBQAw
FjEUMBIGA1UEAwwLdGVhbTIwNi1uZXQwHhcNMjIwNTE4MTkxMzQ1WhcNMjUwNTAy
MTkxMzQ1WjAZMRcwFQYDVQQDDA50ZWFtMjA2LWNsaWVudDCCASIwDQYJKoZIhvcN
AQEBBQADggEPADCCAQoCggEBAJ84ab5EOGAKYtoLo5CPLilDkNUK7zwwEoETOGkg
WT+YnJvNk6TpJZM+v0IvGJ4nn4q9zV3Deea1zJcvyxdTOzS+AW6oAiyU0Kvj1zwg
yNytrbC60VDPMBNHfBjFCchyAIFv1EXL6NZUWdfnG0OwFmhnW7NskpMZUU9HJYiT
NHS+DoECFW0RZreYqedEDxm01xrhOn1hyLumAjXrrk/8Z/8aH8Nd1/wxZnLbai5I
Vff+a1tQgyOSHjbG5fVjnbL5iuq0GJOvYQ3q9lTD/Jc6CpLYrW0KfXPMlFCKXlxs
f684+4l3pVik4xdua25bMApVvB26ZyFEWfP83jZv4TwoHKkCAwEAAaOBojCBnzAJ
BgNVHRMEAjAAMB0GA1UdDgQWBBRIDir36Ctj1Nsx3zbcRfFtY+eTGTBRBgNVHSME
SjBIgBTK5K9Rm72sKOJ/kFmmGjaKEBWGI6EapBgwFjEUMBIGA1UEAwwLdGVhbTIw
Ni1uZXSCFDOLFj50oE5OfqKre5FFuZAIHB7oMBMGA1UdJQQMMAoGCCsGAQUFBwMC
MAsGA1UdDwQEAwIHgDANBgkqhkiG9w0BAQsFAAOCAQEAmI0PcTputD7WWaq8hZkH
U9e4yN31hKcrsJmkX/Wj8dmUV0KJjdqrSGe1l+tXPmhcUjugQMat//UNjBbh/fSi
B4NMWUbArkLzWqUF9Ec9EKMG3GQYFamk4d2oBPyy1ugIM48a5h9Nw15UcoDQCBes
eydTtmg6ZfuEptQRTSzVckzmhL4zVSjouazPBWKVA5VWUKWLT+OJN8hGaUDwWecd
nWRY4CRnyZRZVnpCXCDzRDYn1AfYTmBF6PtKpclpreFmXXYK+xpxFB+4ugQxODNA
iE6Uza7Tdxu8UEyhRe8cGhRtlSAto3HFt9+YOfN6q1UNgwlKdF+L+HYVdhaYYKy/
sQ==
-----END CERTIFICATE-----
