Certificate:
    Data:
        Version: 3 (0x2)
        Serial Number:
            04:42:e2:e6:05:d7:07:9b:88:b6:91:71:43:16:ea:82
        Signature Algorithm: sha256WithRSAEncryption
        Issuer: CN=team584-net
        Validity
            Not Before: May 18 22:34:35 2022 GMT
            Not After : May  2 22:34:35 2025 GMT
        Subject: CN=team584-client
        Subject Public Key Info:
            Public Key Algorithm: rsaEncryption
                RSA Public-Key: (2048 bit)
                Modulus:
                    00:ce:0f:73:1f:04:d2:2d:aa:9b:19:d9:83:d7:98:
                    19:b7:82:6a:7e:b7:fb:9a:55:d3:82:1a:8d:bf:26:
                    fd:ac:81:6f:04:b1:62:1b:90:1a:9c:a9:c6:e1:af:
                    7c:d0:ed:9d:33:89:e7:ed:9e:8b:d7:5d:a2:95:44:
                    c1:de:f1:cd:b6:3e:7d:8c:84:3c:2a:49:6a:d3:d4:
                    88:e1:59:ed:51:be:a7:bf:1a:40:b4:f4:b9:e1:d2:
                    ba:a5:3b:b0:7f:d7:4d:b0:45:fd:2b:7d:5b:66:24:
                    c1:81:90:6d:9b:42:d7:9c:37:e9:92:fd:6c:f7:d5:
                    db:9f:4f:2e:7a:c4:6e:d1:d8:2a:20:a8:ba:02:94:
                    01:e7:f9:2f:91:07:be:b6:fd:59:17:74:9f:42:76:
                    ea:9c:e8:7a:c0:f4:0a:b3:d0:1f:40:35:0e:82:7f:
                    4a:42:c6:6f:ac:d3:90:69:17:79:7b:76:bb:ed:41:
                    78:25:f6:f3:34:c0:07:b5:c6:0e:4f:f8:3c:7d:97:
                    c3:35:da:af:11:a0:2e:5a:52:05:4e:84:1e:45:c1:
                    39:14:ba:fc:f2:61:52:af:31:c6:3a:8d:00:2d:b3:
                    ae:df:19:19:d7:fa:be:7e:24:a9:28:ff:9b:f5:51:
                    84:d6:6d:83:f2:ec:f3:ad:81:58:52:c9:27:7b:6c:
                    a2:6f
                Exponent: 65537 (0x10001)
        X509v3 extensions:
            X509v3 Basic Constraints: 
                CA:FALSE
            X509v3 Subject Key Identifier: 
                1C:48:93:98:BF:33:B8:B4:CC:73:F8:87:25:96:C6:D7:D7:DA:BA:07
            X509v3 Authority Key Identifier: 
                keyid:C2:D9:51:06:A3:6E:B6:60:E9:5A:D4:B3:8B:90:80:55:59:76:D4:5A
                DirName:/CN=team584-net
                serial:77:B0:DA:4C:C0:B5:62:FC:10:57:CD:E7:E9:9B:90:48:1C:D5:8D:2B

            X509v3 Extended Key Usage: 
                TLS Web Client Authentication
            X509v3 Key Usage: 
                Digital Signature
    Signature Algorithm: sha256WithRSAEncryption
         29:9a:b1:ab:7c:45:7d:f5:ec:3c:92:6b:9f:2a:37:f9:2b:2a:
         22:07:49:78:db:e1:9d:1e:e7:0b:a4:8f:b6:02:47:39:ea:61:
         0f:6b:7c:f0:3e:6c:e4:5a:d2:93:b3:3e:95:83:9f:16:3b:f5:
         71:31:8d:b7:ce:0d:5e:15:74:bc:55:09:41:7a:9a:8b:08:a8:
         c3:70:7f:0c:34:14:23:df:6c:13:1f:f9:dc:90:71:fb:5f:40:
         ab:5e:3c:27:ef:de:82:fe:51:fa:e7:ff:48:92:e0:c9:08:61:
         6f:a5:76:1d:3f:82:68:f2:90:f3:1b:e1:99:dc:05:26:8a:e2:
         36:61:9d:3f:9c:c0:6e:c1:a0:da:6c:92:de:f5:89:4d:34:6e:
         2b:ea:de:3f:ed:c8:50:a8:65:e9:cc:2d:0c:f2:e6:42:dc:f6:
         2f:b5:a3:5a:c3:c8:ae:3b:df:8e:d9:54:99:53:d1:14:a9:36:
         2b:fa:c5:a7:f0:b0:f8:1a:b3:41:fa:87:81:a5:6e:92:06:83:
         2e:82:46:0f:23:0d:e1:b6:92:9a:e9:52:c9:57:36:3e:4f:b1:
         7b:25:89:2b:de:02:6e:e3:40:f6:38:d7:e8:c6:77:2e:82:34:
         43:33:20:03:49:5a:e6:9c:6b:96:bc:06:d5:12:b4:ae:10:3d:
         5d:87:8b:90
-----BEGIN CERTIFICATE-----
MIIDXDCCAkSgAwIBAgIQBELi5gXXB5uItpFxQxbqgjANBgkqhkiG9w0BAQsFADAW
MRQwEgYDVQQDDAt0ZWFtNTg0LW5ldDAeFw0yMjA1MTgyMjM0MzVaFw0yNTA1MDIy
MjM0MzVaMBkxFzAVBgNVBAMMDnRlYW01ODQtY2xpZW50MIIBIjANBgkqhkiG9w0B
AQEFAAOCAQ8AMIIBCgKCAQEAzg9zHwTSLaqbGdmD15gZt4Jqfrf7mlXTghqNvyb9
rIFvBLFiG5AanKnG4a980O2dM4nn7Z6L112ilUTB3vHNtj59jIQ8Kklq09SI4Vnt
Ub6nvxpAtPS54dK6pTuwf9dNsEX9K31bZiTBgZBtm0LXnDfpkv1s99Xbn08uesRu
0dgqIKi6ApQB5/kvkQe+tv1ZF3SfQnbqnOh6wPQKs9AfQDUOgn9KQsZvrNOQaRd5
e3a77UF4JfbzNMAHtcYOT/g8fZfDNdqvEaAuWlIFToQeRcE5FLr88mFSrzHGOo0A
LbOu3xkZ1/q+fiSpKP+b9VGE1m2D8uzzrYFYUskne2yibwIDAQABo4GiMIGfMAkG
A1UdEwQCMAAwHQYDVR0OBBYEFBxIk5i/M7i0zHP4hyWWxtfX2roHMFEGA1UdIwRK
MEiAFMLZUQajbrZg6VrUs4uQgFVZdtRaoRqkGDAWMRQwEgYDVQQDDAt0ZWFtNTg0
LW5ldIIUd7DaTMC1YvwQV83n6ZuQSBzVjSswEwYDVR0lBAwwCgYIKwYBBQUHAwIw
CwYDVR0PBAQDAgeAMA0GCSqGSIb3DQEBCwUAA4IBAQApmrGrfEV99ew8kmufKjf5
KyoiB0l42+GdHucLpI+2Akc56mEPa3zwPmzkWtKTsz6Vg58WO/VxMY23zg1eFXS8
VQlBepqLCKjDcH8MNBQj32wTH/nckHH7X0CrXjwn796C/lH65/9IkuDJCGFvpXYd
P4Jo8pDzG+GZ3AUmiuI2YZ0/nMBuwaDabJLe9YlNNG4r6t4/7chQqGXpzC0M8uZC
3PYvtaNaw8iuO9+O2VSZU9EUqTYr+sWn8LD4GrNB+oeBpW6SBoMugkYPIw3htpKa
6VLJVzY+T7F7JYkr3gJu40D2ONfoxncugjRDMyADSVrmnGuWvAbVErSuED1dh4uQ
-----END CERTIFICATE-----
