Certificate:
    Data:
        Version: 3 (0x2)
        Serial Number:
            aa:48:aa:fe:7f:e1:6b:99:c2:34:84:3e:e6:6c:81:ae
        Signature Algorithm: sha256WithRSAEncryption
        Issuer: CN=team584-net
        Validity
            Not Before: May 18 22:34:36 2022 GMT
            Not After : May  2 22:34:36 2025 GMT
        Subject: CN=team584-server
        Subject Public Key Info:
            Public Key Algorithm: rsaEncryption
                RSA Public-Key: (2048 bit)
                Modulus:
                    00:c0:c6:dd:a8:df:8f:8e:59:80:2a:f0:9e:dc:bc:
                    a3:f8:fb:b0:2d:ea:e5:b5:1d:0e:4d:f3:80:fa:51:
                    39:08:ab:ef:4a:95:3d:67:ab:ba:da:1f:1e:de:e9:
                    62:0d:b3:49:76:25:22:ba:0c:ed:eb:59:d5:38:ab:
                    2f:7b:77:5a:25:c8:18:c5:92:54:4b:64:3d:ae:88:
                    6e:8e:7b:37:49:67:0d:7d:4f:46:67:e5:59:d0:7a:
                    c2:54:7c:75:58:9d:ca:eb:6e:27:af:bd:db:d5:cc:
                    3f:4c:28:2f:1d:1b:2c:ce:49:21:18:ec:0a:32:6b:
                    fb:0b:06:4c:e9:15:99:01:e3:c4:ad:70:07:fd:16:
                    8d:ea:25:4f:b9:97:06:22:cb:2d:c1:9b:bb:15:b9:
                    b5:9b:6f:49:48:12:ab:4f:02:f9:e8:33:99:5c:0d:
                    af:3a:19:79:ef:69:48:e7:5d:03:20:7d:87:36:94:
                    e1:1e:1b:1a:2e:fc:04:62:ba:07:0f:5e:d0:ed:51:
                    6e:02:27:ac:f5:cb:8a:24:73:77:05:60:ec:5b:97:
                    65:fe:ed:2a:3c:64:cb:35:dd:d0:18:06:57:35:eb:
                    47:6a:00:64:4f:ce:6a:a3:27:95:fd:d5:f7:af:bf:
                    2a:c9:b4:d7:6d:95:bb:07:ac:66:38:b3:46:df:35:
                    e3:c5
                Exponent: 65537 (0x10001)
        X509v3 extensions:
            X509v3 Basic Constraints: 
                CA:FALSE
            X509v3 Subject Key Identifier: 
                D0:E5:54:A6:83:33:2E:1E:E2:5F:07:5F:DA:38:A5:B8:4B:A9:A3:E6
            X509v3 Authority Key Identifier: 
                keyid:C2:D9:51:06:A3:6E:B6:60:E9:5A:D4:B3:8B:90:80:55:59:76:D4:5A
                DirName:/CN=team584-net
                serial:77:B0:DA:4C:C0:B5:62:FC:10:57:CD:E7:E9:9B:90:48:1C:D5:8D:2B

            X509v3 Extended Key Usage: 
                TLS Web Server Authentication
            X509v3 Key Usage: 
                Digital Signature, Key Encipherment
            X509v3 Subject Alternative Name: 
                DNS:team584-server
    Signature Algorithm: sha256WithRSAEncryption
         6a:15:62:8a:ac:58:82:b9:99:f6:ae:8e:a6:ea:55:97:66:91:
         f0:6b:5c:ba:48:59:12:2d:8a:00:b9:02:ce:1b:19:b7:9e:e9:
         c4:11:ca:5b:49:af:44:0b:91:af:1c:ef:fe:09:eb:e8:85:64:
         c9:3a:b5:13:6e:0a:c3:4f:b9:09:7a:1b:f9:63:e7:7d:65:fd:
         b7:d8:99:52:0c:bf:7a:aa:94:5b:1f:71:03:d9:78:57:dc:9b:
         ed:fa:ac:cd:12:fb:9b:26:27:dd:eb:83:16:0d:30:43:39:83:
         d7:72:fa:3d:37:af:aa:d8:30:8d:fa:7c:e0:85:06:b9:74:89:
         dc:ff:c0:5f:54:83:1b:8e:9d:63:eb:8c:c4:b2:08:d0:80:25:
         fd:a7:e1:48:1b:ef:6b:37:4b:30:4a:65:30:f9:8d:18:ee:a5:
         e6:8d:31:6f:18:c6:ec:06:88:6f:b4:8a:df:86:b7:10:c2:d2:
         7e:ae:82:da:39:97:4f:2d:dc:42:97:af:7f:d3:b2:60:51:7b:
         fc:c7:cf:d2:ae:f1:b9:9d:6b:2a:b5:eb:55:34:28:62:cb:3a:
         5a:e6:fa:b1:5d:ef:87:f0:c1:40:29:61:08:36:39:fe:63:c0:
         cc:99:35:52:62:19:c5:3e:c9:3e:7d:bd:b1:21:4b:a3:66:50:
         e3:d5:26:71
-----BEGIN CERTIFICATE-----
MIIDeDCCAmCgAwIBAgIRAKpIqv5/4WuZwjSEPuZsga4wDQYJKoZIhvcNAQELBQAw
FjEUMBIGA1UEAwwLdGVhbTU4NC1uZXQwHhcNMjIwNTE4MjIzNDM2WhcNMjUwNTAy
MjIzNDM2WjAZMRcwFQYDVQQDDA50ZWFtNTg0LXNlcnZlcjCCASIwDQYJKoZIhvcN
AQEBBQADggEPADCCAQoCggEBAMDG3ajfj45ZgCrwnty8o/j7sC3q5bUdDk3zgPpR
OQir70qVPWerutofHt7pYg2zSXYlIroM7etZ1TirL3t3WiXIGMWSVEtkPa6Ibo57
N0lnDX1PRmflWdB6wlR8dVidyutuJ6+929XMP0woLx0bLM5JIRjsCjJr+wsGTOkV
mQHjxK1wB/0WjeolT7mXBiLLLcGbuxW5tZtvSUgSq08C+egzmVwNrzoZee9pSOdd
AyB9hzaU4R4bGi78BGK6Bw9e0O1RbgInrPXLiiRzdwVg7FuXZf7tKjxkyzXd0BgG
VzXrR2oAZE/OaqMnlf3V96+/Ksm0122VuwesZjizRt8148UCAwEAAaOBvTCBujAJ
BgNVHRMEAjAAMB0GA1UdDgQWBBTQ5VSmgzMuHuJfB1/aOKW4S6mj5jBRBgNVHSME
SjBIgBTC2VEGo262YOla1LOLkIBVWXbUWqEapBgwFjEUMBIGA1UEAwwLdGVhbTU4
NC1uZXSCFHew2kzAtWL8EFfN5+mbkEgc1Y0rMBMGA1UdJQQMMAoGCCsGAQUFBwMB
MAsGA1UdDwQEAwIFoDAZBgNVHREEEjAQgg50ZWFtNTg0LXNlcnZlcjANBgkqhkiG
9w0BAQsFAAOCAQEAahViiqxYgrmZ9q6OpupVl2aR8GtcukhZEi2KALkCzhsZt57p
xBHKW0mvRAuRrxzv/gnr6IVkyTq1E24Kw0+5CXob+WPnfWX9t9iZUgy/eqqUWx9x
A9l4V9yb7fqszRL7myYn3euDFg0wQzmD13L6PTevqtgwjfp84IUGuXSJ3P/AX1SD
G46dY+uMxLII0IAl/afhSBvvazdLMEplMPmNGO6l5o0xbxjG7AaIb7SK34a3EMLS
fq6C2jmXTy3cQpevf9OyYFF7/MfP0q7xuZ1rKrXrVTQoYss6Wub6sV3vh/DBQClh
CDY5/mPAzJk1UmIZxT7JPn29sSFLo2ZQ49UmcQ==
-----END CERTIFICATE-----
