Certificate:
    Data:
        Version: 3 (0x2)
        Serial Number:
            e7:2e:21:04:a0:10:19:61:70:fa:29:ff:0b:e7:9b:87
        Signature Algorithm: sha256WithRSAEncryption
        Issuer: CN=team705-net
        Validity
            Not Before: May 18 23:34:41 2022 GMT
            Not After : May  2 23:34:41 2025 GMT
        Subject: CN=team705-client
        Subject Public Key Info:
            Public Key Algorithm: rsaEncryption
                RSA Public-Key: (2048 bit)
                Modulus:
                    00:b0:98:03:34:da:d3:37:e2:28:a5:88:5a:5b:28:
                    b0:92:60:72:e9:c3:88:1a:94:d4:49:d6:1c:ff:a1:
                    d3:f3:e7:b6:c2:c3:9a:5a:86:b2:3a:0e:4d:22:15:
                    99:f7:47:9c:00:cb:a0:09:64:e2:5d:3a:c8:b1:08:
                    2d:28:5d:1f:b3:6d:ce:cf:02:f9:98:fd:5c:d6:9d:
                    29:ce:28:1a:7f:fa:b5:a3:d8:7e:72:d1:a2:a4:7a:
                    3c:1e:bc:29:a4:83:47:ca:72:dc:f2:9d:b6:f5:9e:
                    85:b6:82:4d:46:20:b8:d7:7d:c0:f4:79:e3:22:f2:
                    39:ef:2d:70:10:28:c2:98:e5:01:01:cc:c2:8f:61:
                    64:7c:fb:24:8f:ab:eb:56:38:2b:a8:40:ae:04:d5:
                    db:69:8b:0d:6e:66:51:d7:6f:3e:de:1f:7e:33:5c:
                    88:3f:47:81:c4:17:a0:f2:c3:8d:52:2e:ca:8f:c9:
                    03:36:9c:51:1e:c9:fa:2a:88:6a:9f:59:f2:1b:2b:
                    68:2d:1a:40:f5:3e:3e:53:61:fa:2f:2f:e6:96:69:
                    4e:1a:a4:8f:97:ee:39:8d:96:03:ab:46:67:c1:8f:
                    39:8b:db:a7:78:25:e2:cd:c5:60:77:e4:e9:e4:cf:
                    14:d7:ca:02:0f:60:e2:2d:d5:6e:4c:9e:76:07:97:
                    2d:27
                Exponent: 65537 (0x10001)
        X509v3 extensions:
            X509v3 Basic Constraints: 
                CA:FALSE
            X509v3 Subject Key Identifier: 
                D9:03:60:2A:8D:C2:C5:00:BB:56:BE:1A:68:80:B5:C4:F5:EC:0B:C3
            X509v3 Authority Key Identifier: 
                keyid:31:70:A4:1B:DD:CD:AC:87:14:CA:38:87:BD:89:2D:50:C4:26:CA:E5
                DirName:/CN=team705-net
                serial:60:E7:89:53:10:AB:61:37:F3:B3:91:A1:24:22:52:E0:70:79:F6:37

            X509v3 Extended Key Usage: 
                TLS Web Client Authentication
            X509v3 Key Usage: 
                Digital Signature
    Signature Algorithm: sha256WithRSAEncryption
         9e:36:3a:df:25:ae:c1:7c:46:c4:dc:39:45:fa:57:c0:d1:8d:
         07:b0:0d:9b:42:46:13:b9:29:96:b9:41:2a:ca:5f:7c:46:38:
         6c:25:c1:58:47:1f:6f:12:92:25:8e:e3:a7:f4:df:f8:35:3c:
         6e:f9:a9:4e:27:11:b2:08:48:9d:a1:74:1f:50:cb:db:88:80:
         fc:92:d5:f1:ee:79:a4:8c:4f:10:57:cd:2f:f2:43:68:bf:a2:
         8f:3f:36:93:f4:34:d8:ca:b2:dd:c2:6d:26:aa:97:a0:28:3e:
         e5:cd:23:76:ea:69:ac:67:26:27:d3:8b:2a:13:e5:07:2d:c7:
         6c:88:a7:e2:db:3e:38:13:5e:e7:09:5e:53:5e:9f:42:78:34:
         55:5d:39:a3:e9:6f:3b:e5:cc:f4:53:a3:a8:f1:5b:39:b1:67:
         36:75:b0:df:a2:71:87:6c:5c:f6:08:1d:02:6c:2d:1f:4d:2d:
         9b:25:b4:f0:1d:f3:1d:9b:3e:54:b6:dd:bb:0a:e0:f9:90:e1:
         84:ac:80:32:ce:c6:34:cc:5a:00:f9:85:da:00:1f:d0:82:b4:
         13:c1:9d:ff:eb:61:ef:6d:58:3c:a8:d6:47:9a:cd:40:02:6c:
         d4:55:5a:f3:f1:e5:51:17:25:22:1f:96:09:04:b7:37:ff:5f:
         77:73:a5:0f
-----BEGIN CERTIFICATE-----
MIIDXTCCAkWgAwIBAgIRAOcuIQSgEBlhcPop/wvnm4cwDQYJKoZIhvcNAQELBQAw
FjEUMBIGA1UEAwwLdGVhbTcwNS1uZXQwHhcNMjIwNTE4MjMzNDQxWhcNMjUwNTAy
MjMzNDQxWjAZMRcwFQYDVQQDDA50ZWFtNzA1LWNsaWVudDCCASIwDQYJKoZIhvcN
AQEBBQADggEPADCCAQoCggEBALCYAzTa0zfiKKWIWlsosJJgcunDiBqU1EnWHP+h
0/PntsLDmlqGsjoOTSIVmfdHnADLoAlk4l06yLEILShdH7Ntzs8C+Zj9XNadKc4o
Gn/6taPYfnLRoqR6PB68KaSDR8py3PKdtvWehbaCTUYguNd9wPR54yLyOe8tcBAo
wpjlAQHMwo9hZHz7JI+r61Y4K6hArgTV22mLDW5mUddvPt4ffjNciD9HgcQXoPLD
jVIuyo/JAzacUR7J+iqIap9Z8hsraC0aQPU+PlNh+i8v5pZpThqkj5fuOY2WA6tG
Z8GPOYvbp3gl4s3FYHfk6eTPFNfKAg9g4i3VbkyedgeXLScCAwEAAaOBojCBnzAJ
BgNVHRMEAjAAMB0GA1UdDgQWBBTZA2AqjcLFALtWvhpogLXE9ewLwzBRBgNVHSME
SjBIgBQxcKQb3c2shxTKOIe9iS1QxCbK5aEapBgwFjEUMBIGA1UEAwwLdGVhbTcw
NS1uZXSCFGDniVMQq2E387ORoSQiUuBwefY3MBMGA1UdJQQMMAoGCCsGAQUFBwMC
MAsGA1UdDwQEAwIHgDANBgkqhkiG9w0BAQsFAAOCAQEAnjY63yWuwXxGxNw5RfpX
wNGNB7ANm0JGE7kplrlBKspffEY4bCXBWEcfbxKSJY7jp/Tf+DU8bvmpTicRsghI
naF0H1DL24iA/JLV8e55pIxPEFfNL/JDaL+ijz82k/Q02Mqy3cJtJqqXoCg+5c0j
dupprGcmJ9OLKhPlBy3HbIin4ts+OBNe5wleU16fQng0VV05o+lvO+XM9FOjqPFb
ObFnNnWw36Jxh2xc9ggdAmwtH00tmyW08B3zHZs+VLbduwrg+ZDhhKyAMs7GNMxa
APmF2gAf0IK0E8Gd/+th721YPKjWR5rNQAJs1FVa8/HlURclIh+WCQS3N/9fd3Ol
Dw==
-----END CERTIFICATE-----
