Certificate:
    Data:
        Version: 3 (0x2)
        Serial Number:
            02:16:89:9b:65:58:bc:1d:d7:d3:a2:26:b1:a7:75:2c
        Signature Algorithm: sha256WithRSAEncryption
        Issuer: CN=team158-net
        Validity
            Not Before: May 18 18:45:53 2022 GMT
            Not After : May  2 18:45:53 2025 GMT
        Subject: CN=team158-client
        Subject Public Key Info:
            Public Key Algorithm: rsaEncryption
                RSA Public-Key: (2048 bit)
                Modulus:
                    00:b6:dd:51:04:42:3a:ef:5b:a3:dc:f8:3a:5c:91:
                    12:d6:e7:c0:a0:40:ff:63:31:f9:f6:f4:54:2b:e3:
                    1a:02:d7:38:0f:b3:44:a8:f2:9c:1f:3e:fc:0a:96:
                    3d:0f:21:05:e0:d0:15:d1:e3:c0:bd:b8:7d:36:bb:
                    ba:17:60:2c:7d:02:0e:3f:bf:b6:20:0a:64:02:c0:
                    30:2e:91:cd:b2:eb:86:9e:23:40:d9:98:18:5a:8c:
                    dc:12:d3:fd:19:85:b6:f0:5d:9d:f3:44:cb:21:49:
                    c3:33:77:86:2e:95:5a:b9:79:5b:96:c7:ac:94:22:
                    92:56:ed:f1:b2:09:a3:35:3b:c5:e7:34:41:ca:59:
                    7f:db:ae:d7:86:0d:80:76:9a:37:92:e2:9e:3d:f2:
                    c5:62:00:b6:76:97:b0:cc:81:b0:5c:c5:cc:b8:10:
                    18:7b:17:af:be:e2:05:99:a6:99:c3:07:34:56:1e:
                    07:15:db:47:7b:8f:38:2e:3c:fb:5b:b9:94:ac:62:
                    30:2e:dd:b6:dd:78:da:40:59:e1:77:c8:b4:fd:f0:
                    fb:c5:1d:86:d5:f7:8c:0f:2b:28:01:86:9e:79:e9:
                    04:f1:af:48:ff:af:83:1d:9f:61:3d:85:13:5e:33:
                    11:7e:6b:cb:6e:d0:4d:80:04:32:bb:bd:1a:22:b7:
                    3c:99
                Exponent: 65537 (0x10001)
        X509v3 extensions:
            X509v3 Basic Constraints: 
                CA:FALSE
            X509v3 Subject Key Identifier: 
                4C:F4:E1:3C:58:CF:D1:16:4B:4D:97:4D:49:A3:F7:43:96:04:79:81
            X509v3 Authority Key Identifier: 
                keyid:54:14:41:65:9E:2B:41:05:DD:33:F4:76:EA:99:07:A6:08:D1:BD:84
                DirName:/CN=team158-net
                serial:1B:F6:3B:15:E7:D4:FB:5E:04:E5:4F:C6:D4:33:E6:A4:25:54:37:66

            X509v3 Extended Key Usage: 
                TLS Web Client Authentication
            X509v3 Key Usage: 
                Digital Signature
    Signature Algorithm: sha256WithRSAEncryption
         77:9d:2a:0a:37:2e:95:6c:77:0d:f7:9d:d8:23:7a:d6:cd:f4:
         98:41:c2:d4:c8:53:48:5d:79:e1:c9:68:55:a9:18:33:ab:6b:
         d4:fc:b4:f2:28:fb:17:55:b8:da:63:06:6f:16:6d:72:21:d4:
         76:7f:9d:0c:87:8a:6d:01:36:c0:2b:5b:44:6a:9f:76:9f:c6:
         05:e4:fd:05:ae:8b:52:6a:13:12:ff:04:02:1a:c5:ef:4f:d7:
         be:9f:91:0a:e5:e6:fd:33:85:e5:a8:4b:37:25:b2:70:4f:16:
         48:b4:5e:5c:ce:b5:78:fa:07:ca:8f:24:8f:c9:bf:f3:8a:38:
         e9:88:9f:98:62:09:10:35:2d:c4:41:12:eb:57:29:23:c6:51:
         23:d9:9a:af:5e:6c:9f:c1:68:a2:45:b0:70:3f:a9:ff:9f:3e:
         b1:ea:6d:8b:0d:b3:09:d3:34:9f:ae:f4:a1:c2:59:9f:3b:d6:
         30:bb:0d:d0:29:07:2d:cc:ab:e2:01:3a:e4:86:b3:43:1d:f8:
         3a:11:23:98:f4:13:75:5d:4b:c7:a6:e8:b7:64:15:e2:ee:e7:
         eb:4c:a0:be:45:a8:40:84:b7:1f:b1:a4:2b:19:10:df:d1:c9:
         5a:e9:d3:11:81:5f:b4:2f:b3:f9:47:7c:62:ad:ec:b5:dd:79:
         91:ba:6e:ad
-----BEGIN CERTIFICATE-----
MIIDXDCCAkSgAwIBAgIQAhaJm2VYvB3X06Imsad1LDANBgkqhkiG9w0BAQsFADAW
MRQwEgYDVQQDDAt0ZWFtMTU4LW5ldDAeFw0yMjA1MTgxODQ1NTNaFw0yNTA1MDIx
ODQ1NTNaMBkxFzAVBgNVBAMMDnRlYW0xNTgtY2xpZW50MIIBIjANBgkqhkiG9w0B
AQEFAAOCAQ8AMIIBCgKCAQEAtt1RBEI671uj3Pg6XJES1ufAoED/YzH59vRUK+Ma
Atc4D7NEqPKcHz78CpY9DyEF4NAV0ePAvbh9Nru6F2AsfQIOP7+2IApkAsAwLpHN
suuGniNA2ZgYWozcEtP9GYW28F2d80TLIUnDM3eGLpVauXlblseslCKSVu3xsgmj
NTvF5zRByll/267Xhg2Adpo3kuKePfLFYgC2dpewzIGwXMXMuBAYexevvuIFmaaZ
wwc0Vh4HFdtHe484Ljz7W7mUrGIwLt223XjaQFnhd8i0/fD7xR2G1feMDysoAYae
eekE8a9I/6+DHZ9hPYUTXjMRfmvLbtBNgAQyu70aIrc8mQIDAQABo4GiMIGfMAkG
A1UdEwQCMAAwHQYDVR0OBBYEFEz04TxYz9EWS02XTUmj90OWBHmBMFEGA1UdIwRK
MEiAFFQUQWWeK0EF3TP0duqZB6YI0b2EoRqkGDAWMRQwEgYDVQQDDAt0ZWFtMTU4
LW5ldIIUG/Y7FefU+14E5U/G1DPmpCVUN2YwEwYDVR0lBAwwCgYIKwYBBQUHAwIw
CwYDVR0PBAQDAgeAMA0GCSqGSIb3DQEBCwUAA4IBAQB3nSoKNy6VbHcN953YI3rW
zfSYQcLUyFNIXXnhyWhVqRgzq2vU/LTyKPsXVbjaYwZvFm1yIdR2f50Mh4ptATbA
K1tEap92n8YF5P0FrotSahMS/wQCGsXvT9e+n5EK5eb9M4XlqEs3JbJwTxZItF5c
zrV4+gfKjySPyb/zijjpiJ+YYgkQNS3EQRLrVykjxlEj2ZqvXmyfwWiiRbBwP6n/
nz6x6m2LDbMJ0zSfrvShwlmfO9Ywuw3QKQctzKviATrkhrNDHfg6ESOY9BN1XUvH
pui3ZBXi7ufrTKC+RahAhLcfsaQrGRDf0cla6dMRgV+0L7P5R3xirey13XmRum6t
-----END CERTIFICATE-----
