Certificate:
    Data:
        Version: 3 (0x2)
        Serial Number:
            78:6a:6d:2c:29:ba:44:19:67:55:fc:ed:5d:84:73:87
        Signature Algorithm: sha256WithRSAEncryption
        Issuer: CN=team756-net
        Validity
            Not Before: May 19 00:08:56 2022 GMT
            Not After : May  3 00:08:56 2025 GMT
        Subject: CN=team756-server
        Subject Public Key Info:
            Public Key Algorithm: rsaEncryption
                RSA Public-Key: (2048 bit)
                Modulus:
                    00:c9:34:c3:e8:bc:e3:30:1f:6d:c1:f9:a8:62:52:
                    98:19:3b:67:d4:f7:83:3a:17:52:42:7b:f6:8f:0c:
                    15:8e:4f:d2:23:2d:c3:30:0d:db:aa:70:03:b8:33:
                    ff:62:f8:17:ad:62:49:76:c4:c1:30:e5:96:6c:09:
                    71:08:0f:54:71:c0:60:75:c1:10:f3:cc:f8:d0:92:
                    67:79:93:e3:76:c3:2e:0e:1e:8d:35:e9:8d:73:4e:
                    43:00:b7:02:7b:5c:9b:08:94:84:2e:f2:da:85:50:
                    62:25:b4:21:e4:6e:3f:c5:a3:e2:83:de:f1:75:ab:
                    84:f1:71:49:5d:c5:52:77:cc:e0:96:95:f9:46:f4:
                    46:ee:f2:f7:4d:92:55:8f:06:33:d9:7e:6d:fc:61:
                    42:27:af:49:e2:a6:93:55:d2:42:da:50:3e:1c:2a:
                    4e:4c:c4:2f:7b:df:b7:19:f4:ee:3d:e6:4e:4d:1d:
                    18:e7:ea:2d:0c:f5:4b:0c:d9:25:8d:8f:74:ed:9e:
                    28:c0:cf:4a:56:75:e1:a8:b9:13:8f:1b:4a:67:d6:
                    77:9c:84:9a:45:07:89:e2:45:46:10:1f:26:6e:9e:
                    f8:c6:08:14:f4:ab:39:3f:7f:52:40:bc:b3:76:f8:
                    22:4d:62:e4:67:0f:7a:4d:66:53:9e:90:91:d3:36:
                    e9:b1
                Exponent: 65537 (0x10001)
        X509v3 extensions:
            X509v3 Basic Constraints: 
                CA:FALSE
            X509v3 Subject Key Identifier: 
                8E:02:1F:33:9A:1B:FA:6F:69:B8:CE:E5:95:24:3B:BC:6B:91:F3:02
            X509v3 Authority Key Identifier: 
                keyid:64:48:E7:B1:15:A1:13:15:C9:46:D0:2A:00:24:D3:99:45:AA:95:EA
                DirName:/CN=team756-net
                serial:23:FB:16:1D:59:98:15:B0:A7:09:55:01:6F:5E:58:17:85:C2:66:C3

            X509v3 Extended Key Usage: 
                TLS Web Server Authentication
            X509v3 Key Usage: 
                Digital Signature, Key Encipherment
            X509v3 Subject Alternative Name: 
                DNS:team756-server
    Signature Algorithm: sha256WithRSAEncryption
         45:f9:7e:fa:1a:0e:8e:59:05:95:46:25:14:05:20:23:bd:3e:
         5a:b7:11:dc:88:ff:4a:99:28:dc:f0:0a:92:7e:25:e2:be:52:
         1c:e1:53:1c:aa:37:d0:5d:d2:05:82:94:be:8a:c1:50:0a:29:
         f2:ea:af:b3:9d:c1:e0:c2:01:01:f9:94:86:91:b5:5a:e5:39:
         1d:77:b5:27:59:c8:40:83:98:63:3f:3b:94:02:c1:2d:b9:0b:
         74:14:09:71:31:a4:50:9b:0e:d8:2a:b5:08:69:0c:1d:d0:97:
         a3:8c:04:88:86:2b:c5:bf:06:a3:7e:1a:da:ae:b9:68:d7:86:
         94:a4:ca:21:27:3c:ad:8c:21:44:ad:1f:a8:8a:60:ac:17:3d:
         b5:59:1b:22:d1:d4:5c:21:10:47:a1:80:1b:52:d0:b8:ad:a9:
         bb:86:33:3c:d7:61:73:e0:57:ff:75:a9:84:da:c9:a2:af:60:
         ef:a9:14:1d:f4:c7:c1:a6:20:5e:05:7f:41:10:da:49:16:a3:
         db:8b:e5:a3:40:70:b1:62:5f:9d:bc:91:b8:88:4b:96:0b:7a:
         4c:54:83:85:37:bf:46:ae:e6:d3:d4:0b:83:2c:46:5b:aa:b1:
         d6:51:41:1c:2e:e7:5e:ee:4b:83:0a:05:d1:9b:db:89:69:b3:
         63:b9:fe:b1
-----BEGIN CERTIFICATE-----
MIIDdzCCAl+gAwIBAgIQeGptLCm6RBlnVfztXYRzhzANBgkqhkiG9w0BAQsFADAW
MRQwEgYDVQQDDAt0ZWFtNzU2LW5ldDAeFw0yMjA1MTkwMDA4NTZaFw0yNTA1MDMw
MDA4NTZaMBkxFzAVBgNVBAMMDnRlYW03NTYtc2VydmVyMIIBIjANBgkqhkiG9w0B
AQEFAAOCAQ8AMIIBCgKCAQEAyTTD6LzjMB9twfmoYlKYGTtn1PeDOhdSQnv2jwwV
jk/SIy3DMA3bqnADuDP/YvgXrWJJdsTBMOWWbAlxCA9UccBgdcEQ88z40JJneZPj
dsMuDh6NNemNc05DALcCe1ybCJSELvLahVBiJbQh5G4/xaPig97xdauE8XFJXcVS
d8zglpX5RvRG7vL3TZJVjwYz2X5t/GFCJ69J4qaTVdJC2lA+HCpOTMQve9+3GfTu
PeZOTR0Y5+otDPVLDNkljY907Z4owM9KVnXhqLkTjxtKZ9Z3nISaRQeJ4kVGEB8m
bp74xggU9Ks5P39SQLyzdvgiTWLkZw96TWZTnpCR0zbpsQIDAQABo4G9MIG6MAkG
A1UdEwQCMAAwHQYDVR0OBBYEFI4CHzOaG/pvabjO5ZUkO7xrkfMCMFEGA1UdIwRK
MEiAFGRI57EVoRMVyUbQKgAk05lFqpXqoRqkGDAWMRQwEgYDVQQDDAt0ZWFtNzU2
LW5ldIIUI/sWHVmYFbCnCVUBb15YF4XCZsMwEwYDVR0lBAwwCgYIKwYBBQUHAwEw
CwYDVR0PBAQDAgWgMBkGA1UdEQQSMBCCDnRlYW03NTYtc2VydmVyMA0GCSqGSIb3
DQEBCwUAA4IBAQBF+X76Gg6OWQWVRiUUBSAjvT5atxHciP9KmSjc8AqSfiXivlIc
4VMcqjfQXdIFgpS+isFQCiny6q+zncHgwgEB+ZSGkbVa5Tkdd7UnWchAg5hjPzuU
AsEtuQt0FAlxMaRQmw7YKrUIaQwd0JejjASIhivFvwajfhrarrlo14aUpMohJzyt
jCFErR+oimCsFz21WRsi0dRcIRBHoYAbUtC4ram7hjM812Fz4Ff/damE2smir2Dv
qRQd9MfBpiBeBX9BENpJFqPbi+WjQHCxYl+dvJG4iEuWC3pMVIOFN79GrubT1AuD
LEZbqrHWUUEcLude7kuDCgXRm9uJabNjuf6x
-----END CERTIFICATE-----
