Certificate:
    Data:
        Version: 3 (0x2)
        Serial Number:
            fd:f7:7f:4b:f2:db:53:b1:15:1b:a5:c3:65:9f:6c:cf
        Signature Algorithm: sha256WithRSAEncryption
        Issuer: CN=team756-net
        Validity
            Not Before: May 19 00:08:56 2022 GMT
            Not After : May  3 00:08:56 2025 GMT
        Subject: CN=team756-client
        Subject Public Key Info:
            Public Key Algorithm: rsaEncryption
                RSA Public-Key: (2048 bit)
                Modulus:
                    00:a2:d3:d1:e4:d0:2b:1f:eb:73:14:d1:1c:39:89:
                    11:a2:d4:3a:a5:28:db:8c:2b:ee:78:1a:dc:d6:e6:
                    5a:63:1f:16:a3:b7:b0:91:a0:d5:6d:45:ba:e3:2a:
                    3d:ae:8d:aa:48:95:d3:b9:af:bc:18:e4:59:26:ab:
                    ad:48:ab:65:04:6f:fb:6d:37:99:42:35:11:26:63:
                    e0:35:20:45:07:9e:5f:8f:15:9d:ce:a0:8d:08:e5:
                    ca:d2:4f:5a:e0:de:18:0a:06:f5:d3:ef:fb:89:08:
                    47:1b:26:44:3e:7c:e5:34:55:28:ae:f0:63:03:a0:
                    b7:d6:84:ba:bd:35:70:ef:9a:b3:b1:7c:52:00:84:
                    40:8b:75:25:d0:cc:c5:90:f5:8a:a1:42:0c:d0:8c:
                    d7:bb:69:1a:f7:d0:05:5b:25:7b:b8:e0:79:0c:3f:
                    48:35:84:95:db:a2:e1:64:d5:37:9c:91:c7:c2:3f:
                    31:21:3a:ae:77:6e:4d:10:b5:47:fb:2a:0c:c0:bc:
                    15:4f:7a:bc:b2:29:4c:ab:8f:c4:fe:eb:a8:bc:89:
                    00:6c:13:3d:7e:41:21:f5:81:31:b0:7f:61:12:80:
                    ba:33:70:64:a1:bd:44:1f:e4:cf:ce:a7:3b:14:1f:
                    d3:ad:c6:13:62:88:9c:c9:4d:c6:27:3e:e7:7f:a6:
                    f3:57
                Exponent: 65537 (0x10001)
        X509v3 extensions:
            X509v3 Basic Constraints: 
                CA:FALSE
            X509v3 Subject Key Identifier: 
                64:1E:B1:51:65:66:5E:18:F5:93:4C:EF:CF:BF:24:DC:FD:C8:AD:B0
            X509v3 Authority Key Identifier: 
                keyid:64:48:E7:B1:15:A1:13:15:C9:46:D0:2A:00:24:D3:99:45:AA:95:EA
                DirName:/CN=team756-net
                serial:23:FB:16:1D:59:98:15:B0:A7:09:55:01:6F:5E:58:17:85:C2:66:C3

            X509v3 Extended Key Usage: 
                TLS Web Client Authentication
            X509v3 Key Usage: 
                Digital Signature
    Signature Algorithm: sha256WithRSAEncryption
         60:36:c2:62:cc:f7:2c:03:41:29:22:90:3a:16:8e:96:85:17:
         db:8d:d9:cd:30:ae:0d:82:28:7b:2a:65:55:6d:0a:68:65:07:
         35:b7:5f:c4:6f:68:6d:d6:23:51:66:ed:bb:ee:70:07:b4:df:
         ea:e7:95:d3:8b:89:39:72:3a:99:4f:80:e2:12:e2:df:34:67:
         fc:d8:51:fd:51:6d:8d:5c:23:b8:03:ed:67:9b:c2:da:8f:65:
         33:66:62:b3:e5:7b:9e:57:40:6b:62:0e:97:79:cf:7a:1e:31:
         82:5e:d9:61:24:42:3e:ce:67:b3:36:30:73:3b:ec:41:22:de:
         db:7c:94:5f:4c:73:09:4e:04:54:df:f4:46:f7:c8:84:be:44:
         78:69:1a:58:52:ad:80:46:71:32:79:73:d5:55:16:a4:67:dd:
         15:f2:bd:33:04:f1:53:14:cf:ef:10:c0:45:cc:d5:21:2f:2d:
         a8:09:0d:8f:80:a2:17:b1:bb:2f:38:39:f3:55:c0:4f:f8:64:
         61:1f:36:fb:f4:d2:01:4c:4b:b2:c7:94:39:5e:fe:3a:17:1c:
         40:5b:aa:c0:28:e2:4b:ef:8c:89:d2:16:7f:47:8f:ff:7e:ce:
         1c:c3:6d:6c:fd:8f:a1:ae:c2:fd:48:9b:80:2c:2c:22:0d:0c:
         f9:cc:22:d7
-----BEGIN CERTIFICATE-----
MIIDXTCCAkWgAwIBAgIRAP33f0vy21OxFRulw2WfbM8wDQYJKoZIhvcNAQELBQAw
FjEUMBIGA1UEAwwLdGVhbTc1Ni1uZXQwHhcNMjIwNTE5MDAwODU2WhcNMjUwNTAz
MDAwODU2WjAZMRcwFQYDVQQDDA50ZWFtNzU2LWNsaWVudDCCASIwDQYJKoZIhvcN
AQEBBQADggEPADCCAQoCggEBAKLT0eTQKx/rcxTRHDmJEaLUOqUo24wr7nga3Nbm
WmMfFqO3sJGg1W1FuuMqPa6NqkiV07mvvBjkWSarrUirZQRv+203mUI1ESZj4DUg
RQeeX48Vnc6gjQjlytJPWuDeGAoG9dPv+4kIRxsmRD585TRVKK7wYwOgt9aEur01
cO+as7F8UgCEQIt1JdDMxZD1iqFCDNCM17tpGvfQBVsle7jgeQw/SDWEldui4WTV
N5yRx8I/MSE6rnduTRC1R/sqDMC8FU96vLIpTKuPxP7rqLyJAGwTPX5BIfWBMbB/
YRKAujNwZKG9RB/kz86nOxQf063GE2KInMlNxic+53+m81cCAwEAAaOBojCBnzAJ
BgNVHRMEAjAAMB0GA1UdDgQWBBRkHrFRZWZeGPWTTO/PvyTc/citsDBRBgNVHSME
SjBIgBRkSOexFaETFclG0CoAJNOZRaqV6qEapBgwFjEUMBIGA1UEAwwLdGVhbTc1
Ni1uZXSCFCP7Fh1ZmBWwpwlVAW9eWBeFwmbDMBMGA1UdJQQMMAoGCCsGAQUFBwMC
MAsGA1UdDwQEAwIHgDANBgkqhkiG9w0BAQsFAAOCAQEAYDbCYsz3LANBKSKQOhaO
loUX243ZzTCuDYIoeyplVW0KaGUHNbdfxG9obdYjUWbtu+5wB7Tf6ueV04uJOXI6
mU+A4hLi3zRn/NhR/VFtjVwjuAPtZ5vC2o9lM2Zis+V7nldAa2IOl3nPeh4xgl7Z
YSRCPs5nszYwczvsQSLe23yUX0xzCU4EVN/0RvfIhL5EeGkaWFKtgEZxMnlz1VUW
pGfdFfK9MwTxUxTP7xDARczVIS8tqAkNj4CiF7G7Lzg581XAT/hkYR82+/TSAUxL
sseUOV7+OhccQFuqwCjiS++MidIWf0eP/37OHMNtbP2Poa7C/UibgCwsIg0M+cwi
1w==
-----END CERTIFICATE-----
