Certificate:
    Data:
        Version: 3 (0x2)
        Serial Number:
            14:21:8e:50:bc:53:6a:3c:84:1f:21:aa:fe:3b:09:28
        Signature Algorithm: sha256WithRSAEncryption
        Issuer: CN=team107-net
        Validity
            Not Before: May 18 14:53:18 2022 GMT
            Not After : May  2 14:53:18 2025 GMT
        Subject: CN=team107-client
        Subject Public Key Info:
            Public Key Algorithm: rsaEncryption
                RSA Public-Key: (2048 bit)
                Modulus:
                    00:a8:f7:01:3f:75:27:a8:76:30:ed:ed:73:36:5e:
                    d8:ef:b6:37:c0:34:72:fc:40:47:54:b7:4e:7f:9f:
                    98:11:b3:57:87:4c:57:e4:99:ec:cb:da:cc:70:9e:
                    76:21:d4:12:36:8a:72:47:27:b3:3d:2e:8b:59:4c:
                    66:47:7d:4a:d4:77:29:88:56:b7:d1:81:8a:c1:47:
                    bb:fa:22:bf:02:35:5e:67:5e:b2:07:4f:25:03:a7:
                    3b:4b:bc:48:97:a2:e6:f0:a0:cc:32:65:a7:40:c7:
                    35:a1:a7:ff:01:3c:73:f8:9a:95:26:e4:79:40:1c:
                    2c:4b:bd:fa:b1:bc:ee:c9:f8:5b:a6:d9:20:52:64:
                    14:b8:aa:6f:c8:d3:63:ec:1a:08:7c:c3:95:46:da:
                    e4:79:08:35:73:ce:da:8a:4e:7b:02:20:2d:b4:48:
                    ec:f7:ac:34:31:63:71:73:a4:6f:52:57:35:f9:ee:
                    e1:3e:15:1a:46:83:60:ef:2d:1d:81:ba:14:77:d1:
                    b4:73:bb:8b:cf:e0:2b:6f:58:5c:91:ab:ac:09:ab:
                    d2:7a:a9:37:c4:ac:7d:0c:c8:3d:18:7f:85:bc:79:
                    e1:06:b4:34:fc:73:d4:34:e5:aa:98:04:2f:2a:a0:
                    ae:8e:b3:32:2c:a5:5c:21:dd:ce:89:8b:fc:8a:c4:
                    4f:bd
                Exponent: 65537 (0x10001)
        X509v3 extensions:
            X509v3 Basic Constraints: 
                CA:FALSE
            X509v3 Subject Key Identifier: 
                8F:7E:CF:B9:F1:2A:81:B9:06:1B:27:9F:52:98:31:99:19:D4:2F:BE
            X509v3 Authority Key Identifier: 
                keyid:B3:AC:F6:CF:CE:E6:F3:1D:46:4C:43:32:14:B4:AD:AF:EA:1A:37:54
                DirName:/CN=team107-net
                serial:33:13:44:51:3C:D7:E6:D9:35:8A:0D:A6:EA:AE:B6:24:99:A3:7A:A8

            X509v3 Extended Key Usage: 
                TLS Web Client Authentication
            X509v3 Key Usage: 
                Digital Signature
    Signature Algorithm: sha256WithRSAEncryption
         cd:0c:36:43:40:60:6d:7c:c2:70:fc:b2:d3:57:3b:52:1e:5b:
         96:3c:ad:0c:3d:c8:7b:b0:fb:a3:43:86:63:43:15:19:91:87:
         a2:25:c1:98:45:61:8f:79:6d:f6:df:ec:cc:15:32:38:38:b7:
         1e:3c:12:61:f5:73:2e:4a:7d:1e:f5:43:cc:08:a8:81:0e:e4:
         a4:72:e4:8a:6f:24:7b:26:54:49:be:97:53:c2:c1:85:97:f1:
         97:64:ac:06:d6:f3:a9:12:29:81:23:ff:d5:79:62:8b:fb:aa:
         8a:2a:74:78:38:06:d0:cb:a5:d8:6d:c0:e8:94:92:02:fe:06:
         8e:8c:0e:95:27:b1:20:0a:a9:75:04:df:4d:bc:9a:a7:01:a9:
         0c:a1:f8:c9:19:5e:d5:7e:43:eb:30:0d:5d:b6:ad:24:54:5c:
         85:a4:ff:e2:77:3a:c7:58:10:52:af:1b:5f:33:6d:5a:e1:74:
         02:12:57:bc:0d:ef:be:1d:4e:03:d3:64:9f:27:cd:88:0b:08:
         63:37:83:f0:68:c4:d1:04:e7:b1:b2:c0:1e:b3:0f:22:85:29:
         e8:13:d4:97:dc:91:ad:1f:e1:2e:db:0e:46:2a:16:63:40:45:
         d5:7c:79:93:fc:f5:06:8c:29:c1:2f:41:87:6e:a7:78:1e:80:
         32:db:21:c0
-----BEGIN CERTIFICATE-----
MIIDXDCCAkSgAwIBAgIQFCGOULxTajyEHyGq/jsJKDANBgkqhkiG9w0BAQsFADAW
MRQwEgYDVQQDDAt0ZWFtMTA3LW5ldDAeFw0yMjA1MTgxNDUzMThaFw0yNTA1MDIx
NDUzMThaMBkxFzAVBgNVBAMMDnRlYW0xMDctY2xpZW50MIIBIjANBgkqhkiG9w0B
AQEFAAOCAQ8AMIIBCgKCAQEAqPcBP3UnqHYw7e1zNl7Y77Y3wDRy/EBHVLdOf5+Y
EbNXh0xX5Jnsy9rMcJ52IdQSNopyRyezPS6LWUxmR31K1HcpiFa30YGKwUe7+iK/
AjVeZ16yB08lA6c7S7xIl6Lm8KDMMmWnQMc1oaf/ATxz+JqVJuR5QBwsS736sbzu
yfhbptkgUmQUuKpvyNNj7BoIfMOVRtrkeQg1c87aik57AiAttEjs96w0MWNxc6Rv
Ulc1+e7hPhUaRoNg7y0dgboUd9G0c7uLz+Arb1hckausCavSeqk3xKx9DMg9GH+F
vHnhBrQ0/HPUNOWqmAQvKqCujrMyLKVcId3OiYv8isRPvQIDAQABo4GiMIGfMAkG
A1UdEwQCMAAwHQYDVR0OBBYEFI9+z7nxKoG5Bhsnn1KYMZkZ1C++MFEGA1UdIwRK
MEiAFLOs9s/O5vMdRkxDMhS0ra/qGjdUoRqkGDAWMRQwEgYDVQQDDAt0ZWFtMTA3
LW5ldIIUMxNEUTzX5tk1ig2m6q62JJmjeqgwEwYDVR0lBAwwCgYIKwYBBQUHAwIw
CwYDVR0PBAQDAgeAMA0GCSqGSIb3DQEBCwUAA4IBAQDNDDZDQGBtfMJw/LLTVztS
HluWPK0MPch7sPujQ4ZjQxUZkYeiJcGYRWGPeW323+zMFTI4OLcePBJh9XMuSn0e
9UPMCKiBDuSkcuSKbyR7JlRJvpdTwsGFl/GXZKwG1vOpEimBI//VeWKL+6qKKnR4
OAbQy6XYbcDolJIC/gaOjA6VJ7EgCql1BN9NvJqnAakMofjJGV7VfkPrMA1dtq0k
VFyFpP/idzrHWBBSrxtfM21a4XQCEle8De++HU4D02SfJ82ICwhjN4PwaMTRBOex
ssAesw8ihSnoE9SX3JGtH+Eu2w5GKhZjQEXVfHmT/PUGjCnBL0GHbqd4HoAy2yHA
-----END CERTIFICATE-----
