Certificate:
    Data:
        Version: 3 (0x2)
        Serial Number:
            83:b3:a9:e3:69:fb:e2:06:76:d6:c9:d0:3d:3a:21:c7
        Signature Algorithm: sha256WithRSAEncryption
        Issuer: CN=team447-net
        Validity
            Not Before: May 18 21:19:51 2022 GMT
            Not After : May  2 21:19:51 2025 GMT
        Subject: CN=team447-server
        Subject Public Key Info:
            Public Key Algorithm: rsaEncryption
                RSA Public-Key: (2048 bit)
                Modulus:
                    00:c9:03:3f:1d:b5:5f:21:7f:d3:18:a4:f8:97:5e:
                    f8:ad:06:56:e7:21:c0:7d:6b:0c:87:79:56:3a:ab:
                    3a:5f:1c:5f:0e:2c:17:46:8a:f9:61:6b:63:e4:2b:
                    57:0f:6e:32:9c:60:39:90:8c:2a:fe:2c:18:46:cd:
                    13:61:b8:ec:a8:e3:1a:13:7c:90:19:4a:bf:31:22:
                    40:4f:e9:ef:1b:41:4d:50:20:a3:a1:ca:35:0f:1c:
                    95:e2:dd:df:48:7d:2b:eb:d4:92:bc:d6:fb:5d:c1:
                    3c:22:98:1b:5e:a2:8d:67:f6:1f:a4:f5:a9:9d:bf:
                    d7:d2:d7:72:9e:f7:02:f6:8a:5f:7e:d5:54:64:cc:
                    c6:00:a9:2c:c9:2d:94:c7:be:55:89:87:bd:03:ef:
                    5e:8f:81:e6:6b:4e:16:0b:f1:46:30:5c:ba:28:f7:
                    11:6d:4b:65:2b:1b:91:65:d7:4e:87:22:ee:1b:12:
                    18:af:9a:fb:e2:8a:b8:f4:46:ee:9d:1e:cc:07:9f:
                    11:82:15:4b:78:ee:c1:ae:ec:bf:0a:a7:fb:d9:3c:
                    15:2e:6a:d4:04:cb:57:20:5d:44:fd:d5:f2:63:90:
                    39:bb:7d:d2:dc:5c:1c:78:02:5b:a9:1f:3c:27:65:
                    02:83:f3:5b:9d:c5:d1:27:cc:3f:20:bc:20:3a:74:
                    56:19
                Exponent: 65537 (0x10001)
        X509v3 extensions:
            X509v3 Basic Constraints: 
                CA:FALSE
            X509v3 Subject Key Identifier: 
                6D:AB:FB:17:09:E3:21:39:3E:B4:E3:B8:0A:4C:A2:5E:8A:4E:54:45
            X509v3 Authority Key Identifier: 
                keyid:E5:4F:0C:1A:EF:90:6B:4E:F8:F5:18:2A:CC:2E:86:11:93:05:05:FE
                DirName:/CN=team447-net
                serial:68:55:22:1A:43:F7:C7:49:9F:11:08:B1:16:48:5D:A2:4F:F4:2D:7D

            X509v3 Extended Key Usage: 
                TLS Web Server Authentication
            X509v3 Key Usage: 
                Digital Signature, Key Encipherment
            X509v3 Subject Alternative Name: 
                DNS:team447-server
    Signature Algorithm: sha256WithRSAEncryption
         c3:10:cd:01:ab:30:13:f8:2f:ff:19:a5:16:25:53:b6:73:1e:
         27:90:e4:c3:e8:1d:a1:5d:1a:26:1d:c4:cd:86:59:a9:4c:48:
         b5:57:50:6a:56:ae:97:df:c5:56:23:3f:1f:9a:cb:0f:5a:6f:
         1f:bf:53:cf:d2:0a:5f:66:12:13:bd:73:bf:e5:3a:1a:5d:f8:
         b9:30:bc:55:cd:c7:db:b1:59:ff:23:de:8d:55:28:e1:17:4d:
         fb:1f:85:26:4c:15:a7:17:ce:c4:c4:32:88:83:27:b2:f7:41:
         27:51:f0:12:08:6f:af:99:18:f0:ff:51:bd:11:88:46:de:34:
         50:fd:92:47:71:13:5e:1c:7f:ad:d5:e4:a5:9f:e7:26:19:51:
         08:27:e9:8e:2a:30:e3:1f:13:cc:76:ee:72:12:e8:e5:9c:2a:
         02:db:ba:c3:a1:ec:97:e0:63:04:ee:32:1b:54:b1:08:5a:ab:
         ea:3d:40:a6:4e:f6:5a:26:e4:cc:2e:9a:ef:e4:07:0a:d5:b6:
         5d:ee:c0:4f:5f:1c:86:b7:da:a2:c8:58:2f:3e:d2:52:7e:fe:
         4e:db:fe:bb:c2:5f:ec:ea:e0:ce:46:3c:be:6e:21:85:3e:d3:
         ae:d9:11:48:f5:6c:55:d9:9c:68:76:e3:4b:2c:f8:de:95:75:
         3c:14:94:b3
-----BEGIN CERTIFICATE-----
MIIDeDCCAmCgAwIBAgIRAIOzqeNp++IGdtbJ0D06IccwDQYJKoZIhvcNAQELBQAw
FjEUMBIGA1UEAwwLdGVhbTQ0Ny1uZXQwHhcNMjIwNTE4MjExOTUxWhcNMjUwNTAy
MjExOTUxWjAZMRcwFQYDVQQDDA50ZWFtNDQ3LXNlcnZlcjCCASIwDQYJKoZIhvcN
AQEBBQADggEPADCCAQoCggEBAMkDPx21XyF/0xik+Jde+K0GVuchwH1rDId5Vjqr
Ol8cXw4sF0aK+WFrY+QrVw9uMpxgOZCMKv4sGEbNE2G47KjjGhN8kBlKvzEiQE/p
7xtBTVAgo6HKNQ8cleLd30h9K+vUkrzW+13BPCKYG16ijWf2H6T1qZ2/19LXcp73
AvaKX37VVGTMxgCpLMktlMe+VYmHvQPvXo+B5mtOFgvxRjBcuij3EW1LZSsbkWXX
Toci7hsSGK+a++KKuPRG7p0ezAefEYIVS3juwa7svwqn+9k8FS5q1ATLVyBdRP3V
8mOQObt90txcHHgCW6kfPCdlAoPzW53F0SfMPyC8IDp0VhkCAwEAAaOBvTCBujAJ
BgNVHRMEAjAAMB0GA1UdDgQWBBRtq/sXCeMhOT6047gKTKJeik5URTBRBgNVHSME
SjBIgBTlTwwa75BrTvj1GCrMLoYRkwUF/qEapBgwFjEUMBIGA1UEAwwLdGVhbTQ0
Ny1uZXSCFGhVIhpD98dJnxEIsRZIXaJP9C19MBMGA1UdJQQMMAoGCCsGAQUFBwMB
MAsGA1UdDwQEAwIFoDAZBgNVHREEEjAQgg50ZWFtNDQ3LXNlcnZlcjANBgkqhkiG
9w0BAQsFAAOCAQEAwxDNAaswE/gv/xmlFiVTtnMeJ5Dkw+gdoV0aJh3EzYZZqUxI
tVdQalaul9/FViM/H5rLD1pvH79Tz9IKX2YSE71zv+U6Gl34uTC8Vc3H27FZ/yPe
jVUo4RdN+x+FJkwVpxfOxMQyiIMnsvdBJ1HwEghvr5kY8P9RvRGIRt40UP2SR3ET
Xhx/rdXkpZ/nJhlRCCfpjiow4x8TzHbuchLo5ZwqAtu6w6Hsl+BjBO4yG1SxCFqr
6j1Apk72WibkzC6a7+QHCtW2Xe7AT18chrfaoshYLz7SUn7+Ttv+u8Jf7OrgzkY8
vm4hhT7TrtkRSPVsVdmcaHbjSyz43pV1PBSUsw==
-----END CERTIFICATE-----
