Certificate:
    Data:
        Version: 3 (0x2)
        Serial Number:
            98:4f:1e:a1:64:96:c9:41:b6:91:47:0f:5c:61:03:14
        Signature Algorithm: sha256WithRSAEncryption
        Issuer: CN=team672-net
        Validity
            Not Before: May 18 23:16:11 2022 GMT
            Not After : May  2 23:16:11 2025 GMT
        Subject: CN=team672-client
        Subject Public Key Info:
            Public Key Algorithm: rsaEncryption
                RSA Public-Key: (2048 bit)
                Modulus:
                    00:d7:3f:df:c2:d4:5d:ac:68:ad:43:1f:5c:e4:51:
                    83:ca:4a:47:37:93:44:8e:21:55:6b:d8:4f:58:98:
                    d3:a7:95:f1:fa:45:ed:1a:0a:1e:38:4e:45:11:84:
                    3e:e0:69:a4:fe:a0:5f:84:a9:d1:63:a0:cf:2e:5b:
                    f9:96:01:01:a1:44:6d:c0:b3:fd:9e:f5:7c:39:f1:
                    44:fe:e2:46:71:c6:a1:71:8f:af:95:c4:68:1b:fc:
                    87:28:d8:ec:42:cc:35:29:9b:90:bb:32:2d:82:79:
                    7f:b6:88:ee:66:17:bd:ce:aa:8c:48:43:8b:7e:97:
                    25:b6:28:d1:f4:e5:fd:6c:97:ef:dc:5f:7a:1c:c9:
                    51:89:f2:80:e6:2c:f6:cc:37:c2:b2:c1:a4:04:85:
                    ce:fb:d8:0b:f0:45:66:d2:a8:06:4b:d3:bf:8c:45:
                    79:cc:bf:e7:8f:1e:22:33:34:0d:64:e7:a3:9e:07:
                    be:00:89:5b:d0:41:db:b2:10:d5:32:ac:b6:a7:09:
                    f2:9d:ed:14:ed:ce:0e:ed:4d:c3:6e:40:61:f3:a3:
                    7a:ab:47:05:b9:07:e8:48:de:34:99:28:28:30:0f:
                    24:a6:cb:6c:e2:99:55:d5:e5:5f:30:5a:cd:b0:d8:
                    85:23:f3:9f:bc:2a:49:8d:cb:05:a2:84:03:be:21:
                    75:eb
                Exponent: 65537 (0x10001)
        X509v3 extensions:
            X509v3 Basic Constraints: 
                CA:FALSE
            X509v3 Subject Key Identifier: 
                62:BC:ED:C7:A7:32:FF:39:78:58:E3:C8:77:57:AF:FC:DB:DA:6D:58
            X509v3 Authority Key Identifier: 
                keyid:CC:03:BB:40:07:2F:F9:6D:38:58:34:00:9A:10:7E:9C:8F:1A:3C:DE
                DirName:/CN=team672-net
                serial:25:72:74:92:19:62:00:55:15:A6:41:7D:F9:5F:FE:28:BE:2A:F7:A4

            X509v3 Extended Key Usage: 
                TLS Web Client Authentication
            X509v3 Key Usage: 
                Digital Signature
    Signature Algorithm: sha256WithRSAEncryption
         69:07:49:18:8d:ab:e6:37:15:2a:79:fe:98:9d:71:75:a5:d8:
         9a:4e:5f:26:3b:00:36:e4:dc:b8:d4:0d:b3:da:7e:38:31:5d:
         75:ac:22:ba:46:a9:74:23:47:65:86:5f:de:d2:33:b1:f2:6f:
         cf:b3:10:f4:89:11:1c:6d:71:e1:cf:0d:98:5e:58:71:a4:64:
         bd:e5:12:1a:d3:f1:d9:3a:42:6c:dd:b0:06:2f:14:7b:11:51:
         08:01:96:a8:20:d3:59:cd:5d:96:68:d5:29:a3:d4:23:c0:46:
         f9:c0:54:94:98:df:05:b9:c5:56:48:0e:57:0b:46:01:75:4a:
         3a:74:12:e0:04:fc:bf:be:75:82:ac:99:92:71:ef:ea:1c:49:
         e5:95:4a:5c:6c:81:70:8d:c7:ac:42:33:0b:5f:ec:31:0a:e4:
         97:62:a8:2c:5b:21:cb:0c:56:cc:8f:38:ef:af:fc:1f:0d:63:
         f4:9e:76:51:73:8f:3c:2f:93:75:54:08:06:27:98:df:eb:e5:
         a9:76:ac:08:e2:4d:a4:66:f5:4f:31:6c:b1:9e:b6:b3:5e:0f:
         40:eb:8b:ff:f0:37:4a:94:f1:7a:3a:49:7c:93:f6:55:17:bd:
         ee:76:8b:b0:c3:6d:9b:7e:b8:c9:5d:20:0a:9b:f9:94:c8:69:
         e2:26:53:e3
-----BEGIN CERTIFICATE-----
MIIDXTCCAkWgAwIBAgIRAJhPHqFklslBtpFHD1xhAxQwDQYJKoZIhvcNAQELBQAw
FjEUMBIGA1UEAwwLdGVhbTY3Mi1uZXQwHhcNMjIwNTE4MjMxNjExWhcNMjUwNTAy
MjMxNjExWjAZMRcwFQYDVQQDDA50ZWFtNjcyLWNsaWVudDCCASIwDQYJKoZIhvcN
AQEBBQADggEPADCCAQoCggEBANc/38LUXaxorUMfXORRg8pKRzeTRI4hVWvYT1iY
06eV8fpF7RoKHjhORRGEPuBppP6gX4Sp0WOgzy5b+ZYBAaFEbcCz/Z71fDnxRP7i
RnHGoXGPr5XEaBv8hyjY7ELMNSmbkLsyLYJ5f7aI7mYXvc6qjEhDi36XJbYo0fTl
/WyX79xfehzJUYnygOYs9sw3wrLBpASFzvvYC/BFZtKoBkvTv4xFecy/548eIjM0
DWTno54HvgCJW9BB27IQ1TKstqcJ8p3tFO3ODu1Nw25AYfOjeqtHBbkH6EjeNJko
KDAPJKbLbOKZVdXlXzBazbDYhSPzn7wqSY3LBaKEA74hdesCAwEAAaOBojCBnzAJ
BgNVHRMEAjAAMB0GA1UdDgQWBBRivO3HpzL/OXhY48h3V6/829ptWDBRBgNVHSME
SjBIgBTMA7tABy/5bThYNACaEH6cjxo83qEapBgwFjEUMBIGA1UEAwwLdGVhbTY3
Mi1uZXSCFCVydJIZYgBVFaZBfflf/ii+KvekMBMGA1UdJQQMMAoGCCsGAQUFBwMC
MAsGA1UdDwQEAwIHgDANBgkqhkiG9w0BAQsFAAOCAQEAaQdJGI2r5jcVKnn+mJ1x
daXYmk5fJjsANuTcuNQNs9p+ODFddawiukapdCNHZYZf3tIzsfJvz7MQ9IkRHG1x
4c8NmF5YcaRkveUSGtPx2TpCbN2wBi8UexFRCAGWqCDTWc1dlmjVKaPUI8BG+cBU
lJjfBbnFVkgOVwtGAXVKOnQS4AT8v751gqyZknHv6hxJ5ZVKXGyBcI3HrEIzC1/s
MQrkl2KoLFshywxWzI8476/8Hw1j9J52UXOPPC+TdVQIBieY3+vlqXasCOJNpGb1
TzFssZ62s14PQOuL//A3SpTxejpJfJP2VRe97naLsMNtm364yV0gCpv5lMhp4iZT
4w==
-----END CERTIFICATE-----
