Certificate:
    Data:
        Version: 3 (0x2)
        Serial Number:
            60:ed:0d:6f:97:28:5c:47:42:74:4a:af:5c:51:57:18
        Signature Algorithm: sha256WithRSAEncryption
        Issuer: CN=team752-net
        Validity
            Not Before: May 19 00:16:51 2022 GMT
            Not After : May  3 00:16:51 2025 GMT
        Subject: CN=team752-client
        Subject Public Key Info:
            Public Key Algorithm: rsaEncryption
                RSA Public-Key: (2048 bit)
                Modulus:
                    00:cb:00:67:3d:8a:da:c0:25:f3:86:e4:cd:cc:f7:
                    a9:28:3f:27:a7:da:8b:9f:5a:1c:c1:67:a8:2c:06:
                    1b:35:e2:b8:55:4b:17:f6:d4:6e:13:5b:84:02:f1:
                    0a:0b:11:aa:5e:d0:cd:81:fe:33:38:42:48:eb:70:
                    19:0c:de:ff:b9:df:9a:8a:6e:f4:3c:9b:11:50:fb:
                    83:d0:a7:3b:20:54:98:2c:b0:12:76:93:41:9b:4f:
                    cc:7e:f8:b3:1c:4f:93:24:cc:6f:12:7f:15:ab:02:
                    0a:fa:d4:b1:e5:66:47:6f:2f:0d:07:1e:aa:46:0d:
                    d7:01:64:9c:eb:4f:67:aa:a4:cc:05:23:73:4f:c6:
                    1e:03:cc:9e:79:4f:01:30:f5:15:3d:c3:e7:86:cc:
                    60:f9:f1:ab:9a:dc:57:79:15:1b:73:e0:14:65:9c:
                    de:16:e2:e5:1b:76:ee:47:35:b5:18:bd:ee:94:83:
                    ee:78:8f:99:19:cf:9c:94:64:d6:95:cb:97:b8:5a:
                    b6:e2:ff:47:81:15:a8:87:0c:43:99:68:a9:a7:84:
                    d4:eb:b5:9d:62:3d:0f:06:e5:ee:90:b6:d5:fe:4e:
                    f6:21:48:d9:50:89:72:3d:7e:cd:91:5d:d8:f6:5b:
                    fc:ba:fe:c3:10:38:7f:6e:83:cb:dd:41:17:67:ec:
                    ae:8d
                Exponent: 65537 (0x10001)
        X509v3 extensions:
            X509v3 Basic Constraints: 
                CA:FALSE
            X509v3 Subject Key Identifier: 
                F9:2D:4F:C1:AB:00:DD:1A:9D:50:9F:91:21:4E:4B:BE:FC:2C:E0:40
            X509v3 Authority Key Identifier: 
                keyid:9F:67:80:93:04:09:34:19:04:D8:1D:4E:94:67:8E:61:2F:17:6C:0D
                DirName:/CN=team752-net
                serial:2B:AC:ED:0D:A8:FF:A7:68:30:FE:F2:17:6B:C0:2C:44:7D:B6:73:A6

            X509v3 Extended Key Usage: 
                TLS Web Client Authentication
            X509v3 Key Usage: 
                Digital Signature
    Signature Algorithm: sha256WithRSAEncryption
         57:19:33:25:14:e9:48:ed:39:1c:cc:68:f1:68:6c:24:59:d8:
         c4:71:ba:6d:73:a5:75:52:c9:c2:b7:a3:db:71:71:30:06:6e:
         7a:8b:0d:9a:79:2c:33:87:9b:de:ad:62:85:1b:59:0b:96:a6:
         79:6e:e0:2f:4a:a0:3a:3f:ef:7a:bb:27:33:b3:a5:31:ff:20:
         2d:d0:1f:3d:09:f2:08:87:b2:04:9d:32:1b:5e:da:8c:95:ae:
         bd:a3:8c:a0:fc:89:89:88:19:c3:89:9b:31:d6:2a:69:2f:76:
         9c:9e:26:e2:23:29:21:35:ff:9e:9c:cb:66:91:22:27:28:f5:
         cc:2f:b2:05:4f:d6:f4:21:16:9f:44:2f:92:ab:17:7e:04:09:
         1b:d0:93:81:7f:dc:e2:cd:a1:5a:72:26:a5:ca:c8:b7:20:7d:
         9d:1a:d2:1b:bc:ed:ee:d7:c6:18:f1:48:8c:ff:53:fd:a7:24:
         98:7d:67:44:25:ef:b3:cc:ce:61:ef:b9:91:ba:d6:16:bf:7d:
         09:2d:e3:c1:45:c0:28:f0:51:30:e5:21:49:43:15:a1:e0:eb:
         69:09:10:ce:b4:3d:76:70:70:c6:e0:88:60:d4:56:8b:85:1c:
         cd:f9:1e:60:9f:d2:54:aa:09:ad:bd:f4:e5:96:fc:66:2b:6f:
         32:43:c0:27
-----BEGIN CERTIFICATE-----
MIIDXDCCAkSgAwIBAgIQYO0Nb5coXEdCdEqvXFFXGDANBgkqhkiG9w0BAQsFADAW
MRQwEgYDVQQDDAt0ZWFtNzUyLW5ldDAeFw0yMjA1MTkwMDE2NTFaFw0yNTA1MDMw
MDE2NTFaMBkxFzAVBgNVBAMMDnRlYW03NTItY2xpZW50MIIBIjANBgkqhkiG9w0B
AQEFAAOCAQ8AMIIBCgKCAQEAywBnPYrawCXzhuTNzPepKD8np9qLn1ocwWeoLAYb
NeK4VUsX9tRuE1uEAvEKCxGqXtDNgf4zOEJI63AZDN7/ud+aim70PJsRUPuD0Kc7
IFSYLLASdpNBm0/MfvizHE+TJMxvEn8VqwIK+tSx5WZHby8NBx6qRg3XAWSc609n
qqTMBSNzT8YeA8yeeU8BMPUVPcPnhsxg+fGrmtxXeRUbc+AUZZzeFuLlG3buRzW1
GL3ulIPueI+ZGc+clGTWlcuXuFq24v9HgRWohwxDmWipp4TU67WdYj0PBuXukLbV
/k72IUjZUIlyPX7NkV3Y9lv8uv7DEDh/boPL3UEXZ+yujQIDAQABo4GiMIGfMAkG
A1UdEwQCMAAwHQYDVR0OBBYEFPktT8GrAN0anVCfkSFOS778LOBAMFEGA1UdIwRK
MEiAFJ9ngJMECTQZBNgdTpRnjmEvF2wNoRqkGDAWMRQwEgYDVQQDDAt0ZWFtNzUy
LW5ldIIUK6ztDaj/p2gw/vIXa8AsRH22c6YwEwYDVR0lBAwwCgYIKwYBBQUHAwIw
CwYDVR0PBAQDAgeAMA0GCSqGSIb3DQEBCwUAA4IBAQBXGTMlFOlI7TkczGjxaGwk
WdjEcbptc6V1UsnCt6PbcXEwBm56iw2aeSwzh5verWKFG1kLlqZ5buAvSqA6P+96
uyczs6Ux/yAt0B89CfIIh7IEnTIbXtqMla69o4yg/ImJiBnDiZsx1ippL3acnibi
IykhNf+enMtmkSInKPXML7IFT9b0IRafRC+Sqxd+BAkb0JOBf9zizaFacialysi3
IH2dGtIbvO3u18YY8UiM/1P9pySYfWdEJe+zzM5h77mRutYWv30JLePBRcAo8FEw
5SFJQxWh4OtpCRDOtD12cHDG4Ihg1FaLhRzN+R5gn9JUqgmtvfTllvxmK28yQ8An
-----END CERTIFICATE-----
