Certificate:
    Data:
        Version: 3 (0x2)
        Serial Number:
            4e:33:23:d8:87:78:c5:c7:2f:ae:97:38:a3:cb:fa:9e
        Signature Algorithm: sha256WithRSAEncryption
        Issuer: CN=team127-net
        Validity
            Not Before: May 18 15:10:10 2022 GMT
            Not After : May  2 15:10:10 2025 GMT
        Subject: CN=team127-client
        Subject Public Key Info:
            Public Key Algorithm: rsaEncryption
                RSA Public-Key: (2048 bit)
                Modulus:
                    00:a6:6d:72:3c:59:49:b7:94:e1:7d:66:6e:30:2b:
                    35:aa:d5:d8:90:d6:90:12:87:4d:65:cd:90:a2:86:
                    06:e3:06:de:5a:27:9c:0e:e9:eb:56:0a:ff:bc:de:
                    03:01:5b:78:e8:5d:2b:7f:62:97:d4:f5:5f:f7:82:
                    13:8b:12:7a:1b:a4:d9:b6:ac:f7:b5:0e:9d:21:54:
                    29:a5:65:b8:87:e3:ae:3d:66:4c:f0:1d:b6:c8:9f:
                    a3:9f:33:fe:ca:f0:a3:d8:69:1e:09:ae:ad:51:d3:
                    96:91:cc:75:02:95:b0:02:ba:65:3d:78:24:a6:21:
                    03:e9:a9:1a:88:18:ba:90:3b:98:4d:d8:a2:06:36:
                    a6:b3:98:de:3f:44:4f:cd:7c:c7:91:c1:53:74:f1:
                    4e:4d:8d:b9:be:8d:6d:d5:85:37:78:f9:1a:33:fe:
                    92:97:1a:cf:80:2e:66:ae:d0:b5:0e:99:a2:93:fa:
                    37:2b:56:6c:7b:a7:8a:99:8c:48:40:e3:a7:7a:47:
                    79:4f:ee:90:71:dc:8c:3d:b7:e3:0a:e5:73:16:d6:
                    c4:40:f3:b9:c2:74:b6:59:c1:81:05:03:76:a8:ec:
                    c0:5f:77:ad:c2:85:7a:38:70:97:9d:89:11:a3:34:
                    84:6a:64:4b:22:cf:b4:1d:11:e1:9f:ad:f6:42:fe:
                    bd:c7
                Exponent: 65537 (0x10001)
        X509v3 extensions:
            X509v3 Basic Constraints: 
                CA:FALSE
            X509v3 Subject Key Identifier: 
                BF:A5:CC:1D:8A:75:E3:6B:FF:62:81:A8:8F:89:7D:28:17:1C:C1:D1
            X509v3 Authority Key Identifier: 
                keyid:3F:AA:1A:26:C7:FD:61:20:9F:49:5E:C6:BF:4A:45:1A:07:85:05:51
                DirName:/CN=team127-net
                serial:4B:69:63:14:FA:E3:0E:C3:AB:77:7B:29:79:71:8E:6D:41:59:60:1E

            X509v3 Extended Key Usage: 
                TLS Web Client Authentication
            X509v3 Key Usage: 
                Digital Signature
    Signature Algorithm: sha256WithRSAEncryption
         96:2d:43:4f:5e:0c:b3:52:c3:6a:c4:2e:6a:f2:0e:32:ff:dd:
         19:56:f0:5b:61:55:30:d3:f8:66:be:f4:39:94:21:a9:fd:04:
         c5:f5:e9:0f:61:5e:d4:75:58:d7:1a:a3:00:ed:d4:8f:17:37:
         3d:c7:04:10:63:55:73:fd:5a:c7:78:e0:53:16:cf:d5:50:05:
         a1:c6:a5:2a:1b:42:4d:cb:7b:9f:30:75:7f:30:f7:15:13:28:
         32:a5:b1:d9:35:6d:d7:a2:07:84:0d:c0:8b:9e:dd:b1:b2:f0:
         eb:89:ce:b3:20:6c:84:d8:74:6c:e6:e8:8b:6f:f3:05:bd:d3:
         b7:d1:88:e2:c0:3a:71:78:83:0a:00:4e:cd:6a:56:9b:e7:d5:
         46:73:8c:6c:13:b4:b3:f2:23:c1:b5:83:fa:31:01:2d:13:11:
         48:d8:c7:a9:ba:e4:2e:45:50:f9:c0:cf:fb:9b:38:ec:bb:9c:
         39:db:a6:17:7b:a5:04:21:db:ad:47:11:6d:b9:f6:7f:56:17:
         bb:ae:05:a0:ea:de:de:ca:9c:fe:51:5e:9d:02:49:a9:f9:e1:
         57:18:aa:9d:0e:f1:2f:e6:28:0d:dc:3e:d1:88:77:26:10:fa:
         73:c7:b8:e1:bd:50:27:70:b8:d7:c1:b1:e6:6d:fb:dc:be:a0:
         18:4b:9b:b9
-----BEGIN CERTIFICATE-----
MIIDXDCCAkSgAwIBAgIQTjMj2Id4xccvrpc4o8v6njANBgkqhkiG9w0BAQsFADAW
MRQwEgYDVQQDDAt0ZWFtMTI3LW5ldDAeFw0yMjA1MTgxNTEwMTBaFw0yNTA1MDIx
NTEwMTBaMBkxFzAVBgNVBAMMDnRlYW0xMjctY2xpZW50MIIBIjANBgkqhkiG9w0B
AQEFAAOCAQ8AMIIBCgKCAQEApm1yPFlJt5ThfWZuMCs1qtXYkNaQEodNZc2QooYG
4wbeWiecDunrVgr/vN4DAVt46F0rf2KX1PVf94ITixJ6G6TZtqz3tQ6dIVQppWW4
h+OuPWZM8B22yJ+jnzP+yvCj2GkeCa6tUdOWkcx1ApWwArplPXgkpiED6akaiBi6
kDuYTdiiBjams5jeP0RPzXzHkcFTdPFOTY25vo1t1YU3ePkaM/6SlxrPgC5mrtC1
Dpmik/o3K1Zse6eKmYxIQOOnekd5T+6QcdyMPbfjCuVzFtbEQPO5wnS2WcGBBQN2
qOzAX3etwoV6OHCXnYkRozSEamRLIs+0HRHhn632Qv69xwIDAQABo4GiMIGfMAkG
A1UdEwQCMAAwHQYDVR0OBBYEFL+lzB2KdeNr/2KBqI+JfSgXHMHRMFEGA1UdIwRK
MEiAFD+qGibH/WEgn0lexr9KRRoHhQVRoRqkGDAWMRQwEgYDVQQDDAt0ZWFtMTI3
LW5ldIIUS2ljFPrjDsOrd3speXGObUFZYB4wEwYDVR0lBAwwCgYIKwYBBQUHAwIw
CwYDVR0PBAQDAgeAMA0GCSqGSIb3DQEBCwUAA4IBAQCWLUNPXgyzUsNqxC5q8g4y
/90ZVvBbYVUw0/hmvvQ5lCGp/QTF9ekPYV7UdVjXGqMA7dSPFzc9xwQQY1Vz/VrH
eOBTFs/VUAWhxqUqG0JNy3ufMHV/MPcVEygypbHZNW3XogeEDcCLnt2xsvDric6z
IGyE2HRs5uiLb/MFvdO30YjiwDpxeIMKAE7Nalab59VGc4xsE7Sz8iPBtYP6MQEt
ExFI2MepuuQuRVD5wM/7mzjsu5w526YXe6UEIdutRxFtufZ/Vhe7rgWg6t7eypz+
UV6dAkmp+eFXGKqdDvEv5igN3D7RiHcmEPpzx7jhvVAncLjXwbHmbfvcvqAYS5u5
-----END CERTIFICATE-----
