Certificate:
    Data:
        Version: 3 (0x2)
        Serial Number:
            d4:15:c5:fe:ed:ba:3c:7a:6b:cf:3b:d5:14:2f:f3:78
        Signature Algorithm: sha256WithRSAEncryption
        Issuer: CN=team239-net
        Validity
            Not Before: May 18 19:35:26 2022 GMT
            Not After : May  2 19:35:26 2025 GMT
        Subject: CN=team239-client
        Subject Public Key Info:
            Public Key Algorithm: rsaEncryption
                RSA Public-Key: (2048 bit)
                Modulus:
                    00:b0:5a:64:c1:0b:d1:62:fc:7e:3b:1d:ac:63:5b:
                    73:ce:79:c7:9a:95:5c:2b:dc:35:fc:d4:cf:8a:1b:
                    89:fb:09:13:d5:6e:01:eb:d7:61:ab:85:de:9f:c7:
                    fd:0e:4d:aa:c0:f2:75:e3:49:8c:65:35:d1:7e:90:
                    61:da:ee:26:71:a2:8e:76:e2:e4:d5:5c:38:eb:b0:
                    c3:28:b2:c4:70:da:ab:64:a6:98:4b:3b:ec:d2:7f:
                    b4:73:0f:60:1a:cf:f0:68:2d:5c:ea:69:86:fd:f0:
                    e8:04:70:9f:cf:ae:4e:5c:ed:3f:d1:8d:73:73:90:
                    a6:5c:38:1b:0d:bc:d7:88:7e:28:7b:19:ed:5b:34:
                    c4:a5:9d:e7:d4:b6:e2:cc:b7:6d:8f:86:83:df:71:
                    8a:be:66:48:f5:6b:fc:c5:4f:5e:64:fc:b8:c2:94:
                    d8:83:35:89:ae:30:cd:fd:2f:eb:de:89:a2:6f:e8:
                    c6:a1:63:c5:44:c8:c0:0f:cd:52:70:45:4f:9a:ab:
                    fb:44:cc:ba:2e:d9:60:53:8c:12:49:e7:94:f7:56:
                    6b:07:6a:bc:62:73:b0:a7:27:8a:82:a5:16:e1:7d:
                    45:d5:10:82:64:bc:e4:96:82:5d:69:45:af:fd:56:
                    19:5a:ee:91:10:78:c7:a8:4c:3d:9d:22:b9:ba:dd:
                    07:6f
                Exponent: 65537 (0x10001)
        X509v3 extensions:
            X509v3 Basic Constraints: 
                CA:FALSE
            X509v3 Subject Key Identifier: 
                46:EC:D8:65:67:A9:A7:44:E1:79:6A:D7:C2:C9:0C:10:BC:D9:54:55
            X509v3 Authority Key Identifier: 
                keyid:67:99:01:17:02:CE:D0:C5:B5:56:2F:82:1B:B4:14:89:9C:5B:7B:9F
                DirName:/CN=team239-net
                serial:7E:84:0D:FE:BA:71:3C:06:1C:4B:8A:B3:4D:A2:DA:2D:3F:18:5A:B5

            X509v3 Extended Key Usage: 
                TLS Web Client Authentication
            X509v3 Key Usage: 
                Digital Signature
    Signature Algorithm: sha256WithRSAEncryption
         a1:b2:bf:68:0a:85:4f:ab:b8:1a:17:f5:5b:24:79:a3:05:2a:
         f4:98:6b:5e:98:89:09:5d:77:0e:48:dd:ed:25:f0:c1:d8:c1:
         b1:35:b1:a3:1d:87:ac:dc:7b:b7:fa:c8:81:d0:d3:b7:e5:72:
         c1:25:c5:6e:6f:be:ae:88:90:b7:55:3b:0c:32:d9:3a:2c:60:
         a9:59:1d:69:cf:96:15:6f:25:d8:a1:6f:21:f3:42:b6:38:eb:
         6a:1a:3f:09:93:0d:7a:48:8f:8f:7a:02:a4:83:3c:1a:92:1f:
         70:5b:0d:a6:14:0d:e7:e5:9c:b6:b9:b0:82:60:61:41:1e:22:
         2f:bc:ca:71:fb:5c:ff:03:4f:1e:9c:85:5e:39:11:3c:9a:09:
         41:4d:8c:e7:19:60:73:2a:56:b5:44:e3:5b:bd:e1:6e:a2:1c:
         22:99:81:32:3f:7c:13:38:87:d5:f9:7e:01:5d:b6:cc:73:8c:
         ea:92:4a:cc:fa:7b:ae:0f:f7:97:9d:d7:b9:38:1c:58:28:f8:
         1d:50:67:26:ba:5c:d9:25:be:f8:79:fa:d5:ad:1c:13:19:37:
         93:f2:c4:8a:16:4d:2e:6d:f8:95:f6:02:df:7b:71:bc:4c:3a:
         cb:87:6e:27:07:49:45:d0:a9:5c:25:95:45:0f:21:c3:44:1e:
         47:76:ad:c8
-----BEGIN CERTIFICATE-----
MIIDXTCCAkWgAwIBAgIRANQVxf7tujx6a8871RQv83gwDQYJKoZIhvcNAQELBQAw
FjEUMBIGA1UEAwwLdGVhbTIzOS1uZXQwHhcNMjIwNTE4MTkzNTI2WhcNMjUwNTAy
MTkzNTI2WjAZMRcwFQYDVQQDDA50ZWFtMjM5LWNsaWVudDCCASIwDQYJKoZIhvcN
AQEBBQADggEPADCCAQoCggEBALBaZMEL0WL8fjsdrGNbc855x5qVXCvcNfzUz4ob
ifsJE9VuAevXYauF3p/H/Q5NqsDydeNJjGU10X6QYdruJnGijnbi5NVcOOuwwyiy
xHDaq2SmmEs77NJ/tHMPYBrP8GgtXOpphv3w6ARwn8+uTlztP9GNc3OQplw4Gw28
14h+KHsZ7Vs0xKWd59S24sy3bY+Gg99xir5mSPVr/MVPXmT8uMKU2IM1ia4wzf0v
696Jom/oxqFjxUTIwA/NUnBFT5qr+0TMui7ZYFOMEknnlPdWawdqvGJzsKcnioKl
FuF9RdUQgmS85JaCXWlFr/1WGVrukRB4x6hMPZ0iubrdB28CAwEAAaOBojCBnzAJ
BgNVHRMEAjAAMB0GA1UdDgQWBBRG7NhlZ6mnROF5atfCyQwQvNlUVTBRBgNVHSME
SjBIgBRnmQEXAs7QxbVWL4IbtBSJnFt7n6EapBgwFjEUMBIGA1UEAwwLdGVhbTIz
OS1uZXSCFH6EDf66cTwGHEuKs02i2i0/GFq1MBMGA1UdJQQMMAoGCCsGAQUFBwMC
MAsGA1UdDwQEAwIHgDANBgkqhkiG9w0BAQsFAAOCAQEAobK/aAqFT6u4Ghf1WyR5
owUq9JhrXpiJCV13Dkjd7SXwwdjBsTWxox2HrNx7t/rIgdDTt+VywSXFbm++roiQ
t1U7DDLZOixgqVkdac+WFW8l2KFvIfNCtjjraho/CZMNekiPj3oCpIM8GpIfcFsN
phQN5+WctrmwgmBhQR4iL7zKcftc/wNPHpyFXjkRPJoJQU2M5xlgcypWtUTjW73h
bqIcIpmBMj98EziH1fl+AV22zHOM6pJKzPp7rg/3l53XuTgcWCj4HVBnJrpc2SW+
+Hn61a0cExk3k/LEihZNLm34lfYC33txvEw6y4duJwdJRdCpXCWVRQ8hw0QeR3at
yA==
-----END CERTIFICATE-----
