Certificate:
    Data:
        Version: 3 (0x2)
        Serial Number:
            e6:fd:54:f6:77:d2:ff:26:a5:ed:31:fa:e2:6f:da:ca
        Signature Algorithm: sha256WithRSAEncryption
        Issuer: CN=team638-net
        Validity
            Not Before: May 18 22:58:17 2022 GMT
            Not After : May  2 22:58:17 2025 GMT
        Subject: CN=team638-server
        Subject Public Key Info:
            Public Key Algorithm: rsaEncryption
                RSA Public-Key: (2048 bit)
                Modulus:
                    00:bf:6e:bd:b0:be:05:8d:90:85:df:23:e4:12:f1:
                    b1:72:97:f0:0e:5a:f9:ee:e6:33:1d:90:83:20:ba:
                    9e:46:ea:6a:ed:bd:7c:11:0f:fd:39:4e:ad:6c:53:
                    3e:b6:c7:d5:cb:35:32:44:f6:d8:f2:17:b8:f3:f9:
                    21:5f:2a:49:a7:bd:02:cc:5b:02:af:7a:cb:0f:bd:
                    40:52:c2:ab:c8:c1:85:ba:de:dc:bd:0b:06:53:04:
                    76:ba:a1:61:a5:3c:bf:77:9f:87:2e:35:78:0c:80:
                    9e:7d:aa:11:da:38:af:c4:fa:31:c0:44:b0:76:e1:
                    b8:5a:1d:c6:9e:95:3c:e9:69:41:b0:40:a9:5c:5a:
                    b7:64:03:49:f0:dc:fd:05:9f:5d:b5:be:e8:c4:4f:
                    28:c6:ea:91:51:18:93:ff:90:0d:ab:4b:c8:08:6b:
                    9c:a8:35:0d:6a:ed:17:eb:6c:bd:28:4b:3d:92:b9:
                    bc:e8:d3:1b:78:c1:dc:17:2a:10:79:32:06:0a:86:
                    b8:e4:e0:50:cf:29:a3:f7:bf:0a:cf:5b:c3:93:66:
                    dc:d7:77:ac:c5:a8:5f:2b:02:95:c9:8d:00:3d:6b:
                    b0:c4:4e:74:3e:7e:9a:95:67:a2:03:25:31:f2:c8:
                    ee:eb:b0:b8:6d:52:89:65:53:58:2c:c5:02:67:78:
                    0b:c7
                Exponent: 65537 (0x10001)
        X509v3 extensions:
            X509v3 Basic Constraints: 
                CA:FALSE
            X509v3 Subject Key Identifier: 
                F5:04:E7:67:4B:4C:B0:34:17:9F:0C:D4:DD:E2:99:F3:8A:34:62:25
            X509v3 Authority Key Identifier: 
                keyid:7E:EF:83:90:D1:0D:BE:17:BB:EB:31:0B:96:EA:5F:56:CB:25:D0:FA
                DirName:/CN=team638-net
                serial:61:48:61:1C:1C:CC:63:08:73:CA:5E:0C:A0:58:D0:B4:0F:A4:54:E8

            X509v3 Extended Key Usage: 
                TLS Web Server Authentication
            X509v3 Key Usage: 
                Digital Signature, Key Encipherment
            X509v3 Subject Alternative Name: 
                DNS:team638-server
    Signature Algorithm: sha256WithRSAEncryption
         6c:c0:a2:62:e5:2d:b0:5f:e5:51:ff:19:6a:6c:a4:e2:7c:89:
         3a:11:80:bf:14:19:59:22:13:5a:b5:5d:35:d3:47:3a:5f:36:
         57:ac:0c:4c:4f:9c:11:8b:35:c9:ea:6a:08:3c:12:c9:e0:90:
         e2:d9:da:d4:16:81:78:49:bc:ab:7d:46:5e:0c:31:e4:49:f7:
         4d:35:2e:1f:ba:aa:ac:fb:93:5c:0a:62:99:79:af:6a:00:87:
         28:f7:75:5f:36:a7:ab:a9:48:1f:aa:c7:76:f1:3f:5f:ee:fa:
         9c:b9:f2:57:85:bc:a0:5b:1d:a4:6c:f3:07:95:6e:0c:75:f3:
         6b:74:2e:76:87:64:96:0b:1a:ac:fe:35:49:f1:7a:5c:38:ff:
         fe:55:2b:e1:a2:05:98:89:9f:99:66:1f:e4:6e:dd:ca:5b:89:
         f8:6f:ee:62:44:b9:de:12:20:f3:0a:14:35:6a:70:95:a8:d8:
         9f:f4:7f:a3:a2:3b:1e:2c:c2:fa:73:0d:25:43:f4:a2:ed:99:
         38:2d:0e:a2:72:da:67:27:01:84:06:60:43:f2:33:9f:3b:3d:
         bf:4c:eb:cc:2e:63:27:91:b9:cb:93:d8:03:b9:77:ed:2c:e3:
         52:b6:f2:28:a5:04:ee:72:94:a6:b7:1c:0d:3f:b3:9e:7a:81:
         4e:cb:bd:41
-----BEGIN CERTIFICATE-----
MIIDeDCCAmCgAwIBAgIRAOb9VPZ30v8mpe0x+uJv2sowDQYJKoZIhvcNAQELBQAw
FjEUMBIGA1UEAwwLdGVhbTYzOC1uZXQwHhcNMjIwNTE4MjI1ODE3WhcNMjUwNTAy
MjI1ODE3WjAZMRcwFQYDVQQDDA50ZWFtNjM4LXNlcnZlcjCCASIwDQYJKoZIhvcN
AQEBBQADggEPADCCAQoCggEBAL9uvbC+BY2Qhd8j5BLxsXKX8A5a+e7mMx2QgyC6
nkbqau29fBEP/TlOrWxTPrbH1cs1MkT22PIXuPP5IV8qSae9AsxbAq96yw+9QFLC
q8jBhbre3L0LBlMEdrqhYaU8v3efhy41eAyAnn2qEdo4r8T6McBEsHbhuFodxp6V
POlpQbBAqVxat2QDSfDc/QWfXbW+6MRPKMbqkVEYk/+QDatLyAhrnKg1DWrtF+ts
vShLPZK5vOjTG3jB3BcqEHkyBgqGuOTgUM8po/e/Cs9bw5Nm3Nd3rMWoXysClcmN
AD1rsMROdD5+mpVnogMlMfLI7uuwuG1SiWVTWCzFAmd4C8cCAwEAAaOBvTCBujAJ
BgNVHRMEAjAAMB0GA1UdDgQWBBT1BOdnS0ywNBefDNTd4pnzijRiJTBRBgNVHSME
SjBIgBR+74OQ0Q2+F7vrMQuW6l9WyyXQ+qEapBgwFjEUMBIGA1UEAwwLdGVhbTYz
OC1uZXSCFGFIYRwczGMIc8peDKBY0LQPpFToMBMGA1UdJQQMMAoGCCsGAQUFBwMB
MAsGA1UdDwQEAwIFoDAZBgNVHREEEjAQgg50ZWFtNjM4LXNlcnZlcjANBgkqhkiG
9w0BAQsFAAOCAQEAbMCiYuUtsF/lUf8Zamyk4nyJOhGAvxQZWSITWrVdNdNHOl82
V6wMTE+cEYs1yepqCDwSyeCQ4tna1BaBeEm8q31GXgwx5En3TTUuH7qqrPuTXApi
mXmvagCHKPd1Xzanq6lIH6rHdvE/X+76nLnyV4W8oFsdpGzzB5VuDHXza3Qudodk
lgsarP41SfF6XDj//lUr4aIFmImfmWYf5G7dyluJ+G/uYkS53hIg8woUNWpwlajY
n/R/o6I7HizC+nMNJUP0ou2ZOC0OonLaZycBhAZgQ/Iznzs9v0zrzC5jJ5G5y5PY
A7l37SzjUrbyKKUE7nKUprccDT+znnqBTsu9QQ==
-----END CERTIFICATE-----
