Certificate:
    Data:
        Version: 3 (0x2)
        Serial Number:
            39:be:bb:bb:b6:82:29:30:75:25:cd:59:0e:58:85:93
        Signature Algorithm: sha256WithRSAEncryption
        Issuer: CN=team520-net
        Validity
            Not Before: May 18 21:57:47 2022 GMT
            Not After : May  2 21:57:47 2025 GMT
        Subject: CN=team520-client
        Subject Public Key Info:
            Public Key Algorithm: rsaEncryption
                RSA Public-Key: (2048 bit)
                Modulus:
                    00:bd:ca:79:db:a1:d3:54:29:49:27:c8:be:29:6e:
                    bf:ff:82:41:2d:32:6f:56:44:ec:c5:f5:e2:54:d7:
                    ed:fd:03:67:f1:6d:04:3e:cd:c2:ec:d8:36:67:81:
                    2a:d5:6c:be:0b:2c:65:cb:25:5a:5b:79:a7:db:af:
                    a9:e8:aa:93:fe:2e:4a:d1:11:4c:78:17:80:51:46:
                    8d:40:7f:6a:9a:dc:cb:0c:fe:b1:a7:5e:bc:eb:a4:
                    1e:5e:81:6d:19:2f:08:20:4f:4b:30:06:42:a1:ce:
                    05:ee:18:67:ba:ba:f4:74:26:36:29:f0:62:9f:9d:
                    6b:7e:49:6a:96:c0:21:14:06:ae:f5:31:0a:4c:8c:
                    d4:e8:fb:3e:83:1d:ad:d4:af:3b:01:39:9f:5e:ad:
                    10:98:45:8e:f8:ff:1e:28:6f:f0:61:8b:d7:37:fc:
                    be:38:f8:4d:cf:7a:f6:c7:3e:07:13:a8:ef:13:6b:
                    23:00:aa:c4:b1:4c:11:36:4a:40:89:b6:05:8c:1d:
                    ab:74:da:58:fa:86:b8:41:12:93:83:c8:65:4a:8b:
                    2b:76:cc:13:37:e8:0c:ad:b1:43:b0:48:2d:65:f6:
                    df:d9:d6:76:d7:ba:e5:0e:b5:65:c4:73:c9:5a:7d:
                    af:62:79:59:a0:d3:25:bf:6c:7d:9c:89:40:73:b8:
                    fe:b5
                Exponent: 65537 (0x10001)
        X509v3 extensions:
            X509v3 Basic Constraints: 
                CA:FALSE
            X509v3 Subject Key Identifier: 
                56:AC:26:2B:3F:58:8E:0C:2C:A0:72:75:72:7A:46:78:7B:08:09:89
            X509v3 Authority Key Identifier: 
                keyid:3B:A8:57:EE:1C:CA:6F:C1:34:DC:4A:3C:42:3C:EB:98:29:31:3B:23
                DirName:/CN=team520-net
                serial:44:7D:CC:7B:FC:20:C5:04:A3:3B:AD:66:8B:0B:07:A7:71:56:4F:FB

            X509v3 Extended Key Usage: 
                TLS Web Client Authentication
            X509v3 Key Usage: 
                Digital Signature
    Signature Algorithm: sha256WithRSAEncryption
         05:5d:19:0b:26:09:fb:be:a7:7f:c6:15:06:a7:f6:5c:ba:3e:
         93:95:3e:79:76:90:c1:52:dc:34:9e:32:2b:87:98:d3:a7:c2:
         5f:79:91:16:7c:0d:f6:aa:bd:36:4f:79:1c:16:cf:12:89:74:
         45:28:39:af:d8:09:73:33:f2:64:e6:85:5c:db:55:27:64:7d:
         a3:8f:69:7c:d5:df:fd:2b:40:d7:83:f0:b4:28:07:37:6f:82:
         6d:26:a6:62:63:57:69:26:f1:68:b3:20:d1:83:21:e0:01:2a:
         83:b5:a5:5d:4d:82:20:ec:5b:d2:af:47:f4:16:e0:ee:43:97:
         f3:be:e6:34:c9:90:0c:58:7e:7f:e5:6b:a8:39:6e:9b:cc:a1:
         c7:3b:ce:45:16:dc:c0:94:a7:b4:79:ae:b9:87:21:a3:ac:e9:
         87:0c:64:44:4d:71:63:8e:e2:b8:c7:7a:51:8a:c5:59:6b:74:
         6a:d0:cb:af:ac:b6:fd:9f:31:f7:07:0b:ec:e6:8b:a6:db:43:
         31:09:42:06:24:a6:2f:7c:05:5f:f2:e3:cd:70:3a:5a:0a:09:
         51:86:3a:bf:dd:5e:b4:45:98:0c:75:89:25:e4:63:97:c8:21:
         79:8a:68:88:36:89:1c:74:a0:87:ee:86:a8:62:aa:d0:8a:ce:
         3b:58:62:81
-----BEGIN CERTIFICATE-----
MIIDXDCCAkSgAwIBAgIQOb67u7aCKTB1Jc1ZDliFkzANBgkqhkiG9w0BAQsFADAW
MRQwEgYDVQQDDAt0ZWFtNTIwLW5ldDAeFw0yMjA1MTgyMTU3NDdaFw0yNTA1MDIy
MTU3NDdaMBkxFzAVBgNVBAMMDnRlYW01MjAtY2xpZW50MIIBIjANBgkqhkiG9w0B
AQEFAAOCAQ8AMIIBCgKCAQEAvcp526HTVClJJ8i+KW6//4JBLTJvVkTsxfXiVNft
/QNn8W0EPs3C7Ng2Z4Eq1Wy+CyxlyyVaW3mn26+p6KqT/i5K0RFMeBeAUUaNQH9q
mtzLDP6xp16866QeXoFtGS8IIE9LMAZCoc4F7hhnurr0dCY2KfBin51rfklqlsAh
FAau9TEKTIzU6Ps+gx2t1K87ATmfXq0QmEWO+P8eKG/wYYvXN/y+OPhNz3r2xz4H
E6jvE2sjAKrEsUwRNkpAibYFjB2rdNpY+oa4QRKTg8hlSosrdswTN+gMrbFDsEgt
Zfbf2dZ217rlDrVlxHPJWn2vYnlZoNMlv2x9nIlAc7j+tQIDAQABo4GiMIGfMAkG
A1UdEwQCMAAwHQYDVR0OBBYEFFasJis/WI4MLKBydXJ6Rnh7CAmJMFEGA1UdIwRK
MEiAFDuoV+4cym/BNNxKPEI865gpMTsjoRqkGDAWMRQwEgYDVQQDDAt0ZWFtNTIw
LW5ldIIURH3Me/wgxQSjO61miwsHp3FWT/swEwYDVR0lBAwwCgYIKwYBBQUHAwIw
CwYDVR0PBAQDAgeAMA0GCSqGSIb3DQEBCwUAA4IBAQAFXRkLJgn7vqd/xhUGp/Zc
uj6TlT55dpDBUtw0njIrh5jTp8JfeZEWfA32qr02T3kcFs8SiXRFKDmv2AlzM/Jk
5oVc21UnZH2jj2l81d/9K0DXg/C0KAc3b4JtJqZiY1dpJvFosyDRgyHgASqDtaVd
TYIg7FvSr0f0FuDuQ5fzvuY0yZAMWH5/5WuoOW6bzKHHO85FFtzAlKe0ea65hyGj
rOmHDGRETXFjjuK4x3pRisVZa3Rq0MuvrLb9nzH3Bwvs5oum20MxCUIGJKYvfAVf
8uPNcDpaCglRhjq/3V60RZgMdYkl5GOXyCF5imiINokcdKCH7oaoYqrQis47WGKB
-----END CERTIFICATE-----
