Certificate:
    Data:
        Version: 3 (0x2)
        Serial Number:
            89:c9:c9:07:01:bf:e2:1b:ac:23:c5:f9:f5:6a:84:79
        Signature Algorithm: sha256WithRSAEncryption
        Issuer: CN=team520-net
        Validity
            Not Before: May 18 21:57:47 2022 GMT
            Not After : May  2 21:57:47 2025 GMT
        Subject: CN=team520-server
        Subject Public Key Info:
            Public Key Algorithm: rsaEncryption
                RSA Public-Key: (2048 bit)
                Modulus:
                    00:cf:5e:4c:95:03:a6:29:7f:c7:d1:48:76:e0:6a:
                    67:65:f4:61:df:12:43:83:1d:68:51:69:fb:57:a2:
                    61:91:13:7c:51:c6:ff:89:e5:49:b1:5b:e9:36:d5:
                    38:91:30:d4:77:5f:81:2f:ce:ce:8c:ce:27:69:62:
                    36:ee:7e:c9:aa:69:2e:5e:1a:fc:d2:3b:42:c9:17:
                    9d:09:28:ac:1c:f6:cb:4b:ac:87:30:60:43:23:ea:
                    ea:fc:2d:68:76:e9:db:82:0c:7f:e8:f2:29:51:57:
                    d4:ae:eb:2d:6c:64:59:f9:26:0c:38:35:85:20:3c:
                    0b:65:a1:e3:99:60:8f:e6:7d:72:89:86:7b:9e:9f:
                    93:db:66:74:75:1f:48:98:a9:27:ec:7d:49:59:e6:
                    2b:43:56:78:a8:be:6a:43:6b:39:10:4b:20:7d:b9:
                    8a:68:aa:4f:24:a9:b9:9d:ac:ba:07:67:06:f8:bf:
                    66:8a:1c:3f:c9:42:52:63:59:76:b0:b7:14:92:54:
                    f7:bd:5e:14:85:04:ac:de:b2:46:35:cb:92:92:15:
                    1b:47:5f:0c:57:92:e3:94:97:7c:10:95:f8:da:2d:
                    8b:90:b8:99:f9:9c:cb:35:97:ab:31:06:73:b7:37:
                    60:9c:cf:55:04:ed:08:eb:b5:50:7e:51:62:92:e2:
                    4c:df
                Exponent: 65537 (0x10001)
        X509v3 extensions:
            X509v3 Basic Constraints: 
                CA:FALSE
            X509v3 Subject Key Identifier: 
                D6:2B:19:E0:11:C0:BE:51:4E:AC:B6:89:99:0A:11:C4:BC:7E:54:20
            X509v3 Authority Key Identifier: 
                keyid:3B:A8:57:EE:1C:CA:6F:C1:34:DC:4A:3C:42:3C:EB:98:29:31:3B:23
                DirName:/CN=team520-net
                serial:44:7D:CC:7B:FC:20:C5:04:A3:3B:AD:66:8B:0B:07:A7:71:56:4F:FB

            X509v3 Extended Key Usage: 
                TLS Web Server Authentication
            X509v3 Key Usage: 
                Digital Signature, Key Encipherment
            X509v3 Subject Alternative Name: 
                DNS:team520-server
    Signature Algorithm: sha256WithRSAEncryption
         50:b2:2d:f6:d3:e4:29:9a:82:7e:3d:5b:5b:66:f1:f5:5d:41:
         2e:0f:07:72:79:24:7c:bc:fc:34:bd:b4:b4:1a:fa:ab:d2:d4:
         7d:04:08:0f:37:34:c2:cb:ac:a0:5a:c8:c5:85:0a:30:fa:ac:
         9c:1d:6f:e6:8d:13:ea:b7:ee:f9:96:e3:69:63:38:17:01:f1:
         b0:5a:00:7a:cf:40:d8:8a:1c:61:ac:ea:5e:e8:c1:82:79:4c:
         4a:6f:c5:54:3f:ef:65:89:70:6d:f1:28:2d:d4:74:71:d5:40:
         0f:68:23:4e:bd:16:26:df:a1:9a:99:55:a8:b6:ee:38:5f:57:
         5e:f2:5d:a7:64:c0:98:8f:12:66:2c:b8:05:56:38:cc:db:40:
         bb:72:21:66:89:e9:31:15:c2:12:d2:d2:3d:0a:51:7c:10:17:
         ad:15:d6:72:87:1c:ca:f9:c1:de:7f:42:64:8a:df:df:e1:23:
         64:fd:f7:9f:88:6d:90:aa:8b:8d:33:3d:78:31:49:b2:d7:dc:
         9c:3d:75:9f:fc:a8:ea:a8:01:a7:85:cb:89:bb:ec:28:02:40:
         af:a3:9d:3e:9b:5c:08:a9:55:b6:6d:dd:0e:a1:78:9e:40:8b:
         1c:74:39:2e:76:01:f3:8e:7a:a2:91:cc:e6:69:54:92:68:73:
         1c:b3:ef:7c
-----BEGIN CERTIFICATE-----
MIIDeDCCAmCgAwIBAgIRAInJyQcBv+IbrCPF+fVqhHkwDQYJKoZIhvcNAQELBQAw
FjEUMBIGA1UEAwwLdGVhbTUyMC1uZXQwHhcNMjIwNTE4MjE1NzQ3WhcNMjUwNTAy
MjE1NzQ3WjAZMRcwFQYDVQQDDA50ZWFtNTIwLXNlcnZlcjCCASIwDQYJKoZIhvcN
AQEBBQADggEPADCCAQoCggEBAM9eTJUDpil/x9FIduBqZ2X0Yd8SQ4MdaFFp+1ei
YZETfFHG/4nlSbFb6TbVOJEw1HdfgS/OzozOJ2liNu5+yappLl4a/NI7QskXnQko
rBz2y0ushzBgQyPq6vwtaHbp24IMf+jyKVFX1K7rLWxkWfkmDDg1hSA8C2Wh45lg
j+Z9comGe56fk9tmdHUfSJipJ+x9SVnmK0NWeKi+akNrORBLIH25imiqTySpuZ2s
ugdnBvi/ZoocP8lCUmNZdrC3FJJU971eFIUErN6yRjXLkpIVG0dfDFeS45SXfBCV
+Noti5C4mfmcyzWXqzEGc7c3YJzPVQTtCOu1UH5RYpLiTN8CAwEAAaOBvTCBujAJ
BgNVHRMEAjAAMB0GA1UdDgQWBBTWKxngEcC+UU6stomZChHEvH5UIDBRBgNVHSME
SjBIgBQ7qFfuHMpvwTTcSjxCPOuYKTE7I6EapBgwFjEUMBIGA1UEAwwLdGVhbTUy
MC1uZXSCFER9zHv8IMUEozutZosLB6dxVk/7MBMGA1UdJQQMMAoGCCsGAQUFBwMB
MAsGA1UdDwQEAwIFoDAZBgNVHREEEjAQgg50ZWFtNTIwLXNlcnZlcjANBgkqhkiG
9w0BAQsFAAOCAQEAULIt9tPkKZqCfj1bW2bx9V1BLg8HcnkkfLz8NL20tBr6q9LU
fQQIDzc0wsusoFrIxYUKMPqsnB1v5o0T6rfu+ZbjaWM4FwHxsFoAes9A2IocYazq
XujBgnlMSm/FVD/vZYlwbfEoLdR0cdVAD2gjTr0WJt+hmplVqLbuOF9XXvJdp2TA
mI8SZiy4BVY4zNtAu3IhZonpMRXCEtLSPQpRfBAXrRXWcoccyvnB3n9CZIrf3+Ej
ZP33n4htkKqLjTM9eDFJstfcnD11n/yo6qgBp4XLibvsKAJAr6OdPptcCKlVtm3d
DqF4nkCLHHQ5LnYB8456opHM5mlUkmhzHLPvfA==
-----END CERTIFICATE-----
