Certificate:
    Data:
        Version: 3 (0x2)
        Serial Number:
            56:5e:9f:3a:93:e0:cd:16:59:de:38:74:fa:88:23:f0
        Signature Algorithm: sha256WithRSAEncryption
        Issuer: CN=team441-net
        Validity
            Not Before: May 18 21:17:03 2022 GMT
            Not After : May  2 21:17:03 2025 GMT
        Subject: CN=team441-server
        Subject Public Key Info:
            Public Key Algorithm: rsaEncryption
                RSA Public-Key: (2048 bit)
                Modulus:
                    00:b4:aa:9a:bf:0e:95:05:35:30:f8:72:08:c2:83:
                    c0:64:cc:bc:57:1f:d7:06:58:be:2e:21:6a:19:3a:
                    d3:55:fc:49:fa:d9:00:8e:f7:74:e1:f7:a6:97:a5:
                    26:e0:2e:dc:a0:96:7f:24:df:9c:ea:88:6d:1e:f4:
                    b0:41:ab:be:3d:0d:e6:b7:fc:df:fe:c6:15:51:60:
                    74:11:ac:0f:46:23:1e:17:95:83:dc:59:5e:a1:72:
                    fa:01:75:e0:01:f5:4c:0d:66:9f:5e:42:24:c1:47:
                    37:fd:93:b4:45:3b:dd:5e:ce:dd:70:3a:3a:df:fd:
                    76:22:a8:07:e3:52:4c:62:47:23:72:64:81:2e:f5:
                    d8:b7:1e:18:28:c1:01:e1:3e:d6:5e:a1:32:69:a4:
                    0b:6a:5b:59:bb:9c:8b:78:9c:5a:f5:9a:97:35:ac:
                    bb:6c:ae:cc:38:47:02:0f:7d:72:21:32:ac:fe:39:
                    9f:a6:95:9e:b4:00:4a:cc:0d:60:93:8f:f2:ed:62:
                    7c:63:cf:56:cb:fd:2a:d2:7f:ce:7a:6c:45:77:5f:
                    a4:e7:8a:98:a6:be:f6:c5:ab:f3:b1:8e:9c:d4:50:
                    0f:df:d7:89:88:2c:b2:47:78:45:71:89:47:72:61:
                    73:bc:b5:d9:ea:6b:dd:33:73:11:27:5b:39:54:c7:
                    49:49
                Exponent: 65537 (0x10001)
        X509v3 extensions:
            X509v3 Basic Constraints: 
                CA:FALSE
            X509v3 Subject Key Identifier: 
                55:DB:F1:E6:B9:C1:E5:21:04:D3:AC:2A:F9:D7:DC:E7:1E:AE:53:3E
            X509v3 Authority Key Identifier: 
                keyid:1C:D9:64:56:16:32:A2:CB:86:79:05:DF:AB:23:34:65:07:13:03:B3
                DirName:/CN=team441-net
                serial:47:E4:11:86:43:9E:BD:87:2E:D5:67:DA:A7:82:E2:F1:76:46:6A:06

            X509v3 Extended Key Usage: 
                TLS Web Server Authentication
            X509v3 Key Usage: 
                Digital Signature, Key Encipherment
            X509v3 Subject Alternative Name: 
                DNS:team441-server
    Signature Algorithm: sha256WithRSAEncryption
         29:f0:cc:38:15:e2:ab:c0:e8:c9:58:b0:10:2f:e4:bf:a5:59:
         f7:0d:3c:03:bd:4c:bc:e2:9c:d3:56:c6:67:20:5d:47:04:52:
         ea:bd:ce:a3:08:bb:30:bb:f3:f3:17:c9:97:a5:88:56:a0:2b:
         7e:99:ac:6f:ce:2d:39:7a:4d:f7:c9:73:a7:ba:43:fe:55:24:
         20:ed:59:22:12:92:93:3b:d6:f9:a8:5f:2a:d3:d8:0e:83:02:
         fd:20:fe:0e:00:7d:dc:ba:94:48:74:9e:a3:2d:43:7b:04:76:
         a5:46:d9:2c:dc:df:2c:a5:75:fd:ee:b7:79:a9:f4:27:75:26:
         fe:fe:67:05:7b:d0:87:31:56:e9:b9:a9:17:a6:22:be:0c:f9:
         de:05:ae:d2:72:7f:b3:53:e9:9f:66:7d:2c:8b:8a:6a:32:4c:
         ce:63:4c:a3:e1:69:d1:83:14:79:6c:cb:13:2e:28:80:8f:ba:
         42:5f:fd:e7:64:3c:64:ed:bd:68:33:79:d5:8c:25:35:ff:85:
         53:17:d4:98:13:b6:bf:de:2c:7e:91:bd:7d:dd:1d:85:f8:d9:
         14:5c:2e:04:7d:12:6c:3a:2a:ca:bb:d1:56:bf:ab:7e:36:0d:
         19:50:10:f2:69:9a:f6:94:d0:ab:0a:bc:98:dc:1f:de:be:51:
         87:20:09:06
-----BEGIN CERTIFICATE-----
MIIDdzCCAl+gAwIBAgIQVl6fOpPgzRZZ3jh0+ogj8DANBgkqhkiG9w0BAQsFADAW
MRQwEgYDVQQDDAt0ZWFtNDQxLW5ldDAeFw0yMjA1MTgyMTE3MDNaFw0yNTA1MDIy
MTE3MDNaMBkxFzAVBgNVBAMMDnRlYW00NDEtc2VydmVyMIIBIjANBgkqhkiG9w0B
AQEFAAOCAQ8AMIIBCgKCAQEAtKqavw6VBTUw+HIIwoPAZMy8Vx/XBli+LiFqGTrT
VfxJ+tkAjvd04feml6Um4C7coJZ/JN+c6ohtHvSwQau+PQ3mt/zf/sYVUWB0EawP
RiMeF5WD3FleoXL6AXXgAfVMDWafXkIkwUc3/ZO0RTvdXs7dcDo63/12IqgH41JM
YkcjcmSBLvXYtx4YKMEB4T7WXqEyaaQLaltZu5yLeJxa9ZqXNay7bK7MOEcCD31y
ITKs/jmfppWetABKzA1gk4/y7WJ8Y89Wy/0q0n/OemxFd1+k54qYpr72xavzsY6c
1FAP39eJiCyyR3hFcYlHcmFzvLXZ6mvdM3MRJ1s5VMdJSQIDAQABo4G9MIG6MAkG
A1UdEwQCMAAwHQYDVR0OBBYEFFXb8ea5weUhBNOsKvnX3OcerlM+MFEGA1UdIwRK
MEiAFBzZZFYWMqLLhnkF36sjNGUHEwOzoRqkGDAWMRQwEgYDVQQDDAt0ZWFtNDQx
LW5ldIIUR+QRhkOevYcu1Wfap4Li8XZGagYwEwYDVR0lBAwwCgYIKwYBBQUHAwEw
CwYDVR0PBAQDAgWgMBkGA1UdEQQSMBCCDnRlYW00NDEtc2VydmVyMA0GCSqGSIb3
DQEBCwUAA4IBAQAp8Mw4FeKrwOjJWLAQL+S/pVn3DTwDvUy84pzTVsZnIF1HBFLq
vc6jCLswu/PzF8mXpYhWoCt+maxvzi05ek33yXOnukP+VSQg7VkiEpKTO9b5qF8q
09gOgwL9IP4OAH3cupRIdJ6jLUN7BHalRtks3N8spXX97rd5qfQndSb+/mcFe9CH
MVbpuakXpiK+DPneBa7Scn+zU+mfZn0si4pqMkzOY0yj4WnRgxR5bMsTLiiAj7pC
X/3nZDxk7b1oM3nVjCU1/4VTF9SYE7a/3ix+kb193R2F+NkUXC4EfRJsOirKu9FW
v6t+Ng0ZUBDyaZr2lNCrCryY3B/evlGHIAkG
-----END CERTIFICATE-----
