Certificate:
    Data:
        Version: 3 (0x2)
        Serial Number:
            be:80:e0:b1:58:54:7a:ac:67:16:d0:1f:b3:d8:f1:fc
        Signature Algorithm: sha256WithRSAEncryption
        Issuer: CN=team441-net
        Validity
            Not Before: May 18 21:17:02 2022 GMT
            Not After : May  2 21:17:02 2025 GMT
        Subject: CN=team441-client
        Subject Public Key Info:
            Public Key Algorithm: rsaEncryption
                RSA Public-Key: (2048 bit)
                Modulus:
                    00:ab:3c:31:fc:4b:3e:31:58:42:f9:f2:78:c1:b6:
                    ff:8d:28:b3:68:70:31:bf:4c:31:b3:6e:fb:e1:d6:
                    07:ae:05:c3:05:10:5a:d8:7b:86:d2:57:6c:3b:70:
                    81:6d:d3:ef:7b:f3:4d:f7:0e:f2:40:96:5e:11:f3:
                    8a:f3:16:a6:86:31:fe:1d:2a:e2:f8:8c:55:cc:48:
                    14:68:b5:bb:6d:ff:f2:3d:81:90:f8:22:4c:66:a4:
                    7f:c8:70:d6:c8:25:fb:e5:35:5c:24:44:cf:86:a3:
                    b6:b5:3e:ee:d1:9d:b4:f7:9d:37:ee:96:e3:4a:b5:
                    c4:57:52:d3:46:fe:74:3d:1c:4b:55:28:2d:ad:6c:
                    70:fb:a9:27:56:10:19:0e:96:5a:64:99:5d:fb:8f:
                    43:9e:ad:6e:1e:ed:74:46:68:6b:5a:22:44:b5:57:
                    4c:a5:4a:21:ac:40:48:38:87:fb:56:74:47:9b:0a:
                    4d:73:f5:cf:04:12:3e:c5:68:73:db:fe:0d:c0:e5:
                    88:ab:c0:98:78:7d:ef:9d:52:9c:81:d8:ee:cc:a7:
                    71:84:44:02:85:80:85:45:55:bb:6a:af:88:f6:57:
                    31:84:78:56:b7:63:1d:58:b0:92:2f:3f:1e:c6:13:
                    74:a1:95:14:e3:63:4e:73:93:a2:c0:7b:99:d6:bc:
                    f1:23
                Exponent: 65537 (0x10001)
        X509v3 extensions:
            X509v3 Basic Constraints: 
                CA:FALSE
            X509v3 Subject Key Identifier: 
                A8:BF:D3:3B:9F:52:79:14:17:30:5B:30:9C:94:5E:EA:13:E8:8D:E5
            X509v3 Authority Key Identifier: 
                keyid:1C:D9:64:56:16:32:A2:CB:86:79:05:DF:AB:23:34:65:07:13:03:B3
                DirName:/CN=team441-net
                serial:47:E4:11:86:43:9E:BD:87:2E:D5:67:DA:A7:82:E2:F1:76:46:6A:06

            X509v3 Extended Key Usage: 
                TLS Web Client Authentication
            X509v3 Key Usage: 
                Digital Signature
    Signature Algorithm: sha256WithRSAEncryption
         61:ad:c1:e4:24:d0:4d:7c:b1:e7:f6:95:fe:61:98:b4:7e:2e:
         61:b5:92:ed:0d:92:cf:82:d4:b0:76:57:a3:38:fe:48:52:98:
         b2:f6:33:fa:dd:d4:b0:f6:d5:0c:57:85:cd:dc:6f:93:4b:e2:
         b0:2f:c0:fd:1f:55:90:c4:7a:c5:96:2c:a5:94:52:26:01:d3:
         2c:de:62:13:1e:14:0e:02:df:36:20:e3:69:3c:a5:af:b6:be:
         0b:00:c4:f7:c9:d8:d8:ff:02:c1:bc:b3:68:8f:cf:92:6f:fd:
         9a:1a:c1:0b:9d:7e:c3:9e:a5:bf:15:a8:e2:30:05:ee:09:ae:
         1f:28:2f:31:c6:b2:e8:b2:19:9f:94:4e:b3:38:07:cc:26:bf:
         75:90:50:4d:c2:c8:dd:4c:b5:35:78:69:21:07:3e:a2:97:5d:
         b9:a5:62:6e:0d:74:5d:50:c1:4a:07:b5:01:51:db:e8:02:d3:
         a2:95:aa:d3:19:5a:f0:94:f9:2b:ae:9b:e7:3e:a2:4d:01:08:
         10:1a:b2:f2:6e:36:b2:f8:f9:b0:1e:12:ad:d4:a6:a3:6f:66:
         28:26:49:c5:f5:e4:41:e4:a7:36:e0:38:48:5a:44:c3:4a:b6:
         0b:d7:0c:17:af:9d:23:3b:ad:9f:a8:27:96:f6:fd:0c:b3:a7:
         bd:b3:0c:b9
-----BEGIN CERTIFICATE-----
MIIDXTCCAkWgAwIBAgIRAL6A4LFYVHqsZxbQH7PY8fwwDQYJKoZIhvcNAQELBQAw
FjEUMBIGA1UEAwwLdGVhbTQ0MS1uZXQwHhcNMjIwNTE4MjExNzAyWhcNMjUwNTAy
MjExNzAyWjAZMRcwFQYDVQQDDA50ZWFtNDQxLWNsaWVudDCCASIwDQYJKoZIhvcN
AQEBBQADggEPADCCAQoCggEBAKs8MfxLPjFYQvnyeMG2/40os2hwMb9MMbNu++HW
B64FwwUQWth7htJXbDtwgW3T73vzTfcO8kCWXhHzivMWpoYx/h0q4viMVcxIFGi1
u23/8j2BkPgiTGakf8hw1sgl++U1XCREz4ajtrU+7tGdtPedN+6W40q1xFdS00b+
dD0cS1UoLa1scPupJ1YQGQ6WWmSZXfuPQ56tbh7tdEZoa1oiRLVXTKVKIaxASDiH
+1Z0R5sKTXP1zwQSPsVoc9v+DcDliKvAmHh9751SnIHY7syncYREAoWAhUVVu2qv
iPZXMYR4VrdjHViwki8/HsYTdKGVFONjTnOTosB7mda88SMCAwEAAaOBojCBnzAJ
BgNVHRMEAjAAMB0GA1UdDgQWBBSov9M7n1J5FBcwWzCclF7qE+iN5TBRBgNVHSME
SjBIgBQc2WRWFjKiy4Z5Bd+rIzRlBxMDs6EapBgwFjEUMBIGA1UEAwwLdGVhbTQ0
MS1uZXSCFEfkEYZDnr2HLtVn2qeC4vF2RmoGMBMGA1UdJQQMMAoGCCsGAQUFBwMC
MAsGA1UdDwQEAwIHgDANBgkqhkiG9w0BAQsFAAOCAQEAYa3B5CTQTXyx5/aV/mGY
tH4uYbWS7Q2Sz4LUsHZXozj+SFKYsvYz+t3UsPbVDFeFzdxvk0visC/A/R9VkMR6
xZYspZRSJgHTLN5iEx4UDgLfNiDjaTylr7a+CwDE98nY2P8CwbyzaI/Pkm/9mhrB
C51+w56lvxWo4jAF7gmuHygvMcay6LIZn5ROszgHzCa/dZBQTcLI3Uy1NXhpIQc+
opdduaVibg10XVDBSge1AVHb6ALTopWq0xla8JT5K66b5z6iTQEIEBqy8m42svj5
sB4SrdSmo29mKCZJxfXkQeSnNuA4SFpEw0q2C9cMF6+dIzutn6gnlvb9DLOnvbMM
uQ==
-----END CERTIFICATE-----
