Certificate:
    Data:
        Version: 3 (0x2)
        Serial Number:
            29:ec:c6:bb:65:21:cc:2d:f9:67:88:2e:e6:2f:6b:42
        Signature Algorithm: sha256WithRSAEncryption
        Issuer: CN=team127-net
        Validity
            Not Before: May 18 15:06:17 2022 GMT
            Not After : May  2 15:06:17 2025 GMT
        Subject: CN=team127-server
        Subject Public Key Info:
            Public Key Algorithm: rsaEncryption
                RSA Public-Key: (2048 bit)
                Modulus:
                    00:cc:f8:8b:94:22:7d:7a:5c:a2:47:30:16:18:8a:
                    ef:5e:a7:fc:4b:a0:16:1a:0a:4a:f1:20:2a:0b:cf:
                    6f:d0:50:6d:09:4d:74:21:18:ca:64:07:03:2e:2f:
                    d1:68:a8:e5:30:18:85:e2:cb:14:d3:95:cf:b0:58:
                    3a:54:36:27:d2:b6:07:91:3c:ca:f5:cd:ab:20:c6:
                    1b:d1:a6:a9:98:79:e2:f6:90:0d:8e:48:c5:c3:da:
                    1a:d2:d6:3c:9d:e4:ef:53:86:8f:4f:51:6b:fe:1a:
                    77:07:d9:a4:ac:84:3c:18:f3:73:bb:38:d4:16:35:
                    df:6b:f1:1b:0a:8f:0b:8e:eb:8e:06:64:c8:e1:d8:
                    1d:bc:ba:3a:de:b9:a5:77:42:5a:c6:6f:49:0a:c1:
                    b9:6c:f9:c6:da:16:0a:dd:52:98:3b:d1:59:ed:f7:
                    85:eb:bf:da:e6:08:8e:8c:1a:02:96:42:77:fc:9b:
                    5a:67:e0:75:68:9c:97:86:7c:b3:dc:46:ea:dc:c6:
                    0e:81:19:20:8a:11:eb:fc:6e:58:f2:59:e6:b0:c7:
                    f7:91:3e:3d:a8:7e:2b:ea:2c:c8:c5:24:0a:ed:3e:
                    51:e8:2d:e5:3a:57:eb:a0:c3:9b:6c:63:0a:b7:83:
                    1e:e4:d9:27:69:c0:d0:eb:f2:5d:2d:2d:36:9d:4f:
                    61:23
                Exponent: 65537 (0x10001)
        X509v3 extensions:
            X509v3 Basic Constraints: 
                CA:FALSE
            X509v3 Subject Key Identifier: 
                4D:6F:3B:60:32:EC:73:1B:ED:FB:AD:3B:90:F8:18:DF:DF:4E:B3:1C
            X509v3 Authority Key Identifier: 
                keyid:D3:4E:E3:48:43:0A:F2:E2:36:E4:11:03:D5:98:0D:F1:04:DB:DB:C1
                DirName:/CN=team127-net
                serial:3F:98:81:BE:46:27:02:EE:B4:7E:40:1A:5E:A8:3A:F2:E9:35:0C:F8

            X509v3 Extended Key Usage: 
                TLS Web Server Authentication
            X509v3 Key Usage: 
                Digital Signature, Key Encipherment
            X509v3 Subject Alternative Name: 
                DNS:team127-server
    Signature Algorithm: sha256WithRSAEncryption
         27:db:e9:8d:f0:1a:00:9a:d2:04:16:0c:a2:7b:64:c8:4a:b2:
         87:7c:d8:bc:02:04:01:46:d3:ed:ae:cc:f3:11:e2:95:00:fe:
         b7:47:56:cd:63:21:4e:99:73:bc:6c:f1:dc:17:f3:01:f3:37:
         6a:4e:be:99:26:9e:38:e4:51:f3:b5:20:f8:85:b7:0e:bb:ea:
         ec:8a:9d:56:c4:21:eb:8a:a8:bc:37:9c:81:a0:fd:92:f6:ad:
         23:75:f2:00:df:80:19:be:be:51:32:af:33:bc:18:8c:7f:6d:
         96:60:52:dd:d3:15:ee:bf:63:5c:ab:73:90:7e:a3:b2:d1:a9:
         ea:ee:5f:52:e3:db:16:3d:a8:d0:18:ee:52:9a:6f:78:6b:37:
         02:4f:45:35:23:33:ce:9e:3b:2b:27:93:24:3e:76:8b:70:02:
         e7:d2:02:3f:91:f4:21:29:82:ca:a3:17:21:a4:8e:d1:3a:55:
         49:95:6e:5b:07:95:d9:27:61:74:e3:b7:a7:0f:70:cf:60:ee:
         56:c9:b1:17:ce:3e:f3:81:21:04:7c:e7:09:e8:e8:be:02:e1:
         81:84:21:6e:20:9a:2e:b7:64:5d:a7:2e:09:7a:89:e1:40:22:
         8c:8a:db:14:a6:ab:56:b9:ee:0f:4f:b6:9d:19:50:1d:c5:f7:
         42:fb:59:ff
-----BEGIN CERTIFICATE-----
MIIDdzCCAl+gAwIBAgIQKezGu2UhzC35Z4gu5i9rQjANBgkqhkiG9w0BAQsFADAW
MRQwEgYDVQQDDAt0ZWFtMTI3LW5ldDAeFw0yMjA1MTgxNTA2MTdaFw0yNTA1MDIx
NTA2MTdaMBkxFzAVBgNVBAMMDnRlYW0xMjctc2VydmVyMIIBIjANBgkqhkiG9w0B
AQEFAAOCAQ8AMIIBCgKCAQEAzPiLlCJ9elyiRzAWGIrvXqf8S6AWGgpK8SAqC89v
0FBtCU10IRjKZAcDLi/RaKjlMBiF4ssU05XPsFg6VDYn0rYHkTzK9c2rIMYb0aap
mHni9pANjkjFw9oa0tY8neTvU4aPT1Fr/hp3B9mkrIQ8GPNzuzjUFjXfa/EbCo8L
juuOBmTI4dgdvLo63rmld0Jaxm9JCsG5bPnG2hYK3VKYO9FZ7feF67/a5giOjBoC
lkJ3/JtaZ+B1aJyXhnyz3Ebq3MYOgRkgihHr/G5Y8lnmsMf3kT49qH4r6izIxSQK
7T5R6C3lOlfroMObbGMKt4Me5NknacDQ6/JdLS02nU9hIwIDAQABo4G9MIG6MAkG
A1UdEwQCMAAwHQYDVR0OBBYEFE1vO2Ay7HMb7futO5D4GN/fTrMcMFEGA1UdIwRK
MEiAFNNO40hDCvLiNuQRA9WYDfEE29vBoRqkGDAWMRQwEgYDVQQDDAt0ZWFtMTI3
LW5ldIIUP5iBvkYnAu60fkAaXqg68uk1DPgwEwYDVR0lBAwwCgYIKwYBBQUHAwEw
CwYDVR0PBAQDAgWgMBkGA1UdEQQSMBCCDnRlYW0xMjctc2VydmVyMA0GCSqGSIb3
DQEBCwUAA4IBAQAn2+mN8BoAmtIEFgyie2TISrKHfNi8AgQBRtPtrszzEeKVAP63
R1bNYyFOmXO8bPHcF/MB8zdqTr6ZJp445FHztSD4hbcOu+rsip1WxCHriqi8N5yB
oP2S9q0jdfIA34AZvr5RMq8zvBiMf22WYFLd0xXuv2Ncq3OQfqOy0anq7l9S49sW
PajQGO5Smm94azcCT0U1IzPOnjsrJ5MkPnaLcALn0gI/kfQhKYLKoxchpI7ROlVJ
lW5bB5XZJ2F047enD3DPYO5WybEXzj7zgSEEfOcJ6Oi+AuGBhCFuIJout2Rdpy4J
eonhQCKMitsUpqtWue4PT7adGVAdxfdC+1n/
-----END CERTIFICATE-----
