Certificate:
    Data:
        Version: 3 (0x2)
        Serial Number:
            29:97:63:5f:03:7c:c6:fb:cb:37:85:8d:e5:e6:60:a7
        Signature Algorithm: sha256WithRSAEncryption
        Issuer: CN=team219-net
        Validity
            Not Before: May 18 19:21:24 2022 GMT
            Not After : May  2 19:21:24 2025 GMT
        Subject: CN=team219-server
        Subject Public Key Info:
            Public Key Algorithm: rsaEncryption
                RSA Public-Key: (2048 bit)
                Modulus:
                    00:b4:01:a4:b6:87:d1:f1:e3:05:17:45:fb:36:ce:
                    ac:94:81:ca:93:89:a1:de:ac:9d:74:1e:1a:73:67:
                    0a:2b:6b:27:de:05:01:b3:8b:90:68:d7:36:39:3a:
                    25:ba:71:6f:05:04:61:66:b1:84:92:7f:e3:bf:0e:
                    fe:ba:4b:65:f0:bd:fe:d0:df:da:a2:0e:d1:c7:98:
                    4e:c6:0c:7e:22:3f:bd:77:93:6b:44:4f:7b:27:1f:
                    dc:13:6f:77:3f:93:40:7a:e8:e3:de:55:f5:1e:80:
                    ed:f3:60:cf:ac:1c:5b:76:a8:19:7e:7c:92:04:cf:
                    e5:74:44:e1:f5:76:fe:86:c2:e8:7d:1e:22:b5:9a:
                    12:02:b7:21:30:ad:bf:f9:85:a8:bb:a4:3b:b2:cf:
                    64:7c:54:35:80:db:b3:2e:a9:1b:85:7b:5c:b3:b9:
                    b9:4c:e5:81:c4:e6:eb:7f:a4:b0:f8:51:dd:ee:b6:
                    7c:08:59:ea:9a:11:52:4f:a4:ed:1c:06:e4:13:cc:
                    b7:94:c0:3c:7d:13:53:df:8f:c9:54:22:c9:2d:35:
                    1c:8e:69:15:f7:84:05:98:a7:30:0e:10:49:82:5d:
                    ca:3a:57:d4:81:6a:b7:96:15:37:d5:c1:5c:44:fd:
                    76:0f:cf:9c:2a:05:ae:92:b0:75:80:66:4b:75:23:
                    f8:a7
                Exponent: 65537 (0x10001)
        X509v3 extensions:
            X509v3 Basic Constraints: 
                CA:FALSE
            X509v3 Subject Key Identifier: 
                7C:5D:6E:3F:01:AA:29:F7:35:A1:05:6B:8C:75:F9:4B:BE:54:32:7E
            X509v3 Authority Key Identifier: 
                keyid:78:4D:2D:A7:BE:7C:4D:A5:53:73:6C:D4:F8:B1:78:B9:FD:35:83:9E
                DirName:/CN=team219-net
                serial:4B:A9:FF:EF:27:4B:0D:6A:51:BB:74:96:25:44:A7:9C:2D:92:93:A1

            X509v3 Extended Key Usage: 
                TLS Web Server Authentication
            X509v3 Key Usage: 
                Digital Signature, Key Encipherment
            X509v3 Subject Alternative Name: 
                DNS:team219-server
    Signature Algorithm: sha256WithRSAEncryption
         5a:cd:06:16:fc:b5:6f:1e:00:bd:6f:64:b4:6e:9e:70:23:9a:
         c0:31:73:67:5b:6f:a6:3b:4d:d4:a5:8b:3f:8c:6d:b2:09:a2:
         21:8a:d9:2f:53:be:8a:74:76:8b:bd:10:c4:3e:22:29:b3:56:
         5b:80:db:54:33:a4:52:bf:fa:f9:56:0b:26:8f:0c:a4:44:ad:
         c8:7f:b0:f1:0c:40:4a:27:c0:b4:77:ba:d7:6f:32:7a:8b:c0:
         fc:54:25:c3:36:8a:13:45:f1:cf:b3:33:e1:48:9a:7f:f6:24:
         f8:c6:36:5d:18:84:b6:76:93:02:c9:9f:4a:02:18:85:d6:7d:
         e9:49:7c:18:fd:4e:91:e4:58:74:54:ea:0d:1f:c0:f2:49:76:
         59:22:ca:5d:08:5a:d3:f7:25:f8:3b:e6:12:78:04:8a:52:06:
         79:32:63:ef:39:07:af:ec:f3:89:d7:88:6f:81:fb:e0:57:c5:
         8d:d7:ce:d4:9e:4c:9e:c6:1e:53:c0:6a:ab:55:cf:45:c5:2e:
         1d:e8:13:23:0b:2a:f7:7f:39:a4:38:2b:b5:43:b6:bf:56:1d:
         d5:f8:f0:18:44:df:e2:70:ef:7d:ed:54:a9:67:d5:c1:16:6d:
         90:a5:0f:6a:5a:e8:90:71:bc:a0:c3:5f:68:31:e7:69:33:c0:
         95:a8:f5:89
-----BEGIN CERTIFICATE-----
MIIDdzCCAl+gAwIBAgIQKZdjXwN8xvvLN4WN5eZgpzANBgkqhkiG9w0BAQsFADAW
MRQwEgYDVQQDDAt0ZWFtMjE5LW5ldDAeFw0yMjA1MTgxOTIxMjRaFw0yNTA1MDIx
OTIxMjRaMBkxFzAVBgNVBAMMDnRlYW0yMTktc2VydmVyMIIBIjANBgkqhkiG9w0B
AQEFAAOCAQ8AMIIBCgKCAQEAtAGktofR8eMFF0X7Ns6slIHKk4mh3qyddB4ac2cK
K2sn3gUBs4uQaNc2OTolunFvBQRhZrGEkn/jvw7+uktl8L3+0N/aog7Rx5hOxgx+
Ij+9d5NrRE97Jx/cE293P5NAeujj3lX1HoDt82DPrBxbdqgZfnySBM/ldETh9Xb+
hsLofR4itZoSArchMK2/+YWou6Q7ss9kfFQ1gNuzLqkbhXtcs7m5TOWBxObrf6Sw
+FHd7rZ8CFnqmhFST6TtHAbkE8y3lMA8fRNT34/JVCLJLTUcjmkV94QFmKcwDhBJ
gl3KOlfUgWq3lhU31cFcRP12D8+cKgWukrB1gGZLdSP4pwIDAQABo4G9MIG6MAkG
A1UdEwQCMAAwHQYDVR0OBBYEFHxdbj8Bqin3NaEFa4x1+Uu+VDJ+MFEGA1UdIwRK
MEiAFHhNLae+fE2lU3Ns1PixeLn9NYOeoRqkGDAWMRQwEgYDVQQDDAt0ZWFtMjE5
LW5ldIIUS6n/7ydLDWpRu3SWJUSnnC2Sk6EwEwYDVR0lBAwwCgYIKwYBBQUHAwEw
CwYDVR0PBAQDAgWgMBkGA1UdEQQSMBCCDnRlYW0yMTktc2VydmVyMA0GCSqGSIb3
DQEBCwUAA4IBAQBazQYW/LVvHgC9b2S0bp5wI5rAMXNnW2+mO03UpYs/jG2yCaIh
itkvU76KdHaLvRDEPiIps1ZbgNtUM6RSv/r5VgsmjwykRK3If7DxDEBKJ8C0d7rX
bzJ6i8D8VCXDNooTRfHPszPhSJp/9iT4xjZdGIS2dpMCyZ9KAhiF1n3pSXwY/U6R
5Fh0VOoNH8DySXZZIspdCFrT9yX4O+YSeASKUgZ5MmPvOQev7POJ14hvgfvgV8WN
187Unkyexh5TwGqrVc9FxS4d6BMjCyr3fzmkOCu1Q7a/Vh3V+PAYRN/icO997VSp
Z9XBFm2QpQ9qWuiQcbygw19oMedpM8CVqPWJ
-----END CERTIFICATE-----
