Certificate:
    Data:
        Version: 3 (0x2)
        Serial Number:
            cc:ef:54:bd:ba:26:16:08:18:cf:99:94:dc:67:41:b6
        Signature Algorithm: sha256WithRSAEncryption
        Issuer: CN=team219-net
        Validity
            Not Before: May 18 19:21:24 2022 GMT
            Not After : May  2 19:21:24 2025 GMT
        Subject: CN=team219-client
        Subject Public Key Info:
            Public Key Algorithm: rsaEncryption
                RSA Public-Key: (2048 bit)
                Modulus:
                    00:c6:91:5e:b5:b9:4d:ab:45:2e:f4:75:e2:7d:f0:
                    8d:28:e3:6e:31:ca:e7:fe:95:0e:4f:94:77:7f:d2:
                    eb:fe:2d:90:1e:cd:eb:53:b2:45:59:e8:a9:54:39:
                    fd:00:99:27:e6:c5:68:88:49:e2:a7:7e:50:10:a4:
                    64:2f:23:b1:eb:79:0d:71:ad:00:1b:5e:7d:27:6c:
                    82:54:32:93:66:5b:9a:7a:29:43:ff:84:b2:e7:d8:
                    a7:35:90:22:ee:30:75:f1:c0:3e:5c:41:a6:b7:93:
                    66:4b:a1:6b:02:7b:1c:56:82:3f:1d:43:e8:22:91:
                    4e:7e:c4:e9:54:d0:9d:8b:32:28:c0:71:7d:b1:88:
                    02:b5:b0:9d:86:65:a4:d7:e6:76:30:96:0f:dc:4b:
                    b3:7f:ee:45:2f:43:75:d6:1f:f5:04:75:a5:c9:dc:
                    f4:a5:0c:3f:eb:d7:55:c4:a3:10:ef:49:eb:ba:57:
                    d4:ab:b0:8d:d3:b4:bd:a5:64:bc:31:ec:b3:b6:fd:
                    e5:df:d4:84:5e:b2:9d:2d:8d:f5:e8:c6:de:79:bb:
                    38:40:75:9a:b7:2b:cb:d3:6d:e0:14:48:d4:f1:a3:
                    30:29:0d:2c:d1:be:72:d8:a5:cd:6b:9c:52:ae:0b:
                    3a:e4:ba:bb:e8:cb:ed:54:f5:d4:4f:b2:96:1d:3e:
                    38:2f
                Exponent: 65537 (0x10001)
        X509v3 extensions:
            X509v3 Basic Constraints: 
                CA:FALSE
            X509v3 Subject Key Identifier: 
                16:87:86:92:34:B1:08:80:70:6C:5B:C0:CB:E4:06:B5:3D:EE:9A:6A
            X509v3 Authority Key Identifier: 
                keyid:78:4D:2D:A7:BE:7C:4D:A5:53:73:6C:D4:F8:B1:78:B9:FD:35:83:9E
                DirName:/CN=team219-net
                serial:4B:A9:FF:EF:27:4B:0D:6A:51:BB:74:96:25:44:A7:9C:2D:92:93:A1

            X509v3 Extended Key Usage: 
                TLS Web Client Authentication
            X509v3 Key Usage: 
                Digital Signature
    Signature Algorithm: sha256WithRSAEncryption
         37:6b:a6:64:17:f3:45:b2:47:ed:0b:19:16:e4:e4:47:70:41:
         f9:25:fd:3e:44:04:9b:ee:31:2c:79:24:63:60:15:c6:2c:a1:
         18:60:b5:3d:71:d3:90:eb:fe:47:dc:41:08:68:68:f8:61:ec:
         c0:e8:2e:fd:15:ff:0d:42:8e:b4:00:1f:42:cd:6a:ca:a6:c0:
         6d:16:f2:52:69:cc:12:34:f7:74:79:a7:b6:9a:2e:d3:27:4d:
         4a:05:db:3b:a0:0e:4c:12:44:e0:74:4e:0d:f8:d6:20:2a:7b:
         bd:01:23:8e:51:df:38:2c:eb:b0:10:b5:98:38:dd:a4:c9:0a:
         3e:5c:68:ef:9a:5a:5f:0c:c2:84:30:f9:69:f2:e0:7f:96:5a:
         05:9a:17:75:ee:87:a2:ce:8f:16:80:3b:4a:5e:ef:5b:bb:16:
         bc:cb:d7:fb:b3:80:c3:cd:85:0b:ee:63:6c:8a:53:cc:bd:ad:
         db:08:8f:51:29:3e:c6:93:5d:dd:39:f9:95:ed:4a:9d:09:85:
         8e:be:dc:41:8b:fe:83:c9:f4:43:b3:b7:9a:44:0b:89:56:f4:
         9f:26:8a:73:d7:a6:bb:5b:ad:42:89:51:b7:dd:0a:07:e6:a8:
         13:66:fd:b5:a8:c8:bc:42:f3:2a:e9:fd:7f:91:5b:54:4b:ab:
         55:ad:1e:e6
-----BEGIN CERTIFICATE-----
MIIDXTCCAkWgAwIBAgIRAMzvVL26JhYIGM+ZlNxnQbYwDQYJKoZIhvcNAQELBQAw
FjEUMBIGA1UEAwwLdGVhbTIxOS1uZXQwHhcNMjIwNTE4MTkyMTI0WhcNMjUwNTAy
MTkyMTI0WjAZMRcwFQYDVQQDDA50ZWFtMjE5LWNsaWVudDCCASIwDQYJKoZIhvcN
AQEBBQADggEPADCCAQoCggEBAMaRXrW5TatFLvR14n3wjSjjbjHK5/6VDk+Ud3/S
6/4tkB7N61OyRVnoqVQ5/QCZJ+bFaIhJ4qd+UBCkZC8jset5DXGtABtefSdsglQy
k2ZbmnopQ/+EsufYpzWQIu4wdfHAPlxBpreTZkuhawJ7HFaCPx1D6CKRTn7E6VTQ
nYsyKMBxfbGIArWwnYZlpNfmdjCWD9xLs3/uRS9DddYf9QR1pcnc9KUMP+vXVcSj
EO9J67pX1KuwjdO0vaVkvDHss7b95d/UhF6ynS2N9ejG3nm7OEB1mrcry9Nt4BRI
1PGjMCkNLNG+ctilzWucUq4LOuS6u+jL7VT11E+ylh0+OC8CAwEAAaOBojCBnzAJ
BgNVHRMEAjAAMB0GA1UdDgQWBBQWh4aSNLEIgHBsW8DL5Aa1Pe6aajBRBgNVHSME
SjBIgBR4TS2nvnxNpVNzbNT4sXi5/TWDnqEapBgwFjEUMBIGA1UEAwwLdGVhbTIx
OS1uZXSCFEup/+8nSw1qUbt0liVEp5wtkpOhMBMGA1UdJQQMMAoGCCsGAQUFBwMC
MAsGA1UdDwQEAwIHgDANBgkqhkiG9w0BAQsFAAOCAQEAN2umZBfzRbJH7QsZFuTk
R3BB+SX9PkQEm+4xLHkkY2AVxiyhGGC1PXHTkOv+R9xBCGho+GHswOgu/RX/DUKO
tAAfQs1qyqbAbRbyUmnMEjT3dHmntpou0ydNSgXbO6AOTBJE4HRODfjWICp7vQEj
jlHfOCzrsBC1mDjdpMkKPlxo75paXwzChDD5afLgf5ZaBZoXde6Hos6PFoA7Sl7v
W7sWvMvX+7OAw82FC+5jbIpTzL2t2wiPUSk+xpNd3Tn5le1KnQmFjr7cQYv+g8n0
Q7O3mkQLiVb0nyaKc9emu1utQolRt90KB+aoE2b9tajIvELzKun9f5FbVEurVa0e
5g==
-----END CERTIFICATE-----
