Certificate:
    Data:
        Version: 3 (0x2)
        Serial Number:
            48:fd:4a:ed:1d:8f:b5:52:3b:00:d6:a0:4f:3e:94:af
        Signature Algorithm: sha256WithRSAEncryption
        Issuer: CN=team373-net
        Validity
            Not Before: May 18 20:50:22 2022 GMT
            Not After : May  2 20:50:22 2025 GMT
        Subject: CN=team373-server
        Subject Public Key Info:
            Public Key Algorithm: rsaEncryption
                RSA Public-Key: (2048 bit)
                Modulus:
                    00:ea:7a:34:00:6e:9d:b7:c2:a5:4f:65:80:ce:cd:
                    30:3c:6c:05:9f:31:0a:83:27:ae:88:6a:aa:6d:6b:
                    42:a6:39:06:63:ac:b0:99:ae:6e:df:4a:db:93:37:
                    45:52:0f:b3:78:43:e8:2f:35:d9:6b:18:18:c6:07:
                    79:a1:0f:21:86:bc:bd:fe:a3:0a:bd:74:45:a4:ee:
                    19:bd:ac:ea:20:bd:d7:8e:5b:24:1d:af:0c:0a:f5:
                    28:43:09:20:0e:8e:0a:aa:ef:6b:b6:6d:43:d9:96:
                    7c:a2:a5:0a:e4:42:bf:2a:cb:28:e5:3c:9f:33:05:
                    67:ce:6f:0e:d6:8b:82:33:96:ae:dd:ac:90:dd:d6:
                    18:de:63:71:e8:c2:34:38:0b:e7:16:9a:12:a7:01:
                    3b:6e:53:13:69:4a:53:67:a1:63:33:65:a3:e9:ec:
                    96:b8:00:db:0d:f5:72:a9:12:4a:8d:45:e7:f7:47:
                    ce:10:71:af:b7:20:e2:4e:d4:92:b6:78:47:17:c8:
                    4a:f9:2d:db:a1:78:8c:f7:13:4b:62:b9:e7:3b:f8:
                    b1:15:e6:2c:73:ad:93:28:e0:4b:5e:62:e8:a6:34:
                    fc:f5:67:76:27:71:f8:ae:6d:b9:33:05:21:3e:ab:
                    f4:3e:11:fe:fc:f0:4c:5c:32:4b:06:0b:2c:74:c4:
                    91:21
                Exponent: 65537 (0x10001)
        X509v3 extensions:
            X509v3 Basic Constraints: 
                CA:FALSE
            X509v3 Subject Key Identifier: 
                20:BB:36:57:85:29:CA:EC:C7:69:FC:9B:78:74:3A:BD:66:E2:6B:69
            X509v3 Authority Key Identifier: 
                keyid:DA:F1:EC:F0:D3:FB:83:6F:78:9F:C0:8B:6B:0B:11:96:75:06:EF:E1
                DirName:/CN=team373-net
                serial:60:07:F0:64:6E:23:DF:8B:3A:EB:08:48:22:2B:17:8C:E4:BD:46:4A

            X509v3 Extended Key Usage: 
                TLS Web Server Authentication
            X509v3 Key Usage: 
                Digital Signature, Key Encipherment
            X509v3 Subject Alternative Name: 
                DNS:team373-server
    Signature Algorithm: sha256WithRSAEncryption
         55:c3:05:0c:fa:14:d5:2f:f3:8f:4b:4c:c8:37:f4:75:46:f0:
         6e:b0:c0:1f:90:74:bb:e7:fa:46:bc:d6:4e:93:65:1d:ff:39:
         8c:b4:fc:fd:d9:96:b8:f4:f6:05:f7:e7:72:80:2c:07:8b:45:
         4f:79:85:27:bb:fa:93:0d:a0:70:07:1d:9b:dc:7a:fb:e0:9e:
         d3:26:9f:e0:42:ce:ee:6d:24:31:40:30:ab:a1:c0:51:98:44:
         7c:d1:6f:10:f5:ff:75:b2:13:8f:73:d3:d7:ec:d1:b9:ff:14:
         0d:85:67:3e:50:a5:0f:b1:27:8c:7b:f2:fc:d6:4a:eb:e4:fc:
         19:d6:12:49:5d:e7:45:76:42:7b:04:45:f3:3c:b0:a6:69:35:
         62:db:eb:51:8b:5b:92:ca:bc:9d:0f:41:7a:ff:0a:3b:3c:98:
         4f:07:76:2e:c0:76:56:bd:2e:77:0f:4f:87:ba:91:5b:22:de:
         f1:7e:09:87:18:6b:1b:ca:7a:9c:e6:bb:df:28:01:cd:eb:e7:
         01:89:77:9d:f4:72:13:8c:78:a3:ed:d8:91:56:de:90:3a:fb:
         54:f6:05:ae:e7:e5:89:86:c1:ec:24:d7:ac:13:0f:74:89:fd:
         c4:0e:0c:82:5d:8c:7f:be:b4:93:7e:7a:13:55:93:1a:50:85:
         7a:61:1c:27
-----BEGIN CERTIFICATE-----
MIIDdzCCAl+gAwIBAgIQSP1K7R2PtVI7ANagTz6UrzANBgkqhkiG9w0BAQsFADAW
MRQwEgYDVQQDDAt0ZWFtMzczLW5ldDAeFw0yMjA1MTgyMDUwMjJaFw0yNTA1MDIy
MDUwMjJaMBkxFzAVBgNVBAMMDnRlYW0zNzMtc2VydmVyMIIBIjANBgkqhkiG9w0B
AQEFAAOCAQ8AMIIBCgKCAQEA6no0AG6dt8KlT2WAzs0wPGwFnzEKgyeuiGqqbWtC
pjkGY6ywma5u30rbkzdFUg+zeEPoLzXZaxgYxgd5oQ8hhry9/qMKvXRFpO4Zvazq
IL3XjlskHa8MCvUoQwkgDo4Kqu9rtm1D2ZZ8oqUK5EK/Ksso5TyfMwVnzm8O1ouC
M5au3ayQ3dYY3mNx6MI0OAvnFpoSpwE7blMTaUpTZ6FjM2Wj6eyWuADbDfVyqRJK
jUXn90fOEHGvtyDiTtSStnhHF8hK+S3boXiM9xNLYrnnO/ixFeYsc62TKOBLXmLo
pjT89Wd2J3H4rm25MwUhPqv0PhH+/PBMXDJLBgssdMSRIQIDAQABo4G9MIG6MAkG
A1UdEwQCMAAwHQYDVR0OBBYEFCC7NleFKcrsx2n8m3h0Or1m4mtpMFEGA1UdIwRK
MEiAFNrx7PDT+4NveJ/Ai2sLEZZ1Bu/hoRqkGDAWMRQwEgYDVQQDDAt0ZWFtMzcz
LW5ldIIUYAfwZG4j34s66whIIisXjOS9RkowEwYDVR0lBAwwCgYIKwYBBQUHAwEw
CwYDVR0PBAQDAgWgMBkGA1UdEQQSMBCCDnRlYW0zNzMtc2VydmVyMA0GCSqGSIb3
DQEBCwUAA4IBAQBVwwUM+hTVL/OPS0zIN/R1RvBusMAfkHS75/pGvNZOk2Ud/zmM
tPz92Za49PYF9+dygCwHi0VPeYUnu/qTDaBwBx2b3Hr74J7TJp/gQs7ubSQxQDCr
ocBRmER80W8Q9f91shOPc9PX7NG5/xQNhWc+UKUPsSeMe/L81krr5PwZ1hJJXedF
dkJ7BEXzPLCmaTVi2+tRi1uSyrydD0F6/wo7PJhPB3YuwHZWvS53D0+HupFbIt7x
fgmHGGsbynqc5rvfKAHN6+cBiXed9HITjHij7diRVt6QOvtU9gWu5+WJhsHsJNes
Ew90if3EDgyCXYx/vrSTfnoTVZMaUIV6YRwn
-----END CERTIFICATE-----
