Certificate:
    Data:
        Version: 3 (0x2)
        Serial Number:
            fc:aa:f4:00:1d:ee:d9:0d:4c:23:73:ed:ac:3f:08:99
        Signature Algorithm: sha256WithRSAEncryption
        Issuer: CN=team358-net
        Validity
            Not Before: May 18 20:33:46 2022 GMT
            Not After : May  2 20:33:46 2025 GMT
        Subject: CN=team358-server
        Subject Public Key Info:
            Public Key Algorithm: rsaEncryption
                RSA Public-Key: (2048 bit)
                Modulus:
                    00:9f:e4:5a:c5:35:10:fb:f8:29:10:6e:95:5d:17:
                    e6:79:74:20:7d:eb:4b:7d:79:e8:21:69:c0:d7:e6:
                    69:91:7b:01:9f:9e:db:9d:18:22:3b:60:32:3d:de:
                    7a:12:b2:31:8a:d4:f5:8e:d1:bf:3c:d3:e6:19:6b:
                    79:49:92:7e:8f:c1:e1:3a:6a:7b:d1:3e:6c:7d:f8:
                    a4:f5:9e:b3:2a:15:00:fd:75:f9:c0:6e:59:56:ca:
                    a8:79:95:71:8f:24:cf:f4:6d:19:f3:94:15:50:dd:
                    2e:4f:1f:90:99:c9:e7:be:bb:86:9d:97:18:6d:85:
                    0b:ab:89:0b:29:b9:b0:35:a8:4a:e0:24:7b:52:3a:
                    1a:0d:c2:20:20:ec:82:ab:fc:6d:e2:18:db:a6:61:
                    7c:ab:f2:bb:69:a2:9f:84:53:db:42:fb:ba:f1:d6:
                    f3:89:e6:c1:84:34:a8:23:7f:2c:5f:7d:4a:38:24:
                    2d:6c:10:57:d7:fb:51:fa:74:b9:84:4d:8e:76:33:
                    7e:16:e1:fe:f7:d1:99:9b:88:23:54:b8:9f:b9:07:
                    e4:a3:0e:61:11:1a:8a:f6:26:eb:e6:d5:6c:4a:ae:
                    ab:de:dd:ba:2e:d9:c5:57:f7:87:ea:8f:da:de:84:
                    56:bd:40:cd:2b:ba:40:0a:21:48:be:0f:f4:27:48:
                    c6:57
                Exponent: 65537 (0x10001)
        X509v3 extensions:
            X509v3 Basic Constraints: 
                CA:FALSE
            X509v3 Subject Key Identifier: 
                74:43:23:82:28:1C:B2:2C:7A:8E:6E:40:17:8F:2C:7E:3D:0A:5A:F0
            X509v3 Authority Key Identifier: 
                keyid:1A:60:C6:DE:14:31:BE:6E:18:7E:91:F3:D4:C4:AE:0E:08:AB:53:A5
                DirName:/CN=team358-net
                serial:78:4D:9A:3C:05:EE:E9:C6:19:38:0F:5B:80:48:00:0C:A6:C5:BF:01

            X509v3 Extended Key Usage: 
                TLS Web Server Authentication
            X509v3 Key Usage: 
                Digital Signature, Key Encipherment
            X509v3 Subject Alternative Name: 
                DNS:team358-server
    Signature Algorithm: sha256WithRSAEncryption
         5e:14:4d:c1:b4:3a:72:cc:3e:16:fc:61:a2:0d:46:68:15:de:
         a1:96:9a:0f:08:c1:38:88:19:d6:40:a5:5a:21:60:b8:f9:d2:
         66:e2:48:3c:0a:09:64:af:8e:1c:37:7f:ed:6f:d2:b2:57:b9:
         4f:3d:f0:c5:cf:1a:cd:97:7b:7b:a2:dd:d6:07:71:43:01:3e:
         ae:dd:6d:d6:3a:d0:ec:8f:a2:3a:70:bc:c1:98:d2:28:e0:f7:
         a9:80:b2:27:83:8a:db:17:41:c9:d1:be:6f:fb:52:53:f5:b7:
         3c:fc:29:ab:2b:d4:c7:da:c2:a2:cf:2b:64:69:85:f1:ba:86:
         73:25:37:ea:ba:4c:7e:1e:ca:bf:f8:57:99:81:95:7b:3c:0c:
         a7:91:58:a7:fa:95:54:52:c3:9b:4f:3a:58:d3:a3:ef:20:98:
         4b:5b:23:95:f0:19:fe:25:ec:04:9b:f4:76:e3:c2:39:58:30:
         1c:7e:73:d3:c5:40:52:fd:e8:95:bb:f6:26:31:2c:42:76:6d:
         95:10:38:7f:f4:22:e7:a5:44:e8:d0:f5:0c:ae:9c:d2:10:17:
         80:5e:94:97:ff:37:58:bf:50:ed:cd:ce:f2:83:76:c6:7e:a6:
         25:bd:cb:68:56:22:c3:2d:67:2a:66:51:e4:90:1b:cb:5b:d1:
         bc:51:a5:ef
-----BEGIN CERTIFICATE-----
MIIDeDCCAmCgAwIBAgIRAPyq9AAd7tkNTCNz7aw/CJkwDQYJKoZIhvcNAQELBQAw
FjEUMBIGA1UEAwwLdGVhbTM1OC1uZXQwHhcNMjIwNTE4MjAzMzQ2WhcNMjUwNTAy
MjAzMzQ2WjAZMRcwFQYDVQQDDA50ZWFtMzU4LXNlcnZlcjCCASIwDQYJKoZIhvcN
AQEBBQADggEPADCCAQoCggEBAJ/kWsU1EPv4KRBulV0X5nl0IH3rS3156CFpwNfm
aZF7AZ+e250YIjtgMj3eehKyMYrU9Y7RvzzT5hlreUmSfo/B4Tpqe9E+bH34pPWe
syoVAP11+cBuWVbKqHmVcY8kz/RtGfOUFVDdLk8fkJnJ5767hp2XGG2FC6uJCym5
sDWoSuAke1I6Gg3CICDsgqv8beIY26ZhfKvyu2min4RT20L7uvHW84nmwYQ0qCN/
LF99SjgkLWwQV9f7Ufp0uYRNjnYzfhbh/vfRmZuII1S4n7kH5KMOYREaivYm6+bV
bEquq97dui7ZxVf3h+qP2t6EVr1AzSu6QAohSL4P9CdIxlcCAwEAAaOBvTCBujAJ
BgNVHRMEAjAAMB0GA1UdDgQWBBR0QyOCKByyLHqObkAXjyx+PQpa8DBRBgNVHSME
SjBIgBQaYMbeFDG+bhh+kfPUxK4OCKtTpaEapBgwFjEUMBIGA1UEAwwLdGVhbTM1
OC1uZXSCFHhNmjwF7unGGTgPW4BIAAymxb8BMBMGA1UdJQQMMAoGCCsGAQUFBwMB
MAsGA1UdDwQEAwIFoDAZBgNVHREEEjAQgg50ZWFtMzU4LXNlcnZlcjANBgkqhkiG
9w0BAQsFAAOCAQEAXhRNwbQ6csw+Fvxhog1GaBXeoZaaDwjBOIgZ1kClWiFguPnS
ZuJIPAoJZK+OHDd/7W/Ssle5Tz3wxc8azZd7e6Ld1gdxQwE+rt1t1jrQ7I+iOnC8
wZjSKOD3qYCyJ4OK2xdBydG+b/tSU/W3PPwpqyvUx9rCos8rZGmF8bqGcyU36rpM
fh7Kv/hXmYGVezwMp5FYp/qVVFLDm086WNOj7yCYS1sjlfAZ/iXsBJv0duPCOVgw
HH5z08VAUv3olbv2JjEsQnZtlRA4f/Qi56VE6ND1DK6c0hAXgF6Ul/83WL9Q7c3O
8oN2xn6mJb3LaFYiwy1nKmZR5JAby1vRvFGl7w==
-----END CERTIFICATE-----
