Certificate:
    Data:
        Version: 3 (0x2)
        Serial Number:
            82:13:24:88:01:e7:be:61:50:a9:d7:13:a1:26:59:a9
        Signature Algorithm: sha256WithRSAEncryption
        Issuer: CN=team481-net
        Validity
            Not Before: May 18 21:33:27 2022 GMT
            Not After : May  2 21:33:27 2025 GMT
        Subject: CN=team481-client
        Subject Public Key Info:
            Public Key Algorithm: rsaEncryption
                RSA Public-Key: (2048 bit)
                Modulus:
                    00:a1:fd:3b:b9:e1:de:b3:3d:24:83:2f:d9:d5:71:
                    f7:d6:44:e7:5b:70:8c:15:ae:b6:5a:cf:ff:26:90:
                    73:38:c8:a0:bb:cc:85:b4:22:78:92:fb:7d:ac:8d:
                    62:cd:df:0f:e8:0a:5f:5f:57:d3:a7:9c:30:20:0a:
                    f8:d0:c7:78:4b:6e:45:85:62:83:71:bf:c1:3c:3e:
                    c6:9c:b2:93:d9:c9:b7:5f:59:96:84:3c:fb:6f:f3:
                    7e:38:eb:91:17:87:1d:86:43:44:c4:f6:50:bf:54:
                    86:24:01:ef:f3:82:75:34:99:42:52:03:3e:d4:1a:
                    0c:5e:17:d7:8a:56:9f:b3:6d:10:55:0a:b1:9f:c4:
                    35:0a:13:31:e4:2b:71:3e:83:9f:5e:15:b3:2d:9b:
                    5a:29:d3:d9:ce:4f:e6:d7:76:68:a3:fd:6a:aa:bc:
                    1c:18:66:c9:03:a4:f6:62:0d:35:68:6c:dc:71:05:
                    86:78:19:b1:0b:be:20:a4:ae:03:c6:95:0a:1c:5f:
                    f1:61:7f:fb:bc:6b:14:e7:d9:fd:38:26:b4:c1:d2:
                    3c:d1:e2:e3:5a:71:80:a1:99:f8:3a:f4:ee:bd:d4:
                    51:2d:7f:e7:31:1f:8a:07:73:ef:ae:45:7a:29:7b:
                    ce:f2:ec:ae:91:34:c2:18:f1:ac:41:a2:1b:b5:ab:
                    e9:d5
                Exponent: 65537 (0x10001)
        X509v3 extensions:
            X509v3 Basic Constraints: 
                CA:FALSE
            X509v3 Subject Key Identifier: 
                4C:3D:9D:FC:D2:2E:3E:58:A6:33:C8:70:1D:66:F0:80:F1:15:A4:D3
            X509v3 Authority Key Identifier: 
                keyid:47:A2:A2:B6:42:90:20:2E:52:D1:D2:E4:6B:C3:A8:FE:CC:7D:2D:25
                DirName:/CN=team481-net
                serial:56:87:5B:2A:32:D9:10:BC:20:E9:BD:5F:B7:45:11:36:C0:E2:B4:78

            X509v3 Extended Key Usage: 
                TLS Web Client Authentication
            X509v3 Key Usage: 
                Digital Signature
    Signature Algorithm: sha256WithRSAEncryption
         9d:81:c5:c2:a1:16:f9:b8:f7:c1:80:ea:3d:d8:82:34:1e:8f:
         58:f8:13:01:6a:0f:ad:9a:df:02:82:47:70:a8:bf:4f:ed:cc:
         58:22:05:87:13:55:dc:a2:3f:5b:b1:76:1a:6d:40:73:0c:0a:
         e7:33:9b:83:ae:82:82:15:9d:70:16:11:ec:f1:20:3d:78:61:
         f4:3a:75:e1:e5:14:a5:f3:69:46:dd:10:c3:aa:40:e0:5e:ad:
         fa:2d:bf:9f:95:ec:c7:53:24:d6:55:2d:88:b4:9a:89:59:34:
         9a:f3:48:c4:b6:57:40:be:c0:b9:d9:db:e5:d9:f0:c1:84:60:
         f3:be:a9:8b:15:60:89:4f:1c:94:88:5b:d8:14:6e:a8:54:ba:
         2b:38:de:c7:03:59:35:63:3c:5e:8b:eb:d3:3d:29:cf:4b:63:
         d0:52:d1:b6:fb:e1:eb:c4:dc:29:5d:ac:a6:90:01:79:cf:29:
         07:8b:26:8a:78:e3:46:c0:9c:28:11:b8:ae:6e:28:80:71:65:
         fe:1b:36:1a:e5:e8:4f:36:83:93:92:8c:c6:f6:66:c9:3a:e3:
         d8:97:91:02:cd:8b:42:b8:38:aa:2c:68:54:80:cc:1c:c1:01:
         06:35:5e:60:05:48:90:1d:60:6e:97:1b:ef:a3:9f:ab:0d:11:
         40:57:ad:6f
-----BEGIN CERTIFICATE-----
MIIDXTCCAkWgAwIBAgIRAIITJIgB575hUKnXE6EmWakwDQYJKoZIhvcNAQELBQAw
FjEUMBIGA1UEAwwLdGVhbTQ4MS1uZXQwHhcNMjIwNTE4MjEzMzI3WhcNMjUwNTAy
MjEzMzI3WjAZMRcwFQYDVQQDDA50ZWFtNDgxLWNsaWVudDCCASIwDQYJKoZIhvcN
AQEBBQADggEPADCCAQoCggEBAKH9O7nh3rM9JIMv2dVx99ZE51twjBWutlrP/yaQ
czjIoLvMhbQieJL7fayNYs3fD+gKX19X06ecMCAK+NDHeEtuRYVig3G/wTw+xpyy
k9nJt19ZloQ8+2/zfjjrkReHHYZDRMT2UL9UhiQB7/OCdTSZQlIDPtQaDF4X14pW
n7NtEFUKsZ/ENQoTMeQrcT6Dn14Vsy2bWinT2c5P5td2aKP9aqq8HBhmyQOk9mIN
NWhs3HEFhngZsQu+IKSuA8aVChxf8WF/+7xrFOfZ/TgmtMHSPNHi41pxgKGZ+Dr0
7r3UUS1/5zEfigdz765Feil7zvLsrpE0whjxrEGiG7Wr6dUCAwEAAaOBojCBnzAJ
BgNVHRMEAjAAMB0GA1UdDgQWBBRMPZ380i4+WKYzyHAdZvCA8RWk0zBRBgNVHSME
SjBIgBRHoqK2QpAgLlLR0uRrw6j+zH0tJaEapBgwFjEUMBIGA1UEAwwLdGVhbTQ4
MS1uZXSCFFaHWyoy2RC8IOm9X7dFETbA4rR4MBMGA1UdJQQMMAoGCCsGAQUFBwMC
MAsGA1UdDwQEAwIHgDANBgkqhkiG9w0BAQsFAAOCAQEAnYHFwqEW+bj3wYDqPdiC
NB6PWPgTAWoPrZrfAoJHcKi/T+3MWCIFhxNV3KI/W7F2Gm1AcwwK5zObg66CghWd
cBYR7PEgPXhh9Dp14eUUpfNpRt0Qw6pA4F6t+i2/n5Xsx1Mk1lUtiLSaiVk0mvNI
xLZXQL7Audnb5dnwwYRg876pixVgiU8clIhb2BRuqFS6KzjexwNZNWM8Xovr0z0p
z0tj0FLRtvvh68TcKV2sppABec8pB4sminjjRsCcKBG4rm4ogHFl/hs2GuXoTzaD
k5KMxvZmyTrj2JeRAs2LQrg4qixoVIDMHMEBBjVeYAVIkB1gbpcb76Ofqw0RQFet
bw==
-----END CERTIFICATE-----
