Certificate:
    Data:
        Version: 3 (0x2)
        Serial Number:
            65:75:3c:a7:45:c6:26:f5:49:9f:13:e3:ff:2f:f5:0c
        Signature Algorithm: sha256WithRSAEncryption
        Issuer: CN=team674-net
        Validity
            Not Before: May 18 23:33:52 2022 GMT
            Not After : May  2 23:33:52 2025 GMT
        Subject: CN=team674-server
        Subject Public Key Info:
            Public Key Algorithm: rsaEncryption
                RSA Public-Key: (2048 bit)
                Modulus:
                    00:fa:4e:19:6e:57:e7:8d:c8:da:99:51:65:89:09:
                    77:c1:39:2f:d3:40:5c:52:50:5e:8b:8a:8a:f7:7d:
                    ae:ae:7e:56:ca:76:8c:f5:8e:51:26:b1:67:75:9b:
                    d0:29:ad:0c:b4:88:6f:b0:dc:fa:de:0b:6f:43:7d:
                    9c:43:45:03:94:c6:da:b6:8b:27:ac:f1:71:78:45:
                    89:8c:dd:f8:8f:ba:73:d1:92:1a:ea:46:b3:b1:85:
                    80:ca:1c:a3:ee:9d:21:8a:58:55:e3:0e:b4:50:84:
                    1d:7f:90:01:cc:ff:22:08:c8:f4:8a:16:ac:94:ae:
                    7c:34:4c:93:da:f5:a1:20:9c:d5:d1:19:bd:c8:fe:
                    f9:f9:54:90:d8:78:dd:e1:77:93:b5:85:c6:16:d1:
                    19:89:04:ae:5b:1e:c5:f7:c6:cb:0e:67:5e:9b:1f:
                    99:89:91:72:8e:f3:4a:34:93:a3:84:55:08:3c:02:
                    3b:4f:12:89:f2:3f:9f:76:0a:09:c1:20:50:ce:80:
                    2f:82:18:ba:fb:96:e4:9c:7e:09:8c:e3:31:13:46:
                    2b:32:ae:0c:67:e0:4c:c3:a3:dd:eb:85:8f:cc:ca:
                    2f:f0:c8:28:ad:78:f3:78:80:1a:64:68:d2:a2:3f:
                    89:03:fd:7a:fa:e4:56:3c:e2:37:57:20:c7:ed:df:
                    fb:9d
                Exponent: 65537 (0x10001)
        X509v3 extensions:
            X509v3 Basic Constraints: 
                CA:FALSE
            X509v3 Subject Key Identifier: 
                2E:9A:FB:F4:17:D5:2E:18:CE:62:89:A0:CE:F4:AA:C6:B8:E8:5F:2B
            X509v3 Authority Key Identifier: 
                keyid:EB:16:EE:89:4B:66:36:47:7B:C8:39:27:9B:5B:6C:D7:05:4E:93:E5
                DirName:/CN=team674-net
                serial:05:58:07:52:1F:8A:7A:F4:4C:06:DE:FA:F2:60:CF:C3:74:C3:74:08

            X509v3 Extended Key Usage: 
                TLS Web Server Authentication
            X509v3 Key Usage: 
                Digital Signature, Key Encipherment
            X509v3 Subject Alternative Name: 
                DNS:team674-server
    Signature Algorithm: sha256WithRSAEncryption
         89:b8:21:b2:5e:b8:e9:20:fd:4f:8b:08:17:d9:5f:86:f3:a5:
         99:d7:1b:fb:4d:45:07:2d:6e:43:5d:10:21:65:4d:45:52:66:
         ca:f0:ae:55:f9:7c:53:23:af:e5:72:7d:fd:ea:9e:a2:93:9c:
         ee:71:54:3b:8c:2f:f6:8c:8e:ce:26:0d:e0:c9:43:bf:d8:f5:
         5c:1d:aa:f1:57:79:cb:8b:52:13:01:ec:ed:b1:83:66:36:55:
         67:2c:d3:84:0d:3a:38:f9:0c:81:8e:ca:a8:53:f7:08:17:d5:
         6a:12:f4:74:3c:2b:56:b7:5e:e7:61:1c:c7:26:11:4b:1b:11:
         3b:da:af:d9:41:a8:96:0f:10:15:64:0b:da:d4:03:42:a7:2d:
         96:f0:ee:86:39:9f:e4:0d:1e:d8:6d:ec:60:72:c4:9c:62:3f:
         32:e6:ef:5d:01:dd:0a:80:96:8b:7f:5f:4e:54:10:39:83:c6:
         c4:48:db:92:d0:4c:7d:93:6e:02:24:95:74:8f:af:1b:8d:5e:
         66:b1:fd:42:3e:fc:57:bb:13:d3:00:3b:95:05:c9:0d:2a:8a:
         2e:37:7f:3b:b3:d6:36:bc:33:ed:bb:e8:63:e2:bf:80:cd:a3:
         74:28:5c:ab:66:ae:14:14:ef:5b:24:d2:20:d8:41:07:b3:f4:
         ef:38:c7:92
-----BEGIN CERTIFICATE-----
MIIDdzCCAl+gAwIBAgIQZXU8p0XGJvVJnxPj/y/1DDANBgkqhkiG9w0BAQsFADAW
MRQwEgYDVQQDDAt0ZWFtNjc0LW5ldDAeFw0yMjA1MTgyMzMzNTJaFw0yNTA1MDIy
MzMzNTJaMBkxFzAVBgNVBAMMDnRlYW02NzQtc2VydmVyMIIBIjANBgkqhkiG9w0B
AQEFAAOCAQ8AMIIBCgKCAQEA+k4ZblfnjcjamVFliQl3wTkv00BcUlBei4qK932u
rn5WynaM9Y5RJrFndZvQKa0MtIhvsNz63gtvQ32cQ0UDlMbatosnrPFxeEWJjN34
j7pz0ZIa6kazsYWAyhyj7p0hilhV4w60UIQdf5ABzP8iCMj0ihaslK58NEyT2vWh
IJzV0Rm9yP75+VSQ2Hjd4XeTtYXGFtEZiQSuWx7F98bLDmdemx+ZiZFyjvNKNJOj
hFUIPAI7TxKJ8j+fdgoJwSBQzoAvghi6+5bknH4JjOMxE0YrMq4MZ+BMw6Pd64WP
zMov8MgorXjzeIAaZGjSoj+JA/16+uRWPOI3VyDH7d/7nQIDAQABo4G9MIG6MAkG
A1UdEwQCMAAwHQYDVR0OBBYEFC6a+/QX1S4YzmKJoM70qsa46F8rMFEGA1UdIwRK
MEiAFOsW7olLZjZHe8g5J5tbbNcFTpPloRqkGDAWMRQwEgYDVQQDDAt0ZWFtNjc0
LW5ldIIUBVgHUh+KevRMBt768mDPw3TDdAgwEwYDVR0lBAwwCgYIKwYBBQUHAwEw
CwYDVR0PBAQDAgWgMBkGA1UdEQQSMBCCDnRlYW02NzQtc2VydmVyMA0GCSqGSIb3
DQEBCwUAA4IBAQCJuCGyXrjpIP1PiwgX2V+G86WZ1xv7TUUHLW5DXRAhZU1FUmbK
8K5V+XxTI6/lcn396p6ik5zucVQ7jC/2jI7OJg3gyUO/2PVcHarxV3nLi1ITAezt
sYNmNlVnLNOEDTo4+QyBjsqoU/cIF9VqEvR0PCtWt17nYRzHJhFLGxE72q/ZQaiW
DxAVZAva1ANCpy2W8O6GOZ/kDR7YbexgcsScYj8y5u9dAd0KgJaLf19OVBA5g8bE
SNuS0Ex9k24CJJV0j68bjV5msf1CPvxXuxPTADuVBckNKoouN387s9Y2vDPtu+hj
4r+AzaN0KFyrZq4UFO9bJNIg2EEHs/TvOMeS
-----END CERTIFICATE-----
