Certificate:
    Data:
        Version: 3 (0x2)
        Serial Number:
            9e:a2:8c:69:ec:00:4d:e0:ea:77:70:17:ab:62:60:2e
        Signature Algorithm: sha256WithRSAEncryption
        Issuer: CN=team533-net
        Validity
            Not Before: May 18 22:10:11 2022 GMT
            Not After : May  2 22:10:11 2025 GMT
        Subject: CN=team533-client
        Subject Public Key Info:
            Public Key Algorithm: rsaEncryption
                RSA Public-Key: (2048 bit)
                Modulus:
                    00:a2:64:b4:25:e0:a4:16:09:5e:8b:53:07:17:a1:
                    0f:1e:4e:bc:85:c1:fe:27:0b:45:e1:40:bd:bb:20:
                    0b:32:c7:1f:17:9f:53:07:ae:7e:d3:63:4c:eb:1b:
                    4c:86:b5:25:50:22:95:c1:fd:09:23:d3:ca:23:6c:
                    3a:5e:37:5b:7f:a8:f5:f8:d2:88:48:a1:83:06:ad:
                    55:c7:05:74:1b:90:81:8d:a8:e5:00:7f:1e:e8:ca:
                    da:9b:c8:1a:b5:54:cf:60:6d:f2:c2:28:c4:14:f8:
                    74:b3:51:58:f2:3e:a9:06:ec:c1:dd:a8:17:a8:57:
                    23:64:5e:32:40:89:e9:37:3d:15:61:9e:b8:c5:da:
                    be:00:d6:d6:40:95:28:f0:e3:5f:39:f1:03:cb:a6:
                    ae:1d:d0:f7:97:e8:b0:0d:ca:10:cc:16:72:34:2b:
                    c7:b9:49:d4:57:c6:ed:60:d6:f3:92:4f:36:0d:4c:
                    a1:df:71:50:d9:c9:bf:5f:0f:51:15:34:e8:b0:44:
                    d7:98:4c:04:99:ca:66:49:c5:fe:17:06:b4:25:5f:
                    0e:8f:b9:6f:2f:72:6b:d4:a8:7b:13:a4:4c:8c:01:
                    51:34:5b:6c:cc:a8:f3:de:43:38:c2:9e:0d:38:b1:
                    f2:20:f2:18:58:f9:97:a5:fb:bb:dc:1d:82:d9:f0:
                    cc:b5
                Exponent: 65537 (0x10001)
        X509v3 extensions:
            X509v3 Basic Constraints: 
                CA:FALSE
            X509v3 Subject Key Identifier: 
                07:7C:BE:D1:92:71:24:07:7E:6D:19:C2:05:B2:29:C7:92:8F:68:8F
            X509v3 Authority Key Identifier: 
                keyid:F3:F2:0B:92:55:B4:3C:18:79:63:3B:B5:0A:24:3E:D4:9C:3F:D7:8D
                DirName:/CN=team533-net
                serial:22:43:E8:FF:65:17:A4:89:7E:A9:CD:BA:60:F2:57:7B:AF:C8:E6:C5

            X509v3 Extended Key Usage: 
                TLS Web Client Authentication
            X509v3 Key Usage: 
                Digital Signature
    Signature Algorithm: sha256WithRSAEncryption
         90:23:91:ab:3f:0a:01:d6:f5:11:67:ab:8a:bf:c7:57:82:ef:
         7b:0a:bb:12:4f:a3:1e:33:e5:90:47:4d:3a:58:27:a5:fd:fe:
         06:19:92:b5:cb:2a:66:bf:0b:95:f1:9a:95:c3:08:11:6a:04:
         f5:d5:b9:44:31:76:0f:02:53:d8:a7:48:5f:ae:cf:c5:9a:cb:
         17:b4:e9:f5:a7:d6:3e:c2:04:00:92:05:6c:22:35:a4:40:48:
         52:fe:e3:db:e8:fa:d8:d7:49:09:f0:24:71:13:89:84:09:5f:
         ef:5d:4e:06:e0:55:b6:8c:25:b4:24:b3:3c:50:21:52:a7:40:
         9c:f1:79:e9:80:53:da:c4:49:c8:7a:f3:cc:e4:c7:78:f3:34:
         e3:9a:1f:b0:a9:42:d7:e7:4d:5f:a7:6d:da:a9:6e:be:e2:ac:
         43:5f:2f:cd:09:f0:d9:ff:61:5e:8a:ac:7a:70:4a:13:cc:04:
         9d:8d:81:d1:58:9a:5f:86:75:a8:e0:05:4b:91:7e:b7:c6:84:
         ed:81:c4:8c:32:4f:49:e4:51:84:bd:69:83:65:bb:bf:08:a7:
         0d:f9:b3:eb:4c:00:5b:15:e7:40:25:87:e5:02:1d:aa:66:e7:
         25:8a:ae:ae:93:4c:3c:dc:80:17:a6:34:77:ad:fe:2d:39:9c:
         66:7a:b7:19
-----BEGIN CERTIFICATE-----
MIIDXTCCAkWgAwIBAgIRAJ6ijGnsAE3g6ndwF6tiYC4wDQYJKoZIhvcNAQELBQAw
FjEUMBIGA1UEAwwLdGVhbTUzMy1uZXQwHhcNMjIwNTE4MjIxMDExWhcNMjUwNTAy
MjIxMDExWjAZMRcwFQYDVQQDDA50ZWFtNTMzLWNsaWVudDCCASIwDQYJKoZIhvcN
AQEBBQADggEPADCCAQoCggEBAKJktCXgpBYJXotTBxehDx5OvIXB/icLReFAvbsg
CzLHHxefUweuftNjTOsbTIa1JVAilcH9CSPTyiNsOl43W3+o9fjSiEihgwatVccF
dBuQgY2o5QB/HujK2pvIGrVUz2Bt8sIoxBT4dLNRWPI+qQbswd2oF6hXI2ReMkCJ
6Tc9FWGeuMXavgDW1kCVKPDjXznxA8umrh3Q95fosA3KEMwWcjQrx7lJ1FfG7WDW
85JPNg1Mod9xUNnJv18PURU06LBE15hMBJnKZknF/hcGtCVfDo+5by9ya9SoexOk
TIwBUTRbbMyo895DOMKeDTix8iDyGFj5l6X7u9wdgtnwzLUCAwEAAaOBojCBnzAJ
BgNVHRMEAjAAMB0GA1UdDgQWBBQHfL7RknEkB35tGcIFsinHko9ojzBRBgNVHSME
SjBIgBTz8guSVbQ8GHljO7UKJD7UnD/XjaEapBgwFjEUMBIGA1UEAwwLdGVhbTUz
My1uZXSCFCJD6P9lF6SJfqnNumDyV3uvyObFMBMGA1UdJQQMMAoGCCsGAQUFBwMC
MAsGA1UdDwQEAwIHgDANBgkqhkiG9w0BAQsFAAOCAQEAkCORqz8KAdb1EWerir/H
V4Lvewq7Ek+jHjPlkEdNOlgnpf3+BhmStcsqZr8LlfGalcMIEWoE9dW5RDF2DwJT
2KdIX67PxZrLF7Tp9afWPsIEAJIFbCI1pEBIUv7j2+j62NdJCfAkcROJhAlf711O
BuBVtowltCSzPFAhUqdAnPF56YBT2sRJyHrzzOTHePM045ofsKlC1+dNX6dt2qlu
vuKsQ18vzQnw2f9hXoqsenBKE8wEnY2B0ViaX4Z1qOAFS5F+t8aE7YHEjDJPSeRR
hL1pg2W7vwinDfmz60wAWxXnQCWH5QIdqmbnJYqurpNMPNyAF6Y0d63+LTmcZnq3
GQ==
-----END CERTIFICATE-----
