Certificate:
    Data:
        Version: 3 (0x2)
        Serial Number:
            d7:f8:ba:b1:82:16:01:f4:8d:a0:26:3c:8b:43:69:1b
        Signature Algorithm: sha256WithRSAEncryption
        Issuer: CN=team533-net
        Validity
            Not Before: May 18 22:10:12 2022 GMT
            Not After : May  2 22:10:12 2025 GMT
        Subject: CN=team533-server
        Subject Public Key Info:
            Public Key Algorithm: rsaEncryption
                RSA Public-Key: (2048 bit)
                Modulus:
                    00:d8:b8:e5:77:a1:82:63:39:41:ed:86:14:36:40:
                    7a:3a:fa:81:c3:4e:61:c3:12:2e:52:81:18:c4:d6:
                    2e:4a:7c:a6:78:2d:e8:a6:65:30:b9:46:85:9a:e0:
                    e9:97:cf:bf:5c:93:af:47:55:b2:54:10:48:9a:a4:
                    e2:7b:16:b1:71:4c:47:42:00:b5:56:b0:bf:ec:47:
                    26:fd:1f:24:d9:44:f7:53:4d:5a:7a:ac:e1:dc:29:
                    17:47:63:38:52:b8:6e:e1:1d:ee:75:4b:58:e8:5b:
                    d5:12:2b:60:f6:54:aa:a8:3e:ad:36:bc:6e:68:cb:
                    35:3c:a6:18:34:a0:28:9c:2b:e4:46:f2:05:5e:1c:
                    41:47:d7:87:db:f1:bb:42:6e:0f:97:3e:19:95:5c:
                    9d:55:1a:16:2d:80:9a:58:ec:4d:b7:6c:38:90:7b:
                    55:1a:39:27:4f:35:29:13:40:f9:e2:30:92:95:23:
                    c7:3f:f0:57:cd:7d:fd:b8:31:c9:1d:31:ab:10:55:
                    e1:80:3a:47:46:04:5f:82:4f:0d:31:e9:df:a0:38:
                    e8:fa:fb:4e:c2:53:e7:59:8f:41:c1:a7:cd:10:9e:
                    85:e9:fb:8c:57:f3:72:3b:b2:4d:3e:91:e9:20:b8:
                    e6:f8:af:6a:d0:8a:28:64:47:d6:8b:4f:9a:a9:f6:
                    b3:65
                Exponent: 65537 (0x10001)
        X509v3 extensions:
            X509v3 Basic Constraints: 
                CA:FALSE
            X509v3 Subject Key Identifier: 
                57:87:2E:1F:20:2D:29:EA:2A:7C:39:A8:26:4B:C4:53:D3:17:7E:29
            X509v3 Authority Key Identifier: 
                keyid:F3:F2:0B:92:55:B4:3C:18:79:63:3B:B5:0A:24:3E:D4:9C:3F:D7:8D
                DirName:/CN=team533-net
                serial:22:43:E8:FF:65:17:A4:89:7E:A9:CD:BA:60:F2:57:7B:AF:C8:E6:C5

            X509v3 Extended Key Usage: 
                TLS Web Server Authentication
            X509v3 Key Usage: 
                Digital Signature, Key Encipherment
            X509v3 Subject Alternative Name: 
                DNS:team533-server
    Signature Algorithm: sha256WithRSAEncryption
         10:80:3d:00:28:cd:08:b8:f8:65:b1:77:d7:09:c5:88:a0:c2:
         dc:d6:64:72:aa:5b:91:33:eb:b1:86:5e:45:31:13:f4:a4:21:
         66:a6:47:c2:c4:1a:60:73:5c:95:1d:54:b5:c8:ff:7e:26:5c:
         53:a5:a1:09:f9:87:b9:60:11:bf:fc:e9:97:0b:85:77:04:18:
         5b:50:ab:ce:cf:37:fb:d0:78:4c:d5:84:8a:49:ab:ed:09:9a:
         6e:c9:f2:22:2e:4d:e2:2b:61:fb:f4:fd:97:7c:68:0a:a5:bd:
         e1:9f:f2:30:cb:38:5d:ec:60:16:16:d0:ae:92:a8:f7:5f:02:
         93:49:4a:6c:06:c1:59:c5:29:d2:e0:cc:9c:94:9d:73:22:ac:
         7a:5d:ed:eb:04:05:44:2e:c0:0d:02:13:1e:38:a5:f7:e0:09:
         cb:2e:21:88:60:d9:32:c4:54:99:63:95:ca:ba:87:48:e7:52:
         d6:ab:96:9b:ac:44:80:d4:7c:21:4b:05:60:2d:75:08:03:44:
         a6:48:4d:2b:f6:2e:f6:99:07:84:7e:74:5e:06:ee:64:f8:7c:
         03:76:fd:dc:4f:ed:c2:e2:ea:34:ad:b1:23:1f:23:ce:de:f2:
         34:b5:f1:1c:fc:2f:6c:ca:f1:18:fe:63:04:fd:1c:e6:23:17:
         1c:88:21:37
-----BEGIN CERTIFICATE-----
MIIDeDCCAmCgAwIBAgIRANf4urGCFgH0jaAmPItDaRswDQYJKoZIhvcNAQELBQAw
FjEUMBIGA1UEAwwLdGVhbTUzMy1uZXQwHhcNMjIwNTE4MjIxMDEyWhcNMjUwNTAy
MjIxMDEyWjAZMRcwFQYDVQQDDA50ZWFtNTMzLXNlcnZlcjCCASIwDQYJKoZIhvcN
AQEBBQADggEPADCCAQoCggEBANi45XehgmM5Qe2GFDZAejr6gcNOYcMSLlKBGMTW
Lkp8pngt6KZlMLlGhZrg6ZfPv1yTr0dVslQQSJqk4nsWsXFMR0IAtVawv+xHJv0f
JNlE91NNWnqs4dwpF0djOFK4buEd7nVLWOhb1RIrYPZUqqg+rTa8bmjLNTymGDSg
KJwr5EbyBV4cQUfXh9vxu0JuD5c+GZVcnVUaFi2AmljsTbdsOJB7VRo5J081KRNA
+eIwkpUjxz/wV819/bgxyR0xqxBV4YA6R0YEX4JPDTHp36A46Pr7TsJT51mPQcGn
zRCehen7jFfzcjuyTT6R6SC45vivatCKKGRH1otPmqn2s2UCAwEAAaOBvTCBujAJ
BgNVHRMEAjAAMB0GA1UdDgQWBBRXhy4fIC0p6ip8OagmS8RT0xd+KTBRBgNVHSME
SjBIgBTz8guSVbQ8GHljO7UKJD7UnD/XjaEapBgwFjEUMBIGA1UEAwwLdGVhbTUz
My1uZXSCFCJD6P9lF6SJfqnNumDyV3uvyObFMBMGA1UdJQQMMAoGCCsGAQUFBwMB
MAsGA1UdDwQEAwIFoDAZBgNVHREEEjAQgg50ZWFtNTMzLXNlcnZlcjANBgkqhkiG
9w0BAQsFAAOCAQEAEIA9ACjNCLj4ZbF31wnFiKDC3NZkcqpbkTPrsYZeRTET9KQh
ZqZHwsQaYHNclR1Utcj/fiZcU6WhCfmHuWARv/zplwuFdwQYW1Crzs83+9B4TNWE
ikmr7QmabsnyIi5N4ith+/T9l3xoCqW94Z/yMMs4XexgFhbQrpKo918Ck0lKbAbB
WcUp0uDMnJSdcyKsel3t6wQFRC7ADQITHjil9+AJyy4hiGDZMsRUmWOVyrqHSOdS
1quWm6xEgNR8IUsFYC11CANEpkhNK/Yu9pkHhH50XgbuZPh8A3b93E/twuLqNK2x
Ix8jzt7yNLXxHPwvbMrxGP5jBP0c5iMXHIghNw==
-----END CERTIFICATE-----
