Certificate:
    Data:
        Version: 3 (0x2)
        Serial Number:
            45:de:bb:3a:48:2c:fc:db:f2:32:d3:45:3d:23:bd:ac
        Signature Algorithm: sha256WithRSAEncryption
        Issuer: CN=team208-net
        Validity
            Not Before: May 18 19:15:29 2022 GMT
            Not After : May  2 19:15:29 2025 GMT
        Subject: CN=team208-client
        Subject Public Key Info:
            Public Key Algorithm: rsaEncryption
                RSA Public-Key: (2048 bit)
                Modulus:
                    00:d8:8a:f8:2b:18:21:1d:ee:87:a8:13:1f:c5:5a:
                    53:77:98:d2:14:b4:bb:bd:ca:01:0b:b3:24:2d:f8:
                    f9:2c:e7:c1:25:5b:02:aa:dc:7d:40:ef:b2:f7:ba:
                    7e:ec:73:a6:7d:f9:d2:53:cb:39:1b:fb:ec:a8:8e:
                    cd:02:91:b6:bc:6b:e5:2e:a4:09:cb:d0:e7:84:c6:
                    77:ef:77:64:ab:f7:7a:5e:01:3e:d9:cb:26:a5:48:
                    dd:d8:42:87:f4:46:bc:1c:5b:62:95:6d:02:c1:54:
                    1c:e8:be:b5:3f:66:84:54:98:b7:bb:f0:42:4d:d2:
                    38:b0:94:f3:29:a0:5f:a6:d8:fd:2d:2c:5b:10:09:
                    03:1d:50:d4:38:56:f7:26:ad:58:94:c4:9e:58:53:
                    41:7a:41:92:e2:b8:61:a1:60:1f:4c:69:b7:32:de:
                    59:11:26:d7:5e:28:6f:7e:ce:15:ff:08:d2:b8:95:
                    63:66:3f:d1:1a:5d:66:e5:ae:c7:bc:68:1d:9e:3e:
                    1a:91:fb:fc:f3:62:e9:4e:b9:50:60:e7:a6:18:74:
                    85:6c:2c:4f:69:89:1c:d8:1c:84:b3:dc:4d:ef:39:
                    73:46:e4:51:7f:ec:fe:63:42:a5:4d:a5:15:57:2b:
                    9b:99:84:23:84:b5:13:5f:92:32:dc:a8:f3:93:b2:
                    47:71
                Exponent: 65537 (0x10001)
        X509v3 extensions:
            X509v3 Basic Constraints: 
                CA:FALSE
            X509v3 Subject Key Identifier: 
                B5:0A:0B:9C:44:C8:38:CA:DF:10:0B:3D:33:CC:79:2E:77:4B:8E:C6
            X509v3 Authority Key Identifier: 
                keyid:3E:85:3E:71:A7:2B:41:71:A4:D4:5D:ED:CE:11:2E:10:66:80:F4:6F
                DirName:/CN=team208-net
                serial:78:90:61:D0:83:AC:AC:2D:CB:12:BD:88:47:9C:63:CA:29:5A:F7:C4

            X509v3 Extended Key Usage: 
                TLS Web Client Authentication
            X509v3 Key Usage: 
                Digital Signature
    Signature Algorithm: sha256WithRSAEncryption
         a2:08:08:f8:a4:a3:83:fe:67:e8:17:b2:1d:72:e8:fc:39:cd:
         4c:b3:12:7e:a6:ae:b3:6f:4e:89:de:02:25:0c:86:57:c2:e3:
         64:7b:c9:47:d7:1e:64:df:97:ea:51:a1:1f:7b:46:85:ad:8e:
         72:79:e8:2f:25:5d:f8:a7:bf:c5:32:05:de:be:8d:dc:11:f3:
         24:de:29:05:e5:8c:5d:9e:c3:8e:77:83:bb:65:1c:b8:41:6f:
         3f:9b:dc:50:d4:e7:9d:c8:7a:df:1b:2a:de:f0:ba:08:bb:8c:
         60:9f:2a:56:dc:72:f5:ce:30:4d:32:bd:d2:15:9b:9a:d8:97:
         f7:4a:ca:5a:3d:ef:1b:0a:d2:3a:09:60:8b:c8:c2:8e:af:aa:
         30:95:ed:79:ee:ad:a8:54:03:76:ca:38:eb:2b:e6:d2:b2:db:
         a1:0d:05:21:b2:ff:33:36:e4:37:69:07:f8:52:d6:2d:b8:1f:
         aa:7b:01:cb:c9:de:25:bb:8b:25:42:2e:d3:5f:53:0b:d3:5f:
         57:71:bf:36:1e:2b:9a:6b:aa:52:38:aa:f6:ee:a6:04:8c:a0:
         ec:f5:da:6f:19:16:b5:6a:e4:df:6e:3a:a4:60:03:c7:ba:da:
         4c:15:b8:77:81:72:ec:69:7d:ef:e9:e8:69:9b:e6:a3:58:16:
         27:13:e3:c6
-----BEGIN CERTIFICATE-----
MIIDXDCCAkSgAwIBAgIQRd67Okgs/NvyMtNFPSO9rDANBgkqhkiG9w0BAQsFADAW
MRQwEgYDVQQDDAt0ZWFtMjA4LW5ldDAeFw0yMjA1MTgxOTE1MjlaFw0yNTA1MDIx
OTE1MjlaMBkxFzAVBgNVBAMMDnRlYW0yMDgtY2xpZW50MIIBIjANBgkqhkiG9w0B
AQEFAAOCAQ8AMIIBCgKCAQEA2Ir4KxghHe6HqBMfxVpTd5jSFLS7vcoBC7MkLfj5
LOfBJVsCqtx9QO+y97p+7HOmffnSU8s5G/vsqI7NApG2vGvlLqQJy9DnhMZ373dk
q/d6XgE+2csmpUjd2EKH9Ea8HFtilW0CwVQc6L61P2aEVJi3u/BCTdI4sJTzKaBf
ptj9LSxbEAkDHVDUOFb3Jq1YlMSeWFNBekGS4rhhoWAfTGm3Mt5ZESbXXihvfs4V
/wjSuJVjZj/RGl1m5a7HvGgdnj4akfv882LpTrlQYOemGHSFbCxPaYkc2ByEs9xN
7zlzRuRRf+z+Y0KlTaUVVyubmYQjhLUTX5Iy3Kjzk7JHcQIDAQABo4GiMIGfMAkG
A1UdEwQCMAAwHQYDVR0OBBYEFLUKC5xEyDjK3xALPTPMeS53S47GMFEGA1UdIwRK
MEiAFD6FPnGnK0FxpNRd7c4RLhBmgPRvoRqkGDAWMRQwEgYDVQQDDAt0ZWFtMjA4
LW5ldIIUeJBh0IOsrC3LEr2IR5xjyila98QwEwYDVR0lBAwwCgYIKwYBBQUHAwIw
CwYDVR0PBAQDAgeAMA0GCSqGSIb3DQEBCwUAA4IBAQCiCAj4pKOD/mfoF7Idcuj8
Oc1MsxJ+pq6zb06J3gIlDIZXwuNke8lH1x5k35fqUaEfe0aFrY5yeegvJV34p7/F
MgXevo3cEfMk3ikF5YxdnsOOd4O7ZRy4QW8/m9xQ1OedyHrfGyre8LoIu4xgnypW
3HL1zjBNMr3SFZua2Jf3SspaPe8bCtI6CWCLyMKOr6owle157q2oVAN2yjjrK+bS
stuhDQUhsv8zNuQ3aQf4UtYtuB+qewHLyd4lu4slQi7TX1ML019Xcb82Hiuaa6pS
OKr27qYEjKDs9dpvGRa1auTfbjqkYAPHutpMFbh3gXLsaX3v6ehpm+ajWBYnE+PG
-----END CERTIFICATE-----
