Certificate:
    Data:
        Version: 3 (0x2)
        Serial Number:
            c6:b3:b9:93:b8:18:bc:37:98:9e:7c:f1:cc:a9:8b:ca
        Signature Algorithm: sha256WithRSAEncryption
        Issuer: CN=team625-net
        Validity
            Not Before: May 18 23:04:26 2022 GMT
            Not After : May  2 23:04:26 2025 GMT
        Subject: CN=team625-server
        Subject Public Key Info:
            Public Key Algorithm: rsaEncryption
                RSA Public-Key: (2048 bit)
                Modulus:
                    00:cd:70:95:1e:5c:f5:ab:8f:0b:f9:bd:66:c0:45:
                    40:91:5e:83:85:95:26:1b:ce:5f:52:ca:41:f5:a7:
                    0e:d6:52:b2:67:be:c2:ce:90:3b:aa:68:d4:b1:1e:
                    57:49:b3:dc:a6:68:94:b7:66:11:ab:e9:01:f1:9b:
                    ee:e7:1b:14:df:ee:b6:93:e0:d1:5d:7f:f0:dd:02:
                    da:c4:30:cf:70:a3:b2:c5:4c:97:d3:7e:30:27:36:
                    72:38:94:8b:7b:12:2a:df:ec:e5:3a:4c:39:cd:f0:
                    90:dd:5e:d1:4f:94:32:f1:37:3e:33:05:ac:55:a2:
                    69:6d:fb:95:8e:0b:79:35:a8:0f:2e:e5:83:bd:16:
                    c4:ea:d5:61:0e:e2:d7:32:31:a1:d5:d8:86:44:15:
                    55:5a:d2:83:d0:3f:c0:31:77:6a:5a:c9:02:14:2b:
                    77:ad:ff:fb:3d:fd:c3:66:2d:15:0a:06:d4:84:f1:
                    e8:a6:c0:29:29:c7:30:25:f1:50:c6:59:e5:ec:f8:
                    c1:9b:63:d8:93:57:a2:70:6c:92:79:d0:85:77:04:
                    38:6f:d2:c6:8c:f3:47:74:ed:ab:d3:20:f9:97:15:
                    f8:47:55:f9:bb:cf:c1:95:6b:e0:da:51:0a:ee:fa:
                    1d:b3:a1:05:6d:af:77:14:57:60:4b:a6:3a:c3:a8:
                    a0:83
                Exponent: 65537 (0x10001)
        X509v3 extensions:
            X509v3 Basic Constraints: 
                CA:FALSE
            X509v3 Subject Key Identifier: 
                BF:7E:70:69:9D:22:74:29:71:66:7B:37:85:B8:B1:21:61:0F:8F:10
            X509v3 Authority Key Identifier: 
                keyid:29:B7:62:BE:27:E1:6C:BD:0B:00:71:1B:AA:CC:E6:E4:6C:2D:6E:B5
                DirName:/CN=team625-net
                serial:13:74:65:2A:2C:F6:07:6D:44:0A:3A:D8:AC:03:45:1E:95:D3:A5:78

            X509v3 Extended Key Usage: 
                TLS Web Server Authentication
            X509v3 Key Usage: 
                Digital Signature, Key Encipherment
            X509v3 Subject Alternative Name: 
                DNS:team625-server
    Signature Algorithm: sha256WithRSAEncryption
         43:65:85:69:60:21:7e:8e:05:73:e7:d7:9a:19:b6:5f:36:27:
         cd:fb:26:94:fa:34:11:73:25:0a:41:fd:d4:51:2b:69:e8:d1:
         2f:19:e0:10:2c:67:38:d4:73:2d:f1:16:9c:67:b3:6b:6f:a1:
         b6:43:15:50:9b:31:65:63:28:f8:c6:28:57:47:c7:e9:08:b4:
         ca:cf:a5:c1:e5:3f:55:ea:9a:d1:13:da:1a:b9:52:79:29:53:
         f5:4c:eb:54:af:45:35:1e:92:7a:90:29:2d:23:05:13:40:da:
         e7:a3:71:05:28:5e:73:e8:7d:29:54:fd:ea:d0:f1:87:ab:ae:
         73:c9:2e:aa:ef:ac:21:bc:92:e8:96:d0:2a:d6:2c:6a:ec:63:
         6d:45:4c:f1:65:7c:58:f6:95:94:61:36:f8:e8:da:32:17:12:
         fa:32:ed:4c:84:38:3f:09:11:4f:21:a0:a0:2f:22:71:16:17:
         9a:64:19:e6:2e:46:bb:91:d1:94:99:4f:41:34:69:6e:fd:d0:
         e9:a7:8e:b3:54:fd:37:32:e2:95:8a:f0:e7:ce:2b:7c:3e:50:
         e5:0c:83:1d:16:18:f7:23:3a:79:c0:3c:8a:b8:34:98:db:a0:
         dd:22:c7:a0:e3:fe:3e:38:ae:84:ce:a2:d0:52:62:90:03:0a:
         78:f1:54:2e
-----BEGIN CERTIFICATE-----
MIIDeDCCAmCgAwIBAgIRAMazuZO4GLw3mJ588cypi8owDQYJKoZIhvcNAQELBQAw
FjEUMBIGA1UEAwwLdGVhbTYyNS1uZXQwHhcNMjIwNTE4MjMwNDI2WhcNMjUwNTAy
MjMwNDI2WjAZMRcwFQYDVQQDDA50ZWFtNjI1LXNlcnZlcjCCASIwDQYJKoZIhvcN
AQEBBQADggEPADCCAQoCggEBAM1wlR5c9auPC/m9ZsBFQJFeg4WVJhvOX1LKQfWn
DtZSsme+ws6QO6po1LEeV0mz3KZolLdmEavpAfGb7ucbFN/utpPg0V1/8N0C2sQw
z3CjssVMl9N+MCc2cjiUi3sSKt/s5TpMOc3wkN1e0U+UMvE3PjMFrFWiaW37lY4L
eTWoDy7lg70WxOrVYQ7i1zIxodXYhkQVVVrSg9A/wDF3alrJAhQrd63/+z39w2Yt
FQoG1ITx6KbAKSnHMCXxUMZZ5ez4wZtj2JNXonBsknnQhXcEOG/SxozzR3Ttq9Mg
+ZcV+EdV+bvPwZVr4NpRCu76HbOhBW2vdxRXYEumOsOooIMCAwEAAaOBvTCBujAJ
BgNVHRMEAjAAMB0GA1UdDgQWBBS/fnBpnSJ0KXFmezeFuLEhYQ+PEDBRBgNVHSME
SjBIgBQpt2K+J+FsvQsAcRuqzObkbC1utaEapBgwFjEUMBIGA1UEAwwLdGVhbTYy
NS1uZXSCFBN0ZSos9gdtRAo62KwDRR6V06V4MBMGA1UdJQQMMAoGCCsGAQUFBwMB
MAsGA1UdDwQEAwIFoDAZBgNVHREEEjAQgg50ZWFtNjI1LXNlcnZlcjANBgkqhkiG
9w0BAQsFAAOCAQEAQ2WFaWAhfo4Fc+fXmhm2XzYnzfsmlPo0EXMlCkH91FEraejR
LxngECxnONRzLfEWnGeza2+htkMVUJsxZWMo+MYoV0fH6Qi0ys+lweU/Veqa0RPa
GrlSeSlT9UzrVK9FNR6SepApLSMFE0Da56NxBShec+h9KVT96tDxh6uuc8kuqu+s
IbyS6JbQKtYsauxjbUVM8WV8WPaVlGE2+OjaMhcS+jLtTIQ4PwkRTyGgoC8icRYX
mmQZ5i5Gu5HRlJlPQTRpbv3Q6aeOs1T9NzLilYrw584rfD5Q5QyDHRYY9yM6ecA8
irg0mNug3SLHoOP+PjiuhM6i0FJikAMKePFULg==
-----END CERTIFICATE-----
