Certificate:
    Data:
        Version: 3 (0x2)
        Serial Number:
            f0:6b:1d:49:9c:c4:94:3e:43:b0:19:aa:ef:eb:70:38
        Signature Algorithm: sha256WithRSAEncryption
        Issuer: CN=team647-net
        Validity
            Not Before: May 18 23:18:04 2022 GMT
            Not After : May  2 23:18:04 2025 GMT
        Subject: CN=team647-client
        Subject Public Key Info:
            Public Key Algorithm: rsaEncryption
                RSA Public-Key: (2048 bit)
                Modulus:
                    00:bc:1b:f0:10:62:0d:20:0e:d0:28:1b:cb:8b:77:
                    4f:03:44:14:c2:27:42:55:cd:de:db:aa:3c:9e:f8:
                    a0:da:94:5f:79:a0:e1:ab:4f:fc:f1:87:e9:a3:72:
                    fa:2b:e9:47:1f:c8:fb:84:91:d6:e1:d5:82:5f:fd:
                    23:25:64:f3:5e:ab:1a:66:42:c5:a6:a8:a8:d3:d4:
                    c1:3e:00:cd:dd:5b:af:56:57:b3:29:6e:47:10:2c:
                    e3:ac:c5:b8:e5:d9:79:51:ce:0f:c0:44:13:f3:f8:
                    78:c0:09:3c:6b:78:82:1b:56:dd:fc:90:36:b7:22:
                    87:e7:ea:55:cf:19:98:5f:5d:dc:d3:fa:a7:a6:3e:
                    70:3e:c0:0f:92:3c:52:b4:d9:01:79:76:f5:77:88:
                    1e:b9:d9:f7:09:49:02:eb:e6:89:93:6a:80:87:45:
                    35:b1:ea:81:53:85:5b:51:f2:6a:04:79:a2:a7:67:
                    c5:b5:0e:69:22:f9:64:34:ae:1f:2c:d7:02:2e:ff:
                    77:96:58:ac:9d:a5:84:d9:03:44:0f:3f:98:fa:8d:
                    62:57:8c:bc:3b:82:76:85:04:c5:25:71:a7:23:eb:
                    dc:d5:a1:ef:f9:ae:15:e0:d0:20:36:85:37:a8:40:
                    91:2c:ea:c1:0d:d1:f3:3b:c9:cd:18:10:5c:89:76:
                    10:4b
                Exponent: 65537 (0x10001)
        X509v3 extensions:
            X509v3 Basic Constraints: 
                CA:FALSE
            X509v3 Subject Key Identifier: 
                CF:B9:99:9B:3E:F3:D7:CA:A4:23:00:61:A7:01:CF:BA:6D:6D:4D:09
            X509v3 Authority Key Identifier: 
                keyid:36:D0:D9:A2:07:30:EF:F0:BC:11:E3:25:85:2F:47:43:41:B3:63:51
                DirName:/CN=team647-net
                serial:46:B5:92:1B:5C:FD:86:0D:F7:8A:FF:8D:98:99:26:70:C1:81:DD:30

            X509v3 Extended Key Usage: 
                TLS Web Client Authentication
            X509v3 Key Usage: 
                Digital Signature
    Signature Algorithm: sha256WithRSAEncryption
         ad:b0:d2:48:c5:d9:d6:e0:c7:61:70:d1:9d:c5:a4:1d:0b:de:
         2d:3c:5c:bf:e4:1e:35:f9:6b:71:6f:8c:a8:39:b3:33:27:86:
         10:77:e2:45:7c:57:ba:61:75:37:a0:6d:d5:01:b5:5e:b7:a8:
         13:68:f8:cc:1a:aa:20:62:11:bf:a5:c2:0e:75:7f:6c:64:b2:
         b3:12:f2:21:2c:76:a4:e8:03:27:23:e2:34:88:80:14:ce:06:
         19:67:6b:0e:9a:0c:d4:37:2a:f2:e5:1f:7a:7f:bb:05:a6:54:
         f7:9b:e6:6e:00:15:96:10:00:ed:a1:7c:1c:a6:f9:d4:75:77:
         14:94:6a:0e:c5:49:6c:36:46:9e:10:0d:ee:88:36:2a:30:49:
         81:51:5d:88:7b:1d:3f:8c:74:10:6d:36:41:22:b9:3d:58:72:
         7c:31:83:15:e7:50:3f:32:5e:3a:7f:16:b2:25:31:d1:e2:0d:
         78:b5:80:dd:d5:ac:36:8d:25:95:0b:12:dc:55:1e:66:ac:48:
         f9:6b:c6:58:e4:da:35:62:d4:c4:57:5a:af:8d:ef:ee:53:be:
         84:9f:35:7a:09:6e:79:cd:54:80:85:12:36:9f:81:ce:c3:a8:
         ce:e0:4f:aa:15:02:89:77:da:54:06:2e:a8:6e:df:17:46:6a:
         1b:0b:b4:e4
-----BEGIN CERTIFICATE-----
MIIDXTCCAkWgAwIBAgIRAPBrHUmcxJQ+Q7AZqu/rcDgwDQYJKoZIhvcNAQELBQAw
FjEUMBIGA1UEAwwLdGVhbTY0Ny1uZXQwHhcNMjIwNTE4MjMxODA0WhcNMjUwNTAy
MjMxODA0WjAZMRcwFQYDVQQDDA50ZWFtNjQ3LWNsaWVudDCCASIwDQYJKoZIhvcN
AQEBBQADggEPADCCAQoCggEBALwb8BBiDSAO0Cgby4t3TwNEFMInQlXN3tuqPJ74
oNqUX3mg4atP/PGH6aNy+ivpRx/I+4SR1uHVgl/9IyVk816rGmZCxaaoqNPUwT4A
zd1br1ZXsyluRxAs46zFuOXZeVHOD8BEE/P4eMAJPGt4ghtW3fyQNrcih+fqVc8Z
mF9d3NP6p6Y+cD7AD5I8UrTZAXl29XeIHrnZ9wlJAuvmiZNqgIdFNbHqgVOFW1Hy
agR5oqdnxbUOaSL5ZDSuHyzXAi7/d5ZYrJ2lhNkDRA8/mPqNYleMvDuCdoUExSVx
pyPr3NWh7/muFeDQIDaFN6hAkSzqwQ3R8zvJzRgQXIl2EEsCAwEAAaOBojCBnzAJ
BgNVHRMEAjAAMB0GA1UdDgQWBBTPuZmbPvPXyqQjAGGnAc+6bW1NCTBRBgNVHSME
SjBIgBQ20NmiBzDv8LwR4yWFL0dDQbNjUaEapBgwFjEUMBIGA1UEAwwLdGVhbTY0
Ny1uZXSCFEa1khtc/YYN94r/jZiZJnDBgd0wMBMGA1UdJQQMMAoGCCsGAQUFBwMC
MAsGA1UdDwQEAwIHgDANBgkqhkiG9w0BAQsFAAOCAQEArbDSSMXZ1uDHYXDRncWk
HQveLTxcv+QeNflrcW+MqDmzMyeGEHfiRXxXumF1N6Bt1QG1XreoE2j4zBqqIGIR
v6XCDnV/bGSysxLyISx2pOgDJyPiNIiAFM4GGWdrDpoM1Dcq8uUfen+7BaZU95vm
bgAVlhAA7aF8HKb51HV3FJRqDsVJbDZGnhAN7og2KjBJgVFdiHsdP4x0EG02QSK5
PVhyfDGDFedQPzJeOn8WsiUx0eINeLWA3dWsNo0llQsS3FUeZqxI+WvGWOTaNWLU
xFdar43v7lO+hJ81egluec1UgIUSNp+BzsOozuBPqhUCiXfaVAYuqG7fF0ZqGwu0
5A==
-----END CERTIFICATE-----
