Certificate:
    Data:
        Version: 3 (0x2)
        Serial Number:
            86:2c:8d:fb:60:fd:0b:aa:66:08:4c:9e:f1:4f:b7:d9
        Signature Algorithm: sha256WithRSAEncryption
        Issuer: CN=team217-net
        Validity
            Not Before: May 18 19:21:13 2022 GMT
            Not After : May  2 19:21:13 2025 GMT
        Subject: CN=team217-server
        Subject Public Key Info:
            Public Key Algorithm: rsaEncryption
                RSA Public-Key: (2048 bit)
                Modulus:
                    00:cc:f7:8d:17:71:a5:1c:6e:c4:69:eb:fb:d2:a6:
                    2d:f6:d3:65:bd:f6:68:ee:62:57:07:23:4e:9d:d0:
                    d1:35:d1:e2:ad:9f:16:7e:eb:eb:4e:f2:4a:b5:ef:
                    db:3b:0b:7b:b4:35:ed:19:d9:c6:5b:be:0c:d7:f7:
                    54:05:1e:c8:c0:e2:4c:b2:d0:d3:4e:37:4a:06:e7:
                    9a:65:5c:c7:32:be:34:ba:f7:bd:1e:93:23:7f:16:
                    d0:a1:16:69:ee:41:9b:0f:84:a2:bc:15:9f:90:79:
                    80:e4:10:43:aa:9f:e0:35:ce:c1:0c:5c:e2:a2:07:
                    d5:69:c6:8f:6a:20:a6:c2:9a:22:62:fb:3a:68:12:
                    9e:e2:96:7d:46:09:ac:0a:a1:23:9a:a5:c0:f4:50:
                    38:fb:c2:b1:21:d3:86:c1:65:0d:89:a7:7c:72:20:
                    76:df:cf:28:45:8a:ba:dc:23:09:ba:e2:d8:d8:11:
                    08:ef:c3:a3:0d:4b:bf:dd:15:7f:32:50:90:a7:d8:
                    5a:63:25:cc:17:59:e6:58:2e:38:2d:4e:24:7a:0c:
                    e2:08:2a:0a:ae:8d:d5:66:a8:4a:d8:ea:c5:c8:46:
                    b0:a3:74:80:55:e4:f7:ce:e5:4b:f8:e4:e8:6a:9b:
                    42:83:ca:81:03:47:11:e7:1e:5e:8e:b8:6b:a4:33:
                    33:17
                Exponent: 65537 (0x10001)
        X509v3 extensions:
            X509v3 Basic Constraints: 
                CA:FALSE
            X509v3 Subject Key Identifier: 
                70:FC:11:40:2C:A6:E9:BE:C3:DD:09:C0:BB:3F:44:0B:09:34:D2:EC
            X509v3 Authority Key Identifier: 
                keyid:1A:2B:19:92:FF:1D:EE:4B:F6:B1:40:10:34:F3:F4:02:58:7B:27:70
                DirName:/CN=team217-net
                serial:65:12:57:46:95:CE:80:B1:45:87:98:F1:9B:E2:8B:92:D0:1F:81:D0

            X509v3 Extended Key Usage: 
                TLS Web Server Authentication
            X509v3 Key Usage: 
                Digital Signature, Key Encipherment
            X509v3 Subject Alternative Name: 
                DNS:team217-server
    Signature Algorithm: sha256WithRSAEncryption
         61:90:60:73:12:9a:96:96:74:93:0c:d6:b3:8d:5d:72:3b:a5:
         ab:fe:99:66:25:05:4f:bf:a4:3d:69:f8:7e:2a:8b:cf:1c:06:
         e3:b9:7e:94:88:d2:c3:e1:44:64:5a:af:44:cd:bf:2c:4d:8b:
         fb:26:29:e4:33:f0:af:41:e2:15:1f:10:bb:68:8f:25:5b:5f:
         2b:95:b7:b9:b3:6f:1e:d0:23:bd:60:10:fc:bc:ac:16:5f:0b:
         72:79:a0:00:06:84:57:2b:3f:05:f8:8b:55:6e:ae:90:8b:76:
         fa:33:fd:95:e9:d2:72:88:16:e5:1f:f2:3d:b1:3f:0b:7f:53:
         59:27:0d:cf:2d:74:20:45:a6:42:74:60:a9:c9:56:66:6f:5f:
         75:7f:66:7f:e9:69:1c:19:e7:4e:47:1f:06:70:76:b4:2e:6e:
         b2:fe:50:6e:d8:4d:6c:d3:cf:51:c8:9e:76:4f:be:9a:8f:12:
         ff:6c:5d:79:4a:ca:76:46:b8:09:9c:d6:e2:83:64:35:9a:bb:
         85:64:49:4e:fd:99:c9:bf:c2:63:88:f7:95:aa:e7:45:c9:2f:
         bc:d1:ca:90:e7:77:92:98:0c:ba:6e:ce:1a:b0:02:a8:48:2a:
         aa:a5:f6:8e:f4:af:3b:5b:da:81:ec:93:b0:7f:ca:de:23:59:
         5d:17:2a:62
-----BEGIN CERTIFICATE-----
MIIDeDCCAmCgAwIBAgIRAIYsjftg/QuqZghMnvFPt9kwDQYJKoZIhvcNAQELBQAw
FjEUMBIGA1UEAwwLdGVhbTIxNy1uZXQwHhcNMjIwNTE4MTkyMTEzWhcNMjUwNTAy
MTkyMTEzWjAZMRcwFQYDVQQDDA50ZWFtMjE3LXNlcnZlcjCCASIwDQYJKoZIhvcN
AQEBBQADggEPADCCAQoCggEBAMz3jRdxpRxuxGnr+9KmLfbTZb32aO5iVwcjTp3Q
0TXR4q2fFn7r607ySrXv2zsLe7Q17RnZxlu+DNf3VAUeyMDiTLLQ0043SgbnmmVc
xzK+NLr3vR6TI38W0KEWae5Bmw+EorwVn5B5gOQQQ6qf4DXOwQxc4qIH1WnGj2og
psKaImL7OmgSnuKWfUYJrAqhI5qlwPRQOPvCsSHThsFlDYmnfHIgdt/PKEWKutwj
Cbri2NgRCO/Dow1Lv90VfzJQkKfYWmMlzBdZ5lguOC1OJHoM4ggqCq6N1WaoStjq
xchGsKN0gFXk987lS/jk6GqbQoPKgQNHEeceXo64a6QzMxcCAwEAAaOBvTCBujAJ
BgNVHRMEAjAAMB0GA1UdDgQWBBRw/BFALKbpvsPdCcC7P0QLCTTS7DBRBgNVHSME
SjBIgBQaKxmS/x3uS/axQBA08/QCWHsncKEapBgwFjEUMBIGA1UEAwwLdGVhbTIx
Ny1uZXSCFGUSV0aVzoCxRYeY8Zvii5LQH4HQMBMGA1UdJQQMMAoGCCsGAQUFBwMB
MAsGA1UdDwQEAwIFoDAZBgNVHREEEjAQgg50ZWFtMjE3LXNlcnZlcjANBgkqhkiG
9w0BAQsFAAOCAQEAYZBgcxKalpZ0kwzWs41dcjulq/6ZZiUFT7+kPWn4fiqLzxwG
47l+lIjSw+FEZFqvRM2/LE2L+yYp5DPwr0HiFR8Qu2iPJVtfK5W3ubNvHtAjvWAQ
/LysFl8LcnmgAAaEVys/BfiLVW6ukIt2+jP9lenScogW5R/yPbE/C39TWScNzy10
IEWmQnRgqclWZm9fdX9mf+lpHBnnTkcfBnB2tC5usv5QbthNbNPPUciedk++mo8S
/2xdeUrKdka4CZzW4oNkNZq7hWRJTv2Zyb/CY4j3larnRckvvNHKkOd3kpgMum7O
GrACqEgqqqX2jvSvO1vageyTsH/K3iNZXRcqYg==
-----END CERTIFICATE-----
