Certificate:
    Data:
        Version: 3 (0x2)
        Serial Number:
            fd:b7:e5:a6:77:05:3d:78:7d:ee:cf:1a:23:5b:33:52
        Signature Algorithm: sha256WithRSAEncryption
        Issuer: CN=team386-net
        Validity
            Not Before: May 18 20:54:54 2022 GMT
            Not After : May  2 20:54:54 2025 GMT
        Subject: CN=team386-server
        Subject Public Key Info:
            Public Key Algorithm: rsaEncryption
                RSA Public-Key: (2048 bit)
                Modulus:
                    00:cc:53:c1:89:c4:66:f0:06:7d:24:6c:dc:4a:fe:
                    66:79:2f:cf:0e:8a:e1:ac:d6:21:f8:ea:d1:33:f0:
                    01:7b:01:c6:dc:53:38:79:8b:2b:aa:87:a1:87:1a:
                    c0:54:6f:72:56:94:66:23:62:69:10:54:b4:94:4d:
                    20:30:1b:c2:7b:9f:aa:cd:1d:d0:55:07:20:c1:41:
                    34:dd:e9:f5:a8:5f:e6:f7:cb:79:3a:21:95:61:cd:
                    ce:92:2a:8b:ce:d1:ab:15:99:0f:06:dd:ce:a6:c6:
                    bc:57:fd:8b:4f:76:07:e1:0a:0e:4f:7b:22:5b:a4:
                    5e:58:cf:bf:fc:1d:ad:46:a7:ad:e0:93:de:f1:b0:
                    2a:4e:ed:0e:74:2a:d3:9b:f4:80:ba:ad:59:03:d9:
                    58:a8:ed:86:ba:2b:a8:51:7b:13:58:5b:28:57:a2:
                    07:04:07:e5:f0:c1:04:4a:90:56:08:35:23:ce:7b:
                    ef:cb:af:54:b6:50:e4:88:24:d1:d3:f1:63:fe:13:
                    3c:ff:45:16:05:5e:62:c5:b7:b6:f4:79:92:99:99:
                    ab:74:4d:37:56:92:d4:bb:82:0f:59:39:ea:73:1f:
                    ca:bf:e8:25:fc:de:2d:fb:5a:46:b9:4c:26:3b:4f:
                    e8:3a:d8:24:a9:1b:ee:77:60:06:96:63:fc:81:35:
                    21:b9
                Exponent: 65537 (0x10001)
        X509v3 extensions:
            X509v3 Basic Constraints: 
                CA:FALSE
            X509v3 Subject Key Identifier: 
                E7:92:60:FD:FD:B9:C1:CB:41:F4:BE:EC:56:2C:49:7B:E5:6B:71:ED
            X509v3 Authority Key Identifier: 
                keyid:ED:20:3B:00:4F:AC:17:47:56:CD:54:92:0B:40:61:0B:8A:4B:3D:DC
                DirName:/CN=team386-net
                serial:7C:CD:A6:2E:81:7A:66:EE:B6:4F:55:E8:B8:6E:19:B3:86:65:CE:C8

            X509v3 Extended Key Usage: 
                TLS Web Server Authentication
            X509v3 Key Usage: 
                Digital Signature, Key Encipherment
            X509v3 Subject Alternative Name: 
                DNS:team386-server
    Signature Algorithm: sha256WithRSAEncryption
         4c:ff:c2:b7:0b:fb:6a:9f:70:13:b8:c9:da:c0:70:07:1a:fc:
         cc:9a:f9:30:d0:ed:c4:6f:89:4e:ef:89:2c:e1:ab:6f:8f:99:
         a4:25:10:61:92:09:ab:c6:29:20:85:fa:2f:df:04:f4:99:c9:
         70:5d:74:c2:24:17:c1:42:75:92:18:14:65:92:cf:96:41:5f:
         50:56:56:80:ee:87:d3:c3:e2:68:9c:0c:a2:52:c7:b8:9c:d9:
         30:dc:9b:9a:c8:24:3c:6b:c1:2c:f7:33:dd:88:4f:18:1e:3c:
         90:e6:63:b0:2e:0d:bc:98:e9:f2:d6:75:c2:04:c6:05:ff:a9:
         6f:32:6e:47:8b:a7:e5:0c:a0:5d:06:ca:19:ce:97:60:5e:d4:
         c1:4f:20:9f:d1:3f:59:40:73:82:39:3f:44:b0:48:33:24:47:
         4b:ec:39:67:0f:46:e2:bf:6d:9a:f8:8e:7c:b1:41:b8:85:66:
         eb:22:c7:4d:aa:b3:dc:d0:5a:30:67:67:b8:24:94:ec:48:b9:
         6f:94:3f:b8:f0:63:af:32:ea:72:8e:48:5a:c9:a4:93:7b:9e:
         91:28:6a:d2:f7:f7:05:4e:ec:7f:83:cc:e9:99:47:72:97:1d:
         e1:42:12:14:95:8f:e6:9d:3e:f7:99:d3:34:81:a9:74:7f:97:
         bf:81:8e:c4
-----BEGIN CERTIFICATE-----
MIIDeDCCAmCgAwIBAgIRAP235aZ3BT14fe7PGiNbM1IwDQYJKoZIhvcNAQELBQAw
FjEUMBIGA1UEAwwLdGVhbTM4Ni1uZXQwHhcNMjIwNTE4MjA1NDU0WhcNMjUwNTAy
MjA1NDU0WjAZMRcwFQYDVQQDDA50ZWFtMzg2LXNlcnZlcjCCASIwDQYJKoZIhvcN
AQEBBQADggEPADCCAQoCggEBAMxTwYnEZvAGfSRs3Er+Znkvzw6K4azWIfjq0TPw
AXsBxtxTOHmLK6qHoYcawFRvclaUZiNiaRBUtJRNIDAbwnufqs0d0FUHIMFBNN3p
9ahf5vfLeTohlWHNzpIqi87RqxWZDwbdzqbGvFf9i092B+EKDk97IlukXljPv/wd
rUanreCT3vGwKk7tDnQq05v0gLqtWQPZWKjthrorqFF7E1hbKFeiBwQH5fDBBEqQ
Vgg1I85778uvVLZQ5Igk0dPxY/4TPP9FFgVeYsW3tvR5kpmZq3RNN1aS1LuCD1k5
6nMfyr/oJfzeLftaRrlMJjtP6DrYJKkb7ndgBpZj/IE1IbkCAwEAAaOBvTCBujAJ
BgNVHRMEAjAAMB0GA1UdDgQWBBTnkmD9/bnBy0H0vuxWLEl75Wtx7TBRBgNVHSME
SjBIgBTtIDsAT6wXR1bNVJILQGELiks93KEapBgwFjEUMBIGA1UEAwwLdGVhbTM4
Ni1uZXSCFHzNpi6Bembutk9V6LhuGbOGZc7IMBMGA1UdJQQMMAoGCCsGAQUFBwMB
MAsGA1UdDwQEAwIFoDAZBgNVHREEEjAQgg50ZWFtMzg2LXNlcnZlcjANBgkqhkiG
9w0BAQsFAAOCAQEATP/Ctwv7ap9wE7jJ2sBwBxr8zJr5MNDtxG+JTu+JLOGrb4+Z
pCUQYZIJq8YpIIX6L98E9JnJcF10wiQXwUJ1khgUZZLPlkFfUFZWgO6H08PiaJwM
olLHuJzZMNybmsgkPGvBLPcz3YhPGB48kOZjsC4NvJjp8tZ1wgTGBf+pbzJuR4un
5QygXQbKGc6XYF7UwU8gn9E/WUBzgjk/RLBIMyRHS+w5Zw9G4r9tmviOfLFBuIVm
6yLHTaqz3NBaMGdnuCSU7Ei5b5Q/uPBjrzLqco5IWsmkk3uekShq0vf3BU7sf4PM
6ZlHcpcd4UISFJWP5p0+95nTNIGpdH+Xv4GOxA==
-----END CERTIFICATE-----
