Certificate:
    Data:
        Version: 3 (0x2)
        Serial Number:
            71:a9:ef:4e:a8:45:a1:d0:ed:7a:42:2f:2e:ff:5d:0f
        Signature Algorithm: sha256WithRSAEncryption
        Issuer: CN=team336-net
        Validity
            Not Before: May 18 20:20:02 2022 GMT
            Not After : May  2 20:20:02 2025 GMT
        Subject: CN=team336-server
        Subject Public Key Info:
            Public Key Algorithm: rsaEncryption
                RSA Public-Key: (2048 bit)
                Modulus:
                    00:ca:52:24:0f:7d:d1:db:a6:a8:be:99:4c:cd:10:
                    73:75:2c:f1:54:c4:86:5e:52:2e:a8:2c:53:fd:96:
                    7e:23:df:ea:82:76:46:cf:c3:29:7b:53:a2:95:3a:
                    74:32:b4:36:20:46:85:1f:80:77:bb:ba:4f:74:0c:
                    66:c9:64:ba:07:58:69:f9:c4:53:d8:cf:f1:c3:9b:
                    6f:cd:04:56:4f:b4:54:28:07:42:da:fe:50:82:95:
                    fe:30:20:22:a4:62:81:ab:66:23:ce:9d:e9:1c:01:
                    84:8f:37:bc:46:c5:28:58:dd:bb:e7:f6:09:c7:10:
                    5b:63:cf:1d:11:6f:fc:50:11:a1:48:38:55:ad:8e:
                    fc:6d:e4:77:ed:e9:9e:eb:e8:79:87:2e:35:42:86:
                    a8:fb:35:e1:4c:da:f5:a2:74:53:a7:a7:49:1b:e2:
                    0f:73:f2:54:e6:fd:b1:e0:91:11:e5:21:f2:b8:15:
                    12:90:94:f3:ee:a2:b9:d3:b9:05:f2:65:4e:56:8b:
                    b0:ea:12:86:c7:b1:69:40:26:99:e8:25:3b:d4:fd:
                    c5:f7:8a:74:b6:25:97:07:26:69:2f:03:36:82:5a:
                    56:ad:df:c1:c0:7b:b0:57:33:8b:6e:bd:38:c2:6f:
                    c7:25:fa:86:e2:97:a4:6b:9e:a4:d7:f2:75:4b:92:
                    92:8f
                Exponent: 65537 (0x10001)
        X509v3 extensions:
            X509v3 Basic Constraints: 
                CA:FALSE
            X509v3 Subject Key Identifier: 
                27:AC:AF:2F:C5:AC:A3:C2:08:03:EE:5A:F0:AA:EE:A4:9C:2B:00:1B
            X509v3 Authority Key Identifier: 
                keyid:82:8F:97:B1:A3:29:B7:E7:C1:88:36:40:E7:11:37:11:44:35:6D:2C
                DirName:/CN=team336-net
                serial:2F:C0:B0:64:6E:5A:BF:FC:F9:3D:B9:40:54:C1:0F:48:31:F7:74:44

            X509v3 Extended Key Usage: 
                TLS Web Server Authentication
            X509v3 Key Usage: 
                Digital Signature, Key Encipherment
            X509v3 Subject Alternative Name: 
                DNS:team336-server
    Signature Algorithm: sha256WithRSAEncryption
         cd:36:99:60:c7:f3:62:74:c5:74:af:37:83:ec:12:3c:f0:0b:
         65:dc:0b:e2:52:1c:19:1b:d2:80:21:fd:09:e3:a1:d9:ce:76:
         f7:ae:18:29:03:73:b8:89:9d:80:d5:86:13:48:19:1e:8a:59:
         48:83:fb:56:3f:87:02:3f:5c:c1:61:b7:84:b2:a2:98:a5:34:
         75:bd:1c:ca:8a:ce:52:52:d2:b4:20:be:48:96:15:65:1c:7d:
         86:01:59:b4:4d:d5:d4:bc:b7:c0:0a:93:8d:5a:f8:6c:26:09:
         2e:dc:e7:8d:4c:99:fe:a9:5a:91:4f:a0:38:6d:87:6a:21:11:
         1c:0b:5d:4b:21:f6:2f:c7:52:40:17:9d:93:dd:c1:4d:f9:4c:
         ac:83:9c:a2:1c:8b:54:de:a3:57:79:dc:35:7d:cb:36:4a:9d:
         bf:68:0b:c2:84:87:f7:59:db:6c:9d:16:d1:f4:3f:93:4a:12:
         7b:d4:38:30:c4:23:63:be:36:ca:ba:b5:ca:c5:ab:ba:b1:b7:
         b7:f8:ef:78:a0:3b:27:48:64:ac:b2:66:6d:16:55:61:62:fc:
         43:d8:32:31:94:2a:b4:d2:50:ba:10:2c:97:8e:1d:15:3f:e2:
         1a:3c:ac:a4:f5:f0:45:57:a6:e9:c5:e3:9c:95:0b:db:23:3e:
         38:ec:71:e3
-----BEGIN CERTIFICATE-----
MIIDdzCCAl+gAwIBAgIQcanvTqhFodDtekIvLv9dDzANBgkqhkiG9w0BAQsFADAW
MRQwEgYDVQQDDAt0ZWFtMzM2LW5ldDAeFw0yMjA1MTgyMDIwMDJaFw0yNTA1MDIy
MDIwMDJaMBkxFzAVBgNVBAMMDnRlYW0zMzYtc2VydmVyMIIBIjANBgkqhkiG9w0B
AQEFAAOCAQ8AMIIBCgKCAQEAylIkD33R26aovplMzRBzdSzxVMSGXlIuqCxT/ZZ+
I9/qgnZGz8Mpe1OilTp0MrQ2IEaFH4B3u7pPdAxmyWS6B1hp+cRT2M/xw5tvzQRW
T7RUKAdC2v5QgpX+MCAipGKBq2Yjzp3pHAGEjze8RsUoWN275/YJxxBbY88dEW/8
UBGhSDhVrY78beR37eme6+h5hy41Qoao+zXhTNr1onRTp6dJG+IPc/JU5v2x4JER
5SHyuBUSkJTz7qK507kF8mVOVouw6hKGx7FpQCaZ6CU71P3F94p0tiWXByZpLwM2
glpWrd/BwHuwVzOLbr04wm/HJfqG4peka56k1/J1S5KSjwIDAQABo4G9MIG6MAkG
A1UdEwQCMAAwHQYDVR0OBBYEFCesry/FrKPCCAPuWvCq7qScKwAbMFEGA1UdIwRK
MEiAFIKPl7GjKbfnwYg2QOcRNxFENW0soRqkGDAWMRQwEgYDVQQDDAt0ZWFtMzM2
LW5ldIIUL8CwZG5av/z5PblAVMEPSDH3dEQwEwYDVR0lBAwwCgYIKwYBBQUHAwEw
CwYDVR0PBAQDAgWgMBkGA1UdEQQSMBCCDnRlYW0zMzYtc2VydmVyMA0GCSqGSIb3
DQEBCwUAA4IBAQDNNplgx/NidMV0rzeD7BI88Atl3AviUhwZG9KAIf0J46HZznb3
rhgpA3O4iZ2A1YYTSBkeillIg/tWP4cCP1zBYbeEsqKYpTR1vRzKis5SUtK0IL5I
lhVlHH2GAVm0TdXUvLfACpONWvhsJgku3OeNTJn+qVqRT6A4bYdqIREcC11LIfYv
x1JAF52T3cFN+Uysg5yiHItU3qNXedw1fcs2Sp2/aAvChIf3WdtsnRbR9D+TShJ7
1DgwxCNjvjbKurXKxau6sbe3+O94oDsnSGSssmZtFlVhYvxD2DIxlCq00lC6ECyX
jh0VP+IaPKyk9fBFV6bpxeOclQvbIz447HHj
-----END CERTIFICATE-----
