Certificate:
    Data:
        Version: 3 (0x2)
        Serial Number:
            ab:62:ec:f5:a6:11:a9:4e:ca:ca:de:a2:23:3c:e1:d1
        Signature Algorithm: sha256WithRSAEncryption
        Issuer: CN=team336-net
        Validity
            Not Before: May 18 20:20:02 2022 GMT
            Not After : May  2 20:20:02 2025 GMT
        Subject: CN=team336-client
        Subject Public Key Info:
            Public Key Algorithm: rsaEncryption
                RSA Public-Key: (2048 bit)
                Modulus:
                    00:df:2c:34:2a:4c:eb:49:39:7a:61:2d:05:e0:8f:
                    44:66:00:97:8c:3f:cb:52:97:a0:59:86:ab:82:2f:
                    3d:12:30:97:ce:58:24:9a:f6:6c:9f:63:c0:c0:62:
                    a5:9f:fd:e0:06:e8:d2:62:47:e9:5d:5c:67:99:03:
                    ed:83:e6:61:38:b7:1d:93:25:b6:41:2d:11:81:82:
                    61:79:bd:2a:ef:14:a5:98:fd:68:46:35:2f:e2:1a:
                    0a:1f:91:a9:3d:98:44:26:88:d3:55:31:2f:eb:24:
                    85:b0:4b:62:a6:a1:57:f8:d5:20:cb:ef:53:12:75:
                    f5:94:b3:4b:88:c4:4e:81:32:4d:5b:0c:d9:c2:85:
                    2b:fd:5a:f0:5a:13:ed:ef:77:7b:68:f8:e6:68:28:
                    80:3c:8a:22:cc:0b:6a:bb:70:fc:e6:87:6a:cf:63:
                    4d:7b:49:f5:72:81:6f:44:63:c9:df:e9:9a:63:eb:
                    2e:67:82:32:fd:81:17:ab:be:c7:a9:26:13:30:b9:
                    54:fa:74:9b:07:33:39:7d:4f:89:8b:24:2e:04:e6:
                    7e:e7:3a:b6:3e:0e:9f:66:10:7e:de:9a:1d:99:9d:
                    35:1a:f3:b9:e0:00:0d:a1:d7:ac:fc:ac:39:db:d7:
                    f9:3e:4b:5e:8e:11:8c:75:dc:f3:95:27:29:2b:5c:
                    c1:9d
                Exponent: 65537 (0x10001)
        X509v3 extensions:
            X509v3 Basic Constraints: 
                CA:FALSE
            X509v3 Subject Key Identifier: 
                4E:C2:64:3C:93:78:EF:50:E4:76:83:BF:B8:54:67:18:29:43:C5:AC
            X509v3 Authority Key Identifier: 
                keyid:82:8F:97:B1:A3:29:B7:E7:C1:88:36:40:E7:11:37:11:44:35:6D:2C
                DirName:/CN=team336-net
                serial:2F:C0:B0:64:6E:5A:BF:FC:F9:3D:B9:40:54:C1:0F:48:31:F7:74:44

            X509v3 Extended Key Usage: 
                TLS Web Client Authentication
            X509v3 Key Usage: 
                Digital Signature
    Signature Algorithm: sha256WithRSAEncryption
         40:28:5a:c1:29:dc:59:26:53:7a:f0:c3:39:8d:be:4c:42:80:
         f1:2d:7e:2e:3b:7f:05:ca:c2:02:44:79:56:dd:c9:ae:5b:37:
         fe:f1:6a:ec:67:51:65:77:c6:05:26:4f:d8:bf:c8:a5:84:b3:
         f6:16:00:4a:0b:c7:f7:57:b3:7e:91:95:d1:d1:30:ef:da:77:
         13:29:5d:f8:5b:96:d7:d2:a7:9a:a6:55:38:bb:83:f0:87:65:
         5e:60:27:b1:56:c1:43:e0:f7:bf:31:b8:9b:5f:2c:22:71:44:
         7a:e7:60:76:9e:51:70:88:d1:b4:36:e9:91:80:7c:f3:d2:1e:
         5d:3d:22:77:4e:34:40:03:03:e3:f1:74:70:df:6a:5d:b6:26:
         1e:57:68:ab:77:0f:2a:21:7c:84:2a:c2:a1:0f:5b:df:41:85:
         81:71:af:a6:6a:06:a9:cc:b0:b2:f8:b2:5a:d9:99:78:a2:49:
         e7:6e:11:c9:0d:97:6a:9a:34:90:a3:9a:81:4d:60:6a:52:28:
         95:89:1a:55:a2:cc:3d:57:b4:be:e4:69:26:06:2f:51:b5:01:
         82:c0:66:50:74:28:88:98:2d:81:4c:80:e2:24:ad:80:ad:36:
         a8:30:89:28:bd:28:29:9f:a3:3f:ac:82:bf:13:4f:2e:04:9f:
         74:8c:e5:b7
-----BEGIN CERTIFICATE-----
MIIDXTCCAkWgAwIBAgIRAKti7PWmEalOysreoiM84dEwDQYJKoZIhvcNAQELBQAw
FjEUMBIGA1UEAwwLdGVhbTMzNi1uZXQwHhcNMjIwNTE4MjAyMDAyWhcNMjUwNTAy
MjAyMDAyWjAZMRcwFQYDVQQDDA50ZWFtMzM2LWNsaWVudDCCASIwDQYJKoZIhvcN
AQEBBQADggEPADCCAQoCggEBAN8sNCpM60k5emEtBeCPRGYAl4w/y1KXoFmGq4Iv
PRIwl85YJJr2bJ9jwMBipZ/94Abo0mJH6V1cZ5kD7YPmYTi3HZMltkEtEYGCYXm9
Ku8UpZj9aEY1L+IaCh+RqT2YRCaI01UxL+skhbBLYqahV/jVIMvvUxJ19ZSzS4jE
ToEyTVsM2cKFK/1a8FoT7e93e2j45mgogDyKIswLartw/OaHas9jTXtJ9XKBb0Rj
yd/pmmPrLmeCMv2BF6u+x6kmEzC5VPp0mwczOX1PiYskLgTmfuc6tj4On2YQft6a
HZmdNRrzueAADaHXrPysOdvX+T5LXo4RjHXc85UnKStcwZ0CAwEAAaOBojCBnzAJ
BgNVHRMEAjAAMB0GA1UdDgQWBBROwmQ8k3jvUOR2g7+4VGcYKUPFrDBRBgNVHSME
SjBIgBSCj5exoym358GINkDnETcRRDVtLKEapBgwFjEUMBIGA1UEAwwLdGVhbTMz
Ni1uZXSCFC/AsGRuWr/8+T25QFTBD0gx93REMBMGA1UdJQQMMAoGCCsGAQUFBwMC
MAsGA1UdDwQEAwIHgDANBgkqhkiG9w0BAQsFAAOCAQEAQChawSncWSZTevDDOY2+
TEKA8S1+Ljt/BcrCAkR5Vt3Jrls3/vFq7GdRZXfGBSZP2L/IpYSz9hYASgvH91ez
fpGV0dEw79p3Eyld+FuW19KnmqZVOLuD8IdlXmAnsVbBQ+D3vzG4m18sInFEeudg
dp5RcIjRtDbpkYB889IeXT0id040QAMD4/F0cN9qXbYmHldoq3cPKiF8hCrCoQ9b
30GFgXGvpmoGqcywsviyWtmZeKJJ524RyQ2Xapo0kKOagU1galIolYkaVaLMPVe0
vuRpJgYvUbUBgsBmUHQoiJgtgUyA4iStgK02qDCJKL0oKZ+jP6yCvxNPLgSfdIzl
tw==
-----END CERTIFICATE-----
