Certificate:
    Data:
        Version: 3 (0x2)
        Serial Number:
            e9:91:25:39:aa:fc:50:f5:f5:e6:d3:31:b7:a3:54:9c
        Signature Algorithm: sha256WithRSAEncryption
        Issuer: CN=team305-net
        Validity
            Not Before: May 18 20:10:30 2022 GMT
            Not After : May  2 20:10:30 2025 GMT
        Subject: CN=team305-server
        Subject Public Key Info:
            Public Key Algorithm: rsaEncryption
                RSA Public-Key: (2048 bit)
                Modulus:
                    00:9e:06:37:e5:99:29:ef:97:a9:e2:51:33:86:8e:
                    20:c0:bd:5d:1e:2a:bf:3f:c8:eb:29:85:72:29:62:
                    d2:ff:aa:29:a7:cf:ef:7c:42:b8:a6:a4:13:91:8d:
                    7b:7d:93:28:40:d5:41:d7:2f:b4:f9:21:bb:cb:fe:
                    b3:a8:25:52:b6:de:03:75:01:af:51:ea:b8:45:59:
                    10:13:4b:5a:af:93:dc:62:0d:f9:38:22:48:5c:64:
                    44:d0:30:45:5d:72:ec:00:c3:33:85:d5:7d:63:20:
                    14:c4:68:5d:9d:da:c7:f5:e8:25:38:bb:fd:d5:3b:
                    6e:ce:ed:2a:2b:08:f7:f9:4b:c2:09:1c:aa:07:7c:
                    6f:a2:5d:41:78:24:eb:ca:9c:c2:29:9f:0f:70:e0:
                    15:d6:90:8e:cb:7b:f8:0b:f1:4f:8d:d5:d9:2c:14:
                    01:e2:9c:7f:97:06:86:4f:77:7b:96:57:85:8d:b8:
                    34:89:db:66:62:43:68:cd:db:42:eb:e2:45:11:bd:
                    28:87:a5:ca:c7:ed:e8:9c:2f:51:72:2b:11:bb:43:
                    50:e9:d8:b2:18:b1:f7:dc:2b:b5:c7:17:ed:dd:a7:
                    7f:38:63:2f:a1:46:56:d4:d1:13:1f:0b:d0:ba:f8:
                    3c:78:bb:ec:7a:c7:42:63:6b:ce:49:98:21:db:51:
                    61:0f
                Exponent: 65537 (0x10001)
        X509v3 extensions:
            X509v3 Basic Constraints: 
                CA:FALSE
            X509v3 Subject Key Identifier: 
                C7:33:05:79:BE:09:B6:30:94:D1:A9:9F:0E:6D:C0:BD:5E:4E:80:AB
            X509v3 Authority Key Identifier: 
                keyid:A0:56:54:BB:98:1E:00:31:AE:74:08:2C:BE:E9:3A:D3:7F:2B:9F:04
                DirName:/CN=team305-net
                serial:35:BE:EA:D7:E7:B2:9F:54:26:45:82:19:D3:A4:09:94:84:CE:B9:95

            X509v3 Extended Key Usage: 
                TLS Web Server Authentication
            X509v3 Key Usage: 
                Digital Signature, Key Encipherment
            X509v3 Subject Alternative Name: 
                DNS:team305-server
    Signature Algorithm: sha256WithRSAEncryption
         bc:0c:1b:e8:08:ef:57:9b:79:85:d2:70:c3:1e:d7:d5:cd:4c:
         bf:c2:56:fb:a1:8c:fb:36:d3:51:cb:ce:1c:59:d2:a3:15:91:
         4f:c3:e4:04:9b:5b:e1:a2:8f:68:00:55:75:10:be:b8:34:47:
         b0:7c:0b:70:9d:71:d7:58:b8:ee:fa:1b:44:c1:4c:74:97:0e:
         33:3d:ab:3d:ae:f9:3d:32:e5:db:a3:9d:55:ae:3f:7c:8b:c4:
         18:74:71:0e:aa:d6:54:e8:2d:71:f5:94:aa:1c:21:36:d1:15:
         e3:fd:1f:9b:70:e5:64:df:cd:0d:04:09:07:20:11:62:9c:3b:
         13:e7:e2:36:12:21:45:c7:65:65:fc:21:ca:64:4f:c5:fc:6b:
         63:05:f6:61:94:ae:39:41:ee:42:d1:06:a3:82:9c:ab:44:39:
         fa:58:f0:71:00:73:fd:fe:7c:cb:ea:45:58:98:a2:9e:ff:0a:
         26:2f:db:ba:e4:64:17:eb:be:46:5b:7e:b5:29:04:b4:fe:61:
         ee:a4:c2:73:eb:cd:8c:86:a5:f8:f7:10:33:1a:92:12:e3:3e:
         6a:55:d1:0b:3e:2e:6c:d3:bc:74:01:04:aa:52:0f:69:f6:2c:
         2a:5b:67:3f:94:14:2b:bd:40:05:c5:65:42:4c:dc:f3:da:3a:
         80:28:5c:89
-----BEGIN CERTIFICATE-----
MIIDeDCCAmCgAwIBAgIRAOmRJTmq/FD19ebTMbejVJwwDQYJKoZIhvcNAQELBQAw
FjEUMBIGA1UEAwwLdGVhbTMwNS1uZXQwHhcNMjIwNTE4MjAxMDMwWhcNMjUwNTAy
MjAxMDMwWjAZMRcwFQYDVQQDDA50ZWFtMzA1LXNlcnZlcjCCASIwDQYJKoZIhvcN
AQEBBQADggEPADCCAQoCggEBAJ4GN+WZKe+XqeJRM4aOIMC9XR4qvz/I6ymFcili
0v+qKafP73xCuKakE5GNe32TKEDVQdcvtPkhu8v+s6glUrbeA3UBr1HquEVZEBNL
Wq+T3GIN+TgiSFxkRNAwRV1y7ADDM4XVfWMgFMRoXZ3ax/XoJTi7/dU7bs7tKisI
9/lLwgkcqgd8b6JdQXgk68qcwimfD3DgFdaQjst7+AvxT43V2SwUAeKcf5cGhk93
e5ZXhY24NInbZmJDaM3bQuviRRG9KIelysft6JwvUXIrEbtDUOnYshix99wrtccX
7d2nfzhjL6FGVtTREx8L0Lr4PHi77HrHQmNrzkmYIdtRYQ8CAwEAAaOBvTCBujAJ
BgNVHRMEAjAAMB0GA1UdDgQWBBTHMwV5vgm2MJTRqZ8ObcC9Xk6AqzBRBgNVHSME
SjBIgBSgVlS7mB4AMa50CCy+6TrTfyufBKEapBgwFjEUMBIGA1UEAwwLdGVhbTMw
NS1uZXSCFDW+6tfnsp9UJkWCGdOkCZSEzrmVMBMGA1UdJQQMMAoGCCsGAQUFBwMB
MAsGA1UdDwQEAwIFoDAZBgNVHREEEjAQgg50ZWFtMzA1LXNlcnZlcjANBgkqhkiG
9w0BAQsFAAOCAQEAvAwb6AjvV5t5hdJwwx7X1c1Mv8JW+6GM+zbTUcvOHFnSoxWR
T8PkBJtb4aKPaABVdRC+uDRHsHwLcJ1x11i47vobRMFMdJcOMz2rPa75PTLl26Od
Va4/fIvEGHRxDqrWVOgtcfWUqhwhNtEV4/0fm3DlZN/NDQQJByARYpw7E+fiNhIh
RcdlZfwhymRPxfxrYwX2YZSuOUHuQtEGo4Kcq0Q5+ljwcQBz/f58y+pFWJiinv8K
Ji/buuRkF+u+Rlt+tSkEtP5h7qTCc+vNjIal+PcQMxqSEuM+alXRCz4ubNO8dAEE
qlIPafYsKltnP5QUK71ABcVlQkzc89o6gChciQ==
-----END CERTIFICATE-----
