Certificate:
    Data:
        Version: 3 (0x2)
        Serial Number:
            30:03:16:56:b7:a8:56:5a:d1:20:3c:f4:7f:c9:27:fb
        Signature Algorithm: sha256WithRSAEncryption
        Issuer: CN=team489-net
        Validity
            Not Before: May 18 21:37:34 2022 GMT
            Not After : May  2 21:37:34 2025 GMT
        Subject: CN=team489-server
        Subject Public Key Info:
            Public Key Algorithm: rsaEncryption
                RSA Public-Key: (2048 bit)
                Modulus:
                    00:a0:e2:f5:96:62:89:ea:12:a9:c6:8b:c2:ca:4c:
                    da:d3:4d:06:08:22:f2:bc:6b:4f:d9:c7:6c:e1:6a:
                    2a:a5:4a:c3:e2:2c:44:60:d6:c9:98:bc:6b:52:f0:
                    d5:1e:30:ab:00:5e:1e:d7:b5:24:a0:f8:13:1e:47:
                    83:e3:5e:3d:83:40:ad:81:20:de:30:f3:f3:1d:a6:
                    7f:fb:39:71:a7:40:ca:68:38:c4:bd:67:4d:82:0d:
                    2f:01:e5:b7:60:27:ed:02:29:ac:16:ba:52:6a:c1:
                    e9:fc:f5:ec:8a:7f:35:99:3d:d6:0a:86:4c:6b:6e:
                    cb:91:22:da:21:22:c7:a9:2b:9a:1b:6b:31:ff:5e:
                    59:e5:c2:19:e2:e0:82:a5:04:2e:3a:2f:63:34:63:
                    0a:6d:32:20:0d:c0:65:bf:fe:9d:b1:00:d2:88:46:
                    ba:e0:88:41:49:99:ec:a6:e2:9d:c9:48:1f:7a:17:
                    cb:f3:f0:d6:ec:e2:ee:c2:5b:c8:93:45:09:f7:d5:
                    7c:64:f5:22:2b:1a:b8:6b:40:2f:00:57:47:4b:9d:
                    09:c1:e2:2e:cd:de:50:4c:1a:a6:07:ac:11:34:a9:
                    a6:70:3d:4c:69:39:00:ba:a6:0f:da:1c:ae:2a:1a:
                    a2:2d:a2:f5:7f:a3:f8:86:a0:fa:02:0e:34:b6:1a:
                    d0:cf
                Exponent: 65537 (0x10001)
        X509v3 extensions:
            X509v3 Basic Constraints: 
                CA:FALSE
            X509v3 Subject Key Identifier: 
                E8:59:22:08:0C:C1:E3:A2:C4:23:E9:60:B4:5B:BC:16:B0:F4:88:61
            X509v3 Authority Key Identifier: 
                keyid:65:73:74:EE:83:82:C8:30:A3:8F:D5:75:6C:8A:BF:21:FF:22:93:8C
                DirName:/CN=team489-net
                serial:03:BC:5A:90:A7:00:E6:F9:7F:3B:3E:00:61:88:78:6D:37:87:53:86

            X509v3 Extended Key Usage: 
                TLS Web Server Authentication
            X509v3 Key Usage: 
                Digital Signature, Key Encipherment
            X509v3 Subject Alternative Name: 
                DNS:team489-server
    Signature Algorithm: sha256WithRSAEncryption
         4e:ce:67:e0:f5:9a:2a:8b:86:8c:a7:5a:85:5a:0c:ec:c4:8e:
         43:2c:19:a1:32:56:cf:e9:22:bb:6f:1c:a0:bc:c3:a9:31:56:
         8e:c9:df:27:f7:8a:dd:87:65:62:99:8d:fd:9f:9a:cf:76:27:
         da:d1:3c:b8:cc:fb:03:9f:0f:82:76:e0:fd:55:91:d7:9a:d7:
         13:e8:31:ad:60:c2:5a:a3:dc:a9:c7:f4:c5:05:bc:8b:39:b6:
         c2:a8:d9:4d:55:0b:0a:a7:56:40:63:ce:a6:41:45:87:2c:a7:
         3c:dd:2c:03:b0:d5:08:bb:77:50:b0:4a:22:bc:a1:c2:1c:b5:
         53:6c:0a:84:73:3a:1a:9a:b3:01:14:82:b3:d7:2c:17:82:d0:
         8d:4d:c9:67:bd:a0:9e:76:4b:3d:4d:e1:6e:0d:03:33:ad:98:
         b8:b7:ea:de:a1:4c:93:aa:ef:fd:61:41:70:1a:27:11:3d:9f:
         7b:aa:12:0e:36:27:04:5a:e7:a2:2f:2d:26:a1:f5:5e:fc:16:
         10:72:0a:d2:20:4a:28:24:ca:cf:56:29:cd:c3:ef:42:20:c1:
         b0:76:cd:5a:87:1e:4c:e2:b9:b8:2e:83:69:a1:aa:c2:40:8d:
         00:b3:8d:ef:c2:dc:3c:e2:06:8e:f7:99:b3:14:13:cd:ea:5a:
         2f:43:d5:26
-----BEGIN CERTIFICATE-----
MIIDdzCCAl+gAwIBAgIQMAMWVreoVlrRIDz0f8kn+zANBgkqhkiG9w0BAQsFADAW
MRQwEgYDVQQDDAt0ZWFtNDg5LW5ldDAeFw0yMjA1MTgyMTM3MzRaFw0yNTA1MDIy
MTM3MzRaMBkxFzAVBgNVBAMMDnRlYW00ODktc2VydmVyMIIBIjANBgkqhkiG9w0B
AQEFAAOCAQ8AMIIBCgKCAQEAoOL1lmKJ6hKpxovCykza000GCCLyvGtP2cds4Woq
pUrD4ixEYNbJmLxrUvDVHjCrAF4e17UkoPgTHkeD4149g0CtgSDeMPPzHaZ/+zlx
p0DKaDjEvWdNgg0vAeW3YCftAimsFrpSasHp/PXsin81mT3WCoZMa27LkSLaISLH
qSuaG2sx/15Z5cIZ4uCCpQQuOi9jNGMKbTIgDcBlv/6dsQDSiEa64IhBSZnspuKd
yUgfehfL8/DW7OLuwlvIk0UJ99V8ZPUiKxq4a0AvAFdHS50JweIuzd5QTBqmB6wR
NKmmcD1MaTkAuqYP2hyuKhqiLaL1f6P4hqD6Ag40thrQzwIDAQABo4G9MIG6MAkG
A1UdEwQCMAAwHQYDVR0OBBYEFOhZIggMweOixCPpYLRbvBaw9IhhMFEGA1UdIwRK
MEiAFGVzdO6Dgsgwo4/VdWyKvyH/IpOMoRqkGDAWMRQwEgYDVQQDDAt0ZWFtNDg5
LW5ldIIUA7xakKcA5vl/Oz4AYYh4bTeHU4YwEwYDVR0lBAwwCgYIKwYBBQUHAwEw
CwYDVR0PBAQDAgWgMBkGA1UdEQQSMBCCDnRlYW00ODktc2VydmVyMA0GCSqGSIb3
DQEBCwUAA4IBAQBOzmfg9Zoqi4aMp1qFWgzsxI5DLBmhMlbP6SK7bxygvMOpMVaO
yd8n94rdh2VimY39n5rPdifa0Ty4zPsDnw+CduD9VZHXmtcT6DGtYMJao9ypx/TF
BbyLObbCqNlNVQsKp1ZAY86mQUWHLKc83SwDsNUIu3dQsEoivKHCHLVTbAqEczoa
mrMBFIKz1ywXgtCNTclnvaCedks9TeFuDQMzrZi4t+reoUyTqu/9YUFwGicRPZ97
qhIONicEWueiLy0mofVe/BYQcgrSIEooJMrPVinNw+9CIMGwds1ahx5M4rm4LoNp
oarCQI0As43vwtw84gaO95mzFBPN6lovQ9Um
-----END CERTIFICATE-----
