Certificate:
    Data:
        Version: 3 (0x2)
        Serial Number:
            95:3b:81:d5:f6:21:ce:da:ef:39:00:6d:be:ba:a6:1d
        Signature Algorithm: sha256WithRSAEncryption
        Issuer: CN=team727-net
        Validity
            Not Before: May 18 23:59:31 2022 GMT
            Not After : May  2 23:59:31 2025 GMT
        Subject: CN=team727-server
        Subject Public Key Info:
            Public Key Algorithm: rsaEncryption
                RSA Public-Key: (2048 bit)
                Modulus:
                    00:e7:f8:68:cc:c7:ce:96:fc:82:c1:f5:13:2a:18:
                    ac:e0:c4:78:4e:39:27:02:26:22:2c:43:12:ce:df:
                    11:f3:50:72:80:e0:f5:b7:0d:11:ee:b1:64:97:52:
                    10:28:9b:82:df:49:43:0f:55:23:59:fc:ab:a9:d1:
                    88:9e:47:85:73:59:fb:a3:02:47:ab:f5:9f:24:62:
                    9a:d0:2d:16:18:1c:d7:9a:73:93:1b:ab:d8:22:ee:
                    cf:7a:5a:c3:1e:59:a6:c3:07:2f:b7:6e:45:61:41:
                    87:32:b3:80:66:4e:36:d3:aa:10:2f:92:3e:fe:a5:
                    85:f0:96:dd:d4:41:f8:56:93:9e:8a:6b:00:86:03:
                    20:4a:ce:76:14:7c:40:ab:e1:69:5d:a3:75:ec:81:
                    79:e1:b4:53:f3:f6:f2:87:6e:c1:5f:b5:e8:09:04:
                    76:ef:b1:69:55:58:78:ea:ff:42:22:10:18:76:71:
                    51:de:59:35:ad:54:0c:b0:18:a6:19:79:d8:64:93:
                    70:c6:87:a9:81:59:95:2d:a3:27:42:e0:85:41:6c:
                    4b:da:c1:db:37:6b:f3:04:1f:eb:e8:c0:fc:90:2b:
                    08:f8:ad:bf:0d:02:24:6a:75:04:d8:0a:64:b1:3d:
                    70:5a:67:76:02:c2:a5:db:6c:c7:fd:18:83:70:70:
                    d1:8d
                Exponent: 65537 (0x10001)
        X509v3 extensions:
            X509v3 Basic Constraints: 
                CA:FALSE
            X509v3 Subject Key Identifier: 
                E9:E9:5A:1A:3B:0A:7C:EE:25:CC:A7:64:45:4D:23:0F:60:BB:35:D6
            X509v3 Authority Key Identifier: 
                keyid:26:56:B3:F0:5A:A0:93:F9:14:4E:BB:E4:61:D0:A9:03:F3:BA:B8:78
                DirName:/CN=team727-net
                serial:25:E2:C1:EB:01:AC:50:C1:8B:BC:F3:69:04:4D:94:0C:BF:5E:4B:AD

            X509v3 Extended Key Usage: 
                TLS Web Server Authentication
            X509v3 Key Usage: 
                Digital Signature, Key Encipherment
            X509v3 Subject Alternative Name: 
                DNS:team727-server
    Signature Algorithm: sha256WithRSAEncryption
         56:a4:4a:e4:7b:ff:f1:21:4d:c1:26:80:6c:76:ad:2f:bd:c7:
         fa:d7:5a:95:66:a4:15:d5:01:26:46:24:61:ec:df:4d:3f:64:
         84:10:8e:d6:60:7e:5d:ca:51:4f:f6:af:98:fc:1b:08:15:bc:
         9a:2b:93:d3:c9:20:8b:cb:08:ca:f7:18:97:5b:66:6f:65:9f:
         8f:36:b1:af:a7:5a:d5:d8:25:c2:c3:f2:20:59:53:ce:ff:00:
         df:8e:6e:3c:3e:f4:19:62:34:93:97:74:bc:6a:42:90:47:54:
         5d:68:78:2b:9a:99:b7:ed:3d:2e:4d:f8:f6:f3:2f:f7:cd:0d:
         ca:7a:5a:ef:b0:d8:9c:64:52:02:0b:6f:6e:47:87:f3:7a:75:
         ee:27:23:02:6f:56:13:5e:69:2d:0f:85:d3:1e:f0:93:4a:8e:
         ca:16:95:a8:bb:9e:2d:5a:66:40:98:f5:4f:48:b0:da:a7:37:
         e4:bc:09:26:91:68:68:cc:e5:64:59:8c:57:8e:7e:45:40:86:
         2a:01:61:ce:08:c0:6e:ed:9e:e2:cf:fa:82:0b:b5:15:02:81:
         e9:d4:34:14:ac:e2:9f:a1:39:53:c9:38:89:82:c3:18:10:76:
         25:66:80:ed:83:f9:24:16:9e:29:f9:80:0d:1f:c4:96:ee:39:
         21:3b:3f:30
-----BEGIN CERTIFICATE-----
MIIDeDCCAmCgAwIBAgIRAJU7gdX2Ic7a7zkAbb66ph0wDQYJKoZIhvcNAQELBQAw
FjEUMBIGA1UEAwwLdGVhbTcyNy1uZXQwHhcNMjIwNTE4MjM1OTMxWhcNMjUwNTAy
MjM1OTMxWjAZMRcwFQYDVQQDDA50ZWFtNzI3LXNlcnZlcjCCASIwDQYJKoZIhvcN
AQEBBQADggEPADCCAQoCggEBAOf4aMzHzpb8gsH1EyoYrODEeE45JwImIixDEs7f
EfNQcoDg9bcNEe6xZJdSECibgt9JQw9VI1n8q6nRiJ5HhXNZ+6MCR6v1nyRimtAt
Fhgc15pzkxur2CLuz3pawx5ZpsMHL7duRWFBhzKzgGZONtOqEC+SPv6lhfCW3dRB
+FaTnoprAIYDIErOdhR8QKvhaV2jdeyBeeG0U/P28oduwV+16AkEdu+xaVVYeOr/
QiIQGHZxUd5ZNa1UDLAYphl52GSTcMaHqYFZlS2jJ0LghUFsS9rB2zdr8wQf6+jA
/JArCPitvw0CJGp1BNgKZLE9cFpndgLCpdtsx/0Yg3Bw0Y0CAwEAAaOBvTCBujAJ
BgNVHRMEAjAAMB0GA1UdDgQWBBTp6VoaOwp87iXMp2RFTSMPYLs11jBRBgNVHSME
SjBIgBQmVrPwWqCT+RROu+Rh0KkD87q4eKEapBgwFjEUMBIGA1UEAwwLdGVhbTcy
Ny1uZXSCFCXiwesBrFDBi7zzaQRNlAy/XkutMBMGA1UdJQQMMAoGCCsGAQUFBwMB
MAsGA1UdDwQEAwIFoDAZBgNVHREEEjAQgg50ZWFtNzI3LXNlcnZlcjANBgkqhkiG
9w0BAQsFAAOCAQEAVqRK5Hv/8SFNwSaAbHatL73H+tdalWakFdUBJkYkYezfTT9k
hBCO1mB+XcpRT/avmPwbCBW8miuT08kgi8sIyvcYl1tmb2Wfjzaxr6da1dglwsPy
IFlTzv8A345uPD70GWI0k5d0vGpCkEdUXWh4K5qZt+09Lk349vMv980Nynpa77DY
nGRSAgtvbkeH83p17icjAm9WE15pLQ+F0x7wk0qOyhaVqLueLVpmQJj1T0iw2qc3
5LwJJpFoaMzlZFmMV45+RUCGKgFhzgjAbu2e4s/6ggu1FQKB6dQ0FKzin6E5U8k4
iYLDGBB2JWaA7YP5JBaeKfmADR/Elu45ITs/MA==
-----END CERTIFICATE-----
