Certificate:
    Data:
        Version: 3 (0x2)
        Serial Number:
            a5:c6:93:5c:f7:6d:26:be:e6:1b:56:25:fe:43:e1:0a
        Signature Algorithm: sha256WithRSAEncryption
        Issuer: CN=team727-net
        Validity
            Not Before: May 18 23:59:31 2022 GMT
            Not After : May  2 23:59:31 2025 GMT
        Subject: CN=team727-client
        Subject Public Key Info:
            Public Key Algorithm: rsaEncryption
                RSA Public-Key: (2048 bit)
                Modulus:
                    00:c5:72:bb:89:a1:d2:3c:32:f2:c7:ab:88:51:5a:
                    d2:ce:50:0e:a8:aa:c6:77:a2:53:3b:eb:8c:45:6c:
                    bb:ff:5d:de:f3:c4:95:fd:91:8d:a9:1d:c4:f3:60:
                    3e:8d:88:f5:e7:56:d1:73:43:d1:dd:40:bd:9d:f2:
                    ad:44:10:46:c0:88:21:7e:15:ff:62:a4:59:cf:13:
                    14:21:25:9d:a2:1d:fd:fe:8e:81:4b:60:7a:76:12:
                    d3:a2:c7:7b:27:f1:25:6e:61:9a:b4:c2:98:31:03:
                    85:e5:88:c7:99:a1:cc:e5:68:98:19:1f:16:06:38:
                    a4:73:bd:81:85:c9:28:ca:c6:42:7e:0f:d1:3f:71:
                    f7:a0:e9:09:04:6f:f4:f7:a8:65:7a:f7:69:e3:2d:
                    05:66:21:65:38:7a:81:28:cd:9b:03:d3:c5:1e:d0:
                    c0:35:c3:2b:6b:bd:91:ef:af:47:08:4a:c3:9c:1c:
                    f1:31:23:31:5d:78:58:35:80:80:25:80:7d:11:74:
                    25:68:8f:bd:44:8e:af:a9:27:ad:6d:1d:5c:ee:a6:
                    d3:92:5c:f6:0b:81:bb:11:c8:3e:d1:46:8c:16:5f:
                    ac:c3:b2:01:84:65:16:c8:45:c6:84:7a:b6:7e:a8:
                    c4:00:cc:cc:87:75:2b:78:f2:84:7f:78:e1:0e:9d:
                    af:ed
                Exponent: 65537 (0x10001)
        X509v3 extensions:
            X509v3 Basic Constraints: 
                CA:FALSE
            X509v3 Subject Key Identifier: 
                5B:02:35:B5:4C:B4:54:CC:EA:7A:23:3F:32:8D:86:CD:1E:14:CB:0F
            X509v3 Authority Key Identifier: 
                keyid:26:56:B3:F0:5A:A0:93:F9:14:4E:BB:E4:61:D0:A9:03:F3:BA:B8:78
                DirName:/CN=team727-net
                serial:25:E2:C1:EB:01:AC:50:C1:8B:BC:F3:69:04:4D:94:0C:BF:5E:4B:AD

            X509v3 Extended Key Usage: 
                TLS Web Client Authentication
            X509v3 Key Usage: 
                Digital Signature
    Signature Algorithm: sha256WithRSAEncryption
         ae:a1:3c:58:45:96:77:57:ca:a7:32:6d:53:4e:69:2d:01:b3:
         af:3f:93:93:e5:92:72:ce:5a:a9:ec:96:5c:8c:a3:28:51:13:
         99:99:f6:f2:45:97:fa:fb:c6:27:75:ac:20:03:4a:e6:c5:9a:
         07:cf:a0:64:ac:a8:b6:03:da:04:01:05:29:9d:0b:ba:3d:ec:
         f1:61:bc:cc:c6:b2:3a:51:53:81:31:fc:e8:85:42:1b:6c:0a:
         c9:5e:40:09:e7:55:2d:ea:9e:e4:a5:4a:2c:c7:f8:e6:f1:2e:
         32:b2:5c:f5:b7:5c:7b:98:ea:ba:31:50:f7:98:ec:a5:21:31:
         d5:a7:47:f9:29:d9:8a:3c:df:26:2c:cf:3d:51:10:61:49:aa:
         fb:f3:ee:09:52:e6:78:1b:de:22:76:7d:98:b4:1a:a4:bc:e9:
         5f:4d:6b:6e:cc:cd:74:8a:ec:d3:65:7a:0a:e6:94:27:a2:9d:
         b4:9a:b7:48:7a:4e:f0:f7:43:89:ad:eb:9b:0c:fd:42:5c:7f:
         19:a7:93:a5:08:16:f0:c1:73:13:cd:3d:08:81:24:ed:7c:47:
         d9:ca:f9:05:46:38:47:7c:8b:af:be:80:8d:db:18:21:85:6b:
         7e:c6:88:82:8f:ed:9d:27:7f:fb:d2:2c:93:b2:a2:ab:19:4c:
         64:25:e7:f4
-----BEGIN CERTIFICATE-----
MIIDXTCCAkWgAwIBAgIRAKXGk1z3bSa+5htWJf5D4QowDQYJKoZIhvcNAQELBQAw
FjEUMBIGA1UEAwwLdGVhbTcyNy1uZXQwHhcNMjIwNTE4MjM1OTMxWhcNMjUwNTAy
MjM1OTMxWjAZMRcwFQYDVQQDDA50ZWFtNzI3LWNsaWVudDCCASIwDQYJKoZIhvcN
AQEBBQADggEPADCCAQoCggEBAMVyu4mh0jwy8seriFFa0s5QDqiqxneiUzvrjEVs
u/9d3vPElf2RjakdxPNgPo2I9edW0XND0d1AvZ3yrUQQRsCIIX4V/2KkWc8TFCEl
naId/f6OgUtgenYS06LHeyfxJW5hmrTCmDEDheWIx5mhzOVomBkfFgY4pHO9gYXJ
KMrGQn4P0T9x96DpCQRv9PeoZXr3aeMtBWYhZTh6gSjNmwPTxR7QwDXDK2u9ke+v
RwhKw5wc8TEjMV14WDWAgCWAfRF0JWiPvUSOr6knrW0dXO6m05Jc9guBuxHIPtFG
jBZfrMOyAYRlFshFxoR6tn6oxADMzId1K3jyhH944Q6dr+0CAwEAAaOBojCBnzAJ
BgNVHRMEAjAAMB0GA1UdDgQWBBRbAjW1TLRUzOp6Iz8yjYbNHhTLDzBRBgNVHSME
SjBIgBQmVrPwWqCT+RROu+Rh0KkD87q4eKEapBgwFjEUMBIGA1UEAwwLdGVhbTcy
Ny1uZXSCFCXiwesBrFDBi7zzaQRNlAy/XkutMBMGA1UdJQQMMAoGCCsGAQUFBwMC
MAsGA1UdDwQEAwIHgDANBgkqhkiG9w0BAQsFAAOCAQEArqE8WEWWd1fKpzJtU05p
LQGzrz+Tk+WScs5aqeyWXIyjKFETmZn28kWX+vvGJ3WsIANK5sWaB8+gZKyotgPa
BAEFKZ0Luj3s8WG8zMayOlFTgTH86IVCG2wKyV5ACedVLeqe5KVKLMf45vEuMrJc
9bdce5jqujFQ95jspSEx1adH+SnZijzfJizPPVEQYUmq+/PuCVLmeBveInZ9mLQa
pLzpX01rbszNdIrs02V6CuaUJ6KdtJq3SHpO8PdDia3rmwz9Qlx/GaeTpQgW8MFz
E809CIEk7XxH2cr5BUY4R3yLr76AjdsYIYVrfsaIgo/tnSd/+9Isk7KiqxlMZCXn
9A==
-----END CERTIFICATE-----
