Certificate:
    Data:
        Version: 3 (0x2)
        Serial Number:
            4f:09:86:32:8f:8d:66:1c:d1:e2:b6:f3:29:cf:4f:21
        Signature Algorithm: sha256WithRSAEncryption
        Issuer: CN=team713-net
        Validity
            Not Before: May 18 23:39:51 2022 GMT
            Not After : May  2 23:39:51 2025 GMT
        Subject: CN=team713-client
        Subject Public Key Info:
            Public Key Algorithm: rsaEncryption
                RSA Public-Key: (2048 bit)
                Modulus:
                    00:e7:0c:38:c4:18:e1:53:b3:3b:d3:e5:d7:bb:fa:
                    49:29:47:69:4d:21:3f:09:39:77:06:d1:02:1b:11:
                    b7:9b:3a:8c:85:03:24:c8:b7:d9:55:6a:f7:14:f2:
                    b1:24:c2:91:07:5a:7f:4b:7c:e9:a6:5e:6b:48:7e:
                    ce:54:e9:65:11:9b:3e:e0:e5:4a:0a:0c:c6:8f:e6:
                    c7:62:50:cd:86:55:a5:a6:cc:b5:fe:e2:ad:58:83:
                    f5:e5:7f:93:69:e7:7d:b3:81:49:52:9e:31:0a:e6:
                    d4:c4:c0:4b:2b:48:7f:9a:f3:38:4d:17:27:d4:2e:
                    7f:26:53:e7:7d:34:eb:03:1d:f9:05:39:41:27:4b:
                    4e:40:81:16:6e:19:d5:83:e5:86:4f:08:a7:65:83:
                    52:91:2c:ef:67:ab:27:8f:d2:fb:0d:59:84:88:b7:
                    4e:19:01:06:bc:3d:4f:20:26:e3:22:a1:67:07:db:
                    82:66:de:af:2a:87:a9:5a:ee:42:23:bd:e5:54:4c:
                    bc:1c:bc:4a:f8:1d:71:4a:fe:a6:01:fc:af:47:eb:
                    de:1c:8e:6f:9a:b1:20:e6:d2:36:4b:01:68:ce:18:
                    cd:26:77:0d:77:fe:6e:6b:d7:14:b1:27:bc:fc:04:
                    ae:19:9b:4c:bb:a8:32:0d:04:94:d8:dc:b5:87:41:
                    b0:9d
                Exponent: 65537 (0x10001)
        X509v3 extensions:
            X509v3 Basic Constraints: 
                CA:FALSE
            X509v3 Subject Key Identifier: 
                C2:BC:13:45:35:7D:41:91:D7:F6:15:37:79:5F:5D:42:B9:79:93:B2
            X509v3 Authority Key Identifier: 
                keyid:40:8B:A3:39:59:35:73:1E:9C:B0:73:4B:12:14:7F:7E:15:D5:26:C9
                DirName:/CN=team713-net
                serial:26:1B:E5:86:DD:13:2F:78:11:00:32:BA:9B:41:1C:F5:84:62:9C:8C

            X509v3 Extended Key Usage: 
                TLS Web Client Authentication
            X509v3 Key Usage: 
                Digital Signature
    Signature Algorithm: sha256WithRSAEncryption
         57:cf:ed:68:ee:ae:08:f9:e9:c8:72:65:4d:00:ee:12:d7:88:
         ca:01:75:0e:12:14:7d:bf:9e:dd:0f:37:03:f9:c9:6b:85:b7:
         5e:cd:34:b6:a7:98:cb:b8:c7:66:48:44:9b:b8:2f:8b:31:9c:
         25:0d:5a:d5:d4:f3:39:68:9b:8c:dd:7a:dc:75:98:97:22:9b:
         4b:2e:d1:bb:a3:83:e7:54:b0:43:b6:b5:95:3c:54:3a:89:de:
         b3:e7:f6:5b:98:45:82:3e:72:7e:ec:ec:18:73:0a:a4:cf:92:
         bf:7d:c3:76:93:b4:1c:dc:c4:18:ad:ae:c5:11:47:63:10:e6:
         21:b9:9b:8a:3b:ee:15:4b:5e:f4:b0:33:b6:3d:13:85:78:a0:
         fa:8c:e3:04:d6:12:dd:6e:6d:f4:6d:fc:ad:fd:f9:d9:a3:60:
         69:53:db:5f:f8:14:5b:f9:38:3c:0c:86:d0:2b:7b:0b:fb:7c:
         81:da:4b:1f:36:ef:a5:54:6d:89:bf:3a:74:91:35:73:f5:c4:
         ad:00:c3:60:ea:22:2c:1f:77:ea:99:d7:d5:44:04:66:d5:41:
         7e:9b:23:f1:0d:e9:11:9e:6d:1c:51:0d:2f:84:7d:0c:15:96:
         0f:dd:44:bb:74:3e:96:0d:af:e8:32:2e:66:f5:30:26:3e:a9:
         d5:4a:15:cd
-----BEGIN CERTIFICATE-----
MIIDXDCCAkSgAwIBAgIQTwmGMo+NZhzR4rbzKc9PITANBgkqhkiG9w0BAQsFADAW
MRQwEgYDVQQDDAt0ZWFtNzEzLW5ldDAeFw0yMjA1MTgyMzM5NTFaFw0yNTA1MDIy
MzM5NTFaMBkxFzAVBgNVBAMMDnRlYW03MTMtY2xpZW50MIIBIjANBgkqhkiG9w0B
AQEFAAOCAQ8AMIIBCgKCAQEA5ww4xBjhU7M70+XXu/pJKUdpTSE/CTl3BtECGxG3
mzqMhQMkyLfZVWr3FPKxJMKRB1p/S3zppl5rSH7OVOllEZs+4OVKCgzGj+bHYlDN
hlWlpsy1/uKtWIP15X+Taed9s4FJUp4xCubUxMBLK0h/mvM4TRcn1C5/JlPnfTTr
Ax35BTlBJ0tOQIEWbhnVg+WGTwinZYNSkSzvZ6snj9L7DVmEiLdOGQEGvD1PICbj
IqFnB9uCZt6vKoepWu5CI73lVEy8HLxK+B1xSv6mAfyvR+veHI5vmrEg5tI2SwFo
zhjNJncNd/5ua9cUsSe8/ASuGZtMu6gyDQSU2Ny1h0GwnQIDAQABo4GiMIGfMAkG
A1UdEwQCMAAwHQYDVR0OBBYEFMK8E0U1fUGR1/YVN3lfXUK5eZOyMFEGA1UdIwRK
MEiAFECLozlZNXMenLBzSxIUf34V1SbJoRqkGDAWMRQwEgYDVQQDDAt0ZWFtNzEz
LW5ldIIUJhvlht0TL3gRADK6m0Ec9YRinIwwEwYDVR0lBAwwCgYIKwYBBQUHAwIw
CwYDVR0PBAQDAgeAMA0GCSqGSIb3DQEBCwUAA4IBAQBXz+1o7q4I+enIcmVNAO4S
14jKAXUOEhR9v57dDzcD+clrhbdezTS2p5jLuMdmSESbuC+LMZwlDVrV1PM5aJuM
3XrcdZiXIptLLtG7o4PnVLBDtrWVPFQ6id6z5/ZbmEWCPnJ+7OwYcwqkz5K/fcN2
k7Qc3MQYra7FEUdjEOYhuZuKO+4VS170sDO2PROFeKD6jOME1hLdbm30bfyt/fnZ
o2BpU9tf+BRb+Tg8DIbQK3sL+3yB2ksfNu+lVG2Jvzp0kTVz9cStAMNg6iIsH3fq
mdfVRARm1UF+myPxDekRnm0cUQ0vhH0MFZYP3US7dD6WDa/oMi5m9TAmPqnVShXN
-----END CERTIFICATE-----
