Certificate:
    Data:
        Version: 3 (0x2)
        Serial Number:
            c9:e8:b0:87:9e:14:6a:04:2c:6d:d7:e1:3f:83:3c:fe
        Signature Algorithm: sha256WithRSAEncryption
        Issuer: CN=team750-net
        Validity
            Not Before: May 19 00:13:48 2022 GMT
            Not After : May  3 00:13:48 2025 GMT
        Subject: CN=team750-server
        Subject Public Key Info:
            Public Key Algorithm: rsaEncryption
                RSA Public-Key: (2048 bit)
                Modulus:
                    00:d5:37:5b:ab:08:81:fb:f2:f4:77:71:91:59:62:
                    30:0d:8a:80:3b:0c:1b:1b:34:fe:d9:3b:7a:38:76:
                    1a:bc:b4:61:01:4d:b0:1d:be:3c:da:8d:1f:61:37:
                    ad:94:0c:b9:ef:95:1b:68:bb:d4:23:c6:5f:8b:94:
                    47:03:53:55:33:e8:66:26:1f:51:16:7b:44:23:d1:
                    6c:56:cc:77:68:ec:36:da:95:18:69:21:6b:6c:1f:
                    5d:5c:14:75:a7:77:c9:a2:15:66:a1:6a:c5:67:69:
                    12:0f:00:18:61:16:1c:ac:25:af:ed:20:a9:20:66:
                    99:d2:c4:9f:1a:fa:01:df:b9:a9:05:8b:53:29:45:
                    8e:93:6b:66:91:75:05:da:9b:f0:c2:b6:7f:25:b0:
                    1e:4d:b6:b7:b0:59:f4:3e:6c:81:df:a0:ab:17:30:
                    1e:41:98:26:b1:61:94:d0:82:fc:fe:b9:13:a6:22:
                    70:ca:ed:34:a1:f1:8d:c0:26:72:90:28:fe:f8:d8:
                    90:32:b7:9b:6a:7a:9f:80:6c:08:9e:f6:0c:16:84:
                    d7:fb:bf:d5:b5:40:50:44:db:f6:08:03:b0:5f:ad:
                    74:8c:7f:ff:25:3b:82:43:53:68:4e:6c:d4:17:80:
                    3f:3c:03:e7:00:6f:50:48:1a:0d:26:ab:c1:3a:bd:
                    84:e5
                Exponent: 65537 (0x10001)
        X509v3 extensions:
            X509v3 Basic Constraints: 
                CA:FALSE
            X509v3 Subject Key Identifier: 
                73:3C:A1:9E:3B:DE:55:28:2B:6B:AE:69:29:41:6B:CE:3A:CA:FD:72
            X509v3 Authority Key Identifier: 
                keyid:DE:22:B0:64:D4:03:03:03:47:EB:57:AF:78:EA:4C:A4:5D:22:5E:BF
                DirName:/CN=team750-net
                serial:6F:C2:97:E5:EC:75:92:62:42:39:5E:B9:8C:69:D6:30:31:AF:CC:FA

            X509v3 Extended Key Usage: 
                TLS Web Server Authentication
            X509v3 Key Usage: 
                Digital Signature, Key Encipherment
            X509v3 Subject Alternative Name: 
                DNS:team750-server
    Signature Algorithm: sha256WithRSAEncryption
         b1:0a:0e:e2:d7:a5:f7:73:61:b7:cc:8d:6c:da:e0:8d:cb:94:
         04:bc:37:bb:32:5c:07:01:0e:f8:52:0a:25:55:86:fd:1f:49:
         b8:d2:8b:6a:3c:4c:4c:47:0f:dd:45:fe:9a:6e:75:de:5e:61:
         e9:1e:03:80:bf:1f:83:b3:17:61:19:05:f8:f1:17:c1:d5:09:
         67:51:d4:41:a9:3c:8d:58:fb:4a:95:36:c1:c2:b6:3b:ff:cc:
         d3:80:6a:36:06:ab:d7:2d:c7:4d:d2:c6:55:28:12:39:42:86:
         24:3e:0f:5c:02:e7:0e:6e:b8:ad:9e:cb:89:93:df:9c:5e:10:
         e0:f3:d0:0b:c1:e6:40:c7:a7:71:48:98:cc:be:5f:29:3f:5a:
         94:93:44:52:d8:6d:aa:13:c5:08:cd:39:17:72:9f:bd:44:a1:
         49:63:dc:0d:b5:3c:b3:f3:cf:b5:51:c0:0c:09:bb:07:20:08:
         97:a4:f8:b4:cf:ab:95:11:22:7e:94:81:99:81:76:56:eb:db:
         07:e8:76:4e:db:ac:5f:9b:67:64:fe:0f:86:2c:65:1f:ce:19:
         cb:a3:be:ac:3f:1a:16:88:39:42:0c:f8:31:7b:5f:52:0e:f0:
         e0:21:94:e2:57:37:18:d7:a0:1b:99:a6:2c:d4:62:d7:a9:d3:
         8b:6d:73:96
-----BEGIN CERTIFICATE-----
MIIDeDCCAmCgAwIBAgIRAMnosIeeFGoELG3X4T+DPP4wDQYJKoZIhvcNAQELBQAw
FjEUMBIGA1UEAwwLdGVhbTc1MC1uZXQwHhcNMjIwNTE5MDAxMzQ4WhcNMjUwNTAz
MDAxMzQ4WjAZMRcwFQYDVQQDDA50ZWFtNzUwLXNlcnZlcjCCASIwDQYJKoZIhvcN
AQEBBQADggEPADCCAQoCggEBANU3W6sIgfvy9HdxkVliMA2KgDsMGxs0/tk7ejh2
Gry0YQFNsB2+PNqNH2E3rZQMue+VG2i71CPGX4uURwNTVTPoZiYfURZ7RCPRbFbM
d2jsNtqVGGkha2wfXVwUdad3yaIVZqFqxWdpEg8AGGEWHKwlr+0gqSBmmdLEnxr6
Ad+5qQWLUylFjpNrZpF1Bdqb8MK2fyWwHk22t7BZ9D5sgd+gqxcwHkGYJrFhlNCC
/P65E6YicMrtNKHxjcAmcpAo/vjYkDK3m2p6n4BsCJ72DBaE1/u/1bVAUETb9ggD
sF+tdIx//yU7gkNTaE5s1BeAPzwD5wBvUEgaDSarwTq9hOUCAwEAAaOBvTCBujAJ
BgNVHRMEAjAAMB0GA1UdDgQWBBRzPKGeO95VKCtrrmkpQWvOOsr9cjBRBgNVHSME
SjBIgBTeIrBk1AMDA0frV6946kykXSJev6EapBgwFjEUMBIGA1UEAwwLdGVhbTc1
MC1uZXSCFG/Cl+XsdZJiQjleuYxp1jAxr8z6MBMGA1UdJQQMMAoGCCsGAQUFBwMB
MAsGA1UdDwQEAwIFoDAZBgNVHREEEjAQgg50ZWFtNzUwLXNlcnZlcjANBgkqhkiG
9w0BAQsFAAOCAQEAsQoO4tel93Nht8yNbNrgjcuUBLw3uzJcBwEO+FIKJVWG/R9J
uNKLajxMTEcP3UX+mm513l5h6R4DgL8fg7MXYRkF+PEXwdUJZ1HUQak8jVj7SpU2
wcK2O//M04BqNgar1y3HTdLGVSgSOUKGJD4PXALnDm64rZ7LiZPfnF4Q4PPQC8Hm
QMencUiYzL5fKT9alJNEUthtqhPFCM05F3KfvUShSWPcDbU8s/PPtVHADAm7ByAI
l6T4tM+rlREifpSBmYF2VuvbB+h2TtusX5tnZP4PhixlH84Zy6O+rD8aFog5Qgz4
MXtfUg7w4CGU4lc3GNegG5mmLNRi16nTi21zlg==
-----END CERTIFICATE-----
