Certificate:
    Data:
        Version: 3 (0x2)
        Serial Number:
            2f:94:57:0b:c7:2a:0e:fd:88:71:bd:d6:5a:0c:f7:7e
        Signature Algorithm: sha256WithRSAEncryption
        Issuer: CN=team140-net
        Validity
            Not Before: May 18 18:33:29 2022 GMT
            Not After : May  2 18:33:29 2025 GMT
        Subject: CN=team140-server
        Subject Public Key Info:
            Public Key Algorithm: rsaEncryption
                RSA Public-Key: (2048 bit)
                Modulus:
                    00:ee:ed:45:1c:be:b7:e0:28:bb:b7:a2:07:b9:2d:
                    de:0a:90:84:e6:71:92:9c:17:3c:b2:3a:c1:74:d5:
                    e0:dc:e2:1c:ce:1f:4f:31:f8:86:75:66:cd:1e:19:
                    bf:96:51:ab:af:e2:86:6c:db:b2:f2:12:6b:38:f4:
                    57:b6:21:90:f4:cd:fd:23:c9:c6:09:15:de:57:16:
                    3c:ea:bb:55:fd:ac:c7:bc:b4:73:b2:e9:b4:88:3d:
                    b2:cf:6f:d4:49:a0:ad:c1:dc:8a:c9:e8:d8:48:05:
                    99:61:d5:83:5d:dd:20:d5:63:96:d6:88:fc:39:5d:
                    83:06:f5:a4:eb:9f:37:e0:e0:db:8e:90:b9:74:54:
                    e5:88:85:ba:78:40:e6:e5:dc:72:b6:25:2d:5b:8f:
                    c3:c3:56:be:66:b4:89:b4:f4:6c:01:ff:a0:58:9d:
                    4b:57:3b:9a:ec:f5:dd:b2:56:e5:fb:e9:1c:0b:d8:
                    25:56:9a:b6:25:d5:78:23:19:b9:f7:5e:5c:0c:85:
                    c4:37:6d:a4:68:b4:c0:79:9e:78:c6:51:c2:17:0b:
                    98:75:b6:f8:83:d7:9a:74:34:d5:b4:e3:6c:f5:48:
                    c1:93:f5:2e:11:5b:8c:ac:01:6c:47:78:3e:68:5e:
                    03:87:28:37:aa:2b:a1:ec:c2:a5:f9:8d:f5:b4:4f:
                    c0:91
                Exponent: 65537 (0x10001)
        X509v3 extensions:
            X509v3 Basic Constraints: 
                CA:FALSE
            X509v3 Subject Key Identifier: 
                4C:A5:9E:F2:A9:E4:8A:8C:43:63:A1:AB:6C:9D:85:6F:5C:FE:43:C0
            X509v3 Authority Key Identifier: 
                keyid:E4:F0:F4:6E:DE:4A:D2:5A:40:65:39:54:40:80:93:07:8D:8F:50:B4
                DirName:/CN=team140-net
                serial:65:AC:19:31:41:CE:3F:FA:90:5F:AE:7A:D4:62:11:DC:42:7D:8C:90

            X509v3 Extended Key Usage: 
                TLS Web Server Authentication
            X509v3 Key Usage: 
                Digital Signature, Key Encipherment
            X509v3 Subject Alternative Name: 
                DNS:team140-server
    Signature Algorithm: sha256WithRSAEncryption
         7c:4d:b5:6b:02:06:df:6c:0d:d9:9e:82:f4:f5:c7:08:c9:53:
         e7:ba:db:91:cb:80:8d:2b:96:e2:19:f6:5f:d8:74:fe:b8:d3:
         8c:84:c0:58:54:33:14:91:6c:20:91:41:50:ca:6d:71:0f:91:
         70:4c:3b:04:95:4f:da:ee:a7:fd:06:33:5e:e4:48:c0:d9:d9:
         85:30:41:5e:a9:cb:d4:00:60:4d:5b:96:c5:b9:8f:38:bf:7c:
         ba:f9:42:e8:b3:49:23:94:e6:7b:39:8c:76:a1:43:24:83:ff:
         cc:3c:e2:7a:2e:6c:23:cd:15:7f:04:3a:8e:c7:d7:66:39:5f:
         cb:cd:16:ce:a7:5b:c6:ce:ba:1e:19:47:f1:95:16:91:89:e6:
         23:2f:d4:c7:e9:33:15:7e:c6:60:3f:d6:09:05:ba:0c:18:35:
         df:a4:0e:90:0d:d9:dc:a1:81:6e:f2:2e:0e:b9:f3:04:19:d0:
         b5:85:21:a3:ce:b5:ce:51:52:7a:2f:c0:cf:81:02:79:85:1a:
         a8:c3:ee:34:0c:35:a2:65:10:72:8b:5b:9b:b8:59:aa:7a:f9:
         64:42:71:4a:96:f0:e7:1f:86:a1:cf:db:c4:14:78:8c:4f:55:
         e3:cd:de:4f:a0:c3:f3:e6:6a:5b:c8:60:34:2d:cd:0d:07:14:
         8f:23:2c:ff
-----BEGIN CERTIFICATE-----
MIIDdzCCAl+gAwIBAgIQL5RXC8cqDv2Icb3WWgz3fjANBgkqhkiG9w0BAQsFADAW
MRQwEgYDVQQDDAt0ZWFtMTQwLW5ldDAeFw0yMjA1MTgxODMzMjlaFw0yNTA1MDIx
ODMzMjlaMBkxFzAVBgNVBAMMDnRlYW0xNDAtc2VydmVyMIIBIjANBgkqhkiG9w0B
AQEFAAOCAQ8AMIIBCgKCAQEA7u1FHL634Ci7t6IHuS3eCpCE5nGSnBc8sjrBdNXg
3OIczh9PMfiGdWbNHhm/llGrr+KGbNuy8hJrOPRXtiGQ9M39I8nGCRXeVxY86rtV
/azHvLRzsum0iD2yz2/USaCtwdyKyejYSAWZYdWDXd0g1WOW1oj8OV2DBvWk6583
4ODbjpC5dFTliIW6eEDm5dxytiUtW4/Dw1a+ZrSJtPRsAf+gWJ1LVzua7PXdslbl
++kcC9glVpq2JdV4Ixm5915cDIXEN22kaLTAeZ54xlHCFwuYdbb4g9eadDTVtONs
9UjBk/UuEVuMrAFsR3g+aF4Dhyg3qiuh7MKl+Y31tE/AkQIDAQABo4G9MIG6MAkG
A1UdEwQCMAAwHQYDVR0OBBYEFEylnvKp5IqMQ2Ohq2ydhW9c/kPAMFEGA1UdIwRK
MEiAFOTw9G7eStJaQGU5VECAkweNj1C0oRqkGDAWMRQwEgYDVQQDDAt0ZWFtMTQw
LW5ldIIUZawZMUHOP/qQX6561GIR3EJ9jJAwEwYDVR0lBAwwCgYIKwYBBQUHAwEw
CwYDVR0PBAQDAgWgMBkGA1UdEQQSMBCCDnRlYW0xNDAtc2VydmVyMA0GCSqGSIb3
DQEBCwUAA4IBAQB8TbVrAgbfbA3ZnoL09ccIyVPnutuRy4CNK5biGfZf2HT+uNOM
hMBYVDMUkWwgkUFQym1xD5FwTDsElU/a7qf9BjNe5EjA2dmFMEFeqcvUAGBNW5bF
uY84v3y6+ULos0kjlOZ7OYx2oUMkg//MPOJ6LmwjzRV/BDqOx9dmOV/LzRbOp1vG
zroeGUfxlRaRieYjL9TH6TMVfsZgP9YJBboMGDXfpA6QDdncoYFu8i4OufMEGdC1
hSGjzrXOUVJ6L8DPgQJ5hRqow+40DDWiZRByi1ubuFmqevlkQnFKlvDnH4ahz9vE
FHiMT1Xjzd5PoMPz5mpbyGA0Lc0NBxSPIyz/
-----END CERTIFICATE-----
