Certificate:
    Data:
        Version: 3 (0x2)
        Serial Number:
            e0:66:a3:2f:ff:7e:63:6c:be:84:6d:77:e6:c2:4c:ad
        Signature Algorithm: sha256WithRSAEncryption
        Issuer: CN=team645-net
        Validity
            Not Before: May 18 23:01:28 2022 GMT
            Not After : May  2 23:01:28 2025 GMT
        Subject: CN=team645-client
        Subject Public Key Info:
            Public Key Algorithm: rsaEncryption
                RSA Public-Key: (2048 bit)
                Modulus:
                    00:c9:35:3f:d8:28:4f:2a:f3:7a:1d:a0:09:cd:47:
                    1a:8e:2e:65:2a:00:57:4e:75:7d:a0:91:3b:ed:bb:
                    0b:b0:fc:3f:b9:50:74:22:9a:3c:66:37:2d:b2:71:
                    24:ce:a8:aa:52:34:63:ac:ad:83:37:5f:1a:e8:2e:
                    86:fb:40:a4:0c:90:e7:2d:90:cb:c4:a0:d2:77:12:
                    aa:66:ff:fd:f9:a2:ff:90:79:1e:f8:ba:b0:f5:c9:
                    3b:87:13:e1:94:a0:1f:9c:44:9e:b7:27:4b:23:b3:
                    05:60:0f:f2:36:6a:71:66:16:2e:d1:22:76:ee:aa:
                    03:94:9f:9d:df:31:bc:39:36:15:3d:7e:77:ad:96:
                    c2:4d:9c:c0:41:ab:8e:10:e5:63:37:d0:8f:63:e3:
                    ed:b3:aa:3c:6a:ce:f5:f0:f5:ec:9f:23:96:3f:eb:
                    a5:09:39:d9:57:25:8e:2b:f3:7e:da:f7:3a:ff:f8:
                    b7:d0:12:56:29:ed:f0:f0:05:15:aa:60:a3:ea:6b:
                    2f:67:85:de:c6:ec:92:2b:6b:1a:2a:42:10:93:db:
                    b1:77:f6:7a:a3:6f:f3:6f:ff:c2:6d:eb:7b:89:f2:
                    d7:ca:47:db:cd:6c:f8:33:33:35:e9:61:55:07:cb:
                    e9:09:0e:b9:26:fa:79:e3:3d:f6:e1:c0:f8:e0:1b:
                    f4:57
                Exponent: 65537 (0x10001)
        X509v3 extensions:
            X509v3 Basic Constraints: 
                CA:FALSE
            X509v3 Subject Key Identifier: 
                35:BF:D1:5C:7D:E7:9E:CB:22:B6:78:75:DA:3B:BA:6A:28:2F:2B:0E
            X509v3 Authority Key Identifier: 
                keyid:94:5F:8A:F5:D1:99:83:EF:2B:A0:59:3F:DB:AE:61:2E:78:50:18:1B
                DirName:/CN=team645-net
                serial:4B:A5:FE:58:37:18:AC:60:37:AF:94:86:94:5C:44:47:13:1F:FA:01

            X509v3 Extended Key Usage: 
                TLS Web Client Authentication
            X509v3 Key Usage: 
                Digital Signature
    Signature Algorithm: sha256WithRSAEncryption
         3a:67:12:4b:1d:6f:23:59:c3:da:3d:5f:b0:7b:85:52:1f:9a:
         9a:68:94:6d:5d:36:37:08:6c:3c:52:5a:ec:56:a8:92:10:bf:
         ec:3e:75:fe:b6:46:2c:88:66:e7:8c:53:74:dd:18:8d:4b:9d:
         3c:d5:13:e4:1e:9f:8a:a0:93:5f:64:d3:81:fc:ac:d5:33:e5:
         b1:d5:1d:3d:7d:29:37:a9:66:af:b1:0f:84:52:83:d8:4a:26:
         48:75:58:e8:f6:f9:86:a5:ea:56:ce:d5:1b:a0:1a:04:9a:c4:
         df:be:50:02:df:f3:7d:c8:53:4f:78:92:7d:0a:30:a7:1d:76:
         b8:b4:9d:27:f1:99:b3:74:a9:24:c1:c6:2c:00:a5:43:cb:06:
         26:b6:63:1e:42:ab:7e:f5:6e:ad:dc:5a:2a:e1:3a:ef:a5:36:
         2f:f2:6e:d1:78:54:fe:72:c0:8c:45:2e:9b:6f:86:dc:0f:b2:
         b6:67:8a:ca:04:5a:b9:e8:31:f6:53:c8:d6:72:dc:ba:43:d7:
         c0:7d:06:06:ad:9a:24:47:31:72:08:b0:91:0c:fc:fa:1e:5b:
         78:49:6e:00:a1:b9:4c:57:fd:45:a4:ad:26:8d:3e:78:4b:d5:
         f9:b3:eb:af:26:ac:3c:52:ca:92:da:b9:e3:18:60:bf:32:38:
         c2:2d:0c:0a
-----BEGIN CERTIFICATE-----
MIIDXTCCAkWgAwIBAgIRAOBmoy//fmNsvoRtd+bCTK0wDQYJKoZIhvcNAQELBQAw
FjEUMBIGA1UEAwwLdGVhbTY0NS1uZXQwHhcNMjIwNTE4MjMwMTI4WhcNMjUwNTAy
MjMwMTI4WjAZMRcwFQYDVQQDDA50ZWFtNjQ1LWNsaWVudDCCASIwDQYJKoZIhvcN
AQEBBQADggEPADCCAQoCggEBAMk1P9goTyrzeh2gCc1HGo4uZSoAV051faCRO+27
C7D8P7lQdCKaPGY3LbJxJM6oqlI0Y6ytgzdfGuguhvtApAyQ5y2Qy8Sg0ncSqmb/
/fmi/5B5Hvi6sPXJO4cT4ZSgH5xEnrcnSyOzBWAP8jZqcWYWLtEidu6qA5Sfnd8x
vDk2FT1+d62Wwk2cwEGrjhDlYzfQj2Pj7bOqPGrO9fD17J8jlj/rpQk52Vcljivz
ftr3Ov/4t9ASVint8PAFFapgo+prL2eF3sbskitrGipCEJPbsXf2eqNv82//wm3r
e4ny18pH281s+DMzNelhVQfL6QkOuSb6eeM99uHA+OAb9FcCAwEAAaOBojCBnzAJ
BgNVHRMEAjAAMB0GA1UdDgQWBBQ1v9FcfeeeyyK2eHXaO7pqKC8rDjBRBgNVHSME
SjBIgBSUX4r10ZmD7yugWT/brmEueFAYG6EapBgwFjEUMBIGA1UEAwwLdGVhbTY0
NS1uZXSCFEul/lg3GKxgN6+UhpRcREcTH/oBMBMGA1UdJQQMMAoGCCsGAQUFBwMC
MAsGA1UdDwQEAwIHgDANBgkqhkiG9w0BAQsFAAOCAQEAOmcSSx1vI1nD2j1fsHuF
Uh+ammiUbV02NwhsPFJa7FaokhC/7D51/rZGLIhm54xTdN0YjUudPNUT5B6fiqCT
X2TTgfys1TPlsdUdPX0pN6lmr7EPhFKD2EomSHVY6Pb5hqXqVs7VG6AaBJrE375Q
At/zfchTT3iSfQowpx12uLSdJ/GZs3SpJMHGLAClQ8sGJrZjHkKrfvVurdxaKuE6
76U2L/Ju0XhU/nLAjEUum2+G3A+ytmeKygRauegx9lPI1nLcukPXwH0GBq2aJEcx
cgiwkQz8+h5beEluAKG5TFf9RaStJo0+eEvV+bPrryasPFLKktq54xhgvzI4wi0M
Cg==
-----END CERTIFICATE-----
