Certificate:
    Data:
        Version: 3 (0x2)
        Serial Number:
            14:89:24:27:ff:9c:37:fc:1a:79:f2:0b:5a:93:74:14
        Signature Algorithm: sha256WithRSAEncryption
        Issuer: CN=team8-net
        Validity
            Not Before: May 18 13:56:34 2022 GMT
            Not After : May  2 13:56:34 2025 GMT
        Subject: CN=team8-server
        Subject Public Key Info:
            Public Key Algorithm: rsaEncryption
                RSA Public-Key: (2048 bit)
                Modulus:
                    00:e8:40:b6:1b:7f:a4:d1:8e:2d:55:32:12:b8:88:
                    e7:ab:de:b6:d4:84:06:13:88:fd:22:43:85:e3:95:
                    4a:ef:3f:f0:b1:99:57:8e:7e:61:57:9b:5d:e4:8a:
                    ba:78:11:06:30:32:09:df:42:dd:7a:f7:bf:3a:da:
                    2f:11:e0:55:75:4b:34:f1:14:96:f6:b8:f4:c5:00:
                    46:43:1f:74:da:f5:5a:51:fc:d7:6f:0f:af:1f:5f:
                    30:50:c6:a3:28:46:04:12:59:f3:cd:6a:88:e7:93:
                    fd:26:79:fa:d6:a7:a0:56:d4:ac:87:1c:ec:77:7d:
                    ec:81:6b:2d:ae:35:fc:4e:01:95:24:04:e3:93:57:
                    cb:e3:90:85:5c:8d:79:33:ad:3c:d7:ce:31:6c:94:
                    69:24:70:24:f5:23:da:cb:fe:9c:10:b9:20:b2:7e:
                    68:99:8d:f7:6f:3c:09:e8:ef:dc:8c:6d:59:e3:ba:
                    fd:44:3c:c1:12:11:2b:c8:81:64:d5:7c:0a:6e:90:
                    bf:9c:75:97:b7:98:ad:29:c2:73:0f:87:1e:54:65:
                    30:5e:de:5a:45:73:90:21:8b:25:3f:3f:b3:71:53:
                    e7:fd:4e:30:cb:3b:ca:fe:81:e2:31:c6:51:7a:d8:
                    3d:ed:13:85:1a:ca:5a:57:54:e7:f9:c1:eb:41:88:
                    0f:f7
                Exponent: 65537 (0x10001)
        X509v3 extensions:
            X509v3 Basic Constraints: 
                CA:FALSE
            X509v3 Subject Key Identifier: 
                5A:53:77:58:7B:8B:DC:4E:4E:80:6E:1B:EE:09:31:04:6B:74:50:C2
            X509v3 Authority Key Identifier: 
                keyid:64:FE:28:8D:DE:65:07:3F:0E:59:B6:F4:B7:E4:32:4D:02:D2:E1:58
                DirName:/CN=team8-net
                serial:48:CC:B5:88:D5:05:DF:51:97:28:5A:79:E8:D4:E3:9C:78:6D:22:B2

            X509v3 Extended Key Usage: 
                TLS Web Server Authentication
            X509v3 Key Usage: 
                Digital Signature, Key Encipherment
            X509v3 Subject Alternative Name: 
                DNS:team8-server
    Signature Algorithm: sha256WithRSAEncryption
         5a:98:28:e6:e2:c6:ce:5d:2f:aa:3a:a3:91:92:89:c4:87:62:
         16:12:81:3b:ba:0d:13:31:c3:12:12:8a:bf:18:41:68:c3:7c:
         62:1a:61:d7:6e:fe:e5:d5:6b:79:d6:65:43:29:dc:67:48:0e:
         dc:97:d1:17:d7:97:19:8d:6e:3c:9e:5b:3c:c0:43:20:89:1e:
         47:c4:59:34:66:bc:61:69:ab:bd:86:f0:4c:42:f2:f5:88:8b:
         81:55:1b:bc:3f:0a:e9:e6:cb:81:83:a1:40:ea:d2:b4:b2:c1:
         69:71:48:81:1a:9e:1b:78:9e:0d:d0:2d:32:13:91:37:ce:a1:
         c6:e5:70:2f:49:4f:04:60:10:be:62:b3:70:fe:52:e8:25:88:
         d0:f0:71:d0:b2:d7:21:95:74:72:c0:d0:49:8b:69:08:3f:51:
         12:3f:38:bf:53:28:ba:71:a5:54:b6:d8:25:77:d2:7f:e0:87:
         38:61:92:0f:18:38:1e:09:0e:c0:97:54:95:2e:6f:94:7f:7d:
         f2:9b:e7:2d:bb:5a:1f:4b:9f:e7:35:ea:e2:b3:00:9e:49:1d:
         22:55:46:d1:5d:e0:8c:76:51:62:64:c8:8a:31:74:2e:f0:47:
         70:d8:79:96:c2:b2:75:64:ef:0b:cd:c7:67:fb:53:e6:64:b8:
         96:d7:15:cc
-----BEGIN CERTIFICATE-----
MIIDbzCCAlegAwIBAgIQFIkkJ/+cN/waefILWpN0FDANBgkqhkiG9w0BAQsFADAU
MRIwEAYDVQQDDAl0ZWFtOC1uZXQwHhcNMjIwNTE4MTM1NjM0WhcNMjUwNTAyMTM1
NjM0WjAXMRUwEwYDVQQDDAx0ZWFtOC1zZXJ2ZXIwggEiMA0GCSqGSIb3DQEBAQUA
A4IBDwAwggEKAoIBAQDoQLYbf6TRji1VMhK4iOer3rbUhAYTiP0iQ4XjlUrvP/Cx
mVeOfmFXm13kirp4EQYwMgnfQt1697862i8R4FV1SzTxFJb2uPTFAEZDH3Ta9VpR
/NdvD68fXzBQxqMoRgQSWfPNaojnk/0mefrWp6BW1KyHHOx3feyBay2uNfxOAZUk
BOOTV8vjkIVcjXkzrTzXzjFslGkkcCT1I9rL/pwQuSCyfmiZjfdvPAno79yMbVnj
uv1EPMESESvIgWTVfApukL+cdZe3mK0pwnMPhx5UZTBe3lpFc5AhiyU/P7NxU+f9
TjDLO8r+geIxxlF62D3tE4UaylpXVOf5wetBiA/3AgMBAAGjgbkwgbYwCQYDVR0T
BAIwADAdBgNVHQ4EFgQUWlN3WHuL3E5OgG4b7gkxBGt0UMIwTwYDVR0jBEgwRoAU
ZP4ojd5lBz8OWbb0t+QyTQLS4VihGKQWMBQxEjAQBgNVBAMMCXRlYW04LW5ldIIU
SMy1iNUF31GXKFp56NTjnHhtIrIwEwYDVR0lBAwwCgYIKwYBBQUHAwEwCwYDVR0P
BAQDAgWgMBcGA1UdEQQQMA6CDHRlYW04LXNlcnZlcjANBgkqhkiG9w0BAQsFAAOC
AQEAWpgo5uLGzl0vqjqjkZKJxIdiFhKBO7oNEzHDEhKKvxhBaMN8Yhph127+5dVr
edZlQyncZ0gO3JfRF9eXGY1uPJ5bPMBDIIkeR8RZNGa8YWmrvYbwTELy9YiLgVUb
vD8K6ebLgYOhQOrStLLBaXFIgRqeG3ieDdAtMhORN86hxuVwL0lPBGAQvmKzcP5S
6CWI0PBx0LLXIZV0csDQSYtpCD9REj84v1MounGlVLbYJXfSf+CHOGGSDxg4HgkO
wJdUlS5vlH998pvnLbtaH0uf5zXq4rMAnkkdIlVG0V3gjHZRYmTIijF0LvBHcNh5
lsKydWTvC83HZ/tT5mS4ltcVzA==
-----END CERTIFICATE-----
