Certificate:
    Data:
        Version: 3 (0x2)
        Serial Number:
            5b:f7:9c:04:45:32:0d:14:23:0b:ea:11:68:28:20:97
        Signature Algorithm: sha256WithRSAEncryption
        Issuer: CN=team5-net
        Validity
            Not Before: May 18 13:55:58 2022 GMT
            Not After : May  2 13:55:58 2025 GMT
        Subject: CN=team5-client
        Subject Public Key Info:
            Public Key Algorithm: rsaEncryption
                RSA Public-Key: (2048 bit)
                Modulus:
                    00:ba:a0:00:a5:34:64:5e:35:7e:ad:a9:6b:ce:0f:
                    4a:ed:3e:52:cb:38:a7:6e:3d:b8:1b:6b:bc:3b:b0:
                    00:82:b1:af:7f:da:7c:7f:ef:bc:9c:58:f4:91:f0:
                    90:fa:a1:04:f4:c4:c2:be:53:12:93:21:11:d4:97:
                    34:86:38:63:5c:46:4b:bd:82:79:d1:01:4a:10:37:
                    98:e1:2f:0b:86:1a:f2:7f:65:48:95:0d:97:05:e0:
                    6c:58:5d:d6:70:6d:c4:2b:df:7a:c5:28:0e:f0:15:
                    7e:fd:46:cf:9c:44:0d:b3:5f:54:6c:2e:ce:00:c0:
                    e9:b3:99:8f:00:07:23:7f:15:ce:ba:27:d1:8a:25:
                    7a:c3:ba:50:8c:3e:62:e3:bf:74:9c:4f:70:ea:40:
                    2d:43:a1:d3:fb:22:28:ca:ef:b4:3a:e9:84:e0:cb:
                    42:b5:4e:2b:b5:3c:ab:39:c1:c1:46:c1:ac:e9:8d:
                    8b:45:a8:a8:88:6f:79:99:b4:dc:f8:86:29:2d:be:
                    18:20:c4:01:a8:b3:47:bd:c2:46:e0:be:74:87:c2:
                    a3:2f:eb:79:3a:a3:b5:d3:21:97:8f:fb:c3:d8:89:
                    09:c5:d0:ca:06:56:6c:f2:d9:ef:20:b2:ea:cc:e6:
                    36:6d:dd:14:3d:16:f9:bc:f1:65:e3:46:47:b1:94:
                    9d:69
                Exponent: 65537 (0x10001)
        X509v3 extensions:
            X509v3 Basic Constraints: 
                CA:FALSE
            X509v3 Subject Key Identifier: 
                B2:37:0A:0A:24:C8:AB:34:3A:E1:50:9E:CD:84:97:0D:D2:FC:C7:D7
            X509v3 Authority Key Identifier: 
                keyid:D3:F8:E6:AA:AF:37:78:5A:87:92:F0:47:7E:62:60:AB:BD:21:54:F9
                DirName:/CN=team5-net
                serial:66:DB:E6:96:FE:83:ED:11:F7:86:AC:7A:74:A4:FC:13:7A:65:C4:26

            X509v3 Extended Key Usage: 
                TLS Web Client Authentication
            X509v3 Key Usage: 
                Digital Signature
    Signature Algorithm: sha256WithRSAEncryption
         6a:3d:20:da:b8:4a:01:3c:c6:3e:ad:bf:24:ef:7c:73:3a:d3:
         ab:05:93:60:91:86:26:9e:2a:5e:93:70:49:cd:d7:89:a6:a4:
         88:0e:11:5c:eb:cc:c3:1f:a9:9f:d0:da:be:25:b4:47:22:05:
         03:f3:23:83:31:a7:70:24:bd:76:e3:85:d4:d2:63:71:89:3d:
         e3:15:09:bb:dc:69:de:0e:22:78:17:40:17:45:16:58:e0:6f:
         6c:4f:f1:20:b1:c8:26:a4:09:cb:6b:1f:01:84:f1:e3:49:a2:
         18:3e:8d:fa:7c:eb:e5:e9:9d:9f:67:34:6a:8c:69:a6:ae:de:
         b9:02:4c:b6:a6:20:7e:b8:3a:d8:fd:80:ec:a0:21:6d:18:6c:
         9b:bb:52:8b:f5:bc:45:2f:31:04:52:9c:44:82:94:4f:21:5b:
         27:15:ef:0c:34:38:8c:ef:dd:55:72:33:70:27:13:17:06:f7:
         de:5a:1b:cf:e4:6c:dc:f9:b1:fa:6e:95:ea:e1:e5:d4:1d:60:
         ff:28:7e:28:47:75:5a:56:1d:ee:8e:ca:b0:73:b2:00:ce:5f:
         05:d0:ca:51:02:37:72:8d:ee:02:2f:49:ec:25:7b:90:40:6e:
         d4:ed:0d:4d:6b:cc:8a:19:92:bd:d8:08:28:b1:fc:b8:ce:66:
         fb:53:1b:01
-----BEGIN CERTIFICATE-----
MIIDVjCCAj6gAwIBAgIQW/ecBEUyDRQjC+oRaCgglzANBgkqhkiG9w0BAQsFADAU
MRIwEAYDVQQDDAl0ZWFtNS1uZXQwHhcNMjIwNTE4MTM1NTU4WhcNMjUwNTAyMTM1
NTU4WjAXMRUwEwYDVQQDDAx0ZWFtNS1jbGllbnQwggEiMA0GCSqGSIb3DQEBAQUA
A4IBDwAwggEKAoIBAQC6oAClNGReNX6tqWvOD0rtPlLLOKduPbgba7w7sACCsa9/
2nx/77ycWPSR8JD6oQT0xMK+UxKTIRHUlzSGOGNcRku9gnnRAUoQN5jhLwuGGvJ/
ZUiVDZcF4GxYXdZwbcQr33rFKA7wFX79Rs+cRA2zX1RsLs4AwOmzmY8AByN/Fc66
J9GKJXrDulCMPmLjv3ScT3DqQC1DodP7IijK77Q66YTgy0K1Tiu1PKs5wcFGwazp
jYtFqKiIb3mZtNz4hiktvhggxAGos0e9wkbgvnSHwqMv63k6o7XTIZeP+8PYiQnF
0MoGVmzy2e8gsurM5jZt3RQ9Fvm88WXjRkexlJ1pAgMBAAGjgaAwgZ0wCQYDVR0T
BAIwADAdBgNVHQ4EFgQUsjcKCiTIqzQ64VCezYSXDdL8x9cwTwYDVR0jBEgwRoAU
0/jmqq83eFqHkvBHfmJgq70hVPmhGKQWMBQxEjAQBgNVBAMMCXRlYW01LW5ldIIU
Ztvmlv6D7RH3hqx6dKT8E3plxCYwEwYDVR0lBAwwCgYIKwYBBQUHAwIwCwYDVR0P
BAQDAgeAMA0GCSqGSIb3DQEBCwUAA4IBAQBqPSDauEoBPMY+rb8k73xzOtOrBZNg
kYYmnipek3BJzdeJpqSIDhFc68zDH6mf0Nq+JbRHIgUD8yODMadwJL1244XU0mNx
iT3jFQm73GneDiJ4F0AXRRZY4G9sT/EgscgmpAnLax8BhPHjSaIYPo36fOvl6Z2f
ZzRqjGmmrt65Aky2piB+uDrY/YDsoCFtGGybu1KL9bxFLzEEUpxEgpRPIVsnFe8M
NDiM791VcjNwJxMXBvfeWhvP5Gzc+bH6bpXq4eXUHWD/KH4oR3VaVh3ujsqwc7IA
zl8F0MpRAjdyje4CL0nsJXuQQG7U7Q1Na8yKGZK92Agosfy4zmb7UxsB
-----END CERTIFICATE-----
