Certificate:
    Data:
        Version: 3 (0x2)
        Serial Number:
            e7:38:a5:30:f1:8c:ce:f1:68:c2:e8:2f:aa:30:a7:dd
        Signature Algorithm: sha256WithRSAEncryption
        Issuer: CN=team54-net
        Validity
            Not Before: May 18 14:25:18 2022 GMT
            Not After : May  2 14:25:18 2025 GMT
        Subject: CN=team54-client
        Subject Public Key Info:
            Public Key Algorithm: rsaEncryption
                RSA Public-Key: (2048 bit)
                Modulus:
                    00:d0:ee:8a:d3:3c:49:2f:6e:be:67:d8:21:ef:7c:
                    79:de:2f:76:cc:b9:6c:f6:01:1c:cb:fd:a5:ef:0c:
                    26:50:c7:f3:c1:10:c1:61:33:fa:a2:e9:1b:6e:8a:
                    63:2f:b2:e9:91:6a:d9:bb:5c:b7:c1:de:72:6c:04:
                    09:43:c9:c8:10:2d:b0:9d:8d:a2:07:af:85:8e:4d:
                    cf:31:68:21:e7:c4:62:12:ef:8b:47:ba:3d:2e:61:
                    6b:64:22:9b:69:bc:5e:9c:06:e7:8e:42:3b:8f:c2:
                    0e:e3:16:51:23:8f:7c:e6:45:73:bb:8e:a8:1a:92:
                    e8:89:25:49:dc:f9:ef:81:14:05:1e:e3:31:7c:52:
                    0a:0e:8a:93:1f:15:56:b1:f4:2f:83:32:a2:11:8c:
                    ea:65:22:6b:77:8a:4c:53:4b:87:98:ba:93:12:bf:
                    52:6e:29:65:2f:c9:3c:d0:87:e8:e8:39:45:62:43:
                    98:e5:12:91:ea:f2:c4:a2:03:4b:61:22:7f:e3:a2:
                    3b:93:38:9b:05:cd:dc:da:97:08:a2:59:ea:7f:9d:
                    e6:8f:a5:ea:8c:e5:0b:35:a0:9c:e0:8b:3e:8d:c7:
                    f8:ad:9b:73:f8:10:43:74:cc:be:14:46:bf:7a:97:
                    5e:85:7d:55:c1:0f:10:57:62:8e:ec:ae:62:36:c0:
                    3c:1b
                Exponent: 65537 (0x10001)
        X509v3 extensions:
            X509v3 Basic Constraints: 
                CA:FALSE
            X509v3 Subject Key Identifier: 
                26:19:03:15:F1:8F:FA:0E:09:2A:C1:D5:6E:C8:D7:CC:A4:C4:D5:33
            X509v3 Authority Key Identifier: 
                keyid:5C:31:D3:5E:8E:3B:20:C5:81:79:9A:78:08:60:DB:CE:86:19:8F:BD
                DirName:/CN=team54-net
                serial:42:58:E9:59:A6:32:CF:A9:8D:83:2C:9C:D4:FA:BA:C7:B4:4D:B7:0D

            X509v3 Extended Key Usage: 
                TLS Web Client Authentication
            X509v3 Key Usage: 
                Digital Signature
    Signature Algorithm: sha256WithRSAEncryption
         6f:6c:c7:34:7b:29:5e:f9:b8:68:35:14:a7:a2:a5:f2:7f:47:
         be:44:59:13:62:ef:80:48:09:89:b1:8f:be:ed:5f:43:82:8f:
         32:3a:0a:5d:d0:0b:cb:cd:90:fc:9c:61:ad:18:3d:19:9d:67:
         6d:b6:31:0c:75:66:df:df:95:53:f3:bd:65:06:f7:3b:71:7b:
         8b:7f:de:95:55:33:53:11:61:2e:9d:19:bb:c0:f1:cf:3c:28:
         cb:df:b2:24:d1:22:43:fb:a7:73:6b:0b:7b:b0:9d:2c:0b:1c:
         25:9b:bf:8b:72:91:19:70:b3:84:bb:94:ab:e0:e5:42:65:fe:
         4c:cd:30:6e:38:2d:bf:b0:0e:87:f6:41:7d:4a:09:6f:f4:35:
         e7:09:9f:74:96:ad:3c:b7:c5:aa:de:8c:ef:e5:b7:7c:24:73:
         c4:8a:fe:cb:96:a9:6e:23:a3:a2:bb:ff:8b:68:a8:02:ea:c8:
         6a:cf:1f:ec:ac:a9:2e:23:ee:06:96:73:da:9d:87:e5:cc:3f:
         e4:85:3d:ee:75:e4:2e:3a:9e:f3:8c:c7:bc:a6:ec:ed:7f:6f:
         0b:23:51:3a:02:18:44:41:8e:d4:95:77:13:d4:1b:fb:33:90:
         cf:1f:72:fe:e0:b8:6c:3b:1d:d7:e7:1d:d1:1c:8a:8d:94:fc:
         64:fe:3b:a0
-----BEGIN CERTIFICATE-----
MIIDWjCCAkKgAwIBAgIRAOc4pTDxjM7xaMLoL6owp90wDQYJKoZIhvcNAQELBQAw
FTETMBEGA1UEAwwKdGVhbTU0LW5ldDAeFw0yMjA1MTgxNDI1MThaFw0yNTA1MDIx
NDI1MThaMBgxFjAUBgNVBAMMDXRlYW01NC1jbGllbnQwggEiMA0GCSqGSIb3DQEB
AQUAA4IBDwAwggEKAoIBAQDQ7orTPEkvbr5n2CHvfHneL3bMuWz2ARzL/aXvDCZQ
x/PBEMFhM/qi6RtuimMvsumRatm7XLfB3nJsBAlDycgQLbCdjaIHr4WOTc8xaCHn
xGIS74tHuj0uYWtkIptpvF6cBueOQjuPwg7jFlEjj3zmRXO7jqgakuiJJUnc+e+B
FAUe4zF8UgoOipMfFVax9C+DMqIRjOplImt3ikxTS4eYupMSv1JuKWUvyTzQh+jo
OUViQ5jlEpHq8sSiA0thIn/jojuTOJsFzdzalwiiWep/neaPpeqM5Qs1oJzgiz6N
x/itm3P4EEN0zL4URr96l16FfVXBDxBXYo7srmI2wDwbAgMBAAGjgaEwgZ4wCQYD
VR0TBAIwADAdBgNVHQ4EFgQUJhkDFfGP+g4JKsHVbsjXzKTE1TMwUAYDVR0jBEkw
R4AUXDHTXo47IMWBeZp4CGDbzoYZj72hGaQXMBUxEzARBgNVBAMMCnRlYW01NC1u
ZXSCFEJY6VmmMs+pjYMsnNT6use0TbcNMBMGA1UdJQQMMAoGCCsGAQUFBwMCMAsG
A1UdDwQEAwIHgDANBgkqhkiG9w0BAQsFAAOCAQEAb2zHNHspXvm4aDUUp6Kl8n9H
vkRZE2LvgEgJibGPvu1fQ4KPMjoKXdALy82Q/JxhrRg9GZ1nbbYxDHVm39+VU/O9
ZQb3O3F7i3/elVUzUxFhLp0Zu8Dxzzwoy9+yJNEiQ/unc2sLe7CdLAscJZu/i3KR
GXCzhLuUq+DlQmX+TM0wbjgtv7AOh/ZBfUoJb/Q15wmfdJatPLfFqt6M7+W3fCRz
xIr+y5apbiOjorv/i2ioAurIas8f7KypLiPuBpZz2p2H5cw/5IU97nXkLjqe84zH
vKbs7X9vCyNROgIYREGO1JV3E9Qb+zOQzx9y/uC4bDsd1+cd0RyKjZT8ZP47oA==
-----END CERTIFICATE-----
