Certificate:
    Data:
        Version: 3 (0x2)
        Serial Number:
            4f:47:92:ea:96:cf:5b:e8:ac:59:24:c3:52:05:70:81
        Signature Algorithm: sha256WithRSAEncryption
        Issuer: CN=team487-net
        Validity
            Not Before: May 18 21:37:21 2022 GMT
            Not After : May  2 21:37:21 2025 GMT
        Subject: CN=team487-client
        Subject Public Key Info:
            Public Key Algorithm: rsaEncryption
                RSA Public-Key: (2048 bit)
                Modulus:
                    00:de:b0:03:46:c7:e5:db:3a:1e:a2:32:ad:c8:ee:
                    92:e6:e4:1a:1c:3f:19:60:1d:6d:c3:8a:fb:ad:2d:
                    17:99:8d:1f:cd:ec:94:97:f6:31:d3:8a:3a:dc:60:
                    4c:54:13:53:0f:b7:4d:e2:6d:9f:a7:e0:3d:8f:68:
                    b1:a1:9c:0e:33:69:01:97:36:c1:da:1f:76:10:a6:
                    fa:75:b3:4d:48:0f:29:cb:0e:54:29:00:98:40:06:
                    9f:82:7a:4a:6e:36:6e:74:fc:30:de:75:03:84:53:
                    67:fd:76:3e:6b:fa:0a:c4:55:af:2f:68:ed:07:1a:
                    03:fc:5b:03:eb:fd:c6:e1:7b:81:7c:ea:13:cc:84:
                    e7:e2:92:a5:58:01:78:32:2c:5f:94:9e:dc:b0:86:
                    8a:7b:53:bd:40:d2:6a:4c:11:f5:cd:10:87:e4:a0:
                    48:0f:d4:fa:4e:d8:e9:f4:36:df:e8:b3:f5:2a:d3:
                    e2:6b:57:13:7e:9b:f8:7a:e9:e1:53:e1:e9:ee:72:
                    bb:d8:a4:b3:8c:e9:a3:31:64:14:b3:73:c8:e1:13:
                    67:8a:f4:cc:84:c7:9e:dd:cf:9a:75:50:c8:3e:c1:
                    7e:f1:95:a0:7d:1c:2c:eb:d4:09:38:0b:45:71:53:
                    a2:44:28:fd:c5:24:6e:51:3b:e0:b9:e0:4a:ac:53:
                    70:e3
                Exponent: 65537 (0x10001)
        X509v3 extensions:
            X509v3 Basic Constraints: 
                CA:FALSE
            X509v3 Subject Key Identifier: 
                63:8B:CA:B7:EC:1C:7D:CE:DE:E7:5A:B8:25:6E:5E:6A:78:E9:94:C6
            X509v3 Authority Key Identifier: 
                keyid:BD:B6:C6:FF:99:F3:F6:45:C5:A2:C8:60:60:1E:02:81:14:1A:63:4B
                DirName:/CN=team487-net
                serial:0A:2A:99:D9:8D:86:C5:C7:FE:DF:AA:45:35:FA:F8:19:8B:28:26:EE

            X509v3 Extended Key Usage: 
                TLS Web Client Authentication
            X509v3 Key Usage: 
                Digital Signature
    Signature Algorithm: sha256WithRSAEncryption
         6e:df:9d:42:d3:71:96:d3:0a:ec:2e:e5:f2:9e:89:cc:67:fd:
         5e:1f:65:45:58:51:6d:bd:8f:a7:41:b6:40:33:3f:6c:e6:32:
         16:ce:c7:ff:11:cc:f9:90:ac:3b:b7:f9:7e:72:3c:58:c3:d9:
         0a:f4:99:3b:39:c3:41:45:a2:37:40:d8:96:d1:c4:14:5e:ee:
         8b:57:b8:85:0b:2f:82:4e:52:1d:9d:18:e0:49:5c:ab:1f:4a:
         eb:ac:91:f8:17:10:2f:72:11:f7:74:09:f8:a5:a3:55:a7:93:
         b4:df:77:4a:46:42:ea:5c:c3:4a:26:c8:65:e8:54:54:9d:67:
         0a:6a:03:8c:3d:9c:37:31:8a:cb:fa:9b:fc:cf:8f:b8:ef:4e:
         4c:ba:50:0d:45:2e:30:0f:67:22:98:ef:4c:69:4e:f8:3f:84:
         ca:d1:28:3c:b6:e2:2f:ed:f6:05:25:9a:90:4e:7b:7c:71:e9:
         9a:f9:fd:9a:fd:6c:4d:88:74:fb:c7:2d:dd:59:88:f5:d3:b5:
         c5:c3:e0:65:55:09:6b:ce:08:0d:71:28:05:4f:e8:48:85:06:
         f4:60:02:4b:a9:2d:bf:ef:e4:57:32:58:d2:27:b3:91:f3:73:
         6f:42:ee:8e:09:72:28:da:4c:b7:a9:0e:ec:3e:c3:3b:97:95:
         f9:ab:13:98
-----BEGIN CERTIFICATE-----
MIIDXDCCAkSgAwIBAgIQT0eS6pbPW+isWSTDUgVwgTANBgkqhkiG9w0BAQsFADAW
MRQwEgYDVQQDDAt0ZWFtNDg3LW5ldDAeFw0yMjA1MTgyMTM3MjFaFw0yNTA1MDIy
MTM3MjFaMBkxFzAVBgNVBAMMDnRlYW00ODctY2xpZW50MIIBIjANBgkqhkiG9w0B
AQEFAAOCAQ8AMIIBCgKCAQEA3rADRsfl2zoeojKtyO6S5uQaHD8ZYB1tw4r7rS0X
mY0fzeyUl/Yx04o63GBMVBNTD7dN4m2fp+A9j2ixoZwOM2kBlzbB2h92EKb6dbNN
SA8pyw5UKQCYQAafgnpKbjZudPww3nUDhFNn/XY+a/oKxFWvL2jtBxoD/FsD6/3G
4XuBfOoTzITn4pKlWAF4MixflJ7csIaKe1O9QNJqTBH1zRCH5KBID9T6Ttjp9Dbf
6LP1KtPia1cTfpv4eunhU+Hp7nK72KSzjOmjMWQUs3PI4RNnivTMhMee3c+adVDI
PsF+8ZWgfRws69QJOAtFcVOiRCj9xSRuUTvgueBKrFNw4wIDAQABo4GiMIGfMAkG
A1UdEwQCMAAwHQYDVR0OBBYEFGOLyrfsHH3O3udauCVuXmp46ZTGMFEGA1UdIwRK
MEiAFL22xv+Z8/ZFxaLIYGAeAoEUGmNLoRqkGDAWMRQwEgYDVQQDDAt0ZWFtNDg3
LW5ldIIUCiqZ2Y2Gxcf+36pFNfr4GYsoJu4wEwYDVR0lBAwwCgYIKwYBBQUHAwIw
CwYDVR0PBAQDAgeAMA0GCSqGSIb3DQEBCwUAA4IBAQBu351C03GW0wrsLuXynonM
Z/1eH2VFWFFtvY+nQbZAMz9s5jIWzsf/Ecz5kKw7t/l+cjxYw9kK9Jk7OcNBRaI3
QNiW0cQUXu6LV7iFCy+CTlIdnRjgSVyrH0rrrJH4FxAvchH3dAn4paNVp5O033dK
RkLqXMNKJshl6FRUnWcKagOMPZw3MYrL+pv8z4+4705MulANRS4wD2cimO9MaU74
P4TK0Sg8tuIv7fYFJZqQTnt8cema+f2a/WxNiHT7xy3dWYj107XFw+BlVQlrzggN
cSgFT+hIhQb0YAJLqS2/7+RXMljSJ7OR83NvQu6OCXIo2ky3qQ7sPsM7l5X5qxOY
-----END CERTIFICATE-----
