Certificate:
    Data:
        Version: 3 (0x2)
        Serial Number:
            54:80:ce:c5:52:6b:61:cd:06:5a:53:2f:7f:b7:78:56
        Signature Algorithm: sha256WithRSAEncryption
        Issuer: CN=team278-net
        Validity
            Not Before: May 18 19:46:16 2022 GMT
            Not After : May  2 19:46:16 2025 GMT
        Subject: CN=team278-client
        Subject Public Key Info:
            Public Key Algorithm: rsaEncryption
                RSA Public-Key: (2048 bit)
                Modulus:
                    00:c3:22:83:7e:45:e7:7d:7f:89:b7:5b:35:fd:b7:
                    54:12:0e:df:e1:00:f8:17:6c:72:f1:11:6e:a9:08:
                    80:aa:4b:ae:59:29:76:58:12:aa:5d:a0:75:57:9d:
                    9d:85:7c:09:35:e4:94:90:63:8a:fa:e8:e2:8f:eb:
                    cf:02:2e:51:ff:50:e1:f7:7e:57:91:21:ca:94:ef:
                    07:48:9b:d4:3b:0b:cd:f2:57:0a:bf:c8:fe:3b:25:
                    18:92:55:53:b2:04:b4:c3:69:89:5e:1f:c2:f9:ed:
                    87:d8:07:f3:b3:34:a8:e4:99:d4:7e:84:79:47:6a:
                    27:74:31:02:0c:57:8e:a3:ba:63:52:a3:b4:d7:bd:
                    a2:9f:86:e5:a0:df:8a:47:10:01:01:ee:c1:28:92:
                    8d:67:b8:e2:25:ef:0b:a2:cc:c9:b3:0d:a8:5b:72:
                    f4:f5:47:db:67:e3:19:27:e4:4a:ab:13:0c:fc:19:
                    c5:9c:a5:23:60:9d:43:13:c5:0c:cc:76:ab:9f:64:
                    67:0e:e6:1e:34:41:75:4a:ec:a2:52:4e:83:4f:07:
                    4a:e7:c3:fa:2b:08:ff:c8:4b:51:14:26:fb:76:89:
                    a1:14:15:30:cb:fc:c2:39:81:43:bc:a7:f0:4a:c3:
                    19:55:d1:29:93:9b:72:64:c7:2f:fb:49:9b:5d:45:
                    14:ef
                Exponent: 65537 (0x10001)
        X509v3 extensions:
            X509v3 Basic Constraints: 
                CA:FALSE
            X509v3 Subject Key Identifier: 
                24:B7:D2:34:6E:F1:1A:03:9C:BB:C6:0A:58:D8:42:65:37:DB:1C:7A
            X509v3 Authority Key Identifier: 
                keyid:11:87:BA:12:3E:9A:B6:74:6F:11:39:FA:84:FE:79:87:F3:82:7C:8B
                DirName:/CN=team278-net
                serial:4E:B4:D1:B5:AE:ED:3D:5D:D5:5E:80:1F:F2:B3:22:D8:51:E6:53:C6

            X509v3 Extended Key Usage: 
                TLS Web Client Authentication
            X509v3 Key Usage: 
                Digital Signature
    Signature Algorithm: sha256WithRSAEncryption
         78:2f:17:66:83:63:ea:ce:d8:48:1f:ee:1c:78:f0:0f:a7:6b:
         e9:9c:4d:62:45:8c:44:31:94:8e:72:dc:a5:8b:06:60:45:3d:
         ed:8d:33:8f:57:05:0f:5e:15:88:54:4d:54:ce:ad:85:73:a2:
         f5:56:2b:c8:7d:97:27:fa:47:5c:31:0c:11:34:05:37:24:1d:
         2f:a3:b2:48:c1:37:83:35:fb:b5:4d:49:5a:61:3f:bf:71:d8:
         1a:75:62:12:4a:b2:c7:c8:d2:4e:01:c4:16:9c:4b:30:60:32:
         16:c2:b9:26:ae:b4:05:90:c6:f6:47:fa:1d:58:6d:61:29:a5:
         e3:37:07:55:83:0b:00:54:e1:ad:31:55:0e:89:f0:3c:a2:04:
         b9:e8:b4:fe:2c:53:de:0b:d8:0e:71:44:f6:99:ec:7a:06:ec:
         c5:09:3a:30:b2:1c:f1:38:07:cf:fe:f1:5e:81:a8:f7:25:e1:
         c4:d1:fa:34:63:a4:c3:10:f4:48:f8:94:65:60:65:dd:6a:cb:
         aa:72:97:c7:06:3c:ec:b3:a7:3f:0e:b4:13:0a:3a:fa:ed:17:
         2b:bf:79:8a:b3:02:b7:dd:78:71:49:f9:7e:68:de:b4:57:50:
         4e:a6:e5:06:9a:3e:58:62:b3:d5:0e:82:6e:1f:0a:11:a6:90:
         63:58:97:13
-----BEGIN CERTIFICATE-----
MIIDXDCCAkSgAwIBAgIQVIDOxVJrYc0GWlMvf7d4VjANBgkqhkiG9w0BAQsFADAW
MRQwEgYDVQQDDAt0ZWFtMjc4LW5ldDAeFw0yMjA1MTgxOTQ2MTZaFw0yNTA1MDIx
OTQ2MTZaMBkxFzAVBgNVBAMMDnRlYW0yNzgtY2xpZW50MIIBIjANBgkqhkiG9w0B
AQEFAAOCAQ8AMIIBCgKCAQEAwyKDfkXnfX+Jt1s1/bdUEg7f4QD4F2xy8RFuqQiA
qkuuWSl2WBKqXaB1V52dhXwJNeSUkGOK+ujij+vPAi5R/1Dh935XkSHKlO8HSJvU
OwvN8lcKv8j+OyUYklVTsgS0w2mJXh/C+e2H2AfzszSo5JnUfoR5R2ondDECDFeO
o7pjUqO0172in4bloN+KRxABAe7BKJKNZ7jiJe8LoszJsw2oW3L09UfbZ+MZJ+RK
qxMM/BnFnKUjYJ1DE8UMzHarn2RnDuYeNEF1SuyiUk6DTwdK58P6Kwj/yEtRFCb7
domhFBUwy/zCOYFDvKfwSsMZVdEpk5tyZMcv+0mbXUUU7wIDAQABo4GiMIGfMAkG
A1UdEwQCMAAwHQYDVR0OBBYEFCS30jRu8RoDnLvGCljYQmU32xx6MFEGA1UdIwRK
MEiAFBGHuhI+mrZ0bxE5+oT+eYfzgnyLoRqkGDAWMRQwEgYDVQQDDAt0ZWFtMjc4
LW5ldIIUTrTRta7tPV3VXoAf8rMi2FHmU8YwEwYDVR0lBAwwCgYIKwYBBQUHAwIw
CwYDVR0PBAQDAgeAMA0GCSqGSIb3DQEBCwUAA4IBAQB4Lxdmg2PqzthIH+4cePAP
p2vpnE1iRYxEMZSOctyliwZgRT3tjTOPVwUPXhWIVE1Uzq2Fc6L1VivIfZcn+kdc
MQwRNAU3JB0vo7JIwTeDNfu1TUlaYT+/cdgadWISSrLHyNJOAcQWnEswYDIWwrkm
rrQFkMb2R/odWG1hKaXjNwdVgwsAVOGtMVUOifA8ogS56LT+LFPeC9gOcUT2mex6
BuzFCTowshzxOAfP/vFegaj3JeHE0fo0Y6TDEPRI+JRlYGXdasuqcpfHBjzss6c/
DrQTCjr67Rcrv3mKswK33XhxSfl+aN60V1BOpuUGmj5YYrPVDoJuHwoRppBjWJcT
-----END CERTIFICATE-----
