Certificate:
    Data:
        Version: 3 (0x2)
        Serial Number:
            cd:22:89:a4:48:95:0c:d7:60:72:84:8b:b8:e2:59:ec
        Signature Algorithm: sha256WithRSAEncryption
        Issuer: CN=team643-net
        Validity
            Not Before: May 18 23:00:14 2022 GMT
            Not After : May  2 23:00:14 2025 GMT
        Subject: CN=team643-server
        Subject Public Key Info:
            Public Key Algorithm: rsaEncryption
                RSA Public-Key: (2048 bit)
                Modulus:
                    00:e3:9b:01:9a:73:03:50:72:5c:fa:77:4f:4b:89:
                    a4:db:90:53:64:28:8e:62:e6:18:4f:25:90:4c:b3:
                    83:0a:59:86:97:de:cb:23:f7:d6:fd:18:21:f5:85:
                    fb:4c:90:da:e8:fd:f0:61:b8:57:f9:a7:e0:8c:eb:
                    26:bb:8a:c3:a9:1e:8b:04:eb:58:65:d1:cd:07:b0:
                    54:95:b9:5c:2d:f1:43:e6:6a:a9:ae:56:79:64:da:
                    17:63:2d:ad:f7:49:79:2f:f0:98:d9:ca:37:bd:0f:
                    be:e9:7e:29:f4:a0:f6:2c:6a:96:a2:3c:62:dc:22:
                    81:26:05:15:37:74:31:32:4e:8c:ca:a3:7d:34:f0:
                    a6:c8:8a:76:0d:15:5d:83:15:b9:41:26:25:8f:4d:
                    be:19:3b:0e:c2:a5:00:03:69:b7:e0:51:40:36:d4:
                    6d:4b:7e:48:ea:e0:48:5c:a4:e2:3a:22:4a:ba:85:
                    f7:8c:4c:f9:71:f8:59:f8:dd:64:ca:3e:97:69:51:
                    df:c7:fe:1a:94:35:17:92:2e:5f:3b:e0:c2:07:83:
                    6c:e2:d2:be:d1:73:52:1b:d3:9d:50:ac:5a:9b:67:
                    d6:73:50:44:42:8c:ea:a8:0a:81:4e:95:c7:f8:6c:
                    50:17:14:63:25:ef:b5:11:d4:44:d0:ea:aa:fd:c4:
                    81:73
                Exponent: 65537 (0x10001)
        X509v3 extensions:
            X509v3 Basic Constraints: 
                CA:FALSE
            X509v3 Subject Key Identifier: 
                0E:FE:A4:9E:09:3A:F0:C3:58:49:AA:40:6E:9E:2B:46:12:27:B2:0C
            X509v3 Authority Key Identifier: 
                keyid:AD:08:38:34:F7:8F:C0:A6:EC:56:14:18:CF:C6:14:E3:F0:79:33:1A
                DirName:/CN=team643-net
                serial:09:8C:25:1B:06:59:F7:33:46:BF:C1:7B:A6:A6:5D:A6:D0:EC:72:06

            X509v3 Extended Key Usage: 
                TLS Web Server Authentication
            X509v3 Key Usage: 
                Digital Signature, Key Encipherment
            X509v3 Subject Alternative Name: 
                DNS:team643-server
    Signature Algorithm: sha256WithRSAEncryption
         0e:81:e4:b9:59:a4:42:b3:be:99:f2:a4:89:f5:c5:1d:3e:b7:
         ef:d3:46:58:e6:f0:97:c2:a8:ab:14:de:25:21:99:bc:8f:52:
         0d:86:b8:6c:e0:06:7f:38:2e:0d:4e:fe:94:e5:e3:07:26:0c:
         a8:2b:6b:9c:95:7d:21:19:ba:7c:b1:f3:12:5f:ef:df:72:3e:
         5e:07:85:32:25:42:e1:cd:fc:8a:c4:ff:dd:aa:d6:44:b8:c7:
         d5:e9:49:e6:e1:0b:2a:90:1f:69:de:db:c3:00:82:b7:00:63:
         97:8d:ea:ce:4a:bc:c9:2e:5a:69:c9:f0:93:03:b5:9b:07:09:
         aa:fb:af:f9:3f:57:72:73:7f:92:22:e3:a5:fa:50:87:14:18:
         dc:52:cd:e3:b2:81:64:2c:68:a8:55:51:91:da:c9:d2:ff:9c:
         3b:d3:f1:8b:78:60:16:64:5a:53:ef:95:f3:f2:1d:96:c1:39:
         6f:f1:64:76:b8:d5:6f:a1:60:b8:b0:d4:73:f3:8f:12:af:42:
         9d:c0:57:25:2e:b3:83:90:55:7a:61:d9:71:a1:60:53:6a:c2:
         31:11:52:35:c7:25:2c:8c:d2:7c:f9:d8:ba:df:83:27:b8:31:
         47:da:99:84:de:6a:49:35:e2:02:d0:1a:30:51:97:f9:b3:5b:
         89:56:89:13
-----BEGIN CERTIFICATE-----
MIIDeDCCAmCgAwIBAgIRAM0iiaRIlQzXYHKEi7jiWewwDQYJKoZIhvcNAQELBQAw
FjEUMBIGA1UEAwwLdGVhbTY0My1uZXQwHhcNMjIwNTE4MjMwMDE0WhcNMjUwNTAy
MjMwMDE0WjAZMRcwFQYDVQQDDA50ZWFtNjQzLXNlcnZlcjCCASIwDQYJKoZIhvcN
AQEBBQADggEPADCCAQoCggEBAOObAZpzA1ByXPp3T0uJpNuQU2QojmLmGE8lkEyz
gwpZhpfeyyP31v0YIfWF+0yQ2uj98GG4V/mn4IzrJruKw6keiwTrWGXRzQewVJW5
XC3xQ+Zqqa5WeWTaF2MtrfdJeS/wmNnKN70Pvul+KfSg9ixqlqI8YtwigSYFFTd0
MTJOjMqjfTTwpsiKdg0VXYMVuUEmJY9Nvhk7DsKlAANpt+BRQDbUbUt+SOrgSFyk
4joiSrqF94xM+XH4WfjdZMo+l2lR38f+GpQ1F5IuXzvgwgeDbOLSvtFzUhvTnVCs
Wptn1nNQREKM6qgKgU6Vx/hsUBcUYyXvtRHURNDqqv3EgXMCAwEAAaOBvTCBujAJ
BgNVHRMEAjAAMB0GA1UdDgQWBBQO/qSeCTrww1hJqkBunitGEieyDDBRBgNVHSME
SjBIgBStCDg094/ApuxWFBjPxhTj8HkzGqEapBgwFjEUMBIGA1UEAwwLdGVhbTY0
My1uZXSCFAmMJRsGWfczRr/Be6amXabQ7HIGMBMGA1UdJQQMMAoGCCsGAQUFBwMB
MAsGA1UdDwQEAwIFoDAZBgNVHREEEjAQgg50ZWFtNjQzLXNlcnZlcjANBgkqhkiG
9w0BAQsFAAOCAQEADoHkuVmkQrO+mfKkifXFHT6379NGWObwl8KoqxTeJSGZvI9S
DYa4bOAGfzguDU7+lOXjByYMqCtrnJV9IRm6fLHzEl/v33I+XgeFMiVC4c38isT/
3arWRLjH1elJ5uELKpAfad7bwwCCtwBjl43qzkq8yS5aacnwkwO1mwcJqvuv+T9X
cnN/kiLjpfpQhxQY3FLN47KBZCxoqFVRkdrJ0v+cO9Pxi3hgFmRaU++V8/IdlsE5
b/FkdrjVb6FguLDUc/OPEq9CncBXJS6zg5BVemHZcaFgU2rCMRFSNcclLIzSfPnY
ut+DJ7gxR9qZhN5qSTXiAtAaMFGX+bNbiVaJEw==
-----END CERTIFICATE-----
