Certificate:
    Data:
        Version: 3 (0x2)
        Serial Number:
            8d:38:6f:08:8f:da:56:e4:cb:7d:b7:56:2b:d5:f8:fd
        Signature Algorithm: sha256WithRSAEncryption
        Issuer: CN=team468-net
        Validity
            Not Before: May 18 21:27:38 2022 GMT
            Not After : May  2 21:27:38 2025 GMT
        Subject: CN=team468-server
        Subject Public Key Info:
            Public Key Algorithm: rsaEncryption
                RSA Public-Key: (2048 bit)
                Modulus:
                    00:9b:1b:b7:a9:d8:ad:3e:ff:29:52:f6:49:97:ed:
                    96:fc:af:07:43:6c:2f:29:5b:59:e5:cf:3f:96:dc:
                    74:91:2f:cf:21:0c:a1:0c:08:59:16:0c:ca:f7:05:
                    31:9d:53:19:af:7d:f1:4f:59:22:8f:73:98:79:86:
                    98:92:9c:5a:2b:5a:64:10:c4:5d:fd:a9:68:fe:56:
                    d6:59:7d:4a:71:40:88:da:01:97:52:ae:96:ed:46:
                    64:f4:27:a2:e5:2e:a9:3f:31:3c:2b:96:8d:01:ae:
                    57:53:e2:b9:db:2a:4f:36:ac:41:1f:ef:d6:7b:4b:
                    65:e6:28:36:7e:43:7f:4f:de:18:76:b0:33:d6:28:
                    ff:e0:d0:e3:92:9e:86:61:7d:59:ba:5d:ad:a8:19:
                    cf:64:6a:2c:63:31:70:c3:39:f8:d4:11:b6:2e:f8:
                    8c:1f:f6:7c:d7:7e:85:4e:9b:fc:96:08:12:57:1f:
                    5f:ea:34:73:17:ca:59:c5:13:11:64:9d:de:3c:94:
                    7c:20:1c:03:f4:04:ff:43:92:d7:9d:24:24:95:82:
                    26:96:9a:40:66:2d:e1:64:5f:dc:fe:1f:8a:cb:6b:
                    39:63:ac:b9:c0:80:2c:be:a5:d4:da:36:8d:81:f0:
                    49:99:cf:7a:c1:7d:54:33:e4:3d:1b:67:a7:0f:48:
                    c2:2d
                Exponent: 65537 (0x10001)
        X509v3 extensions:
            X509v3 Basic Constraints: 
                CA:FALSE
            X509v3 Subject Key Identifier: 
                59:B6:1C:2D:44:C4:44:9F:70:11:34:50:FA:0D:9D:E2:FA:03:63:4E
            X509v3 Authority Key Identifier: 
                keyid:8B:CC:5D:65:40:D8:C8:0C:2F:B9:2A:0A:9A:11:CD:D5:9C:E4:1A:54
                DirName:/CN=team468-net
                serial:5F:CB:66:AB:CA:63:7D:EF:24:AB:11:08:22:EC:8E:08:2E:54:07:FC

            X509v3 Extended Key Usage: 
                TLS Web Server Authentication
            X509v3 Key Usage: 
                Digital Signature, Key Encipherment
            X509v3 Subject Alternative Name: 
                DNS:team468-server
    Signature Algorithm: sha256WithRSAEncryption
         47:4a:be:93:c5:63:f7:5a:aa:b8:8c:fa:00:37:ad:25:93:de:
         93:ca:dd:d2:91:6b:ec:24:df:74:65:f0:92:2b:dd:3c:88:d4:
         77:ac:c3:9d:f3:f7:2d:11:c7:a4:10:f9:40:2a:0b:55:36:00:
         fc:f4:7d:3e:2c:b5:45:ba:c5:9d:d9:5f:c2:ab:6e:96:24:75:
         34:8f:49:78:89:66:4b:b1:be:a5:c5:b9:b3:3d:8a:00:25:7d:
         40:9a:e1:20:b9:15:e7:55:3b:e2:ac:c7:8f:ed:70:00:0a:c7:
         fe:c5:a1:c9:cd:58:73:7b:c0:b3:e7:67:d6:42:88:7d:a9:05:
         d6:9c:ce:29:bd:e6:c4:b2:3d:7d:d3:4d:7a:71:51:a7:6f:14:
         82:64:8a:b5:6b:e4:f2:75:1a:2a:12:a4:8a:69:f1:52:c3:2a:
         94:50:c8:38:f7:06:65:c1:36:90:80:2a:45:8c:66:32:df:a4:
         dc:fe:44:9e:31:9a:dc:5e:75:df:e6:3b:12:a3:b5:71:77:f5:
         ba:a7:72:d7:4a:20:a4:15:d7:8b:32:6b:6c:e8:fb:bd:65:6d:
         42:c8:ee:2b:f8:d7:6d:38:1c:80:40:b8:04:d8:5d:df:14:e3:
         4d:ed:20:2f:71:9d:f7:3f:6d:a8:c0:2c:a0:05:48:c2:d5:43:
         91:3d:68:fc
-----BEGIN CERTIFICATE-----
MIIDeDCCAmCgAwIBAgIRAI04bwiP2lbky323VivV+P0wDQYJKoZIhvcNAQELBQAw
FjEUMBIGA1UEAwwLdGVhbTQ2OC1uZXQwHhcNMjIwNTE4MjEyNzM4WhcNMjUwNTAy
MjEyNzM4WjAZMRcwFQYDVQQDDA50ZWFtNDY4LXNlcnZlcjCCASIwDQYJKoZIhvcN
AQEBBQADggEPADCCAQoCggEBAJsbt6nYrT7/KVL2SZftlvyvB0NsLylbWeXPP5bc
dJEvzyEMoQwIWRYMyvcFMZ1TGa998U9ZIo9zmHmGmJKcWitaZBDEXf2paP5W1ll9
SnFAiNoBl1Kulu1GZPQnouUuqT8xPCuWjQGuV1PiudsqTzasQR/v1ntLZeYoNn5D
f0/eGHawM9Yo/+DQ45KehmF9WbpdragZz2RqLGMxcMM5+NQRti74jB/2fNd+hU6b
/JYIElcfX+o0cxfKWcUTEWSd3jyUfCAcA/QE/0OS150kJJWCJpaaQGYt4WRf3P4f
istrOWOsucCALL6l1No2jYHwSZnPesF9VDPkPRtnpw9Iwi0CAwEAAaOBvTCBujAJ
BgNVHRMEAjAAMB0GA1UdDgQWBBRZthwtRMREn3ARNFD6DZ3i+gNjTjBRBgNVHSME
SjBIgBSLzF1lQNjIDC+5KgqaEc3VnOQaVKEapBgwFjEUMBIGA1UEAwwLdGVhbTQ2
OC1uZXSCFF/LZqvKY33vJKsRCCLsjgguVAf8MBMGA1UdJQQMMAoGCCsGAQUFBwMB
MAsGA1UdDwQEAwIFoDAZBgNVHREEEjAQgg50ZWFtNDY4LXNlcnZlcjANBgkqhkiG
9w0BAQsFAAOCAQEAR0q+k8Vj91qquIz6ADetJZPek8rd0pFr7CTfdGXwkivdPIjU
d6zDnfP3LRHHpBD5QCoLVTYA/PR9Piy1RbrFndlfwqtuliR1NI9JeIlmS7G+pcW5
sz2KACV9QJrhILkV51U74qzHj+1wAArH/sWhyc1Yc3vAs+dn1kKIfakF1pzOKb3m
xLI9fdNNenFRp28UgmSKtWvk8nUaKhKkimnxUsMqlFDIOPcGZcE2kIAqRYxmMt+k
3P5EnjGa3F513+Y7EqO1cXf1uqdy10ogpBXXizJrbOj7vWVtQsjuK/jXbTgcgEC4
BNhd3xTjTe0gL3Gd9z9tqMAsoAVIwtVDkT1o/A==
-----END CERTIFICATE-----
