Certificate:
    Data:
        Version: 3 (0x2)
        Serial Number:
            c1:dd:31:c7:69:f9:34:98:7b:a6:40:88:f0:b1:dd:a0
        Signature Algorithm: sha256WithRSAEncryption
        Issuer: CN=team110-net
        Validity
            Not Before: May 18 14:55:43 2022 GMT
            Not After : May  2 14:55:43 2025 GMT
        Subject: CN=team110-server
        Subject Public Key Info:
            Public Key Algorithm: rsaEncryption
                RSA Public-Key: (2048 bit)
                Modulus:
                    00:cc:85:7c:d8:eb:e1:12:21:b7:f8:75:ce:11:ec:
                    80:16:32:71:ce:0e:54:f1:6f:13:df:97:9a:a1:d7:
                    8c:fc:a0:c5:37:eb:04:bd:18:2b:46:ba:cd:bf:09:
                    3e:05:43:f7:9b:33:03:d7:40:17:75:20:ba:37:21:
                    d6:13:7e:7b:c5:6a:96:52:bf:f6:c6:ed:18:55:57:
                    2e:ba:c0:a2:45:c3:2c:1d:f7:2e:93:c9:48:98:a3:
                    74:d9:bc:46:7e:8c:d5:c1:09:c7:72:35:07:b9:d2:
                    9a:85:cd:8c:42:eb:3a:07:65:cd:ed:7a:7f:54:45:
                    7b:17:c9:42:fd:74:95:18:2f:ef:4d:38:99:27:d8:
                    fc:c8:36:32:74:6e:5c:77:a5:41:52:0e:6e:4f:4a:
                    28:f3:1f:c5:9d:02:99:c3:3a:5a:d7:b5:13:b9:4e:
                    cc:96:bb:4d:b7:40:ed:e4:a5:e1:c8:41:c2:5a:bb:
                    f0:79:95:ab:6f:90:5b:f6:74:f4:f2:a7:e9:f6:b1:
                    dc:b3:98:22:11:02:0f:7e:de:38:1e:45:e6:db:ce:
                    da:03:4c:ff:b0:6c:15:a0:31:e9:80:20:01:97:c9:
                    5d:79:96:73:38:d9:ca:94:86:67:01:f9:2c:e9:05:
                    46:02:5d:84:f0:4c:23:47:27:c3:2c:4f:de:81:e1:
                    7b:ad
                Exponent: 65537 (0x10001)
        X509v3 extensions:
            X509v3 Basic Constraints: 
                CA:FALSE
            X509v3 Subject Key Identifier: 
                AC:8E:43:B4:6A:AF:45:D5:1D:50:BC:7B:6E:3D:AD:A6:95:6E:43:5D
            X509v3 Authority Key Identifier: 
                keyid:AD:48:D1:5B:45:0F:D3:41:A9:1F:D7:8F:F4:3D:0A:EE:0A:D2:42:BF
                DirName:/CN=team110-net
                serial:2F:BF:C5:38:21:C4:F0:BA:CB:5D:64:F9:D6:01:5A:63:79:FE:79:B5

            X509v3 Extended Key Usage: 
                TLS Web Server Authentication
            X509v3 Key Usage: 
                Digital Signature, Key Encipherment
            X509v3 Subject Alternative Name: 
                DNS:team110-server
    Signature Algorithm: sha256WithRSAEncryption
         77:65:3f:c0:ce:a0:0a:92:46:34:94:ce:ae:16:c5:cd:73:1f:
         c1:91:94:2a:f6:60:bd:bb:0a:03:e1:64:43:fc:1a:76:97:49:
         8a:88:eb:d0:98:b7:ee:02:a3:13:35:03:30:62:73:60:17:48:
         8b:af:10:70:0a:65:57:51:68:d0:00:79:af:af:fc:60:86:ec:
         43:32:bf:45:a5:19:87:ff:da:66:21:4c:36:3c:7a:ef:a1:fb:
         39:95:6d:35:9e:06:a0:d8:c2:36:8e:51:3a:b0:c7:57:40:bc:
         c9:d2:99:17:37:d4:6e:81:e4:7f:e7:09:d0:00:23:a2:8c:14:
         0f:c3:26:11:11:48:ef:67:ed:f1:60:73:4c:4d:31:08:19:6b:
         11:71:e6:59:1c:91:c2:02:00:af:4a:72:86:fb:49:ac:35:47:
         5e:2a:ba:7c:56:bc:92:15:d9:8e:53:5c:90:9f:02:26:df:c4:
         83:dd:d2:c4:b5:1f:0b:97:74:b3:f6:37:ef:0f:05:f7:2e:a3:
         75:e0:39:5d:a6:aa:e8:03:c6:9c:70:a7:b0:b6:b6:88:de:fb:
         5e:21:d9:c5:4e:1b:4a:21:87:80:92:2f:64:04:1c:26:eb:a5:
         b2:77:f5:7b:11:26:06:b3:6a:a9:5e:70:06:39:01:fc:1f:aa:
         fc:e5:94:fe
-----BEGIN CERTIFICATE-----
MIIDeDCCAmCgAwIBAgIRAMHdMcdp+TSYe6ZAiPCx3aAwDQYJKoZIhvcNAQELBQAw
FjEUMBIGA1UEAwwLdGVhbTExMC1uZXQwHhcNMjIwNTE4MTQ1NTQzWhcNMjUwNTAy
MTQ1NTQzWjAZMRcwFQYDVQQDDA50ZWFtMTEwLXNlcnZlcjCCASIwDQYJKoZIhvcN
AQEBBQADggEPADCCAQoCggEBAMyFfNjr4RIht/h1zhHsgBYycc4OVPFvE9+XmqHX
jPygxTfrBL0YK0a6zb8JPgVD95szA9dAF3Ugujch1hN+e8VqllK/9sbtGFVXLrrA
okXDLB33LpPJSJijdNm8Rn6M1cEJx3I1B7nSmoXNjELrOgdlze16f1RFexfJQv10
lRgv7004mSfY/Mg2MnRuXHelQVIObk9KKPMfxZ0CmcM6Wte1E7lOzJa7TbdA7eSl
4chBwlq78HmVq2+QW/Z09PKn6fax3LOYIhECD37eOB5F5tvO2gNM/7BsFaAx6YAg
AZfJXXmWczjZypSGZwH5LOkFRgJdhPBMI0cnwyxP3oHhe60CAwEAAaOBvTCBujAJ
BgNVHRMEAjAAMB0GA1UdDgQWBBSsjkO0aq9F1R1QvHtuPa2mlW5DXTBRBgNVHSME
SjBIgBStSNFbRQ/TQakf14/0PQruCtJCv6EapBgwFjEUMBIGA1UEAwwLdGVhbTEx
MC1uZXSCFC+/xTghxPC6y11k+dYBWmN5/nm1MBMGA1UdJQQMMAoGCCsGAQUFBwMB
MAsGA1UdDwQEAwIFoDAZBgNVHREEEjAQgg50ZWFtMTEwLXNlcnZlcjANBgkqhkiG
9w0BAQsFAAOCAQEAd2U/wM6gCpJGNJTOrhbFzXMfwZGUKvZgvbsKA+FkQ/wadpdJ
iojr0Ji37gKjEzUDMGJzYBdIi68QcAplV1Fo0AB5r6/8YIbsQzK/RaUZh//aZiFM
Njx676H7OZVtNZ4GoNjCNo5ROrDHV0C8ydKZFzfUboHkf+cJ0AAjoowUD8MmERFI
72ft8WBzTE0xCBlrEXHmWRyRwgIAr0pyhvtJrDVHXiq6fFa8khXZjlNckJ8CJt/E
g93SxLUfC5d0s/Y37w8F9y6jdeA5Xaaq6APGnHCnsLa2iN77XiHZxU4bSiGHgJIv
ZAQcJuulsnf1exEmBrNqqV5wBjkB/B+q/OWU/g==
-----END CERTIFICATE-----
