Certificate:
    Data:
        Version: 3 (0x2)
        Serial Number:
            bb:50:f2:0c:51:cc:fc:43:13:31:e3:09:cb:09:e8:c9
        Signature Algorithm: sha256WithRSAEncryption
        Issuer: CN=team44-net
        Validity
            Not Before: May 18 14:19:01 2022 GMT
            Not After : May  2 14:19:01 2025 GMT
        Subject: CN=team44-server
        Subject Public Key Info:
            Public Key Algorithm: rsaEncryption
                RSA Public-Key: (2048 bit)
                Modulus:
                    00:f3:7f:8e:e7:a5:f4:31:1f:a5:7f:a7:69:ee:16:
                    22:23:a6:a9:59:86:0d:de:17:90:2e:06:6d:fb:51:
                    76:1c:50:f0:4e:4f:72:95:55:20:8c:61:9f:62:f5:
                    81:81:ce:50:d9:b4:3c:37:47:d8:ea:c7:11:c2:a4:
                    f9:78:f8:4a:ca:da:bf:9b:16:1a:62:5f:d5:5a:21:
                    12:7b:82:24:bb:62:d7:aa:33:7e:da:dc:ef:9c:f4:
                    e7:3f:c9:5e:ae:22:6c:26:81:5c:fd:08:0d:12:1e:
                    3b:d7:98:78:48:4a:34:7e:32:f7:5b:a1:66:d7:91:
                    a0:45:fe:29:f9:07:65:b8:73:04:50:e9:a8:f6:df:
                    16:3c:77:2d:fc:dd:f4:ec:fb:8c:b6:8d:f9:94:a2:
                    b1:61:6c:a2:83:f5:86:ea:fb:fc:5d:02:2f:c9:26:
                    a4:91:bf:5b:9c:78:6a:70:f3:0b:bf:01:5a:00:12:
                    91:fb:98:90:07:ff:73:ba:f9:5d:a8:72:e7:26:2a:
                    9e:1e:1d:f2:8d:4d:fd:35:dd:aa:9c:6c:3b:dd:9d:
                    20:b2:35:a3:4f:13:78:da:a0:4e:78:f7:e5:53:a5:
                    d5:ce:c0:2a:a5:09:62:19:90:10:b8:26:73:30:20:
                    b8:7a:44:c2:f1:d6:6b:4c:6f:ac:b0:9d:7d:ec:d9:
                    20:bd
                Exponent: 65537 (0x10001)
        X509v3 extensions:
            X509v3 Basic Constraints: 
                CA:FALSE
            X509v3 Subject Key Identifier: 
                D2:26:1E:11:43:83:17:CE:57:45:4F:57:4F:95:8D:CD:A8:AD:AB:55
            X509v3 Authority Key Identifier: 
                keyid:4C:11:70:4F:2D:4A:53:70:B8:70:97:ED:B5:5F:DC:1B:0B:C6:52:D9
                DirName:/CN=team44-net
                serial:E3:FD:38:D6:FA:49:4D:F7:A0:9E:22:2D:25:05:2B:CE:02:D1:8D

            X509v3 Extended Key Usage: 
                TLS Web Server Authentication
            X509v3 Key Usage: 
                Digital Signature, Key Encipherment
            X509v3 Subject Alternative Name: 
                DNS:team44-server
    Signature Algorithm: sha256WithRSAEncryption
         7c:52:2b:82:ed:37:92:57:6c:37:7a:73:8c:b1:b9:78:94:c9:
         b3:9a:2a:ec:d7:94:5d:2d:27:87:b9:c8:88:ca:82:ba:e2:9b:
         66:dd:77:17:6e:e4:9d:d3:40:db:25:ec:2a:35:34:a9:32:7c:
         0c:70:d4:11:7c:7b:00:f3:6f:54:eb:f3:94:3d:83:a2:7f:a3:
         26:64:be:65:5c:29:99:ce:25:cc:03:ef:78:3e:d5:fa:9d:91:
         04:cd:35:22:e0:0f:73:8f:73:a0:70:96:67:1f:41:4b:3a:62:
         bc:1d:da:10:c4:e5:c0:8b:96:7d:c4:ea:36:39:4a:9d:40:60:
         c5:1d:20:5d:c7:b3:66:46:62:1f:cf:b6:a0:04:0f:ed:5f:f3:
         4f:31:99:b5:4c:48:54:64:8c:5f:57:15:1b:9d:c2:f7:b1:41:
         30:aa:ff:5b:17:7a:d2:f8:63:79:0e:3d:4d:01:2d:1d:aa:c2:
         9d:70:53:9f:a7:f9:f9:f0:db:c9:3f:01:21:76:c7:d0:d2:da:
         6b:30:4e:94:9b:a8:de:bf:81:36:f6:63:2a:55:4d:ce:e6:6a:
         64:91:5c:c5:43:94:d6:31:44:5a:83:16:34:9b:e3:60:be:1d:
         fc:f6:73:51:2c:aa:f6:d5:2a:94:3a:56:a4:5b:71:50:70:32:
         d3:81:ab:09
-----BEGIN CERTIFICATE-----
MIIDdDCCAlygAwIBAgIRALtQ8gxRzPxDEzHjCcsJ6MkwDQYJKoZIhvcNAQELBQAw
FTETMBEGA1UEAwwKdGVhbTQ0LW5ldDAeFw0yMjA1MTgxNDE5MDFaFw0yNTA1MDIx
NDE5MDFaMBgxFjAUBgNVBAMMDXRlYW00NC1zZXJ2ZXIwggEiMA0GCSqGSIb3DQEB
AQUAA4IBDwAwggEKAoIBAQDzf47npfQxH6V/p2nuFiIjpqlZhg3eF5AuBm37UXYc
UPBOT3KVVSCMYZ9i9YGBzlDZtDw3R9jqxxHCpPl4+ErK2r+bFhpiX9VaIRJ7giS7
YteqM37a3O+c9Oc/yV6uImwmgVz9CA0SHjvXmHhISjR+MvdboWbXkaBF/in5B2W4
cwRQ6aj23xY8dy383fTs+4y2jfmUorFhbKKD9Ybq+/xdAi/JJqSRv1uceGpw8wu/
AVoAEpH7mJAH/3O6+V2ocucmKp4eHfKNTf013aqcbDvdnSCyNaNPE3jaoE549+VT
pdXOwCqlCWIZkBC4JnMwILh6RMLx1mtMb6ywnX3s2SC9AgMBAAGjgbswgbgwCQYD
VR0TBAIwADAdBgNVHQ4EFgQU0iYeEUODF85XRU9XT5WNzaitq1UwUAYDVR0jBEkw
R4AUTBFwTy1KU3C4cJfttV/cGwvGUtmhGaQXMBUxEzARBgNVBAMMCnRlYW00NC1u
ZXSCFADj/TjW+klN96CeIi0lBSvOAtGNMBMGA1UdJQQMMAoGCCsGAQUFBwMBMAsG
A1UdDwQEAwIFoDAYBgNVHREEETAPgg10ZWFtNDQtc2VydmVyMA0GCSqGSIb3DQEB
CwUAA4IBAQB8UiuC7TeSV2w3enOMsbl4lMmzmirs15RdLSeHuciIyoK64ptm3XcX
buSd00DbJewqNTSpMnwMcNQRfHsA829U6/OUPYOif6MmZL5lXCmZziXMA+94PtX6
nZEEzTUi4A9zj3OgcJZnH0FLOmK8HdoQxOXAi5Z9xOo2OUqdQGDFHSBdx7NmRmIf
z7agBA/tX/NPMZm1TEhUZIxfVxUbncL3sUEwqv9bF3rS+GN5Dj1NAS0dqsKdcFOf
p/n58NvJPwEhdsfQ0tprME6Um6jev4E29mMqVU3O5mpkkVzFQ5TWMURagxY0m+Ng
vh389nNRLKr21SqUOlakW3FQcDLTgasJ
-----END CERTIFICATE-----
