Certificate:
    Data:
        Version: 3 (0x2)
        Serial Number:
            e6:ab:6e:24:a0:92:f2:10:e7:43:6b:65:ad:97:0c:64
        Signature Algorithm: sha256WithRSAEncryption
        Issuer: CN=team690-net
        Validity
            Not Before: May 18 23:41:19 2022 GMT
            Not After : May  2 23:41:19 2025 GMT
        Subject: CN=team690-server
        Subject Public Key Info:
            Public Key Algorithm: rsaEncryption
                RSA Public-Key: (2048 bit)
                Modulus:
                    00:f6:55:25:6b:36:ec:35:eb:b9:c5:d6:fd:df:c5:
                    61:73:bd:f7:b0:18:0a:18:cf:a2:e5:ae:ac:e4:44:
                    44:1d:80:5b:1a:e9:88:89:4d:94:49:dd:e9:38:58:
                    8e:f6:57:91:51:92:40:19:dd:81:6f:85:78:2a:61:
                    85:b5:79:a4:3e:99:e5:19:e1:7b:ae:df:81:13:ce:
                    a1:aa:d2:06:b8:1c:d6:5e:dc:a8:ae:b7:95:5a:84:
                    16:0b:db:5c:1b:42:48:bd:9b:ec:2f:18:62:8f:fd:
                    79:fc:77:0c:05:35:e3:87:80:28:ee:ae:41:74:f2:
                    c1:81:ac:48:8a:00:44:bf:9a:4c:0c:fe:b5:5a:84:
                    5f:59:a2:94:47:ba:47:b8:b5:21:d6:46:08:da:e3:
                    4c:da:7d:16:a3:f5:0e:00:37:f5:01:17:bf:08:d2:
                    3a:66:17:c8:41:e3:18:52:25:1d:02:5f:0b:86:3f:
                    1a:3a:43:7a:00:c8:d5:6d:b5:f4:a7:38:c7:43:32:
                    b6:11:86:65:47:c0:b7:29:6e:db:0f:db:53:82:b2:
                    92:df:bf:b0:29:99:d0:78:98:55:99:ab:6a:09:0d:
                    9b:83:64:8a:72:0d:34:f7:aa:80:73:71:3a:1a:7b:
                    11:0f:c3:7e:92:98:22:24:5e:74:6b:8a:9b:55:d8:
                    2f:95
                Exponent: 65537 (0x10001)
        X509v3 extensions:
            X509v3 Basic Constraints: 
                CA:FALSE
            X509v3 Subject Key Identifier: 
                2B:4C:C3:D9:31:09:96:14:38:6E:92:5F:CE:BB:F9:D4:18:2D:6B:2C
            X509v3 Authority Key Identifier: 
                keyid:76:00:3C:92:34:04:B3:F4:A6:E2:DB:93:3E:5F:3C:08:53:58:2C:B8
                DirName:/CN=team690-net
                serial:21:A5:E4:B4:1E:D4:C6:A6:1E:58:11:65:11:D2:41:0D:5F:8A:BD:EC

            X509v3 Extended Key Usage: 
                TLS Web Server Authentication
            X509v3 Key Usage: 
                Digital Signature, Key Encipherment
            X509v3 Subject Alternative Name: 
                DNS:team690-server
    Signature Algorithm: sha256WithRSAEncryption
         8a:66:f1:bd:f7:d0:ec:d5:64:9a:b4:94:41:36:4a:b7:e3:5e:
         b1:69:fe:ed:63:a6:8b:80:41:37:a4:8f:ab:da:8a:57:b1:e1:
         09:dc:96:5f:39:ea:d3:10:51:a7:84:71:b2:19:4a:f0:14:41:
         07:98:08:ba:d0:a5:d0:b4:91:b3:79:e8:14:43:6d:40:0d:2d:
         9f:ab:1c:08:0c:87:77:d5:85:18:db:5c:b3:29:ba:ff:ca:f2:
         ac:01:87:ac:52:57:83:bc:3a:d8:74:ee:8b:f4:ad:71:0d:2b:
         16:a9:fb:56:91:84:cd:f6:05:66:21:05:8d:dd:88:a6:9a:80:
         33:67:8e:84:36:da:0b:2a:9b:7a:6e:af:b8:1e:29:d7:83:03:
         c0:3f:e8:1b:91:5e:59:1a:86:a2:3b:d3:31:07:89:a0:db:e2:
         39:3e:73:8b:18:e2:52:f3:c3:a9:cc:46:e4:88:0b:17:e5:4a:
         e4:38:d8:57:d6:d0:6f:f6:16:09:1b:0e:b5:0f:89:c9:57:f1:
         32:85:b9:fa:2c:36:6f:6f:6f:51:59:ca:62:7c:94:2b:48:b6:
         81:19:6b:2c:bb:07:5b:2e:86:6e:c5:ab:ce:8a:29:1b:8b:ee:
         e3:a7:8c:32:7a:71:11:fc:4f:df:e7:dd:76:c7:0b:91:da:5a:
         b6:e2:ca:29
-----BEGIN CERTIFICATE-----
MIIDeDCCAmCgAwIBAgIRAOarbiSgkvIQ50NrZa2XDGQwDQYJKoZIhvcNAQELBQAw
FjEUMBIGA1UEAwwLdGVhbTY5MC1uZXQwHhcNMjIwNTE4MjM0MTE5WhcNMjUwNTAy
MjM0MTE5WjAZMRcwFQYDVQQDDA50ZWFtNjkwLXNlcnZlcjCCASIwDQYJKoZIhvcN
AQEBBQADggEPADCCAQoCggEBAPZVJWs27DXrucXW/d/FYXO997AYChjPouWurORE
RB2AWxrpiIlNlEnd6ThYjvZXkVGSQBndgW+FeCphhbV5pD6Z5Rnhe67fgRPOoarS
Brgc1l7cqK63lVqEFgvbXBtCSL2b7C8YYo/9efx3DAU144eAKO6uQXTywYGsSIoA
RL+aTAz+tVqEX1milEe6R7i1IdZGCNrjTNp9FqP1DgA39QEXvwjSOmYXyEHjGFIl
HQJfC4Y/GjpDegDI1W219Kc4x0MythGGZUfAtylu2w/bU4Kykt+/sCmZ0HiYVZmr
agkNm4NkinINNPeqgHNxOhp7EQ/DfpKYIiRedGuKm1XYL5UCAwEAAaOBvTCBujAJ
BgNVHRMEAjAAMB0GA1UdDgQWBBQrTMPZMQmWFDhukl/Ou/nUGC1rLDBRBgNVHSME
SjBIgBR2ADySNASz9Kbi25M+XzwIU1gsuKEapBgwFjEUMBIGA1UEAwwLdGVhbTY5
MC1uZXSCFCGl5LQe1MamHlgRZRHSQQ1fir3sMBMGA1UdJQQMMAoGCCsGAQUFBwMB
MAsGA1UdDwQEAwIFoDAZBgNVHREEEjAQgg50ZWFtNjkwLXNlcnZlcjANBgkqhkiG
9w0BAQsFAAOCAQEAimbxvffQ7NVkmrSUQTZKt+NesWn+7WOmi4BBN6SPq9qKV7Hh
CdyWXznq0xBRp4RxshlK8BRBB5gIutCl0LSRs3noFENtQA0tn6scCAyHd9WFGNtc
sym6/8ryrAGHrFJXg7w62HTui/StcQ0rFqn7VpGEzfYFZiEFjd2IppqAM2eOhDba
Cyqbem6vuB4p14MDwD/oG5FeWRqGojvTMQeJoNviOT5zixjiUvPDqcxG5IgLF+VK
5DjYV9bQb/YWCRsOtQ+JyVfxMoW5+iw2b29vUVnKYnyUK0i2gRlrLLsHWy6GbsWr
zoopG4vu46eMMnpxEfxP3+fddscLkdpatuLKKQ==
-----END CERTIFICATE-----
