Certificate:
    Data:
        Version: 3 (0x2)
        Serial Number:
            f5:d9:9e:9c:ea:7e:88:93:4a:a6:d7:73:db:8d:37:4d
        Signature Algorithm: sha256WithRSAEncryption
        Issuer: CN=team184-net
        Validity
            Not Before: May 18 18:59:26 2022 GMT
            Not After : May  2 18:59:26 2025 GMT
        Subject: CN=team184-client
        Subject Public Key Info:
            Public Key Algorithm: rsaEncryption
                RSA Public-Key: (2048 bit)
                Modulus:
                    00:dd:ca:9d:ce:44:dd:1e:dd:32:27:5b:36:02:3f:
                    46:b1:a0:94:0c:bc:4d:f8:35:27:36:89:44:0b:e6:
                    27:5e:ce:07:18:ae:6c:0d:8b:51:8c:e5:82:49:70:
                    8c:2d:97:65:c7:e1:e8:53:58:87:44:c9:40:1d:0e:
                    fb:79:0a:b9:6d:a7:18:10:48:46:e9:64:6c:ad:6b:
                    a9:b1:47:25:a2:a3:23:ed:02:59:cf:e4:99:06:43:
                    11:a2:e1:9a:05:c6:35:13:4d:b9:a7:89:f2:c9:a8:
                    e1:ac:4a:a8:01:c7:8d:54:81:14:86:92:b4:e1:6b:
                    e3:0c:2c:e2:43:0e:b4:b7:a1:e8:9a:27:ef:e8:31:
                    11:6b:85:ed:b9:7c:82:3e:1f:73:1e:52:40:a3:57:
                    16:2e:ce:16:b1:13:71:79:01:99:1d:22:cf:1c:ba:
                    86:09:df:29:18:1d:63:aa:2b:a4:19:b6:bb:80:af:
                    02:2f:ee:e5:98:a0:1d:fa:ec:14:0a:ce:c0:33:47:
                    c3:71:94:98:5a:ec:60:ee:19:fb:43:89:6a:85:3f:
                    54:40:cf:e7:ef:04:db:97:3d:1c:09:45:4c:8c:24:
                    c1:7e:c1:c2:08:2d:89:ad:76:d5:a9:e5:a8:6a:fc:
                    15:d1:e1:ad:51:aa:18:4c:71:f7:8d:35:1c:2c:61:
                    4b:43
                Exponent: 65537 (0x10001)
        X509v3 extensions:
            X509v3 Basic Constraints: 
                CA:FALSE
            X509v3 Subject Key Identifier: 
                E3:AC:FB:CA:7A:7D:2D:D0:62:41:DF:D0:F2:DF:4A:13:33:7A:E1:2E
            X509v3 Authority Key Identifier: 
                keyid:79:5A:B2:11:43:2A:48:12:C0:D6:10:0B:7C:0F:DE:F9:40:24:B6:49
                DirName:/CN=team184-net
                serial:5A:3E:42:91:AB:B5:88:97:2A:A4:E1:8E:D2:30:00:A2:14:0A:E5:10

            X509v3 Extended Key Usage: 
                TLS Web Client Authentication
            X509v3 Key Usage: 
                Digital Signature
    Signature Algorithm: sha256WithRSAEncryption
         55:c8:c4:52:a0:4f:5e:4d:b0:b0:3f:b4:73:5f:fd:7f:d1:db:
         b4:26:29:fd:0c:c5:a9:e2:58:4e:eb:97:23:f2:df:23:a9:39:
         e1:7a:43:16:18:d4:79:7b:e0:7c:87:d4:83:06:b8:69:9b:63:
         4b:83:fe:49:1d:2a:89:10:e9:fe:7a:1d:34:77:76:fc:be:3f:
         25:37:4d:b2:94:3c:c2:3e:da:e6:16:2f:b4:b0:85:40:81:0a:
         15:a6:9d:d4:99:2a:a1:03:b0:f5:f8:0d:6a:ad:f9:61:5a:ca:
         16:fd:e4:bf:d4:f0:67:ef:c4:52:8b:42:55:5e:32:2b:46:cd:
         9f:e8:49:af:1b:7b:59:f9:ac:46:4e:4e:a1:ad:8b:1d:a5:7a:
         75:5d:d5:a7:6a:a7:e8:f1:8c:64:d7:60:0f:40:d1:aa:cb:97:
         05:bd:55:1b:6b:3a:73:2f:f7:af:36:fc:16:5c:91:1c:cf:8f:
         68:62:bb:03:9f:5f:6c:b1:49:57:87:04:7b:54:23:04:8c:00:
         b7:00:a8:35:0e:b1:4c:1e:d8:72:fc:48:d4:ee:3d:7e:06:8e:
         db:e3:6a:a2:1c:ae:2e:7d:4e:e4:6f:d8:3a:ea:47:ed:84:1c:
         f5:9e:e3:0d:6c:90:ed:c5:77:d6:28:09:92:98:4d:0d:26:95:
         eb:96:fd:b5
-----BEGIN CERTIFICATE-----
MIIDXTCCAkWgAwIBAgIRAPXZnpzqfoiTSqbXc9uNN00wDQYJKoZIhvcNAQELBQAw
FjEUMBIGA1UEAwwLdGVhbTE4NC1uZXQwHhcNMjIwNTE4MTg1OTI2WhcNMjUwNTAy
MTg1OTI2WjAZMRcwFQYDVQQDDA50ZWFtMTg0LWNsaWVudDCCASIwDQYJKoZIhvcN
AQEBBQADggEPADCCAQoCggEBAN3Knc5E3R7dMidbNgI/RrGglAy8Tfg1JzaJRAvm
J17OBxiubA2LUYzlgklwjC2XZcfh6FNYh0TJQB0O+3kKuW2nGBBIRulkbK1rqbFH
JaKjI+0CWc/kmQZDEaLhmgXGNRNNuaeJ8smo4axKqAHHjVSBFIaStOFr4wws4kMO
tLeh6Jon7+gxEWuF7bl8gj4fcx5SQKNXFi7OFrETcXkBmR0izxy6hgnfKRgdY6or
pBm2u4CvAi/u5ZigHfrsFArOwDNHw3GUmFrsYO4Z+0OJaoU/VEDP5+8E25c9HAlF
TIwkwX7Bwggtia121anlqGr8FdHhrVGqGExx9401HCxhS0MCAwEAAaOBojCBnzAJ
BgNVHRMEAjAAMB0GA1UdDgQWBBTjrPvKen0t0GJB39Dy30oTM3rhLjBRBgNVHSME
SjBIgBR5WrIRQypIEsDWEAt8D975QCS2SaEapBgwFjEUMBIGA1UEAwwLdGVhbTE4
NC1uZXSCFFo+QpGrtYiXKqThjtIwAKIUCuUQMBMGA1UdJQQMMAoGCCsGAQUFBwMC
MAsGA1UdDwQEAwIHgDANBgkqhkiG9w0BAQsFAAOCAQEAVcjEUqBPXk2wsD+0c1/9
f9HbtCYp/QzFqeJYTuuXI/LfI6k54XpDFhjUeXvgfIfUgwa4aZtjS4P+SR0qiRDp
/nodNHd2/L4/JTdNspQ8wj7a5hYvtLCFQIEKFaad1JkqoQOw9fgNaq35YVrKFv3k
v9TwZ+/EUotCVV4yK0bNn+hJrxt7WfmsRk5Ooa2LHaV6dV3Vp2qn6PGMZNdgD0DR
qsuXBb1VG2s6cy/3rzb8FlyRHM+PaGK7A59fbLFJV4cEe1QjBIwAtwCoNQ6xTB7Y
cvxI1O49fgaO2+NqohyuLn1O5G/YOupH7YQc9Z7jDWyQ7cV31igJkphNDSaV65b9
tQ==
-----END CERTIFICATE-----
