Certificate:
    Data:
        Version: 3 (0x2)
        Serial Number:
            3f:a8:bd:14:e1:76:ac:d3:8c:8f:9e:e6:a5:52:d5:93
        Signature Algorithm: sha256WithRSAEncryption
        Issuer: CN=team206-net
        Validity
            Not Before: May 18 19:03:52 2022 GMT
            Not After : May  2 19:03:52 2025 GMT
        Subject: CN=team206-client
        Subject Public Key Info:
            Public Key Algorithm: rsaEncryption
                RSA Public-Key: (2048 bit)
                Modulus:
                    00:ab:7a:8d:9d:4a:65:e9:a0:51:44:f9:a5:63:7a:
                    bb:de:0a:33:02:aa:bd:18:22:df:32:10:ff:9a:19:
                    5b:72:9e:08:61:f0:fc:4c:b3:40:6e:6f:b8:2e:94:
                    33:1d:b4:d8:47:f7:c9:74:36:24:aa:e8:ab:3f:17:
                    cf:6e:3d:25:d3:9d:a2:5b:af:f3:cc:28:33:74:61:
                    68:bc:0d:a8:99:8c:a4:4f:19:6c:96:4b:24:ef:3a:
                    32:ff:6c:49:c4:4a:b5:7d:f3:99:cb:d9:de:35:5b:
                    31:24:2f:3c:23:dc:e8:28:36:ed:92:a6:d0:85:f7:
                    c4:fd:e1:d5:be:54:17:03:6f:41:9b:3c:c2:b5:50:
                    90:0b:2b:e9:7c:de:c2:0d:28:04:2a:9a:73:91:15:
                    30:45:bd:f0:91:88:0f:d7:d4:db:a7:72:70:03:43:
                    d0:ed:62:37:76:ed:82:49:27:4e:83:99:d2:a9:e7:
                    d2:a9:30:50:04:92:0d:44:ba:e7:1b:87:22:3a:05:
                    1d:ae:42:57:e2:b4:d1:32:1a:21:04:12:53:b3:6a:
                    eb:c4:85:d2:a5:87:fe:2f:54:e2:93:46:d4:42:6f:
                    33:4c:ea:8a:27:cc:a7:20:97:7d:6d:d6:7c:a0:3d:
                    7b:ee:38:fd:2e:3b:37:77:3f:9b:30:47:9e:bf:e6:
                    39:45
                Exponent: 65537 (0x10001)
        X509v3 extensions:
            X509v3 Basic Constraints: 
                CA:FALSE
            X509v3 Subject Key Identifier: 
                78:AA:23:2A:2C:30:A0:59:2B:F3:76:01:81:21:ED:C6:BF:64:67:7D
            X509v3 Authority Key Identifier: 
                keyid:F9:7A:6B:2A:47:A3:1E:C3:C5:CD:AF:5D:0B:70:92:A0:DA:5A:66:4D
                DirName:/CN=team206-net
                serial:56:32:26:8E:D3:CD:46:78:87:4E:66:2C:49:30:6D:30:A0:19:D2:68

            X509v3 Extended Key Usage: 
                TLS Web Client Authentication
            X509v3 Key Usage: 
                Digital Signature
    Signature Algorithm: sha256WithRSAEncryption
         47:e9:d3:f6:35:68:ce:39:34:d7:16:9e:a2:d1:4a:bc:f6:9e:
         7c:5f:ce:65:15:ee:a8:ba:71:a4:1f:2d:7e:c2:db:5c:3f:aa:
         88:59:33:6e:0b:62:f5:1b:55:b4:0f:27:aa:31:35:c3:a8:c0:
         f8:a5:c6:89:90:50:76:fb:b3:93:3c:d6:fe:07:bc:1d:72:c7:
         86:cd:43:8d:a4:e7:83:74:cf:b7:07:98:bc:99:7d:96:bc:aa:
         11:cd:53:88:c0:f8:28:a1:0f:6f:dd:8c:8b:6a:02:00:d0:c1:
         c4:1c:ef:d3:cd:06:d0:57:5a:1f:ae:81:a0:3b:c7:5f:6a:87:
         47:f7:69:ff:7c:fb:37:6d:db:b1:08:b3:09:83:64:4e:f3:3a:
         e4:81:b9:51:fe:76:7e:3c:6a:58:79:a1:04:97:84:d4:63:64:
         a7:3f:1d:26:ba:63:5b:57:c8:b8:1d:41:da:c6:21:e0:74:43:
         af:95:63:11:15:d7:2d:16:25:7e:5b:26:68:87:6c:a1:f2:fa:
         22:e5:8c:ee:7a:fe:bc:31:10:6c:3f:8d:ef:53:55:a5:64:0e:
         c6:88:fc:bd:b8:e1:1f:0a:a1:f1:2e:47:c0:89:f0:1f:8d:cb:
         68:c2:59:42:78:78:05:80:28:1a:ff:83:34:e7:34:0d:f4:ea:
         4f:04:43:eb
-----BEGIN CERTIFICATE-----
MIIDXDCCAkSgAwIBAgIQP6i9FOF2rNOMj57mpVLVkzANBgkqhkiG9w0BAQsFADAW
MRQwEgYDVQQDDAt0ZWFtMjA2LW5ldDAeFw0yMjA1MTgxOTAzNTJaFw0yNTA1MDIx
OTAzNTJaMBkxFzAVBgNVBAMMDnRlYW0yMDYtY2xpZW50MIIBIjANBgkqhkiG9w0B
AQEFAAOCAQ8AMIIBCgKCAQEAq3qNnUpl6aBRRPmlY3q73gozAqq9GCLfMhD/mhlb
cp4IYfD8TLNAbm+4LpQzHbTYR/fJdDYkquirPxfPbj0l052iW6/zzCgzdGFovA2o
mYykTxlslksk7zoy/2xJxEq1ffOZy9neNVsxJC88I9zoKDbtkqbQhffE/eHVvlQX
A29BmzzCtVCQCyvpfN7CDSgEKppzkRUwRb3wkYgP19Tbp3JwA0PQ7WI3du2CSSdO
g5nSqefSqTBQBJINRLrnG4ciOgUdrkJX4rTRMhohBBJTs2rrxIXSpYf+L1Tik0bU
Qm8zTOqKJ8ynIJd9bdZ8oD177jj9Ljs3dz+bMEeev+Y5RQIDAQABo4GiMIGfMAkG
A1UdEwQCMAAwHQYDVR0OBBYEFHiqIyosMKBZK/N2AYEh7ca/ZGd9MFEGA1UdIwRK
MEiAFPl6aypHox7Dxc2vXQtwkqDaWmZNoRqkGDAWMRQwEgYDVQQDDAt0ZWFtMjA2
LW5ldIIUVjImjtPNRniHTmYsSTBtMKAZ0mgwEwYDVR0lBAwwCgYIKwYBBQUHAwIw
CwYDVR0PBAQDAgeAMA0GCSqGSIb3DQEBCwUAA4IBAQBH6dP2NWjOOTTXFp6i0Uq8
9p58X85lFe6ounGkHy1+wttcP6qIWTNuC2L1G1W0DyeqMTXDqMD4pcaJkFB2+7OT
PNb+B7wdcseGzUONpOeDdM+3B5i8mX2WvKoRzVOIwPgooQ9v3YyLagIA0MHEHO/T
zQbQV1ofroGgO8dfaodH92n/fPs3bduxCLMJg2RO8zrkgblR/nZ+PGpYeaEEl4TU
Y2SnPx0mumNbV8i4HUHaxiHgdEOvlWMRFdctFiV+WyZoh2yh8voi5Yzuev68MRBs
P43vU1WlZA7GiPy9uOEfCqHxLkfAifAfjctowllCeHgFgCga/4M05zQN9OpPBEPr
-----END CERTIFICATE-----
