Certificate:
    Data:
        Version: 3 (0x2)
        Serial Number:
            cd:40:77:8f:1b:59:95:c4:f2:81:2a:3e:36:28:0f:74
        Signature Algorithm: sha256WithRSAEncryption
        Issuer: CN=team694-net
        Validity
            Not Before: May 18 23:43:35 2022 GMT
            Not After : May  2 23:43:35 2025 GMT
        Subject: CN=team694-client
        Subject Public Key Info:
            Public Key Algorithm: rsaEncryption
                RSA Public-Key: (2048 bit)
                Modulus:
                    00:c8:17:f5:61:43:ee:b5:ac:36:ac:c8:f8:48:ce:
                    d2:2b:21:eb:55:4c:d9:d5:83:dd:a8:9b:bd:24:ab:
                    f5:8f:e5:45:f2:c6:70:c9:d2:95:0f:46:29:f8:0d:
                    d0:fa:2c:d0:26:c3:b0:bd:56:e9:2e:f2:f4:3b:a6:
                    2d:ea:16:3f:f8:78:40:2c:14:d0:90:bb:5e:80:a5:
                    78:df:46:43:41:1c:22:53:00:70:db:5b:5f:54:79:
                    83:31:c1:85:13:de:d8:b1:3c:8c:9e:ed:4d:50:50:
                    dd:28:33:1c:b0:e7:a1:a7:e1:46:c7:ab:83:b7:24:
                    51:3b:8e:5d:5d:c9:52:61:39:e5:ff:49:c3:d2:dd:
                    d3:39:2e:79:e4:d2:01:fa:70:bf:9d:8b:27:db:82:
                    78:f6:1f:66:24:c5:f2:23:b8:8a:ba:40:15:2f:07:
                    32:72:b5:6f:e3:93:cf:e4:70:59:c8:03:c7:96:0a:
                    03:d4:77:e5:af:68:28:9c:bb:c2:7b:c8:a0:18:9b:
                    e6:8e:3a:8b:9a:c5:9c:20:f7:2e:71:71:a8:c7:47:
                    5a:09:e6:10:2b:4f:1e:44:ed:79:c6:76:f3:ba:57:
                    4e:f1:e1:88:e6:c4:62:2e:1c:eb:16:98:80:ef:aa:
                    b7:7c:8d:1d:9d:13:4e:66:4f:3e:34:f0:9a:f6:52:
                    6b:e5
                Exponent: 65537 (0x10001)
        X509v3 extensions:
            X509v3 Basic Constraints: 
                CA:FALSE
            X509v3 Subject Key Identifier: 
                5C:A0:CB:57:6E:A5:4B:7E:A5:3F:DF:16:FB:CB:D7:ED:52:CB:26:26
            X509v3 Authority Key Identifier: 
                keyid:3B:95:BC:B0:96:A8:15:11:0A:A8:B3:67:81:AF:7B:C6:98:67:1A:47
                DirName:/CN=team694-net
                serial:17:4D:97:25:74:59:FA:5F:F6:27:95:0C:70:F6:B9:26:C3:AC:12:0B

            X509v3 Extended Key Usage: 
                TLS Web Client Authentication
            X509v3 Key Usage: 
                Digital Signature
    Signature Algorithm: sha256WithRSAEncryption
         65:b4:d9:f1:44:92:39:66:c4:bc:a5:7c:3a:d4:01:0e:da:78:
         a3:71:b8:a3:24:3c:3b:f5:15:9c:ea:b4:fa:9f:9a:02:10:aa:
         12:13:2a:2b:01:29:56:5e:47:38:8b:bb:35:f1:9c:04:c2:d3:
         8a:9b:cc:c3:bb:fc:bd:78:3b:ca:36:36:99:20:ab:ee:c7:53:
         03:44:ac:2d:ea:fa:d1:43:2f:5f:45:8a:20:6f:c7:91:cb:8f:
         77:67:e3:d6:00:e1:60:c8:4c:7b:e9:d1:b9:f2:33:74:63:2e:
         3a:60:e8:3f:5f:47:51:c2:b4:b8:8e:29:a7:38:e3:92:d4:0a:
         6b:95:61:d4:fd:15:1b:fb:89:19:04:0c:3d:db:2d:53:ab:c4:
         88:20:e5:02:bb:9b:ee:e9:a8:58:45:6b:b4:59:3a:80:9a:86:
         6b:2b:5d:15:ec:9f:44:dc:d5:46:48:5a:4f:b3:54:83:d4:e2:
         8b:ee:86:19:2a:31:2e:ec:cb:dc:21:fe:72:91:91:68:f9:24:
         75:8b:77:f6:85:9d:d9:21:a6:ca:8e:8a:a3:5d:df:5a:b3:f0:
         5c:8a:d1:c7:39:8b:de:d6:61:fb:52:40:f2:cd:04:0f:07:05:
         af:d6:8f:19:ee:82:76:91:15:de:44:fa:c0:08:92:f7:d6:fe:
         bc:9d:1f:56
-----BEGIN CERTIFICATE-----
MIIDXTCCAkWgAwIBAgIRAM1Ad48bWZXE8oEqPjYoD3QwDQYJKoZIhvcNAQELBQAw
FjEUMBIGA1UEAwwLdGVhbTY5NC1uZXQwHhcNMjIwNTE4MjM0MzM1WhcNMjUwNTAy
MjM0MzM1WjAZMRcwFQYDVQQDDA50ZWFtNjk0LWNsaWVudDCCASIwDQYJKoZIhvcN
AQEBBQADggEPADCCAQoCggEBAMgX9WFD7rWsNqzI+EjO0ish61VM2dWD3aibvSSr
9Y/lRfLGcMnSlQ9GKfgN0Pos0CbDsL1W6S7y9DumLeoWP/h4QCwU0JC7XoCleN9G
Q0EcIlMAcNtbX1R5gzHBhRPe2LE8jJ7tTVBQ3SgzHLDnoafhRserg7ckUTuOXV3J
UmE55f9Jw9Ld0zkueeTSAfpwv52LJ9uCePYfZiTF8iO4irpAFS8HMnK1b+OTz+Rw
WcgDx5YKA9R35a9oKJy7wnvIoBib5o46i5rFnCD3LnFxqMdHWgnmECtPHkTtecZ2
87pXTvHhiObEYi4c6xaYgO+qt3yNHZ0TTmZPPjTwmvZSa+UCAwEAAaOBojCBnzAJ
BgNVHRMEAjAAMB0GA1UdDgQWBBRcoMtXbqVLfqU/3xb7y9ftUssmJjBRBgNVHSME
SjBIgBQ7lbywlqgVEQqos2eBr3vGmGcaR6EapBgwFjEUMBIGA1UEAwwLdGVhbTY5
NC1uZXSCFBdNlyV0Wfpf9ieVDHD2uSbDrBILMBMGA1UdJQQMMAoGCCsGAQUFBwMC
MAsGA1UdDwQEAwIHgDANBgkqhkiG9w0BAQsFAAOCAQEAZbTZ8USSOWbEvKV8OtQB
Dtp4o3G4oyQ8O/UVnOq0+p+aAhCqEhMqKwEpVl5HOIu7NfGcBMLTipvMw7v8vXg7
yjY2mSCr7sdTA0SsLer60UMvX0WKIG/HkcuPd2fj1gDhYMhMe+nRufIzdGMuOmDo
P19HUcK0uI4ppzjjktQKa5Vh1P0VG/uJGQQMPdstU6vEiCDlArub7umoWEVrtFk6
gJqGaytdFeyfRNzVRkhaT7NUg9Tii+6GGSoxLuzL3CH+cpGRaPkkdYt39oWd2SGm
yo6Ko13fWrPwXIrRxzmL3tZh+1JA8s0EDwcFr9aPGe6CdpEV3kT6wAiS99b+vJ0f
Vg==
-----END CERTIFICATE-----
