Certificate:
    Data:
        Version: 3 (0x2)
        Serial Number:
            53:77:b0:35:3a:7f:eb:7b:98:57:bb:3b:b3:5e:2a:ff
        Signature Algorithm: sha256WithRSAEncryption
        Issuer: CN=team658-net
        Validity
            Not Before: May 18 23:08:47 2022 GMT
            Not After : May  2 23:08:47 2025 GMT
        Subject: CN=team658-client
        Subject Public Key Info:
            Public Key Algorithm: rsaEncryption
                RSA Public-Key: (2048 bit)
                Modulus:
                    00:a7:ea:8d:66:fc:2e:08:ce:06:21:3d:38:30:ef:
                    29:95:97:d5:7e:b3:7a:3b:b3:f1:8c:2d:d7:ba:06:
                    0b:55:8f:2f:73:63:cb:e8:34:77:ca:0e:df:2f:96:
                    3d:df:41:7f:83:b0:e5:7a:26:31:87:e4:e7:8c:2c:
                    32:e1:c5:8a:e5:32:2a:b2:6a:28:e0:24:bf:3e:d4:
                    0f:b6:0e:b3:ce:72:66:ab:0d:70:52:15:5b:49:88:
                    27:bc:c2:1d:86:0c:60:35:b2:01:2a:6d:7f:9e:2a:
                    29:a0:47:ab:d6:cd:47:aa:c8:9d:a9:52:52:5c:cf:
                    c3:d7:5c:1f:c4:39:d4:e6:f0:ce:7f:f1:4c:6e:1e:
                    4a:b6:ba:e4:bb:6e:15:08:68:cc:4b:b3:0b:be:95:
                    2a:7f:17:cf:15:a2:f3:c8:43:c3:68:e7:9a:5b:3e:
                    c2:bb:75:f2:f3:29:a9:75:39:f5:21:8f:ef:df:1b:
                    25:69:27:3c:23:a6:9b:3a:12:39:eb:0c:5f:f9:ed:
                    32:f9:3d:65:e3:58:48:4d:93:94:06:01:68:8c:8d:
                    bd:16:9d:3d:28:99:8b:c0:7e:6b:d3:fc:35:e1:45:
                    42:a1:9b:c2:48:44:50:c2:7a:6d:7e:cd:77:7d:c1:
                    64:0c:c7:84:08:d3:1a:ea:6e:4a:c5:3c:4d:a3:48:
                    57:9d
                Exponent: 65537 (0x10001)
        X509v3 extensions:
            X509v3 Basic Constraints: 
                CA:FALSE
            X509v3 Subject Key Identifier: 
                CE:38:2E:D0:3C:7B:67:46:CB:CC:6D:A2:DE:4D:EA:5F:E1:A2:EB:EE
            X509v3 Authority Key Identifier: 
                keyid:EE:E9:14:8E:A0:B4:FE:77:36:8A:F0:7F:57:E7:6D:AD:34:7A:1E:75
                DirName:/CN=team658-net
                serial:33:89:56:9D:D1:28:2F:A3:E8:31:53:4C:26:92:77:B7:28:2D:90:1F

            X509v3 Extended Key Usage: 
                TLS Web Client Authentication
            X509v3 Key Usage: 
                Digital Signature
    Signature Algorithm: sha256WithRSAEncryption
         76:82:e5:71:02:71:6d:65:24:ed:26:55:cd:93:c6:83:ec:8e:
         4a:2e:b8:59:92:c6:69:65:f8:b5:8c:75:89:5b:a4:ab:09:2d:
         61:b4:89:41:c9:97:8b:14:3a:3a:b0:b9:93:37:94:99:54:d0:
         de:24:c2:a2:84:93:6d:b9:43:d7:a7:fb:e6:f2:16:34:46:85:
         00:bf:48:bd:b1:3f:63:49:8f:dc:0d:4d:0c:a4:f6:0c:11:43:
         bc:b3:43:2d:96:98:a2:89:91:31:d7:7c:06:ef:af:0e:67:ee:
         f4:f7:51:d0:45:60:38:8d:70:a0:78:d6:d1:8f:fc:25:d3:3b:
         3f:89:6e:f0:06:d8:bb:7e:a8:44:c7:90:15:2e:27:06:fa:17:
         37:92:d7:58:bd:b9:a5:0f:9a:f8:02:3a:86:87:81:b2:e5:b0:
         2a:35:50:3d:a3:34:44:b3:21:46:82:bb:d6:18:d9:37:57:82:
         49:94:27:81:c6:4f:7a:6c:af:d5:4c:84:05:7e:11:6c:d9:1c:
         96:82:72:90:e7:18:f2:ab:85:ff:b4:32:3a:ec:37:35:87:fe:
         51:5c:14:68:ff:09:97:af:7c:d0:b9:21:16:e0:68:a6:98:99:
         bd:ff:5d:6d:04:33:62:62:c4:42:32:ce:80:c4:62:d1:b4:ec:
         38:93:79:a4
-----BEGIN CERTIFICATE-----
MIIDXDCCAkSgAwIBAgIQU3ewNTp/63uYV7s7s14q/zANBgkqhkiG9w0BAQsFADAW
MRQwEgYDVQQDDAt0ZWFtNjU4LW5ldDAeFw0yMjA1MTgyMzA4NDdaFw0yNTA1MDIy
MzA4NDdaMBkxFzAVBgNVBAMMDnRlYW02NTgtY2xpZW50MIIBIjANBgkqhkiG9w0B
AQEFAAOCAQ8AMIIBCgKCAQEAp+qNZvwuCM4GIT04MO8plZfVfrN6O7PxjC3XugYL
VY8vc2PL6DR3yg7fL5Y930F/g7DleiYxh+TnjCwy4cWK5TIqsmoo4CS/PtQPtg6z
znJmqw1wUhVbSYgnvMIdhgxgNbIBKm1/niopoEer1s1HqsidqVJSXM/D11wfxDnU
5vDOf/FMbh5Ktrrku24VCGjMS7MLvpUqfxfPFaLzyEPDaOeaWz7Cu3Xy8ympdTn1
IY/v3xslaSc8I6abOhI56wxf+e0y+T1l41hITZOUBgFojI29Fp09KJmLwH5r0/w1
4UVCoZvCSERQwnptfs13fcFkDMeECNMa6m5KxTxNo0hXnQIDAQABo4GiMIGfMAkG
A1UdEwQCMAAwHQYDVR0OBBYEFM44LtA8e2dGy8xtot5N6l/houvuMFEGA1UdIwRK
MEiAFO7pFI6gtP53Norwf1fnba00eh51oRqkGDAWMRQwEgYDVQQDDAt0ZWFtNjU4
LW5ldIIUM4lWndEoL6PoMVNMJpJ3tygtkB8wEwYDVR0lBAwwCgYIKwYBBQUHAwIw
CwYDVR0PBAQDAgeAMA0GCSqGSIb3DQEBCwUAA4IBAQB2guVxAnFtZSTtJlXNk8aD
7I5KLrhZksZpZfi1jHWJW6SrCS1htIlByZeLFDo6sLmTN5SZVNDeJMKihJNtuUPX
p/vm8hY0RoUAv0i9sT9jSY/cDU0MpPYMEUO8s0MtlpiiiZEx13wG768OZ+7091HQ
RWA4jXCgeNbRj/wl0zs/iW7wBti7fqhEx5AVLicG+hc3ktdYvbmlD5r4AjqGh4Gy
5bAqNVA9ozREsyFGgrvWGNk3V4JJlCeBxk96bK/VTIQFfhFs2RyWgnKQ5xjyq4X/
tDI67Dc1h/5RXBRo/wmXr3zQuSEW4GimmJm9/11tBDNiYsRCMs6AxGLRtOw4k3mk
-----END CERTIFICATE-----
