Certificate:
    Data:
        Version: 3 (0x2)
        Serial Number:
            6c:ac:27:6a:fa:a8:72:90:87:b2:b4:d6:3b:ad:96:76
        Signature Algorithm: sha256WithRSAEncryption
        Issuer: CN=team715-net
        Validity
            Not Before: May 18 23:54:22 2022 GMT
            Not After : May  2 23:54:22 2025 GMT
        Subject: CN=team715-client
        Subject Public Key Info:
            Public Key Algorithm: rsaEncryption
                RSA Public-Key: (2048 bit)
                Modulus:
                    00:c0:02:a1:09:15:84:3c:eb:2c:d0:42:ee:15:41:
                    ec:c6:05:a0:b3:78:fd:61:da:4b:79:76:7b:c4:60:
                    c7:4a:ce:e0:6c:a8:e6:88:b1:24:0c:56:25:f4:8d:
                    35:5e:d1:44:87:50:c4:b6:3b:75:8f:de:7b:24:27:
                    4e:b5:dc:38:2f:ba:ea:db:8b:f8:29:8c:c8:b9:ea:
                    05:fe:0b:d2:b3:8e:4b:ec:a1:f2:15:64:84:d8:d5:
                    a5:54:21:27:63:13:8b:1b:89:50:7f:49:52:81:1a:
                    08:b1:9a:ee:61:97:6a:18:f0:01:05:ec:ac:e4:7a:
                    cd:8f:9b:49:bd:cd:2f:38:2a:3d:4c:cd:2c:c2:98:
                    3e:92:d8:d1:08:b2:14:32:3e:83:c0:84:e6:cd:4b:
                    17:c3:fe:46:e2:33:83:40:fa:91:0e:20:c7:b9:76:
                    ee:5a:62:c1:01:b5:0f:a5:13:d6:1d:69:c3:3a:ff:
                    d3:95:c0:94:eb:78:33:67:a0:8e:a4:ce:56:df:c8:
                    9d:22:bc:59:1b:cb:83:e5:be:4a:3f:1b:7a:bf:c9:
                    6a:87:36:c8:a3:d0:45:6e:89:6d:7b:b6:42:73:a7:
                    9f:71:d8:53:44:3d:e5:6e:61:38:d5:03:fa:4c:5f:
                    3d:e2:6b:ca:ce:40:eb:b5:10:cd:92:19:92:b5:0e:
                    57:c3
                Exponent: 65537 (0x10001)
        X509v3 extensions:
            X509v3 Basic Constraints: 
                CA:FALSE
            X509v3 Subject Key Identifier: 
                20:E5:E7:91:40:72:1A:98:51:63:D3:A9:60:41:F6:63:45:68:90:99
            X509v3 Authority Key Identifier: 
                keyid:14:95:B6:BD:06:6B:A9:C4:7E:66:3B:EE:74:4E:E9:2C:38:09:26:02
                DirName:/CN=team715-net
                serial:65:69:13:E8:88:29:88:5E:89:99:9B:32:65:D0:40:06:DD:E6:7E:F9

            X509v3 Extended Key Usage: 
                TLS Web Client Authentication
            X509v3 Key Usage: 
                Digital Signature
    Signature Algorithm: sha256WithRSAEncryption
         34:c6:5e:a1:b0:3d:93:98:fe:9d:c6:fe:c3:97:bd:2e:9c:72:
         5e:bc:41:8c:45:e3:cc:72:b0:1a:f9:ee:3e:71:42:54:5e:09:
         44:5d:f9:7e:b0:91:9a:a1:6c:91:66:24:08:fe:9b:f1:3a:2d:
         68:4a:80:e8:1f:5b:be:db:b6:5e:7c:4d:4a:f7:22:41:37:80:
         bc:d9:48:24:63:92:6c:a2:2d:ff:0c:d2:94:71:85:9e:92:d9:
         e5:5b:51:6e:2e:ce:e0:e1:ad:c6:04:0f:03:6b:4b:2e:3f:62:
         8d:7d:d9:46:25:a0:fb:30:e8:01:e4:3d:2e:8d:28:4e:62:1d:
         4b:f7:46:49:f5:cc:dd:68:fa:cd:f3:f4:c3:7d:25:a3:fc:20:
         32:fd:49:00:de:40:4f:ca:2e:9e:30:81:2e:b6:6a:41:82:16:
         9d:91:af:06:68:05:e2:d7:a4:bf:b3:68:14:8d:82:ba:59:dc:
         04:97:80:80:13:1a:77:a0:55:80:6a:2f:f3:a2:fd:5c:15:13:
         d4:90:37:fe:97:2a:0a:21:83:3f:4c:e0:66:4b:f4:7d:9c:8f:
         18:d0:23:fb:c5:94:06:04:97:21:a7:03:92:95:8e:03:05:c9:
         c5:96:18:9a:d3:60:bc:47:bb:6f:ae:37:71:cf:f8:fb:f7:f5:
         8e:5d:4f:e2
-----BEGIN CERTIFICATE-----
MIIDXDCCAkSgAwIBAgIQbKwnavqocpCHsrTWO62WdjANBgkqhkiG9w0BAQsFADAW
MRQwEgYDVQQDDAt0ZWFtNzE1LW5ldDAeFw0yMjA1MTgyMzU0MjJaFw0yNTA1MDIy
MzU0MjJaMBkxFzAVBgNVBAMMDnRlYW03MTUtY2xpZW50MIIBIjANBgkqhkiG9w0B
AQEFAAOCAQ8AMIIBCgKCAQEAwAKhCRWEPOss0ELuFUHsxgWgs3j9YdpLeXZ7xGDH
Ss7gbKjmiLEkDFYl9I01XtFEh1DEtjt1j957JCdOtdw4L7rq24v4KYzIueoF/gvS
s45L7KHyFWSE2NWlVCEnYxOLG4lQf0lSgRoIsZruYZdqGPABBeys5HrNj5tJvc0v
OCo9TM0swpg+ktjRCLIUMj6DwITmzUsXw/5G4jODQPqRDiDHuXbuWmLBAbUPpRPW
HWnDOv/TlcCU63gzZ6COpM5W38idIrxZG8uD5b5KPxt6v8lqhzbIo9BFbolte7ZC
c6efcdhTRD3lbmE41QP6TF894mvKzkDrtRDNkhmStQ5XwwIDAQABo4GiMIGfMAkG
A1UdEwQCMAAwHQYDVR0OBBYEFCDl55FAchqYUWPTqWBB9mNFaJCZMFEGA1UdIwRK
MEiAFBSVtr0Ga6nEfmY77nRO6Sw4CSYCoRqkGDAWMRQwEgYDVQQDDAt0ZWFtNzE1
LW5ldIIUZWkT6IgpiF6JmZsyZdBABt3mfvkwEwYDVR0lBAwwCgYIKwYBBQUHAwIw
CwYDVR0PBAQDAgeAMA0GCSqGSIb3DQEBCwUAA4IBAQA0xl6hsD2TmP6dxv7Dl70u
nHJevEGMRePMcrAa+e4+cUJUXglEXfl+sJGaoWyRZiQI/pvxOi1oSoDoH1u+27Ze
fE1K9yJBN4C82UgkY5Jsoi3/DNKUcYWektnlW1FuLs7g4a3GBA8Da0suP2KNfdlG
JaD7MOgB5D0ujShOYh1L90ZJ9czdaPrN8/TDfSWj/CAy/UkA3kBPyi6eMIEutmpB
ghadka8GaAXi16S/s2gUjYK6WdwEl4CAExp3oFWAai/zov1cFRPUkDf+lyoKIYM/
TOBmS/R9nI8Y0CP7xZQGBJchpwOSlY4DBcnFlhia02C8R7tvrjdxz/j79/WOXU/i
-----END CERTIFICATE-----
