Certificate:
    Data:
        Version: 3 (0x2)
        Serial Number:
            ba:1a:ba:30:54:c0:99:83:9a:61:b0:d0:e3:a7:d5:db
        Signature Algorithm: sha256WithRSAEncryption
        Issuer: CN=team715-net
        Validity
            Not Before: May 18 23:54:22 2022 GMT
            Not After : May  2 23:54:22 2025 GMT
        Subject: CN=team715-server
        Subject Public Key Info:
            Public Key Algorithm: rsaEncryption
                RSA Public-Key: (2048 bit)
                Modulus:
                    00:db:17:31:75:63:fa:9e:de:19:28:74:f9:ff:db:
                    75:e2:6e:ec:ed:04:58:fd:66:61:9f:69:c4:0b:ec:
                    2d:41:a9:11:63:cd:d5:e1:f0:ce:6d:33:6d:e7:65:
                    d6:3b:27:91:ea:5b:f0:0c:b6:d7:da:4b:15:e9:cd:
                    e1:bf:b2:15:75:47:49:1e:de:65:ad:1c:4f:a0:91:
                    60:0a:1d:78:3b:52:4b:53:1d:eb:15:77:ec:f9:35:
                    12:d2:6f:7a:b8:b5:e4:90:d5:3b:34:93:e7:df:af:
                    0b:c4:d4:d3:d3:64:89:69:49:0f:92:c4:ba:e7:81:
                    56:1a:07:87:1c:2b:c8:df:c2:fd:a4:7b:7f:09:23:
                    84:79:f3:04:3b:25:f2:f9:5b:cf:9e:be:33:4c:04:
                    a1:c3:56:31:fb:1c:63:1a:ba:b9:fa:e8:06:7d:d9:
                    46:bf:0e:11:f4:86:94:3f:d8:ca:1a:f9:a1:c8:ba:
                    9d:13:f6:4b:c3:6d:7f:05:be:90:9e:b8:74:0d:97:
                    7e:d8:ca:98:da:5a:78:4a:ce:78:fe:22:e2:17:c7:
                    8b:28:e1:2e:04:14:1e:86:ff:04:3d:ae:39:c1:e7:
                    00:0a:0e:bd:fd:72:3b:04:bb:52:cb:39:f0:bc:a1:
                    41:f8:8f:05:e1:64:0e:e4:04:80:de:20:43:56:11:
                    de:99
                Exponent: 65537 (0x10001)
        X509v3 extensions:
            X509v3 Basic Constraints: 
                CA:FALSE
            X509v3 Subject Key Identifier: 
                AE:1B:0B:73:49:44:86:AF:36:6E:53:10:14:CE:44:82:2C:C1:17:A9
            X509v3 Authority Key Identifier: 
                keyid:14:95:B6:BD:06:6B:A9:C4:7E:66:3B:EE:74:4E:E9:2C:38:09:26:02
                DirName:/CN=team715-net
                serial:65:69:13:E8:88:29:88:5E:89:99:9B:32:65:D0:40:06:DD:E6:7E:F9

            X509v3 Extended Key Usage: 
                TLS Web Server Authentication
            X509v3 Key Usage: 
                Digital Signature, Key Encipherment
            X509v3 Subject Alternative Name: 
                DNS:team715-server
    Signature Algorithm: sha256WithRSAEncryption
         23:66:60:61:a1:76:b0:4f:91:8b:f2:21:be:54:6c:00:63:52:
         5e:4e:6d:5b:48:77:c4:6f:81:ab:1a:50:92:71:23:14:16:92:
         74:1e:18:16:20:b6:fd:1c:14:b4:bc:44:5c:59:74:38:bf:23:
         5c:ba:3e:20:95:16:06:9b:43:84:83:80:a0:63:8a:fe:fa:de:
         a5:48:e5:7a:82:7c:6c:d8:5d:b1:7f:5a:ce:10:56:80:cb:6e:
         cc:5e:53:75:55:19:48:db:1b:d6:70:1f:cc:7e:93:77:c2:22:
         ad:6e:f7:f3:5f:5f:fd:b0:30:00:0c:2d:3e:9a:b5:7e:7b:24:
         0d:a0:15:a6:a7:07:73:85:ad:6d:d7:0b:c7:ba:6f:02:44:41:
         95:b0:dd:71:28:1b:25:3c:c1:da:6e:0c:9d:23:cb:be:31:3f:
         91:bd:50:c5:13:9e:b7:f5:00:fb:70:42:3b:25:2b:6f:60:1e:
         ee:e7:5a:ec:f7:a9:3c:2d:3b:4d:49:cb:25:17:df:1f:04:c3:
         ad:dc:e6:62:f9:76:33:07:7b:77:d9:91:25:6c:a7:7e:82:7c:
         e0:ae:64:90:30:d3:64:85:28:a4:5a:1a:13:3a:d5:b2:76:7b:
         64:b8:51:91:b4:ec:4e:89:93:a6:3c:ed:9d:d7:4a:30:26:bc:
         d0:f3:96:b1
-----BEGIN CERTIFICATE-----
MIIDeDCCAmCgAwIBAgIRALoaujBUwJmDmmGw0OOn1dswDQYJKoZIhvcNAQELBQAw
FjEUMBIGA1UEAwwLdGVhbTcxNS1uZXQwHhcNMjIwNTE4MjM1NDIyWhcNMjUwNTAy
MjM1NDIyWjAZMRcwFQYDVQQDDA50ZWFtNzE1LXNlcnZlcjCCASIwDQYJKoZIhvcN
AQEBBQADggEPADCCAQoCggEBANsXMXVj+p7eGSh0+f/bdeJu7O0EWP1mYZ9pxAvs
LUGpEWPN1eHwzm0zbedl1jsnkepb8Ay219pLFenN4b+yFXVHSR7eZa0cT6CRYAod
eDtSS1Md6xV37Pk1EtJveri15JDVOzST59+vC8TU09NkiWlJD5LEuueBVhoHhxwr
yN/C/aR7fwkjhHnzBDsl8vlbz56+M0wEocNWMfscYxq6ufroBn3ZRr8OEfSGlD/Y
yhr5oci6nRP2S8NtfwW+kJ64dA2XftjKmNpaeErOeP4i4hfHiyjhLgQUHob/BD2u
OcHnAAoOvf1yOwS7Uss58LyhQfiPBeFkDuQEgN4gQ1YR3pkCAwEAAaOBvTCBujAJ
BgNVHRMEAjAAMB0GA1UdDgQWBBSuGwtzSUSGrzZuUxAUzkSCLMEXqTBRBgNVHSME
SjBIgBQUlba9BmupxH5mO+50TuksOAkmAqEapBgwFjEUMBIGA1UEAwwLdGVhbTcx
NS1uZXSCFGVpE+iIKYheiZmbMmXQQAbd5n75MBMGA1UdJQQMMAoGCCsGAQUFBwMB
MAsGA1UdDwQEAwIFoDAZBgNVHREEEjAQgg50ZWFtNzE1LXNlcnZlcjANBgkqhkiG
9w0BAQsFAAOCAQEAI2ZgYaF2sE+Ri/IhvlRsAGNSXk5tW0h3xG+BqxpQknEjFBaS
dB4YFiC2/RwUtLxEXFl0OL8jXLo+IJUWBptDhIOAoGOK/vrepUjleoJ8bNhdsX9a
zhBWgMtuzF5TdVUZSNsb1nAfzH6Td8IirW73819f/bAwAAwtPpq1fnskDaAVpqcH
c4WtbdcLx7pvAkRBlbDdcSgbJTzB2m4MnSPLvjE/kb1QxROet/UA+3BCOyUrb2Ae
7uda7PepPC07TUnLJRffHwTDrdzmYvl2Mwd7d9mRJWynfoJ84K5kkDDTZIUopFoa
EzrVsnZ7ZLhRkbTsTomTpjztnddKMCa80POWsQ==
-----END CERTIFICATE-----
