Certificate:
    Data:
        Version: 3 (0x2)
        Serial Number:
            8b:c5:ba:8e:0f:82:7f:56:6b:12:bb:13:b9:b4:69:b9
        Signature Algorithm: sha256WithRSAEncryption
        Issuer: CN=team386-net
        Validity
            Not Before: May 18 20:43:24 2022 GMT
            Not After : May  2 20:43:24 2025 GMT
        Subject: CN=team386-client
        Subject Public Key Info:
            Public Key Algorithm: rsaEncryption
                RSA Public-Key: (2048 bit)
                Modulus:
                    00:e0:78:76:df:7e:31:82:b1:7e:ed:e7:4d:4e:cd:
                    2e:79:bf:0b:84:a1:c6:1d:4a:7c:2a:b2:4c:b4:6d:
                    f1:38:10:51:cb:29:f8:75:d4:a8:f2:c7:51:55:73:
                    6e:85:ee:49:a7:b5:3f:84:5f:e9:c9:b6:3f:37:bf:
                    3f:92:bb:f7:4f:ed:77:53:90:64:04:76:09:41:95:
                    a8:1f:48:78:1a:b8:05:9f:be:f8:8f:3a:81:8a:fa:
                    cd:77:25:ab:2b:8b:f4:c7:7d:ae:b1:30:54:35:c7:
                    1f:f4:d4:f9:a0:07:50:d2:97:9a:31:36:3b:a2:b4:
                    39:50:95:5e:d7:76:f3:88:7c:ee:51:fe:bb:f1:c3:
                    7f:10:5e:cf:f1:79:34:cb:bf:e0:83:d5:01:b8:77:
                    a7:ca:c5:3b:cb:66:a1:ca:df:45:ff:2d:23:99:4a:
                    9d:b0:6e:b1:ab:dd:5a:18:e5:54:70:f0:ec:12:0e:
                    b9:11:ec:40:bc:b1:15:17:e4:99:24:27:19:51:c2:
                    a1:f7:28:0e:34:ee:89:f1:a8:55:f9:61:03:82:2f:
                    de:da:bc:39:7d:8d:87:99:17:53:db:1f:18:e2:ec:
                    d9:21:ae:6d:3f:0c:bc:b4:78:0f:7e:a0:4f:09:1b:
                    bd:fa:72:de:1d:1d:c2:0d:ae:98:be:50:01:0f:55:
                    9e:df
                Exponent: 65537 (0x10001)
        X509v3 extensions:
            X509v3 Basic Constraints: 
                CA:FALSE
            X509v3 Subject Key Identifier: 
                A4:54:70:E2:59:F4:F1:D1:55:4E:9F:FA:79:A3:DD:77:EC:36:BE:A2
            X509v3 Authority Key Identifier: 
                keyid:C8:C7:F0:03:A4:1A:13:21:D9:9C:20:09:E2:94:A2:7B:8B:72:C7:5A
                DirName:/CN=team386-net
                serial:13:D9:03:73:DE:3F:9B:07:01:69:21:B1:DD:81:08:22:77:0F:31:50

            X509v3 Extended Key Usage: 
                TLS Web Client Authentication
            X509v3 Key Usage: 
                Digital Signature
    Signature Algorithm: sha256WithRSAEncryption
         1e:f5:51:1b:5e:af:1a:b0:1a:ce:bb:e2:2a:29:30:85:ab:f2:
         fc:47:8f:a8:d9:f4:8a:de:91:d3:da:ae:c8:f8:fd:89:d9:56:
         1c:71:97:fa:a2:35:83:79:9e:b3:8c:d0:83:e2:ad:43:2f:70:
         a2:6c:23:71:1b:4c:0b:cc:73:a2:21:fc:b3:91:3c:71:5a:37:
         98:6e:b1:e9:66:e1:f1:00:3c:a0:32:3f:04:55:03:3f:2b:5d:
         1d:55:c5:1b:d0:6c:c0:1e:e3:73:1c:e8:18:9a:5f:a1:e6:72:
         24:65:a3:97:7d:94:b5:09:c6:0d:a2:2d:fd:ff:ed:73:15:d5:
         f8:ad:35:e7:4e:99:97:5e:79:0e:43:85:61:4f:85:79:c6:b9:
         a0:0c:b9:fa:63:e0:bc:94:cd:79:2f:c9:4e:53:fc:5b:14:a8:
         ed:13:48:53:c9:9c:f4:a9:79:a6:7b:09:74:66:ad:6c:52:38:
         69:57:68:26:ea:40:bf:d6:c2:06:2f:40:28:fd:f4:72:28:5b:
         74:f2:4c:9d:46:83:92:48:16:c7:63:5d:f7:09:c4:cc:0f:43:
         32:92:c8:16:54:72:29:17:43:a1:81:ac:d7:7e:64:ae:4d:f4:
         65:39:ae:60:14:48:a1:0e:b1:44:16:9e:ca:74:38:ae:05:64:
         83:24:15:d5
-----BEGIN CERTIFICATE-----
MIIDXTCCAkWgAwIBAgIRAIvFuo4Pgn9WaxK7E7m0abkwDQYJKoZIhvcNAQELBQAw
FjEUMBIGA1UEAwwLdGVhbTM4Ni1uZXQwHhcNMjIwNTE4MjA0MzI0WhcNMjUwNTAy
MjA0MzI0WjAZMRcwFQYDVQQDDA50ZWFtMzg2LWNsaWVudDCCASIwDQYJKoZIhvcN
AQEBBQADggEPADCCAQoCggEBAOB4dt9+MYKxfu3nTU7NLnm/C4Shxh1KfCqyTLRt
8TgQUcsp+HXUqPLHUVVzboXuSae1P4Rf6cm2Pze/P5K790/td1OQZAR2CUGVqB9I
eBq4BZ+++I86gYr6zXclqyuL9Md9rrEwVDXHH/TU+aAHUNKXmjE2O6K0OVCVXtd2
84h87lH+u/HDfxBez/F5NMu/4IPVAbh3p8rFO8tmocrfRf8tI5lKnbBusavdWhjl
VHDw7BIOuRHsQLyxFRfkmSQnGVHCofcoDjTuifGoVflhA4Iv3tq8OX2Nh5kXU9sf
GOLs2SGubT8MvLR4D36gTwkbvfpy3h0dwg2umL5QAQ9Vnt8CAwEAAaOBojCBnzAJ
BgNVHRMEAjAAMB0GA1UdDgQWBBSkVHDiWfTx0VVOn/p5o9137Da+ojBRBgNVHSME
SjBIgBTIx/ADpBoTIdmcIAnilKJ7i3LHWqEapBgwFjEUMBIGA1UEAwwLdGVhbTM4
Ni1uZXSCFBPZA3PeP5sHAWkhsd2BCCJ3DzFQMBMGA1UdJQQMMAoGCCsGAQUFBwMC
MAsGA1UdDwQEAwIHgDANBgkqhkiG9w0BAQsFAAOCAQEAHvVRG16vGrAazrviKikw
havy/EePqNn0it6R09quyPj9idlWHHGX+qI1g3mes4zQg+KtQy9womwjcRtMC8xz
oiH8s5E8cVo3mG6x6Wbh8QA8oDI/BFUDPytdHVXFG9BswB7jcxzoGJpfoeZyJGWj
l32UtQnGDaIt/f/tcxXV+K01506Zl155DkOFYU+Feca5oAy5+mPgvJTNeS/JTlP8
WxSo7RNIU8mc9Kl5pnsJdGatbFI4aVdoJupAv9bCBi9AKP30cihbdPJMnUaDkkgW
x2Nd9wnEzA9DMpLIFlRyKRdDoYGs135krk30ZTmuYBRIoQ6xRBaeynQ4rgVkgyQV
1Q==
-----END CERTIFICATE-----
