Certificate:
    Data:
        Version: 3 (0x2)
        Serial Number:
            9b:c8:e8:82:c3:7b:16:86:1b:83:6a:f4:85:ed:64:6b
        Signature Algorithm: sha256WithRSAEncryption
        Issuer: CN=team386-net
        Validity
            Not Before: May 18 20:43:24 2022 GMT
            Not After : May  2 20:43:24 2025 GMT
        Subject: CN=team386-server
        Subject Public Key Info:
            Public Key Algorithm: rsaEncryption
                RSA Public-Key: (2048 bit)
                Modulus:
                    00:c6:9e:ca:4a:92:7b:48:67:91:32:d9:ac:d8:84:
                    bf:3c:23:d8:9a:77:95:cf:0c:ff:ed:17:86:3b:18:
                    c0:64:71:00:39:36:e7:d3:12:bb:9b:d5:b0:ef:08:
                    e0:90:c5:9e:9d:42:db:f7:0c:50:4a:e9:af:c3:b0:
                    32:fa:86:d1:54:07:03:80:67:64:84:4f:cc:6b:01:
                    fc:f9:af:37:69:ef:d8:ea:53:2d:aa:a5:98:91:46:
                    dd:57:58:a3:7a:e0:36:16:94:ba:13:3e:80:bd:11:
                    e3:84:07:f1:67:e7:9c:38:0c:50:0e:2c:e9:75:51:
                    fe:2a:8a:7a:da:34:dc:ab:c6:6d:ca:3e:b7:b8:0e:
                    e3:6d:37:16:85:1c:38:56:53:ea:07:fd:02:ec:76:
                    4b:61:18:29:0a:33:b7:ca:9b:51:aa:55:70:85:59:
                    70:b3:29:0c:ce:61:e9:e2:8b:62:4f:e2:ff:80:7d:
                    5d:70:90:a7:e7:d1:10:0d:ee:ab:ab:b4:3d:2b:30:
                    10:e9:bb:78:bc:92:5d:17:96:8f:0c:fc:1b:28:67:
                    92:7b:b0:b8:e1:d3:0f:9c:c4:44:b6:e7:0c:3c:50:
                    c7:d1:f3:d2:d5:94:97:d9:7a:0f:47:ee:0e:e9:a0:
                    17:65:a7:57:0e:6f:ba:7b:99:4a:40:99:eb:ff:69:
                    86:59
                Exponent: 65537 (0x10001)
        X509v3 extensions:
            X509v3 Basic Constraints: 
                CA:FALSE
            X509v3 Subject Key Identifier: 
                CE:FB:4B:C3:62:8E:CA:50:95:A5:DC:73:F9:75:CD:FF:1A:65:07:45
            X509v3 Authority Key Identifier: 
                keyid:C8:C7:F0:03:A4:1A:13:21:D9:9C:20:09:E2:94:A2:7B:8B:72:C7:5A
                DirName:/CN=team386-net
                serial:13:D9:03:73:DE:3F:9B:07:01:69:21:B1:DD:81:08:22:77:0F:31:50

            X509v3 Extended Key Usage: 
                TLS Web Server Authentication
            X509v3 Key Usage: 
                Digital Signature, Key Encipherment
            X509v3 Subject Alternative Name: 
                DNS:team386-server
    Signature Algorithm: sha256WithRSAEncryption
         57:c6:ed:df:36:e9:9f:38:e5:28:fe:d0:4f:dd:41:72:17:f9:
         46:17:0b:49:62:95:c4:87:4c:66:c6:93:da:f4:16:d3:41:1d:
         31:9e:32:74:67:ae:42:b8:b0:1b:a8:1e:ac:b9:1b:07:01:4c:
         0f:ad:48:7f:88:70:0c:0c:d5:9f:89:15:91:60:91:b7:fd:4a:
         88:37:27:3b:e3:6c:de:4c:de:f7:a1:8a:d5:b4:a0:bd:bd:20:
         45:38:d3:e7:1f:5d:7c:85:8a:9f:1e:29:eb:61:3a:96:aa:08:
         76:59:56:4f:06:b1:f5:ea:b7:0b:63:bf:02:89:4c:86:e7:a3:
         aa:1a:a5:84:98:5c:b6:27:62:b8:ab:c0:90:7d:b8:28:21:aa:
         2e:93:fe:ae:50:2f:59:10:26:e6:8c:6d:17:89:4c:e4:01:d0:
         05:d0:f6:4c:37:99:ac:bb:7d:81:ce:83:e0:77:5d:c4:89:68:
         10:9e:47:55:12:a9:6b:0a:60:74:01:bf:53:e0:e5:6a:a4:df:
         a1:04:bb:ec:a0:b6:a1:b1:7d:e7:c8:17:62:e9:c8:8e:3f:7a:
         4c:95:91:a9:8a:92:1d:e5:49:81:b3:33:34:f2:3e:8c:b6:b1:
         2d:d3:19:26:c1:cb:5e:7b:bd:67:b5:15:c2:cf:4a:f8:bb:51:
         79:04:90:20
-----BEGIN CERTIFICATE-----
MIIDeDCCAmCgAwIBAgIRAJvI6ILDexaGG4Nq9IXtZGswDQYJKoZIhvcNAQELBQAw
FjEUMBIGA1UEAwwLdGVhbTM4Ni1uZXQwHhcNMjIwNTE4MjA0MzI0WhcNMjUwNTAy
MjA0MzI0WjAZMRcwFQYDVQQDDA50ZWFtMzg2LXNlcnZlcjCCASIwDQYJKoZIhvcN
AQEBBQADggEPADCCAQoCggEBAMaeykqSe0hnkTLZrNiEvzwj2Jp3lc8M/+0XhjsY
wGRxADk259MSu5vVsO8I4JDFnp1C2/cMUErpr8OwMvqG0VQHA4BnZIRPzGsB/Pmv
N2nv2OpTLaqlmJFG3VdYo3rgNhaUuhM+gL0R44QH8WfnnDgMUA4s6XVR/iqKeto0
3KvGbco+t7gO4203FoUcOFZT6gf9Aux2S2EYKQozt8qbUapVcIVZcLMpDM5h6eKL
Yk/i/4B9XXCQp+fREA3uq6u0PSswEOm7eLySXReWjwz8GyhnknuwuOHTD5zERLbn
DDxQx9Hz0tWUl9l6D0fuDumgF2WnVw5vunuZSkCZ6/9phlkCAwEAAaOBvTCBujAJ
BgNVHRMEAjAAMB0GA1UdDgQWBBTO+0vDYo7KUJWl3HP5dc3/GmUHRTBRBgNVHSME
SjBIgBTIx/ADpBoTIdmcIAnilKJ7i3LHWqEapBgwFjEUMBIGA1UEAwwLdGVhbTM4
Ni1uZXSCFBPZA3PeP5sHAWkhsd2BCCJ3DzFQMBMGA1UdJQQMMAoGCCsGAQUFBwMB
MAsGA1UdDwQEAwIFoDAZBgNVHREEEjAQgg50ZWFtMzg2LXNlcnZlcjANBgkqhkiG
9w0BAQsFAAOCAQEAV8bt3zbpnzjlKP7QT91Bchf5RhcLSWKVxIdMZsaT2vQW00Ed
MZ4ydGeuQriwG6gerLkbBwFMD61If4hwDAzVn4kVkWCRt/1KiDcnO+Ns3kze96GK
1bSgvb0gRTjT5x9dfIWKnx4p62E6lqoIdllWTwax9eq3C2O/AolMhuejqhqlhJhc
tidiuKvAkH24KCGqLpP+rlAvWRAm5oxtF4lM5AHQBdD2TDeZrLt9gc6D4HddxIlo
EJ5HVRKpawpgdAG/U+DlaqTfoQS77KC2obF958gXYunIjj96TJWRqYqSHeVJgbMz
NPI+jLaxLdMZJsHLXnu9Z7UVws9K+LtReQSQIA==
-----END CERTIFICATE-----
