Certificate:
    Data:
        Version: 3 (0x2)
        Serial Number:
            f1:0e:99:83:f1:14:a5:bb:d5:9b:5d:4f:35:7e:a9:41
        Signature Algorithm: sha256WithRSAEncryption
        Issuer: CN=team688-net
        Validity
            Not Before: May 18 23:40:29 2022 GMT
            Not After : May  2 23:40:29 2025 GMT
        Subject: CN=team688-client
        Subject Public Key Info:
            Public Key Algorithm: rsaEncryption
                RSA Public-Key: (2048 bit)
                Modulus:
                    00:da:7a:f6:5c:8a:e6:de:b9:3e:66:75:2f:37:8a:
                    12:d2:0d:d2:f8:57:bd:8f:e8:c7:4e:e7:df:48:5e:
                    e3:0b:a1:15:56:b4:c6:6d:6e:f0:04:1f:e0:56:72:
                    cd:be:a0:33:74:90:ad:5d:75:50:a4:d8:56:93:ba:
                    b2:4a:5e:7d:6e:43:61:97:7a:34:4b:69:42:e0:79:
                    7e:14:8c:69:86:27:d5:cc:f2:90:24:3a:9c:fe:9d:
                    9a:d8:6f:6b:c4:98:a4:79:44:6a:10:38:e9:d4:8f:
                    fe:6f:61:d4:91:da:ba:d3:13:6a:db:ff:5d:f6:e5:
                    ed:e1:aa:8b:94:7f:24:fd:20:40:cb:84:83:cb:a7:
                    fa:2f:db:36:cc:36:ba:e0:5a:df:1e:1b:6e:58:af:
                    21:b4:06:53:a7:d0:81:21:63:a9:e1:33:e9:40:50:
                    6d:e8:ff:00:60:6d:8e:a7:1e:ae:b7:ed:87:da:49:
                    71:f0:d0:49:a4:6d:8e:aa:8b:cf:0b:4f:23:46:48:
                    bb:8e:d4:67:5a:9b:93:86:84:38:83:c7:32:bd:d0:
                    53:2c:12:15:94:f5:11:ca:46:d4:5e:1d:85:9a:32:
                    bc:55:3e:9b:2b:b1:e4:c8:8d:f9:49:0d:3c:dc:fc:
                    d6:cc:a1:4f:4f:21:fd:7f:d2:c0:1a:a5:ff:73:e7:
                    43:4f
                Exponent: 65537 (0x10001)
        X509v3 extensions:
            X509v3 Basic Constraints: 
                CA:FALSE
            X509v3 Subject Key Identifier: 
                F9:8F:2F:1B:84:10:70:28:C4:F2:46:57:3C:D7:3D:A3:3C:16:E0:77
            X509v3 Authority Key Identifier: 
                keyid:BA:B6:34:CB:3C:0E:B1:B9:49:CE:3C:E1:C4:76:E8:1A:C9:6C:B8:E9
                DirName:/CN=team688-net
                serial:37:46:C6:78:64:CC:5C:03:20:01:70:A1:14:6A:50:8C:E4:D0:44:EE

            X509v3 Extended Key Usage: 
                TLS Web Client Authentication
            X509v3 Key Usage: 
                Digital Signature
    Signature Algorithm: sha256WithRSAEncryption
         9e:79:4f:be:46:0f:ad:4c:10:a1:08:43:f9:b5:a0:1d:a8:84:
         8a:ca:86:6b:f7:43:c5:93:e8:6d:49:2e:f5:1a:91:92:97:c2:
         b5:87:a4:67:28:3a:41:12:fb:78:22:79:5e:62:4d:cb:44:71:
         7a:c8:2e:40:4d:49:fb:b5:3d:91:e0:ec:36:e2:0e:f2:d5:98:
         ae:7b:bc:c2:5e:c4:89:06:8d:c6:4b:a3:de:f5:c8:72:25:e6:
         d0:2d:7d:63:c6:67:62:76:58:77:4a:ea:34:1b:a1:60:e8:1c:
         8b:7c:31:b8:cd:0c:25:bf:8b:ea:4f:56:1f:69:78:23:0b:0d:
         a0:8d:a3:c6:5f:ab:c1:04:35:ea:02:3f:7a:82:a6:cc:71:a9:
         d8:b8:29:37:1c:4d:92:2a:8b:eb:86:a6:c8:79:26:e0:c0:65:
         ac:bc:87:03:8b:4f:d4:64:9f:72:36:af:e5:4a:19:5b:32:5a:
         3f:15:2a:34:72:b6:c3:60:46:0e:3e:58:af:c9:d1:1d:cd:bd:
         a4:2c:a3:da:e9:c2:4c:e6:10:9b:c6:28:0c:a7:e8:5b:8d:dc:
         ae:55:7f:2a:ff:fa:a3:fe:12:81:77:65:bc:b3:51:c5:e2:2d:
         82:2a:a5:22:ed:3e:15:b7:bb:ac:61:73:b2:e5:26:5e:23:ca:
         e9:3e:d7:b6
-----BEGIN CERTIFICATE-----
MIIDXTCCAkWgAwIBAgIRAPEOmYPxFKW71ZtdTzV+qUEwDQYJKoZIhvcNAQELBQAw
FjEUMBIGA1UEAwwLdGVhbTY4OC1uZXQwHhcNMjIwNTE4MjM0MDI5WhcNMjUwNTAy
MjM0MDI5WjAZMRcwFQYDVQQDDA50ZWFtNjg4LWNsaWVudDCCASIwDQYJKoZIhvcN
AQEBBQADggEPADCCAQoCggEBANp69lyK5t65PmZ1LzeKEtIN0vhXvY/ox07n30he
4wuhFVa0xm1u8AQf4FZyzb6gM3SQrV11UKTYVpO6skpefW5DYZd6NEtpQuB5fhSM
aYYn1czykCQ6nP6dmthva8SYpHlEahA46dSP/m9h1JHautMTatv/Xfbl7eGqi5R/
JP0gQMuEg8un+i/bNsw2uuBa3x4bblivIbQGU6fQgSFjqeEz6UBQbej/AGBtjqce
rrfth9pJcfDQSaRtjqqLzwtPI0ZIu47UZ1qbk4aEOIPHMr3QUywSFZT1EcpG1F4d
hZoyvFU+myux5MiN+UkNPNz81syhT08h/X/SwBql/3PnQ08CAwEAAaOBojCBnzAJ
BgNVHRMEAjAAMB0GA1UdDgQWBBT5jy8bhBBwKMTyRlc81z2jPBbgdzBRBgNVHSME
SjBIgBS6tjTLPA6xuUnOPOHEdugayWy46aEapBgwFjEUMBIGA1UEAwwLdGVhbTY4
OC1uZXSCFDdGxnhkzFwDIAFwoRRqUIzk0ETuMBMGA1UdJQQMMAoGCCsGAQUFBwMC
MAsGA1UdDwQEAwIHgDANBgkqhkiG9w0BAQsFAAOCAQEAnnlPvkYPrUwQoQhD+bWg
HaiEisqGa/dDxZPobUku9RqRkpfCtYekZyg6QRL7eCJ5XmJNy0RxesguQE1J+7U9
keDsNuIO8tWYrnu8wl7EiQaNxkuj3vXIciXm0C19Y8ZnYnZYd0rqNBuhYOgci3wx
uM0MJb+L6k9WH2l4IwsNoI2jxl+rwQQ16gI/eoKmzHGp2LgpNxxNkiqL64amyHkm
4MBlrLyHA4tP1GSfcjav5UoZWzJaPxUqNHK2w2BGDj5Yr8nRHc29pCyj2unCTOYQ
m8YoDKfoW43crlV/Kv/6o/4SgXdlvLNRxeItgiqlIu0+Fbe7rGFzsuUmXiPK6T7X
tg==
-----END CERTIFICATE-----
