Certificate:
    Data:
        Version: 3 (0x2)
        Serial Number:
            2b:f5:97:cd:a9:20:70:a6:ee:cf:6f:4a:29:e4:98:1e
        Signature Algorithm: sha256WithRSAEncryption
        Issuer: CN=team235-net
        Validity
            Not Before: May 18 19:22:21 2022 GMT
            Not After : May  2 19:22:21 2025 GMT
        Subject: CN=team235-client
        Subject Public Key Info:
            Public Key Algorithm: rsaEncryption
                RSA Public-Key: (2048 bit)
                Modulus:
                    00:c6:40:4c:b8:0e:1a:c2:f0:56:10:bb:03:6c:35:
                    a6:7e:5e:cd:50:ee:ac:06:30:d2:16:1b:04:e3:a8:
                    04:d1:70:a5:91:d8:f9:99:67:9e:87:e4:cf:ff:53:
                    ed:ea:a8:b3:42:e8:24:c0:bf:5c:1b:d0:19:fa:20:
                    27:2d:e2:79:44:f8:e8:58:4f:7b:2c:2d:af:bc:0e:
                    e4:0a:2b:db:81:3c:c9:43:27:0e:bb:b4:c8:3e:bf:
                    b2:f3:76:9d:ec:88:95:47:10:e1:28:3a:08:67:6a:
                    90:6b:d9:0d:cf:64:10:77:24:bd:03:6e:da:27:dc:
                    57:13:a8:ed:98:71:36:80:75:26:3c:57:53:34:25:
                    d0:06:67:74:97:aa:33:98:ae:a5:aa:42:e8:8a:98:
                    dd:1a:df:45:73:ed:7c:62:63:92:fb:cd:c2:0b:cd:
                    ca:12:de:c4:9b:93:17:e2:29:cf:75:f0:97:a8:bd:
                    8d:ac:2d:00:0b:f5:ef:26:b4:be:c9:96:e0:37:a9:
                    44:ed:92:bf:be:8e:35:18:62:39:94:5d:f2:17:df:
                    55:64:b7:4a:0d:87:13:86:54:af:89:3a:40:1d:1e:
                    2d:24:33:3e:06:2d:f8:b7:49:3e:c3:6f:6a:3e:0b:
                    73:bb:36:45:87:68:69:cd:93:93:ef:80:6b:42:0e:
                    ce:0b
                Exponent: 65537 (0x10001)
        X509v3 extensions:
            X509v3 Basic Constraints: 
                CA:FALSE
            X509v3 Subject Key Identifier: 
                84:61:D0:E3:41:51:48:A4:03:24:D9:F6:B2:E2:48:0C:8A:C8:EA:A8
            X509v3 Authority Key Identifier: 
                keyid:50:FF:98:61:BD:C0:09:C4:4B:F6:93:E3:E8:B4:B0:67:1D:AB:C5:20
                DirName:/CN=team235-net
                serial:18:97:02:98:80:CD:B6:16:48:10:A5:BD:36:DB:43:02:CE:5E:53:82

            X509v3 Extended Key Usage: 
                TLS Web Client Authentication
            X509v3 Key Usage: 
                Digital Signature
    Signature Algorithm: sha256WithRSAEncryption
         33:a5:41:86:b4:82:4e:e2:9c:ad:99:90:c5:46:67:c7:cf:74:
         7c:8b:79:66:88:69:9d:62:41:20:3d:ff:2e:96:87:e0:7b:fd:
         17:b6:96:29:8c:70:1e:62:1c:e2:25:16:f1:c5:69:10:8e:eb:
         94:a1:fa:8b:3c:31:b6:7f:8f:04:7f:2d:3a:d5:03:c9:4a:6d:
         b6:ae:81:65:d8:71:03:4b:81:a7:72:f2:c4:92:36:58:34:6c:
         e9:8d:e7:e1:4d:2b:08:2a:c2:46:c8:c2:e8:33:83:e4:ee:bd:
         d0:9f:2a:40:34:03:c7:dd:08:86:b3:b2:4e:88:05:4e:88:b7:
         b7:b9:76:95:66:2b:71:f0:f2:67:51:8c:ac:47:76:1b:f1:70:
         45:d0:b4:43:83:dd:b8:63:76:46:ea:e1:22:46:cc:ea:d9:fe:
         c7:fa:ea:ee:a5:d4:77:f7:f2:9c:5c:3e:ee:47:77:4a:fe:3e:
         3d:84:01:36:7c:e0:2e:6d:24:db:f9:88:aa:59:3b:a0:07:1d:
         63:ea:7a:05:65:f4:ee:35:1e:a7:96:79:38:3b:f2:28:8f:6e:
         81:77:62:42:8f:93:b0:ed:48:11:20:27:9d:5f:73:24:df:51:
         79:b2:bb:e7:ed:b1:73:db:b0:cd:d6:c9:dd:ca:4c:32:95:1b:
         c0:4c:a2:72
-----BEGIN CERTIFICATE-----
MIIDXDCCAkSgAwIBAgIQK/WXzakgcKbuz29KKeSYHjANBgkqhkiG9w0BAQsFADAW
MRQwEgYDVQQDDAt0ZWFtMjM1LW5ldDAeFw0yMjA1MTgxOTIyMjFaFw0yNTA1MDIx
OTIyMjFaMBkxFzAVBgNVBAMMDnRlYW0yMzUtY2xpZW50MIIBIjANBgkqhkiG9w0B
AQEFAAOCAQ8AMIIBCgKCAQEAxkBMuA4awvBWELsDbDWmfl7NUO6sBjDSFhsE46gE
0XClkdj5mWeeh+TP/1Pt6qizQugkwL9cG9AZ+iAnLeJ5RPjoWE97LC2vvA7kCivb
gTzJQycOu7TIPr+y83ad7IiVRxDhKDoIZ2qQa9kNz2QQdyS9A27aJ9xXE6jtmHE2
gHUmPFdTNCXQBmd0l6ozmK6lqkLoipjdGt9Fc+18YmOS+83CC83KEt7Em5MX4inP
dfCXqL2NrC0AC/XvJrS+yZbgN6lE7ZK/vo41GGI5lF3yF99VZLdKDYcThlSviTpA
HR4tJDM+Bi34t0k+w29qPgtzuzZFh2hpzZOT74BrQg7OCwIDAQABo4GiMIGfMAkG
A1UdEwQCMAAwHQYDVR0OBBYEFIRh0ONBUUikAyTZ9rLiSAyKyOqoMFEGA1UdIwRK
MEiAFFD/mGG9wAnES/aT4+i0sGcdq8UgoRqkGDAWMRQwEgYDVQQDDAt0ZWFtMjM1
LW5ldIIUGJcCmIDNthZIEKW9NttDAs5eU4IwEwYDVR0lBAwwCgYIKwYBBQUHAwIw
CwYDVR0PBAQDAgeAMA0GCSqGSIb3DQEBCwUAA4IBAQAzpUGGtIJO4pytmZDFRmfH
z3R8i3lmiGmdYkEgPf8ulofge/0XtpYpjHAeYhziJRbxxWkQjuuUofqLPDG2f48E
fy061QPJSm22roFl2HEDS4GncvLEkjZYNGzpjefhTSsIKsJGyMLoM4Pk7r3QnypA
NAPH3QiGs7JOiAVOiLe3uXaVZitx8PJnUYysR3Yb8XBF0LRDg924Y3ZG6uEiRszq
2f7H+urupdR39/KcXD7uR3dK/j49hAE2fOAubSTb+YiqWTugBx1j6noFZfTuNR6n
lnk4O/Ioj26Bd2JCj5Ow7UgRICedX3Mk31F5srvn7bFz27DN1sndykwylRvATKJy
-----END CERTIFICATE-----
