Certificate:
    Data:
        Version: 3 (0x2)
        Serial Number:
            22:61:72:85:6e:61:b1:02:fe:43:2b:fa:3a:f6:0a:95
        Signature Algorithm: sha256WithRSAEncryption
        Issuer: CN=team499-net
        Validity
            Not Before: May 18 21:44:48 2022 GMT
            Not After : May  2 21:44:48 2025 GMT
        Subject: CN=team499-client
        Subject Public Key Info:
            Public Key Algorithm: rsaEncryption
                RSA Public-Key: (2048 bit)
                Modulus:
                    00:b4:98:7c:21:2d:49:21:05:d3:bf:ad:e3:4f:11:
                    e5:15:da:d1:f4:49:66:47:38:70:d1:fc:7d:6e:f4:
                    f7:63:c0:6b:be:2c:6e:f7:4b:ef:fb:19:57:11:0b:
                    79:8f:5f:98:90:f7:56:11:91:03:2d:2b:25:38:6e:
                    19:da:cb:89:e4:c4:0e:f5:80:6c:c8:cb:31:24:06:
                    56:d2:5c:92:39:63:60:fc:42:21:c5:e6:d4:50:de:
                    47:75:81:f7:36:ac:e3:9e:54:bc:48:d7:e9:b7:f4:
                    42:54:6d:0c:74:e3:38:93:e4:b0:d3:07:12:81:d2:
                    09:a5:66:92:b2:66:0b:53:dc:ed:ce:62:ae:ec:05:
                    d0:a0:fb:01:93:60:55:4c:62:49:27:79:0e:7f:66:
                    af:52:0f:00:6a:b9:3e:72:37:e5:cd:83:fb:1b:12:
                    da:70:55:3f:64:09:9d:55:6a:d5:1d:2a:6e:d3:93:
                    50:39:a9:8b:5f:02:1d:82:54:9a:ef:ae:72:31:0a:
                    be:14:f2:48:7a:95:49:6f:c3:b3:49:00:76:e8:34:
                    a9:82:a9:55:2e:c8:df:f3:f1:36:fa:70:26:69:06:
                    f7:4e:12:d2:12:15:b8:63:67:d9:62:21:79:a0:91:
                    33:d6:94:79:04:f5:74:e0:e4:a4:b7:1c:f3:68:e0:
                    94:6f
                Exponent: 65537 (0x10001)
        X509v3 extensions:
            X509v3 Basic Constraints: 
                CA:FALSE
            X509v3 Subject Key Identifier: 
                5E:96:59:E9:25:67:3D:FB:CC:6F:91:6F:9B:24:FA:13:4A:13:58:07
            X509v3 Authority Key Identifier: 
                keyid:EB:A4:BC:A3:36:01:0B:55:05:C2:18:EB:C7:F8:4E:65:FF:00:ED:0A
                DirName:/CN=team499-net
                serial:0D:9D:AD:8E:6D:3C:1B:83:42:C6:E3:9F:0D:FD:2B:EC:AA:E5:6A:B6

            X509v3 Extended Key Usage: 
                TLS Web Client Authentication
            X509v3 Key Usage: 
                Digital Signature
    Signature Algorithm: sha256WithRSAEncryption
         8c:aa:84:0e:4d:ab:e1:75:33:3d:07:d6:9a:79:08:97:6b:e7:
         67:a2:56:87:79:8e:be:00:df:ef:8a:bd:c7:02:b6:07:df:18:
         3d:39:12:12:cd:29:39:88:92:60:b6:5b:d3:c0:c7:fd:03:f6:
         08:7a:7e:bc:9d:b8:8b:50:21:85:d5:1a:8d:41:80:9d:06:b8:
         20:b3:49:a8:54:17:35:af:72:87:0b:67:82:a5:a4:8d:38:83:
         df:5d:b8:09:e4:86:c3:55:7a:8b:4c:ae:b2:01:38:03:41:2a:
         d5:1b:0f:40:e4:7a:46:22:d2:83:ab:69:33:a9:2b:ad:34:7d:
         26:99:c3:1f:ed:d8:90:77:d0:1a:d3:1f:2a:e1:47:c6:1d:cf:
         47:e4:25:8c:1b:77:78:4f:87:d9:1c:80:7f:6f:e8:fa:51:78:
         68:95:8b:41:05:66:43:86:35:1c:54:1f:21:38:32:bf:3c:67:
         97:7b:7c:28:a7:11:40:db:ae:83:65:90:cf:31:e4:35:c0:e9:
         4f:a0:13:ae:3c:64:22:45:b7:55:74:fa:fb:08:0d:44:c7:f9:
         fd:85:71:f1:a2:1c:20:ae:54:d4:e3:df:c5:c4:ae:a9:9d:5f:
         f6:7c:b5:33:ea:c9:cb:fd:2c:35:3a:59:ae:64:40:61:96:a2:
         99:51:32:85
-----BEGIN CERTIFICATE-----
MIIDXDCCAkSgAwIBAgIQImFyhW5hsQL+Qyv6OvYKlTANBgkqhkiG9w0BAQsFADAW
MRQwEgYDVQQDDAt0ZWFtNDk5LW5ldDAeFw0yMjA1MTgyMTQ0NDhaFw0yNTA1MDIy
MTQ0NDhaMBkxFzAVBgNVBAMMDnRlYW00OTktY2xpZW50MIIBIjANBgkqhkiG9w0B
AQEFAAOCAQ8AMIIBCgKCAQEAtJh8IS1JIQXTv63jTxHlFdrR9ElmRzhw0fx9bvT3
Y8Brvixu90vv+xlXEQt5j1+YkPdWEZEDLSslOG4Z2suJ5MQO9YBsyMsxJAZW0lyS
OWNg/EIhxebUUN5HdYH3NqzjnlS8SNfpt/RCVG0MdOM4k+Sw0wcSgdIJpWaSsmYL
U9ztzmKu7AXQoPsBk2BVTGJJJ3kOf2avUg8Aark+cjflzYP7GxLacFU/ZAmdVWrV
HSpu05NQOamLXwIdglSa765yMQq+FPJIepVJb8OzSQB26DSpgqlVLsjf8/E2+nAm
aQb3ThLSEhW4Y2fZYiF5oJEz1pR5BPV04OSktxzzaOCUbwIDAQABo4GiMIGfMAkG
A1UdEwQCMAAwHQYDVR0OBBYEFF6WWeklZz37zG+Rb5sk+hNKE1gHMFEGA1UdIwRK
MEiAFOukvKM2AQtVBcIY68f4TmX/AO0KoRqkGDAWMRQwEgYDVQQDDAt0ZWFtNDk5
LW5ldIIUDZ2tjm08G4NCxuOfDf0r7KrlarYwEwYDVR0lBAwwCgYIKwYBBQUHAwIw
CwYDVR0PBAQDAgeAMA0GCSqGSIb3DQEBCwUAA4IBAQCMqoQOTavhdTM9B9aaeQiX
a+dnolaHeY6+AN/vir3HArYH3xg9ORISzSk5iJJgtlvTwMf9A/YIen68nbiLUCGF
1RqNQYCdBrggs0moVBc1r3KHC2eCpaSNOIPfXbgJ5IbDVXqLTK6yATgDQSrVGw9A
5HpGItKDq2kzqSutNH0mmcMf7diQd9Aa0x8q4UfGHc9H5CWMG3d4T4fZHIB/b+j6
UXholYtBBWZDhjUcVB8hODK/PGeXe3wopxFA266DZZDPMeQ1wOlPoBOuPGQiRbdV
dPr7CA1Ex/n9hXHxohwgrlTU49/FxK6pnV/2fLUz6snL/Sw1OlmuZEBhlqKZUTKF
-----END CERTIFICATE-----
