Certificate:
    Data:
        Version: 3 (0x2)
        Serial Number:
            24:ac:4e:2d:a3:c0:ea:80:88:e4:26:cd:f8:b6:6d:57
        Signature Algorithm: sha256WithRSAEncryption
        Issuer: CN=team11-net
        Validity
            Not Before: May 18 14:02:32 2022 GMT
            Not After : May  2 14:02:32 2025 GMT
        Subject: CN=team11-client
        Subject Public Key Info:
            Public Key Algorithm: rsaEncryption
                RSA Public-Key: (2048 bit)
                Modulus:
                    00:cf:ed:49:49:71:08:b6:45:3e:72:66:a6:51:47:
                    67:98:73:9c:a7:07:3c:67:66:9f:d9:98:d0:62:86:
                    88:5e:8a:46:50:d0:5d:fb:f7:2b:1b:25:e0:a4:d8:
                    4f:d5:86:6c:6b:7a:d5:00:85:5c:3c:ae:d7:81:25:
                    d4:06:48:3b:c6:f3:0f:ba:24:c3:31:37:33:78:d1:
                    2b:8f:a3:8a:f6:4f:25:b0:06:66:31:01:0a:b4:48:
                    f5:76:4f:0b:6c:58:44:40:51:02:2c:65:e4:4b:c0:
                    8d:e1:8a:08:3c:46:4c:38:01:28:6e:3e:23:74:d7:
                    72:b1:ce:77:4a:ba:27:12:9b:e3:4f:37:bf:c6:6e:
                    5f:24:45:16:7f:67:62:10:83:f5:64:26:48:8c:21:
                    cd:8f:c9:71:53:ed:bf:8c:db:e6:1a:da:24:4a:38:
                    a7:2f:83:27:ea:45:de:3c:b9:97:16:03:01:08:bb:
                    21:4d:23:49:18:ab:0c:ce:fa:33:78:ec:f8:8e:e5:
                    f0:a9:db:3b:b6:5a:34:43:e1:79:b5:41:c7:2b:b3:
                    3b:3b:1d:b7:be:ff:9c:e2:d4:3d:04:da:71:95:5e:
                    a7:01:5f:3f:a5:87:d3:0d:76:68:d6:1d:73:91:39:
                    9b:b2:8d:07:ed:a4:46:8b:54:ad:96:35:2a:16:5d:
                    74:1f
                Exponent: 65537 (0x10001)
        X509v3 extensions:
            X509v3 Basic Constraints: 
                CA:FALSE
            X509v3 Subject Key Identifier: 
                6D:CC:90:BD:17:6C:99:9F:EB:91:0D:ED:0E:A5:DB:80:CE:23:16:6C
            X509v3 Authority Key Identifier: 
                keyid:56:D2:64:16:09:D6:7C:4C:82:7F:E2:A6:5C:10:62:72:F7:2A:73:D2
                DirName:/CN=team11-net
                serial:41:8A:41:65:1C:B1:58:17:19:93:4C:0B:77:F0:11:63:FD:06:07:84

            X509v3 Extended Key Usage: 
                TLS Web Client Authentication
            X509v3 Key Usage: 
                Digital Signature
    Signature Algorithm: sha256WithRSAEncryption
         8f:54:8f:30:bc:3c:29:11:a3:24:07:87:37:ac:d9:ab:11:f4:
         15:d7:b2:de:1f:49:d9:ae:d7:70:69:d0:65:77:67:6d:f6:41:
         be:34:8a:79:5b:80:72:8e:11:c3:a1:32:93:98:28:3a:10:55:
         92:71:3d:2b:cf:32:8f:d7:c6:39:89:b8:ac:ae:fe:22:6f:5d:
         71:6b:bf:4f:84:bf:3b:f3:2d:69:b8:a7:48:31:38:d7:8e:c4:
         c1:e4:24:84:2e:82:1b:26:c2:82:69:fc:d6:28:12:d0:f1:07:
         56:dd:e5:a3:74:cc:ad:08:58:9b:c0:33:c9:c3:af:b1:73:69:
         c5:b0:92:54:84:82:a9:d7:d9:ce:e1:b0:6d:d8:6e:66:aa:f5:
         31:d9:87:e0:a0:c6:74:ab:ed:f5:06:bb:d7:f0:38:05:ee:ae:
         90:df:dc:48:8c:0b:b1:db:bb:c3:f0:1d:34:c1:91:98:34:5c:
         b6:0b:61:3d:86:d4:6e:e4:af:de:4b:57:0e:a0:fb:c8:ed:42:
         9a:a4:65:8f:cb:e5:e3:c1:43:49:da:1c:54:dd:5d:46:a0:6a:
         70:9c:ba:42:1c:75:b3:ea:80:ab:d1:ac:68:cd:95:fa:da:e9:
         0e:16:33:ce:77:4a:2a:c6:76:95:aa:19:6f:a3:4e:eb:d3:be:
         4b:e5:97:be
-----BEGIN CERTIFICATE-----
MIIDWTCCAkGgAwIBAgIQJKxOLaPA6oCI5CbN+LZtVzANBgkqhkiG9w0BAQsFADAV
MRMwEQYDVQQDDAp0ZWFtMTEtbmV0MB4XDTIyMDUxODE0MDIzMloXDTI1MDUwMjE0
MDIzMlowGDEWMBQGA1UEAwwNdGVhbTExLWNsaWVudDCCASIwDQYJKoZIhvcNAQEB
BQADggEPADCCAQoCggEBAM/tSUlxCLZFPnJmplFHZ5hznKcHPGdmn9mY0GKGiF6K
RlDQXfv3Kxsl4KTYT9WGbGt61QCFXDyu14El1AZIO8bzD7okwzE3M3jRK4+jivZP
JbAGZjEBCrRI9XZPC2xYREBRAixl5EvAjeGKCDxGTDgBKG4+I3TXcrHOd0q6JxKb
4083v8ZuXyRFFn9nYhCD9WQmSIwhzY/JcVPtv4zb5hraJEo4py+DJ+pF3jy5lxYD
AQi7IU0jSRirDM76M3js+I7l8KnbO7ZaNEPhebVBxyuzOzsdt77/nOLUPQTacZVe
pwFfP6WH0w12aNYdc5E5m7KNB+2kRotUrZY1KhZddB8CAwEAAaOBoTCBnjAJBgNV
HRMEAjAAMB0GA1UdDgQWBBRtzJC9F2yZn+uRDe0OpduAziMWbDBQBgNVHSMESTBH
gBRW0mQWCdZ8TIJ/4qZcEGJy9ypz0qEZpBcwFTETMBEGA1UEAwwKdGVhbTExLW5l
dIIUQYpBZRyxWBcZk0wLd/ARY/0GB4QwEwYDVR0lBAwwCgYIKwYBBQUHAwIwCwYD
VR0PBAQDAgeAMA0GCSqGSIb3DQEBCwUAA4IBAQCPVI8wvDwpEaMkB4c3rNmrEfQV
17LeH0nZrtdwadBld2dt9kG+NIp5W4ByjhHDoTKTmCg6EFWScT0rzzKP18Y5ibis
rv4ib11xa79PhL878y1puKdIMTjXjsTB5CSELoIbJsKCafzWKBLQ8QdW3eWjdMyt
CFibwDPJw6+xc2nFsJJUhIKp19nO4bBt2G5mqvUx2YfgoMZ0q+31BrvX8DgF7q6Q
39xIjAux27vD8B00wZGYNFy2C2E9htRu5K/eS1cOoPvI7UKapGWPy+XjwUNJ2hxU
3V1GoGpwnLpCHHWz6oCr0axozZX62ukOFjPOd0oqxnaVqhlvo07r075L5Ze+
-----END CERTIFICATE-----
