Certificate:
    Data:
        Version: 3 (0x2)
        Serial Number:
            d1:12:31:a2:31:89:99:58:0c:68:c3:b5:04:cf:65:dd
        Signature Algorithm: sha256WithRSAEncryption
        Issuer: CN=team11-net
        Validity
            Not Before: May 18 14:02:32 2022 GMT
            Not After : May  2 14:02:32 2025 GMT
        Subject: CN=team11-server
        Subject Public Key Info:
            Public Key Algorithm: rsaEncryption
                RSA Public-Key: (2048 bit)
                Modulus:
                    00:ad:cd:3e:fc:8c:d6:6c:85:eb:c5:4a:c9:d9:09:
                    2b:86:cd:42:d2:56:be:ac:79:eb:08:1f:38:ac:de:
                    7d:a4:2d:de:2f:72:14:ed:46:6a:e7:66:9e:da:7b:
                    8a:1f:cc:68:ca:17:67:9e:18:0f:66:47:90:b3:c0:
                    81:4a:a6:c2:54:2d:8a:18:80:ff:15:3b:9e:38:4c:
                    f1:07:59:39:cf:f2:97:5f:4b:14:09:98:4c:6a:6b:
                    8d:58:0c:76:08:2d:2f:47:aa:d0:5f:72:42:7b:de:
                    83:e3:b8:b8:af:12:67:d8:58:eb:a3:39:75:ff:33:
                    af:2d:ec:3b:9e:30:81:2e:53:5e:ac:00:5b:7c:41:
                    b8:15:fc:52:a2:e6:5a:aa:31:8c:41:5c:1a:87:11:
                    f2:ce:25:02:70:67:61:ba:4e:8e:a4:16:66:64:cd:
                    d8:f6:91:90:a6:97:7e:97:a6:26:1c:11:ca:2e:c2:
                    d9:06:7d:88:5e:53:cb:27:5c:3f:d0:05:66:7d:91:
                    cf:d1:7a:47:8c:6d:40:93:7f:bf:67:5a:17:b4:7e:
                    36:b8:ba:47:bd:47:98:71:f8:6e:17:b3:e6:bb:89:
                    b3:fd:a0:90:af:c4:d3:ab:40:10:d0:45:1e:9e:e7:
                    c7:48:0e:2c:5b:51:d7:b0:f3:6b:ff:0c:2c:8e:d1:
                    2d:b3
                Exponent: 65537 (0x10001)
        X509v3 extensions:
            X509v3 Basic Constraints: 
                CA:FALSE
            X509v3 Subject Key Identifier: 
                6A:9A:FD:3C:92:B9:C7:DE:33:49:E6:35:1E:A2:79:09:54:E2:F1:34
            X509v3 Authority Key Identifier: 
                keyid:56:D2:64:16:09:D6:7C:4C:82:7F:E2:A6:5C:10:62:72:F7:2A:73:D2
                DirName:/CN=team11-net
                serial:41:8A:41:65:1C:B1:58:17:19:93:4C:0B:77:F0:11:63:FD:06:07:84

            X509v3 Extended Key Usage: 
                TLS Web Server Authentication
            X509v3 Key Usage: 
                Digital Signature, Key Encipherment
            X509v3 Subject Alternative Name: 
                DNS:team11-server
    Signature Algorithm: sha256WithRSAEncryption
         38:51:a5:cf:2e:6a:3b:c0:05:0b:bc:cf:5d:0b:a6:92:99:cd:
         f9:e8:3a:61:bc:5c:1a:c8:64:53:4b:ea:87:d3:e2:0d:84:eb:
         f5:5f:cf:b5:a5:70:73:f4:a7:cb:c4:d9:87:ba:8c:d1:5c:c5:
         55:c0:24:ce:77:41:fe:02:fc:cc:b9:78:77:ff:de:33:af:8a:
         57:15:b1:18:ed:4d:62:1e:d7:48:8d:17:79:45:6b:58:61:14:
         98:f8:36:1d:10:e9:17:1a:78:8c:ec:dd:14:7f:6a:62:a3:c9:
         81:91:8a:c2:4c:af:22:3b:a6:60:28:82:9d:93:25:1c:94:79:
         4f:29:77:dc:0d:1b:fb:34:27:13:25:30:f0:30:c8:af:07:0c:
         02:37:d5:6a:54:7c:a0:1f:a4:45:c9:e2:95:0b:3c:8b:17:de:
         a7:ed:5e:35:91:52:99:f1:f8:3a:39:8e:2e:2f:1b:94:53:ec:
         ca:96:9c:95:6a:f0:10:05:9a:27:81:43:a6:d7:f1:5a:61:87:
         ec:99:70:13:8c:d4:1d:1f:b9:2a:6f:7c:68:c4:bd:9b:84:af:
         7c:c4:77:7d:83:b4:58:4d:5c:ca:a5:a8:fe:82:90:46:5d:91:
         cf:b2:93:df:18:04:0a:54:4e:c2:e5:70:4c:91:39:48:a4:72:
         8d:58:cd:fb
-----BEGIN CERTIFICATE-----
MIIDdDCCAlygAwIBAgIRANESMaIxiZlYDGjDtQTPZd0wDQYJKoZIhvcNAQELBQAw
FTETMBEGA1UEAwwKdGVhbTExLW5ldDAeFw0yMjA1MTgxNDAyMzJaFw0yNTA1MDIx
NDAyMzJaMBgxFjAUBgNVBAMMDXRlYW0xMS1zZXJ2ZXIwggEiMA0GCSqGSIb3DQEB
AQUAA4IBDwAwggEKAoIBAQCtzT78jNZshevFSsnZCSuGzULSVr6seesIHzis3n2k
Ld4vchTtRmrnZp7ae4ofzGjKF2eeGA9mR5CzwIFKpsJULYoYgP8VO544TPEHWTnP
8pdfSxQJmExqa41YDHYILS9HqtBfckJ73oPjuLivEmfYWOujOXX/M68t7DueMIEu
U16sAFt8QbgV/FKi5lqqMYxBXBqHEfLOJQJwZ2G6To6kFmZkzdj2kZCml36XpiYc
EcouwtkGfYheU8snXD/QBWZ9kc/RekeMbUCTf79nWhe0fja4uke9R5hx+G4Xs+a7
ibP9oJCvxNOrQBDQRR6e58dIDixbUdew82v/DCyO0S2zAgMBAAGjgbswgbgwCQYD
VR0TBAIwADAdBgNVHQ4EFgQUapr9PJK5x94zSeY1HqJ5CVTi8TQwUAYDVR0jBEkw
R4AUVtJkFgnWfEyCf+KmXBBicvcqc9KhGaQXMBUxEzARBgNVBAMMCnRlYW0xMS1u
ZXSCFEGKQWUcsVgXGZNMC3fwEWP9BgeEMBMGA1UdJQQMMAoGCCsGAQUFBwMBMAsG
A1UdDwQEAwIFoDAYBgNVHREEETAPgg10ZWFtMTEtc2VydmVyMA0GCSqGSIb3DQEB
CwUAA4IBAQA4UaXPLmo7wAULvM9dC6aSmc356DphvFwayGRTS+qH0+INhOv1X8+1
pXBz9KfLxNmHuozRXMVVwCTOd0H+AvzMuXh3/94zr4pXFbEY7U1iHtdIjRd5RWtY
YRSY+DYdEOkXGniM7N0Uf2pio8mBkYrCTK8iO6ZgKIKdkyUclHlPKXfcDRv7NCcT
JTDwMMivBwwCN9VqVHygH6RFyeKVCzyLF96n7V41kVKZ8fg6OY4uLxuUU+zKlpyV
avAQBZongUOm1/FaYYfsmXATjNQdH7kqb3xoxL2bhK98xHd9g7RYTVzKpaj+gpBG
XZHPspPfGAQKVE7C5XBMkTlIpHKNWM37
-----END CERTIFICATE-----
