Certificate:
    Data:
        Version: 3 (0x2)
        Serial Number:
            43:74:f0:61:30:b8:53:99:a7:2e:89:0e:cb:a1:9d:46
        Signature Algorithm: sha256WithRSAEncryption
        Issuer: CN=team389-net
        Validity
            Not Before: May 18 20:56:13 2022 GMT
            Not After : May  2 20:56:13 2025 GMT
        Subject: CN=team389-server
        Subject Public Key Info:
            Public Key Algorithm: rsaEncryption
                RSA Public-Key: (2048 bit)
                Modulus:
                    00:9e:40:f7:8e:f5:b5:8c:c8:4a:0d:81:93:9a:e5:
                    dc:9b:ef:3c:8f:27:5c:76:04:43:1e:b9:04:5a:51:
                    12:4e:30:58:2a:cb:5a:8e:c6:1d:05:70:16:76:6d:
                    b1:c9:a5:88:ea:4d:84:9d:41:91:a4:cc:28:f1:f1:
                    dd:06:e2:40:6e:bc:ae:e5:bb:78:b1:f4:88:03:1f:
                    ab:f8:1c:c1:39:fa:c7:e1:d4:4b:43:81:87:db:8f:
                    68:8d:df:4e:2f:0c:ec:8e:fb:2f:ac:ba:ba:97:e5:
                    5c:84:87:2f:21:04:c5:05:53:9b:0d:0b:9c:16:c7:
                    46:02:8e:3a:5d:84:78:cf:16:a0:a6:7d:8f:1b:ab:
                    68:1c:af:9f:f2:12:c4:1b:b6:5b:f3:85:f8:06:db:
                    25:4f:62:40:3c:2e:10:b3:6e:c8:04:56:a6:33:8d:
                    ea:14:39:78:0c:da:15:21:85:bc:fc:a9:6f:3b:9b:
                    03:95:b4:25:a7:12:80:23:64:2b:dc:cf:3c:4f:30:
                    de:74:1e:3f:5a:c2:39:4a:f7:ab:3b:4c:dd:8f:0d:
                    6f:e7:d7:0c:9a:e8:e5:55:a5:af:d3:7e:4e:a5:ec:
                    e6:05:be:51:86:ef:7f:9a:f6:ad:ad:9f:49:04:0b:
                    a9:ef:c9:fa:42:57:e8:4d:0c:4d:20:ff:c6:55:ff:
                    93:69
                Exponent: 65537 (0x10001)
        X509v3 extensions:
            X509v3 Basic Constraints: 
                CA:FALSE
            X509v3 Subject Key Identifier: 
                90:9C:1E:C5:00:2B:BA:FB:1E:14:4F:CE:9B:D6:70:BE:A2:F5:D1:EA
            X509v3 Authority Key Identifier: 
                keyid:9C:1F:CE:76:7A:0C:D9:50:26:B9:2F:9B:4C:C3:2F:31:E6:89:FA:1C
                DirName:/CN=team389-net
                serial:0B:3C:AE:80:D0:EE:38:41:76:ED:57:E0:28:91:70:FD:02:54:D1:5B

            X509v3 Extended Key Usage: 
                TLS Web Server Authentication
            X509v3 Key Usage: 
                Digital Signature, Key Encipherment
            X509v3 Subject Alternative Name: 
                DNS:team389-server
    Signature Algorithm: sha256WithRSAEncryption
         6c:32:81:b4:b8:a3:1d:98:d8:03:77:c0:8e:23:69:95:f4:77:
         83:d8:8b:60:0d:54:80:29:db:e6:6f:c6:1d:4f:fb:0a:be:c6:
         f9:17:7f:03:de:4d:9e:c8:d8:d8:0a:3f:9c:03:78:f7:65:cf:
         aa:cb:4e:ed:b1:6a:33:56:b0:8c:ff:2d:ce:d2:67:a7:9b:8c:
         f7:5d:87:ee:55:69:f4:88:90:65:b2:75:fa:d6:43:b9:e6:21:
         75:7b:ad:90:62:3a:32:48:23:28:5a:2c:1f:24:58:21:e0:b1:
         73:60:33:03:15:0c:79:1b:16:cc:e2:5d:10:91:e2:c2:b9:47:
         4d:6a:b1:4e:09:0e:07:96:ff:78:1a:4d:7d:60:7f:0d:8d:bd:
         b1:8c:be:25:a8:58:aa:15:e1:af:1d:66:70:9f:c4:74:d9:e8:
         ad:89:a5:77:22:55:54:1e:6e:fa:bd:35:1d:05:1b:48:3d:a5:
         08:86:23:b8:4d:19:36:47:bf:65:6b:8f:f7:4a:c4:f5:be:8f:
         15:f6:cc:6c:a6:77:69:1c:f8:a9:be:ac:34:e3:b1:98:9a:36:
         6c:ef:96:0a:6c:8c:94:e4:a7:d7:52:27:05:fe:6d:5a:87:86:
         4a:80:c4:23:8b:91:a4:c2:8d:7f:82:83:71:e9:2e:1e:08:21:
         64:14:45:5f
-----BEGIN CERTIFICATE-----
MIIDdzCCAl+gAwIBAgIQQ3TwYTC4U5mnLokOy6GdRjANBgkqhkiG9w0BAQsFADAW
MRQwEgYDVQQDDAt0ZWFtMzg5LW5ldDAeFw0yMjA1MTgyMDU2MTNaFw0yNTA1MDIy
MDU2MTNaMBkxFzAVBgNVBAMMDnRlYW0zODktc2VydmVyMIIBIjANBgkqhkiG9w0B
AQEFAAOCAQ8AMIIBCgKCAQEAnkD3jvW1jMhKDYGTmuXcm+88jydcdgRDHrkEWlES
TjBYKstajsYdBXAWdm2xyaWI6k2EnUGRpMwo8fHdBuJAbryu5bt4sfSIAx+r+BzB
OfrH4dRLQ4GH249ojd9OLwzsjvsvrLq6l+VchIcvIQTFBVObDQucFsdGAo46XYR4
zxagpn2PG6toHK+f8hLEG7Zb84X4BtslT2JAPC4Qs27IBFamM43qFDl4DNoVIYW8
/KlvO5sDlbQlpxKAI2Qr3M88TzDedB4/WsI5SverO0zdjw1v59cMmujlVaWv035O
pezmBb5Rhu9/mvatrZ9JBAup78n6QlfoTQxNIP/GVf+TaQIDAQABo4G9MIG6MAkG
A1UdEwQCMAAwHQYDVR0OBBYEFJCcHsUAK7r7HhRPzpvWcL6i9dHqMFEGA1UdIwRK
MEiAFJwfznZ6DNlQJrkvm0zDLzHmifocoRqkGDAWMRQwEgYDVQQDDAt0ZWFtMzg5
LW5ldIIUCzyugNDuOEF27VfgKJFw/QJU0VswEwYDVR0lBAwwCgYIKwYBBQUHAwEw
CwYDVR0PBAQDAgWgMBkGA1UdEQQSMBCCDnRlYW0zODktc2VydmVyMA0GCSqGSIb3
DQEBCwUAA4IBAQBsMoG0uKMdmNgDd8COI2mV9HeD2ItgDVSAKdvmb8YdT/sKvsb5
F38D3k2eyNjYCj+cA3j3Zc+qy07tsWozVrCM/y3O0menm4z3XYfuVWn0iJBlsnX6
1kO55iF1e62QYjoySCMoWiwfJFgh4LFzYDMDFQx5GxbM4l0QkeLCuUdNarFOCQ4H
lv94Gk19YH8Njb2xjL4lqFiqFeGvHWZwn8R02eitiaV3IlVUHm76vTUdBRtIPaUI
hiO4TRk2R79la4/3SsT1vo8V9sxspndpHPipvqw047GYmjZs75YKbIyU5KfXUicF
/m1ah4ZKgMQji5Gkwo1/goNx6S4eCCFkFEVf
-----END CERTIFICATE-----
