Certificate:
    Data:
        Version: 3 (0x2)
        Serial Number:
            c3:a1:eb:d5:ac:a6:29:06:8c:dc:e6:ed:e4:37:06:49
        Signature Algorithm: sha256WithRSAEncryption
        Issuer: CN=team423-net
        Validity
            Not Before: May 18 21:10:42 2022 GMT
            Not After : May  2 21:10:42 2025 GMT
        Subject: CN=team423-client
        Subject Public Key Info:
            Public Key Algorithm: rsaEncryption
                RSA Public-Key: (2048 bit)
                Modulus:
                    00:ed:58:fe:1b:a3:81:8a:14:7c:97:6d:1d:bd:1f:
                    e8:b7:28:29:8f:c7:97:e6:39:7f:77:73:e5:a9:0f:
                    f6:2d:62:0f:1f:44:e1:b4:a6:90:31:91:eb:6d:f6:
                    71:c4:e2:3a:43:6b:9e:83:6c:e9:fd:bf:a5:72:4c:
                    91:0b:4e:0d:83:6e:a8:84:fa:38:3a:5d:c0:a1:2f:
                    15:a7:11:86:49:fa:1b:ad:58:df:05:f9:87:8f:c9:
                    0e:7d:17:65:19:ed:2f:b1:07:bc:fd:30:3c:72:cc:
                    95:f0:ad:28:0c:5e:24:1b:7e:7e:d5:4c:18:31:4f:
                    72:3b:31:4f:e1:62:37:8d:7a:d7:a2:20:4b:f9:d3:
                    1b:05:1a:48:43:c2:82:f2:20:ab:99:4a:fb:e4:5b:
                    23:9f:35:07:c9:9f:4c:8c:e6:61:53:c4:be:f2:d1:
                    12:84:79:d5:f1:ec:72:fe:fa:94:c5:cc:b7:8f:d8:
                    d4:93:92:ce:41:1d:00:75:9c:70:e6:b7:0d:01:7f:
                    af:93:6f:e0:9b:74:71:ea:56:52:1f:52:57:5a:5c:
                    1a:7a:ca:ab:31:85:df:50:2f:67:dd:30:60:06:d0:
                    b5:39:1b:b0:ea:45:f3:d6:dc:c8:85:07:82:e3:f7:
                    23:38:b9:40:49:8a:65:23:7e:47:5e:77:7f:ab:db:
                    f3:f7
                Exponent: 65537 (0x10001)
        X509v3 extensions:
            X509v3 Basic Constraints: 
                CA:FALSE
            X509v3 Subject Key Identifier: 
                7A:19:36:E0:7B:A9:A3:95:BA:E7:A4:39:6E:F9:77:0B:A3:E6:16:7A
            X509v3 Authority Key Identifier: 
                keyid:C3:22:B6:B4:00:49:7F:60:D5:BF:C3:18:FF:C4:58:2B:99:7F:EC:33
                DirName:/CN=team423-net
                serial:13:B5:21:2B:38:5E:75:01:34:3B:0D:B4:7B:FB:6B:1E:F6:41:F8:6B

            X509v3 Extended Key Usage: 
                TLS Web Client Authentication
            X509v3 Key Usage: 
                Digital Signature
    Signature Algorithm: sha256WithRSAEncryption
         5c:8f:f4:1a:8c:41:4e:1c:4c:f5:d2:a4:9e:19:76:02:1a:c3:
         a0:68:db:f0:d5:b4:f6:af:ef:03:5a:29:fa:43:af:f3:45:48:
         61:08:eb:34:ab:c0:27:1b:da:8b:52:29:e9:79:4f:ba:00:c9:
         7d:ed:29:b4:23:50:32:69:1b:2d:60:6e:93:5b:6b:19:c9:91:
         40:52:3a:a2:c6:00:fe:43:31:69:3b:cb:1d:2e:ac:48:ba:d7:
         7b:a5:fd:68:e8:03:e0:e8:04:e5:dd:55:76:c4:f8:92:af:18:
         75:32:5d:ca:2b:d1:a5:82:4a:2d:95:9f:fd:cd:54:99:73:19:
         f0:2f:da:9c:16:19:ec:40:50:88:f8:7a:73:a4:84:95:4e:3e:
         9e:30:e1:47:38:6a:41:3b:b8:fd:70:85:71:93:cc:0c:88:bf:
         29:d1:de:04:00:cf:1d:e8:b7:35:6c:17:24:c0:4e:8b:2a:2e:
         bc:6c:7f:cf:ef:25:23:8a:c0:36:67:cf:3c:d7:f4:1a:ec:56:
         b0:51:2d:08:64:ce:13:e1:b7:d6:1b:9d:cf:e3:79:f7:b6:c1:
         ae:3e:17:e6:76:88:f6:a0:05:8a:c7:53:a6:2c:e9:d6:d1:96:
         1e:47:d1:3e:05:b3:e7:1c:85:54:8f:58:03:4d:71:02:0f:85:
         82:f0:3b:60
-----BEGIN CERTIFICATE-----
MIIDXTCCAkWgAwIBAgIRAMOh69WspikGjNzm7eQ3BkkwDQYJKoZIhvcNAQELBQAw
FjEUMBIGA1UEAwwLdGVhbTQyMy1uZXQwHhcNMjIwNTE4MjExMDQyWhcNMjUwNTAy
MjExMDQyWjAZMRcwFQYDVQQDDA50ZWFtNDIzLWNsaWVudDCCASIwDQYJKoZIhvcN
AQEBBQADggEPADCCAQoCggEBAO1Y/hujgYoUfJdtHb0f6LcoKY/Hl+Y5f3dz5akP
9i1iDx9E4bSmkDGR6232ccTiOkNrnoNs6f2/pXJMkQtODYNuqIT6ODpdwKEvFacR
hkn6G61Y3wX5h4/JDn0XZRntL7EHvP0wPHLMlfCtKAxeJBt+ftVMGDFPcjsxT+Fi
N41616IgS/nTGwUaSEPCgvIgq5lK++RbI581B8mfTIzmYVPEvvLREoR51fHscv76
lMXMt4/Y1JOSzkEdAHWccOa3DQF/r5Nv4Jt0cepWUh9SV1pcGnrKqzGF31AvZ90w
YAbQtTkbsOpF89bcyIUHguP3Izi5QEmKZSN+R153f6vb8/cCAwEAAaOBojCBnzAJ
BgNVHRMEAjAAMB0GA1UdDgQWBBR6GTbge6mjlbrnpDlu+XcLo+YWejBRBgNVHSME
SjBIgBTDIra0AEl/YNW/wxj/xFgrmX/sM6EapBgwFjEUMBIGA1UEAwwLdGVhbTQy
My1uZXSCFBO1ISs4XnUBNDsNtHv7ax72QfhrMBMGA1UdJQQMMAoGCCsGAQUFBwMC
MAsGA1UdDwQEAwIHgDANBgkqhkiG9w0BAQsFAAOCAQEAXI/0GoxBThxM9dKknhl2
AhrDoGjb8NW09q/vA1op+kOv80VIYQjrNKvAJxvai1Ip6XlPugDJfe0ptCNQMmkb
LWBuk1trGcmRQFI6osYA/kMxaTvLHS6sSLrXe6X9aOgD4OgE5d1VdsT4kq8YdTJd
yivRpYJKLZWf/c1UmXMZ8C/anBYZ7EBQiPh6c6SElU4+njDhRzhqQTu4/XCFcZPM
DIi/KdHeBADPHei3NWwXJMBOiyouvGx/z+8lI4rANmfPPNf0GuxWsFEtCGTOE+G3
1hudz+N597bBrj4X5naI9qAFisdTpizp1tGWHkfRPgWz5xyFVI9YA01xAg+FgvA7
YA==
-----END CERTIFICATE-----
