Certificate:
    Data:
        Version: 3 (0x2)
        Serial Number:
            64:b2:58:f9:38:8c:9c:60:b4:31:de:0a:ef:88:10:31
        Signature Algorithm: sha256WithRSAEncryption
        Issuer: CN=team731-net
        Validity
            Not Before: May 18 23:51:33 2022 GMT
            Not After : May  2 23:51:33 2025 GMT
        Subject: CN=team731-client
        Subject Public Key Info:
            Public Key Algorithm: rsaEncryption
                RSA Public-Key: (2048 bit)
                Modulus:
                    00:d4:d3:00:c5:96:cb:86:98:77:72:35:6d:62:c5:
                    7c:70:80:e3:92:8f:50:05:0f:26:25:f6:44:d9:32:
                    cb:14:21:a9:24:e3:77:f2:20:e7:6e:ec:61:57:4f:
                    d7:05:d9:23:78:1a:09:dc:bc:c3:a1:84:c2:3b:e9:
                    60:68:0b:39:ba:6e:b2:46:38:79:2c:fd:6b:db:e4:
                    20:a7:c9:a7:e9:74:ab:e9:17:15:1f:b2:83:90:95:
                    8b:80:02:6e:b5:07:f0:fe:0a:4f:43:2e:6f:34:b6:
                    f2:30:ae:a6:23:2c:c2:02:4c:65:ab:d3:24:3d:9e:
                    54:7f:5b:2b:db:01:0e:f0:c7:a0:af:be:57:73:38:
                    bd:20:50:3f:14:20:ff:fd:35:fd:92:ca:3a:62:58:
                    6e:a3:f2:7a:0a:19:ba:b7:0e:c7:58:c6:d3:b8:35:
                    8a:37:ab:c3:36:cf:fe:f3:5b:13:c6:bd:2b:72:be:
                    17:13:12:a4:ff:d4:65:24:40:cb:23:ee:e6:01:85:
                    4d:5e:70:fc:5c:ed:80:fe:6f:6d:21:23:4c:f8:cb:
                    63:0a:07:c8:ba:b3:77:99:b6:fc:71:c4:c2:46:68:
                    8c:3a:c4:f9:c7:c5:ce:42:ac:a2:9c:0c:99:0f:02:
                    f6:0b:e8:fd:e4:15:34:e6:fb:31:b4:8b:7c:eb:1c:
                    3c:8d
                Exponent: 65537 (0x10001)
        X509v3 extensions:
            X509v3 Basic Constraints: 
                CA:FALSE
            X509v3 Subject Key Identifier: 
                0F:8F:D4:8E:73:8B:E3:4F:B8:46:E6:B1:4A:47:39:25:3D:8B:F7:72
            X509v3 Authority Key Identifier: 
                keyid:FC:85:39:F2:81:62:4B:94:F1:D0:BB:83:09:15:E7:33:9F:1E:C9:3E
                DirName:/CN=team731-net
                serial:4F:FA:22:1C:43:1A:7E:F2:2E:B3:EB:1A:60:72:71:AA:D2:7C:F5:58

            X509v3 Extended Key Usage: 
                TLS Web Client Authentication
            X509v3 Key Usage: 
                Digital Signature
    Signature Algorithm: sha256WithRSAEncryption
         10:16:0a:7d:cd:91:ea:e7:9f:8e:5b:c8:ef:9f:51:f4:b6:9f:
         b5:50:22:a6:66:8b:be:89:aa:59:90:75:f4:01:c4:77:c9:e8:
         1d:2d:d5:ea:5a:18:54:ae:37:bf:42:86:2f:6c:92:90:ac:32:
         46:a8:ad:88:24:5d:c7:6d:e2:47:f0:8e:f0:14:14:eb:c9:de:
         a3:86:68:e7:ce:ac:5b:3d:a2:6a:28:de:ee:f4:9d:b6:03:37:
         ae:3c:ed:f7:d9:76:3b:ca:25:97:ec:0f:e8:7e:28:a1:ec:a6:
         37:eb:1c:8b:f7:54:b3:ad:8e:24:51:8d:21:e0:ef:df:22:d7:
         27:d6:01:ba:4a:da:8b:bd:57:f6:30:eb:69:f6:ee:da:0c:f0:
         20:c3:5d:84:5e:ca:fa:91:e7:7a:17:12:a2:db:9b:f3:fe:70:
         fc:54:99:d1:70:af:fb:1b:1d:b4:9e:1e:04:62:dd:3d:f8:4a:
         70:d4:f0:f0:23:4d:53:9e:53:1e:cf:59:c2:dd:bf:aa:8c:68:
         a4:df:4b:4a:92:65:2d:37:ef:72:d8:8d:fc:1c:2b:3b:04:50:
         3e:a3:45:49:ca:be:59:e3:1d:07:6d:14:44:92:fd:31:37:cb:
         09:c1:c6:be:67:e4:36:d5:57:76:67:db:c0:c2:64:3c:01:6a:
         3b:28:40:4a
-----BEGIN CERTIFICATE-----
MIIDXDCCAkSgAwIBAgIQZLJY+TiMnGC0Md4K74gQMTANBgkqhkiG9w0BAQsFADAW
MRQwEgYDVQQDDAt0ZWFtNzMxLW5ldDAeFw0yMjA1MTgyMzUxMzNaFw0yNTA1MDIy
MzUxMzNaMBkxFzAVBgNVBAMMDnRlYW03MzEtY2xpZW50MIIBIjANBgkqhkiG9w0B
AQEFAAOCAQ8AMIIBCgKCAQEA1NMAxZbLhph3cjVtYsV8cIDjko9QBQ8mJfZE2TLL
FCGpJON38iDnbuxhV0/XBdkjeBoJ3LzDoYTCO+lgaAs5um6yRjh5LP1r2+Qgp8mn
6XSr6RcVH7KDkJWLgAJutQfw/gpPQy5vNLbyMK6mIyzCAkxlq9MkPZ5Uf1sr2wEO
8Megr75Xczi9IFA/FCD//TX9kso6Ylhuo/J6Chm6tw7HWMbTuDWKN6vDNs/+81sT
xr0rcr4XExKk/9RlJEDLI+7mAYVNXnD8XO2A/m9tISNM+MtjCgfIurN3mbb8ccTC
RmiMOsT5x8XOQqyinAyZDwL2C+j95BU05vsxtIt86xw8jQIDAQABo4GiMIGfMAkG
A1UdEwQCMAAwHQYDVR0OBBYEFA+P1I5zi+NPuEbmsUpHOSU9i/dyMFEGA1UdIwRK
MEiAFPyFOfKBYkuU8dC7gwkV5zOfHsk+oRqkGDAWMRQwEgYDVQQDDAt0ZWFtNzMx
LW5ldIIUT/oiHEMafvIus+saYHJxqtJ89VgwEwYDVR0lBAwwCgYIKwYBBQUHAwIw
CwYDVR0PBAQDAgeAMA0GCSqGSIb3DQEBCwUAA4IBAQAQFgp9zZHq55+OW8jvn1H0
tp+1UCKmZou+iapZkHX0AcR3yegdLdXqWhhUrje/QoYvbJKQrDJGqK2IJF3HbeJH
8I7wFBTryd6jhmjnzqxbPaJqKN7u9J22AzeuPO332XY7yiWX7A/ofiih7KY36xyL
91SzrY4kUY0h4O/fItcn1gG6StqLvVf2MOtp9u7aDPAgw12EXsr6ked6FxKi25vz
/nD8VJnRcK/7Gx20nh4EYt09+Epw1PDwI01TnlMez1nC3b+qjGik30tKkmUtN+9y
2I38HCs7BFA+o0VJyr5Z4x0HbRREkv0xN8sJwca+Z+Q21Vd2Z9vAwmQ8AWo7KEBK
-----END CERTIFICATE-----
