Certificate:
    Data:
        Version: 3 (0x2)
        Serial Number:
            54:a9:2a:53:62:74:e4:90:43:fd:ab:0d:f8:fd:ad:b7
        Signature Algorithm: sha256WithRSAEncryption
        Issuer: CN=team515-net
        Validity
            Not Before: May 18 21:53:50 2022 GMT
            Not After : May  2 21:53:50 2025 GMT
        Subject: CN=team515-server
        Subject Public Key Info:
            Public Key Algorithm: rsaEncryption
                RSA Public-Key: (2048 bit)
                Modulus:
                    00:e7:59:ec:b6:12:da:cc:3b:16:7e:86:ce:f9:c9:
                    73:8b:75:e8:57:b1:e6:7a:60:7e:1e:c9:51:51:25:
                    9d:38:e7:0d:6f:d7:04:d3:72:a4:76:01:3c:a0:7e:
                    50:12:9f:17:51:fd:3d:83:7d:1d:27:dc:e3:15:df:
                    0d:8e:2f:ea:0a:ff:3f:64:b2:51:ea:dc:8b:88:90:
                    56:0d:5e:fa:ba:3f:a4:82:21:b3:f8:ea:14:95:e9:
                    ce:49:aa:a0:f2:f8:65:93:78:04:4b:b7:26:21:f7:
                    cc:7c:8d:5f:b2:15:ad:d5:a1:7c:5d:ec:fe:91:8a:
                    ad:41:7d:35:2f:d7:7e:22:05:cd:56:36:c9:0e:e2:
                    8a:12:a7:1d:fb:07:69:1e:a9:60:60:b6:da:0d:a1:
                    e3:51:50:8f:5d:ba:20:3c:93:ab:af:3d:d3:f1:0e:
                    ce:e0:18:22:30:91:66:1b:5a:63:ca:fa:75:d2:d5:
                    91:b1:c9:62:e9:b4:34:a3:be:68:2a:40:67:0f:34:
                    e4:27:02:3c:1a:a0:80:4a:74:50:85:f2:6c:da:3d:
                    6f:04:ff:3e:f9:1c:92:7e:54:05:56:46:ac:fb:0e:
                    e3:23:d8:b0:65:9c:a3:e3:a2:35:75:6e:97:bf:fe:
                    cd:e8:88:4e:a6:41:0d:3f:55:aa:26:eb:bd:7b:2c:
                    de:f3
                Exponent: 65537 (0x10001)
        X509v3 extensions:
            X509v3 Basic Constraints: 
                CA:FALSE
            X509v3 Subject Key Identifier: 
                FD:22:A3:E6:63:6C:A0:6F:DF:7F:8E:BB:C7:A2:49:46:95:86:25:6F
            X509v3 Authority Key Identifier: 
                keyid:FE:41:C5:1E:F6:9A:73:A4:1C:51:56:E8:FA:9C:02:90:33:E9:CF:0A
                DirName:/CN=team515-net
                serial:4A:D1:96:D3:19:01:42:08:04:CB:34:E7:0D:B3:E3:67:28:9B:F5:51

            X509v3 Extended Key Usage: 
                TLS Web Server Authentication
            X509v3 Key Usage: 
                Digital Signature, Key Encipherment
            X509v3 Subject Alternative Name: 
                DNS:team515-server
    Signature Algorithm: sha256WithRSAEncryption
         79:e1:99:ea:21:e9:c3:c8:3e:85:2a:24:8d:ee:fb:a6:88:d7:
         c9:80:86:f2:69:78:64:32:74:8f:ff:a3:97:ae:8d:ef:0d:58:
         b9:27:e3:d3:72:e2:ba:cb:17:cc:8d:cb:bc:e0:f0:07:b4:bd:
         40:08:ea:82:eb:10:d1:b7:ce:d9:ee:3d:79:e1:35:ca:c3:94:
         ba:60:0f:6f:22:52:b3:84:d9:62:02:f3:b4:32:dd:2f:7c:29:
         17:59:a8:21:c1:d3:f1:59:c1:28:9d:f1:8c:bb:c0:96:52:0e:
         e0:0c:73:59:e9:8d:5e:21:4e:40:50:30:26:6e:68:97:19:47:
         7b:60:62:16:c3:03:a0:9c:fe:31:d0:ef:e1:e7:54:f4:31:42:
         a9:79:71:70:ee:4c:5c:06:1e:70:6a:09:48:41:ae:94:1a:87:
         8d:a1:2f:55:c8:58:99:d9:c7:b4:c2:8b:bf:76:58:88:24:48:
         83:ef:13:2c:ad:c1:b1:f9:f0:26:57:35:db:2f:d0:ad:02:63:
         6f:d4:f7:f9:be:fe:19:ed:06:e4:fd:f1:af:f5:a0:36:8d:2f:
         ed:a1:6b:0b:45:24:d1:f0:0f:63:17:8f:88:46:9d:e4:b2:6e:
         39:60:7f:d6:06:c5:4d:9b:6b:fa:98:82:d4:51:c6:dc:73:6e:
         d2:04:bf:9f
-----BEGIN CERTIFICATE-----
MIIDdzCCAl+gAwIBAgIQVKkqU2J05JBD/asN+P2ttzANBgkqhkiG9w0BAQsFADAW
MRQwEgYDVQQDDAt0ZWFtNTE1LW5ldDAeFw0yMjA1MTgyMTUzNTBaFw0yNTA1MDIy
MTUzNTBaMBkxFzAVBgNVBAMMDnRlYW01MTUtc2VydmVyMIIBIjANBgkqhkiG9w0B
AQEFAAOCAQ8AMIIBCgKCAQEA51nsthLazDsWfobO+clzi3XoV7HmemB+HslRUSWd
OOcNb9cE03KkdgE8oH5QEp8XUf09g30dJ9zjFd8Nji/qCv8/ZLJR6tyLiJBWDV76
uj+kgiGz+OoUlenOSaqg8vhlk3gES7cmIffMfI1fshWt1aF8Xez+kYqtQX01L9d+
IgXNVjbJDuKKEqcd+wdpHqlgYLbaDaHjUVCPXbogPJOrrz3T8Q7O4BgiMJFmG1pj
yvp10tWRscli6bQ0o75oKkBnDzTkJwI8GqCASnRQhfJs2j1vBP8++RySflQFVkas
+w7jI9iwZZyj46I1dW6Xv/7N6IhOpkENP1WqJuu9eyze8wIDAQABo4G9MIG6MAkG
A1UdEwQCMAAwHQYDVR0OBBYEFP0io+ZjbKBv33+Ou8eiSUaVhiVvMFEGA1UdIwRK
MEiAFP5BxR72mnOkHFFW6PqcApAz6c8KoRqkGDAWMRQwEgYDVQQDDAt0ZWFtNTE1
LW5ldIIUStGW0xkBQggEyzTnDbPjZyib9VEwEwYDVR0lBAwwCgYIKwYBBQUHAwEw
CwYDVR0PBAQDAgWgMBkGA1UdEQQSMBCCDnRlYW01MTUtc2VydmVyMA0GCSqGSIb3
DQEBCwUAA4IBAQB54ZnqIenDyD6FKiSN7vumiNfJgIbyaXhkMnSP/6OXro3vDVi5
J+PTcuK6yxfMjcu84PAHtL1ACOqC6xDRt87Z7j154TXKw5S6YA9vIlKzhNliAvO0
Mt0vfCkXWaghwdPxWcEonfGMu8CWUg7gDHNZ6Y1eIU5AUDAmbmiXGUd7YGIWwwOg
nP4x0O/h51T0MUKpeXFw7kxcBh5waglIQa6UGoeNoS9VyFiZ2ce0wou/dliIJEiD
7xMsrcGx+fAmVzXbL9CtAmNv1Pf5vv4Z7Qbk/fGv9aA2jS/toWsLRSTR8A9jF4+I
Rp3ksm45YH/WBsVNm2v6mILUUcbcc27SBL+f
-----END CERTIFICATE-----
