Certificate:
    Data:
        Version: 3 (0x2)
        Serial Number:
            29:b2:69:ea:50:ef:bc:5f:94:f2:12:18:7d:3d:b4:d9
        Signature Algorithm: sha256WithRSAEncryption
        Issuer: CN=team687-net
        Validity
            Not Before: May 18 23:39:49 2022 GMT
            Not After : May  2 23:39:49 2025 GMT
        Subject: CN=team687-server
        Subject Public Key Info:
            Public Key Algorithm: rsaEncryption
                RSA Public-Key: (2048 bit)
                Modulus:
                    00:b5:58:3d:b2:df:d2:47:cf:0e:e8:05:51:69:da:
                    ca:dd:60:3c:b7:cd:b9:25:6e:14:6d:df:24:7d:10:
                    09:99:d7:c7:72:c6:96:90:a0:db:12:14:de:37:33:
                    f1:d3:53:cc:b1:2f:fd:33:ae:56:b7:26:1a:df:93:
                    14:9b:13:89:4a:3e:98:16:62:13:77:cc:39:c2:68:
                    4a:c7:d8:2a:7c:5a:94:f4:6c:0e:d2:c8:9a:1b:70:
                    10:80:b1:af:94:74:c4:b2:c4:98:41:b7:45:c1:cb:
                    9c:09:b8:c9:77:fc:c1:1c:70:cb:2d:b0:eb:82:36:
                    0d:a8:14:d2:cf:4d:b1:b1:48:3b:ba:bd:e5:df:02:
                    78:30:ea:b0:3d:9a:75:92:3c:8b:d5:72:1e:d4:f7:
                    06:f7:d9:91:17:e4:28:7a:b2:b2:00:2f:07:3c:4a:
                    e0:d4:1e:27:39:5a:5c:8f:3a:b2:c7:b9:9c:f3:5f:
                    c8:e2:bf:0a:44:d5:5f:95:54:f9:1a:fb:37:17:0b:
                    8e:9c:60:23:a3:58:5f:8e:17:19:d4:fc:c1:83:c3:
                    5e:ea:97:23:ee:ca:6c:f1:9a:b3:1d:9e:da:d5:7c:
                    88:82:eb:aa:ef:fe:fe:7b:88:5c:b6:3a:8f:2a:40:
                    cb:15:b5:71:62:bf:93:58:94:46:03:90:8d:ac:b0:
                    02:b3
                Exponent: 65537 (0x10001)
        X509v3 extensions:
            X509v3 Basic Constraints: 
                CA:FALSE
            X509v3 Subject Key Identifier: 
                30:67:3D:92:1D:AF:87:BA:84:F8:09:79:74:A7:16:86:66:B0:1A:D3
            X509v3 Authority Key Identifier: 
                keyid:52:DD:C5:1A:95:66:DE:42:DF:EA:A0:2B:6B:57:36:B7:72:33:3F:28
                DirName:/CN=team687-net
                serial:6E:83:84:50:6B:BC:E3:0D:B8:E3:6E:A6:24:A3:4D:84:AB:0E:2E:B9

            X509v3 Extended Key Usage: 
                TLS Web Server Authentication
            X509v3 Key Usage: 
                Digital Signature, Key Encipherment
            X509v3 Subject Alternative Name: 
                DNS:team687-server
    Signature Algorithm: sha256WithRSAEncryption
         49:b2:93:db:c7:30:ab:83:4b:8c:16:41:d5:b5:63:2f:7a:0c:
         29:64:15:da:b9:72:47:27:3e:50:66:55:6e:db:70:0a:5b:42:
         c5:19:59:bc:4a:7b:86:0b:e5:52:34:95:26:7b:a3:b1:35:3c:
         de:c0:45:76:5b:2c:f1:8c:bf:3f:68:0e:66:51:7d:61:e7:13:
         40:04:b2:b4:9e:0d:ad:11:67:50:56:42:54:db:aa:00:82:fc:
         c5:f5:88:5c:31:c9:fc:d7:12:e5:18:fe:c7:29:b3:b6:ec:a3:
         3e:8a:26:db:97:a0:c5:16:6c:5e:50:2b:6b:5a:1b:af:30:be:
         1d:cf:ae:6f:fc:e5:b4:8f:05:91:93:ee:78:4c:5a:10:bf:cd:
         67:5d:0f:63:3a:fb:c3:25:65:76:ef:ff:ad:e2:c9:52:1a:b6:
         8d:a9:a7:11:75:b8:5d:97:34:7d:c6:c2:84:2c:7e:33:3e:af:
         c4:a1:56:c3:f5:48:8d:7c:25:63:a2:c3:32:00:7a:63:e3:3d:
         4a:71:9c:f5:3e:af:6d:a9:c0:5a:7b:1a:8f:e9:b0:9e:75:0c:
         67:5a:63:6c:80:d2:5f:63:50:16:87:d1:48:b9:ee:7f:3f:bc:
         9e:50:45:da:cd:9c:5d:06:21:f8:19:d8:ac:e0:a7:ab:d7:fc:
         45:c5:b4:e7
-----BEGIN CERTIFICATE-----
MIIDdzCCAl+gAwIBAgIQKbJp6lDvvF+U8hIYfT202TANBgkqhkiG9w0BAQsFADAW
MRQwEgYDVQQDDAt0ZWFtNjg3LW5ldDAeFw0yMjA1MTgyMzM5NDlaFw0yNTA1MDIy
MzM5NDlaMBkxFzAVBgNVBAMMDnRlYW02ODctc2VydmVyMIIBIjANBgkqhkiG9w0B
AQEFAAOCAQ8AMIIBCgKCAQEAtVg9st/SR88O6AVRadrK3WA8t825JW4Ubd8kfRAJ
mdfHcsaWkKDbEhTeNzPx01PMsS/9M65WtyYa35MUmxOJSj6YFmITd8w5wmhKx9gq
fFqU9GwO0siaG3AQgLGvlHTEssSYQbdFwcucCbjJd/zBHHDLLbDrgjYNqBTSz02x
sUg7ur3l3wJ4MOqwPZp1kjyL1XIe1PcG99mRF+QoerKyAC8HPErg1B4nOVpcjzqy
x7mc81/I4r8KRNVflVT5Gvs3FwuOnGAjo1hfjhcZ1PzBg8Ne6pcj7sps8ZqzHZ7a
1XyIguuq7/7+e4hctjqPKkDLFbVxYr+TWJRGA5CNrLACswIDAQABo4G9MIG6MAkG
A1UdEwQCMAAwHQYDVR0OBBYEFDBnPZIdr4e6hPgJeXSnFoZmsBrTMFEGA1UdIwRK
MEiAFFLdxRqVZt5C3+qgK2tXNrdyMz8ooRqkGDAWMRQwEgYDVQQDDAt0ZWFtNjg3
LW5ldIIUboOEUGu84w24426mJKNNhKsOLrkwEwYDVR0lBAwwCgYIKwYBBQUHAwEw
CwYDVR0PBAQDAgWgMBkGA1UdEQQSMBCCDnRlYW02ODctc2VydmVyMA0GCSqGSIb3
DQEBCwUAA4IBAQBJspPbxzCrg0uMFkHVtWMvegwpZBXauXJHJz5QZlVu23AKW0LF
GVm8SnuGC+VSNJUme6OxNTzewEV2WyzxjL8/aA5mUX1h5xNABLK0ng2tEWdQVkJU
26oAgvzF9YhcMcn81xLlGP7HKbO27KM+iibbl6DFFmxeUCtrWhuvML4dz65v/OW0
jwWRk+54TFoQv81nXQ9jOvvDJWV27/+t4slSGraNqacRdbhdlzR9xsKELH4zPq/E
oVbD9UiNfCVjosMyAHpj4z1KcZz1Pq9tqcBaexqP6bCedQxnWmNsgNJfY1AWh9FI
ue5/P7yeUEXazZxdBiH4Gdis4Ker1/xFxbTn
-----END CERTIFICATE-----
