Certificate:
    Data:
        Version: 3 (0x2)
        Serial Number:
            cb:9b:3c:84:52:75:d4:b4:8c:d3:e1:f6:d2:ff:7f:e2
        Signature Algorithm: sha256WithRSAEncryption
        Issuer: CN=team687-net
        Validity
            Not Before: May 18 23:39:49 2022 GMT
            Not After : May  2 23:39:49 2025 GMT
        Subject: CN=team687-client
        Subject Public Key Info:
            Public Key Algorithm: rsaEncryption
                RSA Public-Key: (2048 bit)
                Modulus:
                    00:a4:41:6f:71:cd:93:ec:1d:28:08:8c:47:00:35:
                    99:c7:1d:f4:8e:28:39:8b:39:68:63:13:4c:9b:9b:
                    1c:3a:5b:59:d7:04:75:60:9a:ac:05:9a:40:b0:af:
                    d5:fc:f3:98:e5:5f:23:d4:a1:68:b1:db:28:eb:6e:
                    02:cd:85:f1:46:85:72:2c:13:c8:fc:cf:17:d1:cf:
                    47:d4:ec:15:38:e0:b9:a8:7e:40:b9:bd:ad:ac:14:
                    9f:ba:f5:17:55:4b:0d:7a:55:f4:3a:a2:77:83:7f:
                    a1:c3:6c:25:f3:a7:39:27:38:44:08:88:c6:e3:0b:
                    5b:ee:62:cb:4e:cb:1e:7c:c5:be:21:7a:c8:bb:4b:
                    cb:a7:3c:a1:9e:d2:54:46:83:b8:da:bc:db:3f:71:
                    b3:04:ca:37:2d:92:65:8e:3a:10:bc:81:3c:b9:be:
                    a3:e2:52:7d:db:2d:eb:26:6c:35:41:f0:59:0c:03:
                    44:b9:55:fb:4e:d2:e5:ee:8b:33:54:aa:d1:ce:51:
                    f3:c6:56:a6:04:97:79:cb:1a:94:41:6f:1a:48:a6:
                    8d:82:57:4a:d8:9a:df:36:b7:85:62:5e:9b:0b:f1:
                    9c:28:f5:dc:2a:0c:c0:52:e9:14:29:64:79:3d:61:
                    8f:0c:2c:31:c1:7e:27:2e:8b:20:d9:59:84:4f:a9:
                    d4:ad
                Exponent: 65537 (0x10001)
        X509v3 extensions:
            X509v3 Basic Constraints: 
                CA:FALSE
            X509v3 Subject Key Identifier: 
                B6:11:F8:45:39:BE:24:01:78:75:D9:3F:4C:78:65:DE:51:0B:6E:48
            X509v3 Authority Key Identifier: 
                keyid:52:DD:C5:1A:95:66:DE:42:DF:EA:A0:2B:6B:57:36:B7:72:33:3F:28
                DirName:/CN=team687-net
                serial:6E:83:84:50:6B:BC:E3:0D:B8:E3:6E:A6:24:A3:4D:84:AB:0E:2E:B9

            X509v3 Extended Key Usage: 
                TLS Web Client Authentication
            X509v3 Key Usage: 
                Digital Signature
    Signature Algorithm: sha256WithRSAEncryption
         a7:97:ac:96:aa:e0:a9:6a:c7:a9:eb:ac:5e:01:54:49:52:94:
         ff:1b:03:3e:c1:73:fe:56:50:30:6e:d8:0e:1f:aa:94:d4:c9:
         2e:f3:81:3d:bd:56:df:71:2b:7b:4d:6a:7d:7a:1c:3e:27:89:
         4f:0d:71:2d:f8:ad:06:b6:e9:5a:1e:48:94:ab:d7:68:fc:36:
         d1:a2:f6:17:5b:64:4e:84:75:59:28:38:a8:42:3e:fe:75:e6:
         93:97:68:c6:32:cf:f7:8b:46:7c:17:82:b2:7a:a8:0f:68:b4:
         d8:3f:4e:32:ad:82:ab:7c:d4:25:f4:d0:f1:d4:08:53:5b:0f:
         f8:d6:e4:77:46:9e:54:0d:35:c1:13:a0:71:26:62:d0:d7:4e:
         c8:b1:6f:d0:91:3e:7b:e4:1d:4a:0d:9f:5b:a3:9d:13:5b:08:
         03:6b:46:bb:fa:c4:1e:80:e5:39:49:69:a8:d6:8a:52:c5:44:
         52:b9:b7:14:e2:55:02:80:27:a1:df:d7:db:7f:bb:03:fe:20:
         99:b2:1c:72:49:54:53:55:bf:dd:aa:52:44:b6:58:e8:9a:38:
         29:ca:0b:76:d2:b6:9b:d0:32:3b:f0:69:61:dc:f9:4c:04:3c:
         f9:9c:f9:d9:75:5b:ea:03:19:68:e6:a8:0e:6f:9a:9b:c4:fa:
         12:c4:20:6a
-----BEGIN CERTIFICATE-----
MIIDXTCCAkWgAwIBAgIRAMubPIRSddS0jNPh9tL/f+IwDQYJKoZIhvcNAQELBQAw
FjEUMBIGA1UEAwwLdGVhbTY4Ny1uZXQwHhcNMjIwNTE4MjMzOTQ5WhcNMjUwNTAy
MjMzOTQ5WjAZMRcwFQYDVQQDDA50ZWFtNjg3LWNsaWVudDCCASIwDQYJKoZIhvcN
AQEBBQADggEPADCCAQoCggEBAKRBb3HNk+wdKAiMRwA1mccd9I4oOYs5aGMTTJub
HDpbWdcEdWCarAWaQLCv1fzzmOVfI9ShaLHbKOtuAs2F8UaFciwTyPzPF9HPR9Ts
FTjguah+QLm9rawUn7r1F1VLDXpV9Dqid4N/ocNsJfOnOSc4RAiIxuMLW+5iy07L
HnzFviF6yLtLy6c8oZ7SVEaDuNq82z9xswTKNy2SZY46ELyBPLm+o+JSfdst6yZs
NUHwWQwDRLlV+07S5e6LM1Sq0c5R88ZWpgSXecsalEFvGkimjYJXStia3za3hWJe
mwvxnCj13CoMwFLpFClkeT1hjwwsMcF+Jy6LINlZhE+p1K0CAwEAAaOBojCBnzAJ
BgNVHRMEAjAAMB0GA1UdDgQWBBS2EfhFOb4kAXh12T9MeGXeUQtuSDBRBgNVHSME
SjBIgBRS3cUalWbeQt/qoCtrVza3cjM/KKEapBgwFjEUMBIGA1UEAwwLdGVhbTY4
Ny1uZXSCFG6DhFBrvOMNuONupiSjTYSrDi65MBMGA1UdJQQMMAoGCCsGAQUFBwMC
MAsGA1UdDwQEAwIHgDANBgkqhkiG9w0BAQsFAAOCAQEAp5eslqrgqWrHqeusXgFU
SVKU/xsDPsFz/lZQMG7YDh+qlNTJLvOBPb1W33Ere01qfXocPieJTw1xLfitBrbp
Wh5IlKvXaPw20aL2F1tkToR1WSg4qEI+/nXmk5doxjLP94tGfBeCsnqoD2i02D9O
Mq2Cq3zUJfTQ8dQIU1sP+Nbkd0aeVA01wROgcSZi0NdOyLFv0JE+e+QdSg2fW6Od
E1sIA2tGu/rEHoDlOUlpqNaKUsVEUrm3FOJVAoAnod/X23+7A/4gmbIccklUU1W/
3apSRLZY6Jo4KcoLdtK2m9AyO/BpYdz5TAQ8+Zz52XVb6gMZaOaoDm+am8T6EsQg
ag==
-----END CERTIFICATE-----
