Certificate:
    Data:
        Version: 3 (0x2)
        Serial Number:
            11:8d:4c:ce:e5:63:9c:ac:89:a6:fe:60:80:fb:0f:9a
        Signature Algorithm: sha256WithRSAEncryption
        Issuer: CN=team735-net
        Validity
            Not Before: May 19 00:06:04 2022 GMT
            Not After : May  3 00:06:04 2025 GMT
        Subject: CN=team735-client
        Subject Public Key Info:
            Public Key Algorithm: rsaEncryption
                RSA Public-Key: (2048 bit)
                Modulus:
                    00:9d:52:77:2d:39:05:8e:25:fd:ef:02:21:d0:41:
                    e8:b4:8a:56:f7:be:9b:31:da:51:d9:29:9b:33:e8:
                    fd:02:60:b0:93:3d:a4:1a:c8:49:2c:30:0f:ec:e7:
                    cc:7e:ca:ab:ba:2f:7e:d4:63:09:2f:d4:3d:c4:a9:
                    f1:f0:ba:2a:f8:89:ce:98:1e:1e:59:54:54:73:85:
                    0b:7b:a4:36:b6:31:8a:50:20:ca:38:27:29:48:72:
                    f1:0a:a6:29:f9:49:0b:dc:4c:66:77:d8:02:34:21:
                    cf:a3:7c:9d:d6:fe:30:13:88:43:f1:a1:c5:85:3e:
                    9e:9a:9f:bb:5c:54:e1:2a:76:02:59:05:98:eb:51:
                    81:07:9b:b4:3f:9e:34:08:38:69:00:6c:a4:73:4e:
                    89:24:8c:2f:55:b9:8b:21:08:0b:5d:db:5a:4f:c8:
                    2a:96:ea:66:77:d3:4c:24:d8:55:69:30:67:13:8a:
                    9a:ec:d9:a9:c3:9e:1b:0b:da:b5:a5:8e:db:25:7d:
                    12:97:7c:e3:89:68:ee:d6:25:1d:5a:45:12:62:c8:
                    83:8e:d7:b5:5e:94:a8:7e:48:e2:74:62:4a:25:cf:
                    8e:a5:91:e9:96:ce:b9:6d:3a:87:98:97:d4:9e:9a:
                    52:4a:34:be:cd:f8:0c:62:e2:89:fd:ec:c7:48:1c:
                    ba:87
                Exponent: 65537 (0x10001)
        X509v3 extensions:
            X509v3 Basic Constraints: 
                CA:FALSE
            X509v3 Subject Key Identifier: 
                9A:0C:3D:D7:90:63:8C:64:D2:54:DF:04:19:CE:E8:57:3B:65:45:8D
            X509v3 Authority Key Identifier: 
                keyid:8F:1F:80:89:9C:7F:06:7C:2B:9B:2E:8B:B2:BC:6F:8A:4B:00:0F:54
                DirName:/CN=team735-net
                serial:1A:AB:07:A5:C3:97:72:22:17:96:AE:92:5D:07:1A:2E:08:25:A7:D8

            X509v3 Extended Key Usage: 
                TLS Web Client Authentication
            X509v3 Key Usage: 
                Digital Signature
    Signature Algorithm: sha256WithRSAEncryption
         9e:79:35:7e:6a:7a:ef:08:11:09:d4:c7:13:d2:fb:d2:60:2a:
         17:9e:9a:db:3c:d5:65:a7:45:ed:fb:16:3f:b7:e2:e8:0c:74:
         01:c5:bf:a1:fd:ac:1a:04:50:6c:f1:75:26:a8:2f:41:e5:1a:
         55:82:e2:7b:6f:6b:b6:3a:0c:6a:57:31:d9:4e:97:91:07:fd:
         8b:27:cb:bc:d9:aa:8f:d3:61:90:cd:a1:a2:07:c3:fd:fa:90:
         8c:60:5c:df:dc:66:db:74:89:6e:ab:3e:a1:6f:7b:c8:03:31:
         52:a2:03:59:26:68:2b:10:99:a1:2c:15:e4:02:99:89:2b:27:
         9c:5f:fc:23:1c:41:2c:88:32:91:b3:36:0e:75:c3:6a:6c:e6:
         23:3e:0b:cb:9b:30:c6:ae:ac:d6:8d:a0:16:8e:8c:af:6e:28:
         8e:22:8e:46:ca:d2:85:c8:75:bc:77:cc:1e:a4:ee:9e:94:db:
         af:17:f9:55:35:2b:9d:41:d0:50:80:e4:19:82:6d:6c:42:1f:
         4f:aa:c2:22:20:6b:36:47:eb:fe:db:f9:d0:50:01:0f:3b:8f:
         bb:77:18:23:15:55:d9:40:79:22:7b:d0:43:49:1d:43:12:a4:
         cd:fc:8b:07:3d:b3:c6:4f:fd:35:f2:bc:78:4b:1e:13:73:5c:
         c8:7e:a6:1e
-----BEGIN CERTIFICATE-----
MIIDXDCCAkSgAwIBAgIQEY1MzuVjnKyJpv5ggPsPmjANBgkqhkiG9w0BAQsFADAW
MRQwEgYDVQQDDAt0ZWFtNzM1LW5ldDAeFw0yMjA1MTkwMDA2MDRaFw0yNTA1MDMw
MDA2MDRaMBkxFzAVBgNVBAMMDnRlYW03MzUtY2xpZW50MIIBIjANBgkqhkiG9w0B
AQEFAAOCAQ8AMIIBCgKCAQEAnVJ3LTkFjiX97wIh0EHotIpW976bMdpR2SmbM+j9
AmCwkz2kGshJLDAP7OfMfsqrui9+1GMJL9Q9xKnx8Loq+InOmB4eWVRUc4ULe6Q2
tjGKUCDKOCcpSHLxCqYp+UkL3Exmd9gCNCHPo3yd1v4wE4hD8aHFhT6emp+7XFTh
KnYCWQWY61GBB5u0P540CDhpAGykc06JJIwvVbmLIQgLXdtaT8gqlupmd9NMJNhV
aTBnE4qa7Nmpw54bC9q1pY7bJX0Sl3zjiWju1iUdWkUSYsiDjte1XpSofkjidGJK
Jc+OpZHpls65bTqHmJfUnppSSjS+zfgMYuKJ/ezHSBy6hwIDAQABo4GiMIGfMAkG
A1UdEwQCMAAwHQYDVR0OBBYEFJoMPdeQY4xk0lTfBBnO6Fc7ZUWNMFEGA1UdIwRK
MEiAFI8fgImcfwZ8K5sui7K8b4pLAA9UoRqkGDAWMRQwEgYDVQQDDAt0ZWFtNzM1
LW5ldIIUGqsHpcOXciIXlq6SXQcaLgglp9gwEwYDVR0lBAwwCgYIKwYBBQUHAwIw
CwYDVR0PBAQDAgeAMA0GCSqGSIb3DQEBCwUAA4IBAQCeeTV+anrvCBEJ1McT0vvS
YCoXnprbPNVlp0Xt+xY/t+LoDHQBxb+h/awaBFBs8XUmqC9B5RpVguJ7b2u2Ogxq
VzHZTpeRB/2LJ8u82aqP02GQzaGiB8P9+pCMYFzf3GbbdIluqz6hb3vIAzFSogNZ
JmgrEJmhLBXkApmJKyecX/wjHEEsiDKRszYOdcNqbOYjPgvLmzDGrqzWjaAWjoyv
biiOIo5GytKFyHW8d8wepO6elNuvF/lVNSudQdBQgOQZgm1sQh9PqsIiIGs2R+v+
2/nQUAEPO4+7dxgjFVXZQHkie9BDSR1DEqTN/IsHPbPGT/018rx4Sx4Tc1zIfqYe
-----END CERTIFICATE-----
