Certificate:
    Data:
        Version: 3 (0x2)
        Serial Number:
            e2:01:08:2b:89:91:0f:54:35:1a:a6:67:e3:4f:e5:b9
        Signature Algorithm: sha256WithRSAEncryption
        Issuer: CN=team735-net
        Validity
            Not Before: May 19 00:06:04 2022 GMT
            Not After : May  3 00:06:04 2025 GMT
        Subject: CN=team735-server
        Subject Public Key Info:
            Public Key Algorithm: rsaEncryption
                RSA Public-Key: (2048 bit)
                Modulus:
                    00:b8:17:53:7c:d5:1e:bd:61:7f:0b:0d:bb:b5:fb:
                    63:87:48:b3:1c:09:90:74:ee:db:ed:bf:6c:fc:3b:
                    3f:86:9e:3d:d1:17:08:4d:f9:ba:51:ee:e0:9b:e0:
                    aa:64:1c:17:4c:56:ea:a0:ca:89:d8:8e:e1:71:43:
                    b4:e8:df:1a:95:17:3b:f1:98:83:1b:39:48:68:ea:
                    32:e8:e7:77:75:43:7e:c7:f4:17:3a:9c:ad:d9:a8:
                    7c:cc:1d:6b:17:10:48:c8:32:67:f7:92:54:1e:a1:
                    7b:44:1f:c1:eb:a0:24:05:f7:db:62:a2:61:18:c9:
                    af:e1:16:aa:c7:02:8f:5e:e8:75:49:e8:ed:43:8a:
                    21:bd:41:dd:30:32:79:70:3c:86:3a:57:11:e9:49:
                    f4:32:c9:be:d6:b7:12:27:6b:7f:79:ea:91:d9:58:
                    a9:d0:9e:26:52:1f:ff:bc:fb:69:02:e6:f8:48:78:
                    c0:80:8e:0b:94:54:64:36:28:5a:e7:6c:01:2c:8c:
                    d1:35:d9:d8:21:b7:7f:70:e2:ad:c1:65:88:89:2a:
                    23:b9:9c:0f:d0:9b:18:49:40:8d:ef:95:e2:21:c9:
                    59:7b:38:88:7a:96:4c:62:0d:52:f7:05:df:08:62:
                    37:b5:45:f2:e5:40:f3:02:48:c7:67:93:d3:31:a6:
                    3d:99
                Exponent: 65537 (0x10001)
        X509v3 extensions:
            X509v3 Basic Constraints: 
                CA:FALSE
            X509v3 Subject Key Identifier: 
                95:54:24:75:52:57:ED:74:16:88:97:DE:2F:4C:B5:F1:42:75:D9:DE
            X509v3 Authority Key Identifier: 
                keyid:8F:1F:80:89:9C:7F:06:7C:2B:9B:2E:8B:B2:BC:6F:8A:4B:00:0F:54
                DirName:/CN=team735-net
                serial:1A:AB:07:A5:C3:97:72:22:17:96:AE:92:5D:07:1A:2E:08:25:A7:D8

            X509v3 Extended Key Usage: 
                TLS Web Server Authentication
            X509v3 Key Usage: 
                Digital Signature, Key Encipherment
            X509v3 Subject Alternative Name: 
                DNS:team735-server
    Signature Algorithm: sha256WithRSAEncryption
         4d:f8:0f:85:2e:34:fd:ea:66:b0:0f:c6:d4:99:f5:e4:85:47:
         da:05:9e:33:fb:11:aa:62:b2:e8:a8:0e:4f:74:d3:01:84:fe:
         7c:63:43:55:f0:2f:d1:69:c8:1f:4f:38:17:b8:5f:57:29:29:
         10:cc:2a:d9:54:31:16:86:11:b3:54:76:68:d1:08:49:82:f9:
         ff:3e:0d:23:f2:d4:5e:84:7a:87:03:9f:43:3e:72:22:e8:02:
         aa:84:35:19:cc:b0:f8:fd:64:ef:33:e5:df:f2:c5:b2:9f:3e:
         9a:25:0b:bb:80:09:5a:fb:77:3c:dc:64:63:9e:8c:43:3f:8c:
         d1:96:42:f1:9c:76:64:76:bc:4c:12:50:8f:53:e0:57:b0:ab:
         99:b2:2b:37:d4:e3:b7:a8:2b:60:79:1b:cd:02:39:94:ff:b6:
         df:24:4f:de:70:af:2a:ba:7a:1e:ad:78:57:9d:df:ce:56:5b:
         df:cc:17:2c:22:c1:0e:0a:05:42:76:79:53:cb:f2:af:f6:fd:
         25:01:3c:13:9a:6c:fc:0e:5e:61:cd:8c:57:1a:0d:d6:9e:b2:
         e0:31:ea:93:96:99:5b:f5:76:2e:1d:8d:be:aa:23:28:f8:96:
         1c:64:79:c9:fb:5d:fa:cc:31:49:2d:2a:84:f5:21:bb:b1:39:
         ae:54:31:37
-----BEGIN CERTIFICATE-----
MIIDeDCCAmCgAwIBAgIRAOIBCCuJkQ9UNRqmZ+NP5bkwDQYJKoZIhvcNAQELBQAw
FjEUMBIGA1UEAwwLdGVhbTczNS1uZXQwHhcNMjIwNTE5MDAwNjA0WhcNMjUwNTAz
MDAwNjA0WjAZMRcwFQYDVQQDDA50ZWFtNzM1LXNlcnZlcjCCASIwDQYJKoZIhvcN
AQEBBQADggEPADCCAQoCggEBALgXU3zVHr1hfwsNu7X7Y4dIsxwJkHTu2+2/bPw7
P4aePdEXCE35ulHu4JvgqmQcF0xW6qDKidiO4XFDtOjfGpUXO/GYgxs5SGjqMujn
d3VDfsf0FzqcrdmofMwdaxcQSMgyZ/eSVB6he0QfweugJAX322KiYRjJr+EWqscC
j17odUno7UOKIb1B3TAyeXA8hjpXEelJ9DLJvta3Eidrf3nqkdlYqdCeJlIf/7z7
aQLm+Eh4wICOC5RUZDYoWudsASyM0TXZ2CG3f3DircFliIkqI7mcD9CbGElAje+V
4iHJWXs4iHqWTGINUvcF3whiN7VF8uVA8wJIx2eT0zGmPZkCAwEAAaOBvTCBujAJ
BgNVHRMEAjAAMB0GA1UdDgQWBBSVVCR1UlftdBaIl94vTLXxQnXZ3jBRBgNVHSME
SjBIgBSPH4CJnH8GfCubLouyvG+KSwAPVKEapBgwFjEUMBIGA1UEAwwLdGVhbTcz
NS1uZXSCFBqrB6XDl3IiF5aukl0HGi4IJafYMBMGA1UdJQQMMAoGCCsGAQUFBwMB
MAsGA1UdDwQEAwIFoDAZBgNVHREEEjAQgg50ZWFtNzM1LXNlcnZlcjANBgkqhkiG
9w0BAQsFAAOCAQEATfgPhS40/epmsA/G1Jn15IVH2gWeM/sRqmKy6KgOT3TTAYT+
fGNDVfAv0WnIH084F7hfVykpEMwq2VQxFoYRs1R2aNEISYL5/z4NI/LUXoR6hwOf
Qz5yIugCqoQ1Gcyw+P1k7zPl3/LFsp8+miULu4AJWvt3PNxkY56MQz+M0ZZC8Zx2
ZHa8TBJQj1PgV7CrmbIrN9Tjt6grYHkbzQI5lP+23yRP3nCvKrp6Hq14V53fzlZb
38wXLCLBDgoFQnZ5U8vyr/b9JQE8E5ps/A5eYc2MVxoN1p6y4DHqk5aZW/V2Lh2N
vqojKPiWHGR5yftd+swxSS0qhPUhu7E5rlQxNw==
-----END CERTIFICATE-----
