Certificate:
    Data:
        Version: 3 (0x2)
        Serial Number:
            8a:64:00:14:6f:f1:2a:75:61:28:c3:c1:5a:5b:60:9b
        Signature Algorithm: sha256WithRSAEncryption
        Issuer: CN=team58-net
        Validity
            Not Before: May 18 14:28:11 2022 GMT
            Not After : May  2 14:28:11 2025 GMT
        Subject: CN=team58-server
        Subject Public Key Info:
            Public Key Algorithm: rsaEncryption
                RSA Public-Key: (2048 bit)
                Modulus:
                    00:de:7b:33:0e:63:89:8a:90:d1:76:94:27:7c:db:
                    6e:64:28:e9:71:5f:9d:cd:85:50:d4:ff:6a:9a:92:
                    2f:5c:7f:0d:69:f5:64:9d:59:91:e8:94:6d:6e:5a:
                    4c:c6:e7:86:7d:5f:c8:fe:a8:57:88:04:88:88:46:
                    9f:7f:b0:92:92:10:bb:d7:df:e2:21:d3:f1:df:e8:
                    b0:e5:31:f3:5e:5c:96:28:19:5b:db:43:75:8c:52:
                    9e:ed:02:0d:51:df:e8:a9:b7:36:a2:30:f7:39:4e:
                    dd:6f:aa:bf:f4:35:4e:c5:78:14:29:99:f9:6c:ba:
                    44:12:d4:79:6c:26:15:db:fa:20:18:76:e9:0f:fa:
                    5e:e8:5f:5c:b9:9e:ea:fa:d3:8e:fd:d4:1d:ed:b1:
                    f2:28:cd:01:73:3c:08:8a:0d:7e:20:ce:f2:4d:42:
                    42:a1:81:51:e4:b7:84:92:ce:15:40:d5:07:9c:ea:
                    09:17:b7:dc:13:1d:7b:d5:ee:37:9e:4a:93:6e:58:
                    a5:ff:09:ce:ac:43:a6:72:52:db:2e:11:21:e6:da:
                    79:92:a0:91:63:25:1b:75:b4:07:c8:ca:f6:b9:22:
                    9b:58:ad:eb:c2:6b:09:7a:bf:2b:37:d6:0c:ed:55:
                    2c:33:f9:e5:1a:19:50:71:7b:87:90:6f:e4:ad:53:
                    7e:19
                Exponent: 65537 (0x10001)
        X509v3 extensions:
            X509v3 Basic Constraints: 
                CA:FALSE
            X509v3 Subject Key Identifier: 
                CE:20:43:5F:A6:D3:FE:AE:BE:F2:DE:14:47:23:78:C3:52:16:76:3E
            X509v3 Authority Key Identifier: 
                keyid:B9:37:93:78:7B:6F:5C:2F:04:0C:AF:01:41:C5:BE:AD:18:DE:55:C3
                DirName:/CN=team58-net
                serial:55:5A:07:7E:48:4F:E9:81:0B:99:10:1C:34:B6:F0:71:22:C8:B2:3D

            X509v3 Extended Key Usage: 
                TLS Web Server Authentication
            X509v3 Key Usage: 
                Digital Signature, Key Encipherment
            X509v3 Subject Alternative Name: 
                DNS:team58-server
    Signature Algorithm: sha256WithRSAEncryption
         77:55:ba:db:f3:14:32:68:a6:e1:f4:43:fe:3c:42:75:00:b9:
         f0:2b:df:63:b6:8f:63:73:66:f8:bf:3a:b3:6c:47:e5:60:28:
         d6:ed:c2:e1:9d:32:f2:39:82:8a:66:88:40:3a:da:49:b6:42:
         64:7d:7f:11:2b:ab:3d:b8:e2:39:fa:82:c1:f9:eb:bd:a2:75:
         eb:be:5d:a0:b1:30:50:0b:15:54:a4:48:11:68:c4:f8:e4:35:
         97:e2:7d:78:1c:7f:40:1e:9c:29:6c:e7:d5:70:61:ce:34:eb:
         a6:8a:cf:8f:9d:ff:ab:74:91:db:5f:a1:b1:45:a5:3f:98:c8:
         3d:27:33:15:8e:e6:12:b8:39:c2:11:c6:f8:ce:af:d0:cd:8d:
         65:45:23:3c:41:c5:08:3c:56:48:7d:35:a9:5e:8e:52:9c:60:
         e0:46:42:ed:21:be:73:55:8c:4e:8d:47:d4:a1:a8:3c:f0:c7:
         cd:64:0d:9e:19:5d:d1:7c:4d:e8:4b:6a:f1:d8:e8:81:b4:b6:
         5c:48:d1:50:a4:47:c6:43:84:35:0e:4c:2d:26:71:62:4f:6f:
         10:6b:d2:04:d7:a7:c2:4f:56:a6:20:80:04:ed:ef:64:b0:68:
         f7:92:75:66:62:50:9d:50:b6:f1:22:f1:c5:3b:85:e5:e7:73:
         8c:88:a2:2c
-----BEGIN CERTIFICATE-----
MIIDdDCCAlygAwIBAgIRAIpkABRv8Sp1YSjDwVpbYJswDQYJKoZIhvcNAQELBQAw
FTETMBEGA1UEAwwKdGVhbTU4LW5ldDAeFw0yMjA1MTgxNDI4MTFaFw0yNTA1MDIx
NDI4MTFaMBgxFjAUBgNVBAMMDXRlYW01OC1zZXJ2ZXIwggEiMA0GCSqGSIb3DQEB
AQUAA4IBDwAwggEKAoIBAQDeezMOY4mKkNF2lCd8225kKOlxX53NhVDU/2qaki9c
fw1p9WSdWZHolG1uWkzG54Z9X8j+qFeIBIiIRp9/sJKSELvX3+Ih0/Hf6LDlMfNe
XJYoGVvbQ3WMUp7tAg1R3+iptzaiMPc5Tt1vqr/0NU7FeBQpmflsukQS1HlsJhXb
+iAYdukP+l7oX1y5nur604791B3tsfIozQFzPAiKDX4gzvJNQkKhgVHkt4SSzhVA
1Qec6gkXt9wTHXvV7jeeSpNuWKX/Cc6sQ6ZyUtsuESHm2nmSoJFjJRt1tAfIyva5
IptYrevCawl6vys31gztVSwz+eUaGVBxe4eQb+StU34ZAgMBAAGjgbswgbgwCQYD
VR0TBAIwADAdBgNVHQ4EFgQUziBDX6bT/q6+8t4URyN4w1IWdj4wUAYDVR0jBEkw
R4AUuTeTeHtvXC8EDK8BQcW+rRjeVcOhGaQXMBUxEzARBgNVBAMMCnRlYW01OC1u
ZXSCFFVaB35IT+mBC5kQHDS28HEiyLI9MBMGA1UdJQQMMAoGCCsGAQUFBwMBMAsG
A1UdDwQEAwIFoDAYBgNVHREEETAPgg10ZWFtNTgtc2VydmVyMA0GCSqGSIb3DQEB
CwUAA4IBAQB3Vbrb8xQyaKbh9EP+PEJ1ALnwK99jto9jc2b4vzqzbEflYCjW7cLh
nTLyOYKKZohAOtpJtkJkfX8RK6s9uOI5+oLB+eu9onXrvl2gsTBQCxVUpEgRaMT4
5DWX4n14HH9AHpwpbOfVcGHONOumis+Pnf+rdJHbX6GxRaU/mMg9JzMVjuYSuDnC
Ecb4zq/QzY1lRSM8QcUIPFZIfTWpXo5SnGDgRkLtIb5zVYxOjUfUoag88MfNZA2e
GV3RfE3oS2rx2OiBtLZcSNFQpEfGQ4Q1DkwtJnFiT28Qa9IE16fCT1amIIAE7e9k
sGj3knVmYlCdULbxIvHFO4Xl53OMiKIs
-----END CERTIFICATE-----
