Certificate:
    Data:
        Version: 3 (0x2)
        Serial Number:
            6b:36:7d:20:6d:b2:6c:52:52:6e:5c:13:25:a0:95:35
        Signature Algorithm: sha256WithRSAEncryption
        Issuer: CN=team374-net
        Validity
            Not Before: May 18 20:38:50 2022 GMT
            Not After : May  2 20:38:50 2025 GMT
        Subject: CN=team374-server
        Subject Public Key Info:
            Public Key Algorithm: rsaEncryption
                RSA Public-Key: (2048 bit)
                Modulus:
                    00:c2:1e:59:cd:15:73:34:91:c5:21:cd:bf:45:7f:
                    84:08:69:7a:96:f6:9e:32:9d:33:82:40:a3:d9:da:
                    c5:fb:9c:be:e3:c3:3c:41:37:4f:b1:28:46:25:15:
                    b1:62:aa:fd:de:f8:4e:15:3f:dc:5c:9a:de:dc:71:
                    b9:a7:fe:92:63:ff:f6:01:85:7e:b3:4e:bd:7a:42:
                    4c:8d:3c:d8:30:23:f8:ca:8e:e5:e1:5e:c0:01:a2:
                    f0:8c:46:3c:b9:36:af:e8:2b:2d:96:b8:d5:9e:07:
                    77:5d:ee:89:fa:3f:20:36:31:34:a0:74:82:cd:64:
                    3d:fa:e3:b8:33:67:8c:57:26:c8:6d:09:ae:a5:89:
                    71:35:f7:de:d6:22:bc:3c:ff:22:fb:0f:cd:57:39:
                    a7:1f:1a:78:d3:7c:be:be:6c:93:41:c0:67:da:68:
                    e2:51:9d:05:44:34:66:03:fb:b6:0e:3e:1d:37:4a:
                    17:d9:51:41:2c:29:20:3c:00:0f:13:10:73:43:1a:
                    b3:38:a4:b1:8f:ba:2a:2c:8b:5b:bd:89:ab:8a:73:
                    65:00:65:3e:07:38:28:20:7b:26:18:c6:50:3d:d2:
                    4f:5b:36:59:70:16:fb:af:0d:d2:7a:3f:ed:7c:fe:
                    a0:0c:b0:79:cf:96:b2:43:7d:04:15:32:d7:46:18:
                    39:87
                Exponent: 65537 (0x10001)
        X509v3 extensions:
            X509v3 Basic Constraints: 
                CA:FALSE
            X509v3 Subject Key Identifier: 
                3C:63:95:33:2C:E6:32:AC:E8:DC:D7:00:62:8B:04:05:11:97:A1:A0
            X509v3 Authority Key Identifier: 
                keyid:5D:49:CD:11:68:8D:DF:E2:93:63:18:79:D0:A6:99:25:6A:35:90:4F
                DirName:/CN=team374-net
                serial:23:7F:9C:98:CD:A7:17:2D:1C:29:BB:F0:B2:8E:4A:2F:7A:86:40:5B

            X509v3 Extended Key Usage: 
                TLS Web Server Authentication
            X509v3 Key Usage: 
                Digital Signature, Key Encipherment
            X509v3 Subject Alternative Name: 
                DNS:team374-server
    Signature Algorithm: sha256WithRSAEncryption
         3f:a6:4b:23:44:7b:cd:8e:4d:61:e7:89:ec:9b:4b:79:8f:be:
         9a:93:08:b4:19:ee:d9:1c:6f:5b:42:2a:d8:b4:84:cc:04:9b:
         cf:c4:c6:11:b7:03:c8:0e:bf:f8:27:9d:a8:99:c1:65:9c:aa:
         21:ec:de:74:92:77:5a:11:60:09:c6:cc:60:0e:fe:ed:39:ec:
         90:0e:4e:c0:89:f6:99:e9:47:32:af:54:ff:70:83:45:9f:34:
         8a:bf:f4:2a:d1:ca:50:9e:52:09:b7:9d:c3:ea:e9:50:c4:1d:
         cb:cb:c2:c6:84:4d:a4:ba:ea:15:93:8e:69:60:e8:19:6a:1a:
         05:c7:7d:2d:c7:54:b3:87:4b:d0:37:82:0b:84:47:77:93:8e:
         5b:3f:a4:de:d7:71:bf:49:29:d0:85:61:7c:88:3b:f5:52:09:
         7c:83:bd:dc:6f:3b:7d:e2:f1:21:83:b0:55:4a:d5:8d:db:50:
         26:dd:d4:a7:87:b3:16:93:2b:39:e9:fc:52:76:53:4d:fc:57:
         74:78:db:21:e3:dd:89:f4:b0:ab:af:ca:15:5f:e5:4f:9c:51:
         52:c1:2d:39:e9:88:97:d5:65:11:a7:9d:b0:ea:01:06:9a:22:
         11:98:48:bc:cb:e7:42:20:e7:31:ab:ce:04:4a:79:bf:92:2b:
         3c:7a:5d:05
-----BEGIN CERTIFICATE-----
MIIDdzCCAl+gAwIBAgIQazZ9IG2ybFJSblwTJaCVNTANBgkqhkiG9w0BAQsFADAW
MRQwEgYDVQQDDAt0ZWFtMzc0LW5ldDAeFw0yMjA1MTgyMDM4NTBaFw0yNTA1MDIy
MDM4NTBaMBkxFzAVBgNVBAMMDnRlYW0zNzQtc2VydmVyMIIBIjANBgkqhkiG9w0B
AQEFAAOCAQ8AMIIBCgKCAQEAwh5ZzRVzNJHFIc2/RX+ECGl6lvaeMp0zgkCj2drF
+5y+48M8QTdPsShGJRWxYqr93vhOFT/cXJre3HG5p/6SY//2AYV+s069ekJMjTzY
MCP4yo7l4V7AAaLwjEY8uTav6CstlrjVngd3Xe6J+j8gNjE0oHSCzWQ9+uO4M2eM
VybIbQmupYlxNffe1iK8PP8i+w/NVzmnHxp403y+vmyTQcBn2mjiUZ0FRDRmA/u2
Dj4dN0oX2VFBLCkgPAAPExBzQxqzOKSxj7oqLItbvYmrinNlAGU+BzgoIHsmGMZQ
PdJPWzZZcBb7rw3Sej/tfP6gDLB5z5ayQ30EFTLXRhg5hwIDAQABo4G9MIG6MAkG
A1UdEwQCMAAwHQYDVR0OBBYEFDxjlTMs5jKs6NzXAGKLBAURl6GgMFEGA1UdIwRK
MEiAFF1JzRFojd/ik2MYedCmmSVqNZBPoRqkGDAWMRQwEgYDVQQDDAt0ZWFtMzc0
LW5ldIIUI3+cmM2nFy0cKbvwso5KL3qGQFswEwYDVR0lBAwwCgYIKwYBBQUHAwEw
CwYDVR0PBAQDAgWgMBkGA1UdEQQSMBCCDnRlYW0zNzQtc2VydmVyMA0GCSqGSIb3
DQEBCwUAA4IBAQA/pksjRHvNjk1h54nsm0t5j76akwi0Ge7ZHG9bQirYtITMBJvP
xMYRtwPIDr/4J52omcFlnKoh7N50kndaEWAJxsxgDv7tOeyQDk7AifaZ6Ucyr1T/
cINFnzSKv/Qq0cpQnlIJt53D6ulQxB3Ly8LGhE2kuuoVk45pYOgZahoFx30tx1Sz
h0vQN4ILhEd3k45bP6Te13G/SSnQhWF8iDv1Ugl8g73cbzt94vEhg7BVStWN21Am
3dSnh7MWkys56fxSdlNN/Fd0eNsh492J9LCrr8oVX+VPnFFSwS056YiX1WURp52w
6gEGmiIRmEi8y+dCIOcxq84ESnm/kis8el0F
-----END CERTIFICATE-----
