Certificate:
    Data:
        Version: 3 (0x2)
        Serial Number:
            4a:e3:30:0f:24:38:a1:53:fa:48:12:a9:4b:96:eb:d5
        Signature Algorithm: sha256WithRSAEncryption
        Issuer: CN=team401-net
        Validity
            Not Before: May 18 20:49:31 2022 GMT
            Not After : May  2 20:49:31 2025 GMT
        Subject: CN=team401-server
        Subject Public Key Info:
            Public Key Algorithm: rsaEncryption
                RSA Public-Key: (2048 bit)
                Modulus:
                    00:a2:df:22:bd:07:85:be:81:a3:87:ee:4e:4d:cb:
                    92:99:17:e1:52:66:72:b7:8a:23:1e:d5:43:69:c9:
                    d0:8c:12:3a:19:95:b3:27:45:21:ff:e4:24:fd:c6:
                    dc:c7:26:98:a8:1d:05:0b:be:26:5c:4a:f6:4a:95:
                    6f:28:ea:2a:07:73:01:30:da:b9:a0:12:c4:c0:9f:
                    9f:de:e6:8e:12:ad:01:f8:c7:be:c4:72:d2:77:9d:
                    66:e9:a6:74:36:59:7c:7b:da:f0:44:4f:95:a2:d8:
                    0e:bc:fd:41:c2:25:24:9e:af:ec:da:25:0b:d3:1d:
                    3a:78:6d:42:7b:80:26:31:e8:7b:1c:30:3f:df:3a:
                    12:14:0f:36:48:dd:3f:48:84:16:42:62:15:f0:28:
                    b3:d2:22:c9:93:8f:e7:9a:3e:c7:75:6c:ad:da:01:
                    2a:cf:f1:e5:e9:58:74:c3:02:66:37:90:f0:79:ca:
                    af:a8:3f:20:d5:88:79:cd:65:69:c1:98:7d:fc:77:
                    05:41:28:ca:11:41:41:9c:9f:cd:b0:cd:b7:64:5c:
                    43:46:6b:0d:36:da:5a:b9:4a:2d:62:cb:be:89:80:
                    12:63:78:0c:db:be:80:8c:f3:ba:24:2d:01:1c:e5:
                    cf:92:4e:0b:0d:5c:f4:71:71:85:11:86:07:9c:62:
                    22:71
                Exponent: 65537 (0x10001)
        X509v3 extensions:
            X509v3 Basic Constraints: 
                CA:FALSE
            X509v3 Subject Key Identifier: 
                55:49:60:54:A8:88:81:86:E6:C5:85:34:97:02:19:68:95:4B:5E:40
            X509v3 Authority Key Identifier: 
                keyid:80:BF:A3:15:47:5E:B3:E9:0D:49:16:BC:21:79:29:6B:9C:04:26:A2
                DirName:/CN=team401-net
                serial:69:FF:D4:36:2A:5E:DD:60:22:56:C6:67:3B:35:E3:DA:36:C4:BC:E3

            X509v3 Extended Key Usage: 
                TLS Web Server Authentication
            X509v3 Key Usage: 
                Digital Signature, Key Encipherment
            X509v3 Subject Alternative Name: 
                DNS:team401-server
    Signature Algorithm: sha256WithRSAEncryption
         88:aa:3b:90:0a:ac:52:69:d9:ac:95:3a:94:8f:08:f7:05:71:
         6a:c9:57:fe:23:06:57:b4:59:a9:74:dc:59:a3:5c:91:16:37:
         56:9f:4d:8b:3e:cf:fb:df:0f:a9:54:7a:fd:24:04:31:ed:1d:
         d1:86:d8:87:cb:d7:43:67:da:54:bb:82:1e:76:e5:ce:57:17:
         69:82:6c:75:a3:cc:7d:99:56:cb:50:37:5d:b9:49:44:eb:9e:
         f6:29:9a:46:fb:f6:48:d6:53:9d:0c:d9:4a:21:fd:46:19:cc:
         4b:fe:1f:f7:4c:a3:06:e6:f4:02:24:d3:c4:8b:d3:f4:56:7f:
         d7:7d:e6:c4:29:04:38:64:30:ff:81:cb:a7:30:36:3d:89:ee:
         35:65:e1:df:43:da:a2:32:ba:17:ad:06:94:33:2c:50:6f:75:
         1f:78:a0:48:a9:d6:75:bd:e3:f6:ba:25:7e:d5:a0:41:1e:dd:
         1d:99:77:10:11:f2:39:1d:ec:c1:fb:4d:49:f9:62:fc:23:95:
         16:00:89:d7:d7:7d:a1:d8:78:36:c1:38:24:9c:eb:a4:7f:29:
         1e:7b:ae:7e:a3:72:f0:34:56:7f:f8:86:64:d7:a5:97:b8:43:
         e5:1d:15:35:a6:a7:c9:8f:0f:37:59:8e:3f:2c:8b:b3:12:83:
         1c:0b:29:a4
-----BEGIN CERTIFICATE-----
MIIDdzCCAl+gAwIBAgIQSuMwDyQ4oVP6SBKpS5br1TANBgkqhkiG9w0BAQsFADAW
MRQwEgYDVQQDDAt0ZWFtNDAxLW5ldDAeFw0yMjA1MTgyMDQ5MzFaFw0yNTA1MDIy
MDQ5MzFaMBkxFzAVBgNVBAMMDnRlYW00MDEtc2VydmVyMIIBIjANBgkqhkiG9w0B
AQEFAAOCAQ8AMIIBCgKCAQEAot8ivQeFvoGjh+5OTcuSmRfhUmZyt4ojHtVDacnQ
jBI6GZWzJ0Uh/+Qk/cbcxyaYqB0FC74mXEr2SpVvKOoqB3MBMNq5oBLEwJ+f3uaO
Eq0B+Me+xHLSd51m6aZ0Nll8e9rwRE+VotgOvP1BwiUknq/s2iUL0x06eG1Ce4Am
Meh7HDA/3zoSFA82SN0/SIQWQmIV8Ciz0iLJk4/nmj7HdWyt2gEqz/Hl6Vh0wwJm
N5DwecqvqD8g1Yh5zWVpwZh9/HcFQSjKEUFBnJ/NsM23ZFxDRmsNNtpauUotYsu+
iYASY3gM276AjPO6JC0BHOXPkk4LDVz0cXGFEYYHnGIicQIDAQABo4G9MIG6MAkG
A1UdEwQCMAAwHQYDVR0OBBYEFFVJYFSoiIGG5sWFNJcCGWiVS15AMFEGA1UdIwRK
MEiAFIC/oxVHXrPpDUkWvCF5KWucBCaioRqkGDAWMRQwEgYDVQQDDAt0ZWFtNDAx
LW5ldIIUaf/UNipe3WAiVsZnOzXj2jbEvOMwEwYDVR0lBAwwCgYIKwYBBQUHAwEw
CwYDVR0PBAQDAgWgMBkGA1UdEQQSMBCCDnRlYW00MDEtc2VydmVyMA0GCSqGSIb3
DQEBCwUAA4IBAQCIqjuQCqxSadmslTqUjwj3BXFqyVf+IwZXtFmpdNxZo1yRFjdW
n02LPs/73w+pVHr9JAQx7R3RhtiHy9dDZ9pUu4IeduXOVxdpgmx1o8x9mVbLUDdd
uUlE6572KZpG+/ZI1lOdDNlKIf1GGcxL/h/3TKMG5vQCJNPEi9P0Vn/XfebEKQQ4
ZDD/gcunMDY9ie41ZeHfQ9qiMroXrQaUMyxQb3UfeKBIqdZ1veP2uiV+1aBBHt0d
mXcQEfI5HezB+01J+WL8I5UWAInX132h2Hg2wTgknOukfykee65+o3LwNFZ/+IZk
16WXuEPlHRU1pqfJjw83WY4/LIuzEoMcCymk
-----END CERTIFICATE-----
