Certificate:
    Data:
        Version: 3 (0x2)
        Serial Number:
            fc:1d:12:83:6d:76:23:47:9b:3d:0e:b8:0d:df:5e:4c
        Signature Algorithm: sha256WithRSAEncryption
        Issuer: CN=team401-net
        Validity
            Not Before: May 18 20:49:31 2022 GMT
            Not After : May  2 20:49:31 2025 GMT
        Subject: CN=team401-client
        Subject Public Key Info:
            Public Key Algorithm: rsaEncryption
                RSA Public-Key: (2048 bit)
                Modulus:
                    00:bc:b7:c3:b5:af:fa:cc:2f:9a:ab:84:5c:38:6b:
                    f1:e2:a4:e1:01:97:4d:01:8b:09:5a:98:e0:0c:a9:
                    3a:10:92:a1:d6:08:63:f6:cf:6d:a0:8f:62:dc:87:
                    09:9d:f1:b4:04:f3:f1:aa:3d:19:2e:9a:29:3c:58:
                    1c:43:1f:bc:3e:fb:32:df:47:25:63:fc:75:6d:1f:
                    da:ce:a0:73:86:29:85:58:4b:e4:35:8e:d7:c4:1c:
                    d2:b5:a5:b1:ef:e5:64:a6:93:89:bf:61:a2:4e:49:
                    be:b1:47:7d:93:16:9e:88:fa:4e:4e:ef:87:91:77:
                    dc:fd:77:35:18:4a:71:0f:57:61:17:dc:af:d6:b9:
                    9b:88:32:dc:33:ef:28:9c:05:2b:37:68:4d:63:bb:
                    12:61:77:b3:16:bb:dc:de:4d:68:b6:4c:ec:0e:0d:
                    ca:66:cf:09:8c:63:ef:4c:cc:32:82:05:b1:66:90:
                    04:08:d8:db:36:92:30:af:72:d4:fa:48:30:b1:8e:
                    aa:90:93:3e:43:d4:73:7d:89:dc:fd:0d:8a:c0:93:
                    8a:c3:8b:a8:23:71:70:40:69:b0:02:6a:fc:b2:bb:
                    e3:5c:c6:e5:84:81:bc:72:17:a7:12:2c:ed:69:ad:
                    84:82:df:90:38:00:c8:e7:39:99:84:d4:3a:66:4c:
                    07:f9
                Exponent: 65537 (0x10001)
        X509v3 extensions:
            X509v3 Basic Constraints: 
                CA:FALSE
            X509v3 Subject Key Identifier: 
                5A:24:C9:C7:AF:DC:2F:45:F9:69:37:13:DC:E1:77:EF:EC:E7:D7:83
            X509v3 Authority Key Identifier: 
                keyid:80:BF:A3:15:47:5E:B3:E9:0D:49:16:BC:21:79:29:6B:9C:04:26:A2
                DirName:/CN=team401-net
                serial:69:FF:D4:36:2A:5E:DD:60:22:56:C6:67:3B:35:E3:DA:36:C4:BC:E3

            X509v3 Extended Key Usage: 
                TLS Web Client Authentication
            X509v3 Key Usage: 
                Digital Signature
    Signature Algorithm: sha256WithRSAEncryption
         90:78:e1:19:d3:9d:19:57:e1:18:b9:60:9a:ca:2f:53:b1:73:
         3d:d9:39:ed:65:9b:a2:88:e9:d2:46:50:ed:f4:1b:8d:9b:3a:
         b9:41:e2:c3:6e:b8:a0:e2:61:3b:7b:ee:ae:40:55:69:99:f1:
         56:7e:fc:ba:e3:97:25:6a:99:0b:6d:d3:0f:60:86:3d:10:35:
         d4:c2:2c:b3:3e:cf:1c:e8:1f:4a:e2:e4:7b:02:3d:d7:80:4c:
         93:f1:9d:a8:38:a5:c2:9e:1a:19:d0:37:2f:9b:b7:ec:9f:8c:
         18:fe:65:46:ed:38:27:70:5d:16:9c:b2:4e:d1:ba:83:99:32:
         9a:7d:fd:3b:ed:81:ff:f3:ab:a7:04:e3:c0:d1:9d:e8:46:4a:
         bd:eb:b6:51:4a:4c:d5:dd:89:a2:1f:cc:df:1a:30:6b:8d:2c:
         92:ed:84:5b:45:8e:16:04:02:26:9f:90:09:c1:23:61:b5:e1:
         36:47:9c:fd:51:2e:b5:51:43:f9:11:c9:f5:ce:59:81:1b:8e:
         8f:b0:36:d3:bc:83:58:a5:58:9f:8d:14:c7:6e:36:b2:43:4a:
         51:26:db:80:ca:86:62:33:32:a7:55:49:f3:5f:a0:93:6c:b3:
         f4:56:ec:49:e8:88:88:e8:48:4e:eb:26:98:ef:e9:c6:fe:be:
         1c:02:1f:b5
-----BEGIN CERTIFICATE-----
MIIDXTCCAkWgAwIBAgIRAPwdEoNtdiNHmz0OuA3fXkwwDQYJKoZIhvcNAQELBQAw
FjEUMBIGA1UEAwwLdGVhbTQwMS1uZXQwHhcNMjIwNTE4MjA0OTMxWhcNMjUwNTAy
MjA0OTMxWjAZMRcwFQYDVQQDDA50ZWFtNDAxLWNsaWVudDCCASIwDQYJKoZIhvcN
AQEBBQADggEPADCCAQoCggEBALy3w7Wv+swvmquEXDhr8eKk4QGXTQGLCVqY4Ayp
OhCSodYIY/bPbaCPYtyHCZ3xtATz8ao9GS6aKTxYHEMfvD77Mt9HJWP8dW0f2s6g
c4YphVhL5DWO18Qc0rWlse/lZKaTib9hok5JvrFHfZMWnoj6Tk7vh5F33P13NRhK
cQ9XYRfcr9a5m4gy3DPvKJwFKzdoTWO7EmF3sxa73N5NaLZM7A4NymbPCYxj70zM
MoIFsWaQBAjY2zaSMK9y1PpIMLGOqpCTPkPUc32J3P0NisCTisOLqCNxcEBpsAJq
/LK741zG5YSBvHIXpxIs7WmthILfkDgAyOc5mYTUOmZMB/kCAwEAAaOBojCBnzAJ
BgNVHRMEAjAAMB0GA1UdDgQWBBRaJMnHr9wvRflpNxPc4Xfv7OfXgzBRBgNVHSME
SjBIgBSAv6MVR16z6Q1JFrwheSlrnAQmoqEapBgwFjEUMBIGA1UEAwwLdGVhbTQw
MS1uZXSCFGn/1DYqXt1gIlbGZzs149o2xLzjMBMGA1UdJQQMMAoGCCsGAQUFBwMC
MAsGA1UdDwQEAwIHgDANBgkqhkiG9w0BAQsFAAOCAQEAkHjhGdOdGVfhGLlgmsov
U7FzPdk57WWboojp0kZQ7fQbjZs6uUHiw264oOJhO3vurkBVaZnxVn78uuOXJWqZ
C23TD2CGPRA11MIssz7PHOgfSuLkewI914BMk/GdqDilwp4aGdA3L5u37J+MGP5l
Ru04J3BdFpyyTtG6g5kymn39O+2B//OrpwTjwNGd6EZKveu2UUpM1d2Joh/M3xow
a40sku2EW0WOFgQCJp+QCcEjYbXhNkec/VEutVFD+RHJ9c5ZgRuOj7A207yDWKVY
n40Ux242skNKUSbbgMqGYjMyp1VJ81+gk2yz9FbsSeiIiOhITusmmO/pxv6+HAIf
tQ==
-----END CERTIFICATE-----
