Certificate:
    Data:
        Version: 3 (0x2)
        Serial Number:
            43:05:ff:ed:87:fc:ff:3f:79:08:a1:1b:17:ba:37:7f
        Signature Algorithm: sha256WithRSAEncryption
        Issuer: CN=team129-net
        Validity
            Not Before: May 18 15:06:59 2022 GMT
            Not After : May  2 15:06:59 2025 GMT
        Subject: CN=team129-client
        Subject Public Key Info:
            Public Key Algorithm: rsaEncryption
                RSA Public-Key: (2048 bit)
                Modulus:
                    00:d9:f4:4c:c5:a8:a5:a1:9b:e7:cd:4a:b6:fb:ff:
                    04:e6:1c:43:08:55:ee:fc:09:81:5a:da:25:ec:f6:
                    5c:55:4c:75:9c:1b:ef:7c:04:ed:b6:f4:00:ab:bb:
                    78:f5:18:6b:37:60:1c:56:b8:21:d7:d7:08:b3:78:
                    ec:bb:88:e9:f0:bd:89:0d:a2:74:db:c4:e8:83:74:
                    21:ec:c7:16:6f:7c:d4:01:f9:d3:bb:d9:11:0a:33:
                    91:4a:08:cc:8f:a5:c1:ed:db:e9:73:96:20:4b:f2:
                    87:f9:c9:b4:21:2c:7b:3e:8d:a2:47:ec:21:b4:2a:
                    be:a2:f4:41:e4:5e:78:f4:07:99:1f:87:f6:2b:1f:
                    88:17:ed:15:54:cd:26:1c:ad:9d:4e:89:62:9f:c1:
                    bb:a5:61:ae:96:1b:43:7d:7b:85:0b:14:0c:79:8e:
                    7f:93:c0:38:8f:d9:f2:6d:11:e1:5f:9f:72:26:2d:
                    f0:18:1b:21:c9:1e:45:69:d0:fb:4a:09:1a:d2:95:
                    d0:ba:85:ab:6a:8b:b2:3b:79:c9:19:7b:2a:cc:68:
                    bc:07:b5:ff:90:fa:bf:f7:fd:57:5a:60:a8:6f:b9:
                    aa:b3:59:9a:bc:6e:d5:da:8b:cc:15:ad:4c:ca:cb:
                    b6:4d:09:42:6c:6a:06:92:b4:bb:44:01:be:12:8c:
                    38:3d
                Exponent: 65537 (0x10001)
        X509v3 extensions:
            X509v3 Basic Constraints: 
                CA:FALSE
            X509v3 Subject Key Identifier: 
                BD:90:0C:26:0A:76:48:97:EE:55:AC:57:46:3A:B8:EB:B4:5D:C3:EC
            X509v3 Authority Key Identifier: 
                keyid:8E:1A:62:D4:5B:EC:65:D6:6B:C1:71:D8:FD:84:1A:AC:F8:8F:4F:81
                DirName:/CN=team129-net
                serial:67:09:53:65:CC:4C:F9:A3:E9:B3:63:92:03:62:1F:2B:A0:05:CD:CF

            X509v3 Extended Key Usage: 
                TLS Web Client Authentication
            X509v3 Key Usage: 
                Digital Signature
    Signature Algorithm: sha256WithRSAEncryption
         8c:fa:f5:78:b8:5e:39:97:c7:74:00:ee:9f:53:47:69:f0:ae:
         64:f6:43:ac:6c:f5:a3:c2:03:8a:3b:49:15:6b:f5:1c:d9:41:
         0e:dc:74:d6:64:57:69:6f:d7:fa:fd:5e:1d:f5:40:1a:03:9c:
         f6:df:5b:9f:17:d8:f9:9c:d9:93:10:38:c6:1c:2d:8e:70:f4:
         5d:fc:35:53:79:70:48:11:d8:16:3b:92:53:79:39:0c:8c:31:
         11:f8:ca:cc:7c:c2:9f:68:a2:8a:66:9e:7f:c0:04:9f:b4:68:
         d1:e1:5c:77:1c:0f:cd:ec:cc:1b:47:6b:e7:63:e5:3b:71:3d:
         2e:a9:a3:f9:05:28:0f:7b:01:1b:a9:18:d9:4d:b3:84:8c:b2:
         63:79:3a:54:c1:0b:d5:36:db:92:ad:e9:3f:9f:20:47:b8:f6:
         4f:99:85:14:92:a8:15:b7:ec:05:e0:4b:67:e0:91:07:d1:c9:
         81:75:e8:09:99:16:22:77:55:b9:54:8b:02:1e:f2:7a:5b:65:
         00:b9:e7:fa:07:50:55:87:78:6a:5f:a4:7d:ec:03:be:9d:fe:
         28:0f:fd:ea:dc:ed:55:f5:7b:34:6e:55:9b:a5:a7:37:d3:d6:
         d2:e0:90:41:03:f5:bf:ba:7a:ba:96:3f:5c:25:a8:b7:fd:a8:
         e1:07:97:72
-----BEGIN CERTIFICATE-----
MIIDXDCCAkSgAwIBAgIQQwX/7Yf8/z95CKEbF7o3fzANBgkqhkiG9w0BAQsFADAW
MRQwEgYDVQQDDAt0ZWFtMTI5LW5ldDAeFw0yMjA1MTgxNTA2NTlaFw0yNTA1MDIx
NTA2NTlaMBkxFzAVBgNVBAMMDnRlYW0xMjktY2xpZW50MIIBIjANBgkqhkiG9w0B
AQEFAAOCAQ8AMIIBCgKCAQEA2fRMxailoZvnzUq2+/8E5hxDCFXu/AmBWtol7PZc
VUx1nBvvfATttvQAq7t49RhrN2AcVrgh19cIs3jsu4jp8L2JDaJ028Tog3Qh7McW
b3zUAfnTu9kRCjORSgjMj6XB7dvpc5YgS/KH+cm0ISx7Po2iR+whtCq+ovRB5F54
9AeZH4f2Kx+IF+0VVM0mHK2dTolin8G7pWGulhtDfXuFCxQMeY5/k8A4j9nybRHh
X59yJi3wGBshyR5FadD7Sgka0pXQuoWraouyO3nJGXsqzGi8B7X/kPq/9/1XWmCo
b7mqs1mavG7V2ovMFa1Mysu2TQlCbGoGkrS7RAG+Eow4PQIDAQABo4GiMIGfMAkG
A1UdEwQCMAAwHQYDVR0OBBYEFL2QDCYKdkiX7lWsV0Y6uOu0XcPsMFEGA1UdIwRK
MEiAFI4aYtRb7GXWa8Fx2P2EGqz4j0+BoRqkGDAWMRQwEgYDVQQDDAt0ZWFtMTI5
LW5ldIIUZwlTZcxM+aPps2OSA2IfK6AFzc8wEwYDVR0lBAwwCgYIKwYBBQUHAwIw
CwYDVR0PBAQDAgeAMA0GCSqGSIb3DQEBCwUAA4IBAQCM+vV4uF45l8d0AO6fU0dp
8K5k9kOsbPWjwgOKO0kVa/Uc2UEO3HTWZFdpb9f6/V4d9UAaA5z231ufF9j5nNmT
EDjGHC2OcPRd/DVTeXBIEdgWO5JTeTkMjDER+MrMfMKfaKKKZp5/wASftGjR4Vx3
HA/N7MwbR2vnY+U7cT0uqaP5BSgPewEbqRjZTbOEjLJjeTpUwQvVNtuSrek/nyBH
uPZPmYUUkqgVt+wF4Etn4JEH0cmBdegJmRYid1W5VIsCHvJ6W2UAuef6B1BVh3hq
X6R97AO+nf4oD/3q3O1V9Xs0blWbpac309bS4JBBA/W/unq6lj9cJai3/ajhB5dy
-----END CERTIFICATE-----
