Certificate:
    Data:
        Version: 3 (0x2)
        Serial Number:
            fe:9e:f7:28:d2:ff:92:44:6e:9a:c6:33:ee:4e:0c:bb
        Signature Algorithm: sha256WithRSAEncryption
        Issuer: CN=team129-net
        Validity
            Not Before: May 18 15:06:59 2022 GMT
            Not After : May  2 15:06:59 2025 GMT
        Subject: CN=team129-server
        Subject Public Key Info:
            Public Key Algorithm: rsaEncryption
                RSA Public-Key: (2048 bit)
                Modulus:
                    00:d2:7e:94:69:be:b7:a1:65:53:b3:17:1c:fa:61:
                    3f:8d:61:ff:18:9e:4a:07:b3:fc:b5:45:7d:8d:db:
                    42:97:ba:fc:01:0e:ab:f9:2b:72:15:cb:1c:cb:b9:
                    c6:c7:94:03:66:ee:b5:b6:3b:c1:08:e7:1e:32:d0:
                    c6:27:d9:57:79:5f:f6:49:12:53:f1:e7:82:3a:86:
                    72:96:98:29:31:06:a7:00:1f:33:25:cb:dc:87:37:
                    6d:9a:9f:4b:9a:89:7b:82:57:f6:5f:5a:8d:f3:56:
                    e2:05:3f:59:69:0f:12:2f:38:1c:26:8c:c1:a7:1e:
                    f2:82:78:c6:be:e2:ab:6f:3d:3b:5c:ff:d1:66:1d:
                    02:71:52:aa:e6:1d:92:63:c8:3e:41:51:39:c1:2e:
                    c5:1a:2a:35:5b:b6:f0:a0:27:18:a3:7c:78:64:5b:
                    6c:eb:cd:2c:4b:fa:20:dc:38:eb:3b:12:71:2d:f5:
                    7e:53:c0:85:c9:3e:ca:20:0f:c4:5a:5a:ff:75:53:
                    76:e0:74:77:1e:af:b0:bf:a6:0d:a3:23:08:f9:4e:
                    1d:86:c3:fe:d7:03:f3:3f:ca:35:32:52:fc:d6:40:
                    2c:da:f4:ea:d2:be:60:28:0a:91:72:27:c0:e5:3a:
                    74:54:b5:df:85:49:ad:4b:b5:55:58:42:73:1d:0b:
                    4e:e5
                Exponent: 65537 (0x10001)
        X509v3 extensions:
            X509v3 Basic Constraints: 
                CA:FALSE
            X509v3 Subject Key Identifier: 
                66:E3:E1:74:81:0D:6E:45:13:31:93:68:02:21:18:43:98:7F:C0:74
            X509v3 Authority Key Identifier: 
                keyid:8E:1A:62:D4:5B:EC:65:D6:6B:C1:71:D8:FD:84:1A:AC:F8:8F:4F:81
                DirName:/CN=team129-net
                serial:67:09:53:65:CC:4C:F9:A3:E9:B3:63:92:03:62:1F:2B:A0:05:CD:CF

            X509v3 Extended Key Usage: 
                TLS Web Server Authentication
            X509v3 Key Usage: 
                Digital Signature, Key Encipherment
            X509v3 Subject Alternative Name: 
                DNS:team129-server
    Signature Algorithm: sha256WithRSAEncryption
         5e:48:b1:51:a6:d4:ec:d4:22:91:6c:c2:47:ab:71:8a:ba:f2:
         5d:3e:11:4b:db:9f:45:76:e0:22:ab:76:12:b1:d8:8e:07:e4:
         71:65:95:4c:8a:aa:90:de:cb:bb:0c:a2:59:14:0d:6c:75:4f:
         18:6d:42:c1:f4:fe:cd:bd:96:c1:ac:4b:a1:0f:53:02:b1:36:
         8a:b0:1f:3a:99:be:0d:c7:a1:63:d3:9a:6a:4e:70:74:87:80:
         90:bf:da:76:24:1e:59:2a:8d:6b:c3:63:9f:fa:b2:bd:76:66:
         a5:17:9f:4e:0d:0f:6d:0e:2b:6c:5a:fd:ee:2c:90:e0:50:93:
         35:8e:29:ba:71:ba:81:2c:12:eb:f4:24:8f:6b:72:e2:e9:57:
         48:48:26:ac:9f:0b:ed:fc:44:a6:1b:2c:15:f4:b7:6d:dc:b8:
         06:40:e5:36:18:04:45:56:ce:8f:f7:ef:09:4a:f5:e6:b4:8a:
         0a:4f:ca:23:73:4d:fd:bd:25:fc:c9:41:43:a7:bd:83:fe:a5:
         f9:a4:0c:ba:69:c4:3e:05:e0:84:e4:61:21:f1:ad:53:14:2c:
         a6:20:94:40:fa:3c:1d:80:a4:04:cd:5e:ed:38:e5:57:42:5a:
         6b:09:1c:2d:80:e0:63:93:e2:1b:47:07:6d:89:2c:8a:59:00:
         59:10:a2:1a
-----BEGIN CERTIFICATE-----
MIIDeDCCAmCgAwIBAgIRAP6e9yjS/5JEbprGM+5ODLswDQYJKoZIhvcNAQELBQAw
FjEUMBIGA1UEAwwLdGVhbTEyOS1uZXQwHhcNMjIwNTE4MTUwNjU5WhcNMjUwNTAy
MTUwNjU5WjAZMRcwFQYDVQQDDA50ZWFtMTI5LXNlcnZlcjCCASIwDQYJKoZIhvcN
AQEBBQADggEPADCCAQoCggEBANJ+lGm+t6FlU7MXHPphP41h/xieSgez/LVFfY3b
Qpe6/AEOq/krchXLHMu5xseUA2butbY7wQjnHjLQxifZV3lf9kkSU/HngjqGcpaY
KTEGpwAfMyXL3Ic3bZqfS5qJe4JX9l9ajfNW4gU/WWkPEi84HCaMwace8oJ4xr7i
q289O1z/0WYdAnFSquYdkmPIPkFROcEuxRoqNVu28KAnGKN8eGRbbOvNLEv6INw4
6zsScS31flPAhck+yiAPxFpa/3VTduB0dx6vsL+mDaMjCPlOHYbD/tcD8z/KNTJS
/NZALNr06tK+YCgKkXInwOU6dFS134VJrUu1VVhCcx0LTuUCAwEAAaOBvTCBujAJ
BgNVHRMEAjAAMB0GA1UdDgQWBBRm4+F0gQ1uRRMxk2gCIRhDmH/AdDBRBgNVHSME
SjBIgBSOGmLUW+xl1mvBcdj9hBqs+I9PgaEapBgwFjEUMBIGA1UEAwwLdGVhbTEy
OS1uZXSCFGcJU2XMTPmj6bNjkgNiHyugBc3PMBMGA1UdJQQMMAoGCCsGAQUFBwMB
MAsGA1UdDwQEAwIFoDAZBgNVHREEEjAQgg50ZWFtMTI5LXNlcnZlcjANBgkqhkiG
9w0BAQsFAAOCAQEAXkixUabU7NQikWzCR6txirryXT4RS9ufRXbgIqt2ErHYjgfk
cWWVTIqqkN7LuwyiWRQNbHVPGG1CwfT+zb2WwaxLoQ9TArE2irAfOpm+DcehY9Oa
ak5wdIeAkL/adiQeWSqNa8Njn/qyvXZmpRefTg0PbQ4rbFr97iyQ4FCTNY4punG6
gSwS6/Qkj2ty4ulXSEgmrJ8L7fxEphssFfS3bdy4BkDlNhgERVbOj/fvCUr15rSK
Ck/KI3NN/b0l/MlBQ6e9g/6l+aQMumnEPgXghORhIfGtUxQspiCUQPo8HYCkBM1e
7TjlV0JaawkcLYDgY5PiG0cHbYksilkAWRCiGg==
-----END CERTIFICATE-----
