Certificate:
    Data:
        Version: 3 (0x2)
        Serial Number:
            92:e5:16:35:2a:d2:fb:88:55:7e:9f:79:2b:b5:42:60
        Signature Algorithm: sha256WithRSAEncryption
        Issuer: CN=team483-net
        Validity
            Not Before: May 18 21:35:23 2022 GMT
            Not After : May  2 21:35:23 2025 GMT
        Subject: CN=team483-client
        Subject Public Key Info:
            Public Key Algorithm: rsaEncryption
                RSA Public-Key: (2048 bit)
                Modulus:
                    00:d7:65:35:98:5d:b5:61:d9:3b:7a:04:2c:ce:e8:
                    50:3d:93:44:5f:5a:49:c7:c8:ee:02:a1:97:db:df:
                    e1:ac:ba:72:61:09:e8:01:e4:41:2b:27:64:9e:f4:
                    0d:38:dc:16:a1:9d:30:f9:fc:4e:4b:1f:01:ca:84:
                    b6:25:a4:d8:2d:91:3b:95:3f:c9:6b:0a:c6:6c:30:
                    bc:f8:14:a8:e9:25:90:2e:b3:b8:4c:ac:7b:3e:6b:
                    a1:f5:98:75:63:eb:7d:3e:c2:93:c9:9b:95:88:e1:
                    a5:d8:01:a4:4f:fb:30:aa:4a:11:57:f8:7c:fe:f6:
                    fd:5f:87:87:1d:aa:62:00:39:1f:f9:73:28:e2:e8:
                    ac:fd:77:4d:4f:40:62:f5:00:bf:00:e7:13:ab:b7:
                    9e:00:d0:c8:13:0c:e0:9b:bc:2b:a5:b9:74:d2:cd:
                    4a:8d:58:1b:b3:a4:76:87:14:1e:25:66:95:69:fd:
                    39:44:cf:3e:87:e2:16:4e:ef:14:c8:75:24:f8:ac:
                    93:fc:6c:e1:b6:93:09:da:22:a3:b0:25:05:09:39:
                    aa:32:27:63:74:ff:84:50:c8:ea:eb:7b:d1:8e:df:
                    cc:d3:d9:50:06:c4:40:f3:86:66:5d:7a:16:58:11:
                    e5:c5:fa:c7:d3:ce:ca:03:63:aa:7c:07:8f:2f:4d:
                    e2:eb
                Exponent: 65537 (0x10001)
        X509v3 extensions:
            X509v3 Basic Constraints: 
                CA:FALSE
            X509v3 Subject Key Identifier: 
                56:4C:E0:86:55:89:EE:7C:07:4A:A5:80:B3:AD:49:E0:53:65:D7:F3
            X509v3 Authority Key Identifier: 
                keyid:83:8B:94:94:2E:B3:8A:53:DE:FE:D1:F9:F1:A3:8E:EF:96:38:D1:33
                DirName:/CN=team483-net
                serial:0B:5B:E7:42:A9:73:47:62:9D:57:5A:D6:CC:8A:A1:6D:6F:EE:FF:01

            X509v3 Extended Key Usage: 
                TLS Web Client Authentication
            X509v3 Key Usage: 
                Digital Signature
    Signature Algorithm: sha256WithRSAEncryption
         31:e1:a9:fe:43:24:38:3e:0b:ba:4a:ba:85:c5:ae:33:d0:8a:
         fb:a9:e8:45:4f:e3:5d:32:2b:36:e8:ba:89:e5:d9:20:d5:75:
         c6:b5:71:4c:83:b2:93:0b:f6:3a:6f:d5:7e:2c:0b:42:de:ff:
         90:fb:b0:1c:2a:7d:ac:0e:5a:96:8b:fc:41:58:5a:99:6f:b0:
         26:6f:31:10:32:c8:31:eb:f5:21:ed:2b:05:55:d1:da:2e:23:
         d3:ac:b9:25:5a:fc:96:79:85:f7:07:0c:53:03:f8:7f:a1:f8:
         6c:1d:2d:d0:ca:01:b5:65:75:81:08:d8:d8:1e:97:fd:9b:f1:
         83:1f:a7:b5:ec:6f:8e:64:22:1c:5d:5a:72:13:af:43:6d:ba:
         95:19:b2:31:b3:2a:16:d5:01:7b:e9:f7:cf:fa:40:27:65:f5:
         d9:bf:4f:8d:5d:58:9f:71:04:f0:c1:5b:1e:65:cb:45:f9:5f:
         40:5a:49:8c:40:c4:a4:8f:e1:aa:c1:bc:5b:de:0b:d0:cf:83:
         2d:e2:b0:e6:ef:24:b1:4a:14:a1:24:bb:32:15:f1:31:53:d7:
         97:1b:58:1b:48:d3:ea:da:9d:69:8f:37:ee:a7:cd:46:4e:5a:
         5b:43:a4:1d:cd:2d:24:9c:f5:f0:71:37:bb:7e:c3:9f:db:54:
         8b:92:f2:ac
-----BEGIN CERTIFICATE-----
MIIDXTCCAkWgAwIBAgIRAJLlFjUq0vuIVX6feSu1QmAwDQYJKoZIhvcNAQELBQAw
FjEUMBIGA1UEAwwLdGVhbTQ4My1uZXQwHhcNMjIwNTE4MjEzNTIzWhcNMjUwNTAy
MjEzNTIzWjAZMRcwFQYDVQQDDA50ZWFtNDgzLWNsaWVudDCCASIwDQYJKoZIhvcN
AQEBBQADggEPADCCAQoCggEBANdlNZhdtWHZO3oELM7oUD2TRF9aScfI7gKhl9vf
4ay6cmEJ6AHkQSsnZJ70DTjcFqGdMPn8TksfAcqEtiWk2C2RO5U/yWsKxmwwvPgU
qOklkC6zuEysez5rofWYdWPrfT7Ck8mblYjhpdgBpE/7MKpKEVf4fP72/V+Hhx2q
YgA5H/lzKOLorP13TU9AYvUAvwDnE6u3ngDQyBMM4Ju8K6W5dNLNSo1YG7OkdocU
HiVmlWn9OUTPPofiFk7vFMh1JPisk/xs4baTCdoio7AlBQk5qjInY3T/hFDI6ut7
0Y7fzNPZUAbEQPOGZl16FlgR5cX6x9POygNjqnwHjy9N4usCAwEAAaOBojCBnzAJ
BgNVHRMEAjAAMB0GA1UdDgQWBBRWTOCGVYnufAdKpYCzrUngU2XX8zBRBgNVHSME
SjBIgBSDi5SULrOKU97+0fnxo47vljjRM6EapBgwFjEUMBIGA1UEAwwLdGVhbTQ4
My1uZXSCFAtb50Kpc0dinVda1syKoW1v7v8BMBMGA1UdJQQMMAoGCCsGAQUFBwMC
MAsGA1UdDwQEAwIHgDANBgkqhkiG9w0BAQsFAAOCAQEAMeGp/kMkOD4Lukq6hcWu
M9CK+6noRU/jXTIrNui6ieXZINV1xrVxTIOykwv2Om/VfiwLQt7/kPuwHCp9rA5a
lov8QVhamW+wJm8xEDLIMev1Ie0rBVXR2i4j06y5JVr8lnmF9wcMUwP4f6H4bB0t
0MoBtWV1gQjY2B6X/Zvxgx+ntexvjmQiHF1achOvQ226lRmyMbMqFtUBe+n3z/pA
J2X12b9PjV1Yn3EE8MFbHmXLRflfQFpJjEDEpI/hqsG8W94L0M+DLeKw5u8ksUoU
oSS7MhXxMVPXlxtYG0jT6tqdaY837qfNRk5aW0OkHc0tJJz18HE3u37Dn9tUi5Ly
rA==
-----END CERTIFICATE-----
