Certificate:
    Data:
        Version: 3 (0x2)
        Serial Number:
            1b:97:0c:1a:95:f1:f0:3f:26:f7:bf:18:ff:a9:a9:e5
        Signature Algorithm: sha256WithRSAEncryption
        Issuer: CN=team516-net
        Validity
            Not Before: May 18 21:54:41 2022 GMT
            Not After : May  2 21:54:41 2025 GMT
        Subject: CN=team516-server
        Subject Public Key Info:
            Public Key Algorithm: rsaEncryption
                RSA Public-Key: (2048 bit)
                Modulus:
                    00:98:b6:8b:f1:53:f8:b2:91:72:cb:5c:49:92:a2:
                    7e:dd:bb:3a:5c:a2:87:b1:c5:a2:10:62:cf:24:80:
                    19:60:e4:9c:22:32:3b:6b:9c:93:41:4a:99:13:91:
                    71:f1:89:e0:57:69:c3:be:29:86:e2:26:bb:15:9b:
                    e0:ee:f9:c1:cf:ad:98:cc:13:d8:92:ce:af:f5:db:
                    ee:01:07:a2:7e:b6:25:f2:9a:a6:79:15:d7:b8:8a:
                    5c:72:ca:1b:8c:0a:d0:46:dd:09:3f:af:1f:f0:06:
                    f5:96:98:c5:92:44:76:74:0b:fd:e3:8d:61:b6:e7:
                    46:83:80:37:8e:ea:13:34:97:ba:a9:cd:97:b6:27:
                    60:4f:3f:7b:48:1c:1c:2c:7b:46:3d:d6:dc:0f:65:
                    1e:c0:b9:77:01:a8:af:78:3b:e3:35:13:54:f9:76:
                    11:57:5f:2d:d5:57:24:3f:e8:bb:0e:c2:b6:ed:80:
                    05:e2:46:5d:1d:fa:d6:a6:d8:4b:c5:db:36:84:f7:
                    0d:d2:17:f2:b3:db:82:50:81:51:4f:9f:83:ba:c5:
                    af:35:90:ff:37:68:1b:ab:c0:a9:56:bc:d5:b5:42:
                    cc:b8:4e:85:22:aa:0a:e8:0a:0e:10:e2:63:74:2d:
                    85:b6:56:ff:58:5c:05:79:26:6e:b7:96:90:68:1c:
                    59:cb
                Exponent: 65537 (0x10001)
        X509v3 extensions:
            X509v3 Basic Constraints: 
                CA:FALSE
            X509v3 Subject Key Identifier: 
                D1:C7:A5:97:95:40:70:0E:BA:7F:EC:6A:A0:D1:FA:A5:6B:48:EE:DE
            X509v3 Authority Key Identifier: 
                keyid:99:6F:AC:93:B0:D9:7D:75:B4:14:CD:A3:C3:B5:25:A9:B1:47:8A:8F
                DirName:/CN=team516-net
                serial:0B:D9:3C:36:66:51:E2:43:60:44:40:61:08:CE:3B:97:70:3D:F0:53

            X509v3 Extended Key Usage: 
                TLS Web Server Authentication
            X509v3 Key Usage: 
                Digital Signature, Key Encipherment
            X509v3 Subject Alternative Name: 
                DNS:team516-server
    Signature Algorithm: sha256WithRSAEncryption
         41:0c:c3:d7:e2:0e:36:de:84:0f:b0:58:35:bc:01:2a:a6:61:
         8b:cb:6d:0c:ae:06:09:a9:b0:eb:9d:c6:8f:0d:37:54:f7:88:
         b3:00:a8:6b:b3:4d:31:1d:22:49:68:31:31:90:98:1e:80:21:
         2a:25:b9:43:ea:50:e1:94:fa:be:33:27:5b:a7:19:94:ee:34:
         55:86:b1:52:00:02:66:1b:9d:70:65:b0:a3:43:d2:0c:7f:6c:
         06:47:41:8e:00:f3:ee:ec:7f:50:60:47:e3:c0:29:46:0e:b5:
         f5:f7:89:5d:f6:8b:ef:a9:9a:54:d9:ff:1e:2e:02:b3:cc:59:
         54:60:a2:c2:08:a5:b1:33:1a:cc:f6:5e:5b:4c:23:34:94:0a:
         58:00:72:bf:a1:34:b5:ba:a1:ee:05:8e:5a:0e:24:15:ce:6a:
         ed:54:a5:bd:68:a9:97:33:cb:ee:17:49:bd:1b:0f:c8:34:56:
         c9:b2:4f:3d:68:df:1e:a9:99:f2:c4:65:ff:7e:9f:ca:09:99:
         1b:d2:ec:bf:cd:d8:aa:b8:7d:f1:33:eb:6b:26:2d:e5:1d:b4:
         e4:8f:e4:37:e3:bd:9d:b3:35:21:30:14:74:d1:ff:c2:a6:de:
         c9:f0:d8:b8:68:0c:ef:31:e2:2c:f4:13:30:dc:f9:34:a9:a5:
         00:68:70:57
-----BEGIN CERTIFICATE-----
MIIDdzCCAl+gAwIBAgIQG5cMGpXx8D8m978Y/6mp5TANBgkqhkiG9w0BAQsFADAW
MRQwEgYDVQQDDAt0ZWFtNTE2LW5ldDAeFw0yMjA1MTgyMTU0NDFaFw0yNTA1MDIy
MTU0NDFaMBkxFzAVBgNVBAMMDnRlYW01MTYtc2VydmVyMIIBIjANBgkqhkiG9w0B
AQEFAAOCAQ8AMIIBCgKCAQEAmLaL8VP4spFyy1xJkqJ+3bs6XKKHscWiEGLPJIAZ
YOScIjI7a5yTQUqZE5Fx8YngV2nDvimG4ia7FZvg7vnBz62YzBPYks6v9dvuAQei
frYl8pqmeRXXuIpccsobjArQRt0JP68f8Ab1lpjFkkR2dAv9441htudGg4A3juoT
NJe6qc2XtidgTz97SBwcLHtGPdbcD2UewLl3AaiveDvjNRNU+XYRV18t1VckP+i7
DsK27YAF4kZdHfrWpthLxds2hPcN0hfys9uCUIFRT5+DusWvNZD/N2gbq8CpVrzV
tULMuE6FIqoK6AoOEOJjdC2Ftlb/WFwFeSZut5aQaBxZywIDAQABo4G9MIG6MAkG
A1UdEwQCMAAwHQYDVR0OBBYEFNHHpZeVQHAOun/saqDR+qVrSO7eMFEGA1UdIwRK
MEiAFJlvrJOw2X11tBTNo8O1JamxR4qPoRqkGDAWMRQwEgYDVQQDDAt0ZWFtNTE2
LW5ldIIUC9k8NmZR4kNgREBhCM47l3A98FMwEwYDVR0lBAwwCgYIKwYBBQUHAwEw
CwYDVR0PBAQDAgWgMBkGA1UdEQQSMBCCDnRlYW01MTYtc2VydmVyMA0GCSqGSIb3
DQEBCwUAA4IBAQBBDMPX4g423oQPsFg1vAEqpmGLy20MrgYJqbDrncaPDTdU94iz
AKhrs00xHSJJaDExkJgegCEqJblD6lDhlPq+MydbpxmU7jRVhrFSAAJmG51wZbCj
Q9IMf2wGR0GOAPPu7H9QYEfjwClGDrX194ld9ovvqZpU2f8eLgKzzFlUYKLCCKWx
MxrM9l5bTCM0lApYAHK/oTS1uqHuBY5aDiQVzmrtVKW9aKmXM8vuF0m9Gw/INFbJ
sk89aN8eqZnyxGX/fp/KCZkb0uy/zdiquH3xM+trJi3lHbTkj+Q3472dszUhMBR0
0f/Cpt7J8Ni4aAzvMeIs9BMw3Pk0qaUAaHBX
-----END CERTIFICATE-----
