Certificate:
    Data:
        Version: 3 (0x2)
        Serial Number:
            89:cb:48:fb:8a:31:55:d0:10:9d:ec:01:9d:46:e9:04
        Signature Algorithm: sha256WithRSAEncryption
        Issuer: CN=team254-net
        Validity
            Not Before: May 18 19:40:21 2022 GMT
            Not After : May  2 19:40:21 2025 GMT
        Subject: CN=team254-client
        Subject Public Key Info:
            Public Key Algorithm: rsaEncryption
                RSA Public-Key: (2048 bit)
                Modulus:
                    00:d4:ff:08:ea:47:9d:b9:21:2f:f2:25:5b:9f:72:
                    4b:74:17:35:ba:de:f2:8c:f9:4c:85:53:03:1c:49:
                    20:88:3a:b1:4e:55:0a:bb:3f:08:5f:71:d7:0b:18:
                    e9:d1:ce:bf:64:8f:88:21:ff:34:0f:be:2f:67:db:
                    b6:db:96:f2:6d:64:a9:0d:a9:f8:48:c6:f5:ff:79:
                    18:f9:78:cf:72:bf:5c:a8:09:f3:0b:aa:e9:17:18:
                    ce:ac:9c:4b:9c:47:c7:f4:3d:91:fc:2c:c7:da:96:
                    c0:4b:ed:13:a9:24:a9:b2:75:ea:7c:08:1c:d7:84:
                    c9:ae:b6:a4:fa:63:ef:eb:17:b1:ba:62:f7:94:a1:
                    2d:8a:30:39:fe:11:0b:c9:1d:8e:d3:46:06:71:1d:
                    0e:39:97:45:42:a4:89:36:15:e9:46:83:40:8f:5d:
                    45:11:f5:9a:2a:08:bc:87:0f:17:24:2b:db:da:e6:
                    76:e4:54:c7:2e:cb:3e:2d:c8:a3:17:d4:23:71:06:
                    9e:7b:f7:7a:2d:bd:e2:af:98:cb:0a:d3:08:e8:d5:
                    e1:20:dd:94:c5:51:80:69:67:10:4c:f1:e2:ff:99:
                    04:cf:e1:94:88:4d:5f:1c:11:e1:d2:b9:43:71:4a:
                    57:84:bb:da:2e:7b:76:4a:23:f1:0c:59:ca:d6:eb:
                    26:99
                Exponent: 65537 (0x10001)
        X509v3 extensions:
            X509v3 Basic Constraints: 
                CA:FALSE
            X509v3 Subject Key Identifier: 
                2A:EB:DD:C3:7F:62:CF:9D:ED:AC:C2:8B:C4:E2:61:01:69:FD:1D:A5
            X509v3 Authority Key Identifier: 
                keyid:61:60:BA:BF:50:1B:C3:62:05:CA:AC:B4:89:2F:59:4B:61:1C:AE:6A
                DirName:/CN=team254-net
                serial:1E:3A:A5:5A:64:0E:F9:38:4A:FC:FF:CA:F6:33:16:01:2D:15:D4:F3

            X509v3 Extended Key Usage: 
                TLS Web Client Authentication
            X509v3 Key Usage: 
                Digital Signature
    Signature Algorithm: sha256WithRSAEncryption
         87:61:76:0c:c6:7c:dc:d7:e9:ae:ce:c8:9b:d3:cf:ff:76:05:
         12:48:c1:0f:13:b2:ec:b8:1f:3e:8f:86:d5:aa:73:ac:80:f0:
         99:b5:b8:6c:f8:f8:e0:10:0b:5f:8f:bd:5a:c0:f9:ea:42:ca:
         8b:4c:b5:e4:a2:10:32:91:65:41:57:9d:27:c3:05:20:f4:41:
         86:bb:0a:32:b3:25:d5:bb:ae:46:fe:0f:7f:51:fe:53:98:79:
         50:0a:8d:e4:5e:49:82:4f:c7:d9:90:df:c1:74:00:cd:92:f7:
         11:c5:e2:c5:5f:c6:3b:50:35:59:5f:d9:3e:fe:43:24:8a:83:
         e3:73:2e:e5:d3:9d:a3:9e:db:d4:1d:46:a3:b2:4f:66:e5:a8:
         0f:c1:ca:33:86:b2:22:04:9d:62:36:38:f0:95:76:d9:28:b8:
         7a:d4:3c:42:c1:58:fb:1d:5d:fb:12:ce:9a:3f:45:10:1e:37:
         7a:c1:ab:59:72:91:fd:90:ee:96:69:86:f0:12:11:94:67:a2:
         60:0e:e9:af:ce:d4:7f:48:30:78:e6:05:f3:40:a6:6e:8f:78:
         03:95:15:89:86:7b:ea:b4:26:05:ff:d0:a4:10:da:91:6b:4d:
         81:64:3c:3a:ed:68:8f:21:11:df:0d:33:35:75:e9:4e:cf:0e:
         74:fb:c3:b1
-----BEGIN CERTIFICATE-----
MIIDXTCCAkWgAwIBAgIRAInLSPuKMVXQEJ3sAZ1G6QQwDQYJKoZIhvcNAQELBQAw
FjEUMBIGA1UEAwwLdGVhbTI1NC1uZXQwHhcNMjIwNTE4MTk0MDIxWhcNMjUwNTAy
MTk0MDIxWjAZMRcwFQYDVQQDDA50ZWFtMjU0LWNsaWVudDCCASIwDQYJKoZIhvcN
AQEBBQADggEPADCCAQoCggEBANT/COpHnbkhL/IlW59yS3QXNbre8oz5TIVTAxxJ
IIg6sU5VCrs/CF9x1wsY6dHOv2SPiCH/NA++L2fbttuW8m1kqQ2p+EjG9f95GPl4
z3K/XKgJ8wuq6RcYzqycS5xHx/Q9kfwsx9qWwEvtE6kkqbJ16nwIHNeEya62pPpj
7+sXsbpi95ShLYowOf4RC8kdjtNGBnEdDjmXRUKkiTYV6UaDQI9dRRH1mioIvIcP
FyQr29rmduRUxy7LPi3IoxfUI3EGnnv3ei294q+YywrTCOjV4SDdlMVRgGlnEEzx
4v+ZBM/hlIhNXxwR4dK5Q3FKV4S72i57dkoj8QxZytbrJpkCAwEAAaOBojCBnzAJ
BgNVHRMEAjAAMB0GA1UdDgQWBBQq693Df2LPne2swovE4mEBaf0dpTBRBgNVHSME
SjBIgBRhYLq/UBvDYgXKrLSJL1lLYRyuaqEapBgwFjEUMBIGA1UEAwwLdGVhbTI1
NC1uZXSCFB46pVpkDvk4Svz/yvYzFgEtFdTzMBMGA1UdJQQMMAoGCCsGAQUFBwMC
MAsGA1UdDwQEAwIHgDANBgkqhkiG9w0BAQsFAAOCAQEAh2F2DMZ83Nfprs7Im9PP
/3YFEkjBDxOy7LgfPo+G1apzrIDwmbW4bPj44BALX4+9WsD56kLKi0y15KIQMpFl
QVedJ8MFIPRBhrsKMrMl1buuRv4Pf1H+U5h5UAqN5F5Jgk/H2ZDfwXQAzZL3EcXi
xV/GO1A1WV/ZPv5DJIqD43Mu5dOdo57b1B1Go7JPZuWoD8HKM4ayIgSdYjY48JV2
2Si4etQ8QsFY+x1d+xLOmj9FEB43esGrWXKR/ZDulmmG8BIRlGeiYA7pr87Uf0gw
eOYF80Cmbo94A5UViYZ76rQmBf/QpBDakWtNgWQ8Ou1ojyER3w0zNXXpTs8OdPvD
sQ==
-----END CERTIFICATE-----
