Certificate:
    Data:
        Version: 3 (0x2)
        Serial Number:
            8f:d4:8c:4e:b0:ea:db:ca:e6:1d:41:e5:50:36:7f:02
        Signature Algorithm: sha256WithRSAEncryption
        Issuer: CN=team23-net
        Validity
            Not Before: May 18 14:03:19 2022 GMT
            Not After : May  2 14:03:19 2025 GMT
        Subject: CN=team23-client
        Subject Public Key Info:
            Public Key Algorithm: rsaEncryption
                RSA Public-Key: (2048 bit)
                Modulus:
                    00:9c:8e:c8:cd:5a:de:1d:0d:8f:39:ca:80:b9:88:
                    82:6c:5f:8a:42:b0:8c:93:ae:c5:20:d3:5d:74:95:
                    d2:1f:fb:fe:91:4d:93:0f:b6:ed:39:ff:e9:59:88:
                    02:69:0b:27:1a:98:17:dd:32:bf:c4:33:1f:2b:bf:
                    92:3d:4b:fb:35:4f:d6:b1:4b:6c:fa:97:5e:1c:8a:
                    1a:1f:43:20:0b:3e:1c:f8:b5:64:ce:9e:b5:5d:e3:
                    ec:ce:64:3f:93:25:87:92:35:9d:63:98:34:ed:5c:
                    b1:a3:cb:38:11:6e:72:50:59:a9:e7:6b:b4:40:31:
                    a7:c6:6f:13:97:62:95:5a:08:3a:7e:2f:22:b5:c4:
                    12:e0:05:65:80:ef:ed:8d:fb:e1:75:8c:b4:da:a5:
                    f1:6b:c7:6d:1f:a3:f6:c1:78:4d:75:0a:8d:01:02:
                    6f:48:9a:7d:67:cb:dd:5a:f6:2c:63:de:a5:0f:c3:
                    92:54:fd:aa:1c:c7:de:19:a8:81:87:ba:08:97:72:
                    c3:cb:35:ae:3d:51:6c:93:c7:6b:dc:fe:95:b6:a5:
                    29:00:fb:5d:6a:a8:a4:b7:8f:fa:a5:a3:f8:51:b5:
                    fa:7c:89:30:71:12:58:73:ed:44:14:e3:8f:95:25:
                    ce:67:2f:75:0e:c0:b0:c5:9a:26:01:1b:ac:4a:69:
                    66:9b
                Exponent: 65537 (0x10001)
        X509v3 extensions:
            X509v3 Basic Constraints: 
                CA:FALSE
            X509v3 Subject Key Identifier: 
                0E:36:46:95:D4:1D:27:1A:E1:6D:CD:DC:98:D7:E8:A7:34:78:6D:87
            X509v3 Authority Key Identifier: 
                keyid:C5:76:66:DB:12:E9:45:82:FB:79:FD:86:E9:0D:70:D1:33:B2:04:8C
                DirName:/CN=team23-net
                serial:5B:D9:D1:F2:C9:97:EE:A5:35:5D:D5:3E:07:E0:D6:09:60:30:F1:5A

            X509v3 Extended Key Usage: 
                TLS Web Client Authentication
            X509v3 Key Usage: 
                Digital Signature
    Signature Algorithm: sha256WithRSAEncryption
         4d:84:e1:4e:0e:a0:44:c8:9a:e7:25:28:dd:62:90:e5:2e:19:
         43:ac:22:76:63:ea:76:e8:72:f5:47:df:bc:da:ec:d5:d9:10:
         0d:a6:75:99:44:a8:75:a8:22:a6:14:77:94:36:ec:e2:fe:fd:
         fe:65:3c:0d:90:01:26:a1:38:83:62:1c:1f:e7:65:05:77:ae:
         1d:09:b8:1d:df:77:fd:70:1e:1b:aa:75:a1:7e:39:e6:be:cc:
         e5:8e:3f:54:50:80:50:2a:c8:e7:c7:e1:89:d3:c2:45:04:49:
         aa:06:43:7c:f2:cf:d4:42:2d:c9:d4:c4:3c:e5:4e:c0:53:fd:
         b4:77:03:dc:04:bd:5a:1f:6f:d6:b8:22:75:d9:07:4e:56:3b:
         fa:98:f9:38:3c:ed:07:da:fc:5a:20:11:5f:76:c4:d8:86:fd:
         89:69:84:5d:8d:73:f3:68:80:b5:d5:1e:af:52:ed:c7:7a:30:
         91:fd:6c:49:79:f6:d1:b8:af:a4:7a:38:f5:c0:f9:27:f3:c0:
         84:63:14:57:d0:83:c3:45:f0:b3:7b:36:5c:5a:9a:16:97:35:
         e9:39:c2:13:20:fb:ce:00:2e:75:b5:9b:dc:d7:f5:93:76:9c:
         b9:c7:08:34:fd:95:35:cd:cb:f5:77:67:01:02:b8:2c:af:f9:
         e4:6a:1d:c3
-----BEGIN CERTIFICATE-----
MIIDWjCCAkKgAwIBAgIRAI/UjE6w6tvK5h1B5VA2fwIwDQYJKoZIhvcNAQELBQAw
FTETMBEGA1UEAwwKdGVhbTIzLW5ldDAeFw0yMjA1MTgxNDAzMTlaFw0yNTA1MDIx
NDAzMTlaMBgxFjAUBgNVBAMMDXRlYW0yMy1jbGllbnQwggEiMA0GCSqGSIb3DQEB
AQUAA4IBDwAwggEKAoIBAQCcjsjNWt4dDY85yoC5iIJsX4pCsIyTrsUg0110ldIf
+/6RTZMPtu05/+lZiAJpCycamBfdMr/EMx8rv5I9S/s1T9axS2z6l14cihofQyAL
Phz4tWTOnrVd4+zOZD+TJYeSNZ1jmDTtXLGjyzgRbnJQWanna7RAMafGbxOXYpVa
CDp+LyK1xBLgBWWA7+2N++F1jLTapfFrx20fo/bBeE11Co0BAm9Imn1ny91a9ixj
3qUPw5JU/aocx94ZqIGHugiXcsPLNa49UWyTx2vc/pW2pSkA+11qqKS3j/qlo/hR
tfp8iTBxElhz7UQU44+VJc5nL3UOwLDFmiYBG6xKaWabAgMBAAGjgaEwgZ4wCQYD
VR0TBAIwADAdBgNVHQ4EFgQUDjZGldQdJxrhbc3cmNfopzR4bYcwUAYDVR0jBEkw
R4AUxXZm2xLpRYL7ef2G6Q1w0TOyBIyhGaQXMBUxEzARBgNVBAMMCnRlYW0yMy1u
ZXSCFFvZ0fLJl+6lNV3VPgfg1glgMPFaMBMGA1UdJQQMMAoGCCsGAQUFBwMCMAsG
A1UdDwQEAwIHgDANBgkqhkiG9w0BAQsFAAOCAQEATYThTg6gRMia5yUo3WKQ5S4Z
Q6widmPqduhy9UffvNrs1dkQDaZ1mUSodagiphR3lDbs4v79/mU8DZABJqE4g2Ic
H+dlBXeuHQm4Hd93/XAeG6p1oX455r7M5Y4/VFCAUCrI58fhidPCRQRJqgZDfPLP
1EItydTEPOVOwFP9tHcD3AS9Wh9v1rgiddkHTlY7+pj5ODztB9r8WiARX3bE2Ib9
iWmEXY1z82iAtdUer1Ltx3owkf1sSXn20bivpHo49cD5J/PAhGMUV9CDw0Xws3s2
XFqaFpc16TnCEyD7zgAudbWb3Nf1k3acuccINP2VNc3L9XdnAQK4LK/55Godww==
-----END CERTIFICATE-----
