Certificate:
    Data:
        Version: 3 (0x2)
        Serial Number:
            f1:65:74:29:03:51:75:c1:94:cf:5b:ff:61:87:f6:80
        Signature Algorithm: sha256WithRSAEncryption
        Issuer: CN=team202-net
        Validity
            Not Before: May 18 19:03:14 2022 GMT
            Not After : May  2 19:03:14 2025 GMT
        Subject: CN=team202-client
        Subject Public Key Info:
            Public Key Algorithm: rsaEncryption
                RSA Public-Key: (2048 bit)
                Modulus:
                    00:b7:30:9c:09:cb:8c:7d:19:20:3d:1b:63:6a:48:
                    54:2e:23:87:d2:e6:57:a0:56:28:d7:91:2b:8e:73:
                    f2:83:7e:05:b1:c9:64:3f:f5:8b:3f:30:35:62:4d:
                    fd:86:60:5b:76:fa:42:91:97:10:8d:ae:a4:9c:b7:
                    8b:11:e1:a2:1f:98:1b:23:b8:ae:3f:3a:b0:5c:46:
                    aa:e4:73:58:86:87:4a:04:99:c7:c3:8f:e3:13:b3:
                    ad:67:35:b7:1f:27:fa:52:f0:c2:a9:a5:38:92:f3:
                    b2:c4:46:5a:fb:d1:ee:e7:60:ac:7d:f3:a1:62:e9:
                    47:5f:9f:b7:ae:41:e8:96:2e:c4:12:de:1c:de:f1:
                    58:5e:72:52:45:78:ec:4a:be:3a:a5:fb:99:71:05:
                    59:f8:91:31:2d:05:fc:75:d3:0d:05:71:57:a3:fc:
                    27:c4:a8:39:7a:cf:03:bb:dc:ac:f3:5d:f6:8f:7f:
                    a9:c8:5f:92:89:e9:47:69:50:91:4e:d5:b2:03:71:
                    5e:bd:c8:13:28:fc:44:d6:7d:c8:82:92:d9:cf:a7:
                    b9:a1:c2:9b:91:38:ed:6a:5c:12:3d:68:b1:e0:fe:
                    8d:e0:5d:c7:be:f4:1c:dc:8e:fc:68:19:22:a5:5d:
                    82:b3:b0:b7:b6:ac:27:a4:88:8e:ca:d7:d9:f0:b4:
                    8a:b1
                Exponent: 65537 (0x10001)
        X509v3 extensions:
            X509v3 Basic Constraints: 
                CA:FALSE
            X509v3 Subject Key Identifier: 
                BF:10:71:16:32:0E:AB:1B:32:17:4B:DC:E6:1A:87:E0:FC:AC:F5:EA
            X509v3 Authority Key Identifier: 
                keyid:61:D6:C9:04:02:73:3F:0B:D4:90:3A:9E:B4:19:0C:83:4A:A1:20:65
                DirName:/CN=team202-net
                serial:5E:B2:1E:57:CB:23:28:9D:D9:0B:9E:DB:C7:B8:EC:7F:45:88:D6:C3

            X509v3 Extended Key Usage: 
                TLS Web Client Authentication
            X509v3 Key Usage: 
                Digital Signature
    Signature Algorithm: sha256WithRSAEncryption
         40:4c:22:a9:e7:66:37:b6:17:56:b1:8d:3d:b6:ae:8c:bd:c9:
         eb:db:aa:83:cc:23:fd:c5:36:ab:dd:49:83:f5:c0:33:a6:33:
         9e:d8:a0:65:3f:d3:60:69:a9:42:3e:16:5f:7e:72:8b:8d:2e:
         d7:34:fa:08:50:4b:11:82:55:b6:30:83:40:8a:b3:5b:88:bf:
         df:7f:1e:d9:4d:dc:b3:7a:31:01:61:e1:d5:57:0c:a3:15:61:
         0a:53:c6:ea:b6:7e:de:52:45:91:55:a4:28:09:26:53:14:2c:
         a5:25:94:7c:4e:ed:fd:61:65:35:83:68:49:3b:f9:69:07:a1:
         11:ae:a9:00:68:01:e4:ea:0e:a0:a6:36:6b:29:43:33:21:86:
         1e:61:7a:e9:ab:9d:3c:1b:50:97:3a:ad:a3:a7:33:79:5f:31:
         4d:f7:0a:97:2a:9d:16:68:a8:14:71:21:c1:34:51:61:66:7c:
         3c:85:f7:2d:ff:86:bb:f0:bf:6c:6a:0a:a5:ac:bf:b3:a5:73:
         7c:75:85:5e:82:8f:94:e3:6b:ea:ce:7e:34:54:4c:dc:f6:51:
         27:25:c1:34:df:4c:a1:8c:e7:72:36:71:c6:c8:19:da:4f:0b:
         85:e5:69:1d:b7:78:1e:bd:a4:d2:f0:2c:b4:97:f7:60:93:e0:
         55:2f:19:7e
-----BEGIN CERTIFICATE-----
MIIDXTCCAkWgAwIBAgIRAPFldCkDUXXBlM9b/2GH9oAwDQYJKoZIhvcNAQELBQAw
FjEUMBIGA1UEAwwLdGVhbTIwMi1uZXQwHhcNMjIwNTE4MTkwMzE0WhcNMjUwNTAy
MTkwMzE0WjAZMRcwFQYDVQQDDA50ZWFtMjAyLWNsaWVudDCCASIwDQYJKoZIhvcN
AQEBBQADggEPADCCAQoCggEBALcwnAnLjH0ZID0bY2pIVC4jh9LmV6BWKNeRK45z
8oN+BbHJZD/1iz8wNWJN/YZgW3b6QpGXEI2upJy3ixHhoh+YGyO4rj86sFxGquRz
WIaHSgSZx8OP4xOzrWc1tx8n+lLwwqmlOJLzssRGWvvR7udgrH3zoWLpR1+ft65B
6JYuxBLeHN7xWF5yUkV47Eq+OqX7mXEFWfiRMS0F/HXTDQVxV6P8J8SoOXrPA7vc
rPNd9o9/qchfkonpR2lQkU7VsgNxXr3IEyj8RNZ9yIKS2c+nuaHCm5E47WpcEj1o
seD+jeBdx770HNyO/GgZIqVdgrOwt7asJ6SIjsrX2fC0irECAwEAAaOBojCBnzAJ
BgNVHRMEAjAAMB0GA1UdDgQWBBS/EHEWMg6rGzIXS9zmGofg/Kz16jBRBgNVHSME
SjBIgBRh1skEAnM/C9SQOp60GQyDSqEgZaEapBgwFjEUMBIGA1UEAwwLdGVhbTIw
Mi1uZXSCFF6yHlfLIyid2Que28e47H9FiNbDMBMGA1UdJQQMMAoGCCsGAQUFBwMC
MAsGA1UdDwQEAwIHgDANBgkqhkiG9w0BAQsFAAOCAQEAQEwiqedmN7YXVrGNPbau
jL3J69uqg8wj/cU2q91Jg/XAM6YzntigZT/TYGmpQj4WX35yi40u1zT6CFBLEYJV
tjCDQIqzW4i/338e2U3cs3oxAWHh1VcMoxVhClPG6rZ+3lJFkVWkKAkmUxQspSWU
fE7t/WFlNYNoSTv5aQehEa6pAGgB5OoOoKY2aylDMyGGHmF66audPBtQlzqto6cz
eV8xTfcKlyqdFmioFHEhwTRRYWZ8PIX3Lf+Gu/C/bGoKpay/s6VzfHWFXoKPlONr
6s5+NFRM3PZRJyXBNN9MoYzncjZxxsgZ2k8LheVpHbd4Hr2k0vAstJf3YJPgVS8Z
fg==
-----END CERTIFICATE-----
