Certificate:
    Data:
        Version: 3 (0x2)
        Serial Number:
            e6:cb:8e:b1:a9:d6:30:f4:ed:95:d6:04:fd:b5:eb:31
        Signature Algorithm: sha256WithRSAEncryption
        Issuer: CN=team728-net
        Validity
            Not Before: May 19 00:01:05 2022 GMT
            Not After : May  3 00:01:05 2025 GMT
        Subject: CN=team728-client
        Subject Public Key Info:
            Public Key Algorithm: rsaEncryption
                RSA Public-Key: (2048 bit)
                Modulus:
                    00:a9:0c:79:71:f1:88:b9:8e:70:9c:4b:a8:ce:70:
                    cb:ce:0f:fe:cf:d7:e3:6a:a0:16:da:4d:cb:f1:1c:
                    38:5d:3b:0b:bf:11:9a:fe:f7:0e:61:41:54:06:4a:
                    83:44:6b:3b:0f:e4:33:ec:4e:06:d2:37:d6:c2:f3:
                    2a:ff:18:6b:aa:3c:25:63:a8:45:6f:df:95:f6:6d:
                    8b:8d:90:6b:80:ac:c5:a5:1b:90:aa:ae:bc:ba:66:
                    1c:2a:e8:0b:87:96:c8:e1:5b:69:91:08:29:62:9b:
                    46:00:2c:bb:f1:a4:1b:16:28:27:2a:3f:a8:6c:d6:
                    60:9c:9d:b2:d5:1a:da:75:8d:c2:58:62:df:07:e1:
                    53:02:91:35:ea:36:20:60:c1:b7:c0:fa:7b:55:33:
                    64:9f:dc:9b:f7:24:ff:d9:fe:ef:d3:da:23:82:ca:
                    25:58:65:76:4a:a9:e2:f5:51:28:0f:a3:44:7b:4d:
                    d3:8c:f7:4a:a3:e1:b1:bc:04:8f:37:31:16:7c:7c:
                    0d:4e:f6:8b:c9:8a:50:e0:52:18:91:bf:70:40:aa:
                    5b:45:12:dd:fc:2e:5a:b5:3a:16:ad:c7:89:47:c4:
                    22:79:7f:31:e9:16:58:ab:e7:d8:1e:ba:a2:bc:be:
                    a3:34:36:10:de:04:68:4a:20:83:6f:f4:3c:48:91:
                    13:c7
                Exponent: 65537 (0x10001)
        X509v3 extensions:
            X509v3 Basic Constraints: 
                CA:FALSE
            X509v3 Subject Key Identifier: 
                DB:F6:ED:19:72:17:75:B6:7A:34:E5:E4:A2:08:31:DB:71:A7:A3:3D
            X509v3 Authority Key Identifier: 
                keyid:50:03:7C:2F:F1:78:ED:AA:AB:02:3B:F4:EF:DA:8F:BB:F7:DF:6D:60
                DirName:/CN=team728-net
                serial:6A:A5:C0:04:3A:35:FD:3A:6B:45:30:D8:27:56:FA:33:45:5A:3B:76

            X509v3 Extended Key Usage: 
                TLS Web Client Authentication
            X509v3 Key Usage: 
                Digital Signature
    Signature Algorithm: sha256WithRSAEncryption
         0b:6a:1b:e2:17:86:9a:e6:c9:27:cc:54:11:a2:3a:dd:4a:bd:
         aa:05:9b:d5:02:2c:dd:91:19:db:ae:ba:5e:17:95:65:bf:7d:
         86:e2:73:54:f7:4f:26:aa:07:95:6d:17:3e:48:af:29:0e:3e:
         d5:fa:b4:31:b1:cf:01:1e:e8:3b:34:1e:a8:52:fc:dd:c5:67:
         fd:2f:35:35:e2:44:ef:c4:d6:cb:03:65:58:a2:26:7b:87:4c:
         e9:d9:8d:7e:d9:13:a1:81:44:5e:6d:d3:c9:52:d8:93:8e:a0:
         ad:9a:c7:a4:11:9c:23:7f:7b:69:bb:0d:d9:25:6e:fb:01:03:
         2b:ff:d1:f2:27:11:b0:cf:e6:b4:a2:ff:83:00:1d:67:49:28:
         db:f5:24:9b:25:39:8e:89:a4:c1:f3:0c:ed:8f:27:9e:35:6e:
         bb:c1:36:86:3e:1c:c0:95:e1:a7:8f:31:60:2d:62:65:6e:47:
         66:f8:36:f7:cf:61:05:b6:70:bc:72:1b:31:fb:8f:c7:c3:a8:
         69:d4:6e:af:e9:6e:dd:41:95:c0:9f:cd:b2:07:b1:3d:b2:06:
         4c:4e:3b:90:68:a4:43:cc:55:9a:77:cf:83:02:e4:74:f2:21:
         33:db:80:c4:fb:2c:40:54:26:02:a9:37:09:bf:d0:b0:d4:af:
         45:af:1e:9a
-----BEGIN CERTIFICATE-----
MIIDXTCCAkWgAwIBAgIRAObLjrGp1jD07ZXWBP216zEwDQYJKoZIhvcNAQELBQAw
FjEUMBIGA1UEAwwLdGVhbTcyOC1uZXQwHhcNMjIwNTE5MDAwMTA1WhcNMjUwNTAz
MDAwMTA1WjAZMRcwFQYDVQQDDA50ZWFtNzI4LWNsaWVudDCCASIwDQYJKoZIhvcN
AQEBBQADggEPADCCAQoCggEBAKkMeXHxiLmOcJxLqM5wy84P/s/X42qgFtpNy/Ec
OF07C78Rmv73DmFBVAZKg0RrOw/kM+xOBtI31sLzKv8Ya6o8JWOoRW/flfZti42Q
a4CsxaUbkKquvLpmHCroC4eWyOFbaZEIKWKbRgAsu/GkGxYoJyo/qGzWYJydstUa
2nWNwlhi3wfhUwKRNeo2IGDBt8D6e1UzZJ/cm/ck/9n+79PaI4LKJVhldkqp4vVR
KA+jRHtN04z3SqPhsbwEjzcxFnx8DU72i8mKUOBSGJG/cECqW0US3fwuWrU6Fq3H
iUfEInl/MekWWKvn2B66ory+ozQ2EN4EaEogg2/0PEiRE8cCAwEAAaOBojCBnzAJ
BgNVHRMEAjAAMB0GA1UdDgQWBBTb9u0Zchd1tno05eSiCDHbcaejPTBRBgNVHSME
SjBIgBRQA3wv8XjtqqsCO/Tv2o+7999tYKEapBgwFjEUMBIGA1UEAwwLdGVhbTcy
OC1uZXSCFGqlwAQ6Nf06a0Uw2CdW+jNFWjt2MBMGA1UdJQQMMAoGCCsGAQUFBwMC
MAsGA1UdDwQEAwIHgDANBgkqhkiG9w0BAQsFAAOCAQEAC2ob4heGmubJJ8xUEaI6
3Uq9qgWb1QIs3ZEZ2666XheVZb99huJzVPdPJqoHlW0XPkivKQ4+1fq0MbHPAR7o
OzQeqFL83cVn/S81NeJE78TWywNlWKIme4dM6dmNftkToYFEXm3TyVLYk46grZrH
pBGcI397absN2SVu+wEDK//R8icRsM/mtKL/gwAdZ0ko2/UkmyU5jomkwfMM7Y8n
njVuu8E2hj4cwJXhp48xYC1iZW5HZvg2989hBbZwvHIbMfuPx8OoadRur+lu3UGV
wJ/NsgexPbIGTE47kGikQ8xVmnfPgwLkdPIhM9uAxPssQFQmAqk3Cb/QsNSvRa8e
mg==
-----END CERTIFICATE-----
