Certificate:
    Data:
        Version: 3 (0x2)
        Serial Number:
            1e:da:3f:73:8f:66:d6:a8:a5:87:48:1c:c2:61:46:d3
        Signature Algorithm: sha256WithRSAEncryption
        Issuer: CN=team467-net
        Validity
            Not Before: May 18 21:25:44 2022 GMT
            Not After : May  2 21:25:44 2025 GMT
        Subject: CN=team467-server
        Subject Public Key Info:
            Public Key Algorithm: rsaEncryption
                RSA Public-Key: (2048 bit)
                Modulus:
                    00:ad:b8:e2:0d:71:d4:6c:3b:82:09:ed:08:b9:3a:
                    6a:c6:89:2b:ce:c6:1c:01:3b:49:14:0b:ea:f1:c5:
                    f8:08:50:73:ef:9c:83:2e:11:de:61:d1:44:dd:3e:
                    88:d8:7b:fc:a5:75:74:61:16:8a:89:db:d5:65:1f:
                    e8:65:82:e4:e3:5b:3a:e7:2c:b3:65:11:e7:21:06:
                    55:c3:6e:1e:67:34:2b:12:49:e9:2f:a0:44:77:5e:
                    6b:df:80:fd:4e:36:62:46:50:3d:d6:01:3a:73:5a:
                    6f:f1:fe:a4:d0:ce:b8:0b:ea:2b:98:6a:06:0a:95:
                    66:e3:0c:a1:86:0e:5b:09:5b:38:45:49:47:bc:7e:
                    d6:bd:ee:91:32:ec:d8:0c:6f:fa:0b:f2:77:51:35:
                    a4:b2:6e:ff:84:d9:7d:4a:94:23:40:eb:5d:6f:a6:
                    81:d0:5e:6f:b8:e7:e8:0c:22:a6:1f:3a:9f:d8:03:
                    77:d4:d0:3c:71:27:bf:e2:89:ef:6b:da:ad:74:24:
                    a2:ef:1c:3f:6e:b5:56:9c:18:87:3e:5b:b0:a8:0e:
                    72:4f:8f:02:eb:d5:20:31:20:64:ff:5b:0e:50:ce:
                    3a:1d:51:d8:8c:e5:ed:83:02:d4:5f:a7:ae:d7:e5:
                    90:da:d9:6c:7b:27:a0:fe:a9:eb:13:31:3e:28:3a:
                    09:11
                Exponent: 65537 (0x10001)
        X509v3 extensions:
            X509v3 Basic Constraints: 
                CA:FALSE
            X509v3 Subject Key Identifier: 
                29:A7:1B:52:0E:9D:86:BF:CD:27:F9:88:80:83:7C:EE:EA:49:67:7F
            X509v3 Authority Key Identifier: 
                keyid:6A:02:C6:D8:8C:1A:14:D6:F1:89:3F:55:6B:3C:99:2E:60:44:75:B7
                DirName:/CN=team467-net
                serial:47:F5:44:97:9C:57:2A:8D:00:3E:12:FA:58:F9:0A:CA:4E:E0:90:9F

            X509v3 Extended Key Usage: 
                TLS Web Server Authentication
            X509v3 Key Usage: 
                Digital Signature, Key Encipherment
            X509v3 Subject Alternative Name: 
                DNS:team467-server
    Signature Algorithm: sha256WithRSAEncryption
         dd:ae:3d:17:54:68:b4:26:27:7b:27:5f:1c:b9:a6:df:9c:b3:
         2a:bd:d9:ba:67:13:3f:8c:19:3c:c7:77:51:d8:5c:bd:39:ff:
         98:ff:39:52:b0:a5:94:a4:8a:17:7e:c9:bd:8a:dc:cf:e6:c1:
         de:03:6a:4c:20:3d:38:a4:74:51:c3:36:d8:74:3e:ab:b4:d4:
         72:c8:45:8d:18:00:15:9b:c6:ea:4b:1f:cf:a8:a0:ed:9c:40:
         54:b9:f9:c2:88:5f:ac:d8:03:34:dd:28:5c:19:c2:6d:f1:63:
         4d:29:31:4f:85:20:27:0e:62:0e:43:4c:dd:a2:04:07:ba:94:
         22:db:c9:cf:f3:ce:e1:ac:7e:f5:90:f0:b2:21:d2:52:2c:09:
         67:62:e6:e2:ca:7d:2f:04:7d:1a:d7:8b:c4:96:d7:ca:e9:9e:
         5b:b4:e2:ff:2a:f8:cb:f0:c5:8a:3d:2b:87:aa:93:80:5b:b3:
         cf:8b:39:00:3e:b9:e2:87:da:a2:b7:25:59:7f:40:f1:42:9f:
         18:ac:da:50:55:fa:f8:ca:06:f9:4a:bd:25:3f:f9:56:be:39:
         36:a3:6c:bb:a7:c5:21:52:60:6c:36:d6:df:44:ac:82:7e:4d:
         ea:8a:08:81:7a:d8:5a:a8:b6:6e:55:a1:7a:03:c6:d8:46:db:
         d8:01:14:e6
-----BEGIN CERTIFICATE-----
MIIDdzCCAl+gAwIBAgIQHto/c49m1qilh0gcwmFG0zANBgkqhkiG9w0BAQsFADAW
MRQwEgYDVQQDDAt0ZWFtNDY3LW5ldDAeFw0yMjA1MTgyMTI1NDRaFw0yNTA1MDIy
MTI1NDRaMBkxFzAVBgNVBAMMDnRlYW00Njctc2VydmVyMIIBIjANBgkqhkiG9w0B
AQEFAAOCAQ8AMIIBCgKCAQEArbjiDXHUbDuCCe0IuTpqxokrzsYcATtJFAvq8cX4
CFBz75yDLhHeYdFE3T6I2Hv8pXV0YRaKidvVZR/oZYLk41s65yyzZRHnIQZVw24e
ZzQrEknpL6BEd15r34D9TjZiRlA91gE6c1pv8f6k0M64C+ormGoGCpVm4wyhhg5b
CVs4RUlHvH7Wve6RMuzYDG/6C/J3UTWksm7/hNl9SpQjQOtdb6aB0F5vuOfoDCKm
Hzqf2AN31NA8cSe/4onva9qtdCSi7xw/brVWnBiHPluwqA5yT48C69UgMSBk/1sO
UM46HVHYjOXtgwLUX6eu1+WQ2tlseyeg/qnrEzE+KDoJEQIDAQABo4G9MIG6MAkG
A1UdEwQCMAAwHQYDVR0OBBYEFCmnG1IOnYa/zSf5iICDfO7qSWd/MFEGA1UdIwRK
MEiAFGoCxtiMGhTW8Yk/VWs8mS5gRHW3oRqkGDAWMRQwEgYDVQQDDAt0ZWFtNDY3
LW5ldIIUR/VEl5xXKo0APhL6WPkKyk7gkJ8wEwYDVR0lBAwwCgYIKwYBBQUHAwEw
CwYDVR0PBAQDAgWgMBkGA1UdEQQSMBCCDnRlYW00Njctc2VydmVyMA0GCSqGSIb3
DQEBCwUAA4IBAQDdrj0XVGi0Jid7J18cuabfnLMqvdm6ZxM/jBk8x3dR2Fy9Of+Y
/zlSsKWUpIoXfsm9itzP5sHeA2pMID04pHRRwzbYdD6rtNRyyEWNGAAVm8bqSx/P
qKDtnEBUufnCiF+s2AM03ShcGcJt8WNNKTFPhSAnDmIOQ0zdogQHupQi28nP887h
rH71kPCyIdJSLAlnYubiyn0vBH0a14vEltfK6Z5btOL/KvjL8MWKPSuHqpOAW7PP
izkAPrnih9qityVZf0DxQp8YrNpQVfr4ygb5Sr0lP/lWvjk2o2y7p8UhUmBsNtbf
RKyCfk3qigiBethaqLZuVaF6A8bYRtvYARTm
-----END CERTIFICATE-----
