Certificate:
    Data:
        Version: 3 (0x2)
        Serial Number:
            2e:19:20:cd:b6:d0:66:d8:ef:b9:be:50:b6:83:54:6c
        Signature Algorithm: sha256WithRSAEncryption
        Issuer: CN=team467-net
        Validity
            Not Before: May 18 21:25:44 2022 GMT
            Not After : May  2 21:25:44 2025 GMT
        Subject: CN=team467-client
        Subject Public Key Info:
            Public Key Algorithm: rsaEncryption
                RSA Public-Key: (2048 bit)
                Modulus:
                    00:b3:21:0f:a1:ee:15:26:f6:cd:6d:46:6d:70:87:
                    6e:67:6f:00:25:2f:41:51:19:9c:7d:30:c5:9f:9d:
                    54:24:b1:1c:66:d2:26:f7:4e:36:bf:ba:54:14:8e:
                    21:da:2c:9a:6f:32:5b:41:12:7d:35:b2:99:7b:ef:
                    c7:b9:96:c4:97:0e:cd:fd:f2:d5:14:9c:26:9f:d4:
                    f8:55:f8:61:c5:d5:e7:6b:20:88:1a:f9:d4:f0:6a:
                    2a:f3:73:8c:23:a2:27:19:c3:c9:b1:74:99:f3:33:
                    90:f7:b9:32:4b:d1:ff:c3:f0:d3:5a:ed:1b:33:3f:
                    8f:70:f6:16:ab:2b:b9:cb:a9:44:8a:a9:1b:d5:bc:
                    06:f9:7f:bc:ec:08:80:fd:4f:b6:70:a0:bd:b9:a8:
                    db:7c:fc:59:6d:09:88:66:c4:bc:6a:6d:c3:9b:63:
                    40:cd:75:68:be:fb:e6:ff:05:b9:07:ff:36:ac:06:
                    11:94:d3:89:c6:d8:22:f7:f4:9b:49:9e:65:28:05:
                    cf:7f:cf:08:c4:d4:de:cf:30:fa:14:c3:cb:e9:d6:
                    49:28:cf:fe:e6:73:22:b8:0e:12:c6:1b:2d:3e:30:
                    83:7c:8a:15:61:21:6b:8b:cd:01:40:c0:d9:eb:24:
                    0f:f6:bb:42:85:3c:4e:a3:de:40:ab:94:07:03:f0:
                    4f:ef
                Exponent: 65537 (0x10001)
        X509v3 extensions:
            X509v3 Basic Constraints: 
                CA:FALSE
            X509v3 Subject Key Identifier: 
                6C:B3:B3:7B:7E:A0:8D:13:4B:FC:89:7F:B7:5B:BC:E5:85:1E:B5:1C
            X509v3 Authority Key Identifier: 
                keyid:6A:02:C6:D8:8C:1A:14:D6:F1:89:3F:55:6B:3C:99:2E:60:44:75:B7
                DirName:/CN=team467-net
                serial:47:F5:44:97:9C:57:2A:8D:00:3E:12:FA:58:F9:0A:CA:4E:E0:90:9F

            X509v3 Extended Key Usage: 
                TLS Web Client Authentication
            X509v3 Key Usage: 
                Digital Signature
    Signature Algorithm: sha256WithRSAEncryption
         33:46:2c:df:e4:42:77:7c:53:80:6c:34:cc:02:57:2f:53:83:
         7b:26:11:12:6a:23:a7:29:be:f8:16:56:19:eb:05:3a:25:fc:
         f6:c6:61:60:22:9b:b3:71:91:87:b5:29:cc:be:37:93:04:1f:
         4a:8c:0e:ef:e0:0e:2f:3e:9b:64:95:d5:2a:7b:3c:a5:7a:1a:
         a4:24:af:58:9c:80:52:9a:6c:37:c8:e3:a7:2e:27:23:62:88:
         f0:08:97:15:4f:31:2b:4a:57:74:a8:31:59:3c:72:fc:16:6d:
         c5:5b:24:7c:7b:a7:84:b3:4f:7e:bd:ff:81:3c:9f:0b:39:41:
         5a:64:10:ab:6b:a0:48:7a:44:a2:89:2f:17:3f:bc:b7:05:47:
         dc:4e:fe:10:c0:1f:67:79:e4:87:57:02:49:0d:5d:db:0b:a1:
         74:f4:db:d8:c1:28:64:06:98:14:61:f5:7b:6b:e9:22:86:a4:
         3f:db:95:60:13:64:a0:44:53:a7:36:b1:bb:f9:e4:5d:09:d1:
         37:ae:9a:31:a6:1f:13:56:f6:6c:95:96:81:4f:c9:66:1a:a6:
         9e:c3:e7:e0:fd:76:12:47:dc:38:eb:af:8e:db:77:78:e0:f8:
         b0:12:ce:ef:99:4c:c8:12:b8:be:0e:9e:22:34:a3:70:78:8c:
         0b:3b:0a:8f
-----BEGIN CERTIFICATE-----
MIIDXDCCAkSgAwIBAgIQLhkgzbbQZtjvub5QtoNUbDANBgkqhkiG9w0BAQsFADAW
MRQwEgYDVQQDDAt0ZWFtNDY3LW5ldDAeFw0yMjA1MTgyMTI1NDRaFw0yNTA1MDIy
MTI1NDRaMBkxFzAVBgNVBAMMDnRlYW00NjctY2xpZW50MIIBIjANBgkqhkiG9w0B
AQEFAAOCAQ8AMIIBCgKCAQEAsyEPoe4VJvbNbUZtcIduZ28AJS9BURmcfTDFn51U
JLEcZtIm9042v7pUFI4h2iyabzJbQRJ9NbKZe+/HuZbElw7N/fLVFJwmn9T4Vfhh
xdXnayCIGvnU8Goq83OMI6InGcPJsXSZ8zOQ97kyS9H/w/DTWu0bMz+PcPYWqyu5
y6lEiqkb1bwG+X+87AiA/U+2cKC9uajbfPxZbQmIZsS8am3Dm2NAzXVovvvm/wW5
B/82rAYRlNOJxtgi9/SbSZ5lKAXPf88IxNTezzD6FMPL6dZJKM/+5nMiuA4Sxhst
PjCDfIoVYSFri80BQMDZ6yQP9rtChTxOo95Aq5QHA/BP7wIDAQABo4GiMIGfMAkG
A1UdEwQCMAAwHQYDVR0OBBYEFGyzs3t+oI0TS/yJf7dbvOWFHrUcMFEGA1UdIwRK
MEiAFGoCxtiMGhTW8Yk/VWs8mS5gRHW3oRqkGDAWMRQwEgYDVQQDDAt0ZWFtNDY3
LW5ldIIUR/VEl5xXKo0APhL6WPkKyk7gkJ8wEwYDVR0lBAwwCgYIKwYBBQUHAwIw
CwYDVR0PBAQDAgeAMA0GCSqGSIb3DQEBCwUAA4IBAQAzRizf5EJ3fFOAbDTMAlcv
U4N7JhESaiOnKb74FlYZ6wU6Jfz2xmFgIpuzcZGHtSnMvjeTBB9KjA7v4A4vPptk
ldUqezylehqkJK9YnIBSmmw3yOOnLicjYojwCJcVTzErSld0qDFZPHL8Fm3FWyR8
e6eEs09+vf+BPJ8LOUFaZBCra6BIekSiiS8XP7y3BUfcTv4QwB9neeSHVwJJDV3b
C6F09NvYwShkBpgUYfV7a+kihqQ/25VgE2SgRFOnNrG7+eRdCdE3rpoxph8TVvZs
lZaBT8lmGqaew+fg/XYSR9w466+O23d44PiwEs7vmUzIEri+Dp4iNKNweIwLOwqP
-----END CERTIFICATE-----
