Certificate:
    Data:
        Version: 3 (0x2)
        Serial Number:
            6a:26:9d:b5:cf:20:0c:f6:08:a6:42:1d:c7:d9:31:1d
        Signature Algorithm: sha256WithRSAEncryption
        Issuer: CN=team293-net
        Validity
            Not Before: May 18 20:02:07 2022 GMT
            Not After : May  2 20:02:07 2025 GMT
        Subject: CN=team293-server
        Subject Public Key Info:
            Public Key Algorithm: rsaEncryption
                RSA Public-Key: (2048 bit)
                Modulus:
                    00:bf:0c:c6:dc:c7:46:9c:c7:66:fc:bf:ef:dd:d6:
                    9f:63:d1:b1:e5:fe:71:e7:66:99:43:01:55:0b:41:
                    33:7d:0b:b2:14:b4:7d:bf:58:b4:b4:d2:d1:79:e4:
                    35:62:14:f7:2e:fa:f4:18:f6:b5:0d:93:bb:49:c4:
                    e3:04:a9:37:88:d5:1a:da:69:ae:4d:9f:d6:e8:c6:
                    99:e1:9e:7f:db:52:ea:77:52:75:88:53:de:e2:98:
                    9b:bc:b2:c5:03:2e:84:98:34:4c:b9:76:22:6b:6a:
                    eb:a3:52:a3:60:9e:14:6c:03:76:aa:b8:b6:04:89:
                    ef:1d:9e:f5:d0:70:d3:9d:45:0a:ee:7a:c5:57:f8:
                    73:55:6d:33:d5:10:97:02:28:1e:98:47:49:dd:47:
                    c6:78:aa:ea:d0:17:9b:64:8d:39:a8:a4:63:f0:44:
                    b2:ce:3b:17:6f:38:bd:9d:7f:46:4a:90:c7:5e:ce:
                    88:ac:79:9b:81:54:1a:59:0c:f0:3e:3b:94:d7:20:
                    5b:41:bd:c4:b1:cf:c7:fb:75:fb:d1:5d:57:b0:f5:
                    8a:90:88:e4:bd:8e:1d:b5:8d:0d:23:6b:35:bc:87:
                    da:11:b1:3a:c6:42:97:7c:3d:72:d6:37:ba:03:49:
                    0f:aa:ae:9d:92:b6:9a:ce:86:e1:70:cf:11:2a:22:
                    36:c5
                Exponent: 65537 (0x10001)
        X509v3 extensions:
            X509v3 Basic Constraints: 
                CA:FALSE
            X509v3 Subject Key Identifier: 
                E1:F7:95:DC:AC:75:53:0A:D3:77:CC:F7:B6:E2:E1:A1:59:35:44:3C
            X509v3 Authority Key Identifier: 
                keyid:BA:1D:A1:F1:70:88:C5:F4:86:60:8C:F5:6D:C9:33:5C:D0:D6:31:E4
                DirName:/CN=team293-net
                serial:61:23:57:7E:8F:FF:AA:32:60:D9:E2:08:70:F7:3A:AF:2D:C9:B0:0B

            X509v3 Extended Key Usage: 
                TLS Web Server Authentication
            X509v3 Key Usage: 
                Digital Signature, Key Encipherment
            X509v3 Subject Alternative Name: 
                DNS:team293-server
    Signature Algorithm: sha256WithRSAEncryption
         7c:68:ef:45:33:8c:ae:fa:a5:c1:45:32:cc:ec:c4:fb:96:c2:
         4a:83:e8:42:a0:7a:d0:86:b1:39:9b:06:a8:e2:44:59:90:9a:
         4d:b8:7e:56:4a:d2:65:96:0f:be:e2:8c:a2:16:23:11:7d:00:
         82:29:b8:49:ba:a0:62:e5:dd:2c:13:40:35:c4:5d:7f:5e:2c:
         44:72:0f:d5:44:b1:4d:01:30:64:e8:a6:ca:55:19:b4:a7:73:
         8c:ae:d5:a8:52:37:76:d9:60:4d:99:e7:40:b8:3f:d9:ed:46:
         5e:67:bd:2f:43:6c:e9:ff:2f:50:95:9e:74:a2:52:02:68:2a:
         47:02:a9:cf:a6:b5:85:04:23:24:22:ec:7f:88:23:1f:35:bb:
         80:44:4a:7e:3f:4a:08:13:d1:91:04:3c:e4:25:a6:cf:4b:16:
         43:83:c6:1e:ed:eb:6e:94:96:40:17:ff:a8:8e:25:3c:2a:7d:
         d8:c5:79:a3:99:be:a2:10:45:8b:1a:b7:4a:62:b9:d8:57:69:
         a8:68:32:40:13:58:4f:7a:88:2e:0e:02:1b:fe:00:94:b7:d8:
         6d:7f:8e:cd:05:49:0a:f2:1d:d3:53:96:a7:94:73:79:ee:80:
         39:cd:60:18:14:ee:ce:74:a2:14:30:33:a8:f8:aa:d5:2b:a6:
         93:1b:46:58
-----BEGIN CERTIFICATE-----
MIIDdzCCAl+gAwIBAgIQaiadtc8gDPYIpkIdx9kxHTANBgkqhkiG9w0BAQsFADAW
MRQwEgYDVQQDDAt0ZWFtMjkzLW5ldDAeFw0yMjA1MTgyMDAyMDdaFw0yNTA1MDIy
MDAyMDdaMBkxFzAVBgNVBAMMDnRlYW0yOTMtc2VydmVyMIIBIjANBgkqhkiG9w0B
AQEFAAOCAQ8AMIIBCgKCAQEAvwzG3MdGnMdm/L/v3dafY9Gx5f5x52aZQwFVC0Ez
fQuyFLR9v1i0tNLReeQ1YhT3Lvr0GPa1DZO7ScTjBKk3iNUa2mmuTZ/W6MaZ4Z5/
21Lqd1J1iFPe4pibvLLFAy6EmDRMuXYia2rro1KjYJ4UbAN2qri2BInvHZ710HDT
nUUK7nrFV/hzVW0z1RCXAigemEdJ3UfGeKrq0BebZI05qKRj8ESyzjsXbzi9nX9G
SpDHXs6IrHmbgVQaWQzwPjuU1yBbQb3Esc/H+3X70V1XsPWKkIjkvY4dtY0NI2s1
vIfaEbE6xkKXfD1y1je6A0kPqq6dkraazobhcM8RKiI2xQIDAQABo4G9MIG6MAkG
A1UdEwQCMAAwHQYDVR0OBBYEFOH3ldysdVMK03fM97bi4aFZNUQ8MFEGA1UdIwRK
MEiAFLodofFwiMX0hmCM9W3JM1zQ1jHkoRqkGDAWMRQwEgYDVQQDDAt0ZWFtMjkz
LW5ldIIUYSNXfo//qjJg2eIIcPc6ry3JsAswEwYDVR0lBAwwCgYIKwYBBQUHAwEw
CwYDVR0PBAQDAgWgMBkGA1UdEQQSMBCCDnRlYW0yOTMtc2VydmVyMA0GCSqGSIb3
DQEBCwUAA4IBAQB8aO9FM4yu+qXBRTLM7MT7lsJKg+hCoHrQhrE5mwao4kRZkJpN
uH5WStJllg++4oyiFiMRfQCCKbhJuqBi5d0sE0A1xF1/XixEcg/VRLFNATBk6KbK
VRm0p3OMrtWoUjd22WBNmedAuD/Z7UZeZ70vQ2zp/y9QlZ50olICaCpHAqnPprWF
BCMkIux/iCMfNbuAREp+P0oIE9GRBDzkJabPSxZDg8Ye7etulJZAF/+ojiU8Kn3Y
xXmjmb6iEEWLGrdKYrnYV2moaDJAE1hPeoguDgIb/gCUt9htf47NBUkK8h3TU5an
lHN57oA5zWAYFO7OdKIUMDOo+KrVK6aTG0ZY
-----END CERTIFICATE-----
