Certificate:
    Data:
        Version: 3 (0x2)
        Serial Number:
            a7:a3:a2:37:07:fb:4d:72:ec:1e:92:ea:fe:3e:24:3a
        Signature Algorithm: sha256WithRSAEncryption
        Issuer: CN=team293-net
        Validity
            Not Before: May 18 20:02:07 2022 GMT
            Not After : May  2 20:02:07 2025 GMT
        Subject: CN=team293-client
        Subject Public Key Info:
            Public Key Algorithm: rsaEncryption
                RSA Public-Key: (2048 bit)
                Modulus:
                    00:b3:f9:f5:e7:33:26:3e:7b:ef:d5:a6:0e:2d:bb:
                    4c:42:b5:9f:76:75:dc:a1:20:c2:b5:62:01:54:1f:
                    c8:b8:d8:48:b1:0f:3f:b7:ad:c2:07:49:86:63:56:
                    08:74:55:a1:a3:34:68:60:02:74:84:56:1a:27:f9:
                    b7:bf:0f:fd:0f:74:00:9f:2b:d5:9d:cb:f9:ed:ba:
                    3c:1e:63:c7:00:25:cf:ce:23:a7:56:ae:8d:ea:09:
                    d0:dc:67:f0:ef:9f:e0:37:fd:28:96:dc:10:46:ef:
                    3c:ed:1f:ca:59:08:2f:12:22:64:17:e1:70:86:33:
                    f7:85:e9:d9:9c:2f:8a:79:ef:c8:c4:98:2a:90:3a:
                    99:d0:24:e2:86:d6:4d:ef:36:0d:65:e4:28:07:1b:
                    74:50:23:9b:fd:10:aa:c5:39:aa:a0:36:44:f1:20:
                    67:c3:56:18:50:55:12:18:94:da:cc:98:36:85:d3:
                    e8:98:40:d7:3d:9c:5a:d7:87:b8:34:7d:da:e8:42:
                    15:69:90:14:97:b2:c9:08:7f:77:9c:f4:2f:eb:71:
                    56:2c:81:cc:40:71:dd:07:ae:0f:7a:86:ff:d4:a7:
                    56:55:b1:d6:1e:97:d7:9c:de:72:3d:89:cd:68:78:
                    f9:2f:70:20:9d:9d:c4:ee:89:cf:a4:d0:74:41:4e:
                    05:ab
                Exponent: 65537 (0x10001)
        X509v3 extensions:
            X509v3 Basic Constraints: 
                CA:FALSE
            X509v3 Subject Key Identifier: 
                49:3E:45:18:99:B8:93:50:13:EC:71:B4:61:00:98:F8:01:42:C7:E4
            X509v3 Authority Key Identifier: 
                keyid:BA:1D:A1:F1:70:88:C5:F4:86:60:8C:F5:6D:C9:33:5C:D0:D6:31:E4
                DirName:/CN=team293-net
                serial:61:23:57:7E:8F:FF:AA:32:60:D9:E2:08:70:F7:3A:AF:2D:C9:B0:0B

            X509v3 Extended Key Usage: 
                TLS Web Client Authentication
            X509v3 Key Usage: 
                Digital Signature
    Signature Algorithm: sha256WithRSAEncryption
         03:fa:98:aa:45:83:f0:c1:64:26:1a:86:a8:2d:d6:88:3d:3e:
         8c:4b:79:18:ce:85:2a:dc:8b:c4:36:e5:1d:6c:a3:9a:24:e6:
         c7:e9:d1:10:27:c3:be:c7:79:f3:ac:dd:60:1f:eb:51:01:8c:
         5d:f6:0c:4a:c0:5e:e9:2a:8d:35:f5:f2:2a:89:79:76:7f:46:
         c6:8d:67:bc:e8:56:9c:5e:ff:1d:e2:7f:00:7b:64:d0:50:9e:
         ef:72:c8:73:ba:c0:f1:db:7e:fb:2e:0b:b7:5f:0d:16:5d:f9:
         56:8f:dc:e6:62:3f:3d:5c:86:69:80:aa:6a:94:b1:fc:e7:05:
         ea:03:92:bf:25:86:e0:72:c9:e0:2a:d4:05:65:ba:18:aa:ac:
         d4:aa:d2:0c:f1:b6:c0:27:4b:3f:8c:31:2f:33:4e:0d:79:ee:
         b0:d0:4b:40:3d:62:e5:c5:05:21:c6:46:2f:4c:2c:0a:d6:26:
         49:52:23:78:58:53:17:52:8f:28:67:aa:91:e4:27:96:e4:b7:
         36:a2:cc:4f:61:1b:64:11:c0:82:77:81:30:f5:40:65:75:79:
         ce:48:9c:85:62:9a:85:69:d4:14:6f:ce:8c:77:0e:e7:88:33:
         cb:aa:4e:25:5d:f5:9b:61:12:3c:16:e5:98:02:76:68:76:04:
         ba:84:c4:1a
-----BEGIN CERTIFICATE-----
MIIDXTCCAkWgAwIBAgIRAKejojcH+01y7B6S6v4+JDowDQYJKoZIhvcNAQELBQAw
FjEUMBIGA1UEAwwLdGVhbTI5My1uZXQwHhcNMjIwNTE4MjAwMjA3WhcNMjUwNTAy
MjAwMjA3WjAZMRcwFQYDVQQDDA50ZWFtMjkzLWNsaWVudDCCASIwDQYJKoZIhvcN
AQEBBQADggEPADCCAQoCggEBALP59eczJj5779WmDi27TEK1n3Z13KEgwrViAVQf
yLjYSLEPP7etwgdJhmNWCHRVoaM0aGACdIRWGif5t78P/Q90AJ8r1Z3L+e26PB5j
xwAlz84jp1aujeoJ0Nxn8O+f4Df9KJbcEEbvPO0fylkILxIiZBfhcIYz94Xp2Zwv
innvyMSYKpA6mdAk4obWTe82DWXkKAcbdFAjm/0QqsU5qqA2RPEgZ8NWGFBVEhiU
2syYNoXT6JhA1z2cWteHuDR92uhCFWmQFJeyyQh/d5z0L+txViyBzEBx3QeuD3qG
/9SnVlWx1h6X15zecj2JzWh4+S9wIJ2dxO6Jz6TQdEFOBasCAwEAAaOBojCBnzAJ
BgNVHRMEAjAAMB0GA1UdDgQWBBRJPkUYmbiTUBPscbRhAJj4AULH5DBRBgNVHSME
SjBIgBS6HaHxcIjF9IZgjPVtyTNc0NYx5KEapBgwFjEUMBIGA1UEAwwLdGVhbTI5
My1uZXSCFGEjV36P/6oyYNniCHD3Oq8tybALMBMGA1UdJQQMMAoGCCsGAQUFBwMC
MAsGA1UdDwQEAwIHgDANBgkqhkiG9w0BAQsFAAOCAQEAA/qYqkWD8MFkJhqGqC3W
iD0+jEt5GM6FKtyLxDblHWyjmiTmx+nRECfDvsd586zdYB/rUQGMXfYMSsBe6SqN
NfXyKol5dn9Gxo1nvOhWnF7/HeJ/AHtk0FCe73LIc7rA8dt++y4Lt18NFl35Vo/c
5mI/PVyGaYCqapSx/OcF6gOSvyWG4HLJ4CrUBWW6GKqs1KrSDPG2wCdLP4wxLzNO
DXnusNBLQD1i5cUFIcZGL0wsCtYmSVIjeFhTF1KPKGeqkeQnluS3NqLMT2EbZBHA
gneBMPVAZXV5zkichWKahWnUFG/OjHcO54gzy6pOJV31m2ESPBblmAJ2aHYEuoTE
Gg==
-----END CERTIFICATE-----
