Certificate:
    Data:
        Version: 3 (0x2)
        Serial Number:
            a9:70:7d:a5:47:ce:ee:31:1b:07:ea:cf:fe:e2:d9:93
        Signature Algorithm: sha256WithRSAEncryption
        Issuer: CN=team605-net
        Validity
            Not Before: May 18 22:43:03 2022 GMT
            Not After : May  2 22:43:03 2025 GMT
        Subject: CN=team605-server
        Subject Public Key Info:
            Public Key Algorithm: rsaEncryption
                RSA Public-Key: (2048 bit)
                Modulus:
                    00:af:66:94:d1:c6:37:24:1c:c6:ec:eb:ea:ab:05:
                    20:8e:e2:14:96:d4:80:9d:0b:e3:8f:37:d1:9e:5b:
                    f9:9c:af:f9:cf:1a:40:05:e3:9d:bd:d8:68:fb:64:
                    4a:00:21:9c:76:a2:48:52:8a:78:f0:2b:66:49:0d:
                    8f:c4:8c:e3:16:77:fd:3c:dc:b7:57:0c:06:e2:8e:
                    3d:4c:09:e4:af:2a:0f:e4:63:97:b4:0f:34:ba:eb:
                    3c:71:20:98:cb:66:c8:bf:cc:62:f6:e8:42:a9:d0:
                    5e:0d:b5:07:51:75:18:61:5d:15:e5:49:72:6c:2e:
                    15:1e:28:b5:b3:a5:98:12:9a:b2:db:f1:c4:24:ec:
                    8e:c2:54:75:eb:36:18:5f:8d:c6:fe:ff:ee:c3:37:
                    c3:e4:d2:9c:d3:96:d0:0a:53:82:55:8c:04:99:37:
                    be:9b:08:81:1b:83:85:f2:13:55:3e:3c:e6:a4:36:
                    48:4e:b0:f5:24:97:48:35:3b:1f:3d:21:77:a7:9a:
                    28:03:3d:12:af:65:ff:5f:ec:61:bb:cb:5d:6e:91:
                    69:df:74:40:1c:6c:44:f5:0b:18:ec:ec:15:61:8d:
                    56:50:09:bc:b7:3a:49:6a:30:8f:12:1a:a6:19:4b:
                    cd:f6:df:ae:15:2c:7c:5e:05:6a:6c:49:34:79:58:
                    25:2f
                Exponent: 65537 (0x10001)
        X509v3 extensions:
            X509v3 Basic Constraints: 
                CA:FALSE
            X509v3 Subject Key Identifier: 
                79:DC:39:92:E5:F4:D4:7B:DC:7E:BD:99:8A:1C:2D:37:8F:CC:C1:52
            X509v3 Authority Key Identifier: 
                keyid:1A:FD:E6:93:77:66:2B:2F:7D:AA:5B:BA:D5:E2:7B:CA:D4:0E:68:6C
                DirName:/CN=team605-net
                serial:0F:94:8B:E2:A5:84:F8:AE:18:4E:C1:75:FC:5A:E8:D1:64:34:50:48

            X509v3 Extended Key Usage: 
                TLS Web Server Authentication
            X509v3 Key Usage: 
                Digital Signature, Key Encipherment
            X509v3 Subject Alternative Name: 
                DNS:team605-server
    Signature Algorithm: sha256WithRSAEncryption
         41:dc:87:94:fc:b4:5b:be:48:ff:81:b2:11:f3:4b:be:0f:2a:
         00:11:4a:f7:c4:ab:a7:22:d3:ce:a9:42:66:43:be:0d:8a:97:
         25:db:06:3a:b1:e2:1d:d8:4e:ef:eb:74:72:78:8e:a5:95:aa:
         e8:a2:6b:eb:91:92:9b:d5:fb:15:cd:8b:83:a4:24:4d:0e:58:
         3a:e1:97:6e:c9:41:c1:3d:0c:21:13:df:d7:90:e0:c7:ec:04:
         1b:b3:94:40:24:8b:39:c0:ee:bc:7e:4c:9b:82:ce:19:2f:b4:
         7c:8b:e3:38:64:17:d5:a2:74:1a:45:c0:04:0e:b2:37:fb:40:
         96:e9:29:a9:66:26:0f:bb:94:67:73:f0:fe:d6:37:09:13:6b:
         34:3e:a2:c3:fb:6d:2a:d4:3d:c2:35:0e:b7:a6:5e:42:e1:c2:
         b9:a8:22:ae:e1:62:be:a7:63:34:e8:71:d7:0b:ff:da:33:86:
         7c:9c:5e:91:ec:26:00:a9:a5:57:aa:b9:2e:28:46:7c:b3:b7:
         a4:a5:de:4a:af:c5:79:5e:6a:72:ed:e1:8a:17:03:37:bc:b8:
         23:79:35:0e:e1:0d:7d:bf:7a:88:d2:ba:50:d1:c9:92:d1:83:
         4e:0b:5b:29:0c:dc:1c:f4:2a:d6:1e:cd:25:2a:76:1b:0f:4b:
         19:4f:c2:93
-----BEGIN CERTIFICATE-----
MIIDeDCCAmCgAwIBAgIRAKlwfaVHzu4xGwfqz/7i2ZMwDQYJKoZIhvcNAQELBQAw
FjEUMBIGA1UEAwwLdGVhbTYwNS1uZXQwHhcNMjIwNTE4MjI0MzAzWhcNMjUwNTAy
MjI0MzAzWjAZMRcwFQYDVQQDDA50ZWFtNjA1LXNlcnZlcjCCASIwDQYJKoZIhvcN
AQEBBQADggEPADCCAQoCggEBAK9mlNHGNyQcxuzr6qsFII7iFJbUgJ0L44830Z5b
+Zyv+c8aQAXjnb3YaPtkSgAhnHaiSFKKePArZkkNj8SM4xZ3/Tzct1cMBuKOPUwJ
5K8qD+Rjl7QPNLrrPHEgmMtmyL/MYvboQqnQXg21B1F1GGFdFeVJcmwuFR4otbOl
mBKastvxxCTsjsJUdes2GF+Nxv7/7sM3w+TSnNOW0ApTglWMBJk3vpsIgRuDhfIT
VT485qQ2SE6w9SSXSDU7Hz0hd6eaKAM9Eq9l/1/sYbvLXW6Rad90QBxsRPULGOzs
FWGNVlAJvLc6SWowjxIaphlLzfbfrhUsfF4FamxJNHlYJS8CAwEAAaOBvTCBujAJ
BgNVHRMEAjAAMB0GA1UdDgQWBBR53DmS5fTUe9x+vZmKHC03j8zBUjBRBgNVHSME
SjBIgBQa/eaTd2YrL32qW7rV4nvK1A5obKEapBgwFjEUMBIGA1UEAwwLdGVhbTYw
NS1uZXSCFA+Ui+KlhPiuGE7Bdfxa6NFkNFBIMBMGA1UdJQQMMAoGCCsGAQUFBwMB
MAsGA1UdDwQEAwIFoDAZBgNVHREEEjAQgg50ZWFtNjA1LXNlcnZlcjANBgkqhkiG
9w0BAQsFAAOCAQEAQdyHlPy0W75I/4GyEfNLvg8qABFK98SrpyLTzqlCZkO+DYqX
JdsGOrHiHdhO7+t0cniOpZWq6KJr65GSm9X7Fc2Lg6QkTQ5YOuGXbslBwT0MIRPf
15Dgx+wEG7OUQCSLOcDuvH5Mm4LOGS+0fIvjOGQX1aJ0GkXABA6yN/tAlukpqWYm
D7uUZ3Pw/tY3CRNrND6iw/ttKtQ9wjUOt6ZeQuHCuagiruFivqdjNOhx1wv/2jOG
fJxekewmAKmlV6q5LihGfLO3pKXeSq/FeV5qcu3hihcDN7y4I3k1DuENfb96iNK6
UNHJktGDTgtbKQzcHPQq1h7NJSp2Gw9LGU/Ckw==
-----END CERTIFICATE-----
