Certificate:
    Data:
        Version: 3 (0x2)
        Serial Number:
            03:f4:7a:5f:7b:a4:12:86:f2:92:f3:e6:48:6d:fc:26
        Signature Algorithm: sha256WithRSAEncryption
        Issuer: CN=team395-net
        Validity
            Not Before: May 18 20:59:35 2022 GMT
            Not After : May  2 20:59:35 2025 GMT
        Subject: CN=team395-client
        Subject Public Key Info:
            Public Key Algorithm: rsaEncryption
                RSA Public-Key: (2048 bit)
                Modulus:
                    00:ca:ff:4e:03:dd:98:16:e7:d9:1f:39:78:44:64:
                    d8:8f:ba:fb:57:d6:f3:d2:b4:b2:18:a6:0e:a2:98:
                    f0:b6:54:9e:b8:f2:bc:99:3a:6c:35:fc:c6:8b:29:
                    bb:ce:6e:3a:8c:a7:f0:fa:c3:61:ca:20:30:c3:1b:
                    43:61:d1:3d:8e:d5:cf:57:0a:53:f3:20:a3:3a:af:
                    46:4e:7f:43:32:cd:89:02:ac:6a:36:58:ae:22:e9:
                    05:5f:f4:0a:b5:db:bd:db:52:d2:99:64:49:fa:d4:
                    a0:4a:f8:16:94:08:4b:df:33:a5:65:f5:0c:07:85:
                    4e:45:72:ba:ab:78:3f:20:f0:57:99:7f:06:02:83:
                    a9:60:96:96:f4:76:ac:05:a4:97:c7:1a:58:13:7c:
                    04:38:d4:ac:81:04:00:76:5a:08:02:4e:71:25:70:
                    33:46:66:9f:0c:ab:b3:92:40:ad:46:67:7d:b5:76:
                    7c:41:69:fa:44:6d:6e:38:52:25:0d:45:67:09:86:
                    08:3b:00:32:53:6f:49:05:57:4c:91:75:17:47:2c:
                    9c:14:80:ca:d7:da:56:b5:ee:2f:81:3b:14:19:1f:
                    fe:e8:1b:f2:46:90:d6:9b:11:04:13:c4:10:95:40:
                    3b:d3:99:3e:5a:d3:81:16:aa:a4:ee:1b:90:12:62:
                    92:0f
                Exponent: 65537 (0x10001)
        X509v3 extensions:
            X509v3 Basic Constraints: 
                CA:FALSE
            X509v3 Subject Key Identifier: 
                23:E1:81:F0:FF:6E:41:91:11:EA:67:D0:F5:7C:C4:DA:35:6D:69:8A
            X509v3 Authority Key Identifier: 
                keyid:6E:32:03:1C:26:F9:75:2F:29:02:10:7F:45:30:9E:E4:09:AB:13:C4
                DirName:/CN=team395-net
                serial:4E:49:B3:B0:F6:ED:57:CB:69:71:54:ED:17:B9:1F:9E:01:65:03:5C

            X509v3 Extended Key Usage: 
                TLS Web Client Authentication
            X509v3 Key Usage: 
                Digital Signature
    Signature Algorithm: sha256WithRSAEncryption
         6d:0d:43:a2:b7:60:1f:56:e8:e8:af:9f:38:a6:dc:91:8b:09:
         d9:b3:34:0a:e5:78:d1:e9:7c:28:21:f0:29:3f:88:60:10:80:
         1d:ce:4d:68:28:a6:ab:c4:00:d8:a2:e3:82:6f:25:7d:db:42:
         ad:fc:a2:64:b8:d7:21:4f:0f:06:48:46:9e:86:ab:50:d5:f3:
         06:e1:dd:51:f5:2d:42:fe:bb:c1:63:e1:b7:e3:36:13:3a:d2:
         e3:2e:49:df:31:b7:9c:8a:5a:32:f9:f8:04:40:90:79:14:3d:
         1b:99:fb:c2:6b:81:d6:f3:ec:e4:f5:7d:0d:43:d1:99:20:ab:
         b5:31:f1:25:99:a5:f5:48:0e:c1:62:32:40:e4:fe:36:5e:b7:
         0a:8c:66:7c:54:27:01:b4:32:a6:22:a0:e0:15:b1:da:b4:0b:
         4b:4b:80:86:b8:46:42:74:c1:12:7a:c4:48:2b:7b:0a:0a:4e:
         31:25:4f:68:74:5f:21:49:1b:72:84:29:36:6f:59:23:a5:76:
         d0:eb:97:86:18:98:43:a2:fc:74:16:a6:f9:56:e9:c3:10:aa:
         ab:55:8e:77:8b:62:ea:ef:7d:f4:70:d2:b2:b4:7b:6d:37:87:
         4c:bf:51:72:ee:f8:d2:c8:56:12:d4:68:87:cf:b7:12:c9:7d:
         31:b3:00:4a
-----BEGIN CERTIFICATE-----
MIIDXDCCAkSgAwIBAgIQA/R6X3ukEobykvPmSG38JjANBgkqhkiG9w0BAQsFADAW
MRQwEgYDVQQDDAt0ZWFtMzk1LW5ldDAeFw0yMjA1MTgyMDU5MzVaFw0yNTA1MDIy
MDU5MzVaMBkxFzAVBgNVBAMMDnRlYW0zOTUtY2xpZW50MIIBIjANBgkqhkiG9w0B
AQEFAAOCAQ8AMIIBCgKCAQEAyv9OA92YFufZHzl4RGTYj7r7V9bz0rSyGKYOopjw
tlSeuPK8mTpsNfzGiym7zm46jKfw+sNhyiAwwxtDYdE9jtXPVwpT8yCjOq9GTn9D
Ms2JAqxqNliuIukFX/QKtdu921LSmWRJ+tSgSvgWlAhL3zOlZfUMB4VORXK6q3g/
IPBXmX8GAoOpYJaW9HasBaSXxxpYE3wEONSsgQQAdloIAk5xJXAzRmafDKuzkkCt
Rmd9tXZ8QWn6RG1uOFIlDUVnCYYIOwAyU29JBVdMkXUXRyycFIDK19pWte4vgTsU
GR/+6BvyRpDWmxEEE8QQlUA705k+WtOBFqqk7huQEmKSDwIDAQABo4GiMIGfMAkG
A1UdEwQCMAAwHQYDVR0OBBYEFCPhgfD/bkGREepn0PV8xNo1bWmKMFEGA1UdIwRK
MEiAFG4yAxwm+XUvKQIQf0UwnuQJqxPEoRqkGDAWMRQwEgYDVQQDDAt0ZWFtMzk1
LW5ldIIUTkmzsPbtV8tpcVTtF7kfngFlA1wwEwYDVR0lBAwwCgYIKwYBBQUHAwIw
CwYDVR0PBAQDAgeAMA0GCSqGSIb3DQEBCwUAA4IBAQBtDUOit2AfVujor584ptyR
iwnZszQK5XjR6XwoIfApP4hgEIAdzk1oKKarxADYouOCbyV920Kt/KJkuNchTw8G
SEaehqtQ1fMG4d1R9S1C/rvBY+G34zYTOtLjLknfMbeciloy+fgEQJB5FD0bmfvC
a4HW8+zk9X0NQ9GZIKu1MfElmaX1SA7BYjJA5P42XrcKjGZ8VCcBtDKmIqDgFbHa
tAtLS4CGuEZCdMESesRIK3sKCk4xJU9odF8hSRtyhCk2b1kjpXbQ65eGGJhDovx0
Fqb5VunDEKqrVY53i2Lq7330cNKytHttN4dMv1Fy7vjSyFYS1GiHz7cSyX0xswBK
-----END CERTIFICATE-----
