Certificate:
    Data:
        Version: 3 (0x2)
        Serial Number:
            ae:18:87:f9:33:2d:e6:a0:3d:07:16:30:bd:07:17:62
        Signature Algorithm: sha256WithRSAEncryption
        Issuer: CN=team76-net
        Validity
            Not Before: May 18 14:35:00 2022 GMT
            Not After : May  2 14:35:00 2025 GMT
        Subject: CN=team76-client
        Subject Public Key Info:
            Public Key Algorithm: rsaEncryption
                RSA Public-Key: (2048 bit)
                Modulus:
                    00:e0:3f:82:59:43:c0:52:10:45:f9:cb:4b:e3:29:
                    1e:4f:e1:f2:57:64:5e:76:16:50:9e:b2:85:ff:a0:
                    d0:d5:cd:68:b9:6e:f7:0b:7e:19:61:96:2e:20:b6:
                    68:f0:f2:4c:27:34:45:d2:f3:7e:3a:b2:69:5f:bb:
                    78:1a:21:34:20:fe:b5:84:8f:89:be:11:92:5d:c8:
                    89:52:e5:d0:3d:18:f7:94:7e:b3:c3:e2:8e:00:af:
                    8f:aa:9c:b6:e8:7d:c3:df:0a:3b:7a:3f:94:ae:74:
                    9d:66:4d:cc:19:4f:cc:47:e6:9c:03:ec:7c:f9:2a:
                    b4:6c:56:c4:70:c6:d8:a8:58:de:2c:21:fe:3f:8c:
                    05:d9:38:90:ea:5c:ea:57:a0:85:23:18:ee:d5:60:
                    23:05:f9:02:2c:e9:94:73:76:89:e1:a4:21:c2:0e:
                    62:5e:81:1a:e7:4c:54:0a:7a:72:43:c8:83:66:8e:
                    cb:06:8e:b3:a2:d0:db:2c:18:64:c0:36:1a:40:4f:
                    6f:9b:4a:b4:cd:4e:95:1e:ed:44:ee:32:77:c2:bc:
                    96:9e:7a:a7:0b:f5:27:11:d6:fe:5e:28:28:97:68:
                    fc:b4:1d:fb:bc:a4:80:31:c9:7d:3e:6d:3a:46:e8:
                    05:c7:1a:f2:5c:59:bd:2a:58:26:28:2e:15:bc:e2:
                    87:ab
                Exponent: 65537 (0x10001)
        X509v3 extensions:
            X509v3 Basic Constraints: 
                CA:FALSE
            X509v3 Subject Key Identifier: 
                A0:58:14:91:83:17:B6:AB:E8:DE:F9:F8:41:9E:7C:B0:AE:78:B0:83
            X509v3 Authority Key Identifier: 
                keyid:C4:89:D8:D5:03:3E:E3:47:A5:42:CA:79:CD:72:D1:D4:FF:93:4E:6E
                DirName:/CN=team76-net
                serial:57:9C:4F:E7:EE:42:AD:D6:4E:8D:0A:3E:49:CC:EC:44:94:BF:8B:2E

            X509v3 Extended Key Usage: 
                TLS Web Client Authentication
            X509v3 Key Usage: 
                Digital Signature
    Signature Algorithm: sha256WithRSAEncryption
         12:f0:09:5d:c8:3f:e3:a4:d6:db:05:43:d8:90:03:d1:98:b4:
         50:3b:c0:61:2d:46:50:b8:59:50:a9:19:fc:ce:b4:c4:2e:11:
         3d:6e:78:c6:f2:dc:e3:50:10:af:ac:d2:58:15:86:4c:ac:3e:
         dd:20:27:28:cf:75:c2:5a:81:4d:96:b7:44:9e:84:97:da:5b:
         df:9b:e0:7c:e8:82:66:74:5b:ed:a2:92:66:0f:43:76:62:3d:
         55:de:1a:07:89:08:9e:54:fc:56:77:65:e3:03:31:54:e3:34:
         8f:f8:c1:06:e4:73:e9:19:af:7b:89:b9:fe:ec:cc:32:8c:f7:
         19:34:df:d5:25:98:0b:ff:0a:c8:e6:0a:9c:56:f5:83:35:66:
         10:1e:5c:3d:d6:5b:ef:80:bf:68:66:cd:51:ae:b4:c5:9f:85:
         08:11:3d:7c:e0:7d:d3:83:e1:7c:71:65:ee:b7:bc:03:c2:73:
         87:f8:b6:87:1c:f4:47:98:f4:3b:10:d4:1a:40:19:f7:b0:b7:
         08:9d:d3:b2:9d:53:ea:2c:ed:f7:a5:d4:7f:78:6b:02:c6:7e:
         c7:96:5b:24:ee:3c:8f:e1:5a:56:36:71:d0:a0:59:71:bb:2b:
         61:06:a7:31:d4:6c:d9:dc:70:f5:85:26:a6:e6:90:48:aa:bc:
         24:5f:35:8a
-----BEGIN CERTIFICATE-----
MIIDWjCCAkKgAwIBAgIRAK4Yh/kzLeagPQcWML0HF2IwDQYJKoZIhvcNAQELBQAw
FTETMBEGA1UEAwwKdGVhbTc2LW5ldDAeFw0yMjA1MTgxNDM1MDBaFw0yNTA1MDIx
NDM1MDBaMBgxFjAUBgNVBAMMDXRlYW03Ni1jbGllbnQwggEiMA0GCSqGSIb3DQEB
AQUAA4IBDwAwggEKAoIBAQDgP4JZQ8BSEEX5y0vjKR5P4fJXZF52FlCesoX/oNDV
zWi5bvcLfhlhli4gtmjw8kwnNEXS8346smlfu3gaITQg/rWEj4m+EZJdyIlS5dA9
GPeUfrPD4o4Ar4+qnLbofcPfCjt6P5SudJ1mTcwZT8xH5pwD7Hz5KrRsVsRwxtio
WN4sIf4/jAXZOJDqXOpXoIUjGO7VYCMF+QIs6ZRzdonhpCHCDmJegRrnTFQKenJD
yINmjssGjrOi0NssGGTANhpAT2+bSrTNTpUe7UTuMnfCvJaeeqcL9ScR1v5eKCiX
aPy0Hfu8pIAxyX0+bTpG6AXHGvJcWb0qWCYoLhW84oerAgMBAAGjgaEwgZ4wCQYD
VR0TBAIwADAdBgNVHQ4EFgQUoFgUkYMXtqvo3vn4QZ58sK54sIMwUAYDVR0jBEkw
R4AUxInY1QM+40elQsp5zXLR1P+TTm6hGaQXMBUxEzARBgNVBAMMCnRlYW03Ni1u
ZXSCFFecT+fuQq3WTo0KPknM7ESUv4suMBMGA1UdJQQMMAoGCCsGAQUFBwMCMAsG
A1UdDwQEAwIHgDANBgkqhkiG9w0BAQsFAAOCAQEAEvAJXcg/46TW2wVD2JAD0Zi0
UDvAYS1GULhZUKkZ/M60xC4RPW54xvLc41AQr6zSWBWGTKw+3SAnKM91wlqBTZa3
RJ6El9pb35vgfOiCZnRb7aKSZg9DdmI9Vd4aB4kInlT8Vndl4wMxVOM0j/jBBuRz
6Rmve4m5/uzMMoz3GTTf1SWYC/8KyOYKnFb1gzVmEB5cPdZb74C/aGbNUa60xZ+F
CBE9fOB904PhfHFl7re8A8Jzh/i2hxz0R5j0OxDUGkAZ97C3CJ3Tsp1T6izt96XU
f3hrAsZ+x5ZbJO48j+FaVjZx0KBZcbsrYQanMdRs2dxw9YUmpuaQSKq8JF81ig==
-----END CERTIFICATE-----
