Certificate:
    Data:
        Version: 3 (0x2)
        Serial Number:
            59:fd:71:12:e2:e5:9a:31:40:68:34:72:ff:0c:01:48
        Signature Algorithm: sha256WithRSAEncryption
        Issuer: CN=team53-net
        Validity
            Not Before: May 18 14:23:01 2022 GMT
            Not After : May  2 14:23:01 2025 GMT
        Subject: CN=team53-client
        Subject Public Key Info:
            Public Key Algorithm: rsaEncryption
                RSA Public-Key: (2048 bit)
                Modulus:
                    00:c8:f8:b7:5c:a4:dd:df:17:c7:5e:ca:b0:46:db:
                    ff:7b:96:6d:0f:c3:af:f2:d5:74:69:7b:42:a3:3b:
                    19:15:42:3e:0a:b0:1f:14:7e:ea:34:5a:bb:1e:f1:
                    ed:c7:e5:21:99:94:a9:aa:92:6e:d6:b5:09:0f:71:
                    cf:d7:ce:98:6a:d8:cd:87:e9:ea:07:e2:0e:5b:e8:
                    2e:22:c1:96:e9:81:06:df:d5:08:3a:b6:5b:cd:1e:
                    b4:a2:28:4b:8b:c5:5d:c3:01:93:67:8c:e1:8a:f3:
                    b4:16:2c:31:51:d5:9c:60:37:49:05:40:1f:e4:83:
                    23:da:08:91:57:1b:23:74:14:2e:e0:04:90:1f:4d:
                    c6:b4:af:f7:fe:72:b3:97:0d:46:58:b5:d9:16:94:
                    33:16:29:7e:70:a7:d4:45:c0:a2:6e:c1:1f:3e:12:
                    7d:97:a6:c0:ee:51:d6:12:87:d7:56:75:f9:82:fa:
                    15:6f:22:bd:81:83:2b:88:73:27:bd:83:4d:45:08:
                    70:78:a3:99:60:c1:36:69:3a:87:39:ee:db:92:13:
                    a6:9a:c4:9a:6c:3e:d8:ea:f2:1e:34:87:94:3a:4e:
                    cd:60:f1:ae:79:ab:95:38:c4:95:26:99:4f:b1:8e:
                    6b:51:76:a7:49:6a:b7:8e:a8:a4:07:07:a9:22:0c:
                    17:c9
                Exponent: 65537 (0x10001)
        X509v3 extensions:
            X509v3 Basic Constraints: 
                CA:FALSE
            X509v3 Subject Key Identifier: 
                FE:97:78:FB:CB:45:2A:71:DE:CB:D8:FE:74:B6:56:37:24:2C:4C:4C
            X509v3 Authority Key Identifier: 
                keyid:86:AD:0C:CC:09:6B:91:10:4C:A9:12:D8:6C:17:CB:B1:F2:6B:E3:D8
                DirName:/CN=team53-net
                serial:1B:C9:3E:B9:2D:1E:E2:4F:F4:DE:7A:14:01:2C:2E:CE:AC:DB:09:38

            X509v3 Extended Key Usage: 
                TLS Web Client Authentication
            X509v3 Key Usage: 
                Digital Signature
    Signature Algorithm: sha256WithRSAEncryption
         70:2e:c1:2a:f4:87:d5:df:6f:dc:6b:ac:92:e1:ce:53:8e:7d:
         32:83:31:a5:8a:81:8b:b8:05:79:e4:68:8d:fd:d7:d0:b9:44:
         3c:8b:e8:cf:fd:4e:e9:93:25:2a:b8:a8:bf:fe:2c:e5:9e:79:
         98:4e:5d:9f:fb:fc:f7:00:dd:2c:b9:3e:a7:cd:12:9d:d8:9f:
         f1:65:ca:45:c6:a7:90:83:c6:09:58:3c:0a:e3:20:04:09:34:
         5c:dc:dc:77:cb:b8:e1:ac:69:39:e7:26:56:b4:30:85:ac:8c:
         1a:c5:f4:b9:8b:9f:b4:7e:9e:77:db:51:dd:e1:92:cb:f7:e2:
         9b:a4:d5:bc:e0:3b:a1:ce:5f:d9:ec:8d:a5:ed:7e:e3:9e:01:
         10:64:0a:cc:47:f9:78:66:e0:ca:69:1d:32:e3:9e:7a:eb:b9:
         e8:8d:f9:4c:bd:6b:68:c6:09:a3:e4:aa:f7:9b:76:55:ea:77:
         d1:2a:6b:49:72:3f:90:fe:c2:21:d6:f2:cc:50:65:b7:62:c9:
         dd:a3:3e:bc:39:37:26:29:f3:34:35:40:53:3a:3b:2f:55:80:
         c5:8b:53:d2:01:44:b0:c3:3d:68:bb:90:e1:0c:62:0b:05:83:
         1f:80:06:46:97:d9:70:f6:9a:02:d7:be:01:7c:4e:cc:59:11:
         5a:bf:13:e3
-----BEGIN CERTIFICATE-----
MIIDWTCCAkGgAwIBAgIQWf1xEuLlmjFAaDRy/wwBSDANBgkqhkiG9w0BAQsFADAV
MRMwEQYDVQQDDAp0ZWFtNTMtbmV0MB4XDTIyMDUxODE0MjMwMVoXDTI1MDUwMjE0
MjMwMVowGDEWMBQGA1UEAwwNdGVhbTUzLWNsaWVudDCCASIwDQYJKoZIhvcNAQEB
BQADggEPADCCAQoCggEBAMj4t1yk3d8Xx17KsEbb/3uWbQ/Dr/LVdGl7QqM7GRVC
PgqwHxR+6jRaux7x7cflIZmUqaqSbta1CQ9xz9fOmGrYzYfp6gfiDlvoLiLBlumB
Bt/VCDq2W80etKIoS4vFXcMBk2eM4YrztBYsMVHVnGA3SQVAH+SDI9oIkVcbI3QU
LuAEkB9NxrSv9/5ys5cNRli12RaUMxYpfnCn1EXAom7BHz4SfZemwO5R1hKH11Z1
+YL6FW8ivYGDK4hzJ72DTUUIcHijmWDBNmk6hznu25ITpprEmmw+2OryHjSHlDpO
zWDxrnmrlTjElSaZT7GOa1F2p0lqt46opAcHqSIMF8kCAwEAAaOBoTCBnjAJBgNV
HRMEAjAAMB0GA1UdDgQWBBT+l3j7y0Uqcd7L2P50tlY3JCxMTDBQBgNVHSMESTBH
gBSGrQzMCWuREEypEthsF8ux8mvj2KEZpBcwFTETMBEGA1UEAwwKdGVhbTUzLW5l
dIIUG8k+uS0e4k/03noUASwuzqzbCTgwEwYDVR0lBAwwCgYIKwYBBQUHAwIwCwYD
VR0PBAQDAgeAMA0GCSqGSIb3DQEBCwUAA4IBAQBwLsEq9IfV32/ca6yS4c5Tjn0y
gzGlioGLuAV55GiN/dfQuUQ8i+jP/U7pkyUquKi//izlnnmYTl2f+/z3AN0suT6n
zRKd2J/xZcpFxqeQg8YJWDwK4yAECTRc3Nx3y7jhrGk55yZWtDCFrIwaxfS5i5+0
fp5321Hd4ZLL9+KbpNW84Duhzl/Z7I2l7X7jngEQZArMR/l4ZuDKaR0y455667no
jflMvWtoxgmj5Kr3m3ZV6nfRKmtJcj+Q/sIh1vLMUGW3Ysndoz68OTcmKfM0NUBT
OjsvVYDFi1PSAUSwwz1ou5DhDGILBYMfgAZGl9lw9poC174BfE7MWRFavxPj
-----END CERTIFICATE-----
