Certificate:
    Data:
        Version: 3 (0x2)
        Serial Number:
            39:21:b1:e4:ef:7c:40:70:d2:9d:ae:a8:27:02:62:6c
        Signature Algorithm: sha256WithRSAEncryption
        Issuer: CN=team193-net
        Validity
            Not Before: May 18 19:04:24 2022 GMT
            Not After : May  2 19:04:24 2025 GMT
        Subject: CN=team193-client
        Subject Public Key Info:
            Public Key Algorithm: rsaEncryption
                RSA Public-Key: (2048 bit)
                Modulus:
                    00:c1:e0:83:01:fb:58:5f:d0:62:be:65:86:e4:aa:
                    6a:3f:61:b3:f1:82:1b:6b:51:88:d2:6b:7c:c0:72:
                    48:95:20:36:f1:de:66:04:2a:2c:94:73:96:55:0e:
                    03:35:1d:43:5a:22:ff:82:d8:8b:b5:64:e5:c6:df:
                    a8:30:55:84:2b:83:3c:1e:28:d8:ea:d4:fb:69:d7:
                    49:67:62:10:a2:c1:20:31:35:1f:58:a7:c6:9d:a2:
                    41:72:7c:84:df:07:7f:47:a8:8a:ca:ce:cc:6b:da:
                    f3:79:05:41:11:ef:92:35:1c:3f:29:84:ff:81:82:
                    6a:c4:f2:99:0b:c0:49:c1:b8:04:4e:b6:db:78:05:
                    62:80:c9:a1:ef:ef:30:97:e1:56:a3:42:f1:ce:74:
                    0e:bf:c1:66:dd:fb:75:11:a8:8e:79:30:8c:1f:3c:
                    66:c0:43:eb:d6:57:04:55:a2:1f:2c:72:60:f2:26:
                    9b:96:67:40:5f:12:0a:c0:c1:a0:49:e8:42:c6:50:
                    04:4f:23:2c:fc:00:a0:7c:24:0a:ff:40:bd:56:5b:
                    2d:e0:a9:a0:0d:1f:83:00:bb:4b:54:80:ee:7b:5e:
                    61:ba:40:00:b2:3e:4e:ba:ec:c1:e9:84:73:23:68:
                    f4:d2:f4:d8:35:00:78:a5:03:15:ba:0f:38:18:95:
                    2d:7f
                Exponent: 65537 (0x10001)
        X509v3 extensions:
            X509v3 Basic Constraints: 
                CA:FALSE
            X509v3 Subject Key Identifier: 
                6D:0E:37:29:93:0E:FE:36:8A:DE:35:DD:D1:6D:7E:3E:A3:E5:7F:81
            X509v3 Authority Key Identifier: 
                keyid:69:44:4E:43:8C:E6:3F:A6:62:2E:AF:37:54:32:B5:16:CB:7E:28:93
                DirName:/CN=team193-net
                serial:2C:E5:78:09:0B:1B:FE:26:AE:0E:AA:30:3C:62:F4:6E:5E:29:95:B6

            X509v3 Extended Key Usage: 
                TLS Web Client Authentication
            X509v3 Key Usage: 
                Digital Signature
    Signature Algorithm: sha256WithRSAEncryption
         b5:58:cd:f4:33:91:4e:b6:9c:c1:dc:ef:c8:11:e2:35:a4:65:
         07:a8:ad:1d:0c:3f:f8:7a:53:ba:52:25:8e:6a:f1:3b:25:64:
         c3:39:f6:db:80:64:e8:81:79:a4:a8:c1:82:4a:30:a9:e8:f6:
         58:af:e4:1b:58:6f:53:4f:a7:d7:fd:49:16:bd:00:ed:73:95:
         32:1f:9e:87:b1:3f:5f:fa:81:2a:f3:88:39:bc:4f:21:cd:94:
         28:8b:d4:5b:24:ca:7e:15:31:8d:21:ad:92:30:ad:8d:c5:4b:
         b5:74:e3:59:83:7f:61:ba:f2:1a:94:47:9b:e7:9e:e3:43:20:
         d4:e8:89:12:db:78:97:44:d1:00:45:a8:a7:d1:3d:6c:cc:86:
         6b:95:36:e3:c1:93:27:08:c6:e6:0a:d4:18:47:e5:91:25:da:
         fd:53:81:02:2b:0c:8f:e0:c5:2c:ed:9c:80:d1:06:e9:fb:b7:
         e2:70:f6:b9:85:28:01:7d:34:5e:76:c2:d0:1b:f6:14:88:48:
         c4:b1:4c:1d:50:35:c3:2a:8b:77:4d:a7:7d:7a:2f:d5:61:1b:
         cb:bb:eb:1d:57:63:4d:32:49:30:23:c0:8f:f9:55:5c:e1:bd:
         f9:d6:d6:85:fa:28:de:fe:a2:a5:e2:8a:cb:56:58:f1:ee:d1:
         b4:15:b2:84
-----BEGIN CERTIFICATE-----
MIIDXDCCAkSgAwIBAgIQOSGx5O98QHDSna6oJwJibDANBgkqhkiG9w0BAQsFADAW
MRQwEgYDVQQDDAt0ZWFtMTkzLW5ldDAeFw0yMjA1MTgxOTA0MjRaFw0yNTA1MDIx
OTA0MjRaMBkxFzAVBgNVBAMMDnRlYW0xOTMtY2xpZW50MIIBIjANBgkqhkiG9w0B
AQEFAAOCAQ8AMIIBCgKCAQEAweCDAftYX9BivmWG5KpqP2Gz8YIba1GI0mt8wHJI
lSA28d5mBCoslHOWVQ4DNR1DWiL/gtiLtWTlxt+oMFWEK4M8HijY6tT7addJZ2IQ
osEgMTUfWKfGnaJBcnyE3wd/R6iKys7Ma9rzeQVBEe+SNRw/KYT/gYJqxPKZC8BJ
wbgETrbbeAVigMmh7+8wl+FWo0LxznQOv8Fm3ft1EaiOeTCMHzxmwEPr1lcEVaIf
LHJg8iablmdAXxIKwMGgSehCxlAETyMs/ACgfCQK/0C9Vlst4KmgDR+DALtLVIDu
e15hukAAsj5OuuzB6YRzI2j00vTYNQB4pQMVug84GJUtfwIDAQABo4GiMIGfMAkG
A1UdEwQCMAAwHQYDVR0OBBYEFG0ONymTDv42it413dFtfj6j5X+BMFEGA1UdIwRK
MEiAFGlETkOM5j+mYi6vN1QytRbLfiiToRqkGDAWMRQwEgYDVQQDDAt0ZWFtMTkz
LW5ldIIULOV4CQsb/iauDqowPGL0bl4plbYwEwYDVR0lBAwwCgYIKwYBBQUHAwIw
CwYDVR0PBAQDAgeAMA0GCSqGSIb3DQEBCwUAA4IBAQC1WM30M5FOtpzB3O/IEeI1
pGUHqK0dDD/4elO6UiWOavE7JWTDOfbbgGTogXmkqMGCSjCp6PZYr+QbWG9TT6fX
/UkWvQDtc5UyH56HsT9f+oEq84g5vE8hzZQoi9RbJMp+FTGNIa2SMK2NxUu1dONZ
g39huvIalEeb557jQyDU6IkS23iXRNEARain0T1szIZrlTbjwZMnCMbmCtQYR+WR
Jdr9U4ECKwyP4MUs7ZyA0Qbp+7ficPa5hSgBfTRedsLQG/YUiEjEsUwdUDXDKot3
Tad9ei/VYRvLu+sdV2NNMkkwI8CP+VVc4b351taF+ije/qKl4orLVljx7tG0FbKE
-----END CERTIFICATE-----
