Certificate:
    Data:
        Version: 3 (0x2)
        Serial Number:
            fd:07:d6:84:d5:48:3c:39:43:a0:8e:7a:5a:38:3d:65
        Signature Algorithm: sha256WithRSAEncryption
        Issuer: CN=team162-net
        Validity
            Not Before: May 18 18:41:44 2022 GMT
            Not After : May  2 18:41:44 2025 GMT
        Subject: CN=team162-server
        Subject Public Key Info:
            Public Key Algorithm: rsaEncryption
                RSA Public-Key: (2048 bit)
                Modulus:
                    00:e0:27:4c:a1:89:fc:a5:8a:f3:e3:ac:5c:c9:ad:
                    c1:2d:bd:70:c7:fa:6a:4e:3d:a7:b6:fe:6a:30:0b:
                    a7:f5:e0:5d:b4:69:9c:8a:47:70:fc:56:66:8e:96:
                    e8:d4:08:19:58:0f:81:4c:a3:63:22:8d:ca:42:7a:
                    32:e5:c1:1b:df:0d:c4:96:fd:3a:91:e8:a0:d2:d1:
                    e9:a0:60:29:9e:cf:ee:53:ee:3e:54:b8:ff:c5:63:
                    4e:1c:19:7d:d4:fb:b6:12:1a:e1:00:dc:d2:86:d3:
                    a6:ae:b9:60:d1:50:77:24:ce:b9:2e:79:f0:31:b3:
                    84:4e:a7:96:6b:b1:d2:88:96:24:4f:de:24:9a:28:
                    16:df:9d:31:4f:d3:d3:0d:a5:c5:bf:41:31:de:70:
                    80:71:98:08:90:e7:1b:f8:80:96:84:53:f9:8d:80:
                    05:f1:87:9a:74:73:71:ce:de:67:be:f5:a5:b8:c0:
                    cf:81:bf:8e:62:1a:98:a2:68:6f:29:8d:64:fd:a8:
                    94:71:02:30:f1:31:30:35:0b:36:28:47:17:b3:d3:
                    f8:66:71:66:ee:fb:08:48:57:bf:c7:c2:24:50:22:
                    be:88:60:72:24:9e:c8:b2:f0:4d:2f:d3:74:34:ef:
                    7b:e3:45:0b:fa:f0:ec:61:7f:a0:bc:f2:9d:5d:58:
                    89:e1
                Exponent: 65537 (0x10001)
        X509v3 extensions:
            X509v3 Basic Constraints: 
                CA:FALSE
            X509v3 Subject Key Identifier: 
                01:A7:AB:B2:1A:28:85:A0:7D:52:AC:6A:07:EE:80:2B:E5:B4:B6:13
            X509v3 Authority Key Identifier: 
                keyid:91:B5:DC:34:95:9C:93:31:6E:CB:80:64:6B:58:56:45:B8:DF:35:4D
                DirName:/CN=team162-net
                serial:13:94:02:A6:8A:F7:76:07:8A:28:9D:D3:2C:99:14:6A:B2:0F:56:91

            X509v3 Extended Key Usage: 
                TLS Web Server Authentication
            X509v3 Key Usage: 
                Digital Signature, Key Encipherment
            X509v3 Subject Alternative Name: 
                DNS:team162-server
    Signature Algorithm: sha256WithRSAEncryption
         69:8c:16:87:39:c8:8b:28:6f:e4:34:aa:08:80:f3:87:56:64:
         2f:2e:cc:a3:e7:d5:7e:37:bd:96:c2:2b:6c:62:e8:6f:ba:cd:
         91:1a:26:26:cc:00:40:61:2b:07:ff:7b:5b:62:cf:10:a2:ce:
         5a:b0:8c:07:46:71:ee:0c:e4:4c:f2:56:cb:68:0b:04:bc:40:
         6c:ef:08:86:c5:d9:65:d3:ac:3f:e1:fa:9c:ae:b7:be:4b:87:
         54:67:2a:e4:be:b4:ab:a9:6c:a7:c8:8d:ba:f4:51:a0:eb:bf:
         31:b9:10:11:0c:23:13:f0:1f:a5:10:41:87:8e:b1:59:3f:8a:
         ff:e5:ae:f1:cc:d6:ff:f1:4c:fb:17:d8:e8:03:31:6a:51:22:
         4d:43:c6:c6:03:16:78:04:2d:a3:48:d2:8f:69:42:d0:61:77:
         b2:19:3e:85:62:fb:ee:eb:02:7b:0a:b9:c9:b1:06:0b:3d:95:
         c1:ad:17:28:eb:bc:f0:06:06:82:49:f5:cd:82:70:47:f8:8a:
         f8:5b:3e:e3:d1:82:4d:65:69:35:6a:d8:e9:83:ba:c2:44:56:
         c5:74:c7:ae:8b:35:b1:92:bf:f0:bb:bd:fb:85:ad:32:9d:8a:
         34:38:d0:0b:20:a9:1d:07:84:c6:a5:9d:21:fa:2f:79:50:55:
         9c:e1:a5:0c
-----BEGIN CERTIFICATE-----
MIIDeDCCAmCgAwIBAgIRAP0H1oTVSDw5Q6COelo4PWUwDQYJKoZIhvcNAQELBQAw
FjEUMBIGA1UEAwwLdGVhbTE2Mi1uZXQwHhcNMjIwNTE4MTg0MTQ0WhcNMjUwNTAy
MTg0MTQ0WjAZMRcwFQYDVQQDDA50ZWFtMTYyLXNlcnZlcjCCASIwDQYJKoZIhvcN
AQEBBQADggEPADCCAQoCggEBAOAnTKGJ/KWK8+OsXMmtwS29cMf6ak49p7b+ajAL
p/XgXbRpnIpHcPxWZo6W6NQIGVgPgUyjYyKNykJ6MuXBG98NxJb9OpHooNLR6aBg
KZ7P7lPuPlS4/8VjThwZfdT7thIa4QDc0obTpq65YNFQdyTOuS558DGzhE6nlmux
0oiWJE/eJJooFt+dMU/T0w2lxb9BMd5wgHGYCJDnG/iAloRT+Y2ABfGHmnRzcc7e
Z771pbjAz4G/jmIamKJobymNZP2olHECMPExMDULNihHF7PT+GZxZu77CEhXv8fC
JFAivohgciSeyLLwTS/TdDTve+NFC/rw7GF/oLzynV1YieECAwEAAaOBvTCBujAJ
BgNVHRMEAjAAMB0GA1UdDgQWBBQBp6uyGiiFoH1SrGoH7oAr5bS2EzBRBgNVHSME
SjBIgBSRtdw0lZyTMW7LgGRrWFZFuN81TaEapBgwFjEUMBIGA1UEAwwLdGVhbTE2
Mi1uZXSCFBOUAqaK93YHiiid0yyZFGqyD1aRMBMGA1UdJQQMMAoGCCsGAQUFBwMB
MAsGA1UdDwQEAwIFoDAZBgNVHREEEjAQgg50ZWFtMTYyLXNlcnZlcjANBgkqhkiG
9w0BAQsFAAOCAQEAaYwWhznIiyhv5DSqCIDzh1ZkLy7Mo+fVfje9lsIrbGLob7rN
kRomJswAQGErB/97W2LPEKLOWrCMB0Zx7gzkTPJWy2gLBLxAbO8IhsXZZdOsP+H6
nK63vkuHVGcq5L60q6lsp8iNuvRRoOu/MbkQEQwjE/AfpRBBh46xWT+K/+Wu8czW
//FM+xfY6AMxalEiTUPGxgMWeAQto0jSj2lC0GF3shk+hWL77usCewq5ybEGCz2V
wa0XKOu88AYGgkn1zYJwR/iK+Fs+49GCTWVpNWrY6YO6wkRWxXTHros1sZK/8Lu9
+4WtMp2KNDjQCyCpHQeExqWdIfoveVBVnOGlDA==
-----END CERTIFICATE-----
