Certificate:
    Data:
        Version: 3 (0x2)
        Serial Number:
            14:15:15:71:fe:51:25:2a:6e:82:92:61:7a:08:50:10
        Signature Algorithm: sha256WithRSAEncryption
        Issuer: CN=team563-net
        Validity
            Not Before: May 18 22:25:54 2022 GMT
            Not After : May  2 22:25:54 2025 GMT
        Subject: CN=team563-client
        Subject Public Key Info:
            Public Key Algorithm: rsaEncryption
                RSA Public-Key: (2048 bit)
                Modulus:
                    00:e3:98:2d:81:d0:72:16:0c:e3:8d:0f:9d:b8:fa:
                    1b:ce:56:bb:e6:ae:1a:b4:dc:cb:17:38:48:e2:22:
                    4e:ce:10:d1:5e:5f:a4:b5:fe:cd:6d:73:94:1d:37:
                    42:01:3a:bc:33:d5:af:ba:ee:fe:9a:4e:45:0e:d3:
                    fd:b7:e0:8e:0d:31:88:e5:d9:ed:48:35:c4:09:63:
                    8e:cb:42:66:92:47:7a:94:05:40:7b:0f:e1:8e:52:
                    92:e9:97:e1:4a:d6:37:35:67:ab:a8:e9:0f:0e:71:
                    03:14:ad:1d:3a:77:77:e8:40:02:9f:43:02:aa:40:
                    0e:f4:c8:4e:8c:ed:70:69:ad:90:21:eb:94:f1:78:
                    81:43:ad:81:af:f9:42:f9:70:b9:50:ff:9c:32:6c:
                    4e:ae:6b:0d:62:c1:b9:a5:dc:ee:42:f2:99:25:30:
                    82:83:72:52:ab:2e:cc:88:88:3b:db:85:44:0c:59:
                    7b:cc:cc:8e:43:f7:f3:84:f6:81:1a:13:3c:5e:70:
                    f5:6b:46:4f:64:bb:93:f3:24:f9:4a:b0:b8:c1:01:
                    c4:b1:6f:b4:83:e8:b5:1f:37:1f:9b:b0:2a:0a:9c:
                    b0:70:6a:ec:44:39:0f:3a:95:b3:3d:53:c0:31:41:
                    1a:ba:ae:e1:c8:7e:76:1e:d2:bf:a4:b0:84:0f:92:
                    d1:f3
                Exponent: 65537 (0x10001)
        X509v3 extensions:
            X509v3 Basic Constraints: 
                CA:FALSE
            X509v3 Subject Key Identifier: 
                68:76:58:21:C7:90:3F:44:29:66:14:D9:B3:DB:38:30:08:F9:67:35
            X509v3 Authority Key Identifier: 
                keyid:46:49:2C:E5:63:E4:60:03:B9:EC:BA:40:52:53:B4:FD:EB:29:47:EF
                DirName:/CN=team563-net
                serial:73:9B:EE:A9:5C:76:F1:1B:E4:F0:8C:80:78:D8:E5:7C:F3:B2:73:35

            X509v3 Extended Key Usage: 
                TLS Web Client Authentication
            X509v3 Key Usage: 
                Digital Signature
    Signature Algorithm: sha256WithRSAEncryption
         b3:76:c8:4c:3c:89:cb:a3:90:67:6e:d4:d8:b5:1c:30:3c:19:
         75:ed:40:7c:77:5e:2a:09:e2:8b:66:32:48:5e:57:ac:a5:34:
         8e:7d:bd:27:ff:97:1c:97:b5:ce:14:88:c2:f8:96:a1:76:dc:
         e5:3e:19:2a:40:40:4f:c9:c8:91:91:92:c1:a2:21:17:57:88:
         8a:4d:e7:a1:10:6d:86:a6:b8:b9:47:2a:09:62:8d:b5:ae:f8:
         f7:2f:82:48:42:4a:65:ae:52:e0:2b:08:ee:26:c0:20:92:3e:
         f1:59:59:bb:10:24:80:94:08:47:9a:6a:64:76:d4:01:89:6b:
         bf:95:ad:fe:a8:a1:a8:e0:cb:17:c0:31:f5:4b:32:ff:58:2d:
         56:dd:8d:3a:de:0f:7d:38:ca:00:19:d4:f4:f1:fb:bb:20:3a:
         9d:ab:19:e2:2d:50:9a:ed:a9:c9:a3:53:68:3e:36:5a:a4:46:
         75:6e:41:d9:6b:65:51:ec:27:9c:ed:05:bb:c3:c0:f7:6a:f7:
         f8:cb:bc:e2:a3:74:eb:ae:10:bb:fe:0a:26:70:ec:d6:61:73:
         02:52:80:5b:ea:5a:92:e7:06:22:97:1d:15:80:8d:80:f6:7b:
         7d:8c:8e:bd:31:c7:65:de:96:76:84:18:9a:cc:4b:c3:11:04:
         af:4f:b9:18
-----BEGIN CERTIFICATE-----
MIIDXDCCAkSgAwIBAgIQFBUVcf5RJSpugpJheghQEDANBgkqhkiG9w0BAQsFADAW
MRQwEgYDVQQDDAt0ZWFtNTYzLW5ldDAeFw0yMjA1MTgyMjI1NTRaFw0yNTA1MDIy
MjI1NTRaMBkxFzAVBgNVBAMMDnRlYW01NjMtY2xpZW50MIIBIjANBgkqhkiG9w0B
AQEFAAOCAQ8AMIIBCgKCAQEA45gtgdByFgzjjQ+duPobzla75q4atNzLFzhI4iJO
zhDRXl+ktf7NbXOUHTdCATq8M9Wvuu7+mk5FDtP9t+CODTGI5dntSDXECWOOy0Jm
kkd6lAVAew/hjlKS6ZfhStY3NWerqOkPDnEDFK0dOnd36EACn0MCqkAO9MhOjO1w
aa2QIeuU8XiBQ62Br/lC+XC5UP+cMmxOrmsNYsG5pdzuQvKZJTCCg3JSqy7MiIg7
24VEDFl7zMyOQ/fzhPaBGhM8XnD1a0ZPZLuT8yT5SrC4wQHEsW+0g+i1Hzcfm7Aq
CpywcGrsRDkPOpWzPVPAMUEauq7hyH52HtK/pLCED5LR8wIDAQABo4GiMIGfMAkG
A1UdEwQCMAAwHQYDVR0OBBYEFGh2WCHHkD9EKWYU2bPbODAI+Wc1MFEGA1UdIwRK
MEiAFEZJLOVj5GADuey6QFJTtP3rKUfvoRqkGDAWMRQwEgYDVQQDDAt0ZWFtNTYz
LW5ldIIUc5vuqVx28Rvk8IyAeNjlfPOyczUwEwYDVR0lBAwwCgYIKwYBBQUHAwIw
CwYDVR0PBAQDAgeAMA0GCSqGSIb3DQEBCwUAA4IBAQCzdshMPInLo5BnbtTYtRww
PBl17UB8d14qCeKLZjJIXlespTSOfb0n/5ccl7XOFIjC+JahdtzlPhkqQEBPyciR
kZLBoiEXV4iKTeehEG2Gpri5RyoJYo21rvj3L4JIQkplrlLgKwjuJsAgkj7xWVm7
ECSAlAhHmmpkdtQBiWu/la3+qKGo4MsXwDH1SzL/WC1W3Y063g99OMoAGdT08fu7
IDqdqxniLVCa7anJo1NoPjZapEZ1bkHZa2VR7Cec7QW7w8D3avf4y7zio3TrrhC7
/gomcOzWYXMCUoBb6lqS5wYilx0VgI2A9nt9jI69Mcdl3pZ2hBiazEvDEQSvT7kY
-----END CERTIFICATE-----
