Certificate:
    Data:
        Version: 3 (0x2)
        Serial Number:
            86:02:fb:5d:c0:f6:bd:20:8c:2a:8d:13:fe:dd:7d:7c
        Signature Algorithm: sha256WithRSAEncryption
        Issuer: CN=team563-net
        Validity
            Not Before: May 18 22:25:54 2022 GMT
            Not After : May  2 22:25:54 2025 GMT
        Subject: CN=team563-server
        Subject Public Key Info:
            Public Key Algorithm: rsaEncryption
                RSA Public-Key: (2048 bit)
                Modulus:
                    00:cb:21:df:f2:13:49:37:2a:77:be:41:4f:e6:81:
                    7b:ea:68:de:4a:96:bf:d2:cb:aa:71:06:48:bf:66:
                    de:3c:f6:33:e2:7f:06:d5:e5:e0:cc:50:72:af:d1:
                    4d:c1:bb:2a:9a:3e:00:3c:d0:12:74:68:6c:3d:23:
                    b2:af:d4:4a:db:7d:44:5e:c4:fc:8c:a5:4b:6b:77:
                    4b:c2:21:b6:62:5b:9c:ba:4b:26:a9:ad:36:09:4c:
                    0d:9f:52:17:eb:5a:a6:8d:e4:45:1d:bd:86:d6:b7:
                    48:b0:bb:26:70:c0:24:98:11:5d:5f:a3:ff:f0:d3:
                    0f:84:bd:da:de:00:3c:5d:da:0c:66:9e:f2:b7:64:
                    5c:81:e6:f7:75:19:05:8d:2f:aa:05:37:65:79:57:
                    91:df:f5:59:58:c2:33:52:0f:d8:31:e7:bd:1a:7b:
                    92:04:f3:69:b9:3f:f8:7e:fd:9e:29:43:2d:01:a5:
                    07:09:e3:b1:d8:75:e1:59:35:b4:dd:e5:94:dc:b6:
                    76:18:49:9e:e0:e3:b6:e8:30:88:52:34:78:bf:00:
                    6d:d4:67:bf:fe:fe:8a:d1:3e:6c:3a:ae:b2:1b:59:
                    03:39:1a:21:1a:4a:a7:86:cb:0b:34:95:f1:aa:04:
                    1e:9a:e4:d1:a9:b2:74:61:d9:d9:0f:34:29:c0:01:
                    b2:73
                Exponent: 65537 (0x10001)
        X509v3 extensions:
            X509v3 Basic Constraints: 
                CA:FALSE
            X509v3 Subject Key Identifier: 
                4C:0E:B4:30:87:56:B4:62:DC:2B:1C:D0:BC:1D:78:22:C3:EA:96:B0
            X509v3 Authority Key Identifier: 
                keyid:46:49:2C:E5:63:E4:60:03:B9:EC:BA:40:52:53:B4:FD:EB:29:47:EF
                DirName:/CN=team563-net
                serial:73:9B:EE:A9:5C:76:F1:1B:E4:F0:8C:80:78:D8:E5:7C:F3:B2:73:35

            X509v3 Extended Key Usage: 
                TLS Web Server Authentication
            X509v3 Key Usage: 
                Digital Signature, Key Encipherment
            X509v3 Subject Alternative Name: 
                DNS:team563-server
    Signature Algorithm: sha256WithRSAEncryption
         8a:77:91:6e:93:3e:74:b9:0b:81:ff:54:b3:50:cd:c3:83:65:
         b9:5a:05:ab:8d:89:d0:65:4c:18:2c:ab:f3:3a:e5:0d:20:1b:
         24:7f:3b:68:79:6e:26:8d:b8:7e:23:34:a9:70:1b:99:78:de:
         44:ac:7a:5d:02:3d:e2:2d:85:3b:d3:af:c4:92:87:2a:f1:e9:
         09:4e:32:bf:d2:0c:59:82:da:4f:33:94:e0:0e:d1:d5:60:ce:
         fa:eb:86:1d:47:5a:9b:25:38:61:78:9e:6b:48:ac:58:df:2a:
         d7:c5:23:93:d6:09:e8:5f:bb:7a:6f:a0:b3:ae:61:4b:0f:25:
         c1:0b:52:87:9a:98:66:9f:d0:b4:27:55:a9:e8:b7:d9:f7:e3:
         fe:58:c1:d4:08:bb:ee:e7:b7:9c:78:79:6d:d7:23:a2:e6:f1:
         0d:3d:f3:71:33:89:68:e0:74:88:28:c0:6c:06:d2:c8:8e:07:
         3e:88:27:56:4f:ae:38:f5:96:4e:2f:2b:c5:f9:4a:47:e8:b5:
         f3:d8:3e:da:a6:c4:8c:27:bd:f1:b8:7d:36:d7:f9:11:aa:90:
         0f:34:22:39:1f:3d:32:fe:bc:66:59:5f:97:7b:8f:63:cd:aa:
         e7:1e:04:41:d8:08:cf:7d:77:b9:c5:1c:45:f1:66:5c:0d:2a:
         ec:1c:72:53
-----BEGIN CERTIFICATE-----
MIIDeDCCAmCgAwIBAgIRAIYC+13A9r0gjCqNE/7dfXwwDQYJKoZIhvcNAQELBQAw
FjEUMBIGA1UEAwwLdGVhbTU2My1uZXQwHhcNMjIwNTE4MjIyNTU0WhcNMjUwNTAy
MjIyNTU0WjAZMRcwFQYDVQQDDA50ZWFtNTYzLXNlcnZlcjCCASIwDQYJKoZIhvcN
AQEBBQADggEPADCCAQoCggEBAMsh3/ITSTcqd75BT+aBe+po3kqWv9LLqnEGSL9m
3jz2M+J/BtXl4MxQcq/RTcG7Kpo+ADzQEnRobD0jsq/UStt9RF7E/IylS2t3S8Ih
tmJbnLpLJqmtNglMDZ9SF+tapo3kRR29hta3SLC7JnDAJJgRXV+j//DTD4S92t4A
PF3aDGae8rdkXIHm93UZBY0vqgU3ZXlXkd/1WVjCM1IP2DHnvRp7kgTzabk/+H79
nilDLQGlBwnjsdh14Vk1tN3llNy2dhhJnuDjtugwiFI0eL8AbdRnv/7+itE+bDqu
shtZAzkaIRpKp4bLCzSV8aoEHprk0amydGHZ2Q80KcABsnMCAwEAAaOBvTCBujAJ
BgNVHRMEAjAAMB0GA1UdDgQWBBRMDrQwh1a0YtwrHNC8HXgiw+qWsDBRBgNVHSME
SjBIgBRGSSzlY+RgA7nsukBSU7T96ylH76EapBgwFjEUMBIGA1UEAwwLdGVhbTU2
My1uZXSCFHOb7qlcdvEb5PCMgHjY5XzzsnM1MBMGA1UdJQQMMAoGCCsGAQUFBwMB
MAsGA1UdDwQEAwIFoDAZBgNVHREEEjAQgg50ZWFtNTYzLXNlcnZlcjANBgkqhkiG
9w0BAQsFAAOCAQEAineRbpM+dLkLgf9Us1DNw4NluVoFq42J0GVMGCyr8zrlDSAb
JH87aHluJo24fiM0qXAbmXjeRKx6XQI94i2FO9OvxJKHKvHpCU4yv9IMWYLaTzOU
4A7R1WDO+uuGHUdamyU4YXiea0isWN8q18Ujk9YJ6F+7em+gs65hSw8lwQtSh5qY
Zp/QtCdVqei32ffj/ljB1Ai77ue3nHh5bdcjoubxDT3zcTOJaOB0iCjAbAbSyI4H
PognVk+uOPWWTi8rxflKR+i189g+2qbEjCe98bh9Ntf5EaqQDzQiOR89Mv68Zllf
l3uPY82q5x4EQdgIz313ucUcRfFmXA0q7BxyUw==
-----END CERTIFICATE-----
