Certificate:
    Data:
        Version: 3 (0x2)
        Serial Number:
            dc:77:ba:fc:04:b5:3a:87:27:51:23:29:2c:08:e3:de
        Signature Algorithm: sha256WithRSAEncryption
        Issuer: CN=team180-net
        Validity
            Not Before: May 18 18:52:07 2022 GMT
            Not After : May  2 18:52:07 2025 GMT
        Subject: CN=team180-client
        Subject Public Key Info:
            Public Key Algorithm: rsaEncryption
                RSA Public-Key: (2048 bit)
                Modulus:
                    00:ca:33:97:ce:a2:70:c3:e0:f3:9b:e5:8c:68:a1:
                    63:25:46:23:59:12:43:8f:b7:e1:24:4c:e1:cd:cd:
                    dd:0d:a6:fd:1e:4d:5d:36:e4:be:d9:4b:ac:af:01:
                    50:c9:78:29:2a:75:24:90:bb:d6:7a:16:c1:96:3a:
                    13:c1:cc:8c:b3:8d:96:90:c7:19:8e:ad:84:30:4c:
                    3d:f3:a3:f1:6f:83:2f:b1:83:25:49:cf:5e:1e:96:
                    b2:35:c4:e0:73:cb:a5:3d:41:7f:e0:93:a8:19:d8:
                    d6:8d:a0:b5:66:8b:bd:c0:d2:c8:ca:00:c1:f9:59:
                    bc:ac:38:13:43:1c:9b:db:54:9b:e4:5e:b7:99:90:
                    e9:c4:a4:09:eb:25:65:2a:2e:7f:6b:1c:61:be:15:
                    52:58:e9:2c:22:47:3c:df:47:38:ae:c2:e5:3c:19:
                    5d:3f:49:fa:78:a2:57:7d:23:16:8f:c6:de:be:fd:
                    9a:5c:15:b4:fb:da:20:63:dc:d0:33:74:6d:61:fb:
                    d7:b9:f1:71:3c:0c:50:44:c2:80:9e:91:69:27:c8:
                    b0:fc:86:ed:35:e6:9d:91:a2:39:68:fb:28:af:7e:
                    a3:64:54:6d:86:52:39:89:43:fd:18:e3:e7:39:b7:
                    bf:5f:b3:99:e8:c0:51:f7:cf:fc:a4:69:52:da:d0:
                    e6:fb
                Exponent: 65537 (0x10001)
        X509v3 extensions:
            X509v3 Basic Constraints: 
                CA:FALSE
            X509v3 Subject Key Identifier: 
                7E:55:31:93:E3:FC:3A:A6:BE:EA:DF:9F:DB:BD:F7:03:72:41:AE:17
            X509v3 Authority Key Identifier: 
                keyid:36:51:F3:A5:C4:02:15:C6:BD:B9:7F:DC:94:B8:5A:26:70:05:92:F7
                DirName:/CN=team180-net
                serial:15:45:31:1C:85:73:3E:CD:50:DD:F5:F8:D3:5C:9F:46:48:FD:98:C3

            X509v3 Extended Key Usage: 
                TLS Web Client Authentication
            X509v3 Key Usage: 
                Digital Signature
    Signature Algorithm: sha256WithRSAEncryption
         6e:27:38:a6:07:43:76:99:61:40:af:8a:c0:b3:1e:d3:f8:f2:
         e3:a1:0e:ea:f3:92:b0:c5:62:d0:f6:a0:e4:5d:88:4c:72:4b:
         aa:d0:6f:0c:bd:06:b5:34:f2:f7:77:9d:fc:0e:c1:35:e3:0c:
         32:51:01:78:41:2d:d7:5f:7f:f2:67:73:39:bd:05:18:88:7a:
         0a:af:06:ff:fb:92:c6:4c:ef:34:5a:5b:8f:82:3c:d1:1e:d7:
         d3:ed:ac:3f:5c:b4:4f:96:15:83:eb:64:a1:ba:9d:e2:dc:22:
         a4:e3:23:46:6f:b2:d9:23:65:1c:5b:39:89:24:df:61:17:a3:
         bb:02:b7:6b:37:57:ee:b0:b2:ef:7f:20:5b:a1:e8:ee:58:5a:
         09:2b:ce:15:6b:c9:ba:a7:ba:a7:7e:1b:d8:9a:cf:6c:3d:6b:
         52:c7:41:0b:eb:bf:a1:f3:bd:8e:c6:53:63:87:1e:6f:5d:5d:
         21:a1:7f:a1:42:97:df:a5:d4:67:ca:9a:3a:03:c4:ce:19:3f:
         1f:22:58:72:ea:5e:68:3e:79:cf:28:49:da:f4:04:71:43:27:
         bc:9a:8c:db:c2:5d:db:2b:38:73:26:d8:65:84:92:93:78:ca:
         3a:82:bb:64:57:82:ed:01:17:e0:3d:95:f7:e9:15:ef:ba:62:
         08:e5:a0:dd
-----BEGIN CERTIFICATE-----
MIIDXTCCAkWgAwIBAgIRANx3uvwEtTqHJ1EjKSwI494wDQYJKoZIhvcNAQELBQAw
FjEUMBIGA1UEAwwLdGVhbTE4MC1uZXQwHhcNMjIwNTE4MTg1MjA3WhcNMjUwNTAy
MTg1MjA3WjAZMRcwFQYDVQQDDA50ZWFtMTgwLWNsaWVudDCCASIwDQYJKoZIhvcN
AQEBBQADggEPADCCAQoCggEBAMozl86icMPg85vljGihYyVGI1kSQ4+34SRM4c3N
3Q2m/R5NXTbkvtlLrK8BUMl4KSp1JJC71noWwZY6E8HMjLONlpDHGY6thDBMPfOj
8W+DL7GDJUnPXh6WsjXE4HPLpT1Bf+CTqBnY1o2gtWaLvcDSyMoAwflZvKw4E0Mc
m9tUm+Ret5mQ6cSkCeslZSouf2scYb4VUljpLCJHPN9HOK7C5TwZXT9J+niiV30j
Fo/G3r79mlwVtPvaIGPc0DN0bWH717nxcTwMUETCgJ6RaSfIsPyG7TXmnZGiOWj7
KK9+o2RUbYZSOYlD/Rjj5zm3v1+zmejAUffP/KRpUtrQ5vsCAwEAAaOBojCBnzAJ
BgNVHRMEAjAAMB0GA1UdDgQWBBR+VTGT4/w6pr7q35/bvfcDckGuFzBRBgNVHSME
SjBIgBQ2UfOlxAIVxr25f9yUuFomcAWS96EapBgwFjEUMBIGA1UEAwwLdGVhbTE4
MC1uZXSCFBVFMRyFcz7NUN31+NNcn0ZI/ZjDMBMGA1UdJQQMMAoGCCsGAQUFBwMC
MAsGA1UdDwQEAwIHgDANBgkqhkiG9w0BAQsFAAOCAQEAbic4pgdDdplhQK+KwLMe
0/jy46EO6vOSsMVi0Pag5F2ITHJLqtBvDL0GtTTy93ed/A7BNeMMMlEBeEEt119/
8mdzOb0FGIh6Cq8G//uSxkzvNFpbj4I80R7X0+2sP1y0T5YVg+tkobqd4twipOMj
Rm+y2SNlHFs5iSTfYRejuwK3azdX7rCy738gW6Ho7lhaCSvOFWvJuqe6p34b2JrP
bD1rUsdBC+u/ofO9jsZTY4ceb11dIaF/oUKX36XUZ8qaOgPEzhk/HyJYcupeaD55
zyhJ2vQEcUMnvJqM28Jd2ys4cybYZYSSk3jKOoK7ZFeC7QEX4D2V9+kV77piCOWg
3Q==
-----END CERTIFICATE-----
