Certificate:
    Data:
        Version: 3 (0x2)
        Serial Number:
            6a:8f:05:b4:e6:ed:aa:8c:f7:6d:3c:0b:fc:28:a4:41
        Signature Algorithm: sha256WithRSAEncryption
        Issuer: CN=team314-net
        Validity
            Not Before: May 18 20:03:26 2022 GMT
            Not After : May  2 20:03:26 2025 GMT
        Subject: CN=team314-client
        Subject Public Key Info:
            Public Key Algorithm: rsaEncryption
                RSA Public-Key: (2048 bit)
                Modulus:
                    00:a5:d4:01:77:b3:c7:d8:a3:d3:6a:74:2b:ab:29:
                    5b:a1:a2:63:38:d4:98:d1:ca:f8:2d:ad:84:9e:b5:
                    88:2f:31:1f:5c:bb:7b:2f:bf:db:8b:59:b8:c1:7b:
                    90:9a:8f:51:55:81:b1:c9:26:f4:09:9c:47:a3:a4:
                    ab:8b:42:97:3f:3d:a7:11:a7:f3:39:06:02:82:b4:
                    a7:ae:23:7d:66:ed:0c:41:f8:9b:c0:8d:e9:8d:7b:
                    90:c0:74:4c:59:30:76:14:b1:86:29:52:7f:8f:69:
                    1b:b4:ca:8b:e3:25:b1:0c:6e:ee:0c:c9:3c:07:ae:
                    a3:28:bc:9d:c1:dc:0c:93:b5:56:8d:e2:ce:7d:96:
                    5d:1e:96:36:d8:b9:c9:05:01:e8:c9:b3:6b:ad:f3:
                    6c:2d:88:6a:ab:79:77:96:72:42:b2:53:57:a1:bc:
                    2b:b2:c5:7b:09:c8:66:62:1a:2f:cb:68:7e:64:15:
                    71:74:97:f6:b5:3d:75:99:2b:4f:4f:ef:50:9d:8f:
                    18:90:bf:5c:0b:0f:53:d8:ba:6a:41:66:2f:77:04:
                    0b:c6:41:64:70:e0:08:47:d5:01:8f:b4:a6:ad:f1:
                    1a:98:f7:48:eb:1c:05:6d:b8:f4:ee:cb:14:86:be:
                    a4:08:fd:b9:11:56:cb:fc:56:9f:f7:24:a2:ba:54:
                    e8:5f
                Exponent: 65537 (0x10001)
        X509v3 extensions:
            X509v3 Basic Constraints: 
                CA:FALSE
            X509v3 Subject Key Identifier: 
                5D:8C:74:F7:33:47:24:45:ED:93:A2:4C:AD:BC:A0:5B:01:8C:3D:69
            X509v3 Authority Key Identifier: 
                keyid:86:3A:D2:EB:D4:BC:F7:4F:BA:2C:ED:77:32:E4:E9:B0:F8:A6:72:07
                DirName:/CN=team314-net
                serial:57:DE:74:6A:A2:65:0B:42:8A:6A:C0:8D:A5:00:A2:5E:BE:DB:09:60

            X509v3 Extended Key Usage: 
                TLS Web Client Authentication
            X509v3 Key Usage: 
                Digital Signature
    Signature Algorithm: sha256WithRSAEncryption
         44:bb:28:fd:2c:4b:2a:ff:39:22:be:df:2b:91:67:ef:b0:1d:
         7c:f3:de:20:20:76:5e:ad:4a:a9:33:e6:01:3a:33:89:c9:26:
         b0:f4:7e:1d:3b:41:63:aa:26:b4:39:5e:33:bc:4d:a5:3f:32:
         fc:22:58:bd:bb:7a:6d:b2:21:95:08:6e:c9:77:e3:df:a8:b7:
         e7:42:3d:8f:88:32:19:2b:cf:e0:64:77:b2:cd:16:be:a9:da:
         ee:d4:0a:f2:b0:14:b9:47:64:65:f7:ef:bb:e2:77:78:60:8b:
         25:7e:de:ed:d7:1d:2d:ce:f6:9f:5c:aa:f6:5c:4e:73:98:2f:
         be:9e:a1:1a:1d:d8:b4:be:65:6b:ad:31:a2:e7:1b:1c:be:0a:
         d6:de:66:4d:3d:80:3a:dc:29:61:a6:e6:1d:2b:28:c7:1a:89:
         ec:32:cc:c8:92:99:1a:c5:78:49:f9:05:16:bd:e0:0d:71:dc:
         d9:7f:1a:73:16:62:9d:6c:bf:31:20:2c:31:8a:e8:86:75:30:
         5e:f3:36:69:2c:e5:00:08:20:05:b2:4b:e3:14:eb:f7:4f:c7:
         7c:59:2e:51:8e:aa:64:ac:a3:c2:7f:b8:4e:5e:66:52:07:02:
         99:8d:05:3d:e2:ba:e1:87:97:3f:fe:63:16:39:91:be:fe:bb:
         ae:63:b1:03
-----BEGIN CERTIFICATE-----
MIIDXDCCAkSgAwIBAgIQao8FtObtqoz3bTwL/CikQTANBgkqhkiG9w0BAQsFADAW
MRQwEgYDVQQDDAt0ZWFtMzE0LW5ldDAeFw0yMjA1MTgyMDAzMjZaFw0yNTA1MDIy
MDAzMjZaMBkxFzAVBgNVBAMMDnRlYW0zMTQtY2xpZW50MIIBIjANBgkqhkiG9w0B
AQEFAAOCAQ8AMIIBCgKCAQEApdQBd7PH2KPTanQrqylboaJjONSY0cr4La2EnrWI
LzEfXLt7L7/bi1m4wXuQmo9RVYGxySb0CZxHo6Sri0KXPz2nEafzOQYCgrSnriN9
Zu0MQfibwI3pjXuQwHRMWTB2FLGGKVJ/j2kbtMqL4yWxDG7uDMk8B66jKLydwdwM
k7VWjeLOfZZdHpY22LnJBQHoybNrrfNsLYhqq3l3lnJCslNXobwrssV7CchmYhov
y2h+ZBVxdJf2tT11mStPT+9QnY8YkL9cCw9T2LpqQWYvdwQLxkFkcOAIR9UBj7Sm
rfEamPdI6xwFbbj07ssUhr6kCP25EVbL/Faf9ySiulToXwIDAQABo4GiMIGfMAkG
A1UdEwQCMAAwHQYDVR0OBBYEFF2MdPczRyRF7ZOiTK28oFsBjD1pMFEGA1UdIwRK
MEiAFIY60uvUvPdPuiztdzLk6bD4pnIHoRqkGDAWMRQwEgYDVQQDDAt0ZWFtMzE0
LW5ldIIUV950aqJlC0KKasCNpQCiXr7bCWAwEwYDVR0lBAwwCgYIKwYBBQUHAwIw
CwYDVR0PBAQDAgeAMA0GCSqGSIb3DQEBCwUAA4IBAQBEuyj9LEsq/zkivt8rkWfv
sB18894gIHZerUqpM+YBOjOJySaw9H4dO0Fjqia0OV4zvE2lPzL8Ili9u3ptsiGV
CG7Jd+PfqLfnQj2PiDIZK8/gZHeyzRa+qdru1ArysBS5R2Rl9++74nd4YIslft7t
1x0tzvafXKr2XE5zmC++nqEaHdi0vmVrrTGi5xscvgrW3mZNPYA63ClhpuYdKyjH
GonsMszIkpkaxXhJ+QUWveANcdzZfxpzFmKdbL8xICwxiuiGdTBe8zZpLOUACCAF
skvjFOv3T8d8WS5RjqpkrKPCf7hOXmZSBwKZjQU94rrhh5c//mMWOZG+/ruuY7ED
-----END CERTIFICATE-----
