Certificate:
    Data:
        Version: 3 (0x2)
        Serial Number:
            0b:80:7c:7c:f0:6c:65:47:7d:42:a0:6d:34:a8:81:b9
        Signature Algorithm: sha256WithRSAEncryption
        Issuer: CN=team464-net
        Validity
            Not Before: May 18 21:22:57 2022 GMT
            Not After : May  2 21:22:57 2025 GMT
        Subject: CN=team464-server
        Subject Public Key Info:
            Public Key Algorithm: rsaEncryption
                RSA Public-Key: (2048 bit)
                Modulus:
                    00:af:1c:fd:c6:f8:fc:86:22:b3:30:14:19:c8:1b:
                    ee:38:ee:d1:83:00:06:c4:84:06:50:f6:91:23:a1:
                    3f:ba:15:fb:79:76:a1:29:d0:86:95:eb:16:42:93:
                    dc:b3:a1:26:de:df:e3:c1:09:ed:78:2b:d2:ee:3f:
                    4c:24:be:89:94:47:37:3f:de:3f:5e:3d:a8:4d:15:
                    7b:fc:ef:87:59:d9:a1:df:e7:af:6a:09:10:08:80:
                    c2:8f:58:57:22:c2:cc:44:ac:41:43:a0:43:3d:4c:
                    d0:e8:02:ff:c6:c1:01:e5:92:b7:5a:cf:ed:84:2e:
                    74:60:87:47:24:5d:6b:ac:58:85:49:4f:ee:78:09:
                    48:02:75:1c:ab:5c:70:02:5c:e8:23:99:9f:47:fe:
                    1b:c8:ff:bc:b4:22:2c:f7:00:f8:11:53:c8:b9:71:
                    0e:09:a7:68:b0:6f:3e:08:8e:f7:aa:43:be:fb:fb:
                    27:9b:ac:af:a4:99:d3:49:89:bf:57:a0:b3:8f:c1:
                    d6:6d:c7:89:21:84:1e:a3:60:04:4b:c1:3b:cc:22:
                    08:0b:cb:ad:c4:c5:db:b5:96:96:6a:54:de:6d:c2:
                    79:00:55:ce:3d:34:ed:c1:c5:13:87:54:22:d5:2d:
                    17:10:f7:c4:86:28:72:fc:8d:72:7d:9c:d4:14:c1:
                    29:a3
                Exponent: 65537 (0x10001)
        X509v3 extensions:
            X509v3 Basic Constraints: 
                CA:FALSE
            X509v3 Subject Key Identifier: 
                B8:F8:05:93:EF:9B:DD:47:B5:AE:1B:0B:B7:44:1B:5A:23:A1:98:D0
            X509v3 Authority Key Identifier: 
                keyid:8C:7D:4E:E7:F3:48:7F:4D:8B:22:D1:73:00:CA:67:E2:22:AC:13:01
                DirName:/CN=team464-net
                serial:3E:85:2B:37:23:AF:18:6C:7E:E6:B0:BE:64:F2:BE:9F:64:8C:02:55

            X509v3 Extended Key Usage: 
                TLS Web Server Authentication
            X509v3 Key Usage: 
                Digital Signature, Key Encipherment
            X509v3 Subject Alternative Name: 
                DNS:team464-server
    Signature Algorithm: sha256WithRSAEncryption
         c3:49:fb:58:ec:f4:a1:15:96:c9:34:17:d3:97:d1:e8:40:b1:
         76:b8:47:61:14:0e:71:a2:59:fa:88:35:32:2f:f8:50:2a:90:
         28:56:0c:11:e3:06:c6:13:5e:53:ea:5a:6b:ac:5c:d9:79:3b:
         49:d4:ab:31:d6:36:bd:4d:f0:d3:be:9c:44:5c:b9:9d:11:62:
         ee:1d:cd:cf:12:08:3a:9b:0c:9e:6a:cc:7a:a4:99:b3:a9:17:
         d2:4a:c6:2e:c3:1f:1c:b8:b6:38:b0:3f:7e:39:ec:84:52:fe:
         7e:72:73:e5:fd:a2:c3:2b:f2:0c:21:0c:0b:a9:d5:82:95:47:
         a6:1b:f1:e1:d2:54:93:7d:e2:09:00:ce:b1:74:0d:b6:67:f6:
         fc:00:92:3c:e5:c1:06:55:08:0d:66:f5:63:dd:2c:ad:ab:75:
         ca:ee:b4:34:43:9c:04:70:20:f6:27:6f:39:2e:b1:08:61:16:
         96:a4:82:0a:22:76:4d:3d:32:8f:29:be:8c:1b:cf:8a:f8:48:
         64:d3:e0:11:d6:d6:98:d4:f4:3e:aa:58:4e:1e:63:c9:77:62:
         db:0c:23:79:77:35:91:86:d2:8a:d3:15:0d:c2:ea:a6:18:77:
         a4:b9:7b:f4:d7:19:10:65:e6:5c:5c:d8:6c:45:64:33:28:39:
         df:92:2a:0b
-----BEGIN CERTIFICATE-----
MIIDdzCCAl+gAwIBAgIQC4B8fPBsZUd9QqBtNKiBuTANBgkqhkiG9w0BAQsFADAW
MRQwEgYDVQQDDAt0ZWFtNDY0LW5ldDAeFw0yMjA1MTgyMTIyNTdaFw0yNTA1MDIy
MTIyNTdaMBkxFzAVBgNVBAMMDnRlYW00NjQtc2VydmVyMIIBIjANBgkqhkiG9w0B
AQEFAAOCAQ8AMIIBCgKCAQEArxz9xvj8hiKzMBQZyBvuOO7RgwAGxIQGUPaRI6E/
uhX7eXahKdCGlesWQpPcs6Em3t/jwQnteCvS7j9MJL6JlEc3P94/Xj2oTRV7/O+H
Wdmh3+evagkQCIDCj1hXIsLMRKxBQ6BDPUzQ6AL/xsEB5ZK3Ws/thC50YIdHJF1r
rFiFSU/ueAlIAnUcq1xwAlzoI5mfR/4byP+8tCIs9wD4EVPIuXEOCadosG8+CI73
qkO++/snm6yvpJnTSYm/V6Czj8HWbceJIYQeo2AES8E7zCIIC8utxMXbtZaWalTe
bcJ5AFXOPTTtwcUTh1Qi1S0XEPfEhihy/I1yfZzUFMEpowIDAQABo4G9MIG6MAkG
A1UdEwQCMAAwHQYDVR0OBBYEFLj4BZPvm91Hta4bC7dEG1ojoZjQMFEGA1UdIwRK
MEiAFIx9TufzSH9NiyLRcwDKZ+IirBMBoRqkGDAWMRQwEgYDVQQDDAt0ZWFtNDY0
LW5ldIIUPoUrNyOvGGx+5rC+ZPK+n2SMAlUwEwYDVR0lBAwwCgYIKwYBBQUHAwEw
CwYDVR0PBAQDAgWgMBkGA1UdEQQSMBCCDnRlYW00NjQtc2VydmVyMA0GCSqGSIb3
DQEBCwUAA4IBAQDDSftY7PShFZbJNBfTl9HoQLF2uEdhFA5xoln6iDUyL/hQKpAo
VgwR4wbGE15T6lprrFzZeTtJ1Ksx1ja9TfDTvpxEXLmdEWLuHc3PEgg6mwyeasx6
pJmzqRfSSsYuwx8cuLY4sD9+OeyEUv5+cnPl/aLDK/IMIQwLqdWClUemG/Hh0lST
feIJAM6xdA22Z/b8AJI85cEGVQgNZvVj3Sytq3XK7rQ0Q5wEcCD2J285LrEIYRaW
pIIKInZNPTKPKb6MG8+K+Ehk0+AR1taY1PQ+qlhOHmPJd2LbDCN5dzWRhtKK0xUN
wuqmGHekuXv01xkQZeZcXNhsRWQzKDnfkioL
-----END CERTIFICATE-----
