Certificate:
    Data:
        Version: 3 (0x2)
        Serial Number:
            38:26:d8:f0:18:6f:bb:dc:b5:d9:d1:da:e5:66:7e:04
        Signature Algorithm: sha256WithRSAEncryption
        Issuer: CN=team464-net
        Validity
            Not Before: May 18 21:22:57 2022 GMT
            Not After : May  2 21:22:57 2025 GMT
        Subject: CN=team464-client
        Subject Public Key Info:
            Public Key Algorithm: rsaEncryption
                RSA Public-Key: (2048 bit)
                Modulus:
                    00:c4:81:d3:10:a4:9c:dd:98:82:f8:72:bc:cc:b1:
                    e5:5d:c3:da:bb:49:79:a9:98:f2:ee:59:a5:6b:e7:
                    48:28:31:07:85:9c:f6:5d:e9:55:7b:9e:b3:d0:20:
                    68:17:ac:eb:a0:78:ad:db:59:40:19:aa:b3:81:e5:
                    9e:ae:7b:a4:00:c9:55:ea:0b:e6:78:47:0c:54:da:
                    43:a9:d4:68:76:f9:d7:78:59:63:da:58:b8:f2:6c:
                    98:3c:dc:d3:28:00:d2:67:a0:6f:ff:11:11:2e:a8:
                    16:45:04:50:ee:e4:d6:64:06:ea:d3:06:b2:b3:21:
                    ec:2d:af:9c:b5:d2:3a:8a:43:c6:4f:09:5d:60:32:
                    7f:a3:ba:c5:dc:9a:ec:26:50:70:6f:8b:ac:b2:a1:
                    8d:ac:9c:73:d0:bd:28:96:5e:15:ad:89:af:71:1d:
                    a6:9a:7f:fd:4f:de:f7:b8:1c:68:55:69:37:6b:d8:
                    3d:52:70:58:b6:ac:a2:92:27:d6:8b:ef:1c:ef:3f:
                    5d:23:fb:38:0d:f5:4f:6f:1b:96:bf:68:3d:93:14:
                    56:c8:d6:f9:18:c0:cc:c6:e8:a0:ca:90:93:8e:db:
                    84:5b:6f:e9:8d:61:61:ca:a7:60:05:89:ae:e1:7e:
                    9b:0f:5d:51:af:24:0a:29:b2:f5:18:b6:d4:f1:a2:
                    ab:f3
                Exponent: 65537 (0x10001)
        X509v3 extensions:
            X509v3 Basic Constraints: 
                CA:FALSE
            X509v3 Subject Key Identifier: 
                32:22:BC:95:CA:1D:AD:39:DA:CC:44:72:6E:72:E1:4C:F8:A3:35:13
            X509v3 Authority Key Identifier: 
                keyid:8C:7D:4E:E7:F3:48:7F:4D:8B:22:D1:73:00:CA:67:E2:22:AC:13:01
                DirName:/CN=team464-net
                serial:3E:85:2B:37:23:AF:18:6C:7E:E6:B0:BE:64:F2:BE:9F:64:8C:02:55

            X509v3 Extended Key Usage: 
                TLS Web Client Authentication
            X509v3 Key Usage: 
                Digital Signature
    Signature Algorithm: sha256WithRSAEncryption
         32:88:2c:7d:07:d9:93:9c:d2:e1:51:b1:b7:a6:25:f1:25:65:
         d9:ee:de:cd:4c:11:dd:ab:eb:be:4e:76:41:3f:6e:d9:5b:eb:
         68:36:6b:25:f2:b8:1b:20:81:11:bf:6d:1e:54:09:db:08:40:
         77:77:ee:62:1a:6e:e8:37:fb:6a:32:92:c9:32:3f:35:f6:26:
         3e:b3:ee:5c:c8:25:60:20:a1:f6:70:da:cd:59:9b:1b:07:19:
         d5:ba:bb:83:56:d4:22:ac:59:14:57:76:06:f0:80:25:3c:05:
         e6:d9:31:e4:7f:45:ac:cc:4a:37:02:38:30:10:53:49:30:8b:
         41:6d:d0:4e:9c:df:e8:7b:b0:9f:5d:ee:98:a8:5f:fd:5b:0e:
         d1:c9:47:7f:c1:27:62:0c:3e:22:d0:62:46:87:ec:a5:70:4c:
         2f:b5:2e:ba:96:ec:2f:18:dc:f3:cf:53:c4:31:c9:56:8e:68:
         ef:c3:e4:36:cc:07:d1:23:84:f7:9c:8b:28:c4:65:2c:70:9e:
         e6:bf:28:7b:37:43:3e:43:50:47:d6:6d:5b:eb:08:9d:b7:c0:
         ac:53:1c:4a:c3:9d:f3:8a:90:03:7a:96:9d:a5:13:e7:ed:53:
         36:cb:ec:cb:b2:fa:94:bc:4c:5c:02:9f:42:59:f2:0f:8a:d8:
         7c:5f:e1:3a
-----BEGIN CERTIFICATE-----
MIIDXDCCAkSgAwIBAgIQOCbY8Bhvu9y12dHa5WZ+BDANBgkqhkiG9w0BAQsFADAW
MRQwEgYDVQQDDAt0ZWFtNDY0LW5ldDAeFw0yMjA1MTgyMTIyNTdaFw0yNTA1MDIy
MTIyNTdaMBkxFzAVBgNVBAMMDnRlYW00NjQtY2xpZW50MIIBIjANBgkqhkiG9w0B
AQEFAAOCAQ8AMIIBCgKCAQEAxIHTEKSc3ZiC+HK8zLHlXcPau0l5qZjy7lmla+dI
KDEHhZz2XelVe56z0CBoF6zroHit21lAGaqzgeWernukAMlV6gvmeEcMVNpDqdRo
dvnXeFlj2li48myYPNzTKADSZ6Bv/xERLqgWRQRQ7uTWZAbq0waysyHsLa+ctdI6
ikPGTwldYDJ/o7rF3JrsJlBwb4ussqGNrJxz0L0oll4VrYmvcR2mmn/9T973uBxo
VWk3a9g9UnBYtqyikifWi+8c7z9dI/s4DfVPbxuWv2g9kxRWyNb5GMDMxuigypCT
jtuEW2/pjWFhyqdgBYmu4X6bD11RryQKKbL1GLbU8aKr8wIDAQABo4GiMIGfMAkG
A1UdEwQCMAAwHQYDVR0OBBYEFDIivJXKHa052sxEcm5y4Uz4ozUTMFEGA1UdIwRK
MEiAFIx9TufzSH9NiyLRcwDKZ+IirBMBoRqkGDAWMRQwEgYDVQQDDAt0ZWFtNDY0
LW5ldIIUPoUrNyOvGGx+5rC+ZPK+n2SMAlUwEwYDVR0lBAwwCgYIKwYBBQUHAwIw
CwYDVR0PBAQDAgeAMA0GCSqGSIb3DQEBCwUAA4IBAQAyiCx9B9mTnNLhUbG3piXx
JWXZ7t7NTBHdq+u+TnZBP27ZW+toNmsl8rgbIIERv20eVAnbCEB3d+5iGm7oN/tq
MpLJMj819iY+s+5cyCVgIKH2cNrNWZsbBxnVuruDVtQirFkUV3YG8IAlPAXm2THk
f0WszEo3AjgwEFNJMItBbdBOnN/oe7CfXe6YqF/9Ww7RyUd/wSdiDD4i0GJGh+yl
cEwvtS66luwvGNzzz1PEMclWjmjvw+Q2zAfRI4T3nIsoxGUscJ7mvyh7N0M+Q1BH
1m1b6widt8CsUxxKw53zipADepadpRPn7VM2y+zLsvqUvExcAp9CWfIPith8X+E6
-----END CERTIFICATE-----
