Certificate:
    Data:
        Version: 3 (0x2)
        Serial Number:
            d4:1a:4b:f2:3b:20:77:ad:15:26:50:25:eb:fe:43:7e
        Signature Algorithm: sha256WithRSAEncryption
        Issuer: CN=team669-net
        Validity
            Not Before: May 18 23:28:46 2022 GMT
            Not After : May  2 23:28:46 2025 GMT
        Subject: CN=team669-client
        Subject Public Key Info:
            Public Key Algorithm: rsaEncryption
                RSA Public-Key: (2048 bit)
                Modulus:
                    00:ae:d2:72:05:cc:7e:44:11:89:f9:5b:a8:3d:5d:
                    a1:6d:be:ed:48:e7:b5:c1:d8:14:70:a8:5b:51:1c:
                    71:f0:d0:5c:de:25:8d:4f:2d:d6:d0:60:73:d1:b0:
                    7f:7c:b5:a2:70:98:18:28:a9:21:a8:6e:15:9e:3f:
                    14:52:bc:42:97:2a:f5:3e:da:ab:db:08:90:b2:ea:
                    96:7b:2c:9f:d1:cf:0a:d0:ed:73:3f:88:ba:cf:44:
                    88:ac:5b:0f:1d:da:04:5f:de:7e:b2:ef:0a:7a:b6:
                    90:19:75:3a:fd:54:8e:db:78:87:7f:01:7e:36:d8:
                    00:cc:20:7a:48:21:cd:ee:1a:a6:8a:32:0e:55:a0:
                    5c:f9:a8:03:1e:3c:e6:08:33:c0:a4:db:c7:5f:95:
                    8e:62:98:2b:8f:a8:07:4c:2b:15:d2:ac:fc:57:a9:
                    41:11:90:05:9c:7e:72:3b:74:1c:cb:d1:2f:8c:15:
                    c8:1b:1d:f5:b5:89:1c:d4:91:64:df:67:c1:f7:27:
                    e6:2c:b8:7c:97:6c:78:d4:50:f3:df:0d:02:65:e9:
                    6d:1c:a3:cf:29:2b:03:15:6f:8f:92:d4:1c:c9:c9:
                    8a:4c:b4:83:d5:df:f5:22:25:89:ce:6f:73:71:11:
                    f7:18:27:45:f0:3a:15:ff:9b:5e:bc:68:62:78:ce:
                    37:9d
                Exponent: 65537 (0x10001)
        X509v3 extensions:
            X509v3 Basic Constraints: 
                CA:FALSE
            X509v3 Subject Key Identifier: 
                A5:FD:28:E8:90:D4:CF:67:43:92:43:A1:C6:D5:F3:96:73:E3:00:FA
            X509v3 Authority Key Identifier: 
                keyid:53:B1:20:99:EB:97:6B:C7:72:50:05:3D:73:E5:94:AE:3F:DE:D3:B9
                DirName:/CN=team669-net
                serial:7D:F6:39:3F:6C:AF:E2:C9:25:39:8B:0F:82:1F:E5:5D:49:8C:E6:92

            X509v3 Extended Key Usage: 
                TLS Web Client Authentication
            X509v3 Key Usage: 
                Digital Signature
    Signature Algorithm: sha256WithRSAEncryption
         01:a7:81:48:8d:4a:91:df:6d:ae:83:4c:66:04:e1:27:aa:84:
         58:28:da:ab:10:bc:af:ac:74:22:6e:19:d9:0d:e6:16:94:25:
         8b:2e:ef:97:6f:a9:13:34:67:31:ae:a5:13:cd:2d:5c:4e:28:
         65:bd:8f:df:fe:57:39:8e:7d:b4:c7:e4:cb:1b:c0:a9:bb:a6:
         5a:45:da:c5:6e:c7:ad:c8:a7:36:e3:bb:a1:a4:b7:9a:ea:22:
         61:87:ba:53:e9:ab:00:39:80:07:91:98:1f:a3:36:61:67:28:
         1c:06:55:d5:f2:98:ab:cc:f7:ea:8f:b2:e6:da:0f:1e:d2:d0:
         0c:4f:9b:4d:b4:af:8e:c5:94:0e:bf:37:4b:e2:c7:63:22:86:
         ea:64:4e:b0:9c:62:5c:b9:db:32:f2:b6:16:f2:1a:71:1b:81:
         31:57:e5:13:0a:d5:f7:a0:3f:7b:bf:fb:bf:9e:4d:d6:e7:f2:
         d9:b6:a0:37:5e:df:ee:52:f9:8a:7a:1c:c4:0f:73:4d:e7:52:
         1e:b5:25:4a:6c:ed:36:14:64:a0:64:f0:e3:5f:d8:e9:6a:8d:
         68:21:98:7a:21:cb:74:91:a4:7a:19:74:bb:23:98:ee:4d:d0:
         2f:27:0a:85:6c:88:b2:ee:c2:f9:73:4a:80:09:d6:a4:7a:49:
         ad:3c:4f:91
-----BEGIN CERTIFICATE-----
MIIDXTCCAkWgAwIBAgIRANQaS/I7IHetFSZQJev+Q34wDQYJKoZIhvcNAQELBQAw
FjEUMBIGA1UEAwwLdGVhbTY2OS1uZXQwHhcNMjIwNTE4MjMyODQ2WhcNMjUwNTAy
MjMyODQ2WjAZMRcwFQYDVQQDDA50ZWFtNjY5LWNsaWVudDCCASIwDQYJKoZIhvcN
AQEBBQADggEPADCCAQoCggEBAK7ScgXMfkQRiflbqD1doW2+7UjntcHYFHCoW1Ec
cfDQXN4ljU8t1tBgc9Gwf3y1onCYGCipIahuFZ4/FFK8Qpcq9T7aq9sIkLLqlnss
n9HPCtDtcz+Ius9EiKxbDx3aBF/efrLvCnq2kBl1Ov1Ujtt4h38BfjbYAMwgekgh
ze4apooyDlWgXPmoAx485ggzwKTbx1+VjmKYK4+oB0wrFdKs/FepQRGQBZx+cjt0
HMvRL4wVyBsd9bWJHNSRZN9nwfcn5iy4fJdseNRQ898NAmXpbRyjzykrAxVvj5LU
HMnJiky0g9Xf9SIlic5vc3ER9xgnRfA6Ff+bXrxoYnjON50CAwEAAaOBojCBnzAJ
BgNVHRMEAjAAMB0GA1UdDgQWBBSl/SjokNTPZ0OSQ6HG1fOWc+MA+jBRBgNVHSME
SjBIgBRTsSCZ65drx3JQBT1z5ZSuP97TuaEapBgwFjEUMBIGA1UEAwwLdGVhbTY2
OS1uZXSCFH32OT9sr+LJJTmLD4If5V1JjOaSMBMGA1UdJQQMMAoGCCsGAQUFBwMC
MAsGA1UdDwQEAwIHgDANBgkqhkiG9w0BAQsFAAOCAQEAAaeBSI1Kkd9troNMZgTh
J6qEWCjaqxC8r6x0Im4Z2Q3mFpQliy7vl2+pEzRnMa6lE80tXE4oZb2P3/5XOY59
tMfkyxvAqbumWkXaxW7HrcinNuO7oaS3muoiYYe6U+mrADmAB5GYH6M2YWcoHAZV
1fKYq8z36o+y5toPHtLQDE+bTbSvjsWUDr83S+LHYyKG6mROsJxiXLnbMvK2FvIa
cRuBMVflEwrV96A/e7/7v55N1ufy2bagN17f7lL5inocxA9zTedSHrUlSmztNhRk
oGTw41/Y6WqNaCGYeiHLdJGkehl0uyOY7k3QLycKhWyIsu7C+XNKgAnWpHpJrTxP
kQ==
-----END CERTIFICATE-----
